0920437269746963616C204572726F7200202050726573732061206B65792074:
  0. A9 963F 04CE 0191:_tsr_initialize 032D:_tsr_dta_on 0387:_tsr_dta_off 03C8:_tsr_no_pop 03F1:_tsr_service
1E:
  2E8E1E....8C16....8926....A3....893E....FA1E17BC....83E4FCFB53:
    0. 08 1A33 007C 004B:_cerror_open 006E:_cerror_close (0053: C3)
    1. 08 1A33 007E 004D:_cerror_open 0070:_cerror_close (0053: 1F)
    2. 07 89B4 007A 0049:_cerror_open 006C:_cerror_close (0052: C3)
    3. 07 89B4 007C 004B:_cerror_open 006E:_cerror_close (0052: 1F)
  B8....50:
    E8....83C404C3:
      0. 00 0000 000C (!)0000:?
    ..........83C404CB:
      0. 00 0000 000E (!)0000:? (REF 0006: ___faterr)
31C0:
  50:
    50:
      E8....8916....A3....83C404C3:
        0. 00 0000 0012 0000:_randomize
      ..........8916....A3....83C404CB:
        0. 00 0000 0014 0000:_randomize
    E8....8916....A3....83C402C3:
      0. 00 0000 0011 0000:_randomize
    ..........8916....A3....83C402CB:
      0. 00 0000 0013 0000:_randomize
  BAC07F:
    C3:
      0. 00 0000 0006 0000:_nanf
    CB:
      0. 00 0000 0006 0000:_nanf
32EDE307D1E0D1D24975F9CB558BEC538B56088B46068B4E0C8B5E0A:
  E8....5B:
    0. 17 C080 007E 0000:__aFlshl 000C:__aFlmul 0024:__aFldiv 0040:__aFuldiv 0057:__aNNalmul
  ..:
    0. 00 0000 0084 0000:__aFlshl 000C:__aFlmul 0026:__aFldiv 0044:__aFuldiv 005D:__aFNalmul
33:
  C0:
    8EC0263906CC007507263906CE007402CD33A3....C706....0000:
      C3EBE0:
        0. 02 1E71 025E 0000:_msm_init 001E:_msm_term 0020:_msm_showcursor 002D:_msm_hidecursor 003A:_msm_getstatus 007A:_msm_setcurpos 0091:_msm_getpress 00F9:_msm_getrelease 00FE:_msm_setareax 0104:_msm_setareay 010A:_msm_setgraphcur 0126:_msm_settextcur 0140:_msm_reversebuttonon 0145:_msm_reversebuttonoff 014A:_msm_reversebuttonis 0152:_msm_reversebutton 0178:_msm_readcounters 018D:_msm_signal 0209:_msm_lightpenon 0216:_msm_lightpenoff 0223:_msm_setratio 0229:_msm_condoff 024A:_msm_setthreshhold (023B: C3)
        1. 02 1E71 0261 0000:_msm_init 001E:_msm_term 0020:_msm_showcursor 002D:_msm_hidecursor 003A:_msm_getstatus 007C:_msm_setcurpos 0093:_msm_getpress 00FF:_msm_getrelease 0104:_msm_setareax 010A:_msm_setareay 0110:_msm_setgraphcur 012A:_msm_settextcur 0144:_msm_reversebuttonon 0149:_msm_reversebuttonoff 014E:_msm_reversebuttonis 0156:_msm_reversebutton 017C:_msm_readcounters 0191:_msm_signal 020C:_msm_lightpenon 0219:_msm_lightpenoff 0226:_msm_setratio 022C:_msm_condoff 024D:_msm_setthreshhold (023B: CD)
      CBEBE0:
        0. 02 1E71 0264 0000:_msm_init 001E:_msm_term 0020:_msm_showcursor 002D:_msm_hidecursor 003A:_msm_getstatus 007A:_msm_setcurpos 0091:_msm_getpress 00F9:_msm_getrelease 00FE:_msm_setareax 0104:_msm_setareay 010A:_msm_setgraphcur 0126:_msm_settextcur 0140:_msm_reversebuttonon 0145:_msm_reversebuttonoff 014A:_msm_reversebuttonis 0152:_msm_reversebutton 0178:_msm_readcounters 018D:_msm_signal 020F:_msm_lightpenon 021C:_msm_lightpenoff 0229:_msm_setratio 022F:_msm_condoff 0250:_msm_setthreshhold (0241: CB)
        1. 02 1E71 0267 0000:_msm_init 001E:_msm_term 0020:_msm_showcursor 002D:_msm_hidecursor 003A:_msm_getstatus 007C:_msm_setcurpos 0093:_msm_getpress 00FF:_msm_getrelease 0104:_msm_setareax 010A:_msm_setareay 0110:_msm_setgraphcur 012A:_msm_settextcur 0144:_msm_reversebuttonon 0149:_msm_reversebuttonoff 014E:_msm_reversebuttonis 0156:_msm_reversebutton 017C:_msm_readcounters 0191:_msm_signal 0212:_msm_lightpenon 021F:_msm_lightpenoff 022C:_msm_setratio 0232:_msm_condoff 0253:_msm_setthreshhold (0241: CD)
    C3B8....50E9....B80600EB438C1E....A1....8B1E....8BCB83E30FD1:
      0. 0A 0983 0234 0038:__fmalloc 0126:__ffree
    CBB8....:
      50EA........B80600EB438C1E....A1....8B1E....8BCB83E3:
        0. 0C 1173 023A 003A:__fmalloc 012C:__ffree
      EA........90558BEC8B46068B5E0883FB017404F7E3722750:
        0. 00 0000 02C6 000C:_calloc 004A:___mallocf 006C:_malloc 0148:_realloc 01F2:___freef
  F68BF9F7C7FF7F742881E7807F81FF807F75258BF9F7C740007405BE0800EB:
    0. 4E 7638 006E 0000:fget_dtype_pair
50:
  515253545556571E068BEC1EB8....8ED8FC:
    1EB8....50:
      E8....83C40485C0:
        0. 24 8BD1 00EA (l)0000:_our_handler
      ..........83C404:
        0. 26 A570 00EC (l)0000:_our_handler
    B8....50:
      E8....83C40285C074:
        0. 23 98EA 00E9 (l)0000:_our_handler
      ..........83C40285:
        0. 25 17D7 00EB (l)0000:_our_handler
    FF:
      16....85C0750931C050E8:
        0. 00 0000 0031 (l)0000:_CtrlBrkHandler
      1E....85C0750B31C050:
        0. 00 0000 0033 (l)0000:_CtrlBrkHandler
  53:
    51558BEC8B4610350007A900070F85....C1E80B250F008BD880BF....00:
      0. 02 A34E 056C 01AE:_frem_chk 01D8:_drem_chk 0202:_fprem_chk 02A2:_lrem_chk 0464:_frem1_chk 048E:_drem1_chk 04B8:_fprem1_chk 0558:_lrem1_chk
    525583EC248BECDB7E0CDB7E008B5E0603DB0F83....8B461203C00F83:
      0. 00 0000 01BA 0000:fatan_chk (0199: CB)
      1. 00 0000 01BE 0000:fatan_chk (0199: 5D)
55:
  5083EC148BECDB7E008B460825FF7F0F84....3DFF7F0F84....8B460603C0:
    0. 02 1C3A 00A8 0000:fptan_chk
  8BEC:
    06505152535657A1....8D36....8C540289048D36....8C5402A1:
      0. 09 3F19 0048 0000:__ptrchk
      1. 09 4920 004A 0000:__ptrchk
    168D46:
      0650FF7604E8....83C4068B56088B46065DC3:
        0. 00 0000 0019 0000:_biostime
      0850FF7606:
        FF7604:
          1EB8....50B8....50B8....50E8....8BE5:
            0. 02 5F98 0022 0000:_scanf
          31C05050B8....50:
            B8....50E8....8BE55D:
              0. 01 EF04 0021 0000:__cscanf
            E8....8BE55DC3:
              0. 00 0000 001D 0000:_disp_printf
          E8....8BE55DC3:
            0. 00 0000 0015 0000:_printf
        ..........83C4068B560A8B46085DCB:
          0. 00 0000 001B 0000:_biostime
      0A50FF7608FF7606:
        1EB8....50BA....B8....5250BA....B8:
          0. 00 0000 002C 0000:_scanf
        31C05050:
          0EB8....50..........8BE55DCB:
            0. 00 0000 0020 0000:_disp_printf
          BA....B8....5250BA....B8:
            0. 02 85BD 002B 0000:__cscanf
        ..........8BE55DCB:
          0. 00 0000 0017 0000:_printf
      0C50FF760AFF7608:
        168D460450B8....50B8....50E8....8BE5:
          0. 02 5F98 0022 0000:_sscanf
        FF7606FF7604:
          B8....50B8....50E8....8B:
            0. 03 C861 0023 0000:_fscanf
          E8....8BE55DC3:
            0. 00 0000 001B 0000:_sprintf (REF 0015: _vsprintf)
            1. 00 0000 001B 0000:_fprintf (REF 0015: _vfprintf)
      0E50FF760CFF760A:
        168D4606500EB8....500EB8....50:
          0. 00 0000 0026 0000:_sscanf
        FF7608FF7606:
          BA....B8....5250BA....B8:
            0. 00 0000 002D 0000:_fscanf
          FF7604E8....8BE55DC3:
            0. 00 0000 001E 0000:__snprintf
          ..........8BE55DCB:
            0. 00 0000 001D 0000:_sprintf (REF 0015: _vsprintf)
            1. 00 0000 001D 0000:_fprintf (REF 0015: _vfprintf)
      1050FF760EFF760CFF760AFF7608FF7606..........8BE55DCB:
        0. 00 0000 0020 0000:__snprintf
    1E:
      8B:
        46:
          043DFF007204B0FF8BD8837E06FF750833D2528B5606EB04C556:
            0. 10 7732 0030 0000:_country
          063DFF007204B0FF8BD8837E08FF750833D2528B5608EB04C556:
            0. 10 A8D2 0030 0000:_country
        5E:
          0483FB2873:
            258B4E0883F9007419F687....1075221E8E5EFE8B:
              0. 16 6FDE 0182 0000:_read 0175:__readx
            2A8B4E0883F900741EF687....1475341E8E5EFE8B:
              0. 1B 45F7 01D3 0000:_write 01C9:__writex
          0683FB2873:
            258B4E0A83F9007419F687....1075241E8E5EFE8B:
              0. 15 FD0B 0186 0000:_read 0179:__readx
            2A8B4E0A83F900741EF687....14753A1E8E5EFE8B:
              0. 1A 795D 01DF 0000:_write 01D5:__writex
      B4:
        1AC556:
          04CD211F5DC3:
            0. 00 0000 000E 0000:_setdta
          06CD211F5DCB:
            0. 00 0000 000E 0000:_setdta
        2FCD215306:
          8B56:
            08B41ACD218B56048B4E06B44ECD21EB15558BEC:
              0. 25 AD88 0049 0000:__dos_findfirst 001D:__dos_findnext
            0AB41ACD218B56068B4E08B44ECD21EB15558BEC:
              0. 24 039D 004B 0000:__dos_findfirst 001D:__dos_findnext
          BA....B41ACD21:
            8B56:
              048B4E06B44ECD21EB15558BEC:
                0. 08 A3E9 004C 0000:_findfirst 001D:_findnext
              068B4E08B44ECD21EB15558BEC:
                0. 08 A3E9 004E 0000:_findfirst 001D:_findnext
            8E5E:
              068B56048B4E08B44ECD21EB15:
                0. 0B 94F8 0052 0000:_findfirst 0020:_findnext
              088B56068B4E0AB44ECD21EB15:
                0. 0B 94F8 0054 0000:_findfirst 0020:_findnext
          C556:
            0AB41ACD21C556048B4E08B44ECD21EB15558BEC:
              0. 25 4639 0049 0000:__dos_findfirst 001D:__dos_findnext
            0CB41ACD21C556068B4E0AB44ECD21EB15558BEC:
              0. 24 F7DD 004B 0000:__dos_findfirst 001D:__dos_findnext
      B8....50:
        E8....:
          0EB8....50..........8BE55DCB:
            0. 00 0000 03F3 0000:___SI?%___ios_istreami_cpp1324868894_ (REF 000D: ___SD?%___ios_istreami_cpp1324868894_)
            1. 00 0000 0019 0000:___SI?%___ios_ios_cpp1324185884_ (REF 000D: ___SD?%___ios_ios_cpp1324185884_)
            2. 00 0000 0019 0000:___SI?%___ios_istream_cpp1324448086_ (REF 000D: ___SD?%___ios_istream_cpp1324448086_)
            3. 00 0000 0019 0000:___SI?%___ios_istreamf_cpp1324712596_ (REF 000D: ___SD?%___ios_istreamf_cpp1324712596_)
            4. 00 0000 0019 0000:___SI?%___ios_fstream_cpp1323850169_ (REF 000D: ___SD?%___ios_fstream_cpp1323850169_)
            5. 00 0000 0019 0000:___SI?%___ios_dbp_cpp1323745617_ (REF 000D: ___SD?%___ios_dbp_cpp1323745617_)
            6. 00 0000 0019 0000:___SI?%___ios_istreamx_cpp1325031007_ (REF 000D: ___SD?%___ios_istreamx_cpp1325031007_)
            7. 00 0000 0019 0000:___SI?%___ios_manip_cpp1325141149_ (REF 000D: ___SD?%___ios_manip_cpp1325141149_)
            8. 00 0000 0019 0000:___SI?%___ios_ostream_cpp1325261097_ (REF 000D: ___SD?%___ios_ostream_cpp1325261097_)
            9. 00 0000 0019 0000:___SI?%___ios_ostreamf_cpp1325452014_ (REF 000D: ___SD?%___ios_ostreamf_cpp1325452014_)
            10. 00 0000 0019 0000:___SI?%___ios_ostreami_cpp1325566207_ (REF 000D: ___SD?%___ios_ostreami_cpp1325566207_)
            11. 00 0000 0019 0000:___SI?%___ios_ostreamx_cpp1325673074_ (REF 000D: ___SD?%___ios_ostreamx_cpp1325673074_)
            12. 00 0000 0019 0000:___SI?%___ios_siosync_cpp1325782447_ (REF 000D: ___SD?%___ios_siosync_cpp1325782447_)
            13. 00 0000 0019 0000:___SI?%___ios_stdiostr_cpp1325891108_ (REF 000D: ___SD?%___ios_stdiostr_cpp1325891108_)
            14. 00 0000 0019 0000:___SI?%___ios_stream_cpp1326035824_ (REF 000D: ___SD?%___ios_stream_cpp1326035824_)
            15. 00 0000 0019 0000:___SI?%___ios_streambf_cpp1326175668_ (REF 000D: ___SD?%___ios_streambf_cpp1326175668_)
            16. 00 0000 0019 0000:___SI?%___ios_strstrea_cpp1326308073_ (REF 000D: ___SD?%___ios_strstrea_cpp1326308073_)
          1EB8....50E8....1EB8....50E8....1EB8....50:
            0. 01 3E9B 002D 0000:___SD?%___ios_iostream_cpp1324312826_
          5DCB:
            0. 00 0000 000D (!)0000:?
          B80100501EBB....53E8....B80100501EBB....53:
            0. 01 3E9B 0049 0000:___SI?%___ios_iostream_cpp1324312826_
        FF76:
          04E8....8BE55DC3:
            0. 00 0000 0012 (!)0000:?
          06..........8BE55DCB:
            0. 00 0000 0014 (!)0000:?
        ..........:
          0EB8....50..........8BE55DCB:
            0. 00 0000 001B 0000:___SI?%___ios_dbp_cpp1616292742_ (REF 000F: ___SD?%___ios_dbp_cpp1616292742_)
            1. 00 0000 001B 0000:___SI?%___ios_fstream_cpp1616398165_ (REF 000F: ___SD?%___ios_fstream_cpp1616398165_)
            2. 00 0000 001B 0000:___SI?%___ios_ios_cpp1616735007_ (REF 000F: ___SD?%___ios_ios_cpp1616735007_)
            3. 00 0000 001B 0000:___SI?%___ios_istream_cpp1616982759_ (REF 000F: ___SD?%___ios_istream_cpp1616982759_)
            4. 00 0000 001B 0000:___SI?%___ios_istreamf_cpp1617250316_ (REF 000F: ___SD?%___ios_istreamf_cpp1617250316_)
            5. 00 0000 001B 0000:___SI?%___ios_istreami_cpp1617409976_ (REF 000F: ___SD?%___ios_istreami_cpp1617409976_)
            6. 00 0000 001B 0000:___SI?%___ios_istreamx_cpp1617571715_ (REF 000F: ___SD?%___ios_istreamx_cpp1617571715_)
            7. 00 0000 001B 0000:___SI?%___ios_manip_cpp1617683366_ (REF 000F: ___SD?%___ios_manip_cpp1617683366_)
            8. 00 0000 001B 0000:___SI?%___ios_ostream_cpp1617806757_ (REF 000F: ___SD?%___ios_ostream_cpp1617806757_)
            9. 00 0000 001B 0000:___SI?%___ios_ostreamf_cpp1617998535_ (REF 000F: ___SD?%___ios_ostreamf_cpp1617998535_)
            10. 00 0000 001B 0000:___SI?%___ios_ostreami_cpp1618114676_ (REF 000F: ___SD?%___ios_ostreami_cpp1618114676_)
            11. 00 0000 001B 0000:___SI?%___ios_ostreamx_cpp1618226202_ (REF 000F: ___SD?%___ios_ostreamx_cpp1618226202_)
            12. 00 0000 001B 0000:___SI?%___ios_siosync_cpp1618339646_ (REF 000F: ___SD?%___ios_siosync_cpp1618339646_)
            13. 00 0000 001B 0000:___SI?%___ios_stdiostr_cpp1618451761_ (REF 000F: ___SD?%___ios_stdiostr_cpp1618451761_)
            14. 00 0000 001B 0000:___SI?%___ios_stream_cpp1618600272_ (REF 000F: ___SD?%___ios_stream_cpp1618600272_)
            15. 00 0000 001B 0000:___SI?%___ios_streambf_cpp1618741463_ (REF 000F: ___SD?%___ios_streambf_cpp1618741463_)
            16. 00 0000 001B 0000:___SI?%___ios_strstrea_cpp1618878345_ (REF 000F: ___SD?%___ios_strstrea_cpp1618878345_)
          1EB8....50..........1EB8....50:
            0. 00 0000 0037 0000:___SD?%___ios_iostream_cpp1616859256_
          5DCB:
            0. 00 0000 000F (!)0000:?
          B80100501EBB....53..........B80100501E:
            0. 01 20FB 0053 0000:___SI?%___ios_iostream_cpp1616859256_
      C5:
        56:
          04B40ACD211FB80D00508B56068B460483C0025250E8....8EC2:
            0. 14 2F15 0034 0000:__cgets
          06B40ACD211FB80D00508B56088B460683C0025250:
            0. 16 2A5E 0036 0000:__cgets
        5E:
          048C078C4F028C5704588947068ED85DC3558BEC56571E1EC55E:
            0. 59 0542 0142 0000:_segread 0017:_intdos 003C:_intdosx 006E:_int86 00CF:_int86x 011A:_bdosptr 012E:_bdosx
          068C078C4F028C5704588947068ED85DCB558BEC:
            56571E1EC55E:
              0. 59 5E42 0144 0000:_segread 0017:_intdos 003C:_intdosx 006E:_int86 00D1:_int86x 011C:_bdosptr 0130:_bdosx
            6A006A005657:
              0. 06 48D8 0189 0000:_segread 0017:_int86x 00C2:_int86 00E5:_intdosx 0105:_intdos 0127:__is_pm 0148:__intflag 015C:_bdosptr 0175:_bdosx
    31:
      C0:
        3946:
          0474108B5E0438077409837E060119C024FE405DC3:
            0. 00 0000 001C 0000:_mblen
          0674108B5E0638077409837E080119C024FE405DCB:
            0. 00 0000 001C 0000:_mblen
        50:
          168D46:
            0850E8....83C4045250168D460850FF7606FF7604B802:
              0. 03 7D7E 0029 0000:_execle
            0A50:
              E8....83C4045250168D460A50FF7608FF7606FF76:
                0. 02 6103 0028 0000:_spawnle
              ..........83C4045250168D460A50FF7608FF7606:
                0. 04 A79F 002D 0000:_execle
            0C50..........83C4045250168D460C50FF760AFF7608:
              0. 03 1DC1 002C 0000:_spawnle
          1EB8....50FF76:
            0AFF7608FF7606FF7604FF760CFF7610FF760E:
              0. 07 CA18 002B 0000:_ecvt
            0CFF760AFF7608FF7606FF760EFF7612FF7610:
              0. 06 B798 002D 0000:_ecvt
          50:
            50:
              168D46:
                0850FF7606FF7604B8020050E8....8BE55DC3:
                  0. 00 0000 001E 0000:_execl
                0A50FF7608FF7606:
                  B8020050..........8BE55DCB:
                    0. 00 0000 0020 0000:_execl
                  FF7604E8....8BE55DC3:
                    0. 00 0000 001D 0000:_spawnl
                0C50FF760AFF7608FF7606..........8BE55DCB:
                  0. 00 0000 001F 0000:_spawnl
              FF76:
                04E8....8B5E04806706DF8BE55DC3:
                  0. 00 0000 0019 0000:_rewind
                06:
                  FF7604E8....C45E042680670ADF8BE55DC3:
                    0. 00 0000 001D 0000:_rewind
                  ..........8B5E06806706DF8BE55DCB:
                    0. 00 0000 001B 0000:_rewind
                08FF7606..........C45E062680670ADF8BE55DCB:
                  0. 00 0000 001F 0000:_rewind
                0AFF7608FF7606FF7604B00250E8....8BE55DC3:
                  0. 00 0000 001E 0000:_execv
                0CFF760AFF7608FF7606:
                  B00250..........8BE55DCB:
                    0. 00 0000 0020 0000:_execv
                  FF7604E8....8BE55DC3:
                    0. 00 0000 001E 0000:_spawnv
                0EFF760CFF760AFF7608FF7606..........8BE55DCB:
                  0. 00 0000 0020 0000:_spawnv
            8D46:
              0650FF7604B8020050E8....8BE55DC3:
                0. 00 0000 0019 0000:_execl
              0850FF7606:
                B8020050..........8BE55DCB:
                  0. 00 0000 001B 0000:_execl
                FF7604E8....8BE55DC3:
                  0. 00 0000 0018 0000:_spawnl
              0A50FF7608FF7606..........8BE55DCB:
                0. 00 0000 001A 0000:_spawnl
            FF76:
              06FF7604B00250E8....8BE55DC3:
                0. 00 0000 0017 0000:_execv
              08FF7606:
                B00250..........8BE55DCB:
                  0. 00 0000 0019 0000:_execv
                FF7604E8....8BE55DC3:
                  0. 00 0000 0017 0000:_spawnv
              0AFF7608FF7606..........8BE55DCB:
                0. 00 0000 0019 0000:_spawnv
          8B5E:
            06FF7702FF37FF7604E8....8BE55DC3:
              0. 00 0000 0018 0000:_fsetpos
            08FF7702FF37FF7606..........8BE55DCB:
              0. 00 0000 001A 0000:_fsetpos
          8D46:
            0650E8....83C402508D460650FF7604B8020050E8....8B:
              0. 03 C861 0023 0000:_execle
            0850:
              E8....83C402508D460850FF7606FF7604E8....8BE5:
                0. 02 5F98 0022 0000:_spawnle
              ..........83C402508D460850FF7606B8020050:
                0. 00 0000 0027 0000:_execle
            0A50..........83C402508D460A50FF7608FF7606:
              0. 00 0000 0026 0000:_spawnle
          B0:
            105031C050B07050FF76:
              04E8....8B46045DC3:
                0. 00 0000 001A 0000:?dec@@YAAAVios@@AAV1@@Z
              06:
                FF7604E8....8B56068B46045DC3:
                  0. 00 0000 0020 0000:?dec@@YAAEVios@@AEV1@@Z
                ..........8B46065DCB:
                  0. 00 0000 001C 0000:?dec@@ZAAAVios@@AAV1@@Z
              08FF7606..........8B56088B4606:
                0. 02 1714 0022 0000:?dec@@ZAAEVios@@AEV1@@Z
            205031C050B07050FF76:
              04E8....8B46045DC3:
                0. 00 0000 001A 0000:?oct@@YAAAVios@@AAV1@@Z
              06:
                FF7604E8....8B56068B46045DC3:
                  0. 00 0000 0020 0000:?oct@@YAAEVios@@AEV1@@Z
                ..........8B46065DCB:
                  0. 00 0000 001C 0000:?oct@@ZAAAVios@@AAV1@@Z
              08FF7606..........8B56088B4606:
                0. 02 1714 0022 0000:?oct@@ZAAEVios@@AEV1@@Z
            405031C050B07050FF76:
              04E8....8B46045DC3:
                0. 00 0000 001A 0000:?hex@@YAAAVios@@AAV1@@Z
              06:
                FF7604E8....8B56068B46045DC3:
                  0. 00 0000 0020 0000:?hex@@YAAEVios@@AEV1@@Z
                ..........8B46065DCB:
                  0. 00 0000 001C 0000:?hex@@ZAAAVios@@AAV1@@Z
              08FF7606..........8B56088B4606:
                0. 02 1714 0022 0000:?hex@@ZAAEVios@@AEV1@@Z
          B8....50FF76:
            0AFF7608FF7606FF7604FF760CFF760EFF7610E8:
              0. 00 0000 0024 0000:_ecvt
            0CFF760AFF7608FF7606FF760EFF7610FF7612:
              0. 00 0000 0026 0000:_ecvt
          C45E:
            0826FF770226FF37FF7606FF7604E8....8BE55DC3:
              0. 00 0000 001D 0000:_fsetpos
            0A26FF770226FF37FF7608FF7606..........8BE55DCB:
              0. 00 0000 001F 0000:_fsetpos
          FF76:
            04E8....8B46045DC3:
              0. 00 0000 0011 0000:?ends@@YAAAVostream@@AAV1@@Z
            06:
              FF7604E8....8B56068B46045DC3:
                0. 00 0000 0017 0000:?ends@@YAAEVostream@@AEV1@@Z
              ..........8B46065DCB:
                0. 00 0000 0013 0000:?ends@@ZAAAVostream@@AAV1@@Z
            08FF7606:
              FF7604B00250E8....8BE55DC3:
                0. 00 0000 0019 0000:_execve
              ..........8B56088B46065DCB:
                0. 00 0000 0019 0000:?ends@@ZAAEVostream@@AEV1@@Z
            0AFF7608FF7606:
              B00250..........8BE55DCB:
                0. 00 0000 001B 0000:_execve
              FF7604E8....8BE55DC3:
                0. 00 0000 0019 0000:_spawnve
            0CFF760AFF7608FF7606..........8BE55DCB:
              0. 00 0000 001B 0000:_spawnve
            0EFF760CFF760AFF7608FF7606FF7604B00250E8....8BE5:
              0. 02 5F98 0022 0000:_execve
            10FF760EFF760CFF760AFF7608FF7606:
              B00250:
                0. 04 E93A 0024 0000:_execve
              FF7604E8....8BE5:
                0. 02 5F98 0022 0000:_spawnve
            12FF7610FF760EFF760CFF760AFF7608FF7606:
              0. 04 E93A 0024 0000:_spawnve
        5D:
          C2:
            0200:
              0. 00 0000 0009 0000:?sync@streambuf@@UACHXZ
            0400:
              0. 00 0000 0009 0000:?sync@streambuf@@UECHXZ
          CA:
            0200:
              0. 00 0000 0009 0000:?sync@streambuf@@VACHXZ
            0400:
              0. 00 0000 0009 0000:?sync@streambuf@@VECHXZ
      C98B46:
        060B46047412C45E0426380F740A837E080119C980E1FE418B:
          0. 03 9201 0023 0000:_mblen
        080B46067412C45E0626380F740A837E0A0119C980E1FE418B:
          0. 03 DA8D 0023 0000:_mblen
        0A0B460874278B46060B4604740DC45E08268A0798C45E0426:
          0. 18 88E7 0038 0000:_mbtowc
        0C0B460A74278B46080B4606740DC45E0A268A0798C45E0626:
          0. 18 C6DF 0038 0000:_mbtowc
    50:
      168D46:
        0850FF7606FF760431C05050B8....50E8....83C40E85C089:
          0. 0E 2841 002E 0000:__cprintf
        0A50FF7608FF760631C05050BA....B8....5250:
          0. 14 1B0A 0034 0000:__cprintf
        FE50:
          8B46:
            044050E8....83C4068B46FE8BE55DC3:
              0. 00 0000 001B 0000:_setdisk
            064050..........83C4068B46FE8BE55DCB:
              0. 00 0000 001D 0000:_setdisk
          E8....83C4048B46FE488BE55DC3:
            0. 00 0000 0017 0000:_getdisk
          FF76:
            0AFF7608FF7606FF7604E8....8BE55DC3:
              0. 00 0000 001C 0000:_remainderf
            0CFF760AFF7608FF7606..........8BE55DCB:
              0. 00 0000 001E 0000:_remainderf
            12FF7610FF760EFF760CFF760AFF7608FF7606FF76:
              0. 02 6103 0028 0000:_remainder
            14FF7612FF7610FF760EFF760CFF760AFF7608FF76:
              0. 01 4E95 002A 0000:_remainder
          ..........83C4048B46FE488BE55DCB:
            0. 00 0000 0019 0000:_getdisk
      1E8B46:
        04D1E0D1E0D1E0D1E005....50E8....83C40485C0753331C0:
          0. 0B 7C03 005E 0000:_chsize
        06D1E0D1E0D1E0D1E005....50..........83C40485C07537:
          0. 0C 32F6 0064 0000:_chsize
      31C98B5E:
        04390F740D89D883C002418BD8833F0075F58BC18BE55DC3:
          0. 00 0000 0020 0000:_wcslen
        06390F740D89D883C002418BD8833F0075F58BC18BE55DCB:
          0. 00 0000 0020 0000:_wcslen
      56:
        57:
          31FF897EFEBE01008B4E:
            060B4E047503E9C9018B4E0E0B4E0C74:
              0. 08 D8BB 01E8 0000:_fnmerge
            080B4E067503E9EB018B4E100B4E0E74:
              0. 07 7B95 020A 0000:_fnmerge
          83:
            3E....007546BE....8A049889C789F8B92A00F7E189C3C687:
              0. 00 0000 0059 0000:__STI_setlc
            7E:
              0800745031FF8B4608488946FE8B76FE03F7D1EE89F0F766:
                0. 44 B7F9 0064 0000:_bsearch
              0A00745031FF8B460A488946FE8B76FE03F7D1EE89F0F766:
                0. 44 85CF 0064 0000:_bsearch
              0C00746031FF8B460C488946FE8B76FE03F7D1EE89F0F766:
                0. 55 93F6 0075 0000:_bsearch
              0E00746031FF8B460E488946FE8B76FE03F7D1EE89F0F766:
                0. 55 80EA 0075 0000:_bsearch
          8B:
            46:
              048B7606833E....007503E9A50031FF8BCE803C00741F8B:
                0. 07 E599 00CE 0000:__mbspbrk
              068B7608833E....007503E9A50031FF8BCE803C00741F8B:
                0. 07 E599 00D0 0000:__mbspbrk
            4E:
              04:
                894EFEE8....8D4EFE51B9....51E8....50E8....89C6:
                  0. 01 3E9B 004A 0000:___unmangle_vc_exception_type
                8B76068B7E0831D28856FE8BC74F85C0742E8BD98A1F30:
                  0. 03 50D8 005A 0000:_strnicmp (REF 0034: .)
              06:
                894EFEE8....8D4EFE51B9....51E8....50E8....89C6:
                  0. 01 3E9B 004C 0000:___unmangle_vc_exception_type
                8B76088B7E0A31D28856FE8BC74F85C0742E8BD98A1F30:
                  0. 03 50D8 005A 0000:_strnicmp (REF 0034: .)
            5E:
              048B:
                078946FE89C68A049889C6F684....0474278B5EFE8A:
                  0. 09 3CC7 009E (l)0000:UM_ARGUMENT (0074: 00) (REF 0017: .)
                  1. 09 3CC7 00A2 (l)0000:UM_ARGUMENT (0074: E5) (REF 0017: .)
                37B9....51:
                  E8....89C783C402E9A20057E8....31FF:
                    0. 40 BF2C 00EA (l)0000:UM_STRING (REF 00A8: .)
                  ..........89C783C402E9A40057:
                    0. 00 0000 00EE (l)0000:UM_STRING (REF 00AC: .)
                3F8BDF478A079889C183C1BF780583F90A7E0431F6EB:
                  0. 0C 0964 0055 (l)0000:UM_CALLING_CONVENTION
                  1. 0C B266 0057 (l)0000:UM_CALLING_CONVENTION
                77028B740203F3:
                  837C:
                    0A00740D31C05053E8....85C0:
                      0. 5A EA0E 008D 0000:??5istream@@QACAAV0@AAD@Z
                    0C00740D53E8....85C07503E9:
                      0. 84 3666 00B7 0000:??6ostream@@QACAAV0@PAVstreambuf@@@Z
                  8B440489C68B4C123B4C147210508B:
                    0. 34 705A 0061 0000:?do_get@istream@@AACDXZ
                  F7440AFFFE7411B801005053E8:
                    0. 61 4D5D 00B2 0000:?ignore@istream@@QACAAV1@HH@Z
              068B77028B740203F3:
                837C:
                  0A00740F31C05053:
                    0. 5B 81D1 0091 0000:??5istream@@RACAAV0@AAD@Z
                  0C00740F53..........85C075:
                    0. 88 4A7E 00C0 0000:??6ostream@@RACAAV0@PAVstreambuf@@@Z
                8B440489C68B4C123B4C147210508B:
                  0. 33 4976 0063 0000:?do_get@istream@@BACDXZ
                F7440AFFFE7413B801005053:
                  0. 00 0000 00B8 0000:?ignore@istream@@RACAAV1@HH@Z
            76:
              04:
                833E....007503E9AB0031FF8B4E068B5E06803F00741F:
                  0. 08 68FA 00DB 0000:__mbsspnp
                8976FE56E8....83C40289C703FE4F3BFE76168A0D300C:
                  0. 1B B71F 003B 0000:_strrev
                8B:
                  441C85C07502B0108946FE837C160074128B46FE85C0:
                    0. 11 1666 0073 0000:?doallocate@strstreambuf@@UACHXZ
                  7E:
                    0685FF740485F67507C746FE0000EB:
                      3357E8....83:
                        0. 05 E4FF 0064 (l)0000:STR_CAT
                      3D57:
                        0. 00 0000 0072 (l)0000:STR_CAT
                    0A56E8....837E080475168BC62D....B90E0099F7:
                      0. 02 FAF3 00BA 0000:_setvbuf
                  FEB9....51E8....83C4028946FE83F8FF743183F8FF:
                    0. 0E 5C71 0058 0000:_gets
                BF010085F675014656E8....83C40285C08946FE753083:
                  0. 01 8528 0058 0000:?__do_newalloc@@YAPAXI@Z
              06:
                833E....007503E9:
                  A20031FF8BCE803C00741F8BD98A1F:
                    0. 04 B0AE 00C5 0000:__mbsspn (006B: 74)
                    1. 04 B0AE 00C5 0000:__mbscspn (006B: 7C)
                  AB0031FF8B4E088B5E08803F00741F:
                    0. 08 68FA 00DD 0000:__mbsspnp
                8976FE56..........83C40289C703FE4F3BFE76168A0D:
                  0. 1D CB6B 003D 0000:_strrev
                8B:
                  442085C07502B0108946FE8B44180B441674128B46FE:
                    0. 12 13D8 0079 0000:?doallocate@strstreambuf@@VACHXZ
                  7E0C56..........837E0A0475168BC62D....B90E00:
                    0. 04 FE17 00C0 0000:_setvbuf
                  FEB9....51..........83C4028946FE83F8FF743383:
                    0. 10 0B83 005C 0000:_gets
                BF010085F675014656..........83C40285C08946FE75:
                  0. 03 1C2E 005D 0000:?__do_newalloc@@ZAPAXI@Z
              08833E....007503E9:
                A20031FF8BCE803C00741F8BD98A1F:
                  0. 04 B0AE 00C7 0000:__mbsspn (006B: 74)
                  1. 04 B0AE 00C7 0000:__mbscspn (006B: 7C)
                C10031FF8B56048B4E068ACD32ED84:
                  0. 25 9257 00E7 0000:__mbsnset
              0A833E....007503E9C10031FF8B56068B4E088ACD32ED84:
                0. 25 9257 00E9 0000:__mbsnset
              0C833E....007503E9A90031FF85F67503E99800C45E0426:
                0. 0A D609 00D5 0000:__mbsncmp
              0E833E....007503E9A90031FF85F67503E99800C45E0626:
                0. 0A D609 00D7 0000:__mbsncmp
            7E:
              04:
                31D289D639560674338BCF8BD9803F00742A83FE047417:
                  0. 08 68FA 004D 0000:__mbsnccnt
                57E8....83C40289C603F73BF7761B807CFF30751589F1:
                  0. 1C D945 003C (l)0000:_killzeroes
                833E....00744F8BD78BF78A0D84C974238AD930FFF687:
                  0. 00 0000 006C 0000:__mbsrev
                8B:
                  4D148B55123BCA760689CE2BF2EB0231F67E115652FF:
                    0. 03 4B35 00A2 0000:?xsgetn@streambuf@@UACHPADH@Z
                  5D028B5F0203DFF7470AFFFE74:
                    0EB801005057E8:
                      0. 5B 221C 009D 0000:?get@istream@@QACHXZ
                    11B801005057E8:
                      0. 64 0383 00E5 0000:?read@istream@@QACAAV1@PADH@Z
                  76068B5E088B07F7660A03C68946FE3BC6761C5657FF:
                    0. 21 C1DD 0041 0000:__lfind
                C7450400008B5D028B5F0203DF8B470489C38B4F123B4F:
                  0. 18 F60D 009E 0000:?eatwhite@istream@@IACXXZ (REF 0078: .)
                E8....8946FE83F8FE75288B36....813E........741C:
                  0. 0F 55E3 0045 0000:__heapset
              06:
                31D289D639560874338BCF8BD9803F00742A83FE047417:
                  0. 08 68FA 004D 0000:__mbsnccnt
                57..........83C40289C603F73BF7761B807CFF307515:
                  0. 1E 8B58 003E (l)0000:_killzeroes
                833E....00744F8BD78BF78A0D84C974238AD930FFF687:
                  0. 00 0000 006E 0000:__mbsrev
                8B:
                  4D148B55123BCA760689CE2BF2EB0231F67E135652FF:
                    0. 02 0904 00A4 0000:?xsgetn@streambuf@@VACHPADH@Z
                  5D028B5F0203DFF7470AFFFE74:
                    10B801005057:
                      0. 00 0000 00A1 0000:?get@istream@@RACHXZ
                    13B801005057:
                      0. 00 0000 00EB 0000:?read@istream@@RACAAV1@PADH@Z
                  5E048B0E....894EFE891E....8B36....833E....00:
                    0. 19 C544 0069 (l)0000:?set_nh@@YAP6AHI@ZP6AHI@ZH@Z
                  76088B5E0A8B07F7660C03C68946FE3BC6761C5657FF:
                    0. 21 6222 0041 0000:__lfind
                C7450400008B5D028B5F0203DF8B470489C38B4F123B4F:
                  0. 18 7BC9 00A2 0000:?eatwhite@istream@@JACXXZ (REF 007A: .)
                ..........8946FE83F8FE752A8B36....813E:
                  0. 10 9AAD 0049 0000:__heapset
              08C45E0426C47704268B4402C4760403F026F74412FFFE74:
                0. 0A 5DD3 0139 0000:?read@istream@@QECAEV1@PEDH@Z
              0A:
                837E0C0074:
                  148B5E04C74702....C74726....83C32853:
                    0. 01 3E9B 008A 0000:??0ostrstream@@QAC@PADHH@Z
                  198B5E04C74702....C74726....C7472C:
                    0. 00 0000 0094 0000:??0strstream@@QAC@PADHH@Z
                C45E:
                  0426C47704268B4402C4760403F026F74412FFFE74:
                    0. 0A 5DD3 00EA 0000:?ignore@istream@@QECAEV1@HH@Z
                  0626C47704268B4402C4760603F026F74412FFFE74:
                    0. 09 0036 013F 0000:?read@istream@@RECAEV1@PEDH@Z
              0C:
                837E0E0074:
                  168B5E06C74702....C7472A....83C32C53:
                    0. 00 0000 0092 0000:??0ostrstream@@RAC@PADHH@Z
                  1B8B5E06C74702....C7472A....C74730:
                    0. 00 0000 009C 0000:??0strstream@@RAC@PADHH@Z
                C45E0626C47704268B4402C4760603F026F74412FFFE74:
                  0. 09 0036 00F0 0000:?ignore@istream@@RECAEV1@HH@Z
          C45E:
            0426:
              8B:
                4724268B4F203BC1760689C72BF9EB0231FF7E1F57:
                  0. 0F F1FA 00DE 0000:?xsgetn@streambuf@@UECHPEDH@Z
                7F18262B7F147E1F57FF760CFF760A26FF771626FF:
                  0. 03 A653 00D6 0000:?xsputn@streambuf@@UECHPFDH@Z
              C47704268B4402C4760403F026:
                837C14007410FF7606:
                  0. 02 9E9D 00FA 0000:??6ostream@@QECAEV0@PEVstreambuf@@@Z
                F74412FFFE7414B801:
                  0. 07 946C 019B 0000:?get@istream@@QECAEV1@AEVstreambuf@@D@Z
            0626:
              8B:
                4724268B4F203BC1760689C72BF9EB0231FF7E2157:
                  0. 0E 0285 00E0 0000:?xsgetn@streambuf@@VECHPEDH@Z
                7F18262B7F147E2157FF760EFF760C26FF771626FF:
                  0. 02 2EE4 00D8 0000:?xsputn@streambuf@@VECHPFDH@Z
              C47704268B4402C4760603F026:
                837C14007412FF7608:
                  0. 01 6690 0100 0000:??6ostream@@RECAEV0@PEVstreambuf@@@Z
                F74412FFFE7416B801:
                  0. 06 E0BF 01A3 0000:?get@istream@@RECAEV1@AEVstreambuf@@D@Z
            0826C6072531D2C4760426C47C04268B4502C47E0403F826:
              0. 72 AA81 010F (l)0000:?intformat@@YAXAEVostream@@PEDHH@Z
            0A26C6072531D2C4760626C47C04268B4502C47E0603F826:
              0. 72 659F 010F (l)0000:?intformat@@ZAXAEVostream@@PEDHH@Z
        83:
          3E....00:
            74:
              26FF760AFF7608FF7606FF7604E8....C4760C2689:
                0. 13 04CC 00CF 0000:_modf
              28FF760CFF760AFF7608FF7606..........C4760E:
                0. 14 03E2 00DF 0000:_modf
            75:
              03E99C0031F6C45E:
                04268A1730F68ADA30FFF687:
                  0. 00 0000 00C2 0000:__mbscmp
                06268A1730F68ADA30FFF687:
                  0. 00 0000 00C4 0000:__mbscmp
              44BA....8BDA8A079889C689F3B90600D3E3C687:
                0. 00 0000 0055 0000:__STI_setlc
          7E:
            0800740F8B5E04C74702....83C30453E8....8B5E048B7702:
              0. 08 3052 0066 0000:??0ostream@@QAC@H@Z
            0A0074:
              0F8B5E04C74702....83C30453E8....8B5E048B7702:
                0. 08 3052 006C 0000:??0ostream@@QAC@HPAD@Z
              118B5E06C74702....83C30453..........8B5E068B:
                0. 0A A8C2 006E 0000:??0ostream@@RAC@H@Z
            0C0074:
              0F8B5E04C74702....83C30653E8....8B5E048B7702:
                0. 08 3052 007F 0000:??0istream@@QAC@HPADH@Z (0056: 00)
                1. 08 3052 0090 0000:??0istream@@QAC@HHPAVostream@@@Z (0056: C3)
              118B5E06C74702....83C30453..........8B5E068B:
                0. 0A A8C2 0074 0000:??0ostream@@RAC@HPAD@Z
            0E0074118B5E06C74702....83C30653..........8B5E068B:
              0. 0A A8C2 009C 0000:??0istream@@RAC@HHPAVostream@@@Z (005E: C3)
              1. 0A A8C2 0089 0000:??0istream@@RAC@HPADH@Z (005E: 00)
        8B:
          46:
            048946FEFF7608FF76068D460450B8....50E8....83C40889:
              0. 16 62A2 0036 0000:_vsprintf
            068946FEFF760AFF76088D4606500EB8....50..........83:
              0. 19 C4E1 0039 0000:_vsprintf
          4E:
            048B5606894EFE8BF28BD9803F0074:
              1E8BDA803F00740D8BDA:
                0. 1F 4576 003F 0000:_strcspn
              258BDA803F00741E8BDA:
                0. 26 CB48 0046 0000:_strspn
            068B5608894EFE8BF28BD9803F0074:
              1E8BDA803F00740D8BDA:
                0. 1F 0DFA 003F 0000:_strcspn
              258BDA803F00741E8BDA:
                0. 26 83C4 0046 0000:_strspn
          56:
            048B760639D6745885F674544E833E....0074458A1C30FFF6:
              0. 01 CF00 006E 0000:__mbsdec
            068B760839D6745885F674544E833E....0074458A1C30FFF6:
              0. 01 CF00 006E 0000:__mbsdec
          5E:
            048B078946FE:
              31F68B5EFE8A073C4074:
                3884C0750B56E8:
                  0. 0D 44AC 0062 (l)0000:UM_SCOPE
                3A84C0750D56:
                  0. 00 0000 0064 (l)0000:UM_SCOPE
              89C38A073C5875:
                11B8....50E8....89C6FF46:
                  0. 0B ED02 00AE (l)0000:UM_ARGUMENT_TYPES
                13B8....50..........89C6:
                  0. 0D D9B5 00B6 (l)0000:UM_ARGUMENT_TYPES
            06F64707027418B802005031C05050FF7708E8....8B5E0680:
              0. 3C DE8D 015C 0000:__flushbu
            08F6470702741AB802005031C05050FF7708..........8B5E:
              0. 3D 9720 016A 0000:__flushbu
          76:
            04:
              813E....A403756D81FE9F82721381FEF182770D81C6A100:
                0. 1D 2178 0084 0000:__mbctombb
              83:
                3E....00742131C0380474288A1C30FFF687....047407:
                  0. 12 28D5 0042 0000:__mbslen
                7C16FF7505C7441A0000837C1A00750931C05E8BE55DC2:
                  0. 39 C21C 007F 0000:?close@filebuf@@QACPAV1@XZ
            06:
              813E....A403756D81FE9F82721381FEF182770D81C6A100:
                0. 1D 2178 0084 0000:__mbctombb
              83:
                3E....00742131C03804742A8A1C30FFF687....047407:
                  0. 11 1D4C 0044 0000:__mbslen
                7C16FF7505C7441A0000837C1A00750931C05E8BE55DCA:
                  0. 38 09B9 0081 0000:?close@filebuf@@RACPAV1@XZ
              8A46088846FEC646FF008D46FE5056E8....89C68A460488:
                0. 08 4A3D 0031 (l)0000:STR_BRACKET
        A1....8946FE31C951:
          51FF76:
            06FF7604E8....8B76FE8936....83:
              0. 07 E0DD 0027 0000:_atof
            08FF7606..........8B76FE8936:
              0. 00 0000 0029 0000:_atof
          FF76:
            04E8....8B76FE8936....83C4045E8B:
              0. 03 C861 0023 0000:_atof
            06..........8B76FE8936....83C404:
              0. 05 9A1D 0025 0000:_atof
        B8....50:
          E8....:
            83C40285C08946FE75055E8BE55DC38B4EFEBA:
              0. 00 0000 0078 0000:___get_c_file_info
            89C683C402837E0400751E31C05056E8....83C4:
              0. 0F 0925 005F 0000:_system
          ..........:
            83C40285C08946FE75055E8BE55DCB8B4EFE:
              0. 01 A9EA 007C 0000:___get_c_file_info
            89C683C402837E0600752231C05056:
              0. 00 0000 0067 0000:_system
        C45E04268B77088976FED1E68B8C....26034F0649268B470A056C:
          0. 23 F743 0043 (l)0000:_CALC_YDAY
        FF76:
          04E8....:
            83C402408946FE50E8....83C40289C685F6740DFF:
              0. 07 7557 0033 0000:_strdup
            8B5E04C707....:
              8B4606894716:
                B8040450E8....83:
                  0. 17 6545 005F 0000:??0stdiobuf@@QAC@PAU_iobuf@@@Z
                C7471A0100C74718:
                  0. 11 EC30 0073 0000:??0filebuf@@QAC@H@Z
              C74716FFFFC747180000C7471A00:
                0. 10 5957 0072 0000:??0filebuf@@QAC@XZ
          06..........:
            83C402408946FE50..........83C40289C685:
              0. 0A A93B 0039 0000:_strdup
            8B5E06C707....:
              8B4608894716:
                B8040450:
                  0. 00 0000 0069 0000:??0stdiobuf@@RAC@PAU_iobuf@@@Z
                C7471A0100C7:
                  0. 12 BB9D 007D 0000:??0filebuf@@RAC@H@Z
              C74716FFFFC747180000C747:
                0. 11 7C67 007C 0000:??0filebuf@@RAC@XZ
      578B7E:
        048B5D08895EFED1E38B8F....034D06498B450A056C079933:
          0. 20 79AE 0040 (l)0000:_CALC_YDAY
        0C833E....00741FFF760AFF7608FF7606FF7604E8....8945:
          0. 0F 8A80 00BD 0000:_modf
        0E833E....007421FF760CFF760AFF7608FF7606:
          0. 10 C0E6 00CD 0000:_modf
      813E....A40375:
        458B46:
          048946FE807EFF217239807EFF7E7733807E:
            0. 37 F411 0057 0000:__mbcjistojms
          068946FE807EFF217239807EFF7E7733807E:
            0. 37 5A64 0057 0000:__mbcjistojms
        4D8B46:
          048946FE8A5EFF30FFF687....04743B8A5E:
            0. 05 09B0 005F 0000:__mbcjmstojis
          068946FE8A5EFF30FFF687....04743B8A5E:
            0. 05 81A6 005F 0000:__mbcjmstojis
      83:
        3E....00:
          74:
            06FF16....EB03E8....A1....8946FE8D46FE50E8:
              0. 00 0000 0025 0000:?unexpected@@YAXXZ
            3531C0C45E:
              04263807743DC45E04268A1F30FFF687:
                0. 00 0000 0056 0000:__mbslen
              06263807743FC45E06268A1F30FFF687:
                0. 00 0000 0058 0000:__mbslen
          7506C706........813E........73:
            1AA1....D1E08946:
              0. 03 52E2 0078 0000:_exit_PUSHSTATE
            1CA1....D1E08946:
              0. 02 DABB 0084 0000:_exit_PUSHSTATE
        7E:
          0400:
            7429837E0A0074238B4608FF4E0885C074198966FEB80200:
              0. 17 F8D0 0037 0000:?__vec_dtor@@YAXPAXIHP6CHXZ@Z
            75:
              0DFF7608FF7606E8....8BE55DC3E8....8946FEFF7604:
                0. 01 3E9B 004C 0000:__getdcwd
              10FF760AFF7608FF7606E8....8BE55DC3E8....8946FE:
                0. 04 2B63 0059 0000:__getdcwd
          0600:
            742B8B460E0B460C74238B460AFF4E0A85C074198966FEB8:
              0. 19 0F42 0039 0000:?__vec_dtor@@ZAXPAXIHP7CHXZ@Z
            75:
              0FFF760AFF7608..........8BE55DCB..........8946:
                0. 04 6622 0056 0000:__getdcwd
              12FF760CFF760AFF7608..........8BE55DCB:
                0. 00 0000 0063 0000:__getdcwd
      8A46:
        048846FEC646FF00FF76:
          068D46FE50E8....8BE55DC20400:
            0. 00 0000 001E (l)0000:STR_CATC
          08FF7606168D46FE50E8....8BE55DC2:
            0. 02 975B 0022 (l)0000:STR_CATC
        0A8846FEC646FF00168D46FE50FF7608FF7606E8....89560889:
          0. 10 D1E2 0038 (l)0000:STR_BRACKET
      8B:
        46:
          04B90E00F7E105....50E8....83C40285C0753231C050FF7608:
            0. 07 437B 0059 0000:_chsize
          06:
            0B460474:
              0C837E06107504837E0400720431C9EB298B56068B:
                0. 1A 7B4D 004D 0000:_farmalloc
              2F837E0C0074298B460AFF4E0A85C0741F8966FEB8:
                0. 1F B38F 003F 0000:?__vec_dtor@@YAXPEXIHP6CHXZ@Z
            B90E00F7E105....50..........83C40285C0753631C050FF:
              0. 08 A4CE 005F 0000:_chsize
          080B460674:
            0C837E08107504837E0600720431C9EB2B8B56088B:
              0. 19 587E 004F 0000:_farmalloc
            318B46100B460E74298B460CFF4E0C85C0741F8966:
              0. 21 5253 0041 0000:?__vec_dtor@@ZAXPEXIHP7CHXZ@Z
        4E:
          04:
            3B0E....74:
              4985C9740783F9FD7428EB2E894E04B801015031:
                0. 03 EB37 0063 0000:__setmbcp
              5085C9740783F9FD742FEB35894E04B801015031:
                0. 04 3D40 006A 0000:__setmbcp
            8BD9:
              36807FFF30750D89D84848498BD836803F3074F68BD936:
                0. 0F 211D 002F (l)0000:__TRIM0
              807FFF30750C89D84848498BD8803F3074F78BD9807FFF:
                0. 0C 4CAE 002C (l)0000:__TRIM0
          063B0E....74:
            4F85C9740783F9FD742AEB32894E06B801015031:
              0. 03 EB37 0069 0000:__setmbcp
            5685C9740783F9FD7431EB39894E06B801015031:
              0. 04 3D40 0070 0000:__setmbcp
          0A8B5E088B46048B5606E8....89460489560609C2740C837E06:
            0. 2A 0FC7 005D 0000:_farcalloc
          0C:
            31D28856FE8BC14985C07438C45E04268A1F30FFF687....01:
              0. 14 8901 005A 0000:_strnicmp (REF 0034: .)
            8B5E0A8B46068B5608..........89460689560809C2740C83:
              0. 2B FFD0 0061 0000:_farcalloc
          0E31D28856FE8BC14985C074:
            368B5E068A1F30FFF687....0174:
              0. 12 7E42 0058 0000:_fstrnicmp (REF 0032: .)
            38C45E06268A1F30FFF687....01:
              0. 14 C4A1 005A 0000:_strnicmp (0025: CB) (REF 0034: .)
        56:
          04:
            8B:
              4E088956FE8BC14985C0741D8BDA803F0074168A46068BDA:
                0. 18 C901 0038 0000:_strnset
              DA:
                368B0F85C975068BC18BE55DC339D1770F895604894EFE:
                  0. 01 3E9B 003D 0000:___eh_find_caller
                8B0F85C975068BC18BE55DC339D1770F895604894EFEE8:
                  0. 00 0000 003A 0000:___eh_find_caller
            B9....8BD93917740983C10281F9....72F18BC12D....992B:
              0. 07 C134 0027 (l)0000:_check_sig
          068B4E0A8956FE8BC14985C0741D8BDA803F0074168A46088BDA:
            0. 18 818D 0038 0000:_strnset
          08833E....00744C8B46068AC432E485C08946FE743E8B4E0485:
            0. 47 A31F 006D 0000:__mbsnbset
          0A833E....00744C8B46088AC432E485C08946FE743E8B4E0685:
            0. 46 2DE2 006F 0000:__mbsnbset
        5E:
          068B078946FE8D46FE50FF7604E8....83C40485C0750F8B46FE:
            0. 13 6772 0033 0000:_allocmem
          08:
            31C98B46048B5606E8....89460489560609C2740E837E0610:
              0. 2B 516D 005E 0000:__halloc
            8B078946FE8D46FE50FF7606..........83C40485C0750F8B:
              0. 15 F132 0035 0000:_allocmem
          0A31C98B46068B5608..........89460689560809C2740E837E:
            0. 2C 47CB 0062 0000:__halloc
      8D46:
        0650FF760431C050B8....50E8....83C40885C08946FEB80000:
          0. 09 E6F4 0029 0000:__cprintf
        0850FF760631C050BA....B8....5250..........83C40A85C0:
          0. 0F AA7E 002F 0000:__cprintf
        FE50:
          8B46:
            044050E8....83C4048B46FE8BE55DC3:
              0. 00 0000 001A 0000:_setdisk
            064050..........83C4048B46FE8BE55DCB:
              0. 00 0000 001C 0000:_setdisk
          E8....83C4028B46FE488BE55DC3:
            0. 00 0000 0016 0000:_getdisk
          FF76:
            0AFF7608FF7606FF7604E8....8BE55DC3:
              0. 00 0000 001B 0000:_remainderf
            0CFF760AFF7608FF7606..........8BE55DCB:
              0. 00 0000 001D 0000:_remainderf
            12FF7610FF760EFF760CFF760AFF7608FF7606FF7604:
              0. 01 3E9B 0027 0000:_remainder
            14FF7612FF7610FF760EFF760CFF760AFF7608FF7606:
              0. 00 0000 0029 0000:_remainder
          ..........83C4028B46FE488BE55DCB:
            0. 00 0000 0018 0000:_getdisk
      A1....0B06....:
        7406FF1E....EB05..........A1....8946FE8D46:
          0. 02 DABB 002B 0000:?unexpected@@ZAXXZ
        750AC706........8C1E....B8....3B06....76:
          23:
            0. 01 FB44 009E 0000:_exit_PUSHSTATE
          25:
            0. 01 FB44 00AA 0000:_exit_PUSHSTATE
      B8:
        000450:
          E8....83C40285C08946FE7509B8FFFF8BE55DC202008B4E:
            0. 1F 03CD 003F 0000:?doallocate@streambuf@@MACHXZ
          ..........83C40285C08946FE7509B8FFFF8BE55DCA0200:
            0. 21 6BA0 0041 0000:?doallocate@streambuf@@NACHXZ
        0166CD21895EFE8B46FE8BE55D:
          C3:
            0. 00 0000 0013 (l)0000:_GetGlobalCodePage
          CB:
            0. 00 0000 0013 (l)0000:_GetGlobalCodePage
        ....8BD8F6078375:
          148946FEFF7604FF760683C3FA53E8....8BE5:
            0. 06 C5A6 0037 0000:_fopen
          168946FEFF7606FF760883C3FA53:
            0. 08 AC36 003B 0000:_fopen
          178946FEFF7604FF760683C3FA53FF7608E8:
            0. 00 0000 003A 0000:__fsopen
          198946FEFF7606FF760883C3FA53FF760A:
            0. 00 0000 003E 0000:__fsopen
          1B8946FEFF7606FF7604FF760AFF76081E83C3:
            0. 03 F80E 003F 0000:_fopen
          1D8946FEFF7608FF7606FF760CFF760A1E83C3:
            0. 02 8147 0043 0000:_fopen
          1E8946FEFF7606FF7604FF760AFF76081E83C3:
            0. 06 4D16 0042 0000:__fsopen
          208946FEFF7608FF7606FF760CFF760A1E83C3:
            0. 05 0B10 0046 0000:__fsopen
      C45E:
        0426:
          803F0074291EB8....50C45E04268A079850E8....83C406:
            0. 18 7E25 0058 0000:_puts
          837F28FF750626C7472C0000C45E0426837F2C00750931C0:
            0. 53 DCB4 00A1 0000:?close@filebuf@@QECPEV1@XZ
          8B4716260B4714740C268B4714262B47107425EB0439E474:
            0. 54 1380 00D7 0000:?sync@filebuf@@UECHXZ
        0626:
          803F00742B1EB8....50C45E06268A079850..........83:
            0. 1A DFE7 005C 0000:_puts
          837F28FF750626C7472C0000C45E0626837F2C00750931C0:
            0. 52 F12B 00A3 0000:?close@filebuf@@RECPEV1@XZ
          8B:
            078946FE168D46FE50FF7604E8....83C40685C075108B:
              0. 16 1BF2 0036 0000:_allocmem
            4716260B4714740C268B4714262B47107425EB0439E474:
              0. 56 8F21 00E0 0000:?sync@filebuf@@VECHXZ
        08268B078946FE168D46FE50FF7606..........83C40685C075:
          0. 18 2B62 0038 0000:_allocmem
      E8....:
        8946FEB9000C51E8....:
          8B460A8B5E088B4E068B5604E8:
            0. 0F 7BA1 0072 0000:_round
          FF76:
            06FF7604E8....895606894604:
              0. 04 53E2 0033 0000:_truncf
            0AFF7608FF7606FF7604E8:
              0. 10 0912 0045 0000:_trunc
        8B:
          46:
            060B4604740C837E06107504837E0400720431C9EB298B:
              0. 1D 30A5 0050 0000:_farmalloc
            080B4606740C837E08107504837E0600720431C9EB2B8B:
              0. 1C 8424 0052 0000:_farmalloc
          4E:
            0A8B5E088B46048B5606E8....89460489560609C2740C:
              0. 2D E38F 0060 0000:_farcalloc
            0C8B5E0A8B46068B5608..........89460689560809C2:
              0. 2E 1F6E 0064 0000:_farcalloc
          5E:
            0831C98B46048B5606E8....89460489560609C2740E83:
              0. 2E 65B0 0061 0000:__halloc
            0A31C98B46068B5608..........89460689560809C274:
              0. 2F 7D86 0065 0000:__halloc
      FF76:
        04E8....83C402:
          83FAFF752D83F8FF7528B8000150FF7604E8:
            0. 00 0000 0046 0000:_creatnew
          8846FE30E483F8FF7427FF7604E8....83C402:
            0. 25 6681 0045 0000:_getw
        06:
          FF7604:
            B8....50B9....51E8....8946FE83C408F606....40:
              0. 03 C6E1 0033 0000:_vprintf
            E8....:
              83C404:
                83FAFF753383F8FF752EB8000150FF76:
                  0. 05 1A6B 004F 0000:_creatnew
                8846FE30E483F8FF742AFF7606FF7604:
                  0. 01 3E9B 004B 0000:_getw
              8946FE83C404833E....0C75:
                0F8B46FE8B5E08:
                  0. 03 B5AF 002F 0000:__dos_setblock
                108B46FEC45E08:
                  0. 04 6E51 0030 0000:__dos_setblock
          ..........83C402:
            83FAFF753183F8FF752CB8000150FF7606:
              0. 00 0000 004C 0000:_creatnew
            8846FE30E483F8FF7429FF7606:
              0. 00 0000 0049 0000:_getw
        08FF7606:
          B8....50BA....BB....5253..........8946FE83C4:
            0. 03 58F8 003B 0000:_vprintf
          ..........:
            83C404:
              83FAFF753783F8FF7532B8000150:
                0. 06 C7C6 0055 0000:_creatnew
              8846FE30E483F8FF742CFF7608FF:
                0. 02 65CE 004F 0000:_getw
            8946FE83C404833E....0C75:
              0F8B46FE8B:
                0. 05 7A6E 0031 0000:__dos_setblock
              108B46FEC4:
                0. 06 546F 0032 0000:__dos_setblock
        0AFF7608FF7606FF76041EB8....50B9....51E8....8946FE83:
          0. 04 1EE8 003B 0000:_vprintf
        0CFF760AFF7608FF7606:
          1EB8....50BA....BB....5253:
            0. 00 0000 0043 0000:_vprintf
          FF7604E8....83C40A85C08946FE7407:
            0. 1C 85C0 0042 0000:__lsearch
        10FF760EFF760CFF760AFF7608FF7606..........83C40C85C0:
          0. 20 2297 0049 0000:__lsearch
      ..........8946FEB9000C51..........:
        8B460C8B5E0A8B4E088B56:
          0. 01 4E95 0080 0000:_round
        FF76:
          08FF7606:
            0. 09 3457 003B 0000:_truncf
          0CFF760AFF7608FF76:
            0. 01 4E95 004D 0000:_trunc
    56:
      1EC576:
        04C45E088B4E0CE32DB441B65AAC268A17433AC27505E2F5EB:
          0. 2D B1AC 004D 0000:_memicmp
        06C45E0A8B4E0EE32DB441B65AAC268A17433AC27505E2F5EB:
          0. 2D 539C 004D 0000:_memicmp
      31F6:
        8B46:
          060B4604750BE8....3BC6787231F6EB6EC45E04268A470A:
            0. 2A 462C 008C 0000:_fflush
          080B4606750D..........3BC6787431F6EB70C45E06268A:
            0. 2B 5C94 0090 0000:_fflush
        C45E:
          04268A079850E8....83C40285C07411C45E04FF4604268A:
            0. 17 0BBE 0037 0000:__tcsnextc
          06268A079850..........83C40285C07411C45E06FF4606:
            0. 19 E6F3 0039 0000:__tcsnextc
        C706....0100FF76:
          16FF7614FF7612FF7610FF760EFF760CFF76:
            0. 0B B4A8 0130 0000:_fnsplit
          18FF7616FF7614FF7612FF7610FF760EFF76:
            0. 0A 2B4B 0142 0000:_fnsplit
      57:
        068A46:
          04B435CD218B7606891C8B76088C04075F5E5DC3558BEC56:
            0. A9 B72C 01E9 0000:_int_getvector 001C:_int_setvector 0032:_int_service 00CD:_int_intercept 0146:_int_restore 0180:_int_on 0182:_int_off 0184:_int_prev
          06B435CD218B7608891C8B760A8C04075F5E5DCB558BEC56:
            0. A9 1708 01F9 0000:_int_getvector 001C:_int_setvector 0032:_int_service 00CD:_int_intercept 0152:_int_restore 0190:_int_on 0192:_int_off 0194:_int_prev
        1E:
          078B3E....85FF75:
            3833F6A1....85C0744E8EC08BFE32C0B9FF:
              0. 09 3BE1 0075 0000:_getenv
            3A33F6A1....85C074508EC08BFE32C0B9FF:
              0. 08 E9CA 0079 0000:_getenv
          8E5E:
            048B76068E46088B7E0A8B4E0CD1E9F3A5D1D1F3A41F5F5E:
              0. 02 5F98 0022 0000:_movedata
            068B76088E460A8B7E0C8B4E0ED1E9F3A5D1D1F3A41F5F5E:
              0. 02 1714 0022 0000:_movedata
          C47E:
            048BDF33C0B9FFFFF2AE4F8BD7C47E08B9FFFFF2AEF7D149:
              0. 23 5F74 0043 0000:_strncat
            068BDF33C0B9FFFFF2AE4F8BD7C47E0AB9FFFFF2AEF7D149:
              0. 23 ADD9 0043 0000:_strncat
          C5:
            56:
              04B80043CD21721680E1FE89CB8A4E08D0E119C94109D9B8:
                0. 09 565E 0038 0000:_chmod
              06B80043CD21721680E1FE89CB8A4E0AD0E119C94109D9B8:
                0. 08 2AAA 003A 0000:_chmod
            76:
              04:
                AC3C2074FB3C0972093C0D76F33C2B7501AC8B5E0C85DB:
                  0. 9E FD38 00E2 0000:_strtoul
                C47E088A460CB429CD211F3DFF00750731C0995F5E5DC3:
                  0. 0D 58AA 002D 0000:_parsfnm
              06:
                AC3C2074FB3C0972093C0D76F33C2B7501AC8B5E0E85DB:
                  0. 9D 9F73 00E4 0000:_strtoul
                C47E0A8A460EB429CD211F3DFF00750731C0995F5E5DCB:
                  0. 0D B7AB 002D 0000:_parsfnm
        83:
          3E....00:
            74:
              208B56068B4604E8....50535152E8....E8....8B:
                0. 0D 8D4E 00A9 0000:_modff
              228B56068B4604E8....50535152E8....E8....C4:
                0. 0F E58B 00AF 0000:_modff
              23E8....8B0E....81E13F000BC1A3....31C05050:
                0. 01 3E9B 0040 0000:_fegetenv (001C: 5E)
                1. 01 3E9B 003E 0000:_fegetenv (001C: C3)
              268B56088B4606..........50535152:
                0. 00 0000 00C5 0000:_modff
              27..........8B0E....81E13F000BC1A3....31C0:
                0. 02 358E 0044 0000:_fegetenv (001F: 5E)
                1. 02 358E 0042 0000:_fegetenv (001F: CB)
              288B56088B4606..........50535152:
                0. 00 0000 00CB 0000:_modff
            7506A1....A3....C43E....33C0B9FFFF8BD91EC576:
              0. 24 39A1 004E 0000:_getenv
              1. 24 EED0 0050 0000:_getenv
          7E:
            0800741DBA....B8....C45E0426895706268947048CC289D8:
              0. 06 0BE0 00B8 0000:??0strstreambase@@IEC@XZ
              1. 06 7A2D 00B8 0000:??0fstreambase@@QEC@XZ
            0A0074:
              1DBA....B8....C45E0426895706268947048CC289D8:
                0. 06 7A2D 00BA 0000:??0fstreambase@@QEC@H@Z
              1FBA....B8....C45E0626895706268947048CC289D8:
                0. 05 83D7 00C2 0000:??0strstreambase@@JEC@XZ (REF 000C: ??_8strstreambase@@7F@)
                1. 05 83D7 00C2 0000:??0fstreambase@@REC@XZ (REF 000C: ??_8fstreambase@@7F@)
            0C0074:
              1DBA....B8....C45E0426895706268947048CC289D8:
                0. 06 15DE 0099 0000:??0ostream@@QEC@PEVstreambuf@@@Z
                1. 06 63E7 00A1 0000:??0istream@@QEC@PEVstreambuf@@@Z
              1FBA....B8....C45E0626895706268947048CC289D8:
                0. 05 83D7 00C4 0000:??0fstreambase@@REC@H@Z
              2BBA....B8....C45E042689570626894704BA....B8:
                0. 00 0000 00ED 0000:??0iostream@@QEC@PEVstreambuf@@@Z
            0E0074:
              1FBA....B8....C45E0626895706268947048CC289D8:
                0. 05 3717 009F 0000:??0ostream@@REC@PEVstreambuf@@@Z
                1. 05 8FA2 00A7 0000:??0istream@@REC@PEVstreambuf@@@Z
              2DBA....B8....C45E062689570626894704BA....B8:
                0. 00 0000 00FB 0000:??0iostream@@REC@PEVstreambuf@@@Z
            1000741DBA....B8....C45E0426895706268947048CC289D8:
              0. 06 7A2D 00CA 0000:??0fstreambase@@QEC@PFDHH@Z (0098: 00)
              1. 06 7A2D 00C4 0000:??0fstreambase@@QEC@HPEDH@Z (0098: 04)
            120074:
              1DBA....B8....C45E0426895706268947048CC289D8:
                0. 06 0BE0 00C6 0000:??0strstreambase@@IEC@PEDH0@Z
                1. 06 63E7 00DD 0000:??0istream@@QEC@PEVstreambuf@@HPEVostream@@@Z
              1FBA....B8....C45E0626895706268947048CC289D8:
                0. 05 83D7 00D6 0000:??0fstreambase@@REC@PFDHH@Z (00A1: 00)
                1. 05 83D7 00CE 0000:??0fstreambase@@REC@HPEDH@Z (00A1: 06)
            1400741FBA....B8....C45E0626895706268947048CC289D8:
              0. 05 83D7 00D0 0000:??0strstreambase@@JEC@PEDH0@Z
              1. 05 8FA2 00E7 0000:??0istream@@REC@PEVstreambuf@@HPEVostream@@@Z
        8A46:
          04B435CD218CC0C4760626891CC4760A2689045F5E5DC3558B:
            0. B2 B8B3 0219 0000:_int_getvector 001E:_int_setvector 0034:_int_service 00D6:_int_intercept 0169:_int_restore 01B3:_int_on 01B5:_int_off 01B7:_int_prev
          06B435CD218CC0C4760826891CC4760C2689045F5E5DCB558B:
            0. B2 3DDF 022A 0000:_int_getvector 001E:_int_setvector 0034:_int_service 00D6:_int_intercept 0176:_int_restore 01C4:_int_on 01C6:_int_off 01C8:_int_prev
            1. B5 AB3C 0269 0000:_int_getvector 001E:_int_setvector 0034:_int_service 00D9:_int_intercept 01A9:_int_restore 0203:_int_on 0205:_int_off 0207:_int_prev
        8B:
          46:
            04:
              05030024FE3D0400:
                7303B80400BD02008B36....8BCEEB0C:
                  0. 2C 02B2 00E5 0000:__nmalloc 0075:__nfree
                7D03B80400BD02008B36....8BCEEB0C:
                  0. 2C 02B2 00E5 0000:__nmalloc 0075:__nfree
              B90600F7E105....:
                8CD9890E....A3....B908008B5606D3:
                  0. 06 9BBA 00E7 0000:_disp_box
                A3....B1088B5606D3E289560689C38A:
                  0. 0D 2AEA 00D8 0000:_disp_box
            06:
              05030024FE3D04007D03B80400BD02008B36....8BCEEB0C:
                0. 2C 02B2 00EB 0000:__nmalloc 007B:__nfree
              B90600F7E105....:
                8CD9890E....A3....B908008B5608D3:
                  0. 06 80AA 00F7 0000:_disp_box
                A3....B1088B5608D3E289560889C38A:
                  0. 0C DAEB 00E8 0000:_disp_box
            08A3....2E8926....2E8C16....1E078B76068936....8C1E:
              0. 00 0000 0138 0000:__exec
            0A:
              8B5E088B4E068B5604BE03008BF881E7F07F742981FFF07F:
                0. 3A B214 005A 0000:___fpclassify_d
              A3....8926....8C16....1E078B76088936....8C1E:
                0. 07 45BC 012A 0000:__exec
            0C:
              8B5E0A8B4E088B5606BE03008BF881E7F07F742981FFF07F:
                0. 3A 5239 005A 0000:___fpclassify_d
              A3....8926....8C16....1E07C57608268936....268C1E:
                0. 00 0000 013D 0000:__exec
            0EA3....8926....8C16....1E07C5760A268936....268C1E:
              0. 00 0000 0130 0000:__exec
          4E:
            048B56068B7E0831F685FF74:
              158BDA8A078BD9880784C07409:
                0. 0F B024 002F 0000:_wcstombs
              178BDA8A0730E48BD9890785C0:
                0. 11 0547 0031 0000:_mbstowcs
            06:
              31FF8BF18BD98A079883F82B740C83F82D740D83F830740E:
                0. 03 151D 0060 0000:?printint@ostream@@AACXPBD@Z
              8B:
                56088B7E0A31F685FF74:
                  158BDA8A078BD9880784C07409:
                    0. 0F F8A8 002F 0000:_wcstombs
                  178BDA8A0730E48BD9890785C0:
                    0. 11 4DCB 0031 0000:_mbstowcs
                76048CD88EC0BF....1E8ED9A5A5A5A5A51F833E....00:
                  0. 08 B0E2 0034 0000:_fesetenv
              B45B8B5604CD21730650E8....EB078B7E08890531C05F5E:
                0. 02 5F98 0022 0000:__dos_creatnew
            08:
              31FF8BF18BD98A079883F82B740C83F82D740D83F830740E:
                0. 03 151D 0062 0000:?printint@ostream@@BACXPBD@Z
              8B:
                76068CD88EC0BF....1E8ED9A5A5A5A5A51F833E....00:
                  0. 08 58D1 0036 0000:_fesetenv
                7E068B7604D1E9D1E9743F8A158A043AC2755584C0744C:
                  0. 59 14B9 0079 0000:_strncmp
              8CD88EC08B7E:
                048B76068BC785C974223BF7741E8BDE7706:
                  0. 50 9C0E 0070 0000:_memcpy
                068B76048BC68BD123C7A8017405A6752849:
                  0. 2F 5162 004F 0000:_memcmp
              B45B:
                1EC55604CD211F730650E8....EB08C47E0A26890531:
                  0. 05 0FE7 0025 0000:__dos_creatnew
                8B5606CD21730850..........EB078B7E0A890531C0:
                  0. 04 9913 0024 0000:__dos_creatnew
            0A:
              8B7E088B7606D1E9D1E9743F8A158A043AC2755584C0744C:
                0. 59 D365 0079 0000:_strncmp
              8CD88EC08B7E:
                068B76088BC785C974223BF7741E8BDE7706:
                  0. 50 7C23 0070 0000:_memcpy
                088B76068BC68BD123C7A8017405A6752849:
                  0. 2F 19EE 004F 0000:_memcmp
              B45B1EC55606CD211F730850..........EB08C47E0C2689:
                0. 07 181B 0027 0000:__dos_creatnew
            0C:
              1EC47E:
                04C576088BC785C9742A8CDB8CC23BDA750E3BF774:
                  0. 58 946D 0078 0000:_memcpy
                08C576048BC68BD123C7A8017405A6752A494AD1E9:
                  0. 2F 946A 004F 0000:_memcmp
              8CDBC47E08C57604D1E9D1E97443268A158A043AC2755984:
                0. 62 E9D5 0082 0000:_strncmp
              C45E0826:
                8A17C47604268A04C47E08268805C45E04268817:
                  0. 0F 6922 002F (l)0000:CSWAP
                8B17C47604268B04C47E08268905C45E04268917:
                  0. 11 3943 0031 (l)0000:ISWAP
            0E:
              1EC47E:
                06C5760A8BC785C9742A8CDB8CC23BDA750E3BF774:
                  0. 58 7440 0078 0000:_memcpy
                0AC576068BC68BD123C7A8017405A6752A494AD1E9:
                  0. 2F DCE6 004F 0000:_memcmp
              8CDBC47E0AC57606D1E9D1E97443268A158A043AC2755984:
                0. 62 7DCC 0082 0000:_strncmp
          56:
            04:
              833E....00744431C08BFA8BDA8A0F30ED89CE89F189CB30:
                0. 03 50D8 0066 0000:__mbsrchr
              8B:
                76068B7E08D1EF8BCF4F85C974198BDA8A0F8A47018804:
                  0. 14 C3C9 0034 0000:_swab
                7E068B:
                  46088B358BDA8B0F890D893783C70283C2024875:
                    0. 07 FE5C 0027 (l)0000:ISWAP
                  76088A0D8BDA8A078805880F47424E75F15F5E5D:
                    0. 03 3E2D 0023 (l)0000:CSWAP
              B80043CD21721680E1FE89CB8A4E06D0E119C94109D9B801:
                0. 07 46E1 0035 0000:_chmod
            06:
              833E....00744431C08BFA8BDA8A0F30ED89CE89F189CB30:
                0. 03 50D8 0068 0000:__mbsrchr
              8B:
                4604E8....:
                  50535152E8....E8....83C4085F5E5DC3:
                    0. 00 0000 001F 0000:_expf (REF 0013: _exp)
                    1. 00 0000 001F 0000:_tanhf (REF 0013: _tanh)
                    2. 00 0000 001F 0000:_log1pf (REF 0013: _log1p)
                    3. 00 0000 001F 0000:_roundf (REF 0013: _round)
                    4. 00 0000 001F 0000:_sqrtf (REF 0013: _sqrt)
                    5. 00 0000 001F 0000:_tanf (REF 0013: _tan)
                    6. 00 0000 001F 0000:_expm1f (REF 0013: _expm1)
                  83FE00741183FE03750883CA40830E....01:
                    0. 66 13E4 0244 0000:_rintf 00DD:___fpclassify_f 012A:_nextafterf
                76088B7E0AD1EF8BCF4F85C974198BDA8A0F8A47018804:
                  0. 14 8B45 0034 0000:_swab
                DAC6072531C98B76048B7C028B7D0203FEF6450E807408:
                  0. 4D 9B3A 00D2 (l)0000:?intformat@@YAXAAVostream@@PADHH@Z
              B80043CD21721680E1FE89CB8A4E08D0E119C94109D9B801:
                0. 06 5984 0037 0000:_chmod
            088B:
              4606:
                8B4E0C8B5E0A:
                  E8....89CA89D85F5E5DCB:
                    0. 00 0000 001C 0000:__aFulrem
                  ..........89CA89D85F5E5DCB:
                    0. 00 0000 001E 0000:__aFulrem
                E8....83FE00741183FE03750883CA40830E....01:
                  0. 66 65BD 0244 0000:_rintf 00DD:___fpclassify_f 012A:_nextafterf
                ..........50535152....................83C4:
                  0. 05 107A 0025 0000:_expf (REF 0015: _exp)
                  1. 05 107A 0025 0000:_tanhf (REF 0015: _tanh)
                  2. 05 107A 0025 0000:_log1pf (REF 0015: _log1p)
                  3. 05 107A 0025 0000:_roundf (REF 0015: _round)
                  4. 05 107A 0025 0000:_sqrtf (REF 0015: _sqrt)
                  5. 05 107A 0025 0000:_tanf (REF 0015: _tan)
                  6. 05 107A 0025 0000:_expm1f (REF 0015: _expm1)
              DAC6072531C98B76068B7C028B7D0203FEF6450E807408:
                0. 4D 194A 00D2 (l)0000:?intformat@@ZAXAAVostream@@PADHH@Z
            0A8B4608E8....505351528B56068B4604E8....50535152E8:
              0. 00 0000 002C 0000:_powf (REF 0020: _pow)
              1. 00 0000 002C 0000:_atan2f (REF 0020: _atan2)
            0C8B460A..........505351528B56088B4606..........50:
              0. 03 F311 0034 0000:_powf (REF 0024: _pow)
              1. 03 F311 0034 0000:_atan2f (REF 0024: _atan2)
          5E:
            048B:
              3785F674638B7C02F6440E027503E8....80640EFD5657:
                0. 01 3E9B 0077 0000:??1__eh_cv@@QAC@XZ
              56088B4E0A8B7E0C8B760E8A4606B45CCD21720631C05F:
                0. 05 7BD8 002B 0000:__dos_lock
              77028B740203F3F7440AFFFE740EB801005053E8....85:
                0. 36 E11F 00BB 0000:?eatwhite@@YAXAAVistream@@@Z (REF 00B2: .)
            068B:
              560A8B4E0C8B7E0E8B76108A4608B45CCD21720631C05F:
                0. 04 9187 002D 0000:__dos_lock
              77028B740203F3F7440AFFFE7410B801005053:
                0. 00 0000 00C1 0000:?eatwhite@@ZAXAAVistream@@@Z (REF 00B8: .)
          76:
            04:
              1E078B7E068A4608B429CD213DFF00B8000074028BC65F5E:
                0. 02 5F98 0022 0000:_parsfnm
              31FF85F6750BE8....3BC7784F31FFEB4B8A440624263C02:
                0. 1E 1D02 006A 0000:_fflush
              56E8....83C40283F8087207B801005F5E5DC389C3D1E38D:
                0. 01 069C 0094 0000:_raise (0072: C3)
                1. 01 069C 0095 0000:_raise (0072: 5D)
              833E....00742CBFFFFF803C007507B8FFFF5F5E5DC3578A:
                0. 03 06C2 0041 0000:__mbsbtype
              8A0C4680F92074F880F909720580F90D76EE33C0998BE88A:
                0. 46 464D 0066 0000:_atol
              8B:
                4406A880740724FD0C018944068A440624313C017403E9:
                  0. 2B DF73 00DF 0000:__fillbuf
                56068B7E088B4E0A85C97415498BDA8A074288044630E4:
                  0. 10 6DAB 0030 0000:_memccpy
                7C0485FF740457E8....8B4E06894C0485C9740A804C09:
                  0. 17 42CF 0037 0000:?tie@ios@@QACPAVostream@@PAV2@@Z
                7E:
                  06:
                    803C00741B578A049850E8....83C40483F8FF7505:
                      0. 11 6624 0031 0000:_fputs
                    8B4C0E2B4C0C3BCF7C1857FF7608FF740CE8....01:
                      0. 1D B3F3 003D 0000:?sputn@streambuf@@QACHPBDH@Z
                  08:
                    8B5E0A837C0200741A8B4C0685C974133BCB740F89:
                      0. 06 19DB 006A 0000:?setb@streambuf@@IACXPAD0H@Z
                    C7441A000085FF750DFF760AE8....89C783C402EB:
                      0. 1A 721D 008F 0000:?init@strstreambuf@@AACXPADH0@Z
              8CD88EC0BF....A5A5A5A5A5833E....00740EB8000F50FF:
                0. 01 CDA4 002D 0000:_fesetenv
              AC3C2074FB3C0972093C0D76F33C2B7501AC8B5E0885DB74:
                0. 9B AE4E 00D8 0000:_strtoul
            06:
              1E078B7E088A460AB429CD213DFF00B8000074028BC65F5E:
                0. 02 1714 0022 0000:_parsfnm
              31FF85F6750D..........3BC7785131FFEB4D8A44062426:
                0. 1F 46FD 006E 0000:_fflush
              833E....00742EBFFFFF803C007507B8FFFF5F5E5DCB578A:
                0. 02 EBE5 0043 0000:__mbsbtype
              8A0C4680F92074F880F909720580F90D76EE33C0998BE88A:
                0. 46 0EC1 0066 0000:_atol
              8B:
                4406A880740724FD0C018944068A440624313C017403E9:
                  0. 2A 08E1 00EB 0000:__fillbuf
                56088B7E0A8B4E0C85C97415498BDA8A074288044630E4:
                  0. 10 C9F9 0030 0000:_memccpy
                7C0485FF740657..........8B4E08894C0485C9740A80:
                  0. 19 2155 0039 0000:?tie@ios@@RACPAVostream@@PAV2@@Z
                7E:
                  048B4E04D1E9D1E9D1E9D1E901CE81E70F008BD631C0:
                    0. 0A 7836 002A (l)0000:_normptr
                  08:
                    803C00741D578A049850..........83C40483F8FF:
                      0. 13 E4F0 0033 0000:_fputs
                    8B4C0E2B4C0C3BCF7C1A57FF760AFF740C:
                      0. 00 0000 003F 0000:?sputn@streambuf@@RACHPBDH@Z
                  0A:
                    8B5E0C837C0200741C8B4C0685C974153BCB741189:
                      0. 05 F878 006C 0000:?setb@streambuf@@JACXPAD0H@Z
                    C7441E000085FF750FFF760C..........89C783C4:
                      0. 1B 9B5E 00A5 0000:?init@strstreambuf@@BACXPADH0@Z
              8CD88EC0BF....A5A5A5A5A5833E....007410B8000F50FF:
                0. 01 CDA4 002F 0000:_fesetenv
              AC3C2074FB3C0972093C0D76F33C2B7501AC8B5E0A85DB74:
                0. 9A 98E0 00DA 0000:_strtoul
            088B7E068B4E06D1E9D1E9D1E9D1E901CE81E70F008BD631C0:
              0. 0A 30BA 002A (l)0000:_normptr
            0A8B7E0C8B4E060B4E04742385FF741F8BCE4E85C974188BC6:
              0. 1A 5F9F 003A 0000:?__vec_invariant@@YAXPEXIHP6CH0@Z@Z
            0C8B7E0EFF7606FF7604E8....83FE0475238B4604BB....2B:
              0. 08 4E1F 00AE 0000:_setvbuf
            0E8B7E10FF7608FF7606..........83FE0475238B4606BB:
              0. 00 0000 00B2 0000:_setvbuf
          7E:
            04:
              1657:
                E8....83C40489C603F73BF77631368A049883F82E74:
                  0. 1E 5EC7 004F (l)0000:_get_file_extension
                ..........83C40489C603F73BF77633368A049883F8:
                  0. 1F 53AA 0053 (l)0000:_get_file_extension
              31F68A059850E8....83C40285C0740D8BDF478A079889C6:
                0. 10 3534 0030 0000:__tcsnextc
              57:
                E8....83C40289C603F73BF7762E8A049883F82E741183:
                  0. 1A AF77 004B (l)0000:_get_file_extension
                ..........83C40289C603F73BF776308A049883F82E74:
                  0. 1B F97E 004F (l)0000:_get_file_extension
              83FFFF7413FF7606B9....51E8....83C40489C685F67506:
                0. 0A 31C8 00A2 0000:_fdopen
              85FF741E837E0A00741831F639760874118BC6F7660603C7:
                0. 10 2D7E 0030 0000:?__vec_ctor@@YAPAXPAXIHP6CPAXXZ@Z
              8B:
                450C85C074072B450A741EEB0439E47418B8FFFF50578B:
                  0. 37 EBE1 009F 0000:?sync@stdiobuf@@UACHXZ
                4E06D1E1D1E151E8....83C40289C685F674468B460683:
                  0. 15 9161 0068 0000:?usersize@ios@@AACXH@Z
                5D028B5F0203DFF64708867560897E048B470489C38B4F:
                  0. 3A 87C3 007E 0000:?putback@istream@@QACAAV1@D@Z
                5E068B77028B740203F3FF74048B5D028B470203C783C0:
                  0. 03 C5CB 002D (!)0000:?
                7608:
                  85FF:
                    741F837E0A0074198BCE4E85C974128BC6F766:
                      0. 12 8F1F 0032 0000:?__vec_invariant@@YAXPAXIHP6CH0@Z@Z
                    75158BC6F7660683C00250E8....83C40289C7:
                      0. 30 2530 0050 0000:?__vec_new@@YAPAXPAXIHP6CPAXXZ@Z
                  8B5606833E....0074:
                    688BCF803D00741E8BD98A1F:
                      0. 04 B0AE 008F 0000:__mbsncat
                    6E8BCF803D00741E8BD98A1F:
                      0. 04 B0AE 0095 0000:__mbsnbcat
              BEFFFF837D1A00742E817E0600407511B9004051FF7516E8:
                0. 00 0000 0047 0000:?setmode@filebuf@@QACHH@Z
            06:
              31F68A059850..........83C40285C0740D8BDF478A0798:
                0. 12 80B2 0032 0000:__tcsnextc
              3B7E0A77228B76088B4E083B4E0C7711FF76045657E8:
                0. 13 7A8E 0033 0000:_disp_fillbox
              83FFFF7415FF7608B9....51..........83C40489C685F6:
                0. 0B 7664 00AE 0000:_fdopen
              85FF74208B460E0B460C741831F639760A74118BC6F76608:
                0. 12 7F0B 0032 0000:?__vec_ctor@@ZAPAXPAXIHP7CPAXXZ@Z
              8B:
                450C85C074072B450A741EEB0439E47418B8FFFF50578B:
                  0. 36 DCEC 00A7 0000:?sync@stdiobuf@@VACHXZ
                4E:
                  04F6450632751183F9FF740C837D0400750B837D0C00:
                    0. 3E F4C4 005E 0000:_ungetc
                  08D1E1D1E151..........83C40289C685F6744A8B46:
                    0. 16 B08E 006E 0000:?usersize@ios@@BACXH@Z
                5604833E....0074458BC28BDA8A0F30ED89CE89F189CB:
                  0. 04 B0AE 0068 0000:__mbschr
                5D028B5F0203DFF64708867564897E068B470489C38B4F:
                  0. 39 BBA1 0082 0000:?putback@istream@@RACAAV1@D@Z
                5E088B77028B740203F3FF74048B5D028B470203C783C0:
                  0. 02 726E 002F (!)0000:?
                760A:
                  85FF:
                    74218B4E0E0B4E0C74198BCE4E85C974128BC6:
                      0. 14 1EF6 0034 0000:?__vec_invariant@@ZAXPAXIHP7CH0@Z@Z
                    75178BC6F7660883C00250..........83C402:
                      0. 34 4CF9 0054 0000:?__vec_new@@ZAPAXPAXIHP7CPAXXZ@Z
                  8B5608833E....0074:
                    688BCF803D00741E8BD98A1F:
                      0. 04 B0AE 0091 0000:__mbsncat
                    6E8BCF803D00741E8BD98A1F:
                      0. 04 B0AE 0097 0000:__mbsnbcat
              BEFFFF837D1A007432817E0800407513B9004051FF7516:
                0. 00 0000 004B 0000:?setmode@filebuf@@RACHH@Z
              FF7604E8....8B5E04C707....83FF107D03BF10008B5E04:
                0. 07 3234 0069 0000:??0strstreambuf@@QAC@H@Z
            08:
              3B7E0C77248B760A8B4E0A3B4E0E7713FF76065657:
                0. 00 0000 0035 0000:_disp_fillbox
              833E....007433BEFFFFC45E0426803F007507B8FFFF5F5E:
                0. 0B 1E23 0048 0000:__mbsbtype
              8B:
                4E06F6450632751183F9FF740C837D0400750B837D0C00:
                  0. 3E 7E1B 005E 0000:_ungetc
                5606833E....0074458BC28BDA8A0F30ED89CE89F189CB:
                  0. 04 B0AE 006A 0000:__mbschr
              FF7606..........8B5E06C707....83FF107D03BF10008B:
                0. 08 79AF 0079 0000:??0strstreambuf@@RAC@H@Z
            0A:
              31F6C706....0100FF760C57FF7608FF7606FF7604E8:
                0. 02 2600 00E7 0000:_fnsplit
              833E....007435BEFFFFC45E0626803F007507B8FFFF5F5E:
                0. 0A 2FAA 004A 0000:__mbsbtype
              8B:
                46060B4604:
                  7423837E0C00741D31F685FF74178BC6F766:
                    0. 1D D53C 003D 0000:?__vec_ctor@@YAPEXPEXIHP6CPEXXZ@Z
                  751B8BC7F7660883C00250E8....83C40289:
                    0. 42 4813 0062 0000:?__vec_new@@YAPEXPEXIHP6CPEXXZ@Z
                760C8B4E080B4E0674278B4E100B4E0E741F8BCE4E85C9:
                  0. 1E 47D1 003E 0000:?__vec_invariant@@ZAXPEXIHP7CH0@Z@Z
            0C:
              31F6C706....0100FF760E57FF760AFF7608FF7606:
                0. 00 0000 00F9 0000:_fnsplit
              8B46080B4606:
                74258B46100B460E741D31F685FF74178BC6:
                  0. 1F 6CB1 003F 0000:?__vec_ctor@@ZAPEXPEXIHP7CPEXXZ@Z
                751D8BC7F7660A83C00250..........83C4:
                  0. 46 6452 0066 0000:?__vec_new@@ZAPEXPEXIHP7CPEXXZ@Z
        8C:
          D88EC08B:
            76:
              068B7E0433C0B9FFFFF2AE4F8BD78BFEB9FFFFF2AE:
                0. 1E F95D 003E 0000:_strncat
              088B7E0633C0B9FFFFF2AE4F8BD78BFEB9FFFFF2AE:
                0. 1E BADC 003E 0000:_strncat
            7E:
              06:
                33C0B9FFFFF2AEF7D12BF98BD1B9FFFF8BF78B7E:
                  0. 16 5AD9 0036 0000:_strcat
                8BDF33C0B9FFFFF2AEF7D18B56083BD173028BCA:
                  0. 23 B1FE 0043 0000:_strncpy
              08:
                33C0B9FFFFF2AEF7D12BF98BD1B9FFFF8BF78B7E:
                  0. 16 B90F 0036 0000:_strcat
                8BDF33C0B9FFFFF2AEF7D18B560A3BD173028BCA:
                  0. 23 80F0 0043 0000:_strncpy
          DBC47E:
            06C5760A8BC78B4E0E3BF777198BD183E10103F24E03FA:
              0. 1F E09F 003F 0000:_fmemcpy
            0AC57606:
              33C0B9FFFFF2AEF7D12BF98B560E3BCA72028B:
                0. 13 93E0 0033 0000:_fstrncmp
              8B4E0E33C0F3A674061BC0F51500008EDB5F5E:
                0. 02 1714 0022 0000:_fmemcmp
        A0....30E48AE032C08A0E....30ED03C13D03037D05B81600EB09:
          0. 0B C380 0035 0000:__dos_commit
          1. 0A EDB6 0037 0000:__dos_commit
        B419CD218AD00441A2....FEC2BE....B447CD2172:
          48BE....8BFE:
            0. 1A 0428 0070 0000:_getcwd
          4CBE....8BFE:
            0. 19 11CB 0076 0000:_getcwd
            1. 1C 4236 0075 0000:_getcwd
          50BE....8BFE:
            0. 1B 99A0 007B 0000:_getcwd
        B8:
          00578B5E:
            04CD2172:
              0FC47E0626890D26895502B80000EB0750E8:
                0. 00 0000 0029 0000:_getftime
              111E078B7E0626890D26895502B80000EB07:
                0. 02 F6B7 002B 0000:_getftime
            06CD2172:
              0FC47E0826890D26895502B80000EB0950:
                0. 00 0000 002B 0000:_getftime
              111E078B7E0826890D26895502B80000EB09:
                0. 01 FDA2 002D 0000:_getftime
          01578B5E:
            04:
              1E078B7E06268B0D268B5502CD217205B80000EB07:
                0. 02 F6B7 002B 0000:_setftime
              C47E06268B0D268B5502CD217205B80000EB0750E8:
                0. 00 0000 0029 0000:_setftime
            06:
              1E078B7E08268B0D268B5502CD217205B80000EB09:
                0. 01 FDA2 002D 0000:_setftime
              C47E08268B0D268B5502CD217205B80000EB0950:
                0. 00 0000 002B 0000:_setftime
          F03F5031C05050508B56:
            068B4604E8....50535152E8....E8:
              0. 00 0000 0028 0000:_atanf
            088B4606..........50535152:
              0. 00 0000 002E 0000:_atanf
        C4:
          5E:
            0426:
              C47704268B4402C4760403F026F64410:
                8475:
                  29FF760AFF:
                    0. 41 9BA8 006F 0000:?seekp@ostream@@QECAEV1@J@Z
                  2CFF760CFF:
                    0. 44 7301 0097 0000:?seekp@ostream@@QECAEV1@JW4seek_dir@ios@@@Z
                867403E9800026:
                  0. 58 C058 00AB 0000:?putback@istream@@QECAEV1@D@Z
              C74708000026C47704268B4402C4760403F026:
                837C1000:
                  0. 3C FDC8 00CA 0000:?do_ipfx@istream@@IECHH@Z
                8B540A26:
                  0. 2B 7114 00DD 0000:?eatwhite@istream@@IECXXZ (REF 00AF: .)
            0626:
              C47704268B4402C4760603F026F64410:
                8475:
                  29FF760CFF:
                    0. 40 3F45 0071 0000:?seekp@ostream@@RECAEV1@J@Z
                  2CFF760EFF:
                    0. 43 5252 009B 0000:?seekp@ostream@@RECAEV1@JW4seek_dir@ios@@@Z
                867403E9840026:
                  0. 57 786B 00AF 0000:?putback@istream@@RECAEV1@D@Z
              C74708000026C47704268B4402C4760603F026:
                837C1000:
                  0. 3B F06A 00D0 0000:?do_ipfx@istream@@JECHH@Z
                8B540A26:
                  0. 2B EDA8 00E1 0000:?eatwhite@istream@@JECXXZ (REF 00B1: .)
          76:
            04268A0C4680F92074F780F909720580F90D76ED33C0998BE8:
              0. 49 1952 0069 0000:_atol
            06268A0C4680F92074F780F909720580F90D76ED33C0998BE8:
              0. 49 51DE 0069 0000:_atol
          7E:
            0631C0B9FFFFF2AEF7D1494151:
              E8....83C40289C685F6740D:
                0. 08 BEC7 0033 0000:__nstrdup
              ..........83C40289C685F6:
                0. 0A 67B5 0035 0000:__nstrdup
            0833C0B9FFFFF2AEF7D1:
              2BF98BD1B9FFFF8BF7C47E048BDFF2:
                0. 19 DE69 0039 0000:_strcat
              8B560C3BD173028BCA2BD11EC47E04:
                0. 22 ECC5 0042 0000:_strncpy
            0A33C0B9FFFFF2AEF7D1:
              2BF98BD1B9FFFF8BF7C47E068BDFF2:
                0. 19 C5D9 0039 0000:_strcat
              8B560E3BD173028BCA2BD11EC47E06:
                0. 22 60A7 0042 0000:_strncpy
        E8....:
          1EB8....508B16....A1....BB100E31C9E8....501EB8:
            0. 00 0000 0037 (l)0000:_make_tz
          2E8B36....8BCEBD0200EB07908BF73BF174:
            0C8B3C8B1B3B:
              0. 12 7FAF 0032 0000:__memmax
            0E8B3C8B1B3B:
              0. 0D C295 002D 0000:__memavl
          8B16....A1....BB3C0031C9E8....:
            8B5E0489470631C050:
              0. 01 3E9B 0047 0000:__ftime
            C45E042689470631C0:
              0. 03 9EFD 0053 0000:__ftime
          B8....508B16....A1....BB100E31C9E8....50B8....50:
            0. 01 BBC9 0031 (l)0000:_make_tz
        FF76:
          04E8....89C6FF7606E8....89C783C40485F6741485FF7410:
            0. 03 4B25 003F (l)0000:?__match_name@@YAHPBD0@Z
          06..........89C6FF7608..........89C783C40485F67416:
            0. 06 38A2 0045 (l)0000:?__match_name@@ZAHPBD0@Z
          08:
            8B56068B4604E8....50535152E8....E8....83C40A5F5E:
              0. 02 5F98 0022 0000:_frexpf (REF 0016: _frexp)
              1. 02 5F98 0022 0000:_ldexpf (REF 0016: _ldexp)
            E8....83C40285C09985D27F247C053D0080731DFF76088B:
              0. 06 7EA5 0079 0000:_scalbf
          0A:
            8B56088B4606..........50535152:
              0. 00 0000 0028 0000:_ldexpf (REF 0018: _ldexp)
              1. 00 0000 0028 0000:_frexpf (REF 0018: _frexp)
            FF76088B56068B4604E8....50535152E8....E8....83C4:
              0. 05 48DB 0025 0000:_frexpf
            ..........83C40285C09985D27F2A7C053D00807323FF76:
              0. 07 48B4 008D 0000:_scalbf
          0CFF760A8B56088B4606..........50535152:
            0. 00 0000 002B 0000:_frexpf
        ..........:
          1EB8....508B16....A1....BB100E31C9:
            0. 03 6D73 003D (l)0000:_make_tz
          2E8B36....8BCEBD0200EB07908BF73BF174:
            0C8B3C8B:
              0. 14 A756 0034 0000:__memmax
            0E8B3C8B:
              0. 0F 31DE 002F 0000:__memavl
          8B16....A1....BB3C0031C9..........:
            8B5E068947:
              0. 04 19F3 004F 0000:__ftime
            C45E062689:
              0. 06 B609 005B 0000:__ftime
          B8....508B16....A1....BB100E31C9..........50:
            0. 01 BBC9 0037 (l)0000:_make_tz
      837E:
        060074:
          0F8B5E04C74702....83C3:
            0453E8....:
              31C050FF7604E8:
                0. 00 0000 003D 0000:??0ostream_withassign@@QAC@XZ
              8B5E048B77028B:
                0. 07 BD31 0034 0000:??0ostream@@IAC@XZ
            0653E8....:
              31C050FF7604E8:
                0. 00 0000 003D 0000:??0istream_withassign@@QAC@XZ
              8B5E048B77028B:
                0. 07 BD31 0039 0000:??0istream@@IAC@XZ
            2453E8....8B460483C00450:
              0. 01 3E9B 0055 0000:??0strstreambase@@IAC@XZ
            2853E8....8B460483C00450:
              0. 01 3E9B 0055 0000:??0fstreambase@@QAC@XZ
          148B5E04C74702....C747:
            08....83C30A53E8....31C0:
              0. 05 E025 0054 0000:??0iostream@@IAC@XZ (0021: 02)
              1. 05 E025 0047 0000:??0iostream_withassign@@QAC@XZ (0021: 00)
            26....83C32853E8....31C0:
              0. 05 E025 005B 0000:??0ostrstream@@QAC@XZ
            2A....83C3:
              2C53E8....31C0:
                0. 05 E025 0054 0000:??0ofstream@@QAC@XZ
              2E53E8....31C0:
                0. 05 E025 0054 0000:??0ifstream@@QAC@XZ
          198B5E04C74702....C747:
            26....C7472C....83C32E53:
              0. 01 3E9B 0065 0000:??0strstream@@QAC@XZ
            2A....C74730....83C33253:
              0. 01 3E9B 005E 0000:??0fstream@@QAC@XZ
        080074:
          0F8B5E04C74702....83C3:
            0453E8....8B5E048B77028B:
              0. 07 BD31 0047 0000:??0ostream@@QAC@PAVstreambuf@@@Z
            0653E8....8B5E048B77028B:
              0. 07 BD31 004E 0000:??0istream@@QAC@PAVstreambuf@@@Z
            2853E8....FF76068B460483:
              0. 04 D71C 0058 0000:??0fstreambase@@QAC@H@Z
          118B5E06C74702....83C3:
            0453..........:
              31C050FF76:
                0. 01 4E95 0041 0000:??0ostream_withassign@@RAC@XZ
              8B5E068B77:
                0. 09 5EFB 0036 0000:??0ostream@@JAC@XZ
            0653..........:
              31C050FF76:
                0. 01 4E95 0041 0000:??0istream_withassign@@RAC@XZ
              8B5E068B77:
                0. 09 5EFB 003B 0000:??0istream@@JAC@XZ
            2853..........8B460683C0:
              0. 02 A23A 005B 0000:??0strstreambase@@JAC@XZ (REF 0010: ??_8strstreambase@@7B@)
              1. 02 A23A 005B 0000:??0fstreambase@@RAC@XZ (REF 0010: ??_8fstreambase@@7B@)
          148B5E04C74702....C747:
            08....83C30A53E8....31C0:
              0. 05 E025 0067 0000:??0iostream@@QAC@PAVstreambuf@@@Z
            26....83C32A53E8....31C0:
              0. 0A 933B 0060 0000:??0istrstream@@QAC@PAD@Z
            2A....83C3:
              2C53E8....31C0:
                0. 08 C94A 0057 0000:??0ofstream@@QAC@H@Z
              2E53E8....31C0:
                0. 08 C94A 0057 0000:??0ifstream@@QAC@H@Z
          168B5E06C74702....C747:
            08....83C30A53:
              0. 06 C4AD 005A 0000:??0iostream@@JAC@XZ (0024: C7)
              1. 06 C4AD 004B 0000:??0iostream_withassign@@RAC@XZ (0024: 00)
            2A....83C3:
              2C53:
                0. 06 C4AD 0061 0000:??0ostrstream@@RAC@XZ (0031: 07)
                1. 06 C4AD 005A 0000:??0ofstream@@RAC@XZ (0031: CA)
              2E53:
                0. 06 C4AD 005A 0000:??0ifstream@@RAC@XZ
          198B5E04C74702....C7472A....C74730....83C33253:
            0. 01 3E9B 0061 0000:??0fstream@@QAC@H@Z
          1B8B5E06C74702....C7472A....C74730....83C33253:
            0. 00 0000 006B 0000:??0strstream@@RAC@XZ (0041: 07)
            1. 00 0000 0064 0000:??0fstream@@RAC@XZ (0041: CA)
          1DBA....B8....C45E0426895706268947048CC289D883:
            0. 05 32EF 0092 0000:??0ostream_withassign@@QEC@XZ (0051: 27)
            1. 05 32EF 0079 0000:??0ostream@@IEC@XZ (0051: 00)
            2. 05 44D6 0092 0000:??0istream_withassign@@QEC@XZ (0057: 01)
            3. 05 44D6 007F 0000:??0istream@@IEC@XZ (0057: 00)
          2BBA....B8....C45E042689570626894704BA....B8:
            0. 00 0000 00CD 0000:??0iostream@@IEC@XZ (0097: 12)
            1. 00 0000 00CD 0000:??0ifstream@@QEC@XZ (0097: 4A)
            2. 00 0000 00D7 0000:??0ostrstream@@QEC@XZ (0097: 00)
            3. 00 0000 00CD 0000:??0ofstream@@QEC@XZ (0097: 48)
            4. 00 0000 00AE 0000:??0iostream_withassign@@QEC@XZ
          39BA....B8....C45E042689570626894704BA....B8:
            0. 00 0000 00F3 0000:??0strstream@@QEC@XZ (00C5: 00)
            1. 00 0000 00E9 0000:??0fstream@@QEC@XZ (00C5: 40)
        0A0074:
          118B5E06C74702....83C3:
            0453..........8B5E068B77:
              0. 09 5EFB 004B 0000:??0ostream@@RAC@PAVstreambuf@@@Z
            0653..........8B5E068B77:
              0. 09 5EFB 0052 0000:??0istream@@RAC@PAVstreambuf@@@Z
            2853..........FF76088B46:
              0. 05 33C3 005E 0000:??0fstreambase@@RAC@H@Z
          148B5E04C74702....C74726....83C32A53E8....31C0:
            0. 0C BA03 0062 0000:??0istrstream@@QAC@PADH@Z
          168B5E06C74702....C747:
            08....83C30A53:
              0. 06 C4AD 006F 0000:??0iostream@@RAC@PAVstreambuf@@@Z
            2A....83C3:
              2C53:
                0. 09 2319 005D 0000:??0ofstream@@RAC@H@Z
              2E53:
                0. 09 2319 005D 0000:??0ifstream@@RAC@H@Z
                1. 0B A51E 0066 0000:??0istrstream@@RAC@PAD@Z
          1B8B5E06C74702....C7472A....C74730....83C33253:
            0. 00 0000 0067 0000:??0fstream@@RAC@H@Z
          1FBA....B8....C45E0626895706268947048CC289D883:
            0. 04 07B3 009A 0000:??0ostream_withassign@@REC@XZ (0054: 02)
            1. 04 07B3 007D 0000:??0ostream@@JEC@XZ (0054: 00)
            2. 04 BF06 009A 0000:??0istream_withassign@@REC@XZ (005A: 37)
            3. 04 BF06 0083 0000:??0istream@@JEC@XZ (005A: 00)
          2BBA....B8....C45E042689570626894704BA....B8:
            0. 00 0000 00CF 0000:??0ofstream@@QEC@H@Z (0099: 48)
            1. 00 0000 00CF 0000:??0ifstream@@QEC@H@Z (0099: 4A)
          2DBA....B8....C45E062689570626894704BA....B8:
            0. 00 0000 00D9 0000:??0iostream@@JEC@XZ (009D: 12)
            1. 00 0000 00D9 0000:??0ifstream@@REC@XZ (009D: 4A)
            2. 00 0000 00E3 0000:??0ostrstream@@REC@XZ (009D: 00)
            3. 00 0000 00D9 0000:??0ofstream@@REC@XZ (009D: 48)
            4. 00 0000 00B6 0000:??0iostream_withassign@@REC@XZ
          39BA....B8....C45E042689570626894704BA....B8:
            0. 00 0000 00EB 0000:??0fstream@@QEC@H@Z
          3BBA....B8....C45E062689570626894704BA....B8:
            0. 00 0000 00FF 0000:??0strstream@@REC@XZ (00CF: 00)
            1. 00 0000 00F5 0000:??0fstream@@REC@XZ (00CF: 40)
        0C0074:
          0F8B5E04C74702....83C3:
            0653E8....8B5E048B77028B:
              0. 07 BD31 0076 0000:??0istream@@QAC@PAVstreambuf@@HPAVostream@@@Z
            2453E8....FF760AFF7608FF:
              0. 0A 5094 005E 0000:??0strstreambase@@IAC@PADH0@Z
            2853E8....:
              8B460483C00450:
                0. 01 3E9B 0064 0000:??0fstreambase@@QAC@PBDHH@Z
              FF760AFF7608FF:
                0. 0A 5094 005E 0000:??0fstreambase@@QAC@HPADH@Z
          148B5E04C74702....C7472A....83C3:
            2C53E8....31C0:
              0. 12 0656 0061 0000:??0ofstream@@QAC@PBDHH@Z
              1. 0E DF8A 005D 0000:??0ofstream@@QAC@HPADH@Z
            2E53E8....31C0:
              0. 12 0180 0061 0000:??0ifstream@@QAC@PBDHH@Z
              1. 0E DF8A 005D 0000:??0ifstream@@QAC@HPADH@Z
          168B5E06C74702....C7472A....83C32E53:
            0. 0D DBF7 0068 0000:??0istrstream@@RAC@PADH@Z
          198B5E04C74702....C7472A....C74730....83C33253:
            0. 01 3E9B 0067 0000:??0fstream@@QAC@HPADH@Z (REF 0033: ??0fstreambase@@QAC@HPADH@Z)
            1. 01 3E9B 0067 0000:??0fstream@@QAC@PBDHH@Z (REF 0033: ??0fstreambase@@QAC@PBDHH@Z)
          2BBA....B8....C45E042689570626894704BA....B8:
            0. 00 0000 00E1 0000:??0istrstream@@QEC@PED@Z
          2DBA....B8....C45E062689570626894704BA....B8:
            0. 00 0000 00DB 0000:??0ofstream@@REC@H@Z (009F: 48)
            1. 00 0000 00DB 0000:??0ifstream@@REC@H@Z (009F: 4A)
          3BBA....B8....C45E062689570626894704BA....B8:
            0. 00 0000 00F7 0000:??0fstream@@REC@H@Z
        0E0074:
          118B5E06C74702....83C3:
            0653..........8B5E068B77:
              0. 09 5EFB 007E 0000:??0istream@@RAC@PAVstreambuf@@HPAVostream@@@Z
            2853..........:
              8B460683C0:
                0. 02 A23A 006C 0000:??0fstreambase@@RAC@PBDHH@Z
              FF760CFF76:
                0. 0B 77B9 0064 0000:??0strstreambase@@JAC@PADH0@Z (REF 0010: ??_8strstreambase@@7B@)
                1. 0B 77B9 0064 0000:??0fstreambase@@RAC@HPADH@Z (REF 0010: ??_8fstreambase@@7B@)
          168B5E06C74702....C7472A....83C3:
            2C53:
              0. 13 18AC 0067 0000:??0ofstream@@RAC@PBDHH@Z
              1. 0F F8AB 0063 0000:??0ofstream@@RAC@HPADH@Z
            2E53:
              0. 13 C826 0067 0000:??0ifstream@@RAC@PBDHH@Z
              1. 0F F8AB 0063 0000:??0ifstream@@RAC@HPADH@Z
          1B8B5E06C74702....C7472A....C74730....83C33253:
            0. 00 0000 006D 0000:??0fstream@@RAC@HPADH@Z (REF 0035: ??0fstreambase@@RAC@HPADH@Z)
            1. 00 0000 006D 0000:??0fstream@@RAC@PBDHH@Z (REF 0035: ??0fstreambase@@RAC@PBDHH@Z)
          2BBA....B8....C45E042689570626894704BA....B8:
            0. 00 0000 00E3 0000:??0istrstream@@QEC@PEDH@Z
          2DBA....B8....C45E062689570626894704BA....B8:
            0. 00 0000 00ED 0000:??0istrstream@@REC@PED@Z
        100074:
          2BBA....B8....C45E042689570626894704BA....B8:
            0. 00 0000 00DD 0000:??0ofstream@@QEC@PFDHH@Z (00A7: 48)
            1. 00 0000 00D9 0000:??0ofstream@@QEC@HPEDH@Z (00A3: 48)
            2. 00 0000 00DD 0000:??0ifstream@@QEC@PFDHH@Z (00A7: 4A)
            3. 00 0000 00D9 0000:??0ifstream@@QEC@HPEDH@Z (00A3: 4A)
          2DBA....B8....C45E062689570626894704BA....B8:
            0. 00 0000 00EF 0000:??0istrstream@@REC@PEDH@Z
          39BA....B8....C45E042689570626894704BA....B8:
            0. 00 0000 00F5 0000:??0fstream@@QEC@HPEDH@Z (REF 0059: ??0fstreambase@@QEC@HPEDH@Z)
            1. 00 0000 00F5 0000:??0fstream@@QEC@PFDHH@Z (REF 0059: ??0fstreambase@@QEC@PFDHH@Z)
        120074:
          2DBA....B8....C45E062689570626894704BA....B8:
            0. 00 0000 00E9 0000:??0ofstream@@REC@PFDHH@Z (00AD: 48)
            1. 00 0000 00E5 0000:??0ofstream@@REC@HPEDH@Z (00A9: 48)
            2. 00 0000 00E9 0000:??0ifstream@@REC@PFDHH@Z (00AD: 4A)
            3. 00 0000 00E5 0000:??0ifstream@@REC@HPEDH@Z (00A9: 4A)
          3BBA....B8....C45E062689570626894704BA....B8:
            0. 00 0000 0101 0000:??0fstream@@REC@HPEDH@Z (REF 005B: ??0fstreambase@@REC@HPEDH@Z)
            1. 00 0000 0101 0000:??0fstream@@REC@PFDHH@Z (REF 005B: ??0fstreambase@@REC@PFDHH@Z)
      8A46:
        04:
          8B5E068B37FF0788048B460430E45E5DC3:
            0. 00 0000 0018 (l)0000:__sprintf
          C45E06268B3726FF07268E47022688048B460430E45E5DC3:
            0. 00 0000 001F (l)0000:__sprintf
        06:
          8B5E088B37FF0788048B460630E45E5DCB:
            0. 00 0000 0018 (l)0000:__sprintf
          C45E08268B3726FF07268E47022688048B460630E45E5DCB:
            0. 00 0000 001F (l)0000:__sprintf
      8B:
        36....833E....0075:
          03E8....8B440C89440AC70400008BDE83C3:
            0. 16 44D0 003E 0000:?__eh_rethrow@@YAXXZ
          05..........8B440E89440CC70400008BDE:
            0. 1A BC09 0045 0000:?__eh_rethrow@@ZAXXZ
        46:
          048BD88B77028B740203F3C74402....C707....5E5DC20200:
            0. 00 0000 001F 0000:??1istream@@UAC@XZ
          06:
            0B46047417C45E0426C47704268B44028B56068BF303F083C6:
              0. 1A EEF8 003A (!)0000:?
            8BD88B77028B740203F3C74402....C707....5E5DCA0200:
              0. 00 0000 001F 0000:??1istream@@VAC@XZ
          080B46067417C45E0626C47704268B44028B56088BF303F083C6:
            0. 1A 2FB7 003A (!)0000:?
          0E0B460C74108B46120B461074088B56128B4610EB068B560E8B:
            0. 4A A260 006A 0000:?setg@streambuf@@IECXPED00@Z
          100B460E74108B46140B461274088B56148B4612EB068B56108B:
            0. 4A F03B 006A 0000:?setg@streambuf@@JECXPED00@Z
        4E:
          04:
            83F9FF75048BC1EB0F8AC1C45E0626FF0F26C437268804985E:
              0. 02 5F98 0022 (l)0000:_sungetc
            8B:
              76068B5608:
                85D2740B837E0A0074058B460AEB028BC28BD9:
                  0. 20 95B9 0040 0000:?setg@streambuf@@IACXPAD00@Z
                8BD989570C89570A85D2740C85F674083BF272:
                  0. 0F 8E4B 002F 0000:?setp@streambuf@@IACXPAD0@Z
              D18BD9803F00741B8BD98A079889C6F684....:
                01740383C0:
                  0. 10 88F8 0030 0000:_strlwr (REF 0019: .)
                02740383C0:
                  0. 10 9F4A 0030 0000:_strupr (REF 0019: .)
              D9C707....8B76068B440289470289D85E5DC3:
                0. 00 0000 001B 0000:??0Type_info@@AAA@ABV0@@Z
            C45E0626F6470A32750F83F9FF740A268B4708260B47067505:
              0. 30 84EC 0050 0000:_ungetc
          06:
            83F9FF75048BC1EB0F8AC1C45E0826FF0F26C437268804985E:
              0. 02 1714 0022 (l)0000:_sungetc
            8B:
              76088B560A:
                85D2740B837E0C0074058B460CEB028BC28BD9:
                  0. 20 577F 0040 0000:?setg@streambuf@@JACXPAD00@Z
                8BD989570C89570A85D2740C85F674083BF272:
                  0. 0F 4C8D 002F 0000:?setp@streambuf@@JACXPAD0@Z
              D18BD9803F00741B8BD98A079889C6F684....:
                01740383C0:
                  0. 10 C074 0030 0000:_strlwr (REF 0019: .)
                02740383C0:
                  0. 10 D7C6 0030 0000:_strupr (REF 0019: .)
              D9:
                837F020074168BD9FF4F028A46048B37FF0788048B4604:
                  0. 0B FE0B 002B (l)0000:___snprintf
                C707....8B76088B440289470289D85E5DCB:
                  0. 00 0000 001B 0000:??0Type_info@@BAA@ABV0@@Z
            C45E0826F6470A32750F83F9FF740A268B4708260B47067505:
              0. 30 BE28 0050 0000:_ungetc
          088BD9837F020074168BD9FF4F028A46068B37FF0788048B4606:
            0. 0B 5A59 002B (l)0000:___snprintf
          0AF6C108740580C902EB0B8AC1240F3C02750380C910C45E0426:
            0. 22 A3C6 00A9 0000:?open@fstreambase@@QECXPFDHH@Z
          0CF6C108740580C902EB0B8AC1240F3C02750380C910C45E0626:
            0. 21 A11B 00B1 0000:?open@fstreambase@@RECXPFDHH@Z
        56:
          048B4E068BF18BDA803F0074238BD9803F0074128BD98A078BDA:
            0. 1B 5213 003B 0000:_strpbrk
          068B:
            460483C0085250E8....89D109C1741F31C050C45E0426C4:
              0. 13 4015 005A 0000:?close@fstreambase@@QECXXZ
            4E088BF18BDA803F0074238BD9803F0074128BD98A078BDA:
              0. 1B 1625 003B 0000:_strpbrk
          088B460683C0085250..........89D109C1742131C050C45E06:
            0. 14 E9D2 0060 0000:?close@fstreambase@@RECXXZ
          0E8B460CC45E042689571626894714268957122689471089D109:
            0. 2C CB0F 004C 0000:?setp@streambuf@@IECXPED0@Z
          108B460EC45E062689571626894714268957122689471089D109:
            0. 2C 9FA3 004C 0000:?setp@streambuf@@JECXPED0@Z
        5E:
          048B:
            37:
              803C0074098B37FF078A0498EB03B8FFFF5E5DC3:
                0. 00 0000 001D (l)0000:_sgetc
              D1E68B84....0906....8B1FD1E3FFB7....E8....31C0:
                0. 03 2CC2 0023 0000:_matherr
            470AA880740724FD0C0189470A8B5E048A470A24313C0174:
              0. 2D 1E46 00E3 0000:__fillbuf
            76068BC3B9E80399F7F9043088048BC399F7F989D389D0B9:
              0. 31 A0B2 0051 (l)0000:DECPUT1
            77028B740203F3F644088675138B440685C0740450E8:
              0. 0F EE3F 002F 0000:?do_opfx@ostream@@IACHXZ
          06:
            8A1F8B7604881C30FFF687....0474098B5E068A4701884401:
              0. 03 2CC2 0023 0000:__mbccpy
            8B:
              37:
                803C0074098B37FF078A0498EB03B8FFFF5E5DCB:
                  0. 00 0000 001D (l)0000:_sgetc
                D1E68B84....0906....8B1FD1E3FFB7:
                  0. 05 93A3 0025 0000:_matherr
              470AA880740724FD0C0189470A8B5E068A470A24313C0174:
                0. 2C A339 00ED 0000:__fillbuf
              77028B740203F3F644088675158B440685C0740650:
                0. 00 0000 0031 0000:?do_opfx@ostream@@JACHXZ
          08:
            368B37837E06007908F75E06B02D98EB03B82B003688044681:
              0. 93 A6A4 00B3 (l)0000:__DOEXPONENT
            8A1F8B7606881C30FFF687....0474098B5E088A4701884401:
              0. 03 644E 0023 0000:__mbccpy
            8B37837E06007908F75E06B02D98EB03B82B00880446817E06:
              0. 8B 1EAF 00AB (l)0000:__DOEXPONENT
        76:
          04:
            56E8....83C40285C074:
              0B81C6A10081FE7F837201468BC65E:
                0. 02 5F98 0022 0000:__mbctokata
              1181FE9383770B81FE7F8372014E81:
                0. 08 DA1F 0028 0000:__mbctohira
            803C0074:
              128BDE468A079850E8....83C402803C0075EE5E5D:
                0. 01 EF04 0021 0000:_disp_puts
              1B8A049850E8....83C40283F8FF7506B8FFFF5E5D:
                0. 0C 415B 002C 0000:__cputs
              1EB8....508A049850E8....83C40483F8FF7505BE:
                0. 0B A7A4 0046 0000:_puts
            833E....0074:
              388B56068AD632F685D2742D8BCE803C007421:
                0. 2B 9C04 0053 0000:__mbsset
              7485F6750B8B36....833E....007427FF7606:
                0. 02 26E3 008F 0000:__mbstok
            85F6:
              74:
                0956E8....89C683C4028BC65E5DC20200:
                  0. 00 0000 001B (l)0000:STR_DUP
                0B56..........89C683C4028BC65E5DC20200:
                  0. 00 0000 001D (l)0000:STR_DUP
                1156E8....F6460601740756E8....83C4028BC65E5D:
                  0. 03 8E1E 0023 0000:??_Gfilebuf@@UACPAXI@Z (REF 000D: ??1filebuf@@UAC@XZ)
                  1. 03 8E1E 0023 0000:??_Gfstreambase@@UACPAXI@Z (REF 000D: ??_Dfstreambase@@UACXXZ)
                  2. 03 8E1E 0023 0000:??_Gifstream@@UACPAXI@Z (REF 000D: ??_Difstream@@UACXXZ)
                  3. 03 8E1E 0023 0000:??_Gofstream@@UACPAXI@Z (REF 000D: ??_Dofstream@@UACXXZ)
                  4. 03 8E1E 0023 0000:??_Gfstream@@UACPAXI@Z (REF 000D: ??_Dfstream@@UACXXZ)
                  5. 03 8E1E 0023 0000:??_Gios@@UACPAXI@Z (REF 000D: ??1ios@@UAC@XZ)
                  6. 03 8E1E 0023 0000:??_Giostream@@UACPAXI@Z (REF 000D: ??_Diostream@@UACXXZ)
                  7. 03 8E1E 0023 0000:??_Giostream_withassign@@UACPAXI@Z (REF 000D: ??_Diostream_withassign@@UACXXZ)
                  8. 03 8E1E 0023 0000:??_Gistream@@UACPAXI@Z (REF 000D: ??_Distream@@UACXXZ)
                  9. 03 8E1E 0023 0000:??_Gistream_withassign@@UACPAXI@Z (REF 000D: ??_Distream_withassign@@UACXXZ)
                  10. 03 8E1E 0023 0000:??_Gostream@@UACPAXI@Z (REF 000D: ??_Dostream@@UACXXZ)
                  11. 03 8E1E 0023 0000:??_Gostream_withassign@@UACPAXI@Z (REF 000D: ??_Dostream_withassign@@UACXXZ)
                  12. 03 8E1E 0023 0000:??_Gstdiobuf@@UACPAXI@Z (REF 000D: ??1stdiobuf@@UAC@XZ)
                  13. 03 8E1E 0023 0000:??_Gstdiostream@@UACPAXI@Z (REF 000D: ??1stdiostream@@UAC@XZ)
                  14. 03 8E1E 0023 0000:??_Gstreambuf@@UACPAXI@Z (REF 000D: ??1streambuf@@UAC@XZ)
                  15. 03 8E1E 0023 0000:??_Gstrstreambuf@@UACPAXI@Z (REF 000D: ??1strstreambuf@@UAC@XZ)
                  16. 03 8E1E 0023 0000:??_Gstrstreambase@@UACPAXI@Z (REF 000D: ??_Dstrstreambase@@UACXXZ)
                  17. 03 8E1E 0023 0000:??_Gistrstream@@UACPAXI@Z (REF 000D: ??_Distrstream@@UACXXZ)
                  18. 03 8E1E 0023 0000:??_Gostrstream@@UACPAXI@Z (REF 000D: ??_Dostrstream@@UACXXZ)
                  19. 03 8E1E 0023 0000:??_Gstrstream@@UACPAXI@Z (REF 000D: ??_Dstrstream@@UACXXZ)
                1456E8....83C402F6460601740756E8....83C4028B:
                  0. 06 077A 0026 0000:??_GType_info@@UACPAXI@Z
                1A56E8....83C40285C0740F56B8....50B8....50E8:
                  0. 00 0000 0041 0000:_perror
              750531C05E5DC3B80300508B440CB90300F7E105....50:
                0. 01 BBC9 009B 0000:_asctime
            8B:
              44123B4414730C8B5C128A0730E45E5DC20200837C060074:
                0. 25 F961 007B 0000:?underflow@strstreambuf@@UACHXZ
              460685F67503E8....85C07503E8....8B8CF00089CA85C9:
                0. 3D 3884 005D (l)0000:?pop_exception@@YAPAUEhstack@@PAUStaticvar@@PAU1@@Z
              4E0683F9017C06390E....7D08B8....5E5DC20400394C20:
                0. 0A A554 004A (!)0000:?
              5E:
                04803F0074488A0498A880743BFF7604FF7604E8....83:
                  0. 04 E2B8 006E 0000:_unmangle_ident
                068B4E08E32CB441B65A90AC8A17433AC27504E2F6EB1B:
                  0. 29 52D6 0049 0000:_memicmp
            B8FFFF837C1A0074298B440C85C074072B440A7410EB0439E4:
              0. 1E 074D 003E 0000:?detach@filebuf@@QACHXZ
            C606....0085F6741B803C007416B8....5056B8....50E8:
              0. 00 0000 004E 0000:__strerror
            C704....:
              837C:
                02007409FF7406E8....83C4025E5DC20200:
                  0. 00 0000 001F 0000:??1streambuf@@UAC@XZ
                1800740656E8....EB08B8FFFF5056E8....56:
                  0. 01 3E9B 0028 0000:??1filebuf@@UAC@XZ
              8A441A24033C01751A837C1800740BFF7406FF5418:
                0. 09 EECB 0037 0000:??1strstreambuf@@UAC@XZ
              8BC683C02250E8....56E8....5E5DC20200:
                0. 00 0000 001D 0000:??1stdiostream@@UAC@XZ
              B8FFFF5056E8....56E8....5E5DC20200:
                0. 00 0000 001C 0000:??1stdiobuf@@UAC@XZ
              C7441E0000FF760656E8....8BC65E5DC20400:
                0. 00 0000 001E 0000:??0ios@@QAC@PAVstreambuf@@@Z
            F64406087429837C0400740FFF7404E8....806406F783C402:
              0. 0C 5803 004F 0000:_FREEBUF
          06:
            56..........83C40285C074:
              0B81C6A10081FE7F837201468B:
                0. 04 3504 0024 0000:__mbctokata
              1181FE9383770B81FE7F837201:
                0. 0A 332A 002A 0000:__mbctohira
            803C0074:
              148BDE468A079850..........83C402803C0075EC:
                0. 03 644E 0023 0000:_disp_puts
              1D8A049850..........83C40283F8FF7506B8FFFF:
                0. 0E ED7F 002E 0000:__cputs
              20B8....508A049850..........83C40483F8FF75:
                0. 0D D7D2 004A 0000:_puts
            833E....0074:
              388B56088AD632F685D2742D8BCE803C007421:
                0. 2A 5B3E 0055 0000:__mbsset
              7885F6750B8B36....833E....007429FF7608:
                0. 01 CBC7 0095 0000:__mbstok
            85F6:
              74:
                1556..........F6460801740956..........83C402:
                  0. 07 A537 0027 0000:??_Gfilebuf@@VACPAXI@Z (REF 000D: ??1filebuf@@VAC@XZ)
                  1. 07 A537 0027 0000:??_Gfstreambase@@VACPAXI@Z (REF 000D: ??_Dfstreambase@@VACXXZ)
                  2. 07 A537 0027 0000:??_Gifstream@@VACPAXI@Z (REF 000D: ??_Difstream@@VACXXZ)
                  3. 07 A537 0027 0000:??_Gofstream@@VACPAXI@Z (REF 000D: ??_Dofstream@@VACXXZ)
                  4. 07 A537 0027 0000:??_Gfstream@@VACPAXI@Z (REF 000D: ??_Dfstream@@VACXXZ)
                  5. 07 A537 0027 0000:??_Gios@@VACPAXI@Z (REF 000D: ??1ios@@VAC@XZ)
                  6. 07 A537 0027 0000:??_Giostream@@VACPAXI@Z (REF 000D: ??_Diostream@@VACXXZ)
                  7. 07 A537 0027 0000:??_Giostream_withassign@@VACPAXI@Z (REF 000D: ??_Diostream_withassign@@VACXXZ)
                  8. 07 A537 0027 0000:??_Gistream@@VACPAXI@Z (REF 000D: ??_Distream@@VACXXZ)
                  9. 07 A537 0027 0000:??_Gistream_withassign@@VACPAXI@Z (REF 000D: ??_Distream_withassign@@VACXXZ)
                  10. 07 A537 0027 0000:??_Gostream@@VACPAXI@Z (REF 000D: ??_Dostream@@VACXXZ)
                  11. 07 A537 0027 0000:??_Gostream_withassign@@VACPAXI@Z (REF 000D: ??_Dostream_withassign@@VACXXZ)
                  12. 07 A537 0027 0000:??_Gstdiobuf@@VACPAXI@Z (REF 000D: ??1stdiobuf@@VAC@XZ)
                  13. 07 A537 0027 0000:??_Gstdiostream@@VACPAXI@Z (REF 000D: ??1stdiostream@@VAC@XZ)
                  14. 07 A537 0027 0000:??_Gstreambuf@@VACPAXI@Z (REF 000D: ??1streambuf@@VAC@XZ)
                  15. 07 A537 0027 0000:??_Gstrstreambuf@@VACPAXI@Z (REF 000D: ??1strstreambuf@@VAC@XZ)
                  16. 07 A537 0027 0000:??_Gstrstreambase@@VACPAXI@Z (REF 000D: ??_Dstrstreambase@@VACXXZ)
                  17. 07 A537 0027 0000:??_Gistrstream@@VACPAXI@Z (REF 000D: ??_Distrstream@@VACXXZ)
                  18. 07 A537 0027 0000:??_Gostrstream@@VACPAXI@Z (REF 000D: ??_Dostrstream@@VACXXZ)
                  19. 07 A537 0027 0000:??_Gstrstream@@VACPAXI@Z (REF 000D: ??_Dstrstream@@VACXXZ)
                1856..........83C402F6460801740956:
                  0. 0A 0C18 002A 0000:??_GType_info@@VACPAXI@Z
                1E56..........83C40285C0741156B8....50B8:
                  0. 01 FDA2 0049 0000:_perror
              750531C05E5DCBB80300508B440CB90300F7E105....50:
                0. 01 BBC9 009F 0000:_asctime
            8B:
              0483C0023B44027C:
                218944028B4402D1E050FF7404E8:
                  0. 2D 300B 004D (l)0000:ADDARGP
                238944028B4402D1E050FF7404:
                  0. 00 0000 004F (l)0000:ADDARGP
              44123B4414730C8B5C128A0730E45E5DCA0200837C060074:
                0. 24 AD6E 007F 0000:?underflow@strstreambuf@@VACHXZ
              460885F67505..........85C07505..........8B8C0401:
                0. 41 1083 0061 (l)0000:?pop_exception@@ZAPAUEhstack@@PAUStaticvar@@PAU1@@Z
              4E:
                0431D285F674228BD98A0784C0741A89C330FFF687:
                  0. 1A F047 003A 0000:__mbsnbcnt
                0883:
                  3E....0074:
                    4C8B560485C974308A0484C0742A89C3:
                      0. 04 B0AE 0070 0000:__mbsncpy
                    528B560485C974368A0484C0743089C3:
                      0. 04 B0AE 0076 0000:__mbsnbcpy
                  F9017C06390E....7D08B8....5E5DCA0400394C20:
                    0. 09 9E2F 004C (!)0000:?
              5E:
                06803F00744C8A0498A880743FFF7606FF7606:
                  0. 00 0000 0072 0000:_unmangle_ident
                088B4E0AE32CB441B65A90AC8A17433AC27504E2F6EB1B:
                  0. 29 3333 0049 0000:_memicmp
            B8FFFF837C1A0074298B440C85C074072B440A7410EB0439E4:
              0. 1E 1C60 003E 0000:?detach@filebuf@@RACHXZ
            C606....0085F6741F803C00741AB8....5056B8....50:
              0. 00 0000 0058 0000:__strerror
            C704....:
              837C:
                0200740BFF7406..........83C4025E5DCA02:
                  0. 01 78F0 0021 0000:??1streambuf@@VAC@XZ
                1800740856..........EB0AB8FFFF5056:
                  0. 00 0000 002E 0000:??1filebuf@@VAC@XZ
              8A441E24033C01751E8B441C0B441A740BFF7406FF:
                0. 0A 37DD 003D 0000:??1strstreambuf@@VAC@XZ
              8BC683C02250..........56..........5E5DCA02:
                0. 01 78F0 0021 0000:??1stdiostream@@VAC@XZ
              B8FFFF5056..........56..........5E5DCA0200:
                0. 00 0000 0020 0000:??1stdiobuf@@VAC@XZ
              C7441E0000FF760856..........8BC65E5DCA0400:
                0. 00 0000 0020 0000:??0ios@@RAC@PAVstreambuf@@@Z
            F6440608742D837C04007411FF7404..........806406F783:
              0. 0D 32CB 0053 0000:_FREEBUF
          08:
            368B0483C002363B44027C:
              3136894402368B4402D1E0D1E050:
                0. 09 B84C 0068 (l)0000:ADDARGP
              3336894402368B4402D1E0D1E050:
                0. 08 C103 006A (l)0000:ADDARGP
            83FE017C063936....7D0A8CDAB8....5E5DC20600C45E0426:
              0. 0B EC02 0055 (!)0000:?
            8B4E:
              0631D285F674228BD98A0784C0741A89C330FFF687:
                0. 1A CEF2 003A 0000:__mbsnbcnt
              0A833E....0074:
                4C8B560685C974308A0484C0742A89C3:
                  0. 04 B0AE 0072 0000:__mbsncpy
                528B560685C974368A0484C0743089C3:
                  0. 04 B0AE 0078 0000:__mbsnbcpy
            C45E04268B4718262B47143BC67C2656FF760CFF760AC45E04:
              0. 09 4797 0053 0000:?sputn@streambuf@@QECHPFDH@Z
            F6440683740756E8....83C402FF7604FF760656E8....5E5D:
              0. 01 EF04 0021 0000:_freopen
          0A:
            83FE017C063936....7D0A8CDAB8....5E5DCA0600C45E0626:
              0. 0A 0BA1 0057 (!)0000:?
            C45E06268B4718262B47143BC67C2856FF760EFF760CC45E06:
              0. 08 CC19 0055 0000:?sputn@streambuf@@RECHPFDH@Z
            F6440683740956..........83C402FF7606FF760856:
              0. 00 0000 0025 0000:_freopen
          0C:
            8B4E0E85C9742449C45E08268A17FF4608C45E04FF46042688:
              0. 18 C260 0038 0000:_memccpy
            C45E0426C7472C000085F67510FF7610FF760EE8....89C683:
              0. 2D 62C7 00E6 0000:?init@strstreambuf@@AECXPEDH0@Z
          0E:
            8B4E1085C9742449C45E0A268A17FF460AC45E06FF46062688:
              0. 18 AE5A 0038 0000:_memccpy
            C45E0626C74730000085F67512FF7612FF7610..........89:
              0. 2E 37F3 00FE 0000:?init@strstreambuf@@BECXPEDH0@Z
      8C:
        D88EC08B5E:
          048B7606F6C3018BCB740A8A044688074384C074158A:
            0. 1F 1F07 003F 0000:_strcpy
          068B76:
            048A178A043AC2753984C074308A57018A4401:
              0. 38 8FD3 0058 0000:_strcmp
            08F6C3018BCB740A8A044688074384C074158A:
              0. 1F 3F5D 003F 0000:_strcpy
          088B76068A178A043AC2753984C074308A57018A4401:
            0. 38 C75F 0058 0000:_strcmp
        D9C45E:
          08C57604268A178A043AC2753C84C07433268A57018A4401:
            0. 3C A163 005C 0000:_strcmp
          0AC57606268A178A043AC2753C84C07433268A57018A4401:
            0. 3C E9EF 005C 0000:_strcmp
        DAC45E:
          04C57608F6C3018BCB740B8A04462688074384C074168A04:
            0. 24 74C6 0044 0000:_strcpy
          06C5760AF6C3018BCB740B8A04462688074384C074168A04:
            0. 24 2CE7 0044 0000:_strcpy
      B4368A56:
        04CD2183F8FF74:
          108B76068914895C02894404894C06EB0D:
            0. 05 59FB 0032 0000:__dos_getdiskfree
          121EC576068914895C02894404894C061F:
            0. 07 9BD9 0034 0000:__dos_getdiskfree
        06CD2183F8FF74:
          108B76088914895C02894404894C06EB0F:
            0. 04 5379 0034 0000:__dos_getdiskfree
          121EC576088914895C02894404894C061F:
            0. 06 C8B7 0036 0000:__dos_getdiskfree
      BA....B8....C45E:
        0426:
          8957:
            02268907C47608268B5406268B4404C4:
              0. 11 EEB5 0031 0000:??0Type_info@@AEA@AFV0@@Z
            0C2689470ABA....B8....26C4770426:
              0. 11 E41A 0058 0000:??1iostream@@UEC@XZ (0018: E8)
              1. 11 E41A 004C 0000:??1iostream_withassign@@UEC@XZ (0018: C2)
            3E2689473CBA....B8....26C4770426:
              0. 11 E41A 0058 0000:??1ostrstream@@UEC@XZ (REF 0005: ??_Qostrstream@@6Fostream@@@)
              1. 11 E41A 0058 0000:??1istrstream@@UEC@XZ (REF 0005: ??_Qistrstream@@6Fistream@@@)
            4226894740BA....B8....26C4770426:
              0. 11 E41A 0058 0000:??1ofstream@@UEC@XZ (REF 0005: ??_Qofstream@@6Fostream@@@)
              1. 11 E41A 0058 0000:??1ifstream@@UEC@XZ (REF 0005: ??_Qifstream@@6Fistream@@@)
            4826894746BA....B8....2689573E26:
              0. 04 73A7 0066 0000:??1strstream@@UEC@XZ
            4C2689474ABA....B8....2689574226:
              0. 04 17FE 0066 0000:??1fstream@@UEC@XZ
          C47704268B4C02C4760403F1268954062689:
            0. 03 6ADE 0037 0000:??1istream@@UEC@XZ (0013: 00)
            1. 03 6ADE 0043 0000:??1strstreambase@@MEC@XZ (0013: 83) (REF 0005: ??_Qstrstreambase@@6Fios@@@)
            2. 03 6ADE 0043 0000:??1fstreambase@@UEC@XZ (0013: 83) (REF 0005: ??_Qfstreambase@@6Fios@@@)
            3. 03 6ADE 003E 0000:??1ostream_withassign@@UEC@XZ (0013: E8) (REF 0005: ??_Qostream_withassign@@6Fios@@ostream@@@)
            4. 03 6ADE 003E 0000:??1ostream@@UEC@XZ (0013: E8) (REF 0005: ??_Qostream@@6Fios@@@)
            5. 03 6ADE 003E 0000:??1istream_withassign@@UEC@XZ (0013: E8) (REF 0005: ??_Qistream_withassign@@6Fios@@istream@@@)
        0626:
          8957:
            02268907C4760A268B5406268B4404C4:
              0. 11 972D 0031 0000:??0Type_info@@BEA@AFV0@@Z
            0C2689470ABA....B8....26C4770426:
              0. 11 5F18 005C 0000:??1iostream@@VEC@XZ (0012: D8)
              1. 11 5F18 004E 0000:??1iostream_withassign@@VEC@XZ (0012: 53)
            4226894740BA....B8....26C4770426:
              0. 11 5F18 005C 0000:??1ofstream@@VEC@XZ (REF 0005: ??_Qofstream@@6Fostream@@@)
              1. 11 5F18 005C 0000:??1istrstream@@VEC@XZ (REF 0005: ??_Qistrstream@@6Fistream@@@)
              2. 11 5F18 005C 0000:??1ostrstream@@VEC@XZ (REF 0005: ??_Qostrstream@@6Fostream@@@)
              3. 11 5F18 005C 0000:??1ifstream@@VEC@XZ (REF 0005: ??_Qifstream@@6Fistream@@@)
            4C2689474ABA....B8....2689574226:
              0. 04 17FE 006A 0000:??1strstream@@VEC@XZ (REF 0005: ??_Qstrstream@@6Fostream@@iostream@@@)
              1. 04 17FE 006A 0000:??1fstream@@VEC@XZ (REF 0005: ??_Qfstream@@6Fostream@@iostream@@@)
          C47704268B4C02C4760603F1268954062689:
            0. 03 6ADE 0037 0000:??1istream@@VEC@XZ (0012: 04)
            1. 03 6ADE 0045 0000:??1strstreambase@@NEC@XZ (0012: D8) (REF 0005: ??_Qstrstreambase@@6Fios@@@)
            2. 03 6ADE 0045 0000:??1fstreambase@@VEC@XZ (0012: D8) (REF 0005: ??_Qfstreambase@@6Fios@@@)
            3. 03 6ADE 0040 0000:??1ostream_withassign@@VEC@XZ (0012: 53) (REF 0005: ??_Qostream_withassign@@6Fios@@ostream@@@)
            4. 03 6ADE 0040 0000:??1ostream@@VEC@XZ (0012: 53) (REF 0005: ??_Qostream@@6Fios@@@)
            5. 03 6ADE 0040 0000:??1istream_withassign@@VEC@XZ (0012: 53) (REF 0005: ??_Qistream_withassign@@6Fios@@istream@@@)
      BEFFFFC45E:
        0426837F2C007433817E0800407515B8004050C45E0426:
          0. 04 64B3 004B 0000:?setmode@filebuf@@QECHH@Z
        0626837F2C007437817E0A00407517B8004050C45E0626:
          0. 03 B910 004F 0000:?setmode@filebuf@@RECHH@Z
      C45E:
        0426:
          837F:
            04007426268B570A268B470889D109C174183B561075:
              0. 0F E960 009C 0000:?setb@streambuf@@IECXPED0H@Z
            34007420B8020050C45E0426C47704268B44028B5606:
              0. 0A B7EC 0085 0000:?attach@fstreambase@@QECXH@Z
          8B:
            37D1E68B84....0906....268B1FD1E3FFB7....E8:
              0. 05 DB2F 0025 0000:_matherr
            4720263B4724720DFF76065326C43726FF5406EB0426FF:
              0. 07 0F9B 0027 0000:?stossc@streambuf@@QECXXZ
          C4:
            3726803C007413C47604268B1C26FF04268E4402268A07:
              0. 09 CD35 0029 (l)0000:_sgetc
            7704268B4402C4760403F026:
              8B540A268B440852508EC2:
                0. 2A 7506 0057 0000:?flush@ostream@@QECAEV1@XZ
              F644:
                10:
                  8475:
                    29FF760AFF76:
                      0. 40 FF94 006D 0000:?seekg@istream@@QECAEV1@J@Z
                    2CFF760CFF76:
                      0. 43 5515 0095 0000:?seekg@istream@@QECAEV1@JW4seek_dir@ios@@@Z
                  8675:
                    0E26F6441720:
                      0. 07 1E4E 0055 0000:?do_osfx@ostream@@IECXXZ
                    1B268B540E26:
                      0. 0C F211 003D 0000:?do_opfx@ostream@@IECHXZ
                17607407FF760653E8:
                  0. 00 0000 0027 0000:?osfx@ostream@@QECXXZ
              F74412FFFE7411B8010050:
                0. 05 F26F 0100 0000:?eatwhite@@YAXAEVistream@@@Z (REF 00F5: .)
        0626:
          837F:
            040074:
              1FC45E0626FF4F048A4604268B3726FF07268E:
                0. 13 FC20 0033 (l)0000:___snprintf
              28268B570A268B470889D109C1741A3B561275:
                0. 0E E524 009E 0000:?setb@streambuf@@JECXPED0H@Z
            34007422B8020050C45E0626C47704268B44028B5608:
              0. 09 342E 008D 0000:?attach@fstreambase@@RECXH@Z
          8B:
            37D1E68B84....0906....268B1FD1E3FFB7:
              0. 00 0000 0027 0000:_matherr
            4720263B4724720DFF76085326C43726FF5C0CEB0426FF:
              0. 07 CD5D 0027 0000:?stossc@streambuf@@RECXXZ
          C4:
            3726803C007413C47606268B1C26FF04268E4402268A07:
              0. 09 85B9 0029 (l)0000:_sgetc
            7704268B4402C4760603F026:
              8B540A268B440852508EC2:
                0. 29 B267 0059 0000:?flush@ostream@@RECAEV1@XZ
              F644:
                10:
                  8475:
                    29FF760CFF76:
                      0. 3F D2CA 006F 0000:?seekg@istream@@RECAEV1@J@Z
                    2CFF760EFF76:
                      0. 42 06D5 0099 0000:?seekg@istream@@RECAEV1@JW4seek_dir@ios@@@Z
                  8675:
                    1026F6441720:
                      0. 06 4B4E 005B 0000:?do_osfx@ostream@@JECXXZ
                    1D268B540E26:
                      0. 0B D601 003F 0000:?do_opfx@ostream@@JECHXZ
                17607409FF760853:
                  0. 00 0000 0029 0000:?osfx@ostream@@RECXXZ
              F74412FFFE7413B8010050:
                0. 04 D3C1 0106 0000:?eatwhite@@ZAXAEVistream@@@Z (REF 00FB: .)
        0826:
          837F0400741FC45E0826FF4F048A4606268B3726FF07268E:
            0. 13 E370 0033 (l)0000:___snprintf
          8A1FC4760426881C30FFF687....04740EC45E08268A4701:
            0. 0A 8402 002A 0000:__mbccpy
          C47704268B4402C4760803F026FF740A26FF7408C45E0426:
            0. 14 F340 0041 (!)0000:?
          FF770626FF7704C45E0426C47704268B44028B56068BF303:
            0. 07 C7CA 0034 0000:??4iostream_withassign@@QECAEV0@AEVios@@@Z
        0A26:
          8A1FC4760626881C30FFF687....04740EC45E0A268A4701:
            0. 0A A385 002A 0000:__mbccpy
          C47704268B4402C4760A03F026FF740A26FF7408C45E0626:
            0. 13 F6A9 0043 (!)0000:?
          FF770626FF7704C45E0626C47704268B44028B56088BF303:
            0. 06 6364 0036 0000:??4iostream_withassign@@RECAEV0@AEVios@@@Z
      FF76:
        06FF7604C45E0426C43726FF540683F8FFB8FFFF740CC45E0426:
          0. 0D 907A 002D 0000:?do_snextc@streambuf@@AECHXZ
        08FF7606C45E0626C43726FF5C0C83F8FFB8FFFF740CC45E0626:
          0. 0D 52BC 002D 0000:?do_snextc@streambuf@@BECHXZ
        0AFF7608C45E0426C47704268B44028B56068BF303F083C60452:
          0. 02 26E3 002F (!)0000:?
        0CFF760A:
          C45E0626C47704268B44028B56088BF303F083C60452:
            0. 01 CBC7 0031 (!)0000:?
          FF76088B56068B460483C0085250C45E0426C4770826:
            0. 24 CB82 006B 0000:?setbuf@fstreambase@@QECXPEDH@Z
        0EFF760CFF760A8B56088B460683C0085250C45E0626C4770826:
          0. 23 87B6 006F 0000:?setbuf@fstreambase@@RECXPEDH@Z
    57:
      1EC57E:
        048B158B4D02B42BCD2132E41F5F8BE55DC3558BEC57B42ACD:
          0. 3D F689 005D 0000:_dos_setdate 0019:_dos_getdate 002F:_dos_settime 0046:_dos_gettime
        068B158B4D02B42BCD2132E41F5F8BE55DCB558BEC57B42ACD:
          0. 3D 24BD 005D 0000:_dos_setdate 0019:_dos_getdate 002F:_dos_settime 0046:_dos_gettime
      33DBB459CD21:
        1EC57E:
          048CDA0BD7740A890586FB895D02886D041F5F:
            0. 02 5F98 0022 0000:_dosexterr
          068CDA0BD7740A890586FB895D02886D041F5F:
            0. 02 1714 0022 0000:_dosexterr
        8B7E:
          0485FF740A890586FB895D02886D045F5DC3:
            0. 00 0000 001E 0000:_dosexterr
          0685FF740A890586FB895D02886D045F5DCB:
            0. 00 0000 001E 0000:_dosexterr
      8B:
        46:
          0A8B5E088B4E068B56048BF881E7F07F74:
            2581FFF07F743DD1EF:
              0. 5E 0C91 0369 0000:_frexp 006C:_logb 00E6:_rint 01ED:___flt_rounds 01FF:_nextafter
            2681FFF07F743ED1EF:
              0. 5F 6145 036A 0000:_frexp 006D:_logb 00E7:_rint 01EE:___flt_rounds 0200:_nextafter
          0C8B5E0A8B4E088B56068BF881E7F07F74:
            2581FFF07F743DD1EF:
              0. 5E 0903 0369 0000:_frexp 006C:_logb 00E6:_rint 01ED:___flt_rounds 01FF:_nextafter
            2681FFF07F743ED1EF:
              0. 5F DC05 036A 0000:_frexp 006D:_logb 00E7:_rint 01EE:___flt_rounds 0200:_nextafter
        4E:
          088CDA8EC28B7E048A46068BDF83F90A7215F6C3017402AA49D1:
            0. 11 5FE4 0031 0000:_memset
          0A:
            8CDA8EC28B7E068A46088BDF83F90A7215F6C3017402AA49D1:
              0. 11 7FBE 0031 0000:_memset
            C47E048A46088BDF83F90A7217F6C3017402AA49D1E98AE0F3:
              0. 0F 06A5 002F 0000:_memset
          0CC47E068A460A8BDF83F90A7217F6C3017402AA49D1E98AE0F3:
            0. 0F 26FF 002F 0000:_memset
        7E:
          04:
            578B1DFF570683F8FFB8FFFF74078B5D128A0730E45F5DC202:
              0. 01 78F0 0021 0000:?do_snextc@streambuf@@AACHXZ
            837D1E007414B80200508B5D028B4F0203CF01C151E8....EB:
              0. 0B 86D7 005D 0000:?attach@fstreambase@@QACXH@Z
            85FF740D8B5D028B470203C783C002EB0231C050FF560683C4:
              0. 08 64FA 0028 (!)0000:?
            8B:
              158B4D02B42BCD2132E45F8BE55DC3558BEC57B42ACD218B:
                0. 38 E0DB 0058 0000:_dos_setdate 0017:_dos_getdate 002C:_dos_settime 0042:_dos_gettime
              45123B45147208578B1DFF5706EB03FF45125F5DC20200:
                0. 00 0000 001F 0000:?stossc@streambuf@@QACXXZ
              4E08F6C108740580C902EB0B8AC1240F3C02750380C91083:
                0. 15 99D2 007E 0000:?open@fstreambase@@QACXPBDHH@Z
              5D028B5F0203DF:
                8B47045089C38B1FFF571283F8FF7513B8:
                  0. 10 C63D 0039 0000:?flush@ostream@@QACAAV1@XZ
                C74702....C705....:
                  57E8....5F5DC202:
                    0. 01 78F0 0021 0000:??1ostream@@UAC@XZ (REF 0012: ??_Qostream@@6Bios@@@)
                    1. 01 78F0 0021 0000:??1ostream_withassign@@UAC@XZ (REF 0012: ??_Qostream_withassign@@6Bios@@ostream@@@)
                    2. 01 78F0 0021 0000:??1istream_withassign@@UAC@XZ (REF 0012: ??_Qistream_withassign@@6Bios@@istream@@@)
                  8BC783C00450E8:
                    0. 00 0000 0026 0000:??1strstreambase@@MAC@XZ (REF 0012: ??_Qstrstreambase@@6Bios@@@)
                    1. 00 0000 0026 0000:??1fstreambase@@UAC@XZ (REF 0012: ??_Qfstreambase@@6Bios@@@)
                F647:
                  08:
                    8475:
                      1FFF7608FF7606B8:
                        0100508B:
                          0. 24 7DA9 004D 0000:?seekg@istream@@QACAAV1@J@Z
                        0200508B:
                          0. 24 AE11 004D 0000:?seekp@ostream@@QACAAV1@J@Z
                      22FF760AFF7608FF7606B8:
                        01:
                          0. 27 2429 0067 0000:?seekg@istream@@QACAAV1@JW4seek_dir@ios@@@Z
                        02:
                          0. 27 F791 0067 0000:?seekp@ostream@@QACAAV1@JW4seek_dir@ios@@@Z
                    86750AF6470F20740457E8....8B:
                      0. 0E 5BF1 0040 0000:?do_osfx@ostream@@IACXXZ
                  0F60740457E8....5F5DC20200:
                    0. 00 0000 001E 0000:?osfx@ostream@@QACXXZ
              5E06FF77028B5D028B470203C783C00250E8....8BC75F5D:
                0. 03 8E1E 0023 0000:??4iostream_withassign@@QACAAV0@AAVios@@@Z
              C783C00450E8....85C0741431C0508B5D028B470203C783:
                0. 04 0ECA 003F 0000:?close@fstreambase@@QACXXZ
            C745:
              0400008B5D028B5F0203DF837F080075518B470685C074:
                0. 23 48FB 008C 0000:?do_ipfx@istream@@IACHH@Z
              06....8B5D028B5F0203DFC74702....C705....:
                57E8:
                  0. 00 0000 0026 0000:??1iostream_withassign@@UAC@XZ
                8BC783:
                  0. 04 6FA9 002F 0000:??1iostream@@UAC@XZ
              24....8B5D028B5F0203DFC74702....C705....8BC783:
                0. 04 EC1F 002F 0000:??1ostrstream@@UAC@XZ (REF 000A: ??_Qostrstream@@6Bostream@@@)
                1. 04 EC1F 002F 0000:??1istrstream@@UAC@XZ (REF 000A: ??_Qistrstream@@6Bistream@@@)
              28....8B5D028B5F0203DFC74702....C705....8BC783:
                0. 04 4FBA 002F 0000:??1ofstream@@UAC@XZ (REF 000A: ??_Qofstream@@6Bostream@@@)
                1. 04 4FBA 002F 0000:??1ifstream@@UAC@XZ (REF 000A: ??_Qifstream@@6Bistream@@@)
              2A....C74524....8B5D028B5F0203DFC74702....C705:
                0. 00 0000 0034 0000:??1strstream@@UAC@XZ
              2E....C74528....8B5D028B5F0203DFC74702....C705:
                0. 00 0000 0034 0000:??1fstream@@UAC@XZ
            FF76:
              068B5D028B470203C783C00250E8....8BC75F5DC20400:
                0. 00 0000 0020 (!)0000:?
              08FF76068BC783C004508B5D04FF570285C0741431C050:
                0. 0D 5EE0 0048 0000:?setbuf@fstreambase@@QACXPADH@Z
          06:
            578B1DFF5F0C83F8FFB8FFFF74078B5D128A0730E45F5DCA02:
              0. 01 78F0 0021 0000:?do_snextc@streambuf@@BACHXZ
            837D1E007416B80200508B5D028B4F0203CF01C151:
              0. 00 0000 0065 0000:?attach@fstreambase@@RACXH@Z
            85FF740D8B5D028B470203C783C002EB0231C050FF5E0883C4:
              0. 08 160F 0028 (!)0000:?
            8B:
              158B4D02B42BCD2132E45F8BE55DCB558BEC57B42ACD218B:
                0. 38 E112 0058 0000:_dos_setdate 0017:_dos_getdate 002C:_dos_settime 0042:_dos_gettime
              45123B45147208578B1DFF5F0CEB03FF45125F5DCA0200:
                0. 00 0000 001F 0000:?stossc@streambuf@@RACXXZ
              4E0AF6C108740580C902EB0B8AC1240F3C02750380C91083:
                0. 14 CAEF 0086 0000:?open@fstreambase@@RACXPBDHH@Z
              5D028B5F0203DF:
                8B47045089C38B1FFF5F2483F8FF7515B8:
                  0. 0F 93EA 003B 0000:?flush@ostream@@RACAAV1@XZ
                C74702....C705....:
                  57..........5F5D:
                    0. 03 9C8C 0023 0000:??1ostream@@VAC@XZ (REF 0012: ??_Qostream@@6Bios@@@)
                    1. 03 9C8C 0023 0000:??1ostream_withassign@@VAC@XZ (REF 0012: ??_Qostream_withassign@@6Bios@@ostream@@@)
                    2. 03 9C8C 0023 0000:??1istream_withassign@@VAC@XZ (REF 0012: ??_Qistream_withassign@@6Bios@@istream@@@)
                  8BC783C00450:
                    0. 00 0000 0028 0000:??1strstreambase@@NAC@XZ (REF 0012: ??_Qstrstreambase@@6Bios@@@)
                    1. 00 0000 0028 0000:??1fstreambase@@VAC@XZ (REF 0012: ??_Qfstreambase@@6Bios@@@)
                F647:
                  08:
                    8475:
                      1FFF760AFF7608B8:
                        0100508B:
                          0. 23 6EB0 004F 0000:?seekg@istream@@RACAAV1@J@Z
                        0200508B:
                          0. 23 0380 004F 0000:?seekp@ostream@@RACAAV1@J@Z
                      22FF760CFF760AFF7608B8:
                        01:
                          0. 26 3176 006B 0000:?seekg@istream@@RACAAV1@JW4seek_dir@ios@@@Z
                        02:
                          0. 26 5C46 006B 0000:?seekp@ostream@@RACAAV1@JW4seek_dir@ios@@@Z
                    86750CF6470F20740657:
                      0. 00 0000 0046 0000:?do_osfx@ostream@@JACXXZ
                  0F60740657..........5F5DCA0200:
                    0. 00 0000 0020 0000:?osfx@ostream@@RACXXZ
              5E08FF77028B5D028B470203C783C00250..........8BC7:
                0. 05 F090 0025 0000:??4iostream_withassign@@RACAAV0@AAVios@@@Z
              C783C00450..........85C0741631C0508B5D028B470203:
                0. 05 D0D7 0045 0000:?close@fstreambase@@RACXXZ
            C745:
              0400008B5D028B5F0203DF837F080075558B470685C074:
                0. 22 47C1 0092 0000:?do_ipfx@istream@@JACHH@Z
              06....8B5D028B5F0203DFC74702....C705....:
                57:
                  0. 00 0000 0028 0000:??1iostream_withassign@@VAC@XZ
                8BC783:
                  0. 03 03CA 0033 0000:??1iostream@@VAC@XZ
              28....8B5D028B5F0203DFC74702....C705....8BC783:
                0. 03 2073 0033 0000:??1ofstream@@VAC@XZ (REF 000A: ??_Qofstream@@6Bostream@@@)
                1. 03 2073 0033 0000:??1istrstream@@VAC@XZ (REF 000A: ??_Qistrstream@@6Bistream@@@)
                2. 03 2073 0033 0000:??1ostrstream@@VAC@XZ (REF 000A: ??_Qostrstream@@6Bostream@@@)
                3. 03 2073 0033 0000:??1ifstream@@VAC@XZ (REF 000A: ??_Qifstream@@6Bistream@@@)
              2E....C74528....8B5D028B5F0203DFC74702....C705:
                0. 00 0000 0038 0000:??1strstream@@VAC@XZ (REF 000A: ??_Qstrstream@@6Bostream@@iostream@@@)
                1. 00 0000 0038 0000:??1fstream@@VAC@XZ (REF 000A: ??_Qfstream@@6Bostream@@iostream@@@)
            FF76:
              088B5D028B470203C783C00250..........8BC75F5DCA:
                0. 02 2768 0022 (!)0000:?
              0AFF76088BC783C004508B5D04FF5F0485C0741631C050:
                0. 0C F8A7 004C 0000:?setbuf@fstreambase@@RACXPADH@Z
      C47E06:
        33C0B9FFFFF2AEF7D12BF98A460AF2AE8BC19975058CC28BC7:
          0. 04 C5DD 0024 0000:_fstrchr
        8BDF8B4E0C8A460A8AE0D1E9F3ABD1D1F3AA8CC28BC35F5DCB:
          0. 00 0000 0020 0000:_fmemset
    80:
      3E....007405B80100EB47B86735CD215657BF0A00BE....B90800F3:
        0. 1A BF73 0169 0000:_emm_init 006C:_emm_getpagemapsize 0097:_emm_maphandle 00B4:_emm_getunalloc 00CC:_emm_gettotal 00D2:_emm_gethandlecount 00D6:_emm_physpage 00F5:_emm_allocpages 0104:_emm_deallocpages 0113:_emm_gethandlepages 0117:_emm_savepagemap 011B:_emm_restorepagemap 011F:_emm_getversion 0125:_emm_gethandlespages 0134:_emm_getpagemap 0139:_emm_setpagemap 014D:_emm_getsetpagemap 015E:_emm_term (0129: C6)
        1. 1A BF73 0165 0000:_emm_init 0067:_emm_getpagemapsize 0092:_emm_maphandle 00AF:_emm_getunalloc 00C7:_emm_gettotal 00CD:_emm_gethandlecount 00D1:_emm_physpage 00F0:_emm_allocpages 00FF:_emm_deallocpages 010E:_emm_gethandlepages 0112:_emm_savepagemap 0116:_emm_restorepagemap 011A:_emm_getversion 0120:_emm_gethandlespages 0131:_emm_getpagemap 0136:_emm_setpagemap 0148:_emm_getsetpagemap 015A:_emm_term (0129: 00)
        2. 1A BF73 0171 0000:_emm_init 006E:_emm_getpagemapsize 009D:_emm_maphandle 00BA:_emm_getunalloc 00D2:_emm_gettotal 00DA:_emm_gethandlecount 00DE:_emm_physpage 00FD:_emm_allocpages 010C:_emm_deallocpages 011B:_emm_gethandlepages 011F:_emm_savepagemap 0123:_emm_restorepagemap 0127:_emm_getversion 012D:_emm_gethandlespages 013C:_emm_getpagemap 0141:_emm_setpagemap 0155:_emm_getsetpagemap 0166:_emm_term (0129: 0A)
        3. 1A BF73 016D 0000:_emm_init 0069:_emm_getpagemapsize 0098:_emm_maphandle 00B5:_emm_getunalloc 00CD:_emm_gettotal 00D5:_emm_gethandlecount 00D9:_emm_physpage 00F8:_emm_allocpages 0107:_emm_deallocpages 0116:_emm_gethandlepages 011A:_emm_savepagemap 011E:_emm_restorepagemap 0122:_emm_getversion 0128:_emm_gethandlespages 0139:_emm_getpagemap 013E:_emm_setpagemap 0150:_emm_getsetpagemap 0162:_emm_term (0129: 06)
      4E:
        0A08:
          804E12088B560A8B460881E207008B4E128B5E1081E107003B:
            0. 51 E8D2 0071 0000:__largestNaN
          8B460A8B5E088B4E068B56045DC3:
            0. 00 0000 0015 0000:__AsQNaN
        0C08:
          804E14088B560C8B460A81E207008B4E148B5E1281E107003B:
            0. 51 AE67 0071 0000:__largestNaN
          8B460C8B5E0A8B4E088B56065DCB:
            0. 00 0000 0015 0000:__AsQNaN
      66:
        077F8B:
          460A2500800946068B56068B46045DC3:
            0. 00 0000 0018 0000:_copysignf
          56068B46045DC3:
            0. 00 0000 000F 0000:_fabsf
        08FE8B4608C45E04834604022689078CD83B460675:
          05B8FFFF5DC3:
            0. 07 437B 0030 0000:__heapadd
          0DFF7604E8:
            0. 00 0000 002D 0000:__heapadd
        097F8B:
          460C2500800946088B56088B46065DCB:
            0. 00 0000 0018 0000:_copysignf
          56088B46065DCB:
            0. 00 0000 000F 0000:_fabsf
        0AFE8B460AC45E06834606022689078CD83B460875:
          05B8FFFF5DCB:
            0. 06 C7C6 0032 0000:__heapadd
          0FFF7606:
            0. 00 0000 002F 0000:__heapadd
        0B7F8B46:
          0A8B5E088B4E068B56045DC3:
            0. 00 0000 0015 0000:_fabs
          1225008009460A8B460A8B5E088B4E068B56045DC3:
            0. 00 0000 001E 0000:_copysign
        0D7F8B46:
          0C8B5E0A8B4E088B56065DCB:
            0. 00 0000 0015 0000:_fabs
          1425008009460C8B460C8B5E0A8B4E088B56065DCB:
            0. 00 0000 001E 0000:_copysign
    81:
      3E....A40375:
        0E8A5E:
          0430FF8A87....2503005DC331C05DC3:
            0. 00 0000 001D 0000:__ismbbkana
          0630FF8A87....2503005DCB31C05DCB:
            0. 00 0000 001D 0000:__ismbbkana
        17817E:
          049F827207817E04F182760431C0EB03B80100:
            0. 06 4119 0026 0000:__ismbchira
          069F827207817E06F182760431C0EB03B80100:
            0. 06 29CF 0026 0000:__ismbchira
      7E:
        04:
          0001720431C05DC3:
            8A5E0430FFF687....10750BF687....0275:
              0. 0A C7EF 002A 0000:__ismbcpunct (REF 0015: .)
            8B5E048A87....2508005DC3:
              0. 00 0000 001A 0000:__ismbcspace (REF 0013: .)
          800019C0F7D85DC3:
            0. 00 0000 000E 0000:_isascii
        06:
          0001720431C05DCB:
            8A5E0630FFF687....10750BF687....0275:
              0. 0A 8F63 002A 0000:__ismbcpunct (REF 0015: .)
            8B5E068A87....2508005DCB:
              0. 00 0000 001A 0000:__ismbcspace (REF 0013: .)
          800019C0F7D85DCB:
            0. 00 0000 000E 0000:_isascii
      EC:
        00:
          08:
            56168D8600F850FF76:
              06FF7604E8....C45E0426C47704268B:
                0. 16 01C5 0075 (!)0000:?
              08FF7606..........C45E0626C47704:
                0. 18 251D 007B (!)0000:?
            578B7E:
              048D8600F85057E8....8B5D028B5F0203DFF6470886:
                0. 06 3CE9 0054 (!)0000:?
              068D8600F85057..........8B5D028B5F0203DFF647:
                0. 08 ACD9 005A (!)0000:?
          10:
            56168D8600F050FF76:
              06FF7604E8....C45E0426C47704268B:
                0. 16 01C5 0075 0000:??5istream@@QECAEV0@AE_Z@Z
              08FF7606..........C45E0626C47704:
                0. 18 251D 007B 0000:??5istream@@RECAEV0@AE_Z@Z
            578B7E:
              048D8600F05057E8....8B5D028B5F0203DFF6470886:
                0. 06 3CE9 0054 0000:??5istream@@QACAAV0@AA_Z@Z
              068D8600F05057..........8B5D028B5F0203DFF647:
                0. 08 ACD9 005A 0000:??5istream@@RACAAV0@AA_Z@Z
        0402:
          56:
            57BE....8CD08EC08D7EFCA5A4:
              168D86FCFD50:
                31C951FF76:
                  0. 05 1A6B 0089 0000:??5istream@@QECAEV0@AEH@Z
                  1. 04 D71E 008F 0000:??5istream@@RECAEV0@AEH@Z
                B9010051FF:
                  0. 05 1503 0090 0000:??5istream@@RECAEV0@AEI@Z
                  1. 06 198E 008A 0000:??5istream@@QECAEV0@AEI@Z
              8D86FCFD50:
                31C951FF76:
                  04:
                    0. 01 3E9B 006E 0000:??5istream@@QACAAV0@AAH@Z
                  06:
                    0. 00 0000 0074 0000:??5istream@@RACAAV0@AAH@Z
                B9010051FF76:
                  0. 01 4E95 0075 0000:??5istream@@RACAAV0@AAI@Z
                  1. 02 6103 006F 0000:??5istream@@QACAAV0@AAI@Z
            8B16....A1....8956FE8946FC168D86FCFD50:
              31C951FF76:
                0. 05 1A6B 0088 (!)0000:?
                1. 04 D71E 008E (!)0000:?
              B9010051FF:
                0. 05 1503 008F (!)0000:?
                1. 06 198E 0089 (!)0000:?
          578B7E:
            048B16....A1....8956FE8946FC8D86FCFD50:
              31C951:
                0. 02 FEFA 0067 (!)0000:?
              B90100:
                0. 03 4AEA 0068 (!)0000:?
            068B16....A1....8956FE8946FC8D86FCFD50:
              31C951:
                0. 01 42D6 006D (!)0000:?
              B90100:
                0. 02 52E3 006E (!)0000:?
        06015631F6B8040150:
          168D86FAFE50FF76:
            04E8....83C40889D109:
              0. 28 336F 0054 0000:_getcurdir
            06..........83C40889:
              0. 29 0C9B 0058 0000:_getcurdir
          8D86FAFE50FF76:
            04E8....83C40685C07508:
              0. 21 2A4F 004D 0000:_getcurdir
            06..........83C40685C0:
              0. 22 57E9 0051 0000:_getcurdir
        0C0156578B76:
          04C786F4FE0000C746FC0000837E08007503E93501:
            0. 0C 1CCC 015B 0000:__searchenv
          06C786F4FE0000C746FC0000837E0A007503E94701:
            0. 0B 1631 016D 0000:__searchenv
        0E:
          015657C786F2FE000031F68B46:
            0E0B460C7503E96C018B46060B:
              0. 0F 0DE8 018E 0000:__searchenv
            100B460E7503E97E018B46080B:
              0. 0E 1456 01A0 0000:__searchenv
          025657FF76:
            06E8....89C7FF7604E8....31C9898EFAFD8986F8:
              0. E6 7E79 0106 0000:_strstr
            08..........89C7FF7606..........31C9898EFA:
              0. EA 87E0 010A 0000:_strstr
        1008C786F2F71008565731F6BF00088D8EF8F7898EF6F78976F839:
          0. 19 2376 0185 (l)0000:ID_EXPAND
          1. 1A F0C6 0179 (l)0000:ID_EXPAND
        14025657C47E0631C0B9FFFFF2AEF7D14989C831C9898EF4FD8986:
          0. FF 9D73 0162 0000:_fstrstr
        16:
          025657FF76:
            0AFF7608E8....89C7FF7606FF7604E8....31C989:
              0. FF A56F 0169 0000:_strstr
            0CFF760A..........89C7FF7608FF7606:
              0. 00 0000 016D 0000:_strstr (REF 0010: _strlen)
              1. 00 0000 016D 0000:_fstrstr (REF 0010: _fstrlen)
          08C786EEF71608565731F6BF00088CD28D86F8F78996F6F78986:
            0. 1F 9455 01D3 (l)0000:ID_EXPAND
            1. 20 BC93 01C4 (l)0000:ID_EXPAND
          2056578B7E04C746F6000031F6:
            36C45D0E268A079889C236FF45:
              0. 17 44F4 03C7 (l)0000:_SCANRE
              1. 18 EA9F 03B9 (l)0000:_SCANRE
            8B5D0C8A079889C2FF450C8956:
              0. 15 455C 0375 (l)0000:_SCANRE
              1. 14 D17F 0386 (l)0000:_SCANRE
        1A025657C47E0631C0B9FFFFF2AEF7D14989C831C9898EF0FD8986:
          0. FF 3B6E 0172 0000:_fstrstr
        20:
          02565731C9518D4EE051FF76:
            04E8....FF760CFF760AFF7608FF:
              0. 0C 7FD9 0068 0000:??6ostream@@QACAAV0@N@Z
            06..........FF760EFF760CFF76:
              0. 0D 0A6D 006E 0000:??6ostream@@RACAAV0@N@Z
          105657B90100518D4EE051FF76:
            04E8....FF760CFF760AFF7608:
              0. 0D CF39 0069 0000:??6ostream@@QACAAV0@_Z@Z
            06..........FF760EFF760CFF:
              0. 0E C093 006F 0000:??6ostream@@RACAAV0@_Z@Z
        28:
          0231C050168D46D850FF76:
            06FF7604E8....FF760EFF760CFF76:
              0. 10 55BA 00A4 0000:??6ostream@@QECAEV0@N@Z
            08FF7606..........FF7610FF760E:
              0. 11 C5EA 00AA 0000:??6ostream@@RECAEV0@N@Z
          10B8010050168D46D850FF76:
            06FF7604E8....FF760EFF760CFF:
              0. 11 48B7 00A5 0000:??6ostream@@QECAEV0@_Z@Z
            08FF7606..........FF7610FF76:
              0. 12 9A53 00AB 0000:??6ostream@@RECAEV0@_Z@Z
        82005657FF76:
          12FF7610FF760EFF760CE8....83C40889C353FF76:
            0. 0B B4A8 0AAE 0000:_pow (0A82: C3)
            1. 0B B4A8 0AED 0000:_pow (0A82: 46)
          14FF7612FF7610FF760E..........83C40889C353:
            0. 0C 8CAC 0B5A 0000:_pow (0B2D: CB)
            1. 0C 8CAC 0B99 0000:_pow (0B2D: 89)
        840056578B7E:
          0CB8F87F9989D189CBC476042689440E26895C0C26:
            0. BC B710 036D 0000:?pow@@YA?EVcomplex@@AFV1@H@Z
          0EB8F87F9989D189CBC476062689440E26895C0C26:
            0. BB C729 0387 0000:?pow@@ZA?EVcomplex@@AFV1@H@Z
        8A00568B760A837E040074:
          1A8B460C8946FEB8....50E8....83C4:
            0. 27 CBD9 013E (l)0000:DO_EXEC
          1C8B460C8946FEB8....50:
            0. 28 10CA 0154 (l)0000:DO_EXEC
        8C0056837E040074:
          268B56108B460E8956FE8946FC1EB8....50E8:
            0. 00 0000 0185 (l)0000:DO_EXEC
          288B56108B460E8956FE8946FC1EB8....50:
            0. 00 0000 019B (l)0000:DO_EXEC
        96005657C78676FF0000C7867AFF0000C7867CFF0000833E....00:
          0. 24 565B 01D1 0000:__STI_wildcard
          1. 23 6BCB 01EE 0000:__STI_wildcard
        A4005657C7866CFF000031FF89BE70FF89BE72FF393E....7F03E9:
          0. 22 3428 02A9 0000:__STI_wildcard
          1. 23 CA48 028F 0000:__STI_wildcard
        B4005657F6460C017408BF....8B760CEB08BF....8B760CD1EEA1:
          0. 00 0000 0290 0000:_qsort
        B60056578B760CF6460A01740BB9....894EFE8B7E0AEB0BB9:
          0. 09 E888 0299 0000:_qsort
    83:
      3E....00:
        74:
          1DC45E:
            04FF4604268A1F30FFF687....047403FF46048B:
              0. 10 4D26 0030 0000:__mbsinc
            06FF4606268A1F30FFF687....047403FF46068B:
              0. 10 5F97 0030 0000:__mbsinc
          209BDF46:
            0C9BDD46049BD9FD9BDD5E049BDDD88B460A8B:
              0. 19 14A1 00CA 0000:_ldexp
            0E9BDD46069BD9FD9BDD5E069BDDD88B460C8B:
              0. 19 8E12 00CA 0000:_ldexp
          488B46:
            043B46087740C45E04268A0784C0743689C330FF:
              0. 02 28D7 0056 0000:__ismbslead
            063B460A7740C45E06268A0784C0743689C330FF:
              0. 02 28D7 0056 0000:__ismbslead
          4A8B46:
            043B46087742C45E04268A0784C0743889C330FF:
              0. 02 28D7 0058 0000:__ismbstrail
            063B460A7742C45E06268A0784C0743889C330FF:
              0. 02 28D7 0058 0000:__ismbstrail
        75:
          03E9:
            A8008B46060B460475138B16....A1....89560689:
              0. 15 88C7 00C8 0000:__mbstok
            AC008B46080B460675138B16....A1....89560889:
              0. 14 5E34 00CE 0000:__mbstok
          06C706........A1....D1E0D1E005....3B06....7705:
            0. 0D CD51 003D 0000:__fatexit
        7C0E7F07833E....1F720531C0995D:
          C3B801000106....83:
            0. 01 CF85 0035 0000:?bitalloc@ios@@SAJXZ
          CBB801000106....83:
            0. 01 CF85 0035 0000:?bitalloc@ios@@TAJXZ
      7E:
        0400:
          74:
            05B8FFFF5DC3837E0600740BFF7606E8....83C402EB0231:
              0. 03 4E5B 0023 0000:_farfree
            0D8A46068B5E048807B801005DC331C05DC3:
              0. 00 0000 001A 0000:_wctomb
            10FF7606FF7604E8....0346048BE55DC331C05DC3:
              0. 00 0000 001D 0000:__mbsninc
          75:
            0F837E06007409FF7606E8....83C4025DC3:
              0. 00 0000 001A 0000:__hfree
            111EFF760631C05050..........8BE55DC31EFF76061EFF:
              0. 02 77ED 002B 0000:_strtok
        0600:
          74:
            05B8:
              FFFF5DCB837E0800740DFF7608..........83C402EB:
                0. 05 7C98 0025 0000:_farfree
              ....EB19F64604027405B8....EB0EF64604047405B8:
                0. 00 0000 002B 0000:__DOSIGN
            0D8A46088B5E068807B801005DCB31C05DCB:
              0. 00 0000 001A 0000:_wctomb
            12FF7608FF7606..........0346068BE55DCB31C05DCB:
              0. 00 0000 001F 0000:__mbsninc
          7511:
            1EFF760831C05050..........8BE55DCB1EFF76081EFF:
              0. 02 65CE 002B 0000:_strtok
            837E0800740BFF7608..........83C4025DCB:
              0. 00 0000 001C 0000:__hfree
        080074:
          05B8....EB19F64606027405B8....EB0EF64606047405B8:
            0. 00 0000 002B 0000:__DOSIGN
          0631C05DC20600837E06087E098B46068B5E0489471C8B46:
            0. 05 0C57 0025 0000:?setbuf@strstreambuf@@UACPAVstreambuf@@PADH@Z
        0A:
          00740631C05DCA0600837E08087E098B46088B5E068947208B46:
            0. 05 4687 0025 0000:?setbuf@strstreambuf@@VACPAVstreambuf@@PADH@Z
          0A7530837E06007F2A7C06837E040073228B5E08C6072DFF760A:
            0. 12 73C9 004C 0000:_ltoa
        0C0A75:
          32837E08007F2C7C06837E060073248B5E0AC6072DFF760C:
            0. 11 98A0 0050 0000:_ltoa
          36837E06007F307C06837E04007328C45E0826C6072DFF76:
            0. 18 A4F6 0055 0000:_ltoa
        0E0A7538837E08007F327C06837E0600732AC45E0A26C6072DFF76:
          0. 17 C59F 0059 0000:_ltoa
      C4FC568B76:
        04B801005048505056E8....83C4088946FE8956FC3DFF:
          0. 11 B441 004F 0000:_filelength
        06B801005048505056..........83C4088946FE8956FC:
          0. 12 0930 0055 0000:_filelength
      EC:
        02509BDD7EFE9BDED98326....3F8B46FE0906....9BDD7EFE9BDB:
          0. 17 2590 011B 0000:__FCOMPP@ 002A:__FTEST0@ 004E:__FTEST@ 006D:__DTST87@ 0076:__87TOPSW@ 008B:__DBLTO87@ 009B:__DBLINT87@ 00B8:__DBLLNG87@ 00D0:__FLTTO87@ 00DE:__status87 00EA:__clear87 00F7:__control87 0117:__fpreset
          1. 17 467F 011B 0000:__FCOMPP@ 002A:__FTEST0@ 004E:__FTEST@ 006D:__DTST87@ 0076:__87TOPSW@ 008B:__DBLTO87@ 009B:__DBLINT87@ 00B8:__DBLLNG87@ 00D0:__FLTTO87@ 00DE:__status87 00EA:__clear87 00F7:__control87 0117:__fpreset
        04:
          31:
            C050:
              50:
                E8....0346041356068956FE8946FC83C40431C05050:
                  0. 01 3E9B 0036 0000:_sleep
                ..........0346061356088956FE8946FC83C40431C0:
                  0. 02 358E 003A 0000:_sleep
              E8....0346041356068956FE8946FC83C40231C050E8:
                0. 00 0000 0034 0000:_sleep
              ..........0346061356088956FE8946FC83C40231C050:
                0. 00 0000 0038 0000:_sleep
            C9C45E:
              0426390F74188CC289D88956FE8946FC8346FC0241C4:
                0. 0E 54A2 002E 0000:_wcslen
              0626390F74188CC289D88956FE8946FC8346FC0241C4:
                0. 0E 1C2E 002E 0000:_wcslen
          56:
            1EB8....50:
              E8....8956FE8946FC83C4048B4E060B4E04751F:
                0. 06 2069 007E 0000:_system
              ..........8956FE8946FC83C4048B4E080B4E06:
                0. 07 5092 0086 0000:_system
            57:
              83:
                3E....0074:
                  03E8....833E....007406E8....E8....B8:
                    0. 00 0000 0094 (l)0000:?push_exception@@YAPAUEhstack@@PBDP6CHXZIUlargeprimtype@@@Z
                  05..........833E....00740A:
                    0. 00 0000 00A2 (l)0000:?push_exception@@ZAPAUEhstack@@PBDP7CHXZIUlargeprimtype@@@Z
                7E:
                  0A00741DBA....B8....C45E0426895706268947048C:
                    0. 09 EC6C 00D2 0000:??0ostream@@QEC@H@Z
                  0C00741FBA....B8....C45E0626895706268947048C:
                    0. 08 F05D 00DE 0000:??0ostream@@REC@H@Z
                  0E00741DBA....B8....C45E0426895706268947048C:
                    0. 09 EC6C 00DE 0000:??0ostream@@QEC@HPED@Z
                  100074:
                    1DBA....B8....C45E0426895706268947048C:
                      0. 09 9A55 00F8 0000:??0istream@@QEC@HPEDH@Z (00CB: 00)
                      1. 09 9A55 0110 0000:??0istream@@QEC@HHPEVostream@@@Z (00CB: 6F)
                    1FBA....B8....C45E0626895706268947048C:
                      0. 08 F05D 00EA 0000:??0ostream@@REC@HPED@Z
                  1200741FBA....B8....C45E0626895706268947048C:
                    0. 08 48E8 0120 0000:??0istream@@REC@HHPEVostream@@@Z (00D8: 73)
                    1. 08 48E8 0106 0000:??0istream@@REC@HPEDH@Z (00D8: 00)
              8B:
                5E:
                  048B:
                    078946FC31F689C38A17FF46FC8AC29889C38A8F:
                      0. 00 0000 0129 (l)0000:UM_INDIRECT_TYPE (0108: 00) (REF 0020: .)
                      1. 00 0000 012D (l)0000:UM_INDIRECT_TYPE (0108: E5) (REF 0020: .)
                    77028B740203F3:
                      837C0C00740D53E8....85C075:
                        0. 34 72FF 00CE 0000:??6@YAAAVostream@@AAV0@ABVcomplex@@@Z
                      8B54108B440E8956FE8946FC31:
                        0. 07 24FE 007F 0000:??6ostream@@QACAAV0@PAX@Z
                  068B:
                    078946FC31F689C38A0FFF46FC8AC19889C383EB:
                      0. 0D 1BD1 01D7 (l)0000:UM_DATA_TYPE
                      1. 0D E1C9 01DB (l)0000:UM_DATA_TYPE
                    77028B740203F3:
                      837C0C00740F53..........85:
                        0. 35 AAF5 00DC 0000:??6@ZAAAVostream@@AAV0@ABVcomplex@@@Z
                      8B54108B440E8956FE8946FC31:
                        0. 07 24FE 0087 0000:??6ostream@@RACAAV0@PAX@Z
                76:
                  04:
                    837C1A00740A31C05F5E8BE55DC204008B4E06894C:
                      0. 17 2198 0091 0000:?attach@filebuf@@QACPAV1@H@Z
                    85F674:
                      268D4EFC51E8....8D4EFC51E8....83C402:
                        0. 0B 62FF 003D 0000:__strtime
                      308D4EFC51E8....8D4EFC51E8....83C402:
                        0. 15 1162 0047 0000:__strdate
                    8B:
                      4E08C746FCFFFFC746FEFFFF83F9027535F6441A:
                        0. EB 272A 01B7 0000:?seekoff@strstreambuf@@UACJJW4seek_dir@ios@@H@Z
                      7E:
                        06:
                          833E....007503E9:
                            8000C746FC00008A1430:
                              0. 07 B18E 00A6 0000:__mbscmp
                            9100C746FC0000837E08:
                              0. 0D 98F6 00BA 0000:__mbsncmp
                          85FF750C56E8....31F683C402E99B0083C7:
                            0. 14 3CE1 00C1 0000:__expand
                          8976FE85FF743A4F7E2BFF7608E8....83C4:
                            0. 3D D838 005D 0000:_fgets
                        088B4606837C1A007410837C0600740A31C05F:
                          0. 33 A25D 0077 0000:?setbuf@filebuf@@UACPAVstreambuf@@PADH@Z
                    BF010085F675014656E8....83C40289D109C18956:
                      0. 08 9909 0062 0000:?__do_newalloc@@YAPEXI@Z
                    C746FC0000C746FE0000BF010085F67503E9520183:
                      0. 09 CC36 0177 0000:_fnmerge
                  06:
                    837C1A00740A31C05F5E8BE55DCA04008B4E08894C:
                      0. 16 232A 0099 0000:?attach@filebuf@@RACPAV1@H@Z
                    85F674:
                      2C8D4EFC51..........8D4EFC51:
                        0. 00 0000 0043 0000:__strtime
                      368D4EFC51..........8D4EFC51:
                        0. 00 0000 004D 0000:__strdate
                    8B:
                      4E0AC746FCFFFFC746FEFFFF83F9027535F6441E:
                        0. EA 1AE7 01BB 0000:?seekoff@strstreambuf@@VACJJW4seek_dir@ios@@H@Z
                      7E:
                        08:
                          833E....007503E9:
                            8000C746FC00008A1430:
                              0. 07 B18E 00A8 0000:__mbscmp
                            9100C746FC0000837E0A:
                              0. 0D 98F6 00BC 0000:__mbsncmp
                          85FF750E56..........31F683C402E99F00:
                            0. 15 424A 00C7 0000:__expand
                          8976FE85FF743C4F7E2DFF760A:
                            0. 3F 802C 005F 0000:_fgets
                        0A8B4608837C1A007410837C0600740A31C05F:
                          0. 32 2612 007D 0000:?setbuf@filebuf@@VACPAVstreambuf@@PADH@Z
                    BF010085F675014656..........83C40289D109C1:
                      0. 0A A5A3 0067 0000:?__do_newalloc@@ZAPEXI@Z
                    C746FC0000C746FE0000BF010085F67503E9740183:
                      0. 08 F795 0199 0000:_fnmerge
                  088B7E0A837E0400743F85FF743BC746FC000085F674:
                    0. 24 FAAB 005C 0000:?__vec_ctor@@YAPAXPAXIHP6CPAXXZP6CHXZ@Z
                  0A:
                    837E0600744D8B460E0B460C7445C746FC000085F6:
                      0. 28 B662 0067 0000:?__vec_ctor@@ZAPAXPAXIHP7CPAXXZP7CHXZ@Z
                    8B16....A1....8956FE8946FC8B56088B46068916:
                      0. 00 0000 008A (l)0000:?set_nh@@ZAP7AHI@ZP7AHI@ZH@Z
                  0CC45E042680670ACF268B4F0A89C825830083F80274:
                    0. 22 F4EB 018F 0000:_fseek
                  0EC45E062680670ACF268B4F0A89C825830083F80274:
                    0. 21 1893 0197 0000:_fseek
                7E:
                  048B:
                    5D:
                      028B5F0203DF:
                        837F0C00740A57E8....85C074:
                          0. 5B F3B9 008E 0000:??6ostream@@QACAAV0@D@Z
                        F7470AFFFE7411B801005057E8:
                          0. 00 0000 0137 0000:?get@istream@@QACAAV1@AAVstreambuf@@D@Z (00F5: 83)
                          1. 00 0000 0116 0000:?get@istream@@QACAAV1@PADHD@Z (00F5: 00)
                      16F6470620740BB8FFFF5F5E8BE55DC2040089:
                        0. 25 6F4D 009F 0000:?overflow@stdiobuf@@UACHH@Z
                    5E068B178956FC31F68976FE89D38A0FFF46FCEB:
                      0. A4 132B 012C (l)0000:UM_TYPE_ENCODING
                      1. A4 E933 012E (l)0000:UM_TYPE_ENCODING
                    7608:
                      833E....007503E9AD00C746FC000031D289:
                        0. 13 CBDC 00D6 0000:__mbsnbcmp
                      8B4D0E8B550C2BCA894EFC7E14FF76FC5652:
                        0. 01 3E9B 00AB 0000:?xsputn@streambuf@@UACHPBDH@Z
                  068B:
                    4E04894EFC897EFEFF760AFF76088D4EFC51B9:
                      0. 00 0000 0053 0000:__vsnprintf
                    5D:
                      028B5F0203DF:
                        837F0C00740C57..........85:
                          0. 5C 5971 0094 0000:??6ostream@@RACAAV0@D@Z
                        F7470AFFFE7413B801005057:
                          0. 00 0000 013F 0000:?get@istream@@RACAAV1@AAVstreambuf@@D@Z (00FB: 83)
                          1. 00 0000 011C 0000:?get@istream@@RACAAV1@PADHD@Z (00FB: 00)
                      16F6470620740BB8FFFF5F5E8BE55DCA040089:
                        0. 24 07C2 00A7 0000:?overflow@stdiobuf@@VACHH@Z
                    5E048B77028B740203F3837C0A00741031C05053:
                      0. 01 3E9B 011C 0000:??5istream@@QACAAV0@PAVstreambuf@@@Z
                    760A:
                      833E....007503E9AD00C746FC000031D289:
                        0. 13 CBDC 00D8 0000:__mbsnbcmp
                      8B4D0E8B550C2BCA894EFC7E16FF76FC5652:
                        0. 00 0000 00AD 0000:?xsputn@streambuf@@VACHPBDH@Z
                  08:
                    833E....0074648B56068B46048956FE8946FC8EC2:
                      0. 11 6958 0089 0000:__mbschr
                    8B:
                      4E06894EFC897EFEFF760CFF760A8D4EFC510EB8:
                        0. 00 0000 0056 0000:__vsnprintf
                      5E068B77028B740203F3837C0A00741231C05053:
                        0. 00 0000 0122 0000:??5istream@@RACAAV0@PAVstreambuf@@@Z
                    C746FC0000C746FE0000837E06007503E9AD008B5E:
                      0. 07 6644 00D3 0000:?__rtti_cast@@YAPAXPAX0PBD1H@Z
                  0A:
                    833E....0074648B56088B46068956FE8946FC8EC2:
                      0. 11 6958 008B 0000:__mbschr
                    C746FC0000C746FE0000837E08007503E9BC008B5E:
                      0. 07 EB16 00E2 0000:?__rtti_cast@@ZAPAXPAX0PBD1H@Z
                  108B7612C45E0C268B07F7E78B560A8B5E0803D88956:
                    0. 41 9ECD 0061 0000:__lfind
              BA01028B46:
                100B460E74478B46080B4606743FC45E0E2680:
                  0. 8A DC2B 019D 0000:__SOPENF
                120B461074478B460A0B4608743FC45E102680:
                  0. 89 633B 01A9 0000:__SOPENF
              BF01008B36....8B1E....803F0074:
                104756E8....4001C6:
                  0. 0C D653 00A3 0000:___build_environ
                124756..........40:
                  0. 0E 6D89 00AB 0000:___build_environ
              C4:
                5E:
                  0426:
                    8B4716260B4714740C268B4714262B4710742DEB:
                      0. 67 BFBC 00FD 0000:?sync@stdiobuf@@UECHXZ
                    C47704268B4402C4760403F026:
                      837C:
                        1200741331:
                          0. 07 8F2D 016F 0000:??5istream@@QECAEV0@PEVstreambuf@@@Z
                        14007410FF:
                          0. 04 01A9 010B 0000:??6@YAAEVostream@@AEV0@AFVcomplex@@@Z
                      8B5418268B4416:
                        0. 0E 67E6 00A3 0000:??6ostream@@QECAEV0@PEX@Z
                        1. 19 AE63 0088 0000:?ws@@YAAEVistream@@AEV1@@Z
                  0626:
                    8B4716260B4714740C268B4714262B4710742DEB:
                      0. 66 DE85 0105 0000:?sync@stdiobuf@@VECHXZ
                    C47704268B4402C4760603F026:
                      837C:
                        1200741531:
                          0. 06 93B8 0175 0000:??5istream@@RECAEV0@PEVstreambuf@@@Z
                        14007412FF:
                          0. 03 133E 0119 0000:??6@ZAAEVostream@@AEV0@AFVcomplex@@@Z
                      8B5418268B4416:
                        0. 18 0F67 008E 0000:?ws@@ZAAEVistream@@AEV1@@Z
                        1. 0E 67E6 00AB 0000:??6ostream@@RECAEV0@PEX@Z
                7E0631C0B9FFFFF2AEF7D1494151:
                  E8....83C40289D109:
                    0. 2E CF50 004E 0000:_fstrdup
                  ..........83C40289:
                    0. 30 09DD 0050 0000:_fstrdup
              C746FCFFFFC746FEFFFFC45E:
                0426C47704268B4402C47604:
                  0. 52 2559 0082 0000:?tellp@ostream@@QECJXZ
                0626C47704268B4402C47606:
                  0. 51 C7DB 0084 0000:?tellp@ostream@@RECJXZ
            837E:
              100074:
                2BBA....B8....C45E042689570626894704BA:
                  0. 00 0000 0121 0000:??0ostrstream@@QEC@PEDHH@Z
                39BA....B8....C45E042689570626894704BA:
                  0. 00 0000 013D 0000:??0strstream@@QEC@PEDHH@Z
              120074:
                2DBA....B8....C45E062689570626894704BA:
                  0. 00 0000 012F 0000:??0ostrstream@@REC@PEDHH@Z
                3BBA....B8....C45E062689570626894704BA:
                  0. 00 0000 014B 0000:??0strstream@@REC@PEDHH@Z
            8A56:
              0630F68A460830E43BD07F1589C68B4E0403CA418A460A:
                0. 0F 7249 002F (l)0000:_fillrange
              0830F68A460A30E43BD07F1589C68B4E0603CA418A460C:
                0. 0F 3AC5 002F (l)0000:_fillrange
            8B:
              46:
                08D1E0D1E050E8....83C40289D109C18956FE8946FC74:
                  0. 1F 27C4 0097 0000:?usersize@ios@@AECXH@Z
                0AD1E0D1E050..........83C40289D109C18956FE8946:
                  0. 20 FF9D 009D 0000:?usersize@ios@@BECXH@Z
              4E04F6C110741AC45E062683070426C437268B54FE268B44:
                0. 5B 8DFC 007B (l)0000:GETLONG
              56:
                068B46048956FE8946FC:
                  8EC289C326803F00:
                    7422C45E04:
                      0. 08 26DD 004A 0000:_strlwr (0007: 20) (REF 0028: .)
                      1. 08 26DD 004A 0000:_strupr (0007: E0) (REF 0028: .)
                    7503E98600:
                      0. 18 099A 00C4 0000:_unmangle_ident
                  FF760EFF760CFF760AFF760816:
                    0. 05 2EED 0046 0000:_vsprintf
                088B46068956FE8946FC:
                  8EC289C326803F00:
                    7422C45E06:
                      0. 08 26DD 004A 0000:_strlwr (0007: 20) (REF 0028: .)
                      1. 08 26DD 004A 0000:_strupr (0007: E0) (REF 0028: .)
                    7503E98A00:
                      0. 17 0D65 00C8 0000:_unmangle_ident
                  FF7610FF760EFF760CFF760A16:
                    0. 06 E256 0049 0000:_vsprintf
              5E:
                048B:
                  57028B078956FE8946FC85D27F0D7C0485C0730731:
                    0. 07 D454 0077 0000:_localtime
                  77028B740203F38B54108B440E8956FE8946FC31C9:
                    0. 0C 5159 0066 0000:?ws@@YAAAVistream@@AAV1@@Z
                068B:
                  57028B078956FE8946FC85D27F0D7C0485C0730731:
                    0. 06 1122 007F 0000:_localtime
                  77028B740203F38B54108B440E8956FE8946FC31C9:
                    0. 0B 8443 006C 0000:?ws@@ZAAAVistream@@AAV1@@Z
                088B078946FC8D46FC50E8....50FF7606E8....89C68B:
                  0. 16 463E 009E (l)0000:UM_FUNCTION_TYPE
                  1. 16 EA2E 0098 (l)0000:UM_FUNCTION_TYPE
              76:
                04:
                  83FEFF741DFF7608FF76061EB8....50E8....83C408:
                    0. 1D 760A 00C7 0000:_fdopen
                  8B440C85C074072B440A7417EB0439E47411B8FFFF50:
                    0. 3E FF80 009D 0000:?sync@filebuf@@UACHXZ
                06:
                  56E8....83C40283F8087208B801005E8BE55DCB89C3:
                    0. 06 81D2 00BF 0000:_raise (0098: CB)
                    1. 06 81D2 00C0 0000:_raise (0098: 5D)
                  83FEFF741FFF760AFF76081EB8....50..........83:
                    0. 1E 853B 00D3 0000:_fdopen
                  8B440C85C074072B440A7417EB0439E47411B8FFFF50:
                    0. 3D 9E92 00A3 0000:?sync@filebuf@@VACHXZ
                08:
                  8B56068B46048956FE8946FC31C985F6742AC45EFC26:
                    0. 0C 518F 0051 0000:__mbsnbcnt
                  FF7606FF7604E8....BA....B8....C45E0426895702:
                    0. 1C F3E5 00B9 0000:??0strstreambuf@@QEC@H@Z
                0A:
                  8B56:
                    068B46048956FE8946FC8BCE4E85C974268EC289:
                      0. 2E 027E 004E 0000:_strnset
                    088B46068956FE8946FC31C985F6742AC45EFC26:
                      0. 0C 518F 0051 0000:__mbsnbcnt
                  FF7608FF7606..........BA....B8....C45E062689:
                    0. 1D 3886 00CD 0000:??0strstreambuf@@REC@H@Z
                0C:
                  833E....007503E9BF00C746FC000031D289D185F675:
                    0. 13 8242 00EB 0000:__mbsnbcmp
                  8B56088B46068956FE8946FC8BCE4E85C974268EC289:
                    0. 2E F956 004E 0000:_strnset
                0E833E....007503E9BF00C746FC000031D289D185F675:
                  0. 13 3940 00ED 0000:__mbsnbcmp
                12C45E0E268B07F7E68B560C8B5E0A03D88956FE895EFC:
                  0. 3C D290 005C 0000:__lfind
            C746FCFFFFC746FEFFFFC45E:
              0426C47704268B4402C4760403:
                0. 50 EF9C 007F 0000:?tellg@istream@@QECJXZ
              0626C47704268B4402C4760603:
                0. 4F 3405 0081 0000:?tellg@istream@@RECJXZ
            F64605207418C45E062683070226C437268B44FE8CD9894EFE:
              0. 2A 00E6 004A (l)0000:GETPOINTER
          578B7E:
            04C746FCFFFFC746FEFFFF8B5D028B5F0203DFF6470884:
              0. 35 80AB 0064 0000:?tellp@ostream@@QACJXZ
              1. 34 9D5A 0063 0000:?tellg@istream@@QACJXZ
            06C746FCFFFFC746FEFFFF8B5D028B5F0203DFF6470884:
              0. 33 5418 0065 0000:?tellg@istream@@RACJXZ
              1. 34 C2BA 0066 0000:?tellp@ostream@@RACJXZ
          83:
            3E....007406FF16....EB03E8....8B16....A1....8956FE:
              0. 09 EC79 004F 0000:?unexpected@@YAXXZ
            7E:
              04007445837E0A00742C8B5E048B47FE8946FC8B46FCFF4E:
                0. 2C DF38 0055 0000:?__vec_delete@@YAXPAXHIP6CHXZ@Z
              060074498B460E0B460C742C8B5E068B47FE8946FC8B46FC:
                0. 2D DC4E 0059 0000:?__vec_delete@@ZAXPAXHIP7CHXZ@Z
          8A46:
            04B435CD21895EFC8C46FE8B56FE8B46FC8BE55DC3:
              0. 00 0000 001D 0000:__dos_getvect
            06B435CD21895EFC8C46FE8B56FE8B46FC8BE55DCB:
              0. 00 0000 001D 0000:__dos_getvect
          8B:
            16....A1....8956FE8946FC:
              31C95141514151..........83:
                0. 27 987D 0047 (l)0000:_ctrl_break_handler
              89D109C175:
                03E8....C45EFC26:
                  0. 38 53C5 005E 0000:?__eh_rethrow@@YAXXZ
                05..........C45E:
                  0. 3D 4C25 0066 0000:?__eh_rethrow@@ZAXXZ
            46:
              0499F77E068946FC8B460499F77E068956FE8B56FE8B46FC:
                0. 04 A1B6 0024 0000:_div
              06:
                0B460474:
                  33168D46FC50E8....168D46FC50E8....83C4:
                    0. 12 E28F 004B 0000:__strtime
                  3D168D46FC50E8....168D46FC50E8....83C4:
                    0. 1C CB9D 0055 0000:__strdate
                  4F837E0C007433C45E04268B47FE8946FC8B46:
                    0. 38 8F23 0061 0000:?__vec_delete@@YAXPEXHIP6CHXZ@Z
                99F77E088946FC8B460699F77E088956FE8B56FE8B46FC:
                  0. 04 E93A 0024 0000:_div
                C746FC0000C746FE000083F810750CC746FC4000C746FE:
                  0. 2C BD92 005F (l)0000:?sbase@@YAAAVios@@AAV1@H@Z
              08:
                0B460674:
                  39168D46FC50..........168D46FC50:
                    0. 00 0000 0051 0000:__strtime
                  43168D46FC50..........168D46FC50:
                    0. 00 0000 005B 0000:__strdate
                  538B46100B460E7433C45E06268B47FE8946FC:
                    0. 39 0553 0065 0000:?__vec_delete@@ZAXPEXHIP7CHXZ@Z
                C746FC0000C746FE000083F810750CC746FC4000C746FE:
                  0. 2C BD92 0065 (l)0000:?sbase@@YAAEVios@@AEV1@H@Z (0014: 04)
                  1. 2C BD92 0061 (l)0000:?sbase@@ZAAAVios@@AAV1@H@Z (0014: CB)
              0A:
                0B460874088B46060B4604750CC746FC0000C746FE0000:
                  0. 08 9F71 009F (l)0000:STR_CAT
                  1. 09 F8B1 0091 (l)0000:STR_CAT
                C746FC0000C746FE000083F810750CC746FC4000C746FE:
                  0. 2C BD92 0067 (l)0000:?sbase@@ZAAEVios@@AEV1@H@Z
            4E:
              04:
                8BD98B570E8B470C8956FE8946FC8B56088B4606:
                  09470C:
                    0. 21 8232 0041 0000:?setf@ios@@QACJJ@Z
                  89570E:
                    0. 21 97E8 0041 0000:?flags@ios@@QACJJ@Z
                  F7D2F7:
                    0. 37 0568 0057 0000:?setf@ios@@QACJJJ@Z
                    1. 25 526E 0045 0000:?unsetf@ios@@QACJJ@Z
                F6C11074168B5E068307048B1F8B57FE8B47FC8956FE89:
                  0. 52 9654 0072 (l)0000:GETLONG
              068BD98B570E8B470C8956FE8946FC8B560A8B4608:
                09470C:
                  0. 21 40F4 0041 0000:?setf@ios@@RACJJ@Z
                89570E:
                  0. 21 A5DA 0041 0000:?flags@ios@@RACJJ@Z
                F7D2F7:
                  0. 37 70F9 0057 0000:?setf@ios@@RACJJJ@Z
                  1. 25 90A8 0045 0000:?unsetf@ios@@RACJJ@Z
              088B56068B46048956FE8946FC8EC289C326803F007412C4:
                0. 1B 302A 003B 0000:_strset
              0A8B56088B46068956FE8946FC8EC289C326803F007412C4:
                0. 1B 540F 003B 0000:_strset
              0C833E....00:
                74:
                  758B56068B46048956FE8946FC85C97448:
                    0. 10 5F7E 009E 0000:__mbsncpy
                  7B8B56068B46048956FE8946FC85C9744E:
                    0. 10 4486 00A4 0000:__mbsnbcpy
                7503E9:
                  9B008B56068B46048956FE8946FC8E:
                    0. 13 CA7C 00C7 0000:__mbsncat
                  A1008B56068B46048956FE8946FC8E:
                    0. 13 CA7C 00CD 0000:__mbsnbcat
              0E833E....00:
                74:
                  758B56088B46068956FE8946FC85C97448:
                    0. 10 8B83 00A0 0000:__mbsncpy
                  7B8B56088B46068956FE8946FC85C9744E:
                    0. 10 907B 00A6 0000:__mbsnbcpy
                7503E9:
                  9B008B56088B46068956FE8946FC8E:
                    0. 13 CA7C 00C9 0000:__mbsncat
                  A1008B56088B46068956FE8946FC8E:
                    0. 13 CA7C 00CF 0000:__mbsnbcat
            56:
              068B46048956FE8946FC8EC289C3268A079885C0740C83F8:
                0. 3C A1B9 005C (l)0000:?__get_name@@YAPEDPFD@Z
              088B46068956FE8946FC8EC289C3268A079885C0740C83F8:
                0. 3C 4389 005C (l)0000:?__get_name@@ZAPEDPFD@Z
              0A8B46088956FE8946FCC45E0426803F00743EC45E082680:
                0. 40 CA43 0060 0000:_strpbrk
              0C8B460A8956FE8946FCC45E0626803F00743EC45E0A2680:
                0. 40 44C2 0060 0000:_strpbrk
            5E:
              060BDB74088B47048B5706EB0753E8....83C4028946FC89:
                0. 07 4869 0087 0000:_utime
              080BDB74088B47048B5706EB0953..........83C4028946:
                0. 08 841A 008D 0000:_utime
          A0....30E48946FE803E....007503E8....E8....8846FC3C04:
            0. 08 6639 004B 0000:_tsr_dosfree
          A1....0B06....7406FF1E....EB05..........8B16....A1:
            0. 00 0000 0057 0000:?unexpected@@ZAXXZ
          B42FCD21895EFC8C46FE8B56FE8B46FC8BE55D:
            C3:
              0. 00 0000 001A 0000:_getdta
            CB:
              0. 00 0000 001A 0000:_getdta
          B8:
            000450:
              E8....83C40289D109C18956FE8946FC7509B8FFFF8B:
                0. 30 E415 0050 0000:?doallocate@streambuf@@MECHXZ
              ..........83C40289D109C18956FE8946FC7509B8FF:
                0. 32 883C 0052 0000:?doallocate@streambuf@@NECHXZ
            ....50:
              E8....:
                83C40285C08946FC7511B8....50E8....83C4:
                  0. 0C 5D38 004E 0000:_tab_sizegetenv
                8B46068B0E....2B0E....2BC1A3....8D46FC:
                  0. 09 7255 0044 0000:_tsr_test_vect
              ..........83C40285C08946FC7513B8....50:
                0. 00 0000 0054 0000:_tab_sizegetenv
          C45E:
            0426:
              8B57:
                0A268B470889D109C18956FE8946FC74055250E8:
                  0. 00 0000 005E 0000:?tie@ios@@QECPEVostream@@PEV2@@Z
                14268B47128956FE8946FC8B560A8B4608:
                  26:
                    0947:
                      0. 27 7959 0047 0000:?setf@ios@@QECJJ@Z
                    8957:
                      0. 26 5D3E 0046 0000:?flags@ios@@QECJJ@Z
                  F7D2F7:
                    0. 2B 175E 004B 0000:?unsetf@ios@@QECJJ@Z
                    1. 3F 5ADA 005F 0000:?setf@ios@@QECJJJ@Z
              C45F04895EFC8C46FE268A079885C0740C83F801740C:
                0. 2B 80B7 005A 0000:?name@Type_info@@QFAPFDXZ
            0626:
              8B57:
                0A268B470889D109C18956FE8946FC74075250:
                  0. 00 0000 0060 0000:?tie@ios@@RECPEVostream@@PEV2@@Z
                14268B47128956FE8946FC8B560C8B460A:
                  26:
                    0947:
                      0. 27 4D97 0047 0000:?setf@ios@@RECJJ@Z
                    8957:
                      0. 26 1072 0046 0000:?flags@ios@@RECJJ@Z
                  F7D2F7:
                    0. 3F 22F2 005F 0000:?setf@ios@@RECJJJ@Z
                    1. 2B 2390 004B 0000:?unsetf@ios@@RECJJ@Z
              C45F04895EFC8C46FE268A079885C0740C83F801740C:
                0. 2B 80B7 005A 0000:?name@Type_info@@RFAPFDXZ
            088CC00BC3740A268B4704268B5706EB085353E8....83C4:
              0. 0D 523C 0094 0000:_utime
            0A8CC00BC3740A268B4704268B5706EB0A5353:
              0. 0E 9109 009A 0000:_utime
          F646054074168B5E068307048B1F8B57FE8B47FC8956FE8946FC:
            0. 21 D92E 0041 (l)0000:GETPOINTER
          FF76:
            04E8....:
              83C4028946FE83F808720EB8160050E8....B8FF:
                0. 0B F446 009C 0000:_signal
              8946FE0346048946FC83C4028B56FE8B4EFC8BD9:
                0. 1E 026B 003E 0000:_strrchr
            06:
              FF7604E8....8956FE8946FCFF760AFF7608E8....83C4:
                0. 18 28D6 0053 (l)0000:?__match_name@@YAHPFD0@Z
              ..........8946FE0346068946FC83C4028B56FE8B4EFC:
                0. 20 3F40 0040 0000:_strrchr
            08FF7606..........:
              83C4044050..........83C40289D1:
                0. 12 C59F 0044 0000:_fstrdup
              8956FE8946FCFF760CFF760A:
                0. 00 0000 0059 (l)0000:?__match_name@@ZAHPFD0@Z
            12FF7610FF760EFF760CFF760AFF7608FF7606FF7604E8:
              0. 00 0000 0060 0000:__lsearch
            16FF7614FF7612FF7610FF760EFF760CFF760AFF7608FF76:
              0. 01 4E95 0067 0000:__lsearch
        06:
          1E:
            B41C8A56:
              04CD218A271F8846FA8866FB8956FC894EFE8A46FA:
                0. 28 813A 0048 0000:_getfat
                1. 24 82C5 0044 0000:_getfat
              06CD218A271F8846FA8866FB8956FC894EFE8A46FA:
                0. 28 78CB 0048 0000:_getfat
                1. 24 AC0E 0044 0000:_getfat
            B8....50:
              E8....83C40489D109C18956FC8946FA75171EB8:
                0. 00 0000 005D 0000:_tab_sizegetenv
              ..........83C40489D109C18956FC8946FA75191E:
                0. 01 BBC9 0063 0000:_tab_sizegetenv
          56:
            57:
              31:
                F68B56:
                  068B46048956FC8946FA8EC289C326803F007437:
                    0. 16 E31D 00E5 0000:_mktemp
                  088B46068956FC8946FA8EC289C326803F007439:
                    0. 15 A2C5 00E9 0000:_mktemp
                FF8B76:
                  048B5E04803F00742A8A0C80F95875058BD742EB:
                    0. 0A 6EEC 00BA 0000:_mktemp
                  068B5E06803F00742C8A0C80F95875058BD742EB:
                    0. 09 34F7 00BE 0000:_mktemp
              833E....007408C746FCFDFFE99B00C746FCFEFF8B16:
                0. 02 AE42 00C2 0000:__heapchk
              8B:
                56:
                  068BDAC6072531C98B76048B7C028B7D0203FEF6450F:
                    0. 4D 51AE 0138 (l)0000:?fmtdbl@@YAXAAVostream@@PADH@Z
                  088BDAC6072531C98B76068B7C028B7D0203FEF6450F:
                    0. 4D 978D 013C (l)0000:?fmtdbl@@ZAXAAVostream@@PADH@Z
                5E048B3FC746FA0000BEFFFFE8....897EFE803D3F740C:
                  0. 05 E540 014C (l)0000:UM_NESTNAME (REF 0078: .)
                76:
                  04BFFFFFC746FE0000B9....8BD9397702755EF60783:
                    0. 30 F0C1 00E2 0000:_setmode
                  06BFFFFFC746FE0000B9....8BD93977027560F60783:
                    0. 2F 1524 00EA 0000:_setmode
                  088B7E0A:
                    837E0400744985FF7445C746FC000085F674:
                      0. 2E C017 0066 0000:?__vec_cpct@@YAPAXPAXIHP6CPAXXZP6CHXZ0@Z
                    C746FC0000837E0400751B8BC6F7660683C0:
                      0. 03 C5CB 008C 0000:?__vec_new@@YAPAXPAXIHP6CPAXXZP6CHXZ@Z
                  0A:
                    8B:
                      46048946FA8B4606F7660885C08946FC7503E988:
                        0. 19 5C81 0128 0000:_fread
                      7E14837E060074568B4E0E0B4E0C744EC746FC00:
                        0. 34 0841 0073 0000:?__vec_cpct@@ZAPAXPAXIHP7CPAXXZP7CHXZ0@Z
                    C746FC0000837E0600751D8BC6F7660883C00250:
                      0. 00 0000 0099 0000:?__vec_new@@ZAPAXPAXIHP7CPAXXZP7CHXZ@Z
                  0C8B46068946FA8B4608F7660A85C08946FC7503E98E:
                    0. 18 3E93 0134 0000:_fread
                7E:
                  04:
                    85FF7503BF....B8....5057E8....57E8....03C7:
                      0. 08 1CDE 00A4 0000:_tmpnam
                    8B:
                      46068946FA8B5D028B5F0203DF837F0A00741031:
                        0. 04 5DB1 02E2 0000:?floatstr@istream@@AACXPAD@Z (REF 029E: .)
                      5D028B5F0203DF:
                        837F0A00741031C05057E8:
                          0. 69 CBD3 011F 0000:??5istream@@QACAAV0@PAD@Z (REF 00DF: .)
                        F7470AFFFE7411B801005057E8:
                          0. 00 0000 0107 0000:?getline@istream@@QACAAV1@PADHD@Z
                  06:
                    85FF7503BF....B8....5057..........57:
                      0. 00 0000 00AC 0000:_tmpnam
                    8B:
                      46088946FA8B5D028B5F0203DF837F0A00741231:
                        0. 03 9B39 02F8 0000:?floatstr@istream@@BACXPAD@Z (REF 02B0: .)
                      4E088B760AC746FE010285F6743E85FF743A803C:
                        0. 83 0894 0187 0000:__SOPENF
                      5D028B5F0203DF:
                        837F0A00741231C05057:
                          0. 00 0000 0125 0000:??5istream@@RACAAV0@PAD@Z (REF 00E3: .)
                        F7470AFFFE7413B801005057:
                          0. 00 0000 010D 0000:?getline@istream@@RACAAV1@PADHD@Z
                  088B:
                    4E0A8B760CC746FE010285F6743E85FF743A803C:
                      0. 82 31F2 0193 0000:__SOPENF
                    56068B46048956FC8946FA897EFEFF7610FF760E:
                      0. 0C 7168 0061 0000:__vsnprintf
                  0A:
                    8B:
                      56088B46068956FC8946FA897EFEFF7612FF7610:
                        0. 0D 286A 0064 0000:__vsnprintf
                      76048B4606F7660889C38B4D06F6C501742C8B4E:
                        0. 14 2E50 012F 0000:_fwrite
                    C45E0426C47704268B4402C4760403F026F74412FF:
                      0. 0C 8D1A 0181 0000:?get@istream@@QECAEV1@PEDHD@Z
                  0C:
                    8B76068B4608F7660A89C38B4D06F6C501742E8B4E:
                      0. 13 13FD 0140 0000:_fwrite
                    C45E0626C47704268B4402C4760603F026F74412FF:
                      0. 0B 3F92 0187 0000:?get@istream@@RECAEV1@PEDHD@Z
              C45E:
                0426C47704268B4402C4760403F026837C14007410FF:
                  0. 04 01A9 00C4 0000:??6ostream@@QECAEV0@D@Z
                0626C47704268B4402C4760603F026837C14007412FF:
                  0. 03 133E 00CA 0000:??6ostream@@RECAEV0@D@Z
            8B76:
              04:
                8B4C06F6C1837513C746FAFFFFC746FCFFFFB8090050:
                  0. 01 3E9B 008A 0000:_ftell
                E8....8946FE83F8FE757E8B16....A1....8956FC89:
                  0. 05 A210 009B 0000:__heapset
              06:
                8B4C06F6C1837515C746FAFFFFC746FCFFFFB8090050:
                  0. 00 0000 008E 0000:_ftell
                ..........8946FE83F8FE7403E988008B16....A1:
                  0. 00 0000 00AA 0000:__heapset
              0831C989CA85F6744A8956FE8B56068B46048956FC8946:
                0. 1C 0E58 0063 0000:__mbsnccnt
              0A31C989CA85F6744A8956FE8B56088B46068956FC8946:
                0. 1C 0E58 0063 0000:__mbsnccnt
          57C47E0631C0B9FFFFF2AEF7D14989C88946FE8CC28B5E0603D8:
            0. 33 1247 0053 0000:_fstrrchr
          833E....007403E9:
            0201C706....01008B1E....8B5F028B87:
              0. 00 0000 0116 0000:?sync_with_stdio@ios@@SAXXZ
            2401C706....01008B1E....8B5F028B87:
              0. 00 0000 0138 0000:?sync_with_stdio@ios@@TAXXZ
          8B4E:
            08C45E0426837F2C007413268B470A260B4708740931C099:
              0. 49 34D8 00AC 0000:?setbuf@filebuf@@UECPEVstreambuf@@PEDH@Z
            0AC45E0626837F2C007413268B470A260B4708740931C099:
              0. 48 8D82 00B2 0000:?setbuf@filebuf@@VECPEVstreambuf@@PEDH@Z
          A1....8946FCA1....8946FEC706....0000FF76:
            04FF7606E8:
              0. 00 0000 005A 0000:_setblock
            06FF7608:
              0. 00 0000 005E 0000:_setblock
          C45E:
            04268B4F0AF6C1837513C746FAFFFFC746FCFFFFB8090050:
              0. 01 3E9B 0097 0000:_ftell
            06268B4F0AF6C1837515C746FAFFFFC746FCFFFFB8090050:
              0. 00 0000 009B 0000:_ftell
          E8....8946FEB900:
            0451E8....FF7606FF7604E8....8956FC89:
              0. 06 2720 0035 0000:_floorf
            0851E8....FF7606FF7604E8....8956FC89:
              0. 06 2720 0035 0000:_ceilf
          FF:
            06....A1....83F8017403E9:
              1301B8240050E8....83C40285:
                0. 0B 4C8E 0131 0000:??0Iostream_init@@QAC@XZ
              3901B8240050..........83C4:
                0. 0C 3F22 0157 0000:??0Iostream_init@@RAC@XZ
            76:
              06:
                E8....83C4028946FE83F8087211B8160050:
                  0. 10 665D 00D4 0000:_signal
                FF7604E8....:
                  83C404408946FE50E8....83C40289D109:
                    0. 15 2E24 0044 0000:_strdup
                  8946FE8B56068B5E0403D88956FC895EFA:
                    0. 2E 11D8 004E 0000:_strrchr
              08FF7606..........:
                83C404408946FE50..........83C4:
                  0. 18 9F76 004A 0000:_strdup
                8946FE8B56088B5E0603D88956FC89:
                  0. 30 4583 0050 0000:_strrchr (REF 000D: _strlen)
                  1. 30 4583 0050 0000:_fstrrchr (REF 000D: _fstrlen)
          ..........8946FEB900:
            0451..........FF7608FF7606:
              0. 00 0000 003D 0000:_floorf
            0851..........FF7608FF7606:
              0. 00 0000 003D 0000:_ceilf
        08:
          31C050FF76:
            0AFF7608FF7606FF76048D46F850E8....:
              89C38B47:
                0. 0D B438 002D 0000:_cosh (REF 001A: _SINHCOSH)
                1. 0D B438 002D 0000:_log (REF 001A: _LOGLOG)
                2. 0D B438 002D 0000:_asin (REF 001A: _ASINCOS)
              8EC289C3:
                0. 13 355B 0033 0000:_cosh (REF 001A: _SINHCOSH)
                1. 13 355B 0033 0000:_log (REF 001A: _LOGLOG)
                2. 13 355B 0033 0000:_asin (REF 001A: _ASINCOS)
            0CFF760AFF7608FF76068D46F850E8....:
              89C38B47:
                0. 0D FCB4 002D 0000:_cosh (REF 001A: _SINHCOSH)
                1. 0D FCB4 002D 0000:_log (REF 001A: _LOGLOG)
                2. 0D FCB4 002D 0000:_asin (REF 001A: _ASINCOS)
              8EC289C3:
                0. 13 7DD7 0033 0000:_cosh (REF 001A: _SINHCOSH)
                1. 13 7DD7 0033 0000:_log (REF 001A: _LOGLOG)
                2. 13 7DD7 0033 0000:_asin (REF 001A: _ASINCOS)
          56:
            1EB8....50:
              E8....83C40489D109C18956FA8946F875055E8B:
                0. 06 D3DF 009F 0000:___get_c_file_info
              ..........83C40489D109C18956FA8946F87505:
                0. 08 ECB0 00A3 0000:___get_c_file_info
            57:
              31:
                C0508B56:
                  068B4604E8....505351528D46F850E8....:
                    89:
                      0. 0D 9CC8 0035 0000:_coshf (REF 001D: _SINHCOSH)
                      1. 0D 9CC8 0035 0000:_logf (REF 001D: _LOGLOG)
                      2. 0D 9CC8 0035 0000:_asinf (REF 001D: _ASINCOS)
                    8E:
                      0. 13 058A 003B 0000:_coshf (REF 001D: _SINHCOSH)
                      1. 13 058A 003B 0000:_logf (REF 001D: _LOGLOG)
                      2. 13 058A 003B 0000:_asinf (REF 001D: _ASINCOS)
                  088B4606..........505351528D46F850E8:
                    0. 00 0000 0039 0000:_coshf (0013: 5F) (REF 001F: _SINHCOSH)
                    1. 00 0000 0039 0000:_logf (0013: 5F) (REF 001F: _LOGLOG)
                    2. 00 0000 0039 0000:_asinf (0013: 5F) (REF 001F: _ASINCOS)
                    3. 00 0000 003F 0000:_coshf (0013: 04) (REF 001F: _SINHCOSH)
                    4. 00 0000 003F 0000:_logf (0013: 04) (REF 001F: _LOGLOG)
                    5. 00 0000 003F 0000:_asinf (0013: 04) (REF 001F: _ASINCOS)
                F6C746FC....8C5EFEB8....3B46FC76:
                  37BB....89DF89:
                    0. 13 A843 0059 0000:__rmtmp
                  39BB....89DF89:
                    0. 13 A843 005B 0000:__rmtmp
              833E....0074:
                03E8....833E....007406E8....E8....C7:
                  0. 02 1220 00E3 (l)0000:?push_exception@@YAPEUEhstack@@PFDP6CHXZIUlargeprimtype@@@Z
                05..........833E....00740A:
                  0. 00 0000 00F2 (l)0000:?push_exception@@ZAPEUEhstack@@PFDP7CHXZIUlargeprimtype@@@Z
              8B:
                46:
                  0431DB391E....7F03E9:
                    9B00BE....39047403E98400:
                      0. 0E EE09 00B9 (l)0000:_checkcpinfo
                    A600BE....39047403E98F00:
                      0. 0F AE17 00C4 (l)0000:_checkcpinfo
                  06:
                    31DB391E....7F03E9:
                      9F00BE....39047403E98800:
                        0. 0E 550B 00BD (l)0000:_checkcpinfo
                      AA00BE....39047403E99300:
                        0. 0F F41C 00C8 (l)0000:_checkcpinfo
                    8946F88B46088946FA8B460A8946FC8B460C8946FE:
                      0. 18 1EBF 0048 0000:_lock
                      1. 18 D736 0048 0000:_unlock
                  088946F88B460A8946FA8B460C8946FC8B460E8946FE:
                    0. 17 1AC0 004A 0000:_lock
                    1. 17 4769 004A 0000:_unlock
                56:
                  0481FA000172:
                    64833E....007469833E....0074628B:
                      0. 01 8709 0089 0000:__mbctolower (REF 0079: .)
                    69833E....00746E833E....0074678B:
                      0. 01 8709 008E 0000:__mbctoupper (REF 007E: .)
                  06:
                    81FA000172:
                      64833E....007469833E....0074628B:
                        0. 01 8709 0089 0000:__mbctolower (REF 0079: .)
                      69833E....00746E833E....0074678B:
                        0. 01 8709 008E 0000:__mbctoupper (REF 007E: .)
                    8B4604:
                      8956FA8946F88B4608F7660A89C7C45E0C26:
                        0. 30 4532 0147 0000:_fwrite
                      8B4E0A8B5E08E8....8956FA8946F88B5606:
                        0. 0A 2DD4 0051 0000:_ldiv (001E: B8)
                        1. 0A 2DD4 0049 0000:_ldiv (001E: C3)
                      E8....50535152:
                        31C0508D46F850E8....:
                          89:
                            0. 0D 9CC8 0035 0000:_sinf
                          8E:
                            0. 13 058A 003B 0000:_sinf
                        B80100508D46F850E8:
                          0. 14 0BC5 003C 0000:_cosf
                          1. 0E 4AB9 0036 0000:_cosf
                  088B4606:
                    8956:
                      FA8946F88B460AF7660C89C7C45E0E26:
                        0. 2F E631 014F 0000:_fwrite
                      FE8946FC8EC289C731C0B9FFFFF2AEF7:
                        0. 55 6485 0075 0000:_fstrrev
                    8B4E0C8B5E0A..........8956FA8946F88B:
                      0. 0B 83BE 0055 0000:_ldiv (0021: B8)
                      1. 0B 83BE 004D 0000:_ldiv (0021: CB)
                    ..........50535152:
                      31C0508D46F850E8:
                        0. 00 0000 0039 0000:_sinf (0013: 5F)
                        1. 00 0000 003F 0000:_sinf (0013: 04)
                      B80100508D46F850E8:
                        0. 00 0000 003A 0000:_cosf (0014: 5F)
                        1. 00 0000 0040 0000:_cosf (0014: 04)
                5E:
                  04:
                    8B470883F8037D03E9C60083F8097E03E9BE0083F8:
                      0. 17 4BCB 00E4 0000:___adjustfordst
                    D1E38B87....4831C9894EFC8946FA:
                      8B5E068B470A:
                        0. 3D 9C32 009B (l)0000:_CALC_DSTENDDAY
                        1. 3E E9C5 0097 (l)0000:_CALC_DSTENDDAY
                      C45E06268B47:
                        0. 3E 9184 009C (l)0000:_CALC_DSTENDDAY
                        1. 3F BA1E 0098 (l)0000:_CALC_DSTENDDAY
                  068B:
                    3785F674778B7C02F64410027505..........80:
                      0. 05 2352 0090 0000:??1__eh_cv@@RAC@XZ
                    470883F8037D03E9D00083F8097E03E9C80083F8:
                      0. 16 909C 00EE 0000:___adjustfordst
                76:
                  048B7E0A806406CF8B4C0689C825830083F802741A3D:
                    0. 1B 5B4F 0155 0000:_fseek
                  068B7E0C806406CF8B4C0689C825830083F802741A3D:
                    0. 1A CB0D 015D 0000:_fseek
                  0A8B7E0C:
                    8B4E060B4E0474:
                      4985FF7445C746F8000085:
                        0. 2F 741C 00A6 0000:?__vec_ctor@@YAPEXPEXIHP6CPEXXZP6CHXZ@Z
                      5385FF744FC746F8000085:
                        0. 39 C07A 00B0 0000:?__vec_cpct@@YAPEXPEXIHP6CPEXXZP6CHXZ0@Z
                    C746FA00008B4E060B4E0475208BC6F76608:
                      0. 05 3E6E 00DC 0000:?__vec_new@@YAPEXPEXIHP6CPEXXZP6CHXZ@Z
                  0C:
                    8B46080B460674:
                      578B46100B460E744FC746F80000:
                        0. 33 1BCD 00B4 0000:?__vec_ctor@@ZAPEXPEXIHP7CPEXXZP7CHXZ@Z
                      618B46100B460E7459C746F80000:
                        0. 3D BAD0 00BE 0000:?__vec_cpct@@ZAPEXPEXIHP7CPEXXZP7CHXZ0@Z
                    C746FA00008B46080B460675228BC6F7660A83C002:
                      0. 01 FDA2 00EE 0000:?__vec_new@@ZAPEXPEXIHP7CPEXXZP7CHXZ@Z
                7E:
                  048B46080B46067503E92001C45E0626803F007508C7:
                    0. 0D E364 0154 0000:_setlocale
                  06:
                    85FF7503E90301803D007507C746FC0100EB78C746:
                      0. 05 B859 0134 0000:_setlocale
                    8B:
                      460A0B46087503E92A01C45E0826803F007508C7:
                        0. 0D 3D72 015E 0000:_setlocale
                      76:
                        048B0E....894EF88936....8B16....A1:
                          0. 35 A692 00A4 (l)0000:?set_nh@@YAP6AHI@ZP6AHI@ZH@Z
                        08C746FA010085F67449837E04007443803C00:
                          0. 0E 2659 018E 0000:__FOPEN
                  08:
                    833E....007471C746F80000C746FA00008B56068B:
                      0. 1B 6311 0096 0000:__mbsrchr
                    85FF7503E90D01803D007507C746FC0100EB7CC746:
                      0. 05 B859 013E 0000:_setlocale
                    8B760AC746FA010085F6744B837E06007445803C00:
                      0. 0D 57CB 01A1 0000:__FOPEN
                  0A:
                    833E....007471C746F80000C746FA00008B56088B:
                      0. 1B D283 0098 0000:__mbsrchr
                    8B16....A1....8956FA8946F88B56088B46068916:
                      0. 00 0000 00C5 (l)0000:?set_nh@@ZAP7AHI@ZP7AHI@ZH@Z
                    C45E0426C47704268B4402C4760403F026F74412FF:
                      0. 0C 8D1A 016C 0000:?getline@istream@@QECAEV1@PEDHD@Z
                  0CC45E0626C47704268B4402C4760603F026F74412FF:
                    0. 0B 3F92 0175 0000:?getline@istream@@RECAEV1@PEDHD@Z
                  0E8D4EFE518D4EFC51FF760CFF760AFF7608FF7606FF:
                    0. 03 EB9C 00E7 0000:_gcvt
                  108D4EFE518D4EFC51FF760EFF760CFF760AFF7608FF:
                    0. 02 65CE 0100 0000:_gcvt
              B80100508B56:
                068B4604E8....505351528D46F850E8:
                  0. 14 0BC5 003C 0000:_sinhf (REF 001E: _SINHCOSH)
                  1. 14 0BC5 003C 0000:_log10f (REF 001E: _LOGLOG)
                  2. 14 0BC5 003C 0000:_acosf (REF 001E: _ASINCOS)
                  3. 0E 4AB9 0036 0000:_sinhf (REF 001E: _SINHCOSH)
                  4. 0E 4AB9 0036 0000:_log10f (REF 001E: _LOGLOG)
                  5. 0E 4AB9 0036 0000:_acosf (REF 001E: _ASINCOS)
                088B4606..........505351528D46F850E8:
                  0. 00 0000 003A 0000:_sinhf (0014: 5F) (REF 0020: _SINHCOSH)
                  1. 00 0000 003A 0000:_log10f (0014: 5F) (REF 0020: _LOGLOG)
                  2. 00 0000 003A 0000:_acosf (0014: 5F) (REF 0020: _ASINCOS)
                  3. 00 0000 0040 0000:_sinhf (0014: 04) (REF 0020: _SINHCOSH)
                  4. 00 0000 0040 0000:_log10f (0014: 04) (REF 0020: _LOGLOG)
                  5. 00 0000 0040 0000:_acosf (0014: 04) (REF 0020: _ASINCOS)
              BF01008B46:
                0E0B460C74528B46060B4604744AC45E0C2680:
                  0. 0F B6CA 01A6 0000:__FOPEN
                100B460E74548B46080B4606744CC45E0E2680:
                  0. 0E 41BE 01B8 0000:__FOPEN
              C45E:
                0426:
                  837F2C007477268A472A24033C01746D26837F06:
                    0. 2D 2312 0134 0000:?overflow@filebuf@@UECHH@Z
                  8B470883F8037D03E9D20083F8097E03E9CA0083:
                    0. 19 163C 00F1 0000:___adjustfordst
                  C47704268B4402C4760403F026:
                    837C1200741331:
                      0. 07 8F2D 017F 0000:??5istream@@QECAEV0@PED@Z (00A8: 04) (REF 012A: .)
                      1. 07 8F2D 00D0 0000:??5istream@@QECAEV0@AED@Z (00A8: 00)
                    8B540A268B4408:
                      0. 5F 9F31 008C 0000:?do_get@istream@@AECDXZ
                    F74412FFFE7414:
                      0. 09 0C63 00D5 0000:?get@istream@@QECHXZ
                0626:
                  837F2C00747B268A472A24033C01747126837F06:
                    0. 2C DD03 013C 0000:?overflow@filebuf@@VECHH@Z
                  8B470883F8037D03E9DC0083F8097E03E9D40083:
                    0. 18 3210 00FB 0000:___adjustfordst
                  C47704268B4402C4760603F026:
                    837C1200741531:
                      0. 06 93B8 0185 0000:??5istream@@RECAEV0@PED@Z (00AD: 8B) (REF 012E: .)
                      1. 06 93B8 00D4 0000:??5istream@@RECAEV0@AED@Z (00AD: 00)
                    8B540A268B4408:
                      0. 5E F6A1 008E 0000:?do_get@istream@@BECDXZ
                    F74412FFFE7416:
                      0. 08 1F5F 00D9 0000:?get@istream@@RECHXZ
                0826C6072531D2C4760426C47C04268B4502C47E0403:
                  0. 6B 178F 017B (l)0000:?fmtdbl@@YAXAEVostream@@PEDH@Z
                0A26C6072531D2C4760626C47C04268B4502C47E0603:
                  0. 6B 3839 017F (l)0000:?fmtdbl@@ZAXAEVostream@@PEDH@Z
            8A56:
              0C8A460830E489C68A460A30E43BF07F2588560C89C18B:
                0. 24 757B 0044 (l)0000:_fillrange
              0E8A460A30E489C68A460C30E43BF07F2588560E89C18B:
                0. 24 1AE8 0044 (l)0000:_fillrange
            8B:
              46:
                060B46047508C74604....8C5E061EB8....50FF7606FF:
                  0. 03 EB9C 00CC 0000:_tmpnam
                080B46067508C74606....8C5E081EB8....50FF7608FF:
                  0. 02 65CE 00D4 0000:_tmpnam
              56:
                068B46048956:
                  FA8946F8E8....168D46F8501EB8....50:
                    0. 01 3E9B 0064 0000:___unmangle_vc_exception_type
                  FE8946FC5250E8....8B56068B5E0403D8:
                    0. 4C 1FC0 006C 0000:_strrev
                088B46068956:
                  FA8946F8E8....168D46F8501EB8....50:
                    0. 01 3E9B 0066 0000:___unmangle_vc_exception_type
                  FE8946FC5250..........8B56088B5E06:
                    0. 4E 2D2F 006E 0000:_strrev (REF 0016: _strlen)
                    1. 4E 2D2F 006E 0000:_fstrrev (REF 0016: _fstrlen)
              5E048B378A048846F8469889C3F687....0474128A5EF88A:
                0. 59 92B9 0079 (l)0000:UM_DIMENSION (REF 0017: .)
              76:
                088B56068B46048956FE8946FC85F674544E7E40FF760C:
                  0. 04 3BF9 0083 0000:_fgets
                0A8B56088B46068956FE8946FC85F674564E7E42FF760E:
                  0. 03 476E 0085 0000:_fgets
            C45E:
              04268B:
                5702268B0789:
                  56FA8946F8C45EF8FF46F8268A07:
                    0. 22 838F 0085 (l)0000:UM_CALLING_CONVENTION
                    1. 22 CDD7 0083 (l)0000:UM_CALLING_CONVENTION
                  D109C18956FA8946F87503E9C200:
                    0. 1A 6707 00E9 0000:??1__eh_cv@@QEC@XZ
                772E85F67503BE100026837F280074198BC685C0:
                  0. 17 2281 00A7 0000:?doallocate@strstreambuf@@UECHXZ
              06268B773285F67503BE1000268B472A260B472874198B:
                0. 19 DAFB 00AE 0000:?doallocate@strstreambuf@@VECHXZ
            C746FC0000C746FE00008B46:
              0A0B46087503E90701C45E0426:
                0. 16 2AFB 012B 0000:?__rtti_cast@@YAPEXPEX0PFD1H@Z
              0C0B460A7503E91701C45E0626:
                0. 14 7AC6 013B 0000:?__rtti_cast@@ZAPEXPEX0PFD1H@Z
            FF76:
              06FF7604E8....8B56068B5E0403D88956FE895EFC83C4:
                0. 49 6218 0069 (l)0000:_killzeroes
              08FF7606..........8B56088B5E0603D88956FE895EFC:
                0. 4B 2D42 006B (l)0000:_killzeroes
          833E....0074:
            5F8B46:
              088AC432E485C08946F874518B4E088B56:
                0. 56 930F 007C 0000:__mbsset
              0A8AC432E485C08946F874518B4E0A8B56:
                0. 55 6A4E 007E 0000:__mbsset
            688B46:
              088AC432E485C08946F8745A8B4E0A8B56:
                0. 62 C8A0 0088 0000:__mbsnbset
              0A8AC432E485C08946F8745A8B4E0C8B56:
                0. 61 A84F 008A 0000:__mbsnbset
          8B:
            46:
              060B46047503E8....8B460A0B46087503E8....C45E0426:
                0. C7 9B8B 00E7 (l)0000:?pop_exception@@YAPEUEhstack@@PEUStaticvar@@PEU1@@Z
              080B46067505..........8B460C0B460A7505:
                0. CB 06E5 00EB (l)0000:?pop_exception@@ZAPEUEhstack@@PEUStaticvar@@PEU1@@Z
            56:
              068B46048956:
                FA8946F88B4E0A8B5E08894EFE895EFC8EC2:
                  0. 46 452E 0066 0000:_strcspn
                  1. 4F CD30 006F 0000:_strspn
                FE8946FC1EB8....50E8....83C4048946F8:
                  0. 1D DD98 0075 0000:_gets
              088B46068956:
                FA8946F88B4E0C8B5E0A894EFE895EFC8EC2:
                  0. 4F 2E46 006F 0000:_strspn
                  1. 46 49B6 0066 0000:_strcspn
                  2. 46 49B6 0066 (!)0000:?
                FE8946FC1EB8....50..........83C40489:
                  0. 1F 77BD 0079 0000:_gets
              0A8B46083B560675033B46047503E9990089D109C17503E9:
                0. 07 904A 00B9 0000:__mbsdec
              0C8B460A3B560875033B46067503E9990089D109C17503E9:
                0. 07 28FF 00B9 0000:__mbsdec
          9BD97EFC8B46FC8946FE804EFD0C9BD96EFC9BDB5EF89BD96EFE:
            0. 0A 6BED 002A 0000:__aFftol
          B8010050FF76:
            0AFF7608FF7606FF76048D46F850E8....:
              89C38B:
                0. 0E DD6D 002E 0000:_sinh (REF 001B: _SINHCOSH)
                1. 0E DD6D 002E 0000:_log10 (REF 001B: _LOGLOG)
                2. 0E DD6D 002E 0000:_acos (REF 001B: _ASINCOS)
              8EC289:
                0. 14 0602 0034 0000:_sinh (REF 001B: _SINHCOSH)
                1. 14 0602 0034 0000:_log10 (REF 001B: _LOGLOG)
                2. 14 0602 0034 0000:_acos (REF 001B: _ASINCOS)
            0CFF760AFF7608FF76068D46F850E8....:
              89C38B:
                0. 0E 95E1 002E 0000:_sinh (REF 001B: _SINHCOSH)
                1. 0E 95E1 002E 0000:_log10 (REF 001B: _LOGLOG)
                2. 0E 95E1 002E 0000:_acos (REF 001B: _ASINCOS)
              8EC289:
                0. 14 4E8E 0034 0000:_sinh (REF 001B: _SINHCOSH)
                1. 14 4E8E 0034 0000:_log10 (REF 001B: _LOGLOG)
                2. 14 4E8E 0034 0000:_acos (REF 001B: _ASINCOS)
          C45E:
            0426:
              837F2C00740931C0998BE55DC206008B460826894728:
                0. 25 9C51 00D3 0000:?attach@filebuf@@QECPEV1@H@Z
              8B5702268B078956FA8946F8:
                85D27F0D7C0485C07307:
                  0. 08 422C 008D 0000:_localtime
                8EC289C3268A073C5875:
                  0. 03 05E9 010C (l)0000:UM_ARGUMENT_TYPES
                  1. 03 1EF9 0104 (l)0000:UM_ARGUMENT_TYPES
                C746FC0000C746FE0000:
                  0. 14 CB1E 00A8 (l)0000:UM_SCOPE
                  1. 15 D9DB 00A6 (l)0000:UM_SCOPE
            0626:
              837F2C00740931C0998BE55DCA06008B460A26894728:
                0. 24 1CE3 00DB 0000:?attach@filebuf@@RECPEV1@H@Z
              8B5702268B078956FA8946F885D27F0D7C0485C07307:
                0. 07 DA6B 0095 0000:_localtime
          C746:
            F8:
              0000C746FA00008B56:
                0A8B46088956FE8946FC8EC289C3:
                  0. 18 2994 009D 0000:?printint@ostream@@AECXPFD@Z
                0C8B460A8956FE8946FC8EC289C3:
                  0. 18 2994 009F 0000:?printint@ostream@@BECXPFD@Z
              080056578B760AFF760C56FF7608FF7606FF7604E8:
                0. 0C E5C5 0134 (l)0000:EXECUTE_VIA_PATH
                1. 0C FE9A 0140 (l)0000:EXECUTE_VIA_PATH
            FA08005657FF760A:
              E8....83C40289C68D4C05518D4EFAE8:
                0. 00 0000 00E0 (l)0000:EXECUTE
              ..........83C40289C68D4C05518D4E:
                0. 01 ADA8 00F0 (l)0000:EXECUTE
          E8....8946F8B9000C51E8....FF760AFF7608FF7606FF7604B8:
            0. 08 0BDC 0061 0000:_rndtonl
          FF76:
            04E8....83C40285C07577B801005031C95151FF7604E8:
              0. 00 0000 009E 0000:_eof
            06:
              FF7604E8....BA....B8....C45E0426895702268907:
                26:
                  0. 22 C7B1 00C3 0000:??0filebuf@@QEC@XZ
                8B:
                  0. 23 3992 00C5 0000:??0filebuf@@QEC@H@Z
                  1. 12 3DAB 00B3 0000:??0stdiobuf@@QEC@PEU_iobuf@@@Z
              ..........83C40285C0757DB801005031C95151FF7606:
                0. 00 0000 00A8 0000:_eof
            08FF7606..........BA....B8....C45E06268957022689:
              0. 23 15B8 00CF 0000:??0filebuf@@REC@XZ
              1. 13 B29C 00BF 0000:??0stdiobuf@@REC@PEU_iobuf@@@Z
              2. 24 F0F1 00D1 0000:??0filebuf@@REC@H@Z
            0AFF7608FF7606FF7604:
              31C0508D46F850E8....:
                89C38B47:
                  0. 0D B438 002D 0000:_sin
                8EC289C3:
                  0. 13 355B 0033 0000:_sin
              B80100508D46F850E8....:
                89C38B:
                  0. 0E DD6D 002E 0000:_cos
                8EC289:
                  0. 14 0602 0034 0000:_cos
            0CFF760AFF7608FF7606:
              31C0508D46F850E8....:
                89C38B47:
                  0. 0D FCB4 002D 0000:_sin
                8EC289C3:
                  0. 13 7DD7 0033 0000:_sin
              B80100508D46F850E8....:
                89C38B:
                  0. 0E 95E1 002E 0000:_cos
                8EC289:
                  0. 14 4E8E 0034 0000:_cos
          ..........8946F8B9000C51..........FF760CFF760AFF7608:
            0. 0B AB22 006D 0000:_rndtonl
        0A:
          168D46F650:
            E8....:
              83C4048B46:
                F62346048BE55DC3:
                  0. 00 0000 001B 0000:_fetestexcept
                F82500:
                  038BE55DC3:
                    0. 00 0000 001B 0000:_fegetprec
                  0C8BE55DC3:
                    0. 00 0000 001B 0000:_fegetround
              8B4604253F00F7D02146F6168D46F650E8:
                0. 00 0000 0025 0000:_feclearexcept
              FF7606FF7604E8....8B46F6253F0050E8:
                0. 00 0000 0025 0000:_feupdateenv
            ..........:
              83C4048B46:
                F62346068BE55DCB:
                  0. 00 0000 001D 0000:_fetestexcept
                F82500:
                  038BE55DCB:
                    0. 00 0000 001D 0000:_fegetprec
                  0C8BE55DCB:
                    0. 00 0000 001D 0000:_fegetround
              8B4606253F00F7D02146F6168D46F650:
                0. 00 0000 0029 0000:_feclearexcept
              FF7608FF7606..........8B46F6253F:
                0. 02 C25D 002B 0000:_feupdateenv
          56:
            57:
              833E....007503E9:
                AD00FF760AFF7608E8....83C40489C6:
                  0. 17 4D00 00D7 0000:__mbsstr
                B300FF760CFF760A..........83C404:
                  0. 18 CA0F 00DF 0000:__mbsstr
              8B:
                56:
                  0481FA000172:
                    5C833E....00744D833E....0074468B:
                      0. 01 8709 007C 0000:__ismbcupper (REF 0071: .)
                    5F833E....007450833E....0074498B:
                      0. 01 8709 007F 0000:__ismbclower (REF 0074: .)
                  06:
                    81FA000172:
                      5C833E....00744D833E....0074468B:
                        0. 01 8709 007C 0000:__ismbcupper (REF 0071: .)
                      5F833E....007450833E....0074498B:
                        0. 01 8709 007F 0000:__ismbclower (REF 0074: .)
                    8B46048956F88946F68B4608F7660A89C785FF7503:
                      0. 2F B780 0154 0000:_fread
                  088B46068956F88946F68B460AF7660C89C785FF7503:
                    0. 2E B7A3 015E 0000:_fread
                76:
                  04:
                    85F67505BFFFFFEB7E31FF8B4406A883741AA80475:
                      0. 03 B3B6 009A 0000:_fclose
                    8B440C85C074072B440A751AEB0439E475148B4414:
                      0. 4B 723E 00B5 0000:?seekoff@stdiobuf@@UACJJW4seek_dir@ios@@H@Z
                    C746FC0000C746FE000085F67503E9:
                      C100803C0075:
                        0. 0B 53E7 00EB (l)0000:GMT_OFFSET (REF 0038: .)
                      CF00803C0075:
                        0. 0B 48D2 00F9 (l)0000:GMT_OFFSET (REF 0038: .)
                  06:
                    85F67506BFFFFFE98A0031FF8B4406A883741EA804:
                      0. 03 B2AC 00A7 0000:_fclose
                    8B:
                      440C85C074072B440A751AEB0439E475148B4414:
                        0. 4A 882D 00BD 0000:?seekoff@stdiobuf@@VACJJW4seek_dir@ios@@H@Z
                      7E04468A049889C3F687....04740CC746FA0000:
                        0. 2D 3828 0233 (l)0000:DST_TIME (REF 0209: .)
                        1. 2B 4E6B 020D (l)0000:DST_TIME (REF 01E5: .)
                7E:
                  04:
                    837D1A0074608A451824033C017457837D04007506:
                      0. 21 D6EA 00EC 0000:?overflow@filebuf@@UACHH@Z
                    85FF7503BF....57E8....83C40289C3895EF88D4F:
                      0. 03 BE77 0110 0000:_tempnam
                    8B76:
                      06833E....007503E98E0056E8....83C40285:
                        0. 10 9136 00B4 0000:__mbsstr
                      0EFF760CFF760AFF7608FF7606:
                        E8....83C408:
                          0. 11 516C 03E9 (l)0000:_LOGLOG
                          1. 11 8FD8 0420 (l)0000:_LOGLOG
                        ..........83:
                          0. 13 C795 0425 (l)0000:_LOGLOG
                          1. 13 FEEA 045C (l)0000:_LOGLOG
                  06:
                    837D1A0074648A451824033C01745B837D04007506:
                      0. 20 DA91 00F4 0000:?overflow@filebuf@@VACHH@Z
                    85FF7503BF....57..........83C40289C3895EF8:
                      0. 04 92CF 0124 0000:_tempnam
                    8B7608833E....007503E9940056..........83C4:
                      0. 11 007D 00BC 0000:__mbsstr
                  0C8B760E833E....00741A5657FF760AFF7608FF7606:
                    0. 04 2B63 00BA 0000:_poly
                  0E8B7610833E....00741C5657FF760CFF760AFF7608:
                    0. 03 1DC1 00C0 0000:_poly
              BE01008B16....A1....8956FA8946F88EC289C326803F00:
                0. 0A 9155 00F3 0000:___build_environ
                1. 09 F9FE 00FB 0000:___build_environ
            833E....007503E9:
              F10031F68B56:
                0A8B46088956FC8946FA8E:
                  0. 13 EA34 0119 0000:__mbsspn (009A: 74)
                  1. 13 EA34 0119 0000:__mbscspn (009A: 7C)
                0C8B460A8956FC8946FA8E:
                  0. 13 EA34 011B 0000:__mbsspn (009A: 74)
                  1. 13 EA34 011B 0000:__mbscspn (009A: 7C)
              FC0031F68B56:
                0A8B46088956FC8946FA8E:
                  0. 13 EA34 0139 0000:__mbsspnp (00F0: 5E)
                  1. 13 EA34 0124 0000:__mbspbrk (00F0: C3)
                0C8B460A8956FC8946FA8E:
                  0. 13 EA34 013B 0000:__mbsspnp (00F2: 5E)
                  1. 13 EA34 0126 0000:__mbspbrk (00F2: CB)
            8B:
              46:
                060B46047506BEFFFFE99F0031F6C45E04268B4F0AF6C1:
                  0. 0F D29A 00BB 0000:_fclose
                080B46067506BEFFFFE9AB0031F6C45E06268B4F0AF6C1:
                  0. 0E 3355 00C7 0000:_fclose
              76:
                04:
                  8B5608837C1A007403E9DA0085D27503E9D300F6C202:
                    0. 91 17D5 013C 0000:?open@filebuf@@QACPAV1@PBDHH@Z
                  FF4606C45E06268A079889C3F687....04740CC746FA:
                    0. 39 8115 029D (l)0000:DST_TIME (REF 026F: .)
                    1. 38 CC79 02BD (l)0000:DST_TIME (REF 028D: .)
                068B560A837C1A007403E9DE0085D27503E9D700F6C202:
                  0. 90 D291 0144 0000:?open@filebuf@@RACPAV1@PBDHH@Z
                0A833E....007503E9F100C746F600008B56068B460489:
                  0. 37 08F1 011A 0000:__mbsnset
                0C833E....007503E9F100C746F600008B56088B460689:
                  0. 37 FC6B 011C 0000:__mbsnset
            B8....508D46F650:
              E8....83C40250E8....83C40489C685F6:
                0. 03 A7CA 0041 0000:_tmpfile
              ..........83C40250..........83C404:
                0. 07 06C8 0045 0000:_tmpfile
            C45E04268B5702268B078956F88946F6C746FA0000C746FC00:
              0. 13 D888 0189 (l)0000:UM_INDIRECT_TYPE (0155: 00) (REF 0033: .)
              1. 13 D888 018D (l)0000:UM_INDIRECT_TYPE (0155: E5) (REF 0033: .)
            C746FC0000C746FE00008B46060B46047503E9:
              0C01C45E0426:
                0. 13 4B88 0135 (l)0000:GMT_OFFSET (REF 0046: .)
              FB00C45E0426:
                0. 13 6628 0124 (l)0000:GMT_OFFSET (REF 0046: .)
            FF76:
              0AFF7608FF7606FF7604E8....83C40889C383EB0183FB:
                0. 07 1AE2 0292 0000:_tanh (026A: C3)
                1. 07 1AE2 0294 0000:_tanh (026A: E5)
              0CFF760AFF7608FF7606..........83C40889C383EB01:
                0. 09 1248 02C7 0000:_tanh (029D: CB)
                1. 09 1248 02C9 0000:_tanh (029D: E5)
          833E....0074:
            13FF760AFF7608FF7606FF7604E8....8BE55DC3:
              0. 01 3E9B 0061 0000:_floor (0007: 04)
              1. 01 3E9B 0061 0000:_ceil (0007: 08)
            15FF760CFF760AFF7608FF7606..........8BE5:
              0. 02 1714 006B 0000:_floor (000A: 04)
              1. 02 1714 006B 0000:_ceil (000A: 08)
          8B46:
            0A0B46087513FF7606FF7604E8....83C40431C0998BE55D:
              0. 14 647E 00F4 0000:_farrealloc
            0C0B460A7515FF7608FF7606..........83C40431C0998B:
              0. 15 DA49 0102 0000:_farrealloc
          8D46F650:
            E8....:
              83C4028B46:
                F62346048BE55DC3:
                  0. 00 0000 001A 0000:_fetestexcept
                F82500:
                  038BE55DC3:
                    0. 00 0000 001A 0000:_fegetprec
                  0C8BE55DC3:
                    0. 00 0000 001A 0000:_fegetround
              8B4604253F00F7D02146F68D46F650E8....8B:
                0. 03 C861 0023 0000:_feclearexcept
              FF7604E8....8B46F6253F0050E8....8BE55D:
                0. 01 EF04 0021 0000:_feupdateenv
            ..........:
              83C4028B46:
                F62346068BE55DCB:
                  0. 00 0000 001C 0000:_fetestexcept
                F82500:
                  038BE55DCB:
                    0. 00 0000 001C 0000:_fegetprec
                  0C8BE55DCB:
                    0. 00 0000 001C 0000:_fegetround
              8B4606253F00F7D02146F68D46F650:
                0. 00 0000 0027 0000:_feclearexcept
              FF7606..........8B46F6253F0050:
                0. 00 0000 0027 0000:_feupdateenv
          C45E04268B5702268B078956F88946F61EB8....50:
            E8....8956:
              0. 11 B222 014C (l)0000:UM_STRING (REF 00EE: .)
            ..:
              0. 12 0729 0150 (l)0000:UM_STRING (REF 00F2: .)
          C746F60A005657FF7610FF760EFF760CFF760AFF7608FF7606FF:
            0. 03 EB9C 0160 (l)0000:EXECUTE_VIA_PATH (013C: 00)
            1. 03 EB9C 016C (l)0000:EXECUTE_VIA_PATH (013C: 55)
          E8....8B46:
            0A0B46087513FF7606FF7604E8....83C40431C099:
              0. 17 8829 00F7 0000:_farrealloc
            0C0B460A7515FF7608FF7606..........83C40431:
              0. 18 DD42 0105 0000:_farrealloc
          F746:
            04FF:
              F375:
                2A8D46F650E8....8B46F880E4F30B46048946F8:
                  0. 0B 4D01 003D 0000:_fesetround
                2C168D46F650E8....8B46F880E4F30B46048946:
                  0. 0D 90E0 003F 0000:_fesetround
              FC7507833E....00750631C08BE55DC3:
                168D46F650E8:
                  0. 00 0000 0040 0000:_fesetprec
                8D46F650E8:
                  0. 00 0000 003E 0000:_fesetprec
            06FF:
              F375:
                2E8D46F650..........8B46F880E4F30B460689:
                  0. 0C 61A2 0041 0000:_fesetround
                30168D46F650..........8B46F880E4F30B4606:
                  0. 0E 5E52 0043 0000:_fesetround
              FC7507833E....00750631C08BE55DCB:
                168D46F650:
                  0. 00 0000 0044 0000:_fesetprec
                8D46F650:
                  0. 00 0000 0042 0000:_fesetprec
        0C:
          168D46F450:
            E8....8B46F42520008946FEFF7606FF7604E8:
              0. 0C 27AB 004E 0000:_nearbyintf
            ..........8B46F42520008946FEFF7608FF7606:
              0. 00 0000 0056 0000:_nearbyintf
          56:
            168D46F450:
              E8....8B46F42520008946FEFF760AFF7608FF76:
                0. 05 1A6B 005F 0000:_nearbyint
              ..........8B46F42520008946FEFF760CFF760A:
                0. 06 C7C6 0067 0000:_nearbyint
            57:
              833E....007503E9:
                C1008B76:
                  04833E....00740D8B1E:
                    0. 1E D621 00E2 0000:__mbslwr (REF 00B7: .)
                  06833E....00740D8B1E:
                    0. 1E 550F 00E4 0000:__mbslwr (REF 00B7: .)
                C4008B76:
                  04833E....00740D8B1E:
                    0. 1E A2A9 00E5 0000:__mbsupr (REF 00BA: .)
                  06833E....00740D8B1E:
                    0. 1E 2187 00E7 0000:__mbsupr (REF 00BA: .)
              8B:
                4E:
                  0AC746F4FFFFC746F6FFFF83F902753BC45E0426F647:
                    0. FF 0794 0242 0000:?seekoff@strstreambuf@@UECJJW4seek_dir@ios@@H@Z
                  0CC746F4FFFFC746F6FFFF83F902753BC45E0626F647:
                    0. FF FA11 0246 0000:?seekoff@strstreambuf@@VECJJW4seek_dir@ios@@H@Z
                56:
                  068B4604BBE80331C9E8....89C689D7E8....89D189:
                    0. 16 143B 006C 0000:_usleep
                  088B4606BBE80331C9..........89C689D7:
                    0. 00 0000 0072 0000:_usleep
                5E:
                  04:
                    8B77028B740203F3837C0C00740D53E8....85C075:
                      0. 17 26F6 0256 0000:?outstr@ostream@@AACXPBD0@Z
                    D1E38B87....31C9894EFC8946FA:
                      8B5E068B470A89:
                        0. 35 4196 00AE (l)0000:_CALC_DSTSTARTDAY
                        1. 34 DD17 00B2 (l)0000:_CALC_DSTSTARTDAY
                      C45E06268B470A:
                        0. 36 1819 00AF (l)0000:_CALC_DSTSTARTDAY
                        1. 35 E61E 00B3 (l)0000:_CALC_DSTSTARTDAY
                  068B77028B740203F3837C0C00740F53..........85:
                    0. 18 C261 026C 0000:?outstr@ostream@@BACXPBD0@Z
                76:
                  04:
                    31FF56E8....8946F483C402807C013A751C8B7E06:
                      0. 0B F84C 01AB 0000:__splitpath
                    BFFFFFC746FE0000C746FA....8C5EFCB8....3B46:
                      0. 09 D8AA 0112 0000:_setmode
                  06:
                    31FF56..........8946F483C402807C013A751E8B:
                      0. 0C 5FAF 01BB 0000:__splitpath
                    BFFFFFC746FE0000C746FA....8C5EFCB8....3B46:
                      0. 09 207F 011A 0000:_setmode
                7E:
                  04:
                    3B7E067503E90101FF760657E8....83C40485C074:
                      0. 07 0A45 011D 0000:?__rtti_match@@YAHPBD0PAI@Z
                    E8....837D0800790D8345080CFF4D0A837D080078:
                      0. 57 3E7E 01B9 0000:_mktime
                  06:
                    3B7E087503E90D01FF760857..........83C40485:
                      0. 09 5861 0129 0000:?__rtti_match@@ZAHPBD0PAI@Z
                    837E0400740F8B76048B4E04034E0849894EF6EB1C:
                      0. 05 7555 03DA 0000:__fullpath
                    ..........837D0800790D8345080CFF4D0A837D08:
                      0. 59 C726 01C9 0000:_mktime
                  08837E0600740F8B76068B4E06034E0A49894EF6EB1E:
                    0. 04 4807 0408 0000:__fullpath
              C45E:
                0426C47704268B4402C4760403F026837C14007410FF:
                  0. 04 01A9 0322 0000:?outstr@ostream@@AECXPFD0@Z
                0626C47704268B4402C4760603F026837C14007412FF:
                  0. 03 133E 033E 0000:?outstr@ostream@@BECXPFD0@Z
              C746FA0000:
                8B5E:
                  048B57028B078956FE8946FC85D27D03E9:
                    0. 11 742E 0182 0000:_gmtime
                  068B57028B078956FE8946FC85D27D03E9:
                    0. 10 CED5 0194 0000:_gmtime
                C45E:
                  04268B5702268B078956FE8946FC85D27D:
                    0. 13 378E 0187 0000:_gmtime
                  06268B5702268B078956FE8946FC85D27D:
                    0. 12 3BB4 0199 0000:_gmtime
              E8....C45E0426837F08007913C45E04268347080C26FF4F:
                0. 71 9AF5 01DC 0000:_mktime
              ..........C45E0626837F08007913C45E06268347080C26:
                0. 73 36F5 01EC 0000:_mktime
            8B76:
              048B44148B4C123BC176062BC17414EB0439E4740E8B5C:
                0. 10 A237 00D1 0000:?underflow@stdiobuf@@UACHXZ
              068B44148B4C123BC176062BC17414EB0439E4740E8B5C:
                0. 0F 61FF 00DB 0000:?underflow@stdiobuf@@VACHXZ
              0C833E....00741EFF7610FF760E56FF760AFF7608FF76:
                0. 05 1A6B 00D0 0000:_poly
              0E833E....007420FF7612FF761056FF760CFF760AFF76:
                0. 04 D71E 00D6 0000:_poly
            8D46F450:
              E8....8B46F42520008946FEFF760AFF7608FF7606:
                0. 04 2B63 005C 0000:_nearbyint
              ..........8B46F42520008946FEFF760CFF760AFF:
                0. 05 1503 0064 0000:_nearbyint
            C45E:
              0426:
                8B:
                  4716260B4714740C268B4714262B4710751CEB04:
                    0. 60 5BC1 00F4 0000:?seekoff@stdiobuf@@UECJJW4seek_dir@ios@@H@Z
                  5702268B078956F68946F48EC289C6268A049889:
                    0. 03 7BF0 00EA (l)0000:UM_ARGUMENT (00C6: 00) (REF 0023: .)
                    1. 03 7BF0 00EE (l)0000:UM_ARGUMENT (00C6: E5) (REF 0023: .)
                C4772826F6440A20740AB8FFFF5E8BE55DC20600C4:
                  0. 42 C471 00ED 0000:?overflow@stdiobuf@@UECHH@Z
              0626:
                8B4716260B4714740C268B4714262B4710751CEB04:
                  0. 5F EC1D 00FC 0000:?seekoff@stdiobuf@@VECJJW4seek_dir@ios@@H@Z
                C4772826F6440A20740AB8FFFF5E8BE55DCA0600C4:
                  0. 41 C7EC 00F5 0000:?overflow@stdiobuf@@VECHH@Z
          578B7E:
            068B5E06F6470B027415B802005031C05050FF770CE8:
              0. 00 0000 012F 0000:__flushbu
            088B5E08F6470B027417B802005031C05050FF770C:
              0. 00 0000 013B 0000:__flushbu
          833E....00:
            7403E9:
              6701C706....0100C41E....268B5F028B97:
                0. 00 0000 01BD 0000:?sync_with_stdio@ios@@SAXXZ
              8901C706....0100C41E....268B5F028B97:
                0. 00 0000 01E5 0000:?sync_with_stdio@ios@@TAXXZ
            7503E988008B56:
              068B46048956FA8946F88956FE89:
                0. 13 B2D9 00A5 0000:__mbsrev
              088B46068956FA8946F88956FE89:
                0. 13 B2D9 00A7 0000:__mbsrev
          8B:
            56:
              0AC45E0426837F2C007403E9E80085D27503E9E100F6C202:
                0. 94 547F 0169 0000:?open@filebuf@@QECPEV1@PFDHH@Z
              0CC45E0626837F2C007403E9EC0085D27503E9E500F6C202:
                0. 93 D7EC 0171 0000:?open@filebuf@@RECPEV1@PFDHH@Z
            5E06:
              368B078946F485C075048BE55DCB8B46F43B46067705:
                0. 00 0000 00A0 0000:___eh_find_caller
              8B078946F485C075048BE55DCB8B46F43B46067705:
                0. 00 0000 0097 0000:___eh_find_caller
          8D46F450:
            E8....8B46F42520008946FEFF7606FF7604E8....89:
              0. 0A F244 004B 0000:_nearbyintf
            ..........8B46F42520008946FEFF7608FF7606:
              0. 00 0000 0053 0000:_nearbyintf
          C45E:
            0426C41F895EF48C46F6268A0FFF46F48AC19889C3F687:
              0. 00 0000 0093 (l)0000:UM_DIMENSION (REF 001F: .)
            08268B5702268B078956F68946F4C746F80000C746FA0000:
              0. BF 248F 018F (l)0000:UM_TYPE_ENCODING
              1. BF 4B84 018D (l)0000:UM_TYPE_ENCODING
            0C268B5702268B078956F68946F4168D46F450E8....5250:
              0. 07 D3A5 00E2 (l)0000:UM_FUNCTION_TYPE (00BA: 00)
              1. 07 D3A5 00E8 (l)0000:UM_FUNCTION_TYPE (00BA: F8)
          E8....8956FA8946F80346041356068956F68946F4E8....8956:
            0. 30 E7E7 0050 0000:_msleep
          FF06....A1....83F8017403E9:
            7101B8380050E8....83C40289:
              0. 11 EB7C 0217 0000:??0Iostream_init@@QEC@XZ
            9701B8380050..........83C4:
              0. 12 E278 024B 0000:??0Iostream_init@@REC@XZ
          ..........8956FA8946F80346061356088956F68946F4:
            0. 00 0000 0054 0000:_msleep
        0E:
          1EB8....50168D46F650:
            E8....83C4045250E8....83C40889D1:
              0. 0B 8FA6 004F 0000:_tmpfile
            ..........83C4045250..........83:
              0. 0F 8171 0053 0000:_tmpfile
          5657:
            8B:
              56:
                0481FA0001:
                  7277833E....007468833E....0074618B:
                    0. 01 8709 00A7 0000:__ismbcalpha (REF 008E: .)
                  7303E98100833E....007472833E....00:
                    0. 04 0769 00B4 0000:__ismbcalnum (0079: 07) (REF 009B: .)
                    1. 04 0769 00B4 0000:__ismbcgraph (0079: 17) (REF 009B: .)
                    2. 04 0769 00B4 0000:__ismbcprint (0079: 57) (REF 009B: .)
                06:
                  81FA0001:
                    7277833E....007468833E....0074618B:
                      0. 01 8709 00A7 0000:__ismbcalpha (REF 008E: .)
                    7303E98100833E....007472833E....00:
                      0. 04 0769 00B4 0000:__ismbcalnum (0079: 07) (REF 009B: .)
                      1. 04 0769 00B4 0000:__ismbcgraph (0079: 17) (REF 009B: .)
                      2. 04 0769 00B4 0000:__ismbcprint (0079: 57) (REF 009B: .)
                  8B46043B560A75033B46087503E95101FF760AFF76:
                    0. 04 EC97 0175 0000:?__rtti_match@@YAHPFD0PEI@Z
                088B46063B560C75033B460A7503E95E01FF760CFF76:
                  0. 03 7407 0182 0000:?__rtti_match@@ZAHPFD0PEI@Z
              5E:
                0CC7070000FF760AFF7608E8....83C40489C683FE04:
                  0. 0C 980B 028F 0000:_remquof
                0EC7070000FF760CFF760A..........83C40489C683:
                  0. 0D C83D 02EA 0000:_remquof
              76:
                048B4E08C746F20000C746F40000C746FE00008976FC:
                  0. 07 3F7E 01E2 0000:_strtol (REF 00ED: .)
                068B4E0AC746F20000C746F40000C746FE00008976FC:
                  0. 07 3F7E 01E8 0000:_strtol (REF 00ED: .)
              7E:
                048B46088946F2C646F4698B5D028B5F0203DF837F0A:
                  0. 08 EF2D 0323 0000:?intstr@istream@@AACDPADH@Z (REF 02DC: .)
                068B460A8946F2C646F4698B5D028B5F0203DF837F0A:
                  0. 07 0B54 0337 0000:?intstr@istream@@BACDPADH@Z (REF 02EC: .)
                0885FF7519FF7606FF7604E8....C746040000C74606:
                  0. 2A BAEC 01C1 0000:__expand
                0A85FF751BFF7608FF7606..........C746060000C7:
                  0. 2B 8783 01CF 0000:__expand
            C45E:
              0C26C7070000FF760AFF7608E8....83C40489C683FE:
                0. 0D 19B2 0291 0000:_remquof
              0E26C7070000FF760CFF760A..........83C40489C6:
                0. 0E A95E 02EC 0000:_remquof
          8B46:
            068946F28B46088946F48B460A8946F68B460C8946F88B46:
              0. 17 9AE0 003D 0000:_biosdisk
              1. 19 FF48 003F 0000:_biosdisk
            088946F28B460A8946F48B460C8946F68B460E8946F88B46:
              0. 18 2D50 0041 0000:_biosdisk
              1. 16 E11C 003F 0000:_biosdisk
          C45E08268B5702268B078956F48946F2C746F60000C746F80000:
            0. 1E 1425 02E2 (l)0000:UM_DATA_TYPE
            1. 1E 422D 02DE (l)0000:UM_DATA_TYPE
        10:
          1EB8....50168D46F850:
            E8....83C408168D46F850E8....83C4:
              0. 0C C553 009D 0000:_creattemp
            ..........83C408168D46F850:
              0. 00 0000 00AB 0000:_creattemp
          56:
            57:
              833E....0074:
                298B560A8B4608E8....505351528B56068B:
                  0. 03 451A 00A2 0000:_fmodf
                318B560C8B460A..........505351528B56:
                  0. 04 CC4B 00B2 0000:_fmodf
              8B:
                46:
                  060B46047508C74604....8C5E06FF7606FF7604E8:
                    0. 00 0000 015F 0000:_tempnam
                  080B46067508C74606....8C5E08FF7608FF7606:
                    0. 00 0000 0173 0000:_tempnam
                76:
                  04837C1A007503E992008A441824033C027503E98600:
                    0. 4F 47B3 013A 0000:?underflow@filebuf@@UACHXZ
                  06837C1A007503E996008A441824033C027503E98A00:
                    0. 4E 38A7 0148 0000:?underflow@filebuf@@VACHXZ
            8B76:
              0481FE00017303E9:
                8D00833E....007503E98D00A1:
                  0. 02 D98E 00B1 0000:__mbctolower (REF 00A2: .)
                9200833E....007503E99200A1:
                  0. 02 D98E 00B6 0000:__mbctoupper (REF 00A7: .)
              0681FE00017303E9:
                8D00833E....007503E98D00A1:
                  0. 02 D98E 00B1 0000:__mbctolower (REF 00A2: .)
                9200833E....007503E99200A1:
                  0. 02 D98E 00B6 0000:__mbctoupper (REF 00A7: .)
            C45E:
              0426:
                837F2C007503E9BD00268A472A24033C027503E9B0:
                  0. 6A 6789 019C 0000:?underflow@filebuf@@UECHXZ
                8B4724268B4F203BC176062BC17419EB0439E47413:
                  0. 1C 7FB4 0136 0000:?underflow@stdiobuf@@UECHXZ
              0626:
                837F2C007503E9C100268A472A24033C027503E9B4:
                  0. 69 2247 01AA 0000:?underflow@filebuf@@VECHXZ
                8B:
                  4724268B4F203BC176062BC17419EB0439E47413:
                    0. 1B 9287 0140 0000:?underflow@stdiobuf@@VECHXZ
                  5702268B0789D109C18956FA8946F87503E9D700:
                    0. 19 6C5B 00FE 0000:??1__eh_cv@@REC@XZ
            FF76:
              0AFF7608FF7606FF7604E8....83C40889C383EB0183FB:
                0. 07 E237 0216 0000:_exp (01EC: E5)
                1. 07 E237 0214 0000:_exp (01EC: C3)
              0CFF760AFF7608FF7606..........83C40889C383EB01:
                0. 09 BA04 0242 0000:_exp (0216: E5)
                1. 09 BA04 0240 0000:_exp (0216: CB)
          833E....0074:
            1FFF7612FF7610FF760EFF760CFF760AFF7608FF:
              0. 06 198E 00C8 0000:_fmod
            21FF7614FF7612FF7610FF760EFF760CFF760AFF:
              0. 05 1503 00D0 0000:_fmod
          8B4E:
            0481F90001:
              727D833E....007470A1....0B06....746789:
                0. 04 7F73 0099 0000:__ismbcupper (REF 0090: .)
              7303E98000833E....007473A1....0B06:
                0. 07 6508 009F 0000:__ismbclower (REF 0096: .)
            0681F90001:
              727D833E....007470A1....0B06....746789:
                0. 04 C7C6 0099 0000:__ismbcupper (REF 0090: .)
              7303E98000833E....007473A1....0B06:
                0. 07 DDBD 009F 0000:__ismbclower (REF 0096: .)
          B8:
            3F0050:
              E8....8946F0FF760AFF7608FF7606FF7604E8....83:
                0. 1F A022 0099 (l)0000:YODD
              ..........8946F0FF760AFF7608FF7606FF7604:
                0. 00 0000 00A5 (l)0000:YODD
            ....508D46F850:
              E8....83C4048D46F850E8....83C40285C0:
                0. 07 5ED1 0089 0000:_creattemp
              ..........83C4048D46F850..........83:
                0. 0A B4A0 0097 0000:_creattemp
          FF76:
            0E8B460C8B5E0A8B4E088B56068946F6895EF4894EF28956:
              0. 1D BA17 0043 0000:?pow@@YA?AVcomplex@@NABV1@@Z
            108B460E8B5E0C8B4E0A8B56088946F6895EF4894EF28956:
              0. 1C 1AEF 0045 0000:?pow@@ZA?AVcomplex@@NABV1@@Z
            12FF76108B460E8B5E0C8B4E0A8B56088946F6895EF4894E:
              0. 26 E3A2 004C 0000:?pow@@YA?EVcomplex@@NAFV1@@Z
            14FF76128B46108B5E0E8B4E0C8B560A8946F6895EF4894E:
              0. 25 E893 004E 0000:?pow@@ZA?EVcomplex@@NAFV1@@Z
        1256:
          57:
            1E:
              078B7E:
                08BB01008B4E048D76FF883C83FF0A750785C979:
                  0. 35 BDAE 0055 0000:_itoa
                0ABB01008B4E068D76FF883C83FF0A750785C979:
                  0. 35 286B 0055 0000:_itoa
              161F8B7E:
                0ABB01008B4E048D76FF883C83FF0A750785C9:
                  0. 39 0273 0059 0000:_itoa
                0CBB01008B4E068D76FF883C83FF0A750785C9:
                  0. 39 441E 0059 0000:_itoa
            833E....007512E8....89C785FF750DB802005F5E8BE55D:
              0. 07 4244 021E 0000:_tsr_uninstall
            8B:
              46:
                0631C9D1E0D1D1D1E0D1D1D1E0D1D1D1E0D1D18B5E04:
                  0. 09 8CAF 0217 0000:PTRCHK (01ED: 00)
                  1. 09 8CAF 021D 0000:PTRCHK (01ED: 5E)
                0831C9D1E0D1D1D1E0D1D1D1E0D1D1D1E0D1D18B5E06:
                  0. 09 8CAF 0219 0000:PTRCHK (01EF: 00)
                  1. 09 8CAF 021F 0000:PTRCHK (01EF: 5E)
              4E:
                0CC746EE0000C746F00000C746FE00008B56068B4604:
                  0. 12 FEDC 0222 0000:_strtol (REF 0123: .)
                0EC746EE0000C746F00000C746FE00008B56088B4606:
                  0. 12 FEDC 0228 0000:_strtol (REF 0123: .)
              76:
                04:
                  833E....007503E9:
                    7001C746FA0000833E....0074:
                      0. 03 28A8 0195 0000:__mbsicmp (REF 0154: .)
                    8401C746FA0000837E08007503:
                      0. 05 1B83 01AC 0000:__mbsnicmp (REF 015D: .)
                  8B7E068BCE81E11F00D1E1894EEE8BD6B90500D3EA:
                    0. 41 3F69 006E (l)0000:_FILETIME
                    1. 42 611D 006F (l)0000:_FILETIME
                    2. 41 A247 0071 (l)0000:_FILETIME
                    3. 40 A5A6 0070 (l)0000:_FILETIME
                06833E....007503E9:
                  7001C746FA0000833E....0074:
                    0. 03 28A8 0197 0000:__mbsicmp (REF 0154: .)
                  8401C746FA0000837E0A007503:
                    0. 05 1B83 01AE 0000:__mbsnicmp (REF 015D: .)
                08833E....007503E99301C746FA0000833E....0074:
                  0. 03 28A8 01BB 0000:__mbsnbicmp (REF 0177: .)
                0A833E....007503E99301C746FA0000833E....0074:
                  0. 03 28A8 01BD 0000:__mbsnbicmp (REF 0177: .)
              7E:
                0485FF740D83FF01740883FF027403E98701837E0600:
                  0. 06 7194 01C3 0000:___spawn
                0685FF740D83FF01740883FF027403E99901837E0800:
                  0. 06 CB8D 01D9 0000:___spawn
          8B76:
            048B560C8B460A8956FA8946F88B4C0C85C9740789CB2B:
              0. 15 5B7F 011A 0000:?seekoff@filebuf@@UACJJW4seek_dir@ios@@H@Z
            068B560E8B460C8956FA8946F88B4C0C85C9740789CB2B:
              0. 14 3D6E 0122 0000:?seekoff@filebuf@@VACJJW4seek_dir@ios@@H@Z
          B8....50:
            E8....83C40289C685F67503E955018A0484C07503:
              0. 08 A11D 01BA 0000:_tzset (REF 013F: .)
            ..........83C40289C685F67503E955018A0484C0:
              0. 0A 8A98 01C0 0000:_tzset (REF 0141: .)
          FF76:
            0AFF7608FF7606FF7604E8....83C40889C383EB0183FB:
              0. 07 0ACF 0253 0000:_sqrt (022A: 5D)
              1. 07 0ACF 0252 0000:_sqrt (022A: C3)
            0CFF760AFF7608FF7606..........83C40889C383EB01:
              0. 09 223F 027B 0000:_sqrt (0250: 5D)
              1. 09 223F 027A 0000:_sqrt (0250: CB)
        14:
          56:
            57:
              8B7E:
                04:
                  85FF740D83FF01740883FF027403E9E9018B46080B:
                    0. 08 D7CF 0225 0000:___spawn
                  8A451A24033C01751C837D06007506578B1DFF5714:
                    0. 0E 95B8 01A3 0000:?overflow@strstreambuf@@UACHH@Z
                06:
                  8A451E24033C01751E837D06007506578B1DFF5F28:
                    0. 0D B3A4 01B5 0000:?overflow@strstreambuf@@VACHH@Z
                  B9....51:
                    E8....89C683C40257E8....89D109C189:
                      0. 13 DC7A 00A0 (l)0000:UM_ARRAY_TYPE
                    ..........89C683C40257E8....89D109:
                      0. 15 CB54 00A4 (l)0000:UM_ARRAY_TYPE
              A1....8946ECC706....0000FF76:
                06FF7604E8....8946FA:
                  0. 0A F581 00AD 0000:_strtof
                08FF7606..........89:
                  0. 0B F620 00BB 0000:_strtof
                0AFF7608FF7606FF7604:
                  0. 01 3E9B 00B3 0000:_strtof
                0CFF760AFF7608FF7606:
                  0. 00 0000 00C1 0000:_strtof
              BE....8CD08EC08D7EF2B90600F3A5A4390E....7418BF:
                0. 00 0000 00B5 (l)0000:BUILD_FILEINFO_STRING (0094: C3)
                1. 00 0000 00B9 (l)0000:BUILD_FILEINFO_STRING (0094: 5E)
            833E....007503E9:
              05018B56:
                068B46048956F68946F4A1:
                  0. 02 D98E 0127 0000:__mbslwr (REF 00EE: .)
                088B46068956F68946F4A1:
                  0. 02 D98E 0129 0000:__mbslwr (REF 00EE: .)
              08018B56:
                068B46048956F68946F4A1:
                  0. 02 D98E 012A 0000:__mbsupr (REF 00F1: .)
                088B46068956F68946F4A1:
                  0. 02 D98E 012C 0000:__mbsupr (REF 00F1: .)
            8B:
              56:
                0E8B460C8956F68946F4C45E04268B4716260B4714740A:
                  0. 1F 72F7 0174 0000:?seekoff@filebuf@@UECJJW4seek_dir@ios@@H@Z
                108B460E8956F68946F4C45E06268B4716260B4714740A:
                  0. 1E DB19 017C 0000:?seekoff@filebuf@@VECJJW4seek_dir@ios@@H@Z
              5E:
                14C7070000FF7612FF7610FF760EFF760CE8....83C408:
                  0. 17 7402 02DE 0000:_remquo
                16C7070000FF7614FF7612FF7610FF760E..........83:
                  0. 18 ED2E 0314 0000:_remquo
            C45E:
              04268B5702268B078956EE8946ECC746F00000C746F200:
                0. 05 DC52 01D0 (l)0000:UM_NESTNAME (REF 00A8: .)
              1426C7070000FF7612FF7610FF760EFF760CE8....83C4:
                0. 18 E2F3 02E0 0000:_remquo
              1626C7070000FF7614FF7612FF7610FF760E:
                0. 19 54DD 0316 0000:_remquo
          C746FA14005657FF760EFF760C:
            E8....83C40489C68D4C05518D:
              0. 03 9F3A 011A (l)0000:EXECUTE
            ..........83C40489C68D4C05:
              0. 04 4342 012A (l)0000:EXECUTE
        16:
          5657C45E:
            04268A472C24033C017539268B470A260B4708750BFF:
              0. 2C 2D4C 0264 0000:?overflow@strstreambuf@@UECHH@Z
            06268A473024033C01753B268B470A260B4708750BFF:
              0. 2B B782 0278 0000:?overflow@strstreambuf@@VECHH@Z
          8B56:
            108B460E8956F48946F2168D46FE50168D46F650FF760CFF:
              0. 0C 7BA9 0166 0000:_gcvt
            128B46108956F48946F2168D46FE50168D46F650FF760EFF:
              0. 0B 3A8C 017E 0000:_gcvt
        18:
          56:
            1EB8....50:
              E8....8956EA8946E883C404FF760AFF7608E8:
                0. 00 0000 00DF (l)0000:UM_ARRAY_TYPE
              ..........8956EA8946E883C404FF760AFF7608:
                0. 01 3E9B 00E3 (l)0000:UM_ARRAY_TYPE
            57:
              31FF:
                C606....018CD889C189F8BB....990BC3894EEA8946:
                  0. 1A 0256 0071 0000:_tsr_already_in
                FF76:
                  06FF7604E8....8946E883C404C45E0426807F01:
                    0. 1C 2551 0215 0000:__splitpath
                  08FF7606..........8946E883C404C45E062680:
                    0. 1D EB67 0225 0000:__splitpath
              833E....007408C746F0FDFFE9:
                9801C746F0FEFF8B16:
                  0. 01 FB44 01BF 0000:__heapchk
                A801C746F0FEFF8B16:
                  0. 01 FB44 01CF 0000:__heapchk
              C746F20000C746EC0000C746EE0000C746F000008B5E:
                0683:
                  0. 24 BD3D 028A 0000:RESPONSE_EXPAND
                0883:
                  0. 23 1FEA 02A0 0000:RESPONSE_EXPAND
            8B:
              4E:
                0481F900017303E9D100833E....007503E9C000A1:
                  0. 02 D98E 0102 0000:__ismbcalnum (00CA: 07) (REF 00EA: .)
                  1. 02 D98E 0102 0000:__ismbcgraph (00CA: 17) (REF 00EA: .)
                  2. 02 D98E 0102 0000:__ismbcprint (00CA: 57) (REF 00EA: .)
                0681F900017303E9D100833E....007503E9C000A1:
                  0. 02 D98E 0102 0000:__ismbcalnum (00CA: 07) (REF 00EA: .)
                  1. 02 D98E 0102 0000:__ismbcgraph (00CA: 17) (REF 00EA: .)
                  2. 02 D98E 0102 0000:__ismbcprint (00CA: 57) (REF 00EA: .)
              5E:
                048B470E8B4F0A8B57088B5F0C80E47F8946FE895EFC89:
                  0. 8D CB8A 018F 0000:?abs@@YANABVcomplex@@@Z
                068B470E8B4F0A8B57088B5F0C80E47F8946FE895EFC89:
                  0. 8C C044 01A5 0000:?abs@@ZANABVcomplex@@@Z
              760685F6740D83FE01740883FE027403E9E8018B460A0B46:
                0. 07 D1D1 0225 0000:___spawn
            C45E:
              04268B470E268B4F0A268B5708268B5F0C80E47F8946FE:
                0. 95 F729 0197 0000:?abs@@YANAFVcomplex@@@Z
              06268B470E268B4F0A268B5708268B5F0C80E47F8946FE:
                0. 94 9C74 01AD 0000:?abs@@ZANAFVcomplex@@@Z
              0826FF770626FF770426FF770226FF3726FF770E26FF77:
                0. 0A 18D3 0100 0000:?pow@@YA?EVcomplex@@AFV1@N@Z
              0A26FF770626FF770426FF770226FF3726FF770E26FF77:
                0. 09 EA72 0110 0000:?pow@@ZA?EVcomplex@@AFV1@N@Z
          578B7E:
            048B5E06FF7706FF7704FF7702FF37FF770EFF770CFF77:
              0. 05 56EF 00EB 0000:?pow@@YA?AVcomplex@@ABV1@N@Z
            068B5E08FF7706FF7704FF7702FF37FF770EFF770CFF77:
              0. 04 07D7 00FB 0000:?pow@@ZA?AVcomplex@@ABV1@N@Z
          8B4E:
            0481F900017303E9B900833E....007503E9A900A1....0B:
              0. 01 4E95 00E8 0000:__ismbcalpha (REF 00D1: .)
            0681F900017303E9B900833E....007503E9A900A1....0B:
              0. 01 4E95 00E8 0000:__ismbcalpha (REF 00D1: .)
        1A:
          1EB8....50:
            E8....83C40489D109C18956FE8946FC7503E98801:
              0. 13 95F8 01F6 0000:_tzset (REF 0173: .)
            ..........83C40489D109C18956FE8946FC7503E9:
              0. 15 38E6 01FC 0000:_tzset (REF 0175: .)
          56:
            57:
              8B7E:
                04:
                  85FF7503E997018BF7803D3D7426803C007503E988:
                    0. 07 7C53 01B1 0000:_putenv
                  8B76:
                    06C746E80044897EEA8D4EE85151E8....83C4:
                      0. 0B DD87 00ED 0000:_fstat
                    0EFF760CFF760AFF7608FF7606:
                      E8....83C408:
                        0. 11 31E9 0451 (l)0000:_SINHCOSH
                        1. 11 A486 0429 (l)0000:_SINHCOSH
                      ..........83:
                        0. 13 DB9D 045F (l)0000:_SINHCOSH
                        1. 13 E2E2 0487 (l)0000:_SINHCOSH
                06:
                  85FF7503E9AB018BF7803D3D7428803C007503E99C:
                    0. 06 2E3E 01C5 0000:_putenv
                  8B7608C746E80044897EEA8D4EE85151:
                    0. 0C FC44 00FB 0000:_fstat
              BE....8CD08EC08D7EF2B90600F3A5A4390E....742FC746:
                0. 01 4072 00F9 (l)0000:BUILD_FILEINFO_STRING (00D7: C3)
                1. 01 4072 00FD (l)0000:BUILD_FILEINFO_STRING (00D7: 5E)
            8B76:
              04C746E800448976EA168D46E8501650E8....83C40883:
                0. 09 60BA 010D 0000:_fstat
              06C746E800448976EA168D46E8501650..........83C4:
                0. 0A 31AA 011B 0000:_fstat
        1C:
          56:
            578B:
              46:
                060B460474188B56068B46048956E68946E403460C48:
                  0. 0D 8C0F 0472 0000:__fullpath
                080B460674188B56088B46068956E68946E403460E48:
                  0. 0C 0800 04A0 0000:__fullpath
              76:
                088B7E128B46108B5E0E8B4E0C8B560A8946FE895EFC:
                  0. 51 E704 02C9 0000:__FLOATCVT
                0A8B7E148B46128B5E108B4E0E8B560C8946FE895EFC:
                  0. 50 2D76 02E9 0000:__FLOATCVT
              7E:
                0C833E....007503E9:
                  C801C746F4000085FF7503E9B3:
                    0. 03 0A1D 01F6 0000:__mbsnicmp (REF 01A5: .)
                  D301C746F400008B0E....0B0E:
                    0. 00 0000 0201 0000:__mbsnbicmp (REF 01B2: .)
                0E833E....007503E9:
                  C801C746F4000085FF7503E9B3:
                    0. 03 0A1D 01F8 0000:__mbsnicmp (REF 01A5: .)
                  D301C746F400008B0E....0B0E:
                    0. 00 0000 0203 0000:__mbsnbicmp (REF 01B2: .)
            833E....007503E9B601C746F40000A1....0B06....7416C4:
              0. 01 8709 01DE 0000:__mbsicmp (01BC: C3) (REF 0197: .)
              1. 01 8709 01E0 0000:__mbsicmp (01BC: E5) (REF 0197: .)
          8B46:
            0C8B5E0A8B4E088B56068946:
              EE895EEC894EEA8956E8837E:
                0. 05 A546 0062 0000:__arcerr
              FE895EFC894EFA8956F88B46:
                0. 23 5D23 0062 0000:___trigerr
            0E8B5E0C8B4E0A8B56088946:
              EE895EEC894EEA8956E8837E:
                0. 05 2D50 0064 0000:__arcerr
              FE895EFC894EFA8956F88B46:
                0. 23 1882 0064 0000:___trigerr
          FF76:
            0CFF760AFF7608FF7606E8....83C40883F8017704804E0C:
              0. 5A B540 008F 0000:___matherr
            0EFF760CFF760AFF7608..........83C40883F801770480:
              0. 5B A3E5 0093 0000:___matherr
        1E:
          56578B46088946F68B460A8946F48B46068946F88B46048946FA:
            0. 6F 0BDD 0721 0000:__sfmt (REF 0588: .)
          8B46:
            0C8B5E0A8B4E088B56068946:
              EE895EEC894EEA8956E8837E:
                0. 07 03BE 006A 0000:__arcerr
              FE895EFC894EFA8956F88B46:
                0. 23 0018 0068 0000:___trigerr
            0E8B5E0C8B4E0A8B56088946:
              EE895EEC894EEA8956E8837E:
                0. 07 B889 006C 0000:__arcerr
              FE895EFC894EFA8956F88B46:
                0. 23 45B9 006A 0000:___trigerr
          FF76:
            0CFF760AFF7608FF7606E8....83C40883F8017704804E0C:
              0. 61 B486 0096 0000:___matherr
            0EFF760CFF760AFF7608..........83C40883F801770480:
              0. 62 4A8D 009A 0000:___matherr
        20:
          56:
            57:
              8B:
                5E:
                  048B078946E0C646E30089C38A0F80F93F750CC646E3:
                    0. 1A 77D8 0152 0000:_unmangle_pt
                  068B078946E0C646E30089C38A0F80F93F750CC646E3:
                    0. 1A 5782 0155 0000:_unmangle_pt
                76:
                  0AC746FE00008B5E088A0FFF460884C97503E9B00280:
                    0. CF F360 02EF 0000:_strftime
                  0CC746FE00008B5E0A8A0FFF460A84C97503E9B60280:
                    0. CF C361 02F5 0000:_strftime
                7E:
                  04:
                    8B:
                      5E:
                        088B47068B4F028B178B5F0480E47F50535152:
                          0. 13 DE41 0264 0000:??K@YA?AVcomplex@@ABV0@0@Z
                        0E8B47068B4F028B178B5F0480E47F50535152:
                          0. 13 FC21 01F6 0000:??K@YA?AVcomplex@@NABV0@@Z
                      760EFF760CFF760AFF7608FF7606:
                        E8....83C408:
                          0. 23 6CD7 04BD (l)0000:_ASINCOS
                          1. 23 C48E 048B (l)0000:_ASINCOS
                        ..........83:
                          0. 24 DDD5 04C5 (l)0000:_ASINCOS
                          1. 24 FA11 04F7 (l)0000:_ASINCOS
                    C746EAFFFFC746ECFFFF8B450A3DB2078946E07D03:
                      0. 17 FA33 0114 0000:___localstructtmtotime_t
                  06:
                    8B5E:
                      0A8B47068B4F028B178B5F0480E47F50535152:
                        0. 12 2D19 028A 0000:??K@ZA?AVcomplex@@ABV0@0@Z
                      108B47068B4F028B178B5F0480E47F50535152:
                        0. 12 50FC 0210 0000:??K@ZA?AVcomplex@@NABV0@@Z
                    C746EAFFFFC746ECFFFF8B450A3DB2078946E07D03:
                      0. 17 EC0B 011E 0000:___localstructtmtotime_t
              C746:
                EAFFFFC746ECFFFFC45E:
                  04268B470A3DB2078946E07D:
                    0. 19 5B97 0126 0000:___localstructtmtotime_t
                  06268B470A3DB2078946E07D:
                    0. 19 4FC6 0130 0000:___localstructtmtotime_t
                FE0000C45E:
                  0A268A17FF460A84D27503E94F0380FA25:
                    0. CF A693 038C 0000:_strftime
                  0C268A17FF460C84D27503E9550380FA25:
                    0. CF 9A55 0392 0000:_strftime
            C45E:
              0C268B4706268B4F02268B17268B5F0480E47F50535152:
                0. 17 9407 02C0 0000:??K@YA?EVcomplex@@AFV0@0@Z
              0E268B4706268B4F02268B17268B5F0480E47F50535152:
                0. 16 A5D5 02E6 0000:??K@ZA?EVcomplex@@AFV0@0@Z
              10268B4706268B4F02268B17268B5F0480E47F50535152:
                0. 17 A607 0232 0000:??K@YA?EVcomplex@@NAFV0@@Z
              12268B4706268B4F02268B17268B5F0480E47F50535152:
                0. 16 A5E7 024C 0000:??K@ZA?EVcomplex@@NAFV0@@Z
          E8....833E....007404FF16....C646E1318A46048846E08B46:
            0. 0F 7DD8 0035 0000:__dos_keep
            1. 0D 8D00 0033 0000:__dos_keep
          ..........A1....0B06....7404FF1E....C646E1318A460688:
            0. 10 4A57 0039 0000:__dos_keep
            1. 12 F655 003B 0000:__dos_keep
        2256578B460E8946F28B46108946F08B560C8B460A8956F68946F4:
          0. 7A 0B48 074A 0000:__sfmt (REF 05AA: .)
        24:
          168D46E050:
            E8....83C4048A46E08846EC168D5EE853E8....16:
              0. 05 6BD5 009A 0000:_time
            ..........83C4048A46E08846EC168D5EE853:
              0. 00 0000 00A2 0000:_time
          56578B:
            46:
              060B46047503E9DF018B56068B46048956E28946E08E:
                0. 1C EB01 01F7 0000:_putenv
              080B46067503E9F3018B56088B46068956E28946E08E:
                0. 1B 940D 020B 0000:_putenv
            56:
              0A8B46088956:
                DE8946DCC45E0426C47704268B4402C4:
                  0. 13 A8CE 03FC 0000:?floatstr@istream@@AECXPED@Z (REF 03A2: .)
                F68946F48B560E8B460C8956F28946F0:
                  0. 83 5F9A 0790 0000:__sfmt (REF 05DE: .)
              0C8B460A8956DE8946DCC45E0626C47704268B4402C4:
                0. 12 988C 0412 0000:?floatstr@istream@@BECXPED@Z (REF 03B4: .)
          8D46E050:
            E8....83C4028A46E08846EC8D4EE851E8....8D46E0:
              0. 02 F6B7 0092 0000:_time
            ..........83C4028A46E08846EC8D4EE851:
              0. 00 0000 009A 0000:_time
        2856:
          57:
            31FF897EDA897EDC897EDE897EE0C45E:
              0826393F7F03E98D:
                0. 29 B670 0314 0000:RESPONSE_EXPAND
              0A26393F7F03E9A0:
                0. 28 60CA 032B 0000:RESPONSE_EXPAND
            8B:
              56:
                0C8B460A8956DA8946D8C646DC69C45E0426C4770426:
                  0. 17 A216 0429 0000:?intstr@istream@@AECDPEDH@Z (REF 03CC: .)
                0E8B460C8956DA8946D8C646DC69C45E0626C4770426:
                  0. 16 A67B 043D 0000:?intstr@istream@@BECDPEDH@Z (REF 03DC: .)
                108B460E8956F28946F08B56148B46128956EE8946EC:
                  0. 8E B479 07B7 0000:__sfmt (REF 0600: .)
              76:
                0C8B46148B5E128B4E108B560E8946FE895EFC894EFA:
                  0. 4F 210A 0300 0000:__FLOATCVT
                0E8B46168B5E148B4E128B56108946FE895EFC894EFA:
                  0. 4E D859 031D 0000:__FLOATCVT
              7E:
                048B:
                  5E088B47068B4F028B178B5F0489C6D1E609DE09:
                    0. 7D F386 0235 0000:?pow@@YA?AVcomplex@@ABV1@0@Z
                  7606FF760EFF760CFF760AFF7608:
                    E8....83C408:
                      0. 11 5172 0407 (l)0000:_SINCOS
                      1. 11 B8D4 0432 (l)0000:_SINCOS
                    ..........83:
                      0. 13 33FE 046A (l)0000:_SINCOS
                      1. 13 DB9D 043F (l)0000:_SINCOS
                068B5E0A8B47068B4F028B178B5F0489C6D1E609DE09:
                  0. 7C BD3B 0253 0000:?pow@@ZA?AVcomplex@@ABV1@0@Z
          C45E:
            0C268B4706268B4F02268B17268B5F0489C6D1E609DE09:
              0. 9D 808A 027E 0000:?pow@@YA?EVcomplex@@AFV1@0@Z
            0E268B4706268B4F02268B17268B5F0489C6D1E609DE09:
              0. 9C 2B54 029C 0000:?pow@@ZA?EVcomplex@@AFV1@0@Z
          FF76:
            12FF7610FF760EFF760CE8....83C40889C353FF760AFF:
              0. 09 B921 0564 0000:_atan2 (053A: C3)
              1. 09 B921 0567 0000:_atan2 (053A: 8B)
            14FF7612FF7610FF760E..........83C40889C353FF76:
              0. 0A 2B4B 05A4 0000:_atan2 (0579: CB)
              1. 0A 2B4B 05A7 0000:_atan2 (0579: 8B)
        2A56578B:
          46060B46047503E9:
            8503FF7606FF7604E8....8956F289:
              0. 11 BA77 03A9 (l)0000:DST_ADJUST (REF 0146: .)
            9903FF7606FF7604E8....8956F289:
              0. 11 BA77 03BD (l)0000:DST_ADJUST (REF 014C: .)
          7E04:
            85FF7503E9:
              2B0357E8....8956EA8946E88A0584C0:
                0. 07 7610 034D (l)0000:DST_ADJUST_BACK (REF 010F: .)
              3F0357E8....8956EA8946E88A0584C0:
                0. 07 7610 0361 (l)0000:DST_ADJUST_BACK (REF 0115: .)
            8B760685FF7503E9:
              0E0357E8....8956EE8946EC8A:
                0. 0C 9BC7 0330 (l)0000:DST_ADJUST (REF 011B: .)
              220357E8....8956EE8946EC8A:
                0. 0C 9BC7 0344 (l)0000:DST_ADJUST (REF 0121: .)
        2C56:
          578B46060B46047503E9:
            B003FF7606FF7604E8....8956EE89:
              0. 11 94AE 03D4 (l)0000:DST_ADJUST_BACK (REF 0146: .)
            C403FF7606FF7604E8....8956EE89:
              0. 11 94AE 03E8 (l)0000:DST_ADJUST_BACK (REF 014C: .)
          8B5E:
            048B77028B740203F3837C0A00741031C05053E8....85:
              0. 25 3896 016B 0000:??5@YAAAVistream@@AAV0@AAVcomplex@@@Z
            068B77028B740203F3837C0A00741231C05053:
              0. 00 0000 0181 0000:??5@ZAAAVistream@@AAV0@AAVcomplex@@@Z
          C45E:
            04268B5702268B078956D68946D4C646DD008EC289C326:
              0. 25 1DB7 01B6 0000:_unmangle_pt
            06268B5702268B078956D68946D4C646DD008EC289C326:
              0. 25 3DED 01B8 0000:_unmangle_pt
        2E56578B46:
          088B4E0A83F9027C0583F9247E0D8BD8C6070089D85F:
            0. 30 4BEA 00E6 0000:_ultoa
          0A8B4E0C83F9027C0583F9247E0D8BD8C6070089D85F:
            0. 2F C456 00F0 0000:_ultoa
          0C83F8027C0583F8247E11C45E0826C607008CC289D8:
            0. 2E 65A4 00EC 0000:_ultoa
          0E83F8027C0583F8247E11C45E0A26C607008CC289D8:
            0. 2D C3C6 00F6 0000:_ultoa
        30:
          31C050:
            4050168D46D050FF76:
              06FF7604E8....FF760AFF760816:
                0. 0A 92B1 0049 0000:??6ostream@@QECAEV0@K@Z
              08FF7606..........FF760CFF76:
                0. 0B A065 004F 0000:??6ostream@@RECAEV0@K@Z
            50168D46D050FF76:
              06FF7604E8....FF760AFF7608168D:
                0. 09 6934 0048 0000:??6ostream@@QECAEV0@J@Z
              08FF7606..........FF760CFF760A:
                0. 0A 841E 004E 0000:??6ostream@@RECAEV0@J@Z
          56:
            57C45E:
              0426C47704268B4402C4760403F026837C1200741331:
                0. 07 8F2D 01CB 0000:??5@YAAEVistream@@AEV0@AEVcomplex@@@Z
              0626C47704268B4402C4760603F026837C1200741531:
                0. 06 93B8 01E1 0000:??5@ZAAEVistream@@AEV0@AEVcomplex@@@Z
            8B76:
              0431C050:
                40508D46D05056E8....FF7608FF76068D46D0:
                  0. 06 F2AD 003C 0000:??6ostream@@QACAAV0@K@Z
                508D46D05056E8....FF7608FF76068D46D050:
                  0. 05 6BD5 003B 0000:??6ostream@@QACAAV0@J@Z
              0631C050:
                40508D46D05056..........FF760AFF76088D:
                  0. 07 48EE 0042 0000:??6ostream@@RACAAV0@K@Z
                508D46D05056..........FF760AFF76088D46:
                  0. 06 7C0A 0041 0000:??6ostream@@RACAAV0@J@Z
        3256578B5E048B078946D085C07503E9:
          830089C38A078946CE9889:
            0. 03 7BF0 011E (l)0000:UM_ZNAME (REF 0023: .)
          850089C38A078946CE9889:
            0. 03 7BF0 0126 (l)0000:UM_ZNAME (REF 0023: .)
        3456578B7E:
          04:
            897EEC8D46EE50E8....83C402833E....00740EB8:
              0. 05 084A 05D6 0000:_strtod (REF 03DF: .)
            B8F87F9989D189CB89450E895D0C894D0A89550889:
              0. A4 CE8E 0221 0000:?sqrt@@YA?AVcomplex@@ABV1@@Z
          06:
            897EEC8D46EE50..........83C402833E....0074:
              0. 06 E2CE 0604 0000:_strtod (REF 03F1: .)
            B8F87F9989D189CB89450E895D0C894D0A89550889:
              0. A3 76FB 0235 0000:?sqrt@@ZA?AVcomplex@@ABV1@@Z
        3656578B56:
          068B46048956EC8946EA168D46EE50E8....83C40483:
            0. 01 8528 0606 0000:_strtod (REF 0401: .)
          088B46068956EC8946EA168D46EE50..........83C4:
            0. 03 F4DB 0634 0000:_strtod (REF 0413: .)
        385657B8F87F9989D189CBC476:
          042689440E26895C0C26894C0A26:
            0. D7 2202 0287 0000:?sqrt@@YA?EVcomplex@@AFV1@@Z
          062689440E26895C0C26894C0A26:
            0. D6 33D1 029B 0000:?sqrt@@ZA?EVcomplex@@AFV1@@Z
        3AC746C63A0056578B76:
          04C746C800008D4ECA894EEAC746EE1F00:
            0. 60 8573 02A4 0000:__SCANFLOAT (REF 017D: .)
            1. 5C BBC1 0279 0000:__SCANFLOAT (REF 0171: .)
          06C746C800008D4ECA894EEAC746EE1F00:
            0. 5C 024B 0281 0000:__SCANFLOAT (REF 0171: .)
            1. 60 C228 02AC 0000:__SCANFLOAT (REF 017D: .)
        3C56FF76:
          0AFF7608FF7606FF7604E8....83C40889C383EB0183FB:
            0. 07 C6D2 0341 0000:_tan (0319: C3)
            1. 07 C6D2 0343 0000:_tan (0319: E5)
          0CFF760AFF7608FF7606..........83C40889C383EB01:
            0. 09 DE55 0377 0000:_tan (034D: CB)
            1. 09 DE55 0379 0000:_tan (034D: E5)
        4A56578B7E:
          06B8....50FF7604E8....83C40485C0740AB8020050:
            0. 01 3E9B 0195 0000:_stat (REF 0164: .)
          08B8....50FF7606..........83C40485C0740CB802:
            0. 02 C25D 01AF 0000:_stat (REF 017C: .)
        50:
          568B76:
            04FF7404FF7402B8....508D46B050E8....8D46B050E8:
              0. 00 0000 00B6 0000:?dbp@streambuf@@QACXXZ
            06FF7404FF7402B8....508D46B050..........8D46B0:
              0. 01 FDA2 00CE 0000:?dbp@streambuf@@RACXXZ
          C45E:
            0426FF770626FF77041EB8....50168D46B050E8....168D:
              0. 04 0093 00F4 0000:?dbp@streambuf@@QECXXZ
            0626FF770626FF77041EB8....50168D46B050:
              0. 05 0A5E 010C 0000:?dbp@streambuf@@RECXXZ
        5256571EB8....50FF76:
          06FF7604E8....83C40889D109C1740AB8:
            0. 04 197D 01F5 0000:_stat (REF 01BF: .)
          08FF7606..........83C40889D109C174:
            0. 05 3EDB 020F 0000:_stat (REF 01D7: .)
        5AC746AE5A0056578D46C48946E4C746E62000C746B00000C45E:
          0A:
            0. 22 4F51 0816 0000:__pformat
          0E:
            0. 21 E0C6 0831 0000:__pformat
        5C5657C746C40000C746C6F8008D5E12895EA68D77F88CD08EC08D:
          0. 1C BAB4 038F 0000:?__eh_throw@@YAXPBDP6CHXZIZZ
        5E:
          56578B7E:
            04F6460801740EB8....8946FE8B46088946FAEB0EB8:
              0. 00 0000 01B2 0000:_qsort
            06F6460A01740EB8....8946FE8B460A8946FAEB0EB8:
              0. 00 0000 01B2 0000:_qsort
          C746AA5E0056578D46C28946E2C746E42000C746AC00008B5E:
            08:
              0. 1E A67A 0800 0000:__pformat
            0C:
              0. 20 D846 081A 0000:__pformat
        625657:
          8B:
            76:
              088B5E10368B0F894ED8F64606807503BE0600C45E0A:
                0. 20 661C 0701 0000:___floatfmt
              0A8B5E12368B0F894ED8F64608807503BE0600C45E0C:
                0. 1F B348 0713 0000:___floatfmt
            7E:
              088B5E0E8B0F894ED8F64606807503BF06008B5E0A8B:
                0. 1B F818 0679 0000:___floatfmt
              0A8B5E108B0F894ED8F64608807503BF06008B5E0C8B:
                0. 1A F7F6 068B 0000:___floatfmt
          C45E04268B5702268B078956A28946A089D109C17503E9:
            9F:
              0. 10 94BC 017A (l)0000:UM_ZNAME (REF 0030: .)
            A1:
              0. 10 94BC 0182 (l)0000:UM_ZNAME (REF 0030: .)
        645657C746C00000C746C20C018D5E16895E9E8D77F88CD08EC08D:
          0. 1E E788 03CD 0000:?__eh_throw@@ZAXPBDP7CHXZIZZ
        745657C746B00000C746B24A018CD18D7614894E9289769083C6F8:
          0. 28 F250 0439 0000:?__eh_throw@@YAXPFDP6CHXZIZZ
        7A56578B7E:
          04B8F87F9989D189CB89450E895D0C894D0A89550889:
            0. 91 F006 02DF 0000:?pow@@YA?AVcomplex@@ABV1@H@Z
          06B8F87F9989D189CB89450E895D0C894D0A89550889:
            0. 90 5A2C 02F9 0000:?pow@@ZA?AVcomplex@@ABV1@H@Z
        7C5657C746AC0000C746AE5E018CD18D7618894E8A89768883C6F8:
          0. 2A 15F2 0479 0000:?__eh_throw@@ZAXPFDP7CHXZIZZ
    8A:
      46:
        04:
          8B5E0683FB0074423C0A74155DFF4F0278418BD78B3F8E470CAA:
            0. 10 64D8 00BF 0000:_fputc 0068:_fgetc
          8CD9C55E068CDA0BD3744B3C0A74145DFF4F0478458BD7C43FAA:
            0. 12 F126 00D0 0000:_fputc 0072:_fgetc
          B4251EC55606CD211F5DC3:
            0. 00 0000 0011 0000:__dos_setvect
        06:
          8B5E0883FB0074483C0A74155DFF4F0278478BD78B3F8E470CAA:
            0. 0F 42FF 00C9 0000:_fputc 0070:_fgetc
          8CD9C55E088CDA0BD374513C0A74145DFF4F04784B8BD7C43FAA:
            0. 11 4ACE 00DA 0000:_fputc 007A:_fgetc
          988B5E0489471489D85DC3:
            0. 00 0000 0011 (l)0000:?sfill@@YAAAVios@@AAV1@H@Z
          B4251EC55608CD211F5DCB:
            0. 00 0000 0011 0000:__dos_setvect
        0898:
          8B5E0689471489D85DCB:
            0. 00 0000 0011 (l)0000:?sfill@@ZAAAVios@@AAV1@H@Z
          C45E042689471A8CC289D85DC3:
            0. 00 0000 0014 (l)0000:?sfill@@YAAEVios@@AEV1@H@Z
        0A98C45E062689471A8CC289D85DCB:
          0. 00 0000 0014 (l)0000:?sfill@@ZAAEVios@@AEV1@H@Z
      5E:
        0430FF:
          8A87....25:
            01005DC3:
              0. 00 0000 0011 0000:__ismbbkalnum
            02005DC3:
              0. 00 0000 0011 0000:__ismbbkpunct
            03005DC3:
              0. 00 0000 0011 0000:__ismbbkprint
            04005DC3:
              0. 00 0000 0011 0000:__ismbblead
            08005DC3:
              0. 00 0000 0011 0000:__ismbbtrail
          F687....:
            01750BF687....:
              03750431C0EB03B801005DC3:
                0. 00 0000 001F 0000:__ismbbalpha (REF 0011: .)
              07750431C0EB03B801005DC3:
                0. 00 0000 001F 0000:__ismbbalnum (REF 0011: .)
            02750BF687....10750431C0EB03B801005DC3:
              0. 00 0000 001F 0000:__ismbbpunct (REF 0011: .)
            03750BF687....:
              17750431C0EB03B801005DC3:
                0. 00 0000 001F 0000:__ismbbgraph (REF 0011: .)
              57750431C0EB03B801005DC3:
                0. 00 0000 001F 0000:__ismbbprint (REF 0011: .)
        0630FF:
          8A87....25:
            01005DCB:
              0. 00 0000 0011 0000:__ismbbkalnum
            02005DCB:
              0. 00 0000 0011 0000:__ismbbkpunct
            03005DCB:
              0. 00 0000 0011 0000:__ismbbkprint
            04005DCB:
              0. 00 0000 0011 0000:__ismbblead
            08005DCB:
              0. 00 0000 0011 0000:__ismbbtrail
          F687....:
            01750BF687....:
              03750431C0EB03B801005DCB:
                0. 00 0000 001F 0000:__ismbbalpha (REF 0011: .)
              07750431C0EB03B801005DCB:
                0. 00 0000 001F 0000:__ismbbalnum (REF 0011: .)
            02750BF687....10750431C0EB03B801005DCB:
              0. 00 0000 001F 0000:__ismbbpunct (REF 0011: .)
            03750BF687....:
              17750431C0EB03B801005DCB:
                0. 00 0000 001F 0000:__ismbbgraph (REF 0011: .)
              57750431C0EB03B801005DCB:
                0. 00 0000 001F 0000:__ismbbprint (REF 0011: .)
      66:
        04CD16750A807E0401751133C0EB0D807E040175070BC07503B8FF:
          0. 88 CE9C 00A8 0000:__bios_keybrd 0023:__bios_equiplist 0026:__bios_memsize 0029:__bios_printer 003D:__bios_serialcom 004D:__bios_timeofday 006F:__bios_disk
          1. 85 E8D9 00A5 0000:__bios_keybrd 0023:__bios_equiplist 0026:__bios_memsize 0029:__bios_printer 003D:__bios_serialcom 004D:__bios_timeofday 006D:__bios_disk
        06CD16750A807E0601751133C0EB0D807E060175070BC07503B8FF:
          0. 85 6E40 00A5 0000:__bios_keybrd 0023:__bios_equiplist 0026:__bios_memsize 0029:__bios_printer 003D:__bios_serialcom 004D:__bios_timeofday 006D:__bios_disk
          1. 88 C37B 00A8 0000:__bios_keybrd 0023:__bios_equiplist 0026:__bios_memsize 0029:__bios_printer 003D:__bios_serialcom 004D:__bios_timeofday 006F:__bios_disk
    8B:
      16....:
        8B46:
          04258001A3....8BC25DC3:
            0. 00 0000 0014 0000:__umask
          06258001A3....8BC25DCB:
            0. 00 0000 0014 0000:__umask
        A1....:
          8B4E088B5E06890E....891E....89D109C17402EB05:
            0. 03 9A61 0027 0000:?set_unexpected@@ZAP7AXXZP7AXXZ@Z (REF 0005: ?unexpected_fp@@3P7AXXZE)
            1. 03 9A61 0027 0000:?set_terminate@@ZAP7AXXZP7AXXZ@Z (REF 0005: ?terminate_fp@@3P7AXXZE)
          BB6D4EB9C641:
            E8....05393083D2008916....A3:
              0. 01 FB44 002B 0000:_random
            ..........05393083D2008916....A3:
              0. 00 0000 002D 0000:_random
      1E....8B4604A3....8BC385C07503B8....5DC3:
        0. 00 0000 0018 0000:?set_unexpected@@YAP6AXXZP6AXXZ@Z (REF 0005: ?unexpected_fp@@3P6AXXZA)
        1. 00 0000 0018 0000:?set_terminate@@YAP6AXXZP6AXXZ@Z (REF 0005: ?terminate_fp@@3P6AXXZA)
      46:
        04:
          257F005DC3:
            0. 00 0000 000B 0000:_toascii
          31C9:
            5150..........:
              83C40485C0B8000075038B46045DC3:
                0. 00 0000 001E 0000:__onexit
              8BE55DC3:
                0. 00 0000 0013 0000:_atexit
            890E....A3....5DC3:
              0. 00 0000 0011 0000:_srand
          33C95150E8....83C4045DC3E9:
            0. 00 0000 0015 0000:__fmalloc 0012:__ffree
          3B4606B80100:
            7401485DC3:
              0. 00 0000 0011 0000:??8Type_info@@QBAHABV0@@Z
            7501485DC3:
              0. 00 0000 0011 0000:??9Type_info@@QBAHABV0@@Z
          3DFF0072028BD88B5606B438CD218BC2730233C05DC3:
            0. 00 0000 001C 0000:_country
          4050:
            1EB8....50E8....8BE55DC3:
              0. 00 0000 0014 (l)0000:_exit_exit
            B8....50E8....8BE55DC3:
              0. 00 0000 0013 (l)0000:_exit_exit
          813E....A403752683F820720F83F87F730A8BD8D1E38B87:
            0. 12 4ECC 0036 0000:__mbbtombc
          83:
            C0:
              205DC3:
                0. 00 0000 000B 0000:__tolower
              E05DC3:
                0. 00 0000 000B 0000:__toupper
            F80176:
              3183F820772C894604B8020050B8....50FF7604E8:
                0. 00 0000 003E 0000:_tab_sizeputenv
              3483F820772F894604B80200501EB8....50FF7604E8:
                0. 00 0000 0041 0000:_tab_sizeputenv
          8AC432E489C330FFF687....04740C8A5E0430FFF687....0875:
            0. 0A C7EF 002A 0000:__ismbclegal
          8B:
            4E06D3C05DC390558BEC8B46048B4E06D3C85DC390558BEC8B:
              0. 36 B13E 0056 0000:__rotl 000E:__rotr 001C:__lrotl 0038:__lrotr
            5606:
              5D8BC8250F00D1E9D1E9D1E9D1E903D1C3558BEC8B4604:
                0. 40 F66F 0060 0000:__farptr_norm 001A:__farptr_fromlong 0042:__farptr_tolong
              A3....8916....5DC3E8....803E....00740AA0....C6:
                0. 01 4E95 0177 0000:___redirect_kb 0012:_getch 003A:_getche 006D:_ungetch 0091:_dos_set_verify 009F:_dos_get_verify 00A5:_dos_set_ctrl_break 00B3:_dos_get_ctrl_break 00BC:_dos_getdiskfreespace 00D7:_dos_abs_disk_read 0130:_dos_abs_disk_write 0134:_chdir 014F:_mkdir 0153:_rmdir 0157:__chdrive 0170:__getdrive (0155: C3)
                1. 01 4E95 0179 0000:___redirect_kb 0012:_getch 003A:_getche 006D:_ungetch 0091:_dos_set_verify 009F:_dos_get_verify 00A5:_dos_set_ctrl_break 00B3:_dos_get_ctrl_break 00BC:_dos_getdiskfreespace 00D7:_dos_abs_disk_read 0130:_dos_abs_disk_write 0134:_chdir 0151:_mkdir 0155:_rmdir 0159:__chdrive 0172:__getdrive (0155: 98)
              B9....D3EA8B5E0AD3EB2B46081BD35DC20800558BEC8B:
                0. 06 F788 0038 0000:__aNahdiff 001C:__aFahdiff
            D8:
              C707....C747:
                020000C747040000C747060000C7470A0000:
                  0. 24 3CEF 0044 0000:??0streambuf@@QAC@XZ
                1E000089D85DC20200:
                  0. 00 0000 0017 0000:??0ios@@IAC@XZ
              F6471A017412837E060074088BD8804F1A02EB0480671AFD:
                0. 04 057A 0024 0000:?freeze@strstreambuf@@QACXH@Z
          A3....:
            8CCAB8....8916....A3....FF36....FF36....B82300:
              0. 02 F6B7 0028 0000:_ctrlbrk
            B8:
              010050:
                1EB8....50E8....8BE55DC3:
                  0. 00 0000 0019 0000:__hardresume
                B8....50E8....8BE55DC3:
                  0. 00 0000 0018 0000:__hardresume
              020050:
                1EB8....50E8....8BE55DC3:
                  0. 00 0000 0019 0000:__hardretn
                B8....50E8....8BE55DC3:
                  0. 00 0000 0018 0000:__hardretn
            C706....00005DC20200:
              0. 00 0000 0013 0000:__SET_ERRNO
          B90A0099F7F904308B5E0688078B460499F7F980C2308857015D:
            0. 03 8E1E 0023 (l)0000:DECPUT
          BF....EB0383C7:
            0681FF....73138B1D3BC372F1035D043BC373:
              0. 0C 7F22 002C 0000:___eh_finddata
            0881FF....73138B1D3BC372F1035D063BC373:
              0. 0C 7F22 002C 0000:___eh_finddata
        06:
          050F0025F0FF74588BD0B9....0F03D98BC803CB722141741E83:
            0. 0B CFA3 006C 0000:_sbrk
          0B4604:
            74:
              0E8A4608C45E04268807B801005DC331C05DC3:
                0. 00 0000 001D 0000:_wctomb
              12FF7606FF7604E8....89560689460483C4048B5606:
                0. 07 0FCD 0027 (l)0000:STR_DUP
              14FF7606FF7604..........89560689460483C4048B:
                0. 09 C150 0029 (l)0000:STR_DUP
              1AFF7608FF7606FF7604E8....89C18B56068B460403:
                0. 0A F76F 002A 0000:__mbsninc
              1BFF7606FF7604E8....F6460801740CFF7606FF7604:
                0. 01 3E9B 0030 0000:??_Gfilebuf@@UECPEXI@Z (REF 0012: ??1filebuf@@UEC@XZ)
                1. 01 3E9B 0030 0000:??_Gfstreambase@@UECPEXI@Z (REF 0012: ??_Dfstreambase@@UECXXZ)
                2. 01 3E9B 0030 0000:??_Gifstream@@UECPEXI@Z (REF 0012: ??_Difstream@@UECXXZ)
                3. 01 3E9B 0030 0000:??_Gofstream@@UECPEXI@Z (REF 0012: ??_Dofstream@@UECXXZ)
                4. 01 3E9B 0030 0000:??_Gfstream@@UECPEXI@Z (REF 0012: ??_Dfstream@@UECXXZ)
                5. 01 3E9B 0030 0000:??_Gios@@UECPEXI@Z (REF 0012: ??1ios@@UEC@XZ)
                6. 01 3E9B 0030 0000:??_Giostream@@UECPEXI@Z (REF 0012: ??_Diostream@@UECXXZ)
                7. 01 3E9B 0030 0000:??_Giostream_withassign@@UECPEXI@Z (REF 0012: ??_Diostream_withassign@@UECXXZ)
                8. 01 3E9B 0030 0000:??_Gistream@@UECPEXI@Z (REF 0012: ??_Distream@@UECXXZ)
                9. 01 3E9B 0030 0000:??_Gistream_withassign@@UECPEXI@Z (REF 0012: ??_Distream_withassign@@UECXXZ)
                10. 01 3E9B 0030 0000:??_Gostream@@UECPEXI@Z (REF 0012: ??_Dostream@@UECXXZ)
                11. 01 3E9B 0030 0000:??_Gostream_withassign@@UECPEXI@Z (REF 0012: ??_Dostream_withassign@@UECXXZ)
                12. 01 3E9B 0030 0000:??_Gstdiobuf@@UECPEXI@Z (REF 0012: ??1stdiobuf@@UEC@XZ)
                13. 01 3E9B 0030 0000:??_Gstdiostream@@UECPEXI@Z (REF 0012: ??1stdiostream@@UEC@XZ)
                14. 01 3E9B 0030 0000:??_Gstreambuf@@UECPEXI@Z (REF 0012: ??1streambuf@@UEC@XZ)
                15. 01 3E9B 0030 0000:??_Gstrstreambuf@@UECPEXI@Z (REF 0012: ??1strstreambuf@@UEC@XZ)
                16. 01 3E9B 0030 0000:??_Gstrstreambase@@UECPEXI@Z (REF 0012: ??_Dstrstreambase@@UECXXZ)
                17. 01 3E9B 0030 0000:??_Gistrstream@@UECPEXI@Z (REF 0012: ??_Distrstream@@UECXXZ)
                18. 01 3E9B 0030 0000:??_Gostrstream@@UECPEXI@Z (REF 0012: ??_Dostrstream@@UECXXZ)
                19. 01 3E9B 0030 0000:??_Gstrstream@@UECPEXI@Z (REF 0012: ??_Dstrstream@@UECXXZ)
              1EFF7606FF7604E8....83C404F6460801740CFF7606:
                0. 04 2B63 0033 0000:??_GType_info@@UECPEXI@Z
              26FF7606FF7604E8....83C40485C07416FF7606FF76:
                0. 03 EF93 004E 0000:_perror
            75:
              0531C0995DC3B80300501EC45E04268B470CB90300F7:
                0. 02 ABA8 00BA 0000:_asctime
              13FF760AFF760831C05050..........8BE55DC3FF76:
                0. 0A 1219 0033 0000:_strtok
          257F005DCB:
            0. 00 0000 000B 0000:_toascii
          2B460A1BD2D1E0D1D2D1E0D1D2D1E0D1D2D1E0D1D203460483D2:
            0. 36 2F76 0056 0000:__aNahdiff 002B:__aFahdiff
          31C9890E....A3....5DCB:
            0. 00 0000 0011 0000:_srand
          33C95150:
            8B460433C95150E8....83C4085DC3:
              0. 00 0000 0019 0000:__fcalloc
            ..........83C4045DCBEA:
              0. 00 0000 0019 0000:__fmalloc 0014:__ffree
          3B4608B80100:
            7401485DCB:
              0. 00 0000 0011 0000:??8Type_info@@RBAHABV0@@Z
            7501485DCB:
              0. 00 0000 0011 0000:??9Type_info@@RBAHABV0@@Z
          3DFF0072028BD88B5608B438CD218BC2730233C05DCB:
            0. 00 0000 001C 0000:_country
          4050:
            1EB8....50..........8BE55DCB:
              0. 00 0000 0016 (l)0000:_exit_exit
            B8....50..........8BE55DCB:
              0. 00 0000 0015 (l)0000:_exit_exit
          5DC3:
            0. 00 0000 0008 (!)0000:?
          813E....A403752683F820720F83F87F730A8BD8D1E38B87:
            0. 12 4ECC 0036 0000:__mbbtombc
          83:
            C0:
              205DCB:
                0. 00 0000 000B 0000:__tolower
              E05DCB:
                0. 00 0000 000B 0000:__toupper
            F801:
              7402EB118A5E0430FFF687....087426B802005DC38A5E:
                0. 05 6DE9 0044 0000:__mbbtype (REF 0032: .)
              76:
                3783F8207732894606B8020050B8....50FF7606:
                  0. 00 0000 0044 0000:_tab_sizeputenv
                3A83F8207735894606B80200501EB8....50FF7606:
                  0. 00 0000 0047 0000:_tab_sizeputenv
          8AC432E489C330FFF687....04740C8A5E0630FFF687....0875:
            0. 0A 8F63 002A 0000:__ismbclegal
          8B:
            4E08D3C05DCB90558BEC8B46068B4E08D3C85DCB90558BEC8B:
              0. 36 826E 0056 0000:__rotl 000E:__rotr 001C:__lrotl 0038:__lrotr
            5608:
              5D8BC8250F00D1E9D1E9D1E9D1E903D1CB558BEC8B4606:
                0. 40 0C92 0060 0000:__farptr_norm 001A:__farptr_fromlong 0042:__farptr_tolong
              A3....8916....5DCB..........803E....00740AA0:
                0. 00 0000 017F 0000:___redirect_kb 0012:_getch 003C:_getche 0071:_ungetch 0095:_dos_set_verify 00A3:_dos_get_verify 00A9:_dos_set_ctrl_break 00B7:_dos_get_ctrl_break 00C0:_dos_getdiskfreespace 00DD:_dos_abs_disk_read 0136:_dos_abs_disk_write 013A:_chdir 0157:_mkdir 015B:_rmdir 015F:__chdrive 0178:__getdrive (015E: CB)
                1. 00 0000 0181 0000:___redirect_kb 0012:_getch 003C:_getche 0071:_ungetch 0095:_dos_set_verify 00A3:_dos_get_verify 00A9:_dos_set_ctrl_break 00B7:_dos_get_ctrl_break 00C0:_dos_getdiskfreespace 00DD:_dos_abs_disk_read 0136:_dos_abs_disk_write 013A:_chdir 0159:_mkdir 015D:_rmdir 0161:__chdrive 017A:__getdrive (015E: 98)
              BF....EB0383C7:
                0881FF....73183B550275F28B1D3BC3:
                  0. 14 CBA1 0034 0000:___eh_finddata
                0A81FF....73183B550275F28B1D3BC3:
                  0. 14 5CCD 0034 0000:___eh_finddata
            5E0489:
              075DC3:
                0. 00 0000 000D 0000:_fegetexceptflag
              47:
                1089D85DC3:
                  0. 00 0000 0010 (l)0000:?sprec@@YAAAVios@@AAV1@H@Z
                1289D85DC3:
                  0. 00 0000 0010 (l)0000:?swidth@@YAAAVios@@AAV1@H@Z
            D8:
              C707....C747:
                020000C747040000C747060000C7470A0000:
                  0. 24 FE29 0044 0000:??0streambuf@@RAC@XZ
                1E000089D85DCA0200:
                  0. 00 0000 0017 0000:??0ios@@JAC@XZ
              F6471E017412837E080074088BD8804F1E02EB0480671EFD:
                0. 04 C7BC 0024 0000:?freeze@strstreambuf@@RACXH@Z
          A3....:
            8B4604A3....5DC20400:
              0. 00 0000 0013 (l)0000:_RESTOREERRNOSTATUS
            B8:
              010050:
                1EB8....50..........8BE55DCB:
                  0. 00 0000 001B 0000:__hardresume
                B8....50..........8BE55DCB:
                  0. 00 0000 001A 0000:__hardresume
              020050:
                1EB8....50..........8BE55DCB:
                  0. 00 0000 001B 0000:__hardretn
                B8....50..........8BE55DCB:
                  0. 00 0000 001A 0000:__hardretn
            C706....00005DCA0200:
              0. 00 0000 0013 0000:__SET_ERRNO
        08:
          0B4606:
            74:
              0E8A460AC45E06268807B801005DCB31C05DCB:
                0. 00 0000 001D 0000:_wctomb
              1CFF760AFF7608FF7606..........89C18B56088B46:
                0. 0C 3F38 002C 0000:__mbsninc
              1FFF7608FF7606..........F6460A01740EFF7608FF:
                0. 02 65CE 0034 0000:??_Gfilebuf@@VECPEXI@Z (REF 0012: ??1filebuf@@VEC@XZ)
                1. 02 65CE 0034 0000:??_Gfstreambase@@VECPEXI@Z (REF 0012: ??_Dfstreambase@@VECXXZ)
                2. 02 65CE 0034 0000:??_Gifstream@@VECPEXI@Z (REF 0012: ??_Difstream@@VECXXZ)
                3. 02 65CE 0034 0000:??_Gofstream@@VECPEXI@Z (REF 0012: ??_Dofstream@@VECXXZ)
                4. 02 65CE 0034 0000:??_Gfstream@@VECPEXI@Z (REF 0012: ??_Dfstream@@VECXXZ)
                5. 02 65CE 0034 0000:??_Gios@@VECPEXI@Z (REF 0012: ??1ios@@VEC@XZ)
                6. 02 65CE 0034 0000:??_Giostream@@VECPEXI@Z (REF 0012: ??_Diostream@@VECXXZ)
                7. 02 65CE 0034 0000:??_Giostream_withassign@@VECPEXI@Z (REF 0012: ??_Diostream_withassign@@VECXXZ)
                8. 02 65CE 0034 0000:??_Gistream@@VECPEXI@Z (REF 0012: ??_Distream@@VECXXZ)
                9. 02 65CE 0034 0000:??_Gistream_withassign@@VECPEXI@Z (REF 0012: ??_Distream_withassign@@VECXXZ)
                10. 02 65CE 0034 0000:??_Gostream@@VECPEXI@Z (REF 0012: ??_Dostream@@VECXXZ)
                11. 02 65CE 0034 0000:??_Gostream_withassign@@VECPEXI@Z (REF 0012: ??_Dostream_withassign@@VECXXZ)
                12. 02 65CE 0034 0000:??_Gstdiobuf@@VECPEXI@Z (REF 0012: ??1stdiobuf@@VEC@XZ)
                13. 02 65CE 0034 0000:??_Gstdiostream@@VECPEXI@Z (REF 0012: ??1stdiostream@@VEC@XZ)
                14. 02 65CE 0034 0000:??_Gstreambuf@@VECPEXI@Z (REF 0012: ??1streambuf@@VEC@XZ)
                15. 02 65CE 0034 0000:??_Gstrstreambuf@@VECPEXI@Z (REF 0012: ??1strstreambuf@@VEC@XZ)
                16. 02 65CE 0034 0000:??_Gstrstreambase@@VECPEXI@Z (REF 0012: ??_Dstrstreambase@@VECXXZ)
                17. 02 65CE 0034 0000:??_Gistrstream@@VECPEXI@Z (REF 0012: ??_Distrstream@@VECXXZ)
                18. 02 65CE 0034 0000:??_Gostrstream@@VECPEXI@Z (REF 0012: ??_Dostrstream@@VECXXZ)
                19. 02 65CE 0034 0000:??_Gstrstream@@VECPEXI@Z (REF 0012: ??_Dstrstream@@VECXXZ)
              22FF7608FF7606..........83C404F6460A01740EFF:
                0. 05 1503 0037 0000:??_GType_info@@VECPEXI@Z
              2AFF7608FF7606..........83C40485C07418FF7608:
                0. 05 69CB 0056 0000:_perror
            75:
              0531C0995DCBB80300501EC45E06268B470CB90300F7:
                0. 02 ABA8 00BE 0000:_asctime
              13:
                8B16....A1....89560889460689D109C17420FF76:
                  0. 0A 2B4B 0078 0000:_fstrtok
                FF760CFF760A31C05050..........8BE55DCBFF76:
                  0. 0A 2B4B 0033 0000:_strtok
          30E4C45E04268B4F0C81E180000BC12689470C268B4F0E30C90B:
            0. 17 6924 0037 0000:?clear@ios@@QECXH@Z
          33C95150:
            8B460633C95150..........83C4085DCB:
              0. 00 0000 001B 0000:__fcalloc
            FF7606FF7604E8....83C4085DC3:
              0. 00 0000 0018 0000:__frealloc
          5DCB:
            0. 00 0000 0008 (!)0000:?
          83F8017402EB118A5E0630FFF687....087426B802005DCB8A5E:
            0. 05 E5FF 0044 0000:__mbbtype (REF 0032: .)
          8B5E0689:
            075DCB:
              0. 00 0000 000D 0000:_fegetexceptflag
            47:
              1089D85DCB:
                0. 00 0000 0010 (l)0000:?sprec@@ZAAAVios@@AAV1@H@Z
              1289D85DCB:
                0. 00 0000 0010 (l)0000:?swidth@@ZAAAVios@@AAV1@H@Z
          A3....8B4606A3....5DCA0400:
            0. 00 0000 0013 (l)0000:_RESTOREERRNOSTATUS
          C45E042689:
            075DC3:
              0. 00 0000 000E 0000:_fegetexceptflag
            47:
              168CC289D85DC3:
                0. 00 0000 0013 (l)0000:?sprec@@YAAEVios@@AEV1@H@Z
              188CC289D85DC3:
                0. 00 0000 0013 (l)0000:?swidth@@YAAEVios@@AEV1@H@Z
        0A:
          2B46061BD2D1E0D1D2D1E0D1D2D1E0D1D2D1E0D1D203460883D2:
            0. 1B 0E97 0046 0000:HUGEPTR_DIFF 002B:HUGEPTR_ADD
          30E4C45E06268B4F0C81E180000BC12689470C268B4F0E30C90B:
            0. 17 ABE2 0037 0000:?clear@ios@@RECXH@Z
          33C95150FF7608FF7606..........83C4085DCB:
            0. 00 0000 001A 0000:__frealloc
          8B560CB9....D3EA8B5E08D3EB2B46061BD35DCA0800558BEC8B:
            0. 0C 550E 0037 0000:HUGEPTR_DIFF 001C:HUGEPTR_ADD
          C45E062689:
            075DCB:
              0. 00 0000 000E 0000:_fegetexceptflag
            47:
              168CC289D85DCB:
                0. 00 0000 0013 (l)0000:?sprec@@ZAAEVios@@AEV1@H@Z
              188CC289D85DCB:
                0. 00 0000 0013 (l)0000:?swidth@@ZAAEVios@@AEV1@H@Z
        0C:
          0B460A740731C0995DC20A00837E08087E0A8B4608C45E042689:
            0. 0C F1DA 002C 0000:?setbuf@strstreambuf@@UECPEVstreambuf@@PEDH@Z
          2B46081BD2D1E0D1D2D1E0D1D2D1E0D1D2D1E0D1D203460A83D2:
            0. 1B 2D16 0046 0000:HUGEPTR_DIFF 002B:HUGEPTR_ADD
        0E0B460C740731C0995DCA0A00837E0A087E0A8B460AC45E062689:
          0. 0C 0CA9 002C 0000:?setbuf@strstreambuf@@VECPEVstreambuf@@PEDH@Z
      4E:
        04:
          3B0E....7D:
            0D8BD9D1E38B87....A3....EB18894E0451B8:
              0. 02 73E5 0036 0000:_strerror
            178BD9D1E3D1E38B97....8B87....8916....A3:
              0. 00 0000 004A 0000:_strerror
          81:
            3E....A40375:
              1B81F9:
                4083720C81F99683770681F97F837504:
                  0. 0D B38B 002D 0000:__ismbckata
                4181720C81F9AC81770681F97F817504:
                  0. 0D B38B 002D 0000:__ismbcsymbol
              268BC18AC432E489C330FFF687....0474158A:
                0. 05 4A33 0038 0000:__ismbcl0
              318BC18AC432E489C330FFF687....0474208A:
                0. 05 4A33 0043 0000:__ismbcl1 (000E: 98)
                1. 05 4A33 0043 0000:__ismbcl2 (000E: EA)
            F9000172:
              2B833E....007420833E....0074198B1E....8B47:
                0. 1B F724 0042 0000:__ismbcdigit (REF 003B: .)
              2C833E....007421A1....0B06....7418C41E:
                0. 1C E899 0043 0000:__ismbcdigit (REF 003C: .)
          83:
            3E....0074138BD9418A1F30FFF687....047401418BC15DC3:
              0. 05 C2B4 0025 0000:__mbsinc
            F9:
              01760983F9207704890E....5DC3:
                0. 00 0000 0016 0000:_tab_sizeset
              417C0C83F95A7F078BC183C020EB028BC15DC3:
                0. 00 0000 001B 0000:_tolower
              617C0C83F97A7F078BC183C0E0EB028BC15DC3:
                0. 00 0000 001B 0000:_toupper
              FF75048BC1EB0C8AC18B5E06FF0F8B1F8807985DC3:
                0. 00 0000 001D (l)0000:_sungetc
          890E....803E....03720F83F920740583F9217505B90500EB08:
            0. 0E 9F35 003A 0000:__SET_DOS_ERRNO
          8B:
            56:
              06:
                833E....0074:
                  2E39D1772A8BD98A0784C0742289C330FF:
                    0. 02 28D7 0042 0000:__ismbslead
                  3139D1772D8BD98A0784C0742589C330FF:
                    0. 02 28D7 0045 0000:__ismbstrail
                8B:
                  C18BD9803F00740C8BD94188178BD9803F0075F45DC3:
                    0. 00 0000 0020 0000:_strset
                  C230E48BD90947068BC280E4FC0947088BC280E4FD09:
                    0. 06 FC23 0026 0000:?setstate@ios@@IACXH@Z
              088BD9C707....C747020000C747040000895706837E0600:
                0. 32 970B 0052 0000:??0streambuf@@QAC@PADH@Z
            5E048A079885C0740C83F801740A83F802740AEB1841EB1983:
              0. 1C B37D 003C (l)0000:?__get_name@@YAPADPBD@Z
            D9:
              833F00740A83C1028BD9833F0075F68BD98B47025DC3:
                0. 00 0000 001E 0000:___seek_envp
              8A0784C074353C2B74123C2D740E3C3A740A9889C3F687:
                0. 00 0000 008E (l)0000:NEXT_NUMBER (REF 0083: .)
              8B:
                47143B4712760D8BD98B5F128A0730E45DC20200894712:
                  0. 07 B0D8 0027 0000:?underflow@streambuf@@UACHXZ
                570881E20001837E0600740C8BD9804F0901804F0C01EB:
                  0. 17 47C9 0037 0000:?skip@ios@@QACHH@Z
              C74720000031C089470A894706C747080001C7470C110089:
                0. 1C D7BB 003C 0000:?init@ios@@IACXPAVstreambuf@@@Z
          B8....8BD989078B:
            460689470289D85DC3:
              0. 00 0000 0017 0000:?setfill@@YA?AVsmanip_int@@H@Z (REF 0007: ?sfill@@YAAAVios@@AAV1@H@Z)
              1. 00 0000 0017 0000:?setprecision@@YA?AVsmanip_int@@H@Z (REF 0007: ?sprec@@YAAAVios@@AAV1@H@Z)
              2. 00 0000 0017 0000:?setw@@YA?AVsmanip_int@@H@Z (REF 0007: ?swidth@@YAAAVios@@AAV1@H@Z)
              3. 00 0000 0017 0000:?setbase@@YA?AVsmanip_int@@H@Z (REF 0007: ?sbase@@YAAAVios@@AAV1@H@Z)
            56088B460689570489470289D85DC3:
              0. 00 0000 001D 0000:?setiosflags@@YA?AVsmanip_long@@J@Z (REF 0007: ?sios@@YAAAVios@@AAV1@J@Z)
              1. 00 0000 001D 0000:?resetiosflags@@YA?AVsmanip_long@@J@Z (REF 0007: ?rsios@@YAAAVios@@AAV1@J@Z)
          C45E06FF4606268A078BD941880784C075EE5DC3:
            0. 00 0000 001A (l)0000:_fartonearcpy
        06:
          31D285C9741F395604740A8BD98A07988B5E0489078BD9381774:
            0. 0F 3CFF 002F 0000:_mbtowc
          3B0E....7D:
            0D8BD9D1E38B87....A3....EB1A894E0651B8:
              0. 02 73E5 0038 0000:_strerror
            178BD9D1E3D1E38B97....8B87....8916....A3:
              0. 00 0000 004C 0000:_strerror
          81:
            3E....A40375:
              1B81F9:
                4083720C81F99683770681F97F837504:
                  0. 0D DB5D 002D 0000:__ismbckata
                4181720C81F9AC81770681F97F817504:
                  0. 0D DB5D 002D 0000:__ismbcsymbol
              268BC18AC432E489C330FFF687....0474158A:
                0. 05 4A33 0038 0000:__ismbcl0
              318BC18AC432E489C330FFF687....0474208A:
                0. 05 4A33 0043 0000:__ismbcl1 (000E: 98)
                1. 05 4A33 0043 0000:__ismbcl2 (000E: EA)
            F9000172:
              2B833E....007420833E....0074198B1E....8B47:
                0. 1B 1D01 0042 0000:__ismbcdigit (REF 003B: .)
              2C833E....007421A1....0B06....7418C41E:
                0. 1C 02BC 0043 0000:__ismbcdigit (REF 003C: .)
          83:
            3E....0074138BD9418A1F30FFF687....047401418BC15DCB:
              0. 05 8A38 0025 0000:__mbsinc
            F9:
              01760983F9207704890E....5DCB:
                0. 00 0000 0016 0000:_tab_sizeset
              417C0C83F95A7F078BC183C020EB028BC15DCB:
                0. 00 0000 001B 0000:_tolower
              617C0C83F97A7F078BC183C0E0EB028BC15DCB:
                0. 00 0000 001B 0000:_toupper
              FF75048BC1EB0C8AC18B5E08FF0F8B1F8807985DCB:
                0. 00 0000 001D (l)0000:_sungetc
          890E....803E....03720F83F920740583F9217505B90500EB08:
            0. 0E 9F35 003A 0000:__SET_DOS_ERRNO
          8B:
            56:
              08:
                833E....0074:
                  2E39D1772A8BD98A0784C0742289C330FF:
                    0. 02 28D7 0042 0000:__ismbslead
                  3139D1772D8BD98A0784C0742589C330FF:
                    0. 02 28D7 0045 0000:__ismbstrail
                8B:
                  C18BD9803F00740C8BD94188178BD9803F0075F45DCB:
                    0. 00 0000 0020 0000:_strset
                  C230E48BD90947068BC280E4FC0947088BC280E4FD09:
                    0. 06 3EE5 0026 0000:?setstate@ios@@JACXH@Z
              0A8BD9C707....C747020000C747040000895706837E0800:
                0. 32 46AD 0052 0000:??0streambuf@@RAC@PADH@Z
            5E068A079885C0740C83F801740A83F802740AEB1841EB1983:
              0. 1C DBAB 003C (l)0000:?__get_name@@ZAPADPBD@Z
            D9:
              833F00740A83C1028BD9833F0075F68BD98B47025DCB:
                0. 00 0000 001E 0000:___seek_envp
              8B:
                47143B4712760D8BD98B5F128A0730E45DCA0200894712:
                  0. 07 721E 0027 0000:?underflow@streambuf@@VACHXZ
                570881E20001837E0800740C8BD9804F0901804F0C01EB:
                  0. 17 850F 0037 0000:?skip@ios@@RACHH@Z
              C74720000031C089470A894706C747080001C7470C110089:
                0. 1C 184D 003C 0000:?init@ios@@JACXPAVstreambuf@@@Z
          8CCAB8....8BD989570289078B:
            460889470489D85DCB:
              0. 00 0000 001C 0000:?setfill@@ZA?AVsmanip_int@@H@Z (REF 0009: ?sfill@@ZAAAVios@@AAV1@H@Z)
              1. 00 0000 001C 0000:?setprecision@@ZA?AVsmanip_int@@H@Z (REF 0009: ?sprec@@ZAAAVios@@AAV1@H@Z)
              2. 00 0000 001C 0000:?setw@@ZA?AVsmanip_int@@H@Z (REF 0009: ?swidth@@ZAAAVios@@AAV1@H@Z)
              3. 00 0000 001C 0000:?setbase@@ZA?AVsmanip_int@@H@Z (REF 0009: ?sbase@@ZAAAVios@@AAV1@H@Z)
            560A8B460889570689470489D8:
              0. 02 1714 0022 0000:?setiosflags@@ZA?AVsmanip_long@@J@Z (REF 0009: ?sios@@ZAAAVios@@AAV1@J@Z)
              1. 02 1714 0022 0000:?resetiosflags@@ZA?AVsmanip_long@@J@Z (REF 0009: ?rsios@@ZAAAVios@@AAV1@J@Z)
        08:
          31D285C9741F395606740A8BD98A07988B5E0689078BD9381774:
            0. 0F CF71 002F 0000:_mbtowc
          8A460685C974468B5E04F6C301740A8A27433AE0744349743451:
            0. 44 3588 0064 0000:_memchr
          8BC130E4C45E042609470C8BC180E4FC2609470E8BC180E4FD26:
            0. 07 62D2 0027 0000:?setstate@ios@@IECXH@Z
        0A:
          56578CD88E5E048B76068EC08B7E08F3A48ED85F5E5DC3558BEC:
            0. 14 C36A 0034 0000:_peekbytes 001D:_pokebytes
          8A460885C974:
            468B5E06F6C301740A8A27433AE0744349743451:
              0. 44 1EEB 0064 0000:_memchr
            481EC55E04F6C301740A8A27433AE07446497434:
              0. 4B 5DAA 006B 0000:_memchr
          8BC130E4C45E062609470C8BC180E4FC2609470E8BC180E4FD26:
            0. 07 A014 0027 0000:?setstate@ios@@JECXH@Z
        0C:
          56578CD88E5E:
            048B7606C47E08F3A48ED85F5E5DC3558BEC8B4E:
              0. 16 731E 0036 0000:_peekbytes 001B:_pokebytes
            068B76088EC08B7E0AF3A48ED85F5E5DCB558BEC:
              0. 14 E159 0034 0000:_peekbytes 001D:_pokebytes
          8A460A85C974481EC55E06F6C301740A8A27433AE07446497434:
            0. 4B 6DA6 006B 0000:_memchr
          D1E98BC14985C07423C45E04268A17268A4701C45E0826880726:
            0. 14 51DB 0034 0000:_swab
          E31657C47E068A460AF2AE8BC19975058CC28BC7485F5DCB8BC1:
            0. 03 FBC8 0023 0000:_fmemchr
        0E:
          56578CD88E5E068B7608C47E0AF3A48ED85F5E5DCB558BEC8B4E:
            0. 16 7A92 0036 0000:_peekbytes 001B:_pokebytes
          D1E98BC14985C07423C45E06268A17268A4701C45E0A26880726:
            0. 14 6F6C 0034 0000:_swab
      56:
        04:
          8B460630E48BDA8B4F0681E180000BC18947068B4F0830C90BC8:
            0. 12 1DFC 0032 0000:?clear@ios@@QACXH@Z
          B40ACD21B80D00508B460483C00250E8....89C3C6070083C404:
            0. 08 7AEE 0028 0000:__cgets
        06:
          8B46:
            04:
              2B46081B560AE8....5DC3:
                0. 00 0000 0014 0000:_difftime
              3B560A75033B4608B80100:
                7401485DC3:
                  0. 00 0000 0019 0000:??8Type_info@@QFAHAFV0@@Z
                7501485DC3:
                  0. 00 0000 0019 0000:??9Type_info@@QFAHAFV0@@Z
              8916....A3....0EB8....50B8240050E8....8BE55DC3:
                0. 00 0000 0020 0000:__harderr
            0830E48BDA8B4F0681E180000BC18947068B4F0830C90BC8:
              0. 12 DF3A 0032 0000:?clear@ios@@RACXH@Z
          B40ACD21B80D00508B460683C00250..........89C3C6070083:
            0. 0A 9BF6 002A 0000:__cgets
        088B4606:
          2B460A1B560C..........5DCB:
            0. 00 0000 0016 0000:_difftime
          3B560C75033B460AB80100:
            7401485DCB:
              0. 00 0000 0019 0000:??8Type_info@@RFAHAFV0@@Z
            7501485DCB:
              0. 00 0000 0019 0000:??9Type_info@@RFAHAFV0@@Z
          5DC3:
            0. 00 0000 000B (!)0000:?
          8916....A3....:
            0EB8....50B8240050..........8BE5:
              0. 02 1714 0022 0000:__harderr
            8CCAB8....8916....A3....FF36:
              0. 02 32A4 0031 0000:_ctrlbrk
        0A8B46085DCB:
          0. 00 0000 000B (!)0000:?
        0C31C985D274:
          1CC45E08268A07C45E0426880784C0740C83460802:
            0. 0C 1AC7 002C 0000:_wcstombs
          1EC45E08268A0730E4C45E0426890785C0740C8346:
            0. 0E 6014 002E 0000:_mbstowcs
        0E31C985D274:
          1CC45E0A268A07C45E0626880784C0740C83460A02:
            0. 0C 1C13 002C 0000:_wcstombs
          1DC45E0A268A0798C45E0626890785C0740C834606:
            0. 0D 1A5E 002D 0000:__fmbstowcs
          1EC45E0A268A0730E4C45E0626890785C0740C8346:
            0. 0E B23D 002E 0000:_mbstowcs
      5E:
        04:
          1E:
            8B4E0AC55606B43FCD211F72:
              098B5E0C890731C05DC350E8:
                0. 00 0000 0023 0000:__dos_read
              0AC45E0C26890731C05DC350E8:
                0. 00 0000 0024 0000:__dos_read
            C556068B4E0AB440CD211F72:
              098B5E0C890731C05DC350E8:
                0. 00 0000 0023 0000:__dos_write
              0AC45E0C26890731C05DC350E8:
                0. 00 0000 0024 0000:__dos_write
          806706CF5DC3:
            0. 00 0000 000C 0000:_clearerr
          83:
            C30F83E3F07503EB:
              36908BD3B104D3EB8BCB031E....722781:
                0. 07 617D 0056 0000:_sbrk 004B:_coreleft
              40908BD3B104D3EB8BCB031E....068E06:
                0. 00 0000 0061 0000:_sbrk 0056:_coreleft
            FB2873:
              208B4E0A83F9007414F687....10751D1EC55606B43F:
                0. 10 CC23 016F 0000:_read
              258B4E0A83F9007419F687....14752F1EC55606B440:
                0. 15 C524 01C0 0000:_write
          8A:
            1730F68ADA30FFF687....0474128BC28AE032C08B5E048A4F:
              0. 0B A0F9 002B 0000:__mbsnextc
            1F30FFF687....04B802007501485DC3:
              0. 00 0000 0017 0000:__mbclen
            87....25:
              01005DC3:
                0. 00 0000 000F 0000:_isupper (REF 0008: .)
              02005DC3:
                0. 00 0000 000F 0000:_islower (REF 0008: .)
              03005DC3:
                0. 00 0000 000F 0000:_isalpha (REF 0008: .)
              04005DC3:
                0. 00 0000 000F 0000:_isdigit (REF 0008: .)
              07005DC3:
                0. 00 0000 000F 0000:_isalnum (REF 0008: .)
              08005DC3:
                0. 00 0000 000F 0000:_isspace (REF 0008: .)
              10005DC3:
                0. 00 0000 000F 0000:_ispunct (REF 0008: .)
              17005DC3:
                0. 00 0000 000F 0000:_isgraph (REF 0008: .)
              20005DC3:
                0. 00 0000 000F 0000:_iscntrl (REF 0008: .)
              57005DC3:
                0. 00 0000 000F 0000:_isprint (REF 0008: .)
              80005DC3:
                0. 00 0000 000F 0000:_isxdigit (REF 0008: .)
          8B:
            07253F000906....5DC3:
              0. 00 0000 0011 0000:_fesetexceptflag
            47:
              0625:
                10005DC3:
                  0. 00 0000 000E 0000:_feof
                20005DC3:
                  0. 00 0000 000E 0000:_ferror
              FE83C0FE5DC3:
                0. 00 0000 000E 0000:__nmsize
            4F0289CB8A079885C0740C83F801740A83F802740AEB1841EB:
              0. 17 E473 003D 0000:?name@Type_info@@QBAPBDXZ
            56068B4E088A460AB442CD21:
              72025DC350E8....B8FFFF995D:
                0. 01 EF04 0021 0000:__dos_seek
              730850E8....B8FFFF995DC3:
                0. 00 0000 001F 0000:_lseek
          8C:
            078C4F028C57048C5F065DC3558BEC56571E8B5E048B078B4F:
              0. 57 3C55 012D 0000:_segread 0013:_intdos 0037:_intdosx 006C:_int86 00CB:_int86x 0119:_bdosx
            D98EC1268B47FE83C0FE5DC3:
              0. 00 0000 0013 0000:__nmsize
          B4:
            45CD21730750E8....B8FFFF5DC3558BEC8B5E048B4E06B446:
              0. 09 B36D 0029 0000:_dup 0015:_dup2
            48CD21:
              7208E8....B80000EB0F8BC3E8....B80C0050E8:
                0. 1B F8B3 0048 0000:__dos_allocmem 0025:__dos_freemem (000C: C3)
                1. 1B F8B3 0049 0000:__dos_allocmem 0025:__dos_freemem (000C: 07)
              730650E8....33C05DC3558BECFF7604E8....8BE585:
                0. 27 CF02 010B 0000:_dos_alloc 0014:_dos_calloc 0050:_dos_free 006B:_dos_setblock 0087:__copy 00C6:_dos_avail 00F8:__dos_blocksize (00C3: C3)
                1. 27 CF02 010D 0000:_dos_alloc 0014:_dos_calloc 0050:_dos_free 006B:_dos_setblock 0087:__copy 00C6:_dos_avail 00FA:__dos_blocksize (00C3: 5E)
          B80044CD218AC2988AC45DC3558BECB43D8A46:
            068B5604CD2173:
              0. 03 63E2 02DB 0000:_isatty 0012:_dos_open 0045:_dos_close 0068:_open 0164:_sopen 0198:_creat 01AE:_dos_creat 0208:_close 021A:_rename 0229:_remove 0246:__dos_sethandlecount 0268:_filesize 02A8:_access
            081EC55604CD21:
              0. 05 EC4A 02E5 0000:_isatty 0012:_dos_open 0047:_dos_close 006C:_open 0168:_sopen 019C:_creat 01B2:_dos_creat 0210:_close 0222:_rename 022D:_remove 024C:__dos_sethandlecount 026E:_filesize 02B0:_access
          C707....:
            5DC3:
              0. 00 0000 000C 0000:??1Type_info@@UAA@XZ
            8B471E85C0740750E8....83C4025DC20200:
              0. 00 0000 001C 0000:??1ios@@UAC@XZ
          F687....:
            03750983FB5F740431C0EB03B801005DC3:
              0. 00 0000 001B 0000:_iscsymf (REF 0008: .)
            07750983FB5F740431C0EB03B801005DC3:
              0. 00 0000 001B 0000:_iscsym (REF 0008: .)
          FF7716FF7606E8....8BE55DC20400:
            0. 00 0000 0015 0000:?pbackfail@stdiobuf@@UACHH@Z
        06:
          1E:
            8B4E0CC55608B43FCD211F72:
              098B5E0E890731C05DCB50:
                0. 00 0000 0025 0000:__dos_read
              0AC45E0E26890731C05DCB50:
                0. 00 0000 0026 0000:__dos_read
            C556088B4E0CB440CD211F72:
              098B5E0E890731C05DCB50:
                0. 00 0000 0025 0000:__dos_write
              0AC45E0E26890731C05DCB50:
                0. 00 0000 0026 0000:__dos_write
          806706CF5DCB:
            0. 00 0000 000C 0000:_clearerr
          83:
            C30F83E3F07503EB:
              36908BD3B104D3EB8BCB031E....722781:
                0. 07 617D 0056 0000:_sbrk 004B:_coreleft
              40908BD3B104D3EB8BCB031E....068E06:
                0. 00 0000 0063 0000:_sbrk 0056:_coreleft
            FB2873:
              208B4E0C83F9007414F687....10751F1EC55608B43F:
                0. 0F A76E 0173 0000:_read
              258B4E0C83F9007419F687....1475351EC55608B440:
                0. 14 F2F4 01CC 0000:_write
          8A:
            1730F68ADA30FFF687....0474128BC28AE032C08B5E068A4F:
              0. 0B E875 002B 0000:__mbsnextc
            1F30FFF687....04B802007501485DCB:
              0. 00 0000 0017 0000:__mbclen
            87....25:
              01005DCB:
                0. 00 0000 000F 0000:_isupper (REF 0008: .)
              02005DCB:
                0. 00 0000 000F 0000:_islower (REF 0008: .)
              03005DCB:
                0. 00 0000 000F 0000:_isalpha (REF 0008: .)
              04005DCB:
                0. 00 0000 000F 0000:_isdigit (REF 0008: .)
              07005DCB:
                0. 00 0000 000F 0000:_isalnum (REF 0008: .)
              08005DCB:
                0. 00 0000 000F 0000:_isspace (REF 0008: .)
              10005DCB:
                0. 00 0000 000F 0000:_ispunct (REF 0008: .)
              17005DCB:
                0. 00 0000 000F 0000:_isgraph (REF 0008: .)
              20005DCB:
                0. 00 0000 000F 0000:_iscntrl (REF 0008: .)
              57005DCB:
                0. 00 0000 000F 0000:_isprint (REF 0008: .)
              80005DCB:
                0. 00 0000 000F 0000:_isxdigit (REF 0008: .)
          8B:
            07253F000906....5DCB:
              0. 00 0000 0011 0000:_fesetexceptflag
            460483FB017404F7E372:
              2250E8....8BE585C07416578CDA8E:
                0. 18 D0BA 0038 0000:__ncalloc
              245050E8....5B8BE585D27416578E:
                0. 1B 6FA2 003B 0000:__fcalloc
            47:
              028B5E0489470289D85DC3:
                0. 00 0000 0013 0000:??4Type_info@@AAAAAV0@ABV0@@Z
              0625:
                10005DCB:
                  0. 00 0000 000E 0000:_feof
                20005DCB:
                  0. 00 0000 000E 0000:_ferror
              FE83C0FE5DCB:
                0. 00 0000 000E 0000:__nmsize
            4F0289CB8A079885C0740C83F801740A83F802740AEB1841EB:
              0. 17 E473 003D 0000:?name@Type_info@@RBAPBDXZ
            56088B4E0A8A460CB442CD21:
              72025DCB50..........B8FFFF:
                0. 03 FBC8 0023 0000:__dos_seek
              730A50..........B8FFFF995D:
                0. 01 A788 0021 0000:_lseek
          8C:
            078C4F028C57048C5F065DCB558BEC56571E8B5E068B078B4F:
              0. 57 3A03 012F 0000:_segread 0013:_intdos 0037:_intdosx 006C:_int86 00CD:_int86x 011B:_bdosx
            D98EC1268B47FE83C0FE5DCB:
              0. 00 0000 0013 0000:__nmsize
          B4:
            45CD21730950..........B8FFFF5DCB558BEC8B5E068B4E08:
              0. 0B 0A0C 002B 0000:_dup 0017:_dup2
            48CD21:
              7208E8....B80000EB118BC3E8....B80C0050:
                0. 00 0000 004C 0000:__dos_allocmem 0027:__dos_freemem (002B: C3)
                1. 00 0000 004D 0000:__dos_allocmem 0027:__dos_freemem (002B: 07)
              730850..........33C05DCB558BECFF76060EE8:
                0. 2A 7264 0113 0000:_dos_alloc 0016:_dos_calloc 0053:_dos_free 0070:_dos_setblock 008E:__copy 00CD:_dos_avail 0100:__dos_blocksize (00C8: CB)
                1. 2A 7264 0115 0000:_dos_alloc 0016:_dos_calloc 0053:_dos_free 0070:_dos_setblock 008E:__copy 00CD:_dos_avail 0102:__dos_blocksize (00C8: 5E)
          B80044CD218AC2988AC45DCB558BECB43D8A46:
            088B5606CD2173:
              0. 02 6AB9 02F5 0000:_isatty 0012:_dos_open 0049:_dos_close 006E:_open 0170:_sopen 01A4:_creat 01BA:_dos_creat 021A:_close 022C:_rename 023B:_remove 025A:__dos_sethandlecount 027C:_filesize 02BE:_access
            0A1EC55606CD21:
              0. 04 1754 02FF 0000:_isatty 0012:_dos_open 004B:_dos_close 0072:_open 0174:_sopen 01A8:_creat 01BE:_dos_creat 0222:_close 0234:_rename 023F:_remove 0260:__dos_sethandlecount 0282:_filesize 02C6:_access
          C707....:
            5DCB:
              0. 00 0000 000C 0000:??1Type_info@@VAA@XZ
            8B471E85C0740950..........83C4025DCA0200:
              0. 00 0000 001E 0000:??1ios@@VAC@XZ
          F687....:
            03750983FB5F740431C0EB03B801005DCB:
              0. 00 0000 001B 0000:_iscsymf (REF 0008: .)
            07750983FB5F740431C0EB03B801005DCB:
              0. 00 0000 001B 0000:_iscsym (REF 0008: .)
          FF7716FF7608..........8BE55DCA0400:
            0. 00 0000 0017 0000:?pbackfail@stdiobuf@@VACHH@Z
        088B:
          460683FB017404F7E372:
            2450..........8BE585C07416578C:
              0. 1A 9F64 003A 0000:__ncalloc
            265050..........5B8BE585D27416:
              0. 1D B7DD 003D 0000:__fcalloc
          47028B5E0689470289D85DCB:
            0. 00 0000 0013 0000:??4Type_info@@BAAAAV0@ABV0@@Z
      D6:
        1EC576:
          04C45E08AC268A0F433AC1750684C075F3EB1B3C4172173C:
            0. 21 112F 0041 0000:_stricmp
          06C45E0AAC268A0F433AC1750684C075F3EB1B3C4172173C:
            0. 21 59A3 0041 0000:_stricmp
        8B76:
          048B5E0690AC8A0F433AC1750684C075F4EB1B3C4172173C5A:
            0. 1F 4F3C 003F 0000:_stricmp
          068B5E0890AC8A0F433AC1750684C075F4EB1B3C4172173C5A:
            0. 1F 07B0 003F 0000:_stricmp
    8CCAB8....C45E06268957022689078B:
      460A268947048CC289D85DCB:
        0. 00 0000 001F 0000:?setfill@@ZA?EVsmanip_int@@H@Z (REF 0006: ?sfill@@ZAAEVios@@AEV1@H@Z)
        1. 00 0000 001F 0000:?setprecision@@ZA?EVsmanip_int@@H@Z (REF 0006: ?sprec@@ZAAEVios@@AEV1@H@Z)
        2. 00 0000 001F 0000:?setw@@ZA?EVsmanip_int@@H@Z (REF 0006: ?swidth@@ZAAEVios@@AEV1@H@Z)
        3. 00 0000 001F 0000:?setbase@@ZA?EVsmanip_int@@H@Z (REF 0006: ?sbase@@ZAAEVios@@AEV1@H@Z)
      560C8B460A2689570626894704:
        0. 06 B618 0026 0000:?setiosflags@@ZA?EVsmanip_long@@J@Z (REF 0006: ?sios@@ZAAEVios@@AEV1@J@Z)
        1. 06 B618 0026 0000:?resetiosflags@@ZA?EVsmanip_long@@J@Z (REF 0006: ?rsios@@ZAAEVios@@AEV1@J@Z)
    8D46:
      0650FF7604:
        31C050B8....50:
          B8....50E8....8BE55DC3:
            0. 00 0000 001C 0000:__cscanf
          E8....8BE55DC3:
            0. 00 0000 0018 0000:_disp_printf
        B8....50B8....50B8....50E8....8BE55DC3:
          0. 00 0000 001D 0000:_scanf
        E8....:
          83C4048B56088B46065DC3:
            0. 00 0000 0018 0000:_biostime
          8BE55DC3:
            0. 00 0000 0011 0000:_printf
      0850FF7606:
        31C050:
          0EB8....50..........8BE55DCB:
            0. 00 0000 001B 0000:_disp_printf
          BA....B8....5250BA....B8....5250:
            0. 00 0000 0026 0000:__cscanf
        8D460450B8....50B8....50E8....8BE55DC3:
          0. 00 0000 001D 0000:_sscanf
        B8....50BA....B8....5250BA....B8....5250:
          0. 00 0000 0027 0000:_scanf
        FF7604:
          B8....50B8....50E8....8BE55DC3:
            0. 00 0000 001C 0000:_fscanf
          E8....8BE55DC3:
            0. 00 0000 0014 0000:_sprintf (REF 000E: _vsprintf)
            1. 00 0000 0014 0000:_fprintf (REF 000E: _vfprintf)
        ..........:
          83C4048B560A8B46085DCB:
            0. 00 0000 001A 0000:_biostime
          8BE55DCB:
            0. 00 0000 0013 0000:_printf
      0A50FF7608:
        8D4606500EB8....500EB8....50..........8BE55D:
          0. 01 A788 0021 0000:_sscanf
        FF7606:
          BA....B8....5250BA....B8....5250:
            0. 00 0000 0026 0000:_fscanf
          FF7604E8....8BE55DC3:
            0. 00 0000 0017 0000:__snprintf
          ..........8BE55DCB:
            0. 00 0000 0016 0000:_sprintf (REF 000E: _vsprintf)
            1. 00 0000 0016 0000:_fprintf (REF 000E: _vfprintf)
      0C50FF760AFF7608FF7606..........8BE55DCB:
        0. 00 0000 0019 0000:__snprintf
    9BDD46:
      049BD9FA83EC08909BDD7EF89B8B46F8253F000906....9BDD5E:
        0. 6E 1C8F 03BD 0000:__sqrt87 0028:__poly87 005B:__chop87 005F:__floor87 0063:__ceil87 0090:__fmod87 00C0:__atan287 0157:__asincos87 01A0:_trigerr 01C8:__sincostan87 0301:__log87 0306:__log1087 0319:__exp87 032A:__pow87
        1. 73 20DC 03C2 0000:__sqrt87 0028:__poly87 0060:__chop87 0064:__floor87 0068:__ceil87 0095:__fmod87 00C5:__atan287 015C:__asincos87 01A5:_trigerr 01CD:__sincostan87 0306:__log87 030B:__log1087 031E:__exp87 032F:__pow87
      069BD9FA83EC08909BDD7EF89B8B46F8253F000906....9BDD5E:
        0. 73 48E6 03C8 0000:__sqrt87 0028:__poly87 0060:__chop87 0064:__floor87 0068:__ceil87 0095:__fmod87 00C5:__atan287 015E:__asincos87 01A9:_trigerr 01D3:__sincostan87 030C:__log87 0311:__log1087 0324:__exp87 0335:__pow87
        1. 6E 967B 03C3 0000:__sqrt87 0028:__poly87 005B:__chop87 005F:__floor87 0063:__ceil87 0090:__fmod87 00C0:__atan287 0159:__asincos87 01A4:_trigerr 01CE:__sincostan87 0307:__log87 030C:__log1087 031F:__exp87 0330:__pow87
    A1....:
      0B06....750AC706........8C1E....A1....D1E0D1E005:
        0. 02 7B38 0045 0000:__fatexit
      8B5E:
        068907A1....8B5E0489075DC20400:
          0. 00 0000 0017 (l)0000:_SAVEERRNOSTATUS
        088907A1....8B5E0689075DCA0400:
          0. 00 0000 0017 (l)0000:_SAVEERRNOSTATUS
      C45E:
        08268907A1....C45E042689075DC20800:
          0. 00 0000 0019 (l)0000:_SAVEERRNOSTATUS
        0A268907A1....C45E062689075DCA0800:
          0. 00 0000 0019 (l)0000:_SAVEERRNOSTATUS
    B00A50FF76:
      04E8....FF7604E8....8B46045DC3:
        0. 00 0000 0017 0000:?endl@@YAAAVostream@@AAV1@@Z
      06:
        FF7604E8....FF7606FF7604E8....8B56068B46045DC3:
          0. 00 0000 0020 0000:?endl@@YAAEVostream@@AEV1@@Z
        ..........FF7606..........8B46065DCB:
          0. 00 0000 001B 0000:?endl@@ZAAAVostream@@AAV1@@Z
      08FF7606..........FF7608FF7606..........8B56088B:
        0. 04 7A6C 0024 0000:?endl@@ZAAEVostream@@AEV1@@Z
    B4:
      068A56:
        04CD218B46045DC3:
          0. 00 0000 000F 0000:_putch
        06CD218B46065DCB:
          0. 00 0000 000F 0000:_putch
      19CD2132E440:
        8B5E:
          0489075DC3558BEC8B56044AB40ECD2132E48B5E:
            0. 33 FC67 0087 0000:_dos_getdrive 0011:_dos_setdrive 0023:_dos_getftime 003E:_dos_setftime 0057:_dos_getfileattr 0073:_dos_setfileattr
          0689075DCB558BEC8B56064AB40ECD2132E48B5E:
            0. 32 6244 008B 0000:_dos_getdrive 0011:_dos_setdrive 0023:_dos_getftime 003E:_dos_setftime 0059:_dos_getfileattr 0077:_dos_setfileattr
        C45E:
          042689075DC3558BEC8B56044AB40ECD2132E4C4:
            0. 36 FA6A 008F 0000:_dos_getdrive 0012:_dos_setdrive 0024:_dos_getftime 0041:_dos_setftime 005A:_dos_getfileattr 0079:_dos_setfileattr
          062689075DCB558BEC8B56064AB40ECD2132E4C4:
            0. 35 AB99 0093 0000:_dos_getdrive 0012:_dos_setdrive 0024:_dos_getftime 0041:_dos_setftime 005C:_dos_getfileattr 007D:_dos_setfileattr
      2ACD21:
        8B5E:
          04890F8957025DC3:
            0. 00 0000 0011 0000:_getdate
          06890F8957025DCB:
            0. 00 0000 0011 0000:_getdate
        C45E:
          0426890F268957025DC3:
            0. 00 0000 0013 0000:_getdate
          0626890F268957025DCB:
            0. 00 0000 0013 0000:_getdate
      2CCD21:
        5D5252BB3C008AC3F6E532ED03C1F7E35B8ADF32FF03C383D2:
          0. 24 4968 0060 0000:_clock (0010: C3)
          1. 24 4968 0062 0000:_clock (0010: CB)
        8B5E:
          04890F8957025DC3:
            0. 00 0000 0011 0000:_gettime
          06890F8957025DCB:
            0. 00 0000 0011 0000:_gettime
        C45E:
          0426890F268957025DC3:
            0. 00 0000 0013 0000:_gettime
          0626890F268957025DCB:
            0. 00 0000 0013 0000:_gettime
      2E8A46:
        04CD215DC3:
          0. 00 0000 000C 0000:_setverify
        06CD215DCB:
          0. 00 0000 000C 0000:_setverify
    B8:
      000450:
        837E:
          060119C025040050FF7606FF7604E8....8BE55DC3:
            0. 00 0000 001E 0000:_setbuf
          080119C025040050FF7608FF7606..........8BE55DCB:
            0. 00 0000 0020 0000:_setbuf
        8B46:
          0A0B4608740431C0EB03B8040050FF760AFF7608FF7606:
            0. 04 2B63 002A 0000:_setbuf
          0C0B460A740431C0EB03B8040050FF760CFF760AFF7608:
            0. 03 1DC1 002C 0000:_setbuf
      01:
        0050:
          168D46:
            0850E8....83C4045250168D460850FF7606FF7604B8:
              0. 04 197D 002A 0000:_execlpe
            0A50:
              E8....83C4045250168D460A50FF7608FF7606FF:
                0. 03 EB9C 0029 0000:_spawnlpe
              ..........83C4045250168D460A50FF7608FF76:
                0. 05 9697 002E 0000:_execlpe
            0C50..........83C4045250168D460C50FF760AFF76:
              0. 04 D71E 002D 0000:_spawnlpe
          1EB8....50FF76:
            0AFF7608FF7606FF7604FF760CFF7610FF76:
              0. 08 C427 002C 0000:_fcvt
            0CFF760AFF7608FF7606FF760EFF7612FF76:
              0. 07 8156 002E 0000:_fcvt
          4850:
            50:
              168D46:
                0850FF7606FF7604B8020050E8....8BE55DC3:
                  0. 00 0000 0020 0000:_execlp
                0A50FF7608FF7606:
                  B8020050..........8BE5:
                    0. 02 1714 0022 0000:_execlp
                  FF7604E8....8BE55DC3:
                    0. 00 0000 001F 0000:_spawnlp
                0C50FF760AFF7608FF7606..........8BE55D:
                  0. 01 A788 0021 0000:_spawnlp
              FF76:
                0AFF7608FF7606FF7604B00250E8....8BE55DC3:
                  0. 00 0000 0020 0000:_execvp
                0CFF760AFF7608FF7606:
                  B00250..........8BE5:
                    0. 02 1714 0022 0000:_execvp
                  FF7604E8....8BE55DC3:
                    0. 00 0000 0020 0000:_spawnvp
                0EFF760CFF760AFF7608FF7606..........8BE5:
                  0. 02 1714 0022 0000:_spawnvp
            8D46:
              0650FF7604B8020050E8....8BE55DC3:
                0. 00 0000 001B 0000:_execlp
              0850FF7606:
                B8020050..........8BE55DCB:
                  0. 00 0000 001D 0000:_execlp
                FF7604E8....8BE55DC3:
                  0. 00 0000 001A 0000:_spawnlp
              0A50FF7608FF7606..........8BE55DCB:
                0. 00 0000 001C 0000:_spawnlp
            FF76:
              06FF7604B00250E8....8BE55DC3:
                0. 00 0000 0019 0000:_execvp
              08FF7606:
                B00250..........8BE55DCB:
                  0. 00 0000 001B 0000:_execvp
                FF7604E8....8BE55DC3:
                  0. 00 0000 0019 0000:_spawnvp
              0AFF7608FF7606..........8BE55DCB:
                0. 00 0000 001B 0000:_spawnvp
          8D46:
            0650E8....83C402508D460650FF7604B8020050E8:
              0. 04 A1B6 0024 0000:_execlpe
            0850:
              E8....83C402508D460850FF7606FF7604E8....8B:
                0. 03 C861 0023 0000:_spawnlpe
              ..........83C402508D460850FF7606B8020050:
                0. 00 0000 0028 0000:_execlpe
            0A50..........83C402508D460A50FF7608FF7606:
              0. 00 0000 0027 0000:_spawnlpe
          B8....50FF76:
            0AFF7608FF7606FF7604FF760CFF760EFF7610:
              0. 01 3E9B 0025 0000:_fcvt
            0CFF760AFF7608FF7606FF760EFF7610FF7612:
              0. 00 0000 0027 0000:_fcvt
          FF76:
            04E8....8B:
              5E048B47065DC20200:
                0. 00 0000 0017 0000:?str@strstreambuf@@QACPADXZ
              E55DC3:
                0. 00 0000 0011 0000:?set_new_handler@@YAP6AXXZP6AXXZ@Z
            06:
              FF7604E8....C45E04268B570A268B47085DC20400:
                0. 00 0000 001F 0000:?str@strstreambuf@@QECPEDXZ
              ..........8B5E068B47065DCA0200:
                0. 00 0000 0019 0000:?str@strstreambuf@@RACPADXZ
            08FF7606:
              FF76044050E8....8BE55DC3:
                0. 00 0000 0019 0000:_execvpe
              ..........:
                8BE55DCB:
                  0. 00 0000 0016 0000:?set_new_handler@@ZAP7AXXZP7AXXZ@Z
                C45E06268B570A268B47085DCA04:
                  0. 01 78F0 0021 0000:?str@strstreambuf@@RECPEDXZ
            0AFF7608FF7606:
              4050..........8BE55DCB:
                0. 00 0000 001B 0000:_execvpe
              FF7604E8....8BE55DC3:
                0. 00 0000 001A 0000:_spawnvpe
            0CFF760AFF7608FF7606..........8BE55DCB:
              0. 00 0000 001C 0000:_spawnvpe
            0EFF760CFF760AFF7608FF7606FF76044050E8....8BE5:
              0. 02 5F98 0022 0000:_execvpe
            10FF760EFF760CFF760AFF7608FF7606:
              4050:
                0. 04 E93A 0024 0000:_execvpe
              FF7604E8....8B:
                0. 03 C861 0023 0000:_spawnvpe
            12FF7610FF760EFF760CFF760AFF7608FF7606:
              0. 00 0000 0025 0000:_spawnvpe
        338A56:
          04CD218AC230E45DC3:
            0. 00 0000 0011 0000:_setcbrk
          06CD218AC230E45DCB:
            0. 00 0000 0011 0000:_setcbrk
      020050FF76:
        04E8....8BE55DC3:
          0. 00 0000 0011 0000:?_set_new_handler@@YAP6AHI@ZP6AHI@Z@Z
        08FF7606..........8BE55DCB:
          0. 00 0000 0016 0000:?_set_new_handler@@ZAP7AHI@ZP7AHI@Z@Z
      100050FF76:
        08FF7606FF7604:
          E8....8BE55DC20600:
            0. 00 0000 0019 (l)0000:UL2A
          ..........8BE55DC20600:
            0. 00 0000 001B (l)0000:UL2A
        0AFF7608FF7606FF7604:
          E8....8BE55DC20800:
            0. 00 0000 001C (l)0000:UL2A
          ..........8BE55DC20800:
            0. 00 0000 001E (l)0000:UL2A
      F03F5031C0505050FF76:
        0AFF7608FF7606FF7604E8....8BE55DC3:
          0. 00 0000 001F 0000:_atan
        0CFF760AFF7608FF7606..........8BE55D:
          0. 01 A788 0021 0000:_atan
      FFFF:
        5D:
          C2:
            0400:
              0. 00 0000 000A (!)0000:?
            0600:
              0. 00 0000 000A (!)0000:?
          CA:
            0400:
              0. 00 0000 000A (!)0000:?
            0600:
              0. 00 0000 000A (!)0000:?
        995D:
          C2:
            0A00:
              0. 00 0000 000B 0000:?seekoff@streambuf@@UACJJW4seek_dir@ios@@H@Z
            0C00:
              0. 00 0000 000B 0000:?seekoff@streambuf@@UECJJW4seek_dir@ios@@H@Z
          CA:
            0A00:
              0. 00 0000 000B 0000:?seekoff@streambuf@@VACJJW4seek_dir@ios@@H@Z
            0C00:
              0. 00 0000 000B 0000:?seekoff@streambuf@@VECJJW4seek_dir@ios@@H@Z
        C45E:
          0426837F2C00743C268B4716260B4714740C268B4714262B:
            0. 30 7988 0050 0000:?detach@filebuf@@QECHXZ
          0626837F2C00743C268B4716260B4714740C268B4714262B:
            0. 30 D162 0050 0000:?detach@filebuf@@RECHXZ
      ....:
        50:
          E8....:
            0EB8....50..........8BE55DCB:
              0. 00 0000 0018 0000:___SI?%___ios_dbp_cpp1194036109_ (REF 000C: ___SD?%___ios_dbp_cpp1194036109_)
              1. 00 0000 0018 0000:___SI?%___ios_fstream_cpp1194213723_ (REF 000C: ___SD?%___ios_fstream_cpp1194213723_)
              2. 00 0000 0018 0000:___SI?%___ios_ios_cpp1194558449_ (REF 000C: ___SD?%___ios_ios_cpp1194558449_)
              3. 00 0000 0018 0000:___SI?%___ios_istream_cpp1194808158_ (REF 000C: ___SD?%___ios_istream_cpp1194808158_)
              4. 00 0000 0018 0000:___SI?%___ios_istreamf_cpp1195072312_ (REF 000C: ___SD?%___ios_istreamf_cpp1195072312_)
              5. 00 0000 0018 0000:___SI?%___ios_istreami_cpp1195246883_ (REF 000C: ___SD?%___ios_istreami_cpp1195246883_)
              6. 00 0000 0018 0000:___SI?%___ios_istreamx_cpp1195442259_ (REF 000C: ___SD?%___ios_istreamx_cpp1195442259_)
              7. 00 0000 0018 0000:___SI?%___ios_manip_cpp1195556036_ (REF 000C: ___SD?%___ios_manip_cpp1195556036_)
              8. 00 0000 0018 0000:___SI?%___ios_ostream_cpp1195681631_ (REF 000C: ___SD?%___ios_ostream_cpp1195681631_)
              9. 00 0000 0018 0000:___SI?%___ios_ostreamf_cpp1195872640_ (REF 000C: ___SD?%___ios_ostreamf_cpp1195872640_)
              10. 00 0000 0018 0000:___SI?%___ios_ostreami_cpp1195995184_ (REF 000C: ___SD?%___ios_ostreami_cpp1195995184_)
              11. 00 0000 0018 0000:___SI?%___ios_ostreamx_cpp1196103120_ (REF 000C: ___SD?%___ios_ostreamx_cpp1196103120_)
              12. 00 0000 0018 0000:___SI?%___ios_siosync_cpp1196213010_ (REF 000C: ___SD?%___ios_siosync_cpp1196213010_)
              13. 00 0000 0018 0000:___SI?%___ios_stdiostr_cpp1196321737_ (REF 000C: ___SD?%___ios_stdiostr_cpp1196321737_)
              14. 00 0000 0018 0000:___SI?%___ios_stream_cpp1196469420_ (REF 000C: ___SD?%___ios_stream_cpp1196469420_)
              15. 00 0000 0018 0000:___SI?%___ios_streambf_cpp1196609391_ (REF 000C: ___SD?%___ios_streambf_cpp1196609391_)
              16. 00 0000 0018 0000:___SI?%___ios_strstrea_cpp1196744154_ (REF 000C: ___SD?%___ios_strstrea_cpp1196744154_)
            5DCB:
              0. 00 0000 000C (!)0000:?
            B8:
              010050B9....51E8....B8010050B9....51E8:
                0. 05 D52C 0044 0000:___SI?%___ios_iostream_cpp1194683987_
              ....50E8....B8....50E8....B8....50E8....B8:
                0. 00 0000 0028 0000:___SD?%___ios_iostream_cpp1194683987_
          FF76:
            04E8....8BE55DC3:
              0. 00 0000 0011 0000:_putchar
            06..........8BE55DCB:
              0. 00 0000 0013 0000:_putchar
          ..........:
            0EB8....50..........8BE55DCB:
              0. 00 0000 001A 0000:___SI?%___ios_dbp_cpp1261638199_ (REF 000E: ___SD?%___ios_dbp_cpp1261638199_)
              1. 00 0000 001A 0000:___SI?%___ios_fstream_cpp1261744004_ (REF 000E: ___SD?%___ios_fstream_cpp1261744004_)
              2. 00 0000 001A 0000:___SI?%___ios_ios_cpp1262083413_ (REF 000E: ___SD?%___ios_ios_cpp1262083413_)
              3. 00 0000 001A 0000:___SI?%___ios_istream_cpp1262330788_ (REF 000E: ___SD?%___ios_istream_cpp1262330788_)
              4. 00 0000 001A 0000:___SI?%___ios_istreamf_cpp1262593849_ (REF 000E: ___SD?%___ios_istreamf_cpp1262593849_)
              5. 00 0000 001A 0000:___SI?%___ios_istreami_cpp1262767723_ (REF 000E: ___SD?%___ios_istreami_cpp1262767723_)
              6. 00 0000 001A 0000:___SI?%___ios_istreamx_cpp1262957394_ (REF 000E: ___SD?%___ios_istreamx_cpp1262957394_)
              7. 00 0000 001A 0000:___SI?%___ios_manip_cpp1263066209_ (REF 000E: ___SD?%___ios_manip_cpp1263066209_)
              8. 00 0000 001A 0000:___SI?%___ios_ostream_cpp1263185852_ (REF 000E: ___SD?%___ios_ostream_cpp1263185852_)
              9. 00 0000 001A 0000:___SI?%___ios_ostreamf_cpp1263376475_ (REF 000E: ___SD?%___ios_ostreamf_cpp1263376475_)
              10. 00 0000 001A 0000:___SI?%___ios_ostreami_cpp1263490681_ (REF 000E: ___SD?%___ios_ostreami_cpp1263490681_)
              11. 00 0000 001A 0000:___SI?%___ios_ostreamx_cpp1263605586_ (REF 000E: ___SD?%___ios_ostreamx_cpp1263605586_)
              12. 00 0000 001A 0000:___SI?%___ios_siosync_cpp1263715571_ (REF 000E: ___SD?%___ios_siosync_cpp1263715571_)
              13. 00 0000 001A 0000:___SI?%___ios_stdiostr_cpp1263823608_ (REF 000E: ___SD?%___ios_stdiostr_cpp1263823608_)
              14. 00 0000 001A 0000:___SI?%___ios_stream_cpp1263982025_ (REF 000E: ___SD?%___ios_stream_cpp1263982025_)
              15. 00 0000 001A 0000:___SI?%___ios_streambf_cpp1264121757_ (REF 000E: ___SD?%___ios_streambf_cpp1264121757_)
              16. 00 0000 001A 0000:___SI?%___ios_strstrea_cpp1264257034_ (REF 000E: ___SD?%___ios_strstrea_cpp1264257034_)
            5DCB:
              0. 00 0000 000E (!)0000:? (REF 0008: ??1Iostream_init@@RAC@XZ)
            B8:
              010050B9....51..........B8010050B9:
                0. 01 74B3 004E 0000:___SI?%___ios_iostream_cpp1262208232_
              ....50..........B8....50..........B8:
                0. 00 0000 0032 0000:___SD?%___ios_iostream_cpp1262208232_
        C45E042689078B:
          4608268947028CC289D85DC3:
            0. 00 0000 0019 0000:?setfill@@YA?EVsmanip_int@@H@Z (REF 0004: ?sfill@@YAAEVios@@AEV1@H@Z)
            1. 00 0000 0019 0000:?setprecision@@YA?EVsmanip_int@@H@Z (REF 0004: ?sprec@@YAAEVios@@AEV1@H@Z)
            2. 00 0000 0019 0000:?setw@@YA?EVsmanip_int@@H@Z (REF 0004: ?swidth@@YAAEVios@@AEV1@H@Z)
            3. 00 0000 0019 0000:?setbase@@YA?EVsmanip_int@@H@Z (REF 0004: ?sbase@@YAAEVios@@AEV1@H@Z)
          560A8B460826895704268947028CC289D85DC3:
            0. 00 0000 0020 0000:?setiosflags@@YA?EVsmanip_long@@J@Z (REF 0004: ?sios@@YAAEVios@@AEV1@J@Z)
            1. 00 0000 0020 0000:?resetiosflags@@YA?EVsmanip_long@@J@Z (REF 0004: ?rsios@@YAAEVios@@AEV1@J@Z)
    BA....B8....C45E:
      0426895702268907:
        26:
          837F:
            0400740E26FF770A26FF:
              0. 03 976F 002C 0000:??1streambuf@@UEC@XZ
            2A00740BFF7606FF7604:
              0. 01 3E9B 003D 0000:??1filebuf@@UEC@XZ
          8A472C24033C01752926837F:
            0. 21 BFF6 0053 0000:??1strstreambuf@@UEC@XZ
          8B5726268B472489D109C174:
            0. 04 EC97 002D 0000:??1ios@@UEC@XZ
          C747:
            04000026C747060000:
              26:
                0. 67 3D74 0087 0000:??0streambuf@@QEC@XZ
              8B:
                0. 6E D9E5 008E 0000:??0streambuf@@QEC@PEDH@Z
            24000026C747260000:
              8C:
                0. 07 CDF9 0027 0000:??0ios@@IEC@XZ
              FF:
                0. 0A 737A 0036 0000:??0ios@@QEC@PEVstreambuf@@@Z
        5DC3:
          0. 00 0000 0015 0000:??1Type_info@@UEA@XZ
        8CC289D883C02A5250E8....FF:
          0. 06 198E 002C 0000:??1stdiostream@@UEC@XZ
        B8FFFF50FF760653E8....FF76:
          0. 05 1A6B 002B 0000:??1stdiobuf@@UEC@XZ
      0626895702268907:
        26:
          837F:
            0400741026FF770A26FF:
              0. 02 C33E 002E 0000:??1streambuf@@VEC@XZ
            2A00740DFF7608FF7606:
              0. 00 0000 0043 0000:??1filebuf@@VEC@XZ
          8A473024033C01752E268B47:
            0. 23 F48D 005A 0000:??1strstreambuf@@VEC@XZ
          8B5726268B472489D109C174:
            0. 03 7407 002F 0000:??1ios@@VEC@XZ
          C747:
            04000026C747060000:
              26:
                0. 67 FFB2 0087 0000:??0streambuf@@REC@XZ
              8B:
                0. 6E 3F47 008E 0000:??0streambuf@@REC@PEDH@Z
            24000026C747260000:
              8C:
                0. 07 0F3F 0027 0000:??0ios@@JEC@XZ
              FF:
                0. 09 AFE2 0038 0000:??0ios@@REC@PEVstreambuf@@@Z
        5DCB:
          0. 00 0000 0015 0000:??1Type_info@@VEA@XZ
        8CC289D883C02A5250:
          0. 00 0000 0030 0000:??1stdiostream@@VEC@XZ
        B8FFFF50FF760853:
          0. 06 C7C6 002F 0000:??1stdiobuf@@VEC@XZ
    C45E:
      0426:
        80:
          3F0074:
            1AC45E04FF4604268A079850E8....83C402C45E04:
              0. 08 0428 0028 0000:_disp_puts
            24C45E04268A079850E8....83C40283F8FF7505B8:
              0. 14 51E3 0034 0000:__cputs
            2AFF760AFF7608C45E04268A079850E8....83C406:
              0. 1A 1767 003A 0000:_fputs
          670ACF5DC3:
            0. 00 0000 000D 0000:_clearerr
        8A:
          0784C074393C2B74123C2D740E3C3A740A9889C3F687:
            0. 21 9C39 009B (l)0000:NEXT_NUMBER (REF 008C: .)
          1730F68ADA30FFF687....0474138BC28AE032C0C45E0426:
            0. 0D 1B06 002D 0000:__mbsnextc
          1F30FFF687....04B802007501485DC3:
            0. 00 0000 0018 0000:__mbclen
        8B:
          07253F000906....5DC3:
            0. 00 0000 0012 0000:_fesetexceptflag
          47:
            02260B07741083460404C45E04268B4702260B0775F0C4:
              0. 0C E947 002C 0000:___seek_envp
            0A25:
              10005DC3:
                0. 00 0000 000F 0000:_feof
              20005DC3:
                0. 00 0000 000F 0000:_ferror
            2426:
              3B47207610C45E0426C45F20268A0730E45DC20400:
                0. 17 B950 0037 0000:?underflow@streambuf@@UECHXZ
              8B4F203BC17610C45E0426C45F20268A0730E45DC2:
                0. 53 2C68 00C4 0000:?underflow@strstreambuf@@UECHXZ
            FE83C0FE5DC3:
              0. 00 0000 000F 0000:__fmsize
          4F0E81E10001837E0800740FC45E0426804F0F0126804F12:
            0. 1C 8BD4 003C 0000:?skip@ios@@QECHH@Z
        C74728000031C0268947102689470C26C7470E000126C74712:
          0. 30 0FD3 0050 0000:?init@ios@@IECXPEVstreambuf@@@Z
        F647:
          0A08741E268B5708268B470689D109C174105250E8:
            0. 33 75A2 0053 0000:_FREEBUF
          2C017415837E0800740AC45E0426804F2C02EB05268067:
            0. 06 A215 0026 0000:?freeze@strstreambuf@@QECXH@Z
        FF772A26FF7728FF7608E8....8BE55DC20600:
          0. 00 0000 001A 0000:?pbackfail@stdiobuf@@UECHH@Z
      0626:
        80:
          3F0074:
            1CC45E06FF4606268A079850..........83C402C4:
              0. 0A 3257 002A 0000:_disp_puts
            26C45E06268A079850..........83C40283F8FF75:
              0. 16 5DC1 0036 0000:__cputs
            2CFF760CFF760AC45E06268A079850..........83:
              0. 1C 44D8 003C 0000:_fputs
          670ACF5DCB:
            0. 00 0000 000D 0000:_clearerr
        8A:
          1730F68ADA30FFF687....0474138BC28AE032C0C45E0626:
            0. 0D 538A 002D 0000:__mbsnextc
          1F30FFF687....04B802007501485DCB:
            0. 00 0000 0018 0000:__mbclen
        8B:
          07253F000906....5DCB:
            0. 00 0000 0012 0000:_fesetexceptflag
          47:
            02260B07741083460604C45E06268B4702260B0775F0C4:
              0. 0C 8360 002C 0000:___seek_envp
            0A25:
              10005DCB:
                0. 00 0000 000F 0000:_feof
              20005DCB:
                0. 00 0000 000F 0000:_ferror
            2426:
              3B47207610C45E0626C45F20268A0730E45DCA0400:
                0. 17 7B96 0037 0000:?underflow@streambuf@@VECHXZ
              8B4F203BC17610C45E0626C45F20268A0730E45DCA:
                0. 52 0AAA 00C8 0000:?underflow@strstreambuf@@VECHXZ
            FE83C0FE5DCB:
              0. 00 0000 000F 0000:__fmsize
          4F0E81E10001837E0A00740FC45E0626804F0F0126804F12:
            0. 1C 4912 003C 0000:?skip@ios@@RECHH@Z
        C74728000031C0268947102689470C26C7470E000126C74712:
          0. 30 C422 0050 0000:?init@ios@@JECXPEVstreambuf@@@Z
        F647:
          0A087420268B5708268B470689D109C174125250:
            0. 00 0000 0055 0000:_FREEBUF
          30017415837E0A00740AC45E0626804F3002EB05268067:
            0. 06 24A0 0026 0000:?freeze@strstreambuf@@RECXH@Z
        FF772A26FF7728FF760A..........8BE55DCA0600:
          0. 00 0000 001C 0000:?pbackfail@stdiobuf@@VECHH@Z
      08268B5706268B4704C45E0426895706268947048CC289D85DC3:
        0. 00 0000 001F 0000:??4Type_info@@AEAAEV0@AFV0@@Z
      0A268B5706268B4704C45E0626895706268947048CC289D85DCB:
        0. 00 0000 001F 0000:??4Type_info@@BEAAEV0@AFV0@@Z
      0C26F6470A83740AFF760E53E8....83C404FF7606FF7604FF760A:
        0. 0A 7047 002E 0000:_freopen
      0E26F6470A83740CFF761053..........83C404FF7608FF7606FF:
        0. 0B 0B26 0032 0000:_freopen
    C606....00:
      1EB8....501EBB....53FF76:
        06FF7604E8....83C40C803E:
          0. 00 0000 0031 0000:_searchpath
        08FF7606..........83C40C:
          0. 02 765B 0033 0000:_searchpath
      8B46:
        060B46047427C45E0426803F00741E1EB8....50FF76:
          0. 06 D35E 005C 0000:__strerror
        080B4606742BC45E0626803F0074221EB8....50FF76:
          0. 06 C9D2 0066 0000:__strerror
      B8....50B9....51FF76:
        04E8....83C406803E....007405:
          0. 01 BBC9 0029 0000:_searchpath
        06..........83C406803E....00:
          0. 03 0E62 002B 0000:_searchpath
    C706....0100833E....0075:
      28833E....0074218B1E....8B47020B07:
        0. 04 A016 0086 0000:_exit
      2FA1....0B06....7426C41E....268B47:
        0. 08 BCCB 008D 0000:_exit
      3F:
        833E....0074388B1E....8B47020B07:
          0. 04 A8B9 0095 0000:_exit
        A1....0B06....7436C41E....268B47:
          0. 08 124D 0095 0000:_exit
    E461508B5E:
      0424FCE6618B4E06E2FE0C02E6618B4E08E2FE4B75EB58E6:
        0. 44 D8A0 0064 0000:_sound_tone 0023:_sound_beep 004B:_sound_click
      0624FCE6618B4E08E2FE0C02E6618B4E0AE2FE4B75EB58E6:
        0. 44 55FA 0064 0000:_sound_tone 0023:_sound_beep 004B:_sound_click
    E8....:
      33D2F776045DC3:
        0. 00 0000 000D 0000:__freect
      5DC3:
        0. 00 0000 0008 (l)0000:?unexpected_default@@YAXXZ (REF 0004: ?terminate@@YAXXZ)
        1. 00 0000 0008 (l)0000:?terminate_default@@YAXXZ (REF 0004: _abort)
      85C07405B801005DC38B460485C0740C83F801741583F802741E:
        0. 04 941A 011C 0000:_tsr_install
      ..:
        0. 00 0000 0006 0000:?__eh_error@@YAXXZ (REF 0004: _abort)
    F646:
      043F74148B4604253F000906....B8080050E8....83C4025DC3:
        0. 00 0000 001F 0000:_feraiseexcept
      063F74168B4606253F000906....B8080050..........83C4025D:
        0. 01 A788 0021 0000:_feraiseexcept
    FF:
      06....:
        833E....007406FF16....EB03E8....E8....5DC3:
          0. 00 0000 001C 0000:?terminate@@YAXXZ
        A1....:
          0B06....7406FF1E....EB05:
            0. 02 1714 0022 0000:?terminate@@ZAXXZ
          5D:
            C3:
              0. 00 0000 000C 0000:?xalloc@ios@@SAHXZ
            CB:
              0. 00 0000 000C 0000:?xalloc@ios@@TAHXZ
      0E....75:
        45833E....007410B8010050FF36....8B1E....8B1FFF:
          17:
            0. 02 1E71 0052 0000:??1Iostream_init@@QAC@XZ
          1F:
            0. 02 1E71 0052 0000:??1Iostream_init@@RAC@XZ
        5DA1....0B06....7416B8010050FF36....FF36....C41E:
          0. 00 0000 006A 0000:??1Iostream_init@@QEC@XZ (0047: C2)
          1. 00 0000 006A 0000:??1Iostream_init@@REC@XZ (0047: CA)
      76:
        04:
          31C050E8....8BE55DC3:
            0. 00 0000 0010 0000:_getfatd
          8B46:
            0685C07503B8....50B8....50B8....50E8....E8....8B:
              0. 03 C861 0023 0000:?genericerror@@YAXHPAD@Z
            080B460674088B56088B4606EB058CDAB8....52501EB8:
              0. 00 0000 0031 0000:?genericerror@@YAXHPED@Z
          E8....:
            5DC20200:
              0. 00 0000 000D (l)0000:UM_ECSU_NAME
            83C402:
              50E8....8BE55DC3:
                0. 00 0000 0014 0000:_ctime
              83F80119C0F7D05DC3:
                0. 00 0000 0015 0000:__commit (REF 0007: __dos_commit)
                1. 00 0000 0015 0000:_freemem (REF 0007: __dos_freemem)
              8B46045DC3:
                0. 00 0000 0011 0000:?WS@@YAAAVistream@@AAV1@@Z
            8B:
              4604:
                5DC3:
                  0. 00 0000 000E 0000:?flush@@YAAAVostream@@AAV1@@Z
                83C0:
                  0450E8....5DC20200:
                    0. 00 0000 0017 0000:??_Dostream@@UACXXZ (REF 0007: ??1ostream@@UAC@XZ)
                    1. 00 0000 0017 0000:??_Dostream_withassign@@UACXXZ (REF 0007: ??1ostream_withassign@@UAC@XZ)
                  0650E8....5DC20200:
                    0. 00 0000 0017 0000:??_Distream@@UACXXZ (REF 0007: ??1istream@@UAC@XZ)
                    1. 00 0000 0017 0000:??_Distream_withassign@@UACXXZ (REF 0007: ??1istream_withassign@@UAC@XZ)
                  0A50E8....5DC20200:
                    0. 00 0000 0017 0000:??_Diostream_withassign@@UACXXZ (REF 0007: ??1iostream_withassign@@UAC@XZ)
                    1. 00 0000 0017 0000:??_Diostream@@UACXXZ (REF 0007: ??1iostream@@UAC@XZ)
                  2450E8....5DC20200:
                    0. 00 0000 0017 0000:??_Dstrstreambase@@UACXXZ
                  2850E8....5DC20200:
                    0. 00 0000 0017 0000:??_Dostrstream@@UACXXZ (REF 0007: ??1ostrstream@@UAC@XZ)
                    1. 00 0000 0017 0000:??_Dfstreambase@@UACXXZ (REF 0007: ??1fstreambase@@UAC@XZ)
                  2A50E8....5DC20200:
                    0. 00 0000 0017 0000:??_Distrstream@@UACXXZ
                  2C50E8....5DC20200:
                    0. 00 0000 0017 0000:??_Dofstream@@UACXXZ
                  2E50E8....5DC20200:
                    0. 00 0000 0017 0000:??_Dstrstream@@UACXXZ (REF 0007: ??1strstream@@UAC@XZ)
                    1. 00 0000 0017 0000:??_Difstream@@UACXXZ (REF 0007: ??1ifstream@@UAC@XZ)
                  3250E8....5DC20200:
                    0. 00 0000 0017 0000:??_Dfstream@@UACXXZ
              5E:
                04C707....:
                  8B46:
                    088947168B4606894718C7471C00:
                      0. 12 731C 0032 0000:??0strstreambuf@@QAC@P6APAXJ@ZP6AXPAX@Z@Z
                    0A894716C7471A0100C747180000:
                      0. 12 E87E 003B 0000:??0filebuf@@QAC@HPADH@Z
                  C747160000C747180000C7471C00008B:
                    0. 10 8609 0030 0000:??0strstreambuf@@QAC@XZ
                  FF760AFF7608FF760653E8....8B4604:
                    0. 04 A5D3 0024 0000:??0strstreambuf@@QAC@PADH0@Z
                06895702890783C40283FAFF750383F8FFB8FFFF74:
                  0. 04 0B71 0024 0000:_fgetpos
              E55DC3:
                0. 00 0000 000D (!)0000:? (REF 0007: ?__do_newalloc@@YAPEXI@Z)
                1. 00 0000 000D 0000:_getc (REF 0007: _fgetc)
                2. 00 0000 000D 0000:__tcsrev (REF 0007: __mbsrev)
                3. 00 0000 000D 0000:__tcsinc (REF 0007: __mbsinc)
                4. 00 0000 000D 0000:__tclen (REF 0007: __mbclen)
                5. 00 0000 000D 0000:__tcsclen (REF 0007: __mbslen)
                6. 00 0000 000D 0000:??_Q@YAXPAX@Z (REF 0007: ??3@YAXPAX@Z)
                7. 00 0000 000D (l)0000:_disp2_putc (REF 0007: _disp_putc)
            B8....50E8....83C40431C05DC3:
              0. 00 0000 0017 0000:_feholdexcept
            FF76068B460483C02250E8....8B5E04C707....83C322:
              0. 05 2C38 002E 0000:??0stdiostream@@QAC@PAU_iobuf@@@Z
        06:
          31C050..........8BE55DCB:
            0. 00 0000 0012 0000:_getfatd
          8A460430E450E8....83C40483F8FF741CFF76068B46048AC498:
            0. 04 5D62 0038 0000:_putw
          8B46:
            0885C07503B8....50B8....50B8....50:
              0. 00 0000 0027 0000:?genericerror@@ZAXHPAD@Z
            0A0B460874088B560A8B4608EB058CDAB8....52501EB8:
              0. 00 0000 0035 0000:?genericerror@@ZAXHPED@Z
          E8....:
            83C402:
              3D00107205B8FFFF5DC3D1E0D1E0D1E0D1E05DC3:
                0. 00 0000 0020 0000:__fmsize
              50FF7604E8....:
                5DC20400:
                  0. 00 0000 0017 (l)0000:STR_CAT1
                83C40250E8....D1C02501008B:
                  0. 03 C861 0023 0000:?before@Type_info@@QAAHABV1@@Z
              D1E083C00250FF7606FF7604E8....83C4068B46:
                0. 03 B532 0023 0000:_wcscpy
            8BE55DCB:
              0. 00 0000 000D 0000:___freef (REF 0007: _free)
              1. 00 0000 000D 0000:___mallocf (REF 0007: _malloc)
            8CDA8BE55DCB:
              0. 00 0000 000F 0000:___mallocf
          FF76:
            04:
              31C050E8....8BE55DC3:
                0. 00 0000 0013 0000:_getfatd
              E8....:
                1EB8....50E8....83C40831C05DC3:
                  0. 00 0000 001B 0000:_feholdexcept
                5DC20400:
                  0. 00 0000 0010 0000:??4ostream_withassign@@QACAAV0@AAV0@@Z (REF 000A: ??4ostream_withassign@@QACAAV0@AAVostream@@@Z)
                  1. 00 0000 0010 (l)0000:UM_ECSU_NAME (REF 000A: UM_SCOPE)
                83C4:
                  0250E8....5DC20400:
                    0. 00 0000 0017 (l)0000:STR_CAT12 (REF 0011: STR_CAT1)
                    1. 00 0000 0017 (l)0000:STR_CAT2 (REF 0011: STR_CAT)
                  04:
                    5250E8....8BE55DC3:
                      0. 00 0000 0018 0000:_ctime
                    83F8FF7505A1....5DC38B5E08890731C0:
                      0. 02 5F98 0022 0000:__dos_open (REF 000A: _dos_open)
                      1. 02 5F98 0022 0000:__dos_creat (REF 000A: _dos_creat)
                    8B56068B46045DC3:
                      0. 00 0000 0017 0000:?WS@@YAAEVistream@@AEV1@@Z
                8B:
                  56068B4604:
                    5DC3:
                      0. 00 0000 0014 0000:?flush@@YAAEVostream@@AEV1@@Z
                    83C0:
                      085250E8....5DC20400:
                        0. 00 0000 001E 0000:??_Dostream@@UECXXZ (REF 000A: ??1ostream@@UEC@XZ)
                        1. 00 0000 001E 0000:??_Dostream_withassign@@UECXXZ (REF 000A: ??1ostream_withassign@@UEC@XZ)
                      0A5250E8....5DC20400:
                        0. 00 0000 001E 0000:??_Distream@@UECXXZ (REF 000A: ??1istream@@UEC@XZ)
                        1. 00 0000 001E 0000:??_Distream_withassign@@UECXXZ (REF 000A: ??1istream_withassign@@UEC@XZ)
                      125250E8....5DC20400:
                        0. 00 0000 001E 0000:??_Diostream_withassign@@UECXXZ (REF 000A: ??1iostream_withassign@@UEC@XZ)
                        1. 00 0000 001E 0000:??_Diostream@@UECXXZ (REF 000A: ??1iostream@@UEC@XZ)
                      3C5250E8....5DC20400:
                        0. 00 0000 001E 0000:??_Dstrstreambase@@UECXXZ
                      405250E8....5DC20400:
                        0. 00 0000 001E 0000:??_Dfstreambase@@UECXXZ
                      445250E8....5DC20400:
                        0. 00 0000 001E 0000:??_Dostrstream@@UECXXZ
                      465250E8....5DC20400:
                        0. 00 0000 001E 0000:??_Distrstream@@UECXXZ
                      485250E8....5DC20400:
                        0. 00 0000 001E 0000:??_Dofstream@@UECXXZ
                      4A5250E8....5DC20400:
                        0. 00 0000 001E 0000:??_Difstream@@UECXXZ
                      4E5250E8....5DC20400:
                        0. 00 0000 001E 0000:??_Dstrstream@@UECXXZ
                      525250E8....5DC20400:
                        0. 00 0000 001E 0000:??_Dfstream@@UECXXZ
                  E55DC3:
                    0. 00 0000 0010 0000:_getc (REF 000A: _fgetc)
                    1. 00 0000 0010 0000:__tcsrev (REF 000A: __mbsrev)
                    2. 00 0000 0010 0000:__tcsinc (REF 000A: __mbsinc)
                    3. 00 0000 0010 0000:__tclen (REF 000A: __mbclen)
                    4. 00 0000 0010 0000:__tcsclen (REF 000A: __mbslen)
                    5. 00 0000 0010 (!)0000:? (REF 000A: _free)
                    6. 00 0000 0010 0000:??_Q@YAXPEX@Z (REF 000A: ??3@YAXPEX@Z)
                    7. 00 0000 0010 0000:_putc (REF 000A: _fputc)
                    8. 00 0000 0010 0000:__tcschr (REF 000A: __mbschr)
                    9. 00 0000 0010 0000:__tcscspn (REF 000A: __mbscspn)
                    10. 00 0000 0010 0000:__tcsninc (REF 000A: __mbsninc)
                    11. 00 0000 0010 0000:__tcsdec (REF 000A: __mbsdec)
                    12. 00 0000 0010 0000:__tcsstr (REF 000A: __mbsstr)
                    13. 00 0000 0010 0000:__tcsspn (REF 000A: __mbsspn)
                    14. 00 0000 0010 0000:__tcspbrk (REF 000A: __mbspbrk)
                    15. 00 0000 0010 0000:__tcsrchr (REF 000A: __mbsrchr)
                    16. 00 0000 0010 0000:__tcstok (REF 000A: __mbstok)
                BA....B8....C45E0426895702268907:
                  26C74728:
                    0. 45 8D6A 0067 0000:??0strstreambuf@@QEC@XZ
                  8B46:
                    0A26:
                      0. 47 20BF 0069 0000:??0strstreambuf@@QEC@P6APEXJ@ZP6AXPEX@Z@Z
                    0E26:
                      0. 29 3D00 0071 0000:??0filebuf@@QEC@HPEDH@Z
                  FF7610FF:
                    0. 10 1078 0057 0000:??0strstreambuf@@QEC@PEDH0@Z
                C45E082689570226890783C40483FAFF750383F8:
                  0. 09 B9C0 0029 0000:_fgetpos
                FF760AFF76088B56068B460483C02A5250E8:
                  0. 01 A9EA 0072 0000:??0stdiostream@@QEC@PEU_iobuf@@@Z
              ..........83C40250E8....5DC20400:
                0. 00 0000 0019 (l)0000:STR_CAT12 (REF 0013: STR_CAT1)
                1. 00 0000 0019 (l)0000:STR_CAT2 (REF 0013: STR_CAT)
            08FF7604B8....50B8....50E8....E8....83C40A:
              0. 00 0000 001D 0000:__assert
          ..........:
            83C402:
              50:
                FF7604E8....5DC20400:
                  0. 00 0000 0019 (l)0000:STR_CAT1
                ..........8BE55DCB:
                  0. 00 0000 0018 0000:_ctime
              83F80119C0F7D05DCB:
                0. 00 0000 0017 0000:__commit (REF 0007: __dos_commit)
                1. 00 0000 0017 0000:_freemem (REF 0007: __dos_freemem)
              8B46065DCB:
                0. 00 0000 0013 0000:?WS@@ZAAAVistream@@AAV1@@Z
            8B:
              4606:
                5DCB:
                  0. 00 0000 0010 0000:?flush@@ZAAAVostream@@AAV1@@Z
                83C0:
                  0450..........5DCA0200:
                    0. 00 0000 001B 0000:??_Dostream@@VACXXZ (REF 0007: ??1ostream@@VAC@XZ)
                    1. 00 0000 001B 0000:??_Dostream_withassign@@VACXXZ (REF 0007: ??1ostream_withassign@@VAC@XZ)
                  0650..........5DCA0200:
                    0. 00 0000 001B 0000:??_Distream@@VACXXZ (REF 0007: ??1istream@@VAC@XZ)
                    1. 00 0000 001B 0000:??_Distream_withassign@@VACXXZ (REF 0007: ??1istream_withassign@@VAC@XZ)
                  0A50..........5DCA0200:
                    0. 00 0000 001B 0000:??_Diostream_withassign@@VACXXZ (REF 0007: ??1iostream_withassign@@VAC@XZ)
                    1. 00 0000 001B 0000:??_Diostream@@VACXXZ (REF 0007: ??1iostream@@VAC@XZ)
                  2850..........5DCA0200:
                    0. 00 0000 001B 0000:??_Dstrstreambase@@VACXXZ (REF 0007: ??1strstreambase@@NAC@XZ)
                    1. 00 0000 001B 0000:??_Dfstreambase@@VACXXZ (REF 0007: ??1fstreambase@@VAC@XZ)
                  2C50..........5DCA0200:
                    0. 00 0000 001B 0000:??_Dostrstream@@VACXXZ (REF 0007: ??1ostrstream@@VAC@XZ)
                    1. 00 0000 001B 0000:??_Dofstream@@VACXXZ (REF 0007: ??1ofstream@@VAC@XZ)
                  2E50..........5DCA0200:
                    0. 00 0000 001B 0000:??_Distrstream@@VACXXZ (REF 0007: ??1istrstream@@VAC@XZ)
                    1. 00 0000 001B 0000:??_Difstream@@VACXXZ (REF 0007: ??1ifstream@@VAC@XZ)
                  3250..........5DCA0200:
                    0. 00 0000 001B 0000:??_Dstrstream@@VACXXZ (REF 0007: ??1strstream@@VAC@XZ)
                    1. 00 0000 001B 0000:??_Dfstream@@VACXXZ (REF 0007: ??1fstream@@VAC@XZ)
              5E:
                06C707....:
                  8B:
                    460C894716C7471A0100C74718:
                      0. 13 74F5 003F 0000:??0filebuf@@RAC@HPADH@Z
                    560E8B460C8957188947168B56:
                      0. 20 64A0 0040 0000:??0strstreambuf@@RAC@P7APAXJ@ZP7AXPAX@Z@Z
                  C747160000C747180000C7471A00:
                    0. 1C 3FE9 003C 0000:??0strstreambuf@@RAC@XZ
                  FF760CFF760AFF760853:
                    0. 00 0000 0028 0000:??0strstreambuf@@RAC@PADH0@Z
                08895702890783C40283FAFF750383F8FFB8FF:
                  0. 06 DB33 0026 0000:_fgetpos
              E55DCB:
                0. 00 0000 000F (l)0000:_disp2_putc (REF 0007: _disp_putc)
                1. 00 0000 000F 0000:_getc (REF 0007: _fgetc)
                2. 00 0000 000F 0000:__tcsrev (REF 0007: __mbsrev)
                3. 00 0000 000F 0000:__tcsinc (REF 0007: __mbsinc)
                4. 00 0000 000F 0000:__tclen (REF 0007: __mbclen)
                5. 00 0000 000F 0000:__tcsclen (REF 0007: __mbslen)
                6. 00 0000 000F 0000:??_Q@ZAXPAX@Z (REF 0007: ??3@ZAXPAX@Z)
                7. 00 0000 000F (!)0000:? (REF 0007: _free)
            8CDA8BE55DCB:
              0. 00 0000 0011 0000:___mallocf
            B8....50..........83C40431C05DCB:
              0. 00 0000 001B 0000:_feholdexcept
            FF76088B460683C02250..........8B5E06C707:
              0. 00 0000 0034 0000:??0stdiostream@@RAC@PAU_iobuf@@@Z
        08:
          8A460630E450..........83C40483F8FF741EFF76088B46068A:
            0. 05 D5F8 003C 0000:_putw
          8B46080346065031C050FF7604E8....8B46045DC20600:
            0. 00 0000 001D 0000:?setbuf@streambuf@@UACPAV1@PADH@Z
          FF76:
            06:
              31C050..........8BE55DCB:
                0. 00 0000 0015 0000:_getfatd
              8A460430E450E8....83C40683F8FF741FFF7608FF7606:
                0. 0A 4F0A 003E 0000:_putw
              E8....8BE55DCB:
                0. 00 0000 0010 0000:___freef
              FF7604:
                B8....50E8....8BE55DC3:
                  0. 00 0000 0017 0000:_vfprintf
                E8....:
                  83C406:
                    83F8FF7505A1....5DC3C45E0A26:
                      0. 06 492A 0026 0000:__dos_open (REF 000D: _dos_open)
                      1. 06 492A 0026 0000:__dos_creat (REF 000D: _dos_creat)
                    FF7606E8....8BE55DC3:
                      0. 00 0000 001C 0000:_strxfrm
                  8B:
                    46045DC3:
                      0. 00 0000 0014 (l)0000:?sios@@YAAAVios@@AAV1@J@Z (REF 000D: ?setf@ios@@QACJJ@Z)
                      1. 00 0000 0014 (l)0000:?rsios@@YAAAVios@@AAV1@J@Z (REF 000D: ?unsetf@ios@@QACJJ@Z)
                    E5:
                      5DC3:
                        0. 00 0000 0013 0000:__tcschr (REF 000D: __mbschr)
                        1. 00 0000 0013 0000:__tcsninc (REF 000D: __mbsninc)
                        2. 00 0000 0013 0000:__tcsrchr (REF 000D: __mbsrchr)
                        3. 00 0000 0013 (!)0000:? (REF 000D: __mbsnbcmp)
                        4. 00 0000 0013 0000:__tcsncpy (REF 000D: __mbsnbcpy)
                        5. 00 0000 0013 0000:__mbsnicoll (REF 000D: __mbsnicmp)
                        6. 00 0000 0013 0000:_putc (REF 000D: _fputc)
                      85C0741657C47E0403F88BD0268B4D:
                        0. 86 2F00 021F 0000:_page_calloc 002E:_page_malloc 009A:_page_realloc 013C:_page_free 01BA:_page_maxfree 01F0:_page_initialize
              ..........:
                1EB8....50..........83C40831C05DCB:
                  0. 00 0000 001F 0000:_feholdexcept
                5DCA0400:
                  0. 00 0000 0012 0000:??4ostream_withassign@@RACAAV0@AAV0@@Z
                83C404:
                  5250..........8BE55DCB:
                    0. 00 0000 001C 0000:_ctime
                  83F8FF7505A1....5DCB8B5E0A8907:
                    0. 04 5DBD 0024 0000:__dos_open (REF 000A: _dos_open)
                    1. 04 5DBD 0024 0000:__dos_creat (REF 000A: _dos_creat)
                  85C0740531C099EB068B56088B4606:
                    0. 02 1714 0022 0000:__onexit
                  8B56088B46065DCB:
                    0. 00 0000 0019 0000:?WS@@ZAAEVistream@@AEV1@@Z
                8B:
                  56088B4606:
                    5DCB:
                      0. 00 0000 0016 0000:?flush@@ZAAEVostream@@AEV1@@Z
                    83C0:
                      085250..........5DCA:
                        0. 02 2768 0022 0000:??_Dostream@@VECXXZ (REF 000A: ??1ostream@@VEC@XZ)
                        1. 02 2768 0022 0000:??_Dostream_withassign@@VECXXZ (REF 000A: ??1ostream_withassign@@VEC@XZ)
                      0A5250..........5DCA:
                        0. 02 2768 0022 0000:??_Distream@@VECXXZ (REF 000A: ??1istream@@VEC@XZ)
                        1. 02 2768 0022 0000:??_Distream_withassign@@VECXXZ (REF 000A: ??1istream_withassign@@VEC@XZ)
                      125250..........5DCA:
                        0. 02 2768 0022 0000:??_Diostream_withassign@@VECXXZ (REF 000A: ??1iostream_withassign@@VEC@XZ)
                        1. 02 2768 0022 0000:??_Diostream@@VECXXZ (REF 000A: ??1iostream@@VEC@XZ)
                      405250..........5DCA:
                        0. 02 2768 0022 0000:??_Dstrstreambase@@VECXXZ (REF 000A: ??1strstreambase@@NEC@XZ)
                        1. 02 2768 0022 0000:??_Dfstreambase@@VECXXZ (REF 000A: ??1fstreambase@@VEC@XZ)
                      485250..........5DCA:
                        0. 02 2768 0022 0000:??_Dostrstream@@VECXXZ (REF 000A: ??1ostrstream@@VEC@XZ)
                        1. 02 2768 0022 0000:??_Dofstream@@VECXXZ (REF 000A: ??1ofstream@@VEC@XZ)
                      4A5250..........5DCA:
                        0. 02 2768 0022 0000:??_Distrstream@@VECXXZ (REF 000A: ??1istrstream@@VEC@XZ)
                        1. 02 2768 0022 0000:??_Difstream@@VECXXZ (REF 000A: ??1ifstream@@VEC@XZ)
                      525250..........5DCA:
                        0. 02 2768 0022 0000:??_Dstrstream@@VECXXZ (REF 000A: ??1strstream@@VEC@XZ)
                        1. 02 2768 0022 0000:??_Dfstream@@VECXXZ (REF 000A: ??1fstream@@VEC@XZ)
                  E55DCB:
                    0. 00 0000 0012 0000:_atexit (REF 000A: __fatexit)
                    1. 00 0000 0012 0000:_putc (REF 000A: _fputc)
                    2. 00 0000 0012 0000:__tcschr (REF 000A: __mbschr)
                    3. 00 0000 0012 (!)0000:? (REF 000A: __mbscmp)
                    4. 00 0000 0012 0000:__tcscspn (REF 000A: __mbscspn)
                    5. 00 0000 0012 0000:__tcsninc (REF 000A: __mbsninc)
                    6. 00 0000 0012 0000:__tcsdec (REF 000A: __mbsdec)
                    7. 00 0000 0012 0000:__tcsstr (REF 000A: __mbsstr)
                    8. 00 0000 0012 0000:__tcsspn (REF 000A: __mbsspn)
                    9. 00 0000 0012 0000:__tcspbrk (REF 000A: __mbspbrk)
                    10. 00 0000 0012 0000:__tcsrchr (REF 000A: __mbsrchr)
                    11. 00 0000 0012 0000:__tcstok (REF 000A: __mbstok)
                    12. 00 0000 0012 0000:_getc (REF 000A: _fgetc)
                    13. 00 0000 0012 0000:__tcsrev (REF 000A: __mbsrev)
                    14. 00 0000 0012 0000:__tcsinc (REF 000A: __mbsinc)
                    15. 00 0000 0012 0000:__tclen (REF 000A: __mbclen)
                    16. 00 0000 0012 0000:__tcsclen (REF 000A: __mbslen)
                    17. 00 0000 0012 0000:??_Q@ZAXPEX@Z (REF 000A: ??3@ZAXPEX@Z)
                BA....B8....C45E0626895702268907:
                  26C7:
                    0. 53 306A 0077 0000:??0strstreambuf@@REC@XZ
                  8B:
                    46:
                      0. 2A D0A8 0077 0000:??0filebuf@@REC@HPEDH@Z
                    56:
                      0. 57 083F 007B 0000:??0strstreambuf@@REC@P7APEXJ@ZP7AXPEX@Z@Z
                  FF76:
                    0. 11 016B 005D 0000:??0strstreambuf@@REC@PEDH0@Z
                C45E0A2689570226890783C40483FAFF7503:
                  0. 0B 297A 002B 0000:_fgetpos
                FF760CFF760A8B56088B460683C02A5250:
                  0. 00 0000 007C 0000:??0stdiostream@@REC@PEU_iobuf@@@Z
            0AFF7606B8....50B8....50....................83C4:
              0. 01 225F 0021 0000:__assert
          ..........83C402:
            3D00107205B8FFFF5DCBD1E0D1E0D1E0D1E0:
              0. 02 1714 0022 0000:__fmsize
            50FF7606..........83C40250:
              0. 09 15DE 0029 0000:?before@Type_info@@RAAHABV1@@Z
            D1E083C00250FF7608FF7606..........83:
              0. 07 FAE7 0027 0000:_wcscpy
        0A:
          8B460A0346085031C050FF7606..........8B46065DCA0600:
            0. 00 0000 001F 0000:?setbuf@streambuf@@VACPAV1@PADH@Z
          FF7608:
            31C050FF7606FF76048B5E048B1FFF570E5DC20800:
              0. 00 0000 001E 0000:?seekpos@streambuf@@UACJJH@Z
            8A460630E450..........83C40683F8FF7421FF760AFF:
              0. 0B D99B 0042 0000:_putw
            E8....83C404:
              5250FF7606FF7604E8....:
                5DC20800:
                  0. 00 0000 001E (l)0000:STR_CAT1
                83C4045250E8:
                  0. 00 0000 002B 0000:?before@Type_info@@QEAHAFV1@@Z
              D1E083C00250FF760AFF7608FF7606FF76:
                0. 02 6103 002F 0000:_wcscpy
            FF76:
              06:
                BA....B8....5250..........8BE55DCB:
                  0. 00 0000 001D 0000:_vfprintf
                FF7604:
                  B8F03F9989D189CBE8....50535152E8:
                    0. 00 0000 0025 0000:_log1p
                  E8....:
                    50535152B8F03F9989D189CBE8:
                      0. 00 0000 0025 0000:_expm1
                    5DC20800:
                      0. 00 0000 0016 0000:??4ostream_withassign@@QECAEV0@AEV0@@Z
                    83C4045250E8....5DC20800:
                      0. 00 0000 001E (l)0000:STR_CAT12 (REF 0018: STR_CAT1)
                      1. 00 0000 001E (l)0000:STR_CAT2 (REF 0018: STR_CAT)
                    8B:
                      56068B46045DC3:
                        0. 00 0000 001A (l)0000:?sios@@YAAEVios@@AEV1@J@Z (REF 0010: ?setf@ios@@QECJJ@Z)
                        1. 00 0000 001A (l)0000:?rsios@@YAAEVios@@AEV1@J@Z (REF 0010: ?unsetf@ios@@QECJJ@Z)
                      E55DC3:
                        0. 00 0000 0016 0000:_ceill (REF 0010: _ceil)
                        1. 00 0000 0016 0000:_floorl (REF 0010: _floor)
                        2. 00 0000 0016 (!)0000:? (REF 0010: __mbscmp)
                        3. 00 0000 0016 0000:__tcscspn (REF 0010: __mbscspn)
                        4. 00 0000 0016 0000:__tcsdec (REF 0010: __mbsdec)
                        5. 00 0000 0016 0000:__tcsstr (REF 0010: __mbsstr)
                        6. 00 0000 0016 0000:__tcsspn (REF 0010: __mbsspn)
                        7. 00 0000 0016 0000:__tcspbrk (REF 0010: __mbspbrk)
                        8. 00 0000 0016 0000:__tcstok (REF 0010: __mbstok)
                    E8....8BE55DC3:
                      0. 00 0000 0019 0000:_rndtol
                  ..........83C4045250E8....5DC20800:
                    0. 00 0000 0020 (l)0000:STR_CAT12 (REF 001A: STR_CAT1)
                    1. 00 0000 0020 (l)0000:STR_CAT2 (REF 001A: STR_CAT)
                ..........:
                  83C406:
                    83F8FF7505A1....5DCBC45E:
                      0. 08 D1D2 0028 0000:__dos_open (REF 000D: _dos_open)
                      1. 08 D1D2 0028 0000:__dos_creat (REF 000D: _dos_creat)
                    FF7608..........8BE55DCB:
                      0. 00 0000 0020 0000:_strxfrm
                  8B:
                    46065DCB:
                      0. 00 0000 0016 (l)0000:?sios@@ZAAAVios@@AAV1@J@Z (REF 000D: ?setf@ios@@RACJJ@Z)
                      1. 00 0000 0016 (l)0000:?rsios@@ZAAAVios@@AAV1@J@Z (REF 000D: ?unsetf@ios@@RACJJ@Z)
                    E5:
                      5DCB:
                        0. 00 0000 0015 0000:__tcsncpy (REF 000D: __mbsnbcpy)
                        1. 00 0000 0015 0000:__mbsnicoll (REF 000D: __mbsnicmp)
                        2. 00 0000 0015 0000:_putc (REF 000D: _fputc)
                        3. 00 0000 0015 0000:__tcschr (REF 000D: __mbschr)
                        4. 00 0000 0015 0000:__tcsninc (REF 000D: __mbsninc)
                        5. 00 0000 0015 0000:__tcsrchr (REF 000D: __mbsrchr)
                        6. 00 0000 0015 (!)0000:? (REF 000D: __mbsnbcmp)
                      85C0741657C47E0603F88BD026:
                        0. 88 DE51 0229 0000:_page_calloc 0030:_page_malloc 009C:_page_realloc 0146:_page_free 01C4:_page_maxfree 01FA:_page_initialize
              0CFF7606FF76041EB8....501EB8....50E8....E8:
                0. 00 0000 0025 0000:__assert
            ..........83C4045250FF7606FF7604E8....5DC20800:
              0. 00 0000 0020 (l)0000:STR_CAT1
        0C:
          E8....83C40285C09985D27F1D7C053D00807316FF760CFF760A:
            0. 0A 90D3 0066 0000:_scalb
          FF760A:
            31C050FF7608FF7606:
              8B5E068B1FFF5F1C5DCA0800:
                0. 00 0000 001E 0000:?seekpos@streambuf@@VACJJH@Z
              FF7604C45E0426C41F26FF570E5D:
                0. 03 9E84 0023 0000:?seekpos@streambuf@@UECJJH@Z
            8B560C8B460A034608525031C050FF7606FF7604E8:
              0. 0A F8A7 002A 0000:?setbuf@streambuf@@UECPEV1@PEDH@Z
            FF76:
              08FF7606:
                B8F03F9989D189CB..........50535152:
                  0. 00 0000 0029 0000:_log1p
                FF7604E8....:
                  83C40AFF760AFF7608E8:
                    0. 00 0000 0025 0000:_strxfrm
                  8BE55DC3:
                    0. 00 0000 0019 0000:__tcsncpy (REF 0013: __mbsnbcpy)
                    1. 00 0000 0019 0000:__mbsnicoll (REF 0013: __mbsnicmp)
                    2. 00 0000 0019 0000:__makepath (REF 0013: _fnmerge)
                    3. 00 0000 0019 (!)0000:? (REF 0013: __mbsnbcmp)
                ..........:
                  50535152B8F03F9989D189CB:
                    0. 00 0000 0029 0000:_expm1
                  5DCA0800:
                    0. 00 0000 0018 0000:??4ostream_withassign@@RECAEV0@AEV0@@Z
                  8B:
                    56088B46065DCB:
                      0. 00 0000 001C (l)0000:?sios@@ZAAEVios@@AEV1@J@Z (REF 0010: ?setf@ios@@RECJJ@Z)
                      1. 00 0000 001C (l)0000:?rsios@@ZAAEVios@@AEV1@J@Z (REF 0010: ?unsetf@ios@@RECJJ@Z)
                    E55DCB:
                      0. 00 0000 0018 0000:__fmemset (REF 0010: _fmemset)
                      1. 00 0000 0018 0000:_ceill (REF 0010: _ceil)
                      2. 00 0000 0018 0000:_floorl (REF 0010: _floor)
                      3. 00 0000 0018 (!)0000:? (REF 0010: __mbscmp)
                      4. 00 0000 0018 0000:__tcscspn (REF 0010: __mbscspn)
                      5. 00 0000 0018 0000:__tcsdec (REF 0010: __mbsdec)
                      6. 00 0000 0018 0000:__tcsstr (REF 0010: __mbsstr)
                      7. 00 0000 0018 0000:__tcsspn (REF 0010: __mbsspn)
                      8. 00 0000 0018 0000:__tcspbrk (REF 0010: __mbspbrk)
                      9. 00 0000 0018 0000:__tcstok (REF 0010: __mbstok)
                  ..........8BE55DCB:
                    0. 00 0000 001D 0000:_rndtol
              0EFF7608FF76061EB8....501EB8....50:
                0. 00 0000 0029 0000:__assert
            ..........83C404:
              5250FF7608FF7606..........83C4:
                0. 03 6F17 0031 0000:?before@Type_info@@REAHAFV1@@Z
              D1E083C00250FF760CFF760AFF7608:
                0. 03 1DC1 0033 0000:_wcscpy
        0E:
          FF760C:
            31C050FF760AFF7608FF7606C45E0626C41F26FF5F1C5D:
              0. 03 5C42 0023 0000:?seekpos@streambuf@@VECJJH@Z
            8B560E8B460C03460A525031C050FF7608FF7606:
              0. 00 0000 002C 0000:?setbuf@streambuf@@VECPEV1@PEDH@Z
            FF760AFF7608FF7606:
              FF7604B8....50E8....8BE55DC3:
                0. 00 0000 0020 0000:_vfprintf
              ..........:
                83C40AFF760CFF760A:
                  0. 00 0000 0029 0000:_strxfrm
                8BE55DCB:
                  0. 00 0000 001B (!)0000:? (REF 0013: __mbsnbcmp)
                  1. 00 0000 001B 0000:__tcsncpy (REF 0013: __mbsnbcpy)
                  2. 00 0000 001B 0000:__mbsnicoll (REF 0013: __mbsnicmp)
                  3. 00 0000 001B 0000:__makepath (REF 0013: _fnmerge)
          ..........83C40285C09985D27F1F7C053D00807318FF760EFF:
            0. 0B 3A8C 006E 0000:_scalb
        10FF760EFF760CFF760AFF7608FF7606:
          BA....B8....5250:
            0. 00 0000 0026 0000:_vfprintf
          E8....8BE55DCB:
            0. 00 0000 001C 0000:_fmemccpy
          ..........8BE55DCB:
            0. 00 0000 001E 0000:_fmemccpy
        16FF7614FF7612FF7610FF760EFF760CFF760AFF7608FF7606FF76:
          0. 02 6103 0028 0000:__makepath
        18FF7616FF7614FF7612FF7610FF760EFF760CFF760AFF7608FF76:
          0. 01 4E95 002A 0000:__makepath
    ..........:
      33D2F776065DCB:
        0. 00 0000 000F 0000:__freect
      5DCB:
        0. 00 0000 000A (l)0000:?unexpected_default@@ZAXXZ (REF 0004: ?terminate@@ZAXXZ)
        1. 00 0000 000A (l)0000:?terminate_default@@ZAXXZ (REF 0004: _abort)
      ..:
        0. 00 0000 0008 0000:?__eh_error@@ZAXXZ (REF 0004: _abort)
56:
  5731FFBE....:
    8BC62D....B90E0099F7F989C3D1E383BF....0074:
      0856E8:
        0. 00 0000 0033 0000:__rmtmp
      0A56:
        0. 00 0000 0035 0000:__rmtmp
    F644:
      068374:
        0856E8....4783C40283C60E81FE....72E98BC7:
          0. 03 98B2 0023 0000:_flushall (REF 000F: _fflush)
          1. 03 98B2 0023 0000:_fcloseall (REF 000F: _fclose)
        0A56..........4783C40283C60E81FE....72E7:
          0. 05 2A96 0025 0000:_flushall (REF 000F: _fflush)
          1. 05 2A96 0025 0000:_fcloseall (REF 000F: _fclose)
      0A8374:
        091E56E8....4783C40483C61081FE....72E88B:
          0. 04 72E4 0024 0000:_flushall (REF 0010: _fflush)
          1. 04 72E4 0024 0000:_fcloseall (REF 0010: _fclose)
        0B1E56..........4783C40483C61081FE....72:
          0. 06 3B34 0026 0000:_flushall (REF 0010: _fflush)
          1. 06 3B34 0026 0000:_fcloseall (REF 0010: _fclose)
  833E....0075:
    35B8FF0F2B06....D1E0D1E0D1E0D1E0741E50E8....83C402:
      0. 12 F249 003F (l)0000:_fillto64k
    39B8FF0F2B06....D1E0D1E0D1E0D1E0742250..........83:
      0. 13 2D41 0043 (l)0000:_fillto64k
  89E3368B5F:
    044381E3FEFF7503BB0200F7DB89DE01E373:
      2187E389E929D92B:
        0. 1F 6250 003F 0000:_alloca
      2D3B1E....76273B:
        0. 01 8709 004B 0000:_alloca
    064381E3FEFF7503BB0200F7DB89DE01E373:
      2187E389E929D92B:
        0. 1F 72FD 003F 0000:_alloca
      2D3B1E....76273B:
        0. 01 8709 004B 0000:_alloca
  8B36....B8010050B9020051E8....83C40485F6740E83FE017409B8020050:
    0. 0A 97F8 002A (l)0000:_ctrl_break_handler
  BE....:
    8B44:
      06A88374:
        0BA840740756E8....83C40283C60E81FE....72E55E:
          0. 01 EF04 0021 0000:__flushterm
        0DA840740956..........83C40283C60E81FE....72:
          0. 03 3111 0023 0000:__flushterm
      0AA88374:
        0CA84074081E56E8....83C40483C61081FE....72E4:
          0. 02 37B2 0022 0000:__flushterm
        0EA840740A1E56..........83C40483C61081FE:
          0. 04 CC12 0024 0000:__flushterm
    F644:
      068374:
        0756E8....83C40283C60E81FE....72EA5EC3:
          0. 00 0000 001C 0000:___fcloseall
        0956..........83C40283C60E81FE....72E85ECB:
          0. 00 0000 001E 0000:___fcloseall
      0A8374:
        081E56E8....83C40483C61081FE....72E95EC3:
          0. 00 0000 001D 0000:___fcloseall
        0A1E56..........83C40483C61081FE....72E75ECB:
          0. 00 0000 001F 0000:___fcloseall
57B430CD21A3....86E0A3....:
  8B1E....8B07A3....8CD8A3....36A10A0005:
    0. 03 8548 00F7 0000:__cinit 003D:__exit 00A6:__dodtors 00D5:___faterr
  C41E....C41F891E....8C06....36A10A0005:
    0. 03 8548 00F7 0000:__cinit 003D:__exit 00A6:__dodtors 00D5:___faterr
585B5A8B46128B4E10895E108956128BE5071F5F5E5D5B5B5AFACB:
  0. 00 0000 001B 0000:__chain_intr
59:
  5A89E329C389DC5251CB:
    0. 00 0000 000B 0000:__aFchkstk
  89E329C389DCFFE1:
    0. 00 0000 0009 0000:__aNchkstk
5D:
  E9....558BEC8B46:
    0685C074F28B5E0485DB750850E8....8BE55DC34B4B8B:
      0. 1B 3335 007D 0004:__nrealloc
    0885C074F28B5E048B4E060BCB750B50E8....8BE55DC3:
      0. 01 B78A 00B5 0004:__frealloc
  EA........558BEC8B46:
    0885C074F08B5E0685DB750A50..........8BE55D:
      0. 1E 6850 0087 0006:__nrealloc
    0A85C074F08B5E068B4E080BCB750D50:
      0. 05 42F0 00BF 0006:__frealloc
766F696400:
  0. 00 0000 0005 0000:?
803E....00:
  7401:
    C3558BECC606....015733D232FFB83011CD1084D27410C606:
      0. 00 0000 0692 0000:_disp_open 00A2:_disp_close 00BC:_disp_usebios 00C3:_disp_setcursortype 00DA:_disp_hidecursor 00F1:_disp_showcursor 0100:_disp_putc 01EF:_disp_scroll 0212:_disp_pokew 0270:_disp_peekw 0319:_disp_move 032A:_disp_flush 0349:_disp_eeol 035E:_disp_eeop 03C2:_disp_startstand 03C8:_disp_endstand 03CE:_disp_setattr 03D9:_disp_getattr 042F:_disp_getmode 0438:_disp_setmode 0444:_disp_set43 0498:_disp_reset43 04D7:_disp_peekbox 05AB:_disp_pokebox (066D: 5F)
      1. 00 0000 068E 0000:_disp_open 00A2:_disp_close 00BC:_disp_usebios 00C3:_disp_setcursortype 00DA:_disp_hidecursor 00F1:_disp_showcursor 0100:_disp_putc 01EF:_disp_scroll 0212:_disp_pokew 0270:_disp_peekw 0319:_disp_move 032A:_disp_flush 0349:_disp_eeol 035E:_disp_eeop 03C2:_disp_startstand 03C8:_disp_endstand 03CE:_disp_setattr 03D9:_disp_getattr 042F:_disp_getmode 0438:_disp_setmode 0444:_disp_set43 0498:_disp_reset43 04D7:_disp_peekbox 05A9:_disp_pokebox (066D: C3)
    CB558BECC606....015733D232FFB83011CD10:
      0AD27410C606:
        0. 00 0000 06D8 0000:_disp_open 00D4:_disp_close 0105:_disp_usebios 010C:_disp_setcursortype 0123:_disp_hidecursor 013A:_disp_showcursor 0148:_disp_putc 022C:_disp_scroll 0250:_disp_pokew 02AE:_disp_peekw 0359:_disp_move 036A:_disp_flush 0389:_disp_eeol 039E:_disp_eeop 0404:_disp_startstand 040A:_disp_endstand 0410:_disp_setattr 041B:_disp_getattr 0471:_disp_getmode 047A:_disp_setmode 0486:_disp_set43 04DE:_disp_reset43 0521:_disp_peekbox 05F3:_disp_pokebox
      84D27410C606:
        0. 00 0000 06A0 0000:_disp_open 00A2:_disp_close 00BE:_disp_usebios 00C5:_disp_setcursortype 00DC:_disp_hidecursor 00F3:_disp_showcursor 0102:_disp_putc 01F1:_disp_scroll 0214:_disp_pokew 0272:_disp_peekw 031D:_disp_move 032E:_disp_flush 034D:_disp_eeol 0362:_disp_eeop 03C8:_disp_startstand 03CE:_disp_endstand 03D4:_disp_setattr 03DF:_disp_getattr 0435:_disp_getmode 043E:_disp_setmode 044A:_disp_set43 04A2:_disp_reset43 04E5:_disp_peekbox 05B9:_disp_pokebox (067B: 5F)
        1. 00 0000 069C 0000:_disp_open 00A2:_disp_close 00BE:_disp_usebios 00C5:_disp_setcursortype 00DC:_disp_hidecursor 00F3:_disp_showcursor 0102:_disp_putc 01F1:_disp_scroll 0214:_disp_pokew 0272:_disp_peekw 031D:_disp_move 032E:_disp_flush 034D:_disp_eeol 0362:_disp_eeop 03C8:_disp_startstand 03CE:_disp_endstand 03D4:_disp_setattr 03DF:_disp_getattr 0435:_disp_getmode 043E:_disp_setmode 044A:_disp_set43 04A2:_disp_reset43 04E5:_disp_peekbox 05B7:_disp_pokebox (067B: CB)
  751FA1....0B06....740CB8000050FF1E....59EB0E90B40BCD21:
    0. 0A 3DBD 002A 0000:_kbhit
    1. 0A 7531 002A 0000:_kbhit
81E1FF007407D1:
  E0D1D24975F9C3:
    0. 00 0000 000E 0000:__aNlshl
  EAD1D84975F9:
    C3:
      0. 00 0000 000E 0000:__aNulshr
    CB:
      0. 00 0000 000E 0000:__aFulshr
83:
  3E....:
    00:
      74:
        04FF16....C3:
          0. 00 0000 000C 0000:___initmbctype (REF 0002: ___init_mbctype_ptr)
          1. 00 0000 000C 0000:__setenvp (REF 0002: ___init_environ_ptr)
        08813E........7504B80100:
          C38306....EAA1....D1E0508B1E:
            0. 00 0000 0061 0000:_exit_popstate
          CB8306....EAA1....D1E0508B1E:
            0. 00 0000 006D 0000:_exit_popstate
        0AB8280050E8....83C402C3:
          0. 00 0000 0012 0000:__STI_io_ctor
        0CB8280050..........83C402CB:
          0. 00 0000 0014 0000:__STI_io_ctor
        1BFF0E....8B1E....D1E3FFB7....E8....83C402833E....00:
          0. 04 8986 0045 (l)0000:UM_TERM
        1DFF0E....8B1E....D1E3FFB7..............83C402833E:
          0. 00 0000 0049 (l)0000:UM_TERM
        21FF0E....8B1E....D1E3D1E3FFB7....FFB7....E8....83C4:
          0. 03 F4DB 0051 (l)0000:UM_TERM
        23FF0E....8B1E....D1E3D1E3FFB7....FFB7:
          0. 05 E30C 0055 (l)0000:UM_TERM
      75:
        07833E....007407833E....01750331C0C3C706....01008B0E:
          0. 00 0000 005F 0000:_tsr_newint28
        28C606....FFC606....FFC606....FFC606....FFC606....FF:
          0. 02 0BF4 0030 0000:__STI_lconv
    0175059BDEF9EB:
      06B80D00E8....C3:
        0. 00 0000 0013 0000:__FDIVP
      08B80D00..........CB:
        0. 00 0000 0015 0000:__FDIVP
    027F08C706....0100EB269BDD06....9BDC36....9BDC0E....9BDC:
      0. 01 0438 0036 0000:_FDIV_DETECT
    FF7404A1....:
      C39C33C0509D9C5880E4F080FCF0750C33C0545B3BDC:
        0. 04 B9AE 00AB 0000:_cputype
      CB9C33C0509D9C5880E4F080FCF0750C33C0545B3BDC:
        0. 04 B9AE 00AB 0000:_cputype
  C4045B5A8B46128B4E10895E108956128BE5071F5F5E5D5B5B5AFACB:
    0. 00 0000 001D 0000:__chain_intr
85C9750885D27512F7E3:
  C39085D2751691F7E191F7E303D1C3908BC88BC2F7E3:
    0. 94 8698 0105 0000:__LMUL@ 0058:__ULDIV@ 00BE:__LDIV@ 00F2:__LCMP@
  CB9085D2751691F7E191F7E303D1CB908BC88BC2F7E3:
    0. 93 6971 010B 0000:__LMUL@ 0058:__ULDIV@ 00C0:__LDIV@ 00F8:__LCMP@
89:
  CA5689E3368B5F:
    044381E3FEFF7503BB0200F7DB89DE01E373:
      2587E389E929:
        0. 25 D9FC 0045 0000:___alloca
      313B1E....76:
        0. 03 A447 0051 0000:___alloca
    064381E3FEFF7503BB0200F7DB89DE01E373:
      2587E389E929:
        0. 25 C951 0045 0000:___alloca
      313B1E....76:
        0. 03 A447 0051 0000:___alloca
  E3:
    368347:
      02:
        C0E9....89E336834702C0E9....89E336834702B6E9....89E3:
          0. 06 77FB 0050 0000:?
        C4E9....89E336834702C4E9....89E336834702BAE9....89E3:
          0. 06 179C 0050 0000:?
        F6E9....:
          89E336834702:
            EEE9....89E336834702F6E9....89E3:
              0. 06 5442 0028 0000:?
            F6E9:
              0. 00 0000 0014 0000:?
          ..:
            0. 00 0000 000A 0000:?
        F8E9....:
          89E336834702F8E9:
            0. 00 0000 0014 0000:?
          ..:
            0. 00 0000 000A 0000:?
      04:
        C0EA........89E336834704C0EA........89E336834704B6EA:
          0. 00 0000 0060 0000:?
        F6EA........:
          89E336834704:
            EEEA........89E336834704F6EA:
              0. 00 0000 0030 0000:?
            F6EA:
              0. 00 0000 0018 0000:?
          ..:
            0. 00 0000 000C 0000:?
        F8EA........:
          89E336834704F8EA:
            0. 00 0000 0018 0000:?
          ..:
            0. 00 0000 000C 0000:?
    8347:
      02:
        D8E9....89E3834702D8E9....89E3834702D2E9....89E3834702:
          0. 02 73E4 0048 0000:?
        DCE9....89E3834702DCE9....89E3834702D6E9....89E3834702:
          0. 02 1383 0048 0000:?
        FAE9....:
          89E3834702:
            F6E9....89E3834702FAE9....89E3834702:
              0. 02 505D 0024 0000:?
            FAE9:
              0. 00 0000 0012 0000:?
          ..:
            0. 00 0000 0009 0000:? (REF 0007: ??_Gistream@@UACPAXI@Z)
        FCE9....:
          89E3834702FCE9:
            0. 00 0000 0012 0000:?
          ..:
            0. 00 0000 0009 0000:? (REF 0007: ??_Gostream@@UACPAXI@Z)
      04:
        D8EA........89E3834704D8EA........89E3834704D2EA:
          0. 00 0000 0058 0000:?
        FAEA........:
          89E3834704:
            F6EA........89E3834704FAEA:
              0. 00 0000 002C 0000:?
            FAEA:
              0. 00 0000 0016 0000:?
          ..:
            0. 00 0000 000B 0000:? (REF 0007: ??_Gistream@@VACPAXI@Z)
        FCEA........:
          89E3834704FCEA:
            0. 00 0000 0016 0000:?
          ..:
            0. 00 0000 000B 0000:? (REF 0007: ??_Gostream@@VACPAXI@Z)
8B:
  16....A1....BB6D4EB9C641:
    E8....05393083D2008916....A3....A1:
      0. 04 EB3C 0024 0000:_rand
    ..........05393083D2008916....A3....A1:
      0. 00 0000 0026 0000:_rand
  1E....:
    36813FAA5575:
      1F8BC42BC376193B26....7713C35A2BE0760D8B1E:
        0. 00 0000 0031 0000:__stackavail 0018:__chkstk
      218BC42BC3761B3B26....7715CB5A592BE0760E8B1E:
        0. 00 0000 0035 0000:__stackavail 0018:__chkstk
    813FAA5575:
      288BC42BC376223B26....771CC35A2BE076168B1E:
        0. 0C 7D23 0039 0000:__stackavail 0017:__chkstk
      2A8BC42BC376243B26....771ECB5A592BE076178B1E:
        0. 00 0000 003D 0000:__stackavail 0017:__chkstk
  C5558BEC:
    8B5E:
      0489670689470489770A897F0C8C57088C470E8C5F108B4602:
        0. 2F 9BDC 004F 0000:__setjmp 0029:_longjmp
      0689670689470489770A897F0C8C57088C470E8C5F108B4602:
        0. 34 9477 0054 0000:__setjmp 002C:_longjmp
    8CC1C45E:
      0426896706268947042689770A26897F0C268C57082689:
        0. 45 1BDE 0065 0000:__setjmp 0034:_longjmp
      0626896706268947042689770A26897F0C268C57082689:
        0. 4A 7762 006A 0000:__setjmp 0037:_longjmp
  DC:
    36:
      8A57:
        04368B5F028A073AC2741584C0740E8A470183C3023AC2740A84C0:
          0. 0C DD0E 002C 0000:_strchr
        06:
          368B5F048A073AC2741584C0740E8A470183C3023AC2740A84C0:
            0. 0C 09F5 002C 0000:_strchr
          8CD936C55F028A073AC2741984C0740E8A470183C3023AC27412:
            0. 1A 0146 003A 0000:_strchr
        088CD936C55F048A073AC2741984C0740E8A470183C3023AC27412:
          0. 1A 47E5 003A 0000:_strchr
      8B:
        47:
          029933C22BC2C38BDC368B4702368B570485D27907F7DAF7D883DA:
            0. 46 8F1B 0066 0000:_abs 000C:_labs 0022:_atoi
            1. 47 D060 0067 0000:_abs 000C:_labs 0022:_atoi
          049933C22BC2CB8BDC368B4704368B570685D27907F7DAF7D883DA:
            0. 46 6102 0066 0000:_abs 000C:_labs 0022:_atoi
            1. 47 ECF2 0067 0000:_abs 000C:_labs 0022:_atoi
        57:
          02EC32E4C38BDC368B5702EDC38BDC368B4704368B5702EEC38BDC:
            0. 0A 04B5 002A 0000:_inp 000A:_inpw 0012:_outp 001E:_outpw
          04EC32E4CB8BDC368B5704EDCB8BDC368B4706368B5704EECB8BDC:
            0. 0A 2ED8 002A 0000:_inp 000A:_inpw 0012:_outp 001E:_outpw
        5F:
          028BD38A0784C074288A470184C0741C8A470284C074108A470383:
            0. 1A A33E 003A 0000:_strlen
          048BD38A0784C074288A470184C0741C8A470284C074108A470383:
            0. 1A D16F 003A 0000:_strlen
    56:
      57:
        36C47F:
          0633C0B9FFFFF2AEF7D18CDA36C47F0236C57706D1E9F3A5D1:
            0. 0D D3CB 002D 0000:_stpcpy
          0833C0B9FFFFF2AEF7D18CDA36C47F0436C57708:
            8BC7F3A48E:
              0. 06 02D7 0026 0000:_fstrcpy
            D1E9F3A5D1:
              0. 0D 9B47 002D 0000:_stpcpy
        8CDA36C47F0836C5770433C0B9FFFFF2AEF7D12BF9F3A674061BC0F5:
          0. 08 4D78 0028 0000:_fstrcmp
      8BD78CD88EC0368B7F:
        048BF733C0B9FFFFF2AEF7D1368B7F028BC703C1:
          0. 0F BEFC 002F 0000:_stpcpy
        068BF733C0B9FFFFF2AEF7D1368B7F048BC703C1:
          0. 0F F670 002F 0000:_stpcpy
    8BD736C47F0433C0B9FFFFF2AE8BC1F7D0488BFACB:
      0. 00 0000 0017 0000:_fstrlen
    8CD936C55F:
      028BD38A0784C0742A8A470184C0741E8A470284C074128A47:
        0. 1E 666A 003E 0000:_strlen
      048BD38A0784C0742A8A470184C0741E8A470284C074128A47:
        0. 1E 143B 003E 0000:_strlen
  F88BF081E6F07F7505E8....EB0AD1EED1EED1EED1EE0C108AE08AC78AFB8A:
    0. 4D 7ED9 0F93 0000:dunnorm 0042:dleft_justify 0054:dround 0109:dnorm 019A:exception 01D6:dget_dtype_pair 025B:dget_dtype 02B6:__DTST@ 02C2:__DTST0EXC@ 02C6:__DTST0@ 0314:__DCMPEXC@ 0318:__DCMP@ 03AC:__DNEG@ 0565:__DSUB@ 058A:__DADD@ 0741:__DDIV@ 0916:__DMUL@ 0B4D:__FLTDBL@ 0BC0:__DBLFLT@ 0C2A:__UNSDBL@ 0C2D:__INTDBL@ 0C63:__ULNGDBL@ 0C66:__LNGDBL@ 0C9A:__DBLUNS@ 0CB4:__DBLINT@ 0CC9:__DBLULNG@ 0CE6:__DBLLNG@ 0D9E:___dtype 0DB8:fget_dtype 0DEF:funnorm 0E14:fnorm 0E7D:fleft_justify 0E8B:fright_justify 0ED1:fround (0F25: C3)
    1. 4D 7ED9 0F95 0000:dunnorm 0042:dleft_justify 0054:dround 0109:dnorm 019A:exception 01D6:dget_dtype_pair 025B:dget_dtype 02B6:__DTST@ 02C2:__DTST0EXC@ 02C6:__DTST0@ 0314:__DCMPEXC@ 0318:__DCMP@ 03AC:__DNEG@ 0565:__DSUB@ 058A:__DADD@ 0741:__DDIV@ 0918:__DMUL@ 0B4F:__FLTDBL@ 0BC2:__DBLFLT@ 0C2C:__UNSDBL@ 0C2F:__INTDBL@ 0C65:__ULNGDBL@ 0C68:__LNGDBL@ 0C9C:__DBLUNS@ 0CB6:__DBLINT@ 0CCB:__DBLULNG@ 0CE8:__DBLLNG@ 0DA0:___dtype 0DBA:fget_dtype 0DF1:funnorm 0E16:fnorm 0E7F:fleft_justify 0E8D:fright_justify 0ED3:fround (0F25: 0B)
  F983E77F0BFBC38BFA83E77F0BF8C352D1E20BD05A:
    C3F9EB01F8561BF65750:
      0. 30 955E 0605 0010:__FTST@ 0017:__FTST0EXC@ 001A:__FTST0@ 0066:__FCMPEXC@ 006A:__FCMP@ 00F5:__FSUB@ 011A:__FADD@ 0277:__FDIV@ 03E9:__FMUL@ 04F5:__FNEG@ 04F9:__INTFLT@ 0504:__UNSFLT@ 050B:__LNGFLT@ 0512:__FLTUNS@ 052C:__FLTINT@ 055B:__FLTLNG@
    CBF9EB01F8561BF65750:
      0. 30 DAA1 060F 0010:__FTST@ 0017:__FTST0EXC@ 001A:__FTST0@ 0066:__FCMPEXC@ 006A:__FCMP@ 00F5:__FSUB@ 011A:__FADD@ 0277:__FDIV@ 03EB:__FMUL@ 04F7:__FNEG@ 04FB:__INTFLT@ 050A:__UNSFLT@ 0513:__LNGFLT@ 051C:__FLTUNS@ 0536:__FLTINT@ 0565:__FLTLNG@
8CD8:
  C38CC0C38CD0C3:
    0. 00 0000 0009 0000:_getDS 0003:_getES 0006:_getSS
  CB8CC0CB8CD0CB:
    0. 00 0000 0009 0000:_getDS 0003:_getES 0006:_getSS
9C50521EB8....8ED8:
  E8....1F5A589D2EFF2E....803E....007540803E:
    0. 0E 2470 0507 0000:ctrl_break_handler 0015:_handle_init 0126:_handle_usingemm 012D:_handle_term 01F9:_handle_remap 0229:_handle_addpage 0293:_handle_malloc 0328:_handle_calloc 036A:_handle_free 03B4:_handle_realloc 048E:_handle_strdup 04E1:__HCTOFPTR@ 04E2:__HTOFPTR@ (04D5: C3)
    1. 0E 2470 050F 0000:ctrl_break_handler 0015:_handle_init 0126:_handle_usingemm 012D:_handle_term 01F5:_handle_remap 0225:_handle_addpage 028F:_handle_malloc 0332:_handle_calloc 0374:_handle_free 03BD:_handle_realloc 0496:_handle_strdup 04E9:__HCTOFPTR@ 04EA:__HTOFPTR@ (04D5: E8)
  ..........1F5A589D2EFF2E....803E....007540803E:
    0. 00 0000 053B 0000:ctrl_break_handler 0017:_handle_init 012E:_handle_usingemm 0135:_handle_term 0203:_handle_remap 0233:_handle_addpage 02A1:_handle_malloc 033E:_handle_calloc 0384:_handle_free 03D4:_handle_realloc 04BC:_handle_strdup 0515:__HCTOFPTR@ 0516:__HTOFPTR@ (0517: CB)
    1. 00 0000 0543 0000:ctrl_break_handler 0017:_handle_init 012E:_handle_usingemm 0135:_handle_term 01FF:_handle_remap 022F:_handle_addpage 029D:_handle_malloc 0348:_handle_calloc 038E:_handle_free 03DD:_handle_realloc 04C4:_handle_strdup 051D:__HCTOFPTR@ 051E:__HTOFPTR@ (0517: E8)
A1....:
  0B06....:
    74:
      04FF1E....CB:
        0. 00 0000 000E 0000:___initmbctype (REF 0001: ___init_mbctype_ptr)
        1. 00 0000 000E 0000:__setenvp (REF 0001: ___init_environ_ptr)
      148B16....A1....8CD9BB....3BD175083BC37504B80100:
        0. 03 6226 00A1 0000:_exit_popstate
        1. 03 A0E0 0095 0000:_exit_popstate
    75:
      0DE8....8306....018316....00C3:
        0. 00 0000 0017 0000:___internal_tzset
      0F..........8306....018316....00CB:
        0. 00 0000 0019 0000:___internal_tzset
  C3:
    0. 00 0000 0004 0000:_tab_sizeget (REF 0001: __tab_size)
    1. 00 0000 0004 0000:_tsr_trap28 (REF 0001: _tsr_running)
    2. 00 0000 0004 0000:_getpid (REF 0001: __psp)
  CB:
    0. 00 0000 0004 0000:_tab_sizeget (REF 0001: __tab_size)
    1. 00 0000 0004 0000:_getpid (REF 0001: __psp)
B4:
  2CCD218AC698BB6400F7EB32F603C2C38B7E:
    088B760AB45CCD21C3558BEC83:
      0. 22 4E20 009D 001C:_locking
    0A8B760CB45CCD21C3558BEC83:
      0. 22 48BD 00A1 001C:_locking
  62CD218BC3:
    C3:
      0. 00 0000 0007 0000:_getpsp
    CB:
      0. 00 0000 0007 0000:_getpsp
B8:
  00:
    00:
      C3B8....1E50E9....C3:
        0. 00 0000 000D 0000:__nmalloc 000C:__nfree
      CBB8....1E50EA........CB:
        0. 00 0000 000F 0000:__nmalloc 000E:__nfree
    33CD218AC230E4:
      C3:
        0. 00 0000 000A 0000:_getcbrk
      CB:
        0. 00 0000 000A 0000:_getcbrk
    54CD2198:
      C3:
        0. 00 0000 0007 0000:_getverify
      CB:
        0. 00 0000 0007 0000:_getverify
  160050:
    E8....83C402C3:
      0. 00 0000 000B 0000:_abort
    ..........83C402CB:
      0. 00 0000 000D 0000:_abort
  280050:
    E8....83C402C3:
      0. 00 0000 000B 0000:__STI_io_ctor
    ..........83C402CB:
      0. 00 0000 000D 0000:__STI_io_ctor
  38008EC033C0263906CC007507263906CE007402CD33A3....C706....0000:
    0. 05 5AB9 0264 0000:_msm_init 0021:_msm_term 0023:_msm_showcursor 0030:_msm_hidecursor 003D:_msm_getstatus 007F:_msm_setcurpos 0096:_msm_getpress 0102:_msm_getrelease 0107:_msm_setareax 010D:_msm_setareay 0113:_msm_setgraphcur 012D:_msm_settextcur 0147:_msm_reversebuttonon 014C:_msm_reversebuttonoff 0151:_msm_reversebuttonis 0159:_msm_reversebutton 017F:_msm_readcounters 0194:_msm_signal 020F:_msm_lightpenon 021C:_msm_lightpenoff 0229:_msm_setratio 022F:_msm_condoff 0250:_msm_setthreshhold
  F07F9989D1BB0020:
    C3:
      0. 00 0000 000A 0000:_nans
    CB:
      0. 00 0000 000A 0000:_nans
    E8....C3:
      0. 00 0000 000D 0000:_nansf
    ..........CB:
      0. 00 0000 000F 0000:_nansf
  F87F9989D189CB:
    C3:
      0. 00 0000 0009 0000:_nan
    CB:
      0. 00 0000 0009 0000:_nan
  FDFF50:
    E8....83C402C3:
      0. 00 0000 000B (l)0000:___setmbctype
    ..........83C402CB:
      0. 00 0000 000D (l)0000:___setmbctype
  ....:
    50:
      E8....83C402C3:
        0. 00 0000 000B (!)0000:? (REF 0005: ___faterr)
      ..........83C402CB:
        0. 00 0000 000D (!)0000:? (REF 0005: ___faterr)
    8CDA:
      C3A3....C38CDAB8....C38CDAB8....C3558BEC8B46040906:
        0. 05 F5C5 0028 0000:__getthreaddata 0006:__errno_set 000A:__errno 0010:___doserrno 0016:__FEEXCEPT 0024:__FEROUND
      CBA3....CB8CDAB8....CB8CDAB8....CB558BEC8B46060906:
        0. 05 2D20 0028 0000:__getthreaddata 0006:__errno_set 000A:__errno 0010:___doserrno 0016:__FEEXCEPT 0024:__FEROUND
    8ED8BA....52:
      E9:
        0. 00 0000 000C 0000:___stk_ovfl (REF 000A: ___faterr)
      EA:
        0. 00 0000 000E 0000:___stk_ovfl (REF 000A: ___faterr)
    A3....B8....A3....C3:
      0. 00 0000 000D 0000:__STI_fltused (REF 0001: ___floatfmt)
    C3A3....C3B8....C3B8....C3558BEC8B46040906....5DC20200A1:
      0. 00 0000 0022 0000:__getthreaddata 0004:__errno_set 0008:__errno 000C:___doserrno 0010:__FEEXCEPT 001E:__FEROUND
    CBA3....CBB8....CBB8....CB558BEC8B46060906....5DCA0200A1:
      0. 00 0000 0022 0000:__getthreaddata 0004:__errno_set 0008:__errno 000C:___doserrno 0010:__FEEXCEPT 001E:__FEROUND
BA....:
  52:
    E9:
      0. 00 0000 0007 0000:___stk_ovfl (REF 0005: ___faterr)
    EA:
      0. 00 0000 0009 0000:___stk_ovfl (REF 0005: ___faterr)
  B8....8916....A3....BA....B8....8916....A3....CB:
    0. 00 0000 001B 0000:__STI_fltused
  E9....FAFCB8....8ED8:
    8C06....268B1E2C00891E....8BD82B1E:
      0. 02 6CAD 0225 0000:? (01FB: 0E)
      1. 02 6CAD 0233 0000:? (01FB: 72)
      2. 02 6CAD 0221 0000:? (01FB: 52)
      3. 02 6CAD 022D 0000:? (01FB: BA)
    C606....018C06....268B1E2C00891E....FB:
      0. 05 8EA8 018E 0006:start
C706....:
  0000C706....0000C3:
    0. 00 0000 000D (l)0000:UM_INIT
  0100C706....000031C050:
    E8....83C402C3:
      0. 00 0000 0016 0000:__cexit
    ..........83C402CB:
      0. 00 0000 0018 0000:__cexit
C8:
  0800005657833E....007408C746FCFDFFE9D100C746FCFEFF8B16....A1:
    0. 00 0000 02AE 0000:__heapchk 00F4:__heapset 015B:__heapadd 018D:__heapmin 0191:__expand 029F:__msize
  18000056A1....8946E8A1....8946EAA1....8946ECA1....8946EE8A4606:
    0. 04 153A 0B76 0079:_D16isDOS16M 0098:_D16rmGetVector 00D9:_D16pmGetVector 011A:_D16rmInstall 0180:_D16pmInstall 01E8:_D16IntTransparent 02AF:_D16IntStrategy 02D2:_D16Passdown 0325:_D16Passup 03A9:_D16MemStrategy 03CC:_D16MemAlloc 0406:_D16MemFree 042C:_D16ExtAvail 045C:_D16LowAvail 0507:_D16SegRealloc 0543:_D16SegTransparent 0578:_D16AbsAddress 05DB:_D16SegLimit 05FF:_D16SegAbsolute 0639:_D16ProtectedPtr 0669:_D16SegDSAlias 06A4:_D16SegCSAlias 06DF:_D16RealPtr 076B:_D16SegCancel 0788:_D16SegDataPtr 07C3:_D16GetAccess 07ED:_D16SetAccess 0838:_D16SegProtect 088B:_D16rmRCall 0932:_D16HugeAlloc 0947:_D16SegResize 0978:_D16HugeResize 0AC7:_D16SelReserve 0AFD:_D16TermFunction
  22000056578B46080B46067503E9B3018B56088B46068956E08946DEEB0FC4:
    0. 4A DA56 01C9 0000:_putenv
CB5A592BE076035152CBBA....EA:
  0. 00 0000 0012 0000:__chkstack 0001:__chkstk
DB:
  6E0CDB6E008B460603C00F83....35000EA9000E0F84....DEF9C3C1E80C53:
    0. 04 D899 07E4 00F7:FDIV_R 05E4:FDIV_M32 062B:FDIV_M64 0672:FDIV_M16I 06A5:FDIV_M32I 06D8:FDIVR_M32 071F:FDIVR_M64 0766:FDIVR_M16I 0799:FDIVR_M32I (07BF: C3)
    1. 04 D899 07EA 00F7:FDIV_R 05EA:FDIV_M32 0631:FDIV_M64 0678:FDIV_M16I 06AB:FDIV_M32I 06DE:FDIVR_M32 0725:FDIVR_M64 076C:FDIVR_M16I 079F:FDIVR_M32I (07BF: 33)
  E3B91400E2FED93E....B90A00E2FE33DBA1....80E40F80FC0375529BD93E:
    0. 00 0000 0074 0000:__8087_init
E8....:
  C3:
    0. 00 0000 0004 0000:_farcoreleft (REF 0001: _dos_avail)
  CB57B430CD21A3....86E0A3....:
    8B1E....8B07A3....8CD8A3....36:
      0. 07 2B3F 0120 0000:__cinit_f 0004:__cinit 003D:__exit 00B9:__dodtors 0100:___faterr
    C41E....C41F891E....8C06....36:
      0. 07 2B3F 0120 0000:__cinit_f 0004:__cinit 003D:__exit 00B9:__dodtors 0100:___faterr
  E8....C3:
    0. 00 0000 0007 0000:_farcoreleft (REF 0001: _fillto64k)
  ..........CB:
    0. 00 0000 0009 0000:_farcoreleft (REF 0001: _fillto64k)
E9:
  0. 00 0000 0003 0000:_setjmp (REF 0001: __setjmp)
  1. 00 0000 0003 0000:_calloc (REF 0001: __fcalloc)
  2. 00 0000 0003 0000:_free (REF 0001: __ffree)
  3. 00 0000 0003 0000:_malloc (REF 0001: __fmalloc)
  4. 00 0000 0003 0000:__msize (REF 0001: __fmsize)
  5. 00 0000 0003 0000:_realloc (REF 0001: __frealloc)
  6. 00 0000 0003 0000:__dup (REF 0001: _dup)
  7. 00 0000 0003 0000:__fcvt (REF 0001: _fcvt)
  8. 00 0000 0003 0000:__itoa (REF 0001: _itoa)
  9. 00 0000 0003 0000:__ltoa (REF 0001: _ltoa)
  10. 00 0000 0003 0000:__memicmp (REF 0001: _memicmp)
  11. 00 0000 0003 0000:__strdup (REF 0001: _strdup)
  12. 00 0000 0003 0000:__strrev (REF 0001: _strrev)
  13. 00 0000 0003 0000:__tzset (REF 0001: _tzset)
  14. 00 0000 0003 0000:__aNchkstk (REF 0001: __chkstk)
EA:
  0. 00 0000 0005 0000:__fmemicmp (REF 0001: _fmemicmp)
  1. 00 0000 0005 0000:__fmemmove (REF 0001: _fmemmove)
  2. 00 0000 0005 0000:__fstrchr (REF 0001: _fstrchr)
  3. 00 0000 0005 0000:__fstrtok (REF 0001: _fstrtok)
  4. 00 0000 0005 0000:_setjmp (REF 0001: __setjmp)
  5. 00 0000 0005 0000:_calloc (REF 0001: __ncalloc)
  6. 00 0000 0005 0000:_free (REF 0001: __nfree)
  7. 00 0000 0005 0000:_malloc (REF 0001: __nmalloc)
  8. 00 0000 0005 0000:__msize (REF 0001: __nmsize)
  9. 00 0000 0005 0000:_realloc (REF 0001: __nrealloc)
  10. 00 0000 0005 0000:__dup (REF 0001: _dup)
  11. 00 0000 0005 0000:__fcvt (REF 0001: _fcvt)
  12. 00 0000 0005 0000:__itoa (REF 0001: _itoa)
  13. 00 0000 0005 0000:__ltoa (REF 0001: _ltoa)
  14. 00 0000 0005 0000:__memicmp (REF 0001: _memicmp)
  15. 00 0000 0005 0000:__strdup (REF 0001: _strdup)
  16. 00 0000 0005 0000:__strrev (REF 0001: _strrev)
  17. 00 0000 0005 0000:__tzset (REF 0001: _tzset)
  18. 00 0000 0005 0000:__aFchkstk (REF 0001: __chkstk)
EB409090444F532F31364D000400........00000000:
  0. 00 0000 007E 0004:d16_seginfo_struct
FB50535152555657061E:
  2E8E1E....833E....007404FF16....1F075F5E5D5A:
    0. 09 7D64 0089 0024:_controlc_open 0054:_controlc_close
  B8....8ED8833E....007404FF:
    16....1F075F5E5D5A:
      0. 0D 98D6 0084 0024:_controlc_open 004F:_controlc_close
    1E....1F075F5E5D5A:
      0. 0D 98D6 0084 0024:_controlc_open 004F:_controlc_close
