0F:
  B6442404:
    8A80........:
      25:
        01000000C3:
          0. 00 0000 0011 0000:__ismbbkalnum
        02000000C3:
          0. 00 0000 0011 0000:__ismbbkpunct
        03000000C3:
          0. 00 0000 0011 0000:__ismbbkprint
        04000000C3:
          0. 00 0000 0011 0000:__ismbblead
        08000000C3:
          0. 00 0000 0011 0000:__ismbbtrail
      C20400:
        0. 00 0000 000E (!)0000:?
    8B:
      0D........668B04412500800000C3:
        0. 00 0000 0015 0000:_isleadbyte
      4C24088B04812500800000C3:
        0. 00 0000 0012 (l)0000:___isleadbyte
    F680........:
      0175150FB64C240466F7044D........:
        0301750431:
          0. 09 86C0 0029 0000:__ismbbalpha (REF 0017: .)
        0701750431:
          0. 09 86C0 0029 0000:__ismbbalnum (REF 0017: .)
      0275150FB64C240466F7044D........1000750431:
        0. 09 86C0 0029 0000:__ismbbpunct (REF 0017: .)
      0375150FB64C240466F7044D........:
        1701750431:
          0. 09 86C0 0029 0000:__ismbbgraph (REF 0017: .)
        5701750431:
          0. 09 86C0 0029 0000:__ismbbprint (REF 0017: .)
  BE4424:
    04:
      668B54240481E2FFFF00003BC27502EB050FBE54240889D0C20800:
        0. 00 0000 0020 0000:?do_narrow@?$ctype@std@_Y@std@@MBED_YD@Z
      C20400:
        0. 00 0000 0008 0000:?do_widen@?$ctype@std@_Y@std@@MBE_YD@Z
    088B4C240489412489C8C3:
      0. 00 0000 000F (l)0000:?sfill@@YAAAVios@@AAV1@H@Z
31:
  C0:
    648B0D........817904........7505B801000000C3:
      0. 00 0000 0018 0000:__abnormal_termination
    8A4424:
      04:
        8A80........25:
          01000000C3:
            0. 00 0000 0012 0000:__ismbbkalnum
          02000000C3:
            0. 00 0000 0012 0000:__ismbbkpunct
          03000000C3:
            0. 00 0000 0012 0000:__ismbbkprint
          04000000C3:
            0. 00 0000 0012 0000:__ismbblead
          08000000C3:
            0. 00 0000 0012 0000:__ismbbtrail
        F680........:
          01751631C98A4C240466F7044D........:
            030175:
              0. 0B 2072 002B 0000:__ismbbalpha (REF 0019: .)
            070175:
              0. 0B 2072 002B 0000:__ismbbalnum (REF 0019: .)
          02751431C98A4C2404F6044D........10750431:
            0. 09 86C0 0029 0000:__ismbbpunct (REF 0018: .)
          03751631C98A4C240466F7044D........:
            170175:
              0. 0B 2072 002B 0000:__ismbbgraph (REF 0019: .)
            570175:
              0. 0B 2072 002B 0000:__ismbbprint (REF 0019: .)
      088B4C240C8B5424045788C489D783F908721E89C2C1E21009D089:
        0. 10 76BE 0058 0000:_memset
    8B0D........8A442404668B04412500800000C3:
      0. 00 0000 0016 0000:_isleadbyte
    A3........A3........C3:
      0. 00 0000 000D (l)0000:UM_INIT
  C9394C240474:
    168B4424043808740E837C24080119C981E1FEFFFFFF418BC1:
      0. 01 EF04 0021 0000:__fmblen
    178B4424043808740F8B4424083D0100000019C980E1FE418B:
      0. 02 A228 0022 0000:__fmblen
33:
  C0668CD8C30FB75424048B442408C30FB7442408C3:
    0. 00 0000 0016 0000:_getDS 0006:_MK_FP 0010:_FP_SEG
  F68BFAF7C70000807F743581E70000807F81FF0000807F75348BFAF7C70000:
    0. 6E A096 008E 0000:fget_dtype_pair
50:
  0FBE44240850FFB118040000E8........83C40859C20400:
    0. 00 0000 0019 0000:?do_tolower@?$ctype_byname@std@D@std@@UBEDD@Z (REF 000E: __Locale_tolower)
    1. 00 0000 0019 0000:?do_toupper@?$ctype_byname@std@D@std@@UBEDD@Z (REF 000E: __Locale_toupper)
  31:
    C0:
      538B5C240C85DB5674773944241474713803746D0FB6038B0D:
        0. 0A F283 008F 0000:_mblen
      8B4C240866890424663901740E66C7042400004066833C410075F259C3:
        0. 00 0000 0020 0000:?length@?$__char_traits_base@std@_Y_Y@std@@SAIPB_Y@Z
      C705........01000000A3........50E8........83C40458C3:
        0. 00 0000 001D 0000:__cexit
    C9:
      50:
        53:
          5556578B7C241C8BDF66390F741866833B5875058D5101EB0231D2:
            0. 15 6501 00B9 0000:__wmktemp
          8B5C241085DB558B6C24:
            1C56BE01000000578B7C242C894C241089:
              0. 0F AB85 0186 0000:_wfnmerge
            2456BE01000000578B7C2424894C241089:
              0. 0F 2895 018C 0000:_fnmerge
              1. 0F BA60 0187 0000:_wfnmerge
        8B44240C8B10538B025631F63D8D0000C074413D8E0000C074413D8F:
          0. 69 EFF4 0108 0000:___xcfilter
      53:
        558B6C2418568B74241483C604578B5EFC89CF66894C241085DB7430:
          0. 1D 29C1 007D (l)0000:?Match_Specification@@YAHPADPBDHPAPAD@Z
        568A4424108D542408044088442408C64424093A884C240A52FF15:
          0. 00 0000 0061 0000:_dos_setdrive
      8B:
        44240C83F8107507B940000000EB1683F80A7507B910000000EB0A83:
          0. 0D 9AA2 0046 (l)0000:?sbase@@YAAAVios@@AAV1@H@Z
        54240C85D2742B837C2408007410890C240FBE028B4C24086689018B:
          0. 1A 91BF 003A 0000:__fmbtowc
    D2:
      50538B5C241C558B6C2414568B74242885F657741066833C530075048B:
        0. 0B 5982 01F0 0000:___wLCMapString
      668B44240C538B4C240C663BC256577E170FBFD883C1040FBF318D3CF5:
        0. 12 36CC 0032 (l)0000:?Skip_Handler@@YAPADPADF@Z
  50:
    31C053:
      558B6C241C85ED568B742418578B7C24200F84D200000089442414:
        0. 02 5039 00F6 0000:__wcsnicmp
      8B5C2410558B6C241C85ED568B74241C570F84D200000089442414:
        0. 02 5039 00F6 0000:__wcsnicmp
    53:
      31DB:
        558B6C241C568B742418578B7C2420885C241485ED8D6DFF74270F:
          0. 04 AA67 0058 0000:_strnicmp
        56:
          395C24147457391D........751A66817C2418FF00774E8B4C24:
            0. 16 1081 0079 0000:_wctomb
          8B74241C85F674:
            56391D........751556FF74241CFF74241CE8:
              0. 00 0000 007A 0000:__strncoll
            57391D........751556FF74241CFF74241CE8:
              0. 00 0000 007B 0000:__strnicoll
      55:
        31ED568B7424185731FF85F6896C2410896C241475068B35:
          0. 18 5D65 01A5 0000:___wCreateProcess
        56:
          57:
            31:
              C98B:
                5C241C8B:
                  6C24248B7C242C894C2410894C2414BE010000:
                    0. 10 93B9 0194 0000:_wfnmerge
                  7C24248B6C242C894C2410894C2414BE010000:
                    0. 10 2BE6 0195 0000:_wfnmerge
                    1. 0F B926 018F 0000:_fnmerge
                7C241C8BDF66390F741866833B5875058D5101EB0231D2:
                  0. 15 6501 00B9 0000:__wmktemp
              D28B5C24288B74242C8B6C241C85F6741066833C530075048B:
                0. 0B 5982 0208 0000:___wLCMapString
              ED:
                31FF8B74241C896C2410896C241485F675068B35:
                  0. 19 681D 01BA 0000:___wCreateProcess
                BBFFFFFFFF8B4C241C8B31E8........89742410B23F3816:
                  0. 08 1C2B 01E4 (l)0000:UM_NESTNAME
                BFFFFFFFFF8B4C241C8B19E8........895C2414B23F3813:
                  0. 08 7D48 01CF (l)0000:UM_NESTNAME
              F68B5C24208B7C241C8B54242485FF0F848601000083FA0119:
                0. 0A 10C1 01FA 0000:_wcstombs
              FF8B:
                2D........8B4C241C8B5C241C66393974416A006A006A:
                  0. 0E 3219 00E8 (l)0000:___make_ascii_envptr
                5C241C393D........0F8ECB000000B9........39190F:
                  0. 11 CAFC 00ED (l)0000:_checkcpinfo
            8B:
              5C24:
                1C8B7424208B:
                  6C2424:
                    895C241455E8........83C40485:
                      0. 08 048A 007D 0000:_fgetws
                    FF15........89442410A9000000:
                      0. 29 5F3D 0154 0000:__DllMainCRTStartup@12
                  7C2424:
                    53E8........80630CCF8B4B0C83:
                      0. 33 D47C 011F 0000:_fseek
                    8BEB57E8........83C40485F674:
                      0. 06 BB16 006E 0000:_fgets
                208B:
                  4C24248B74241C8B6C24288B7C242C8B110FAFD503:
                    0. 30 762C 0050 0000:__lfind
                  7C241C57E8........8B4C242889C551E8:
                    0. 19 5F8D 008C 0000:?replace4@RegExp@@SAPADPADPAUregmatch@@0@Z
              7C241C:
                8B74242057E8........8B4C242889C551E8:
                  0. 19 CB64 008C 0000:?replace4@RegExp@@SAPADPADPAUregmatch@@0@Z
                8D442410C744241014000000508D7F0781E7F8FFFFFF:
                  0. 02 FEFA 0085 0000:?_S_refill@?$__node_alloc@std@$0@$0@@std@@CAPAXI@Z (REF 0022: ?_S_chunk_alloc@?$__node_alloc@std@$0@$0@@std@@CAPADIAAH@Z)
                  1. 02 FEFA 0085 0000:?_S_refill@?$__node_alloc@std@$00$0@@std@@CAPAXI@Z (REF 0022: ?_S_chunk_alloc@?$__node_alloc@std@$00$0@@std@@CAPADIAAH@Z)
          8B7424:
            18576A0156FF15........85C00F84BB0000008B2D:
              0. 00 0000 00DE 0000:?_M_do_lock@?$_STLP_mutex_spin@std@$0@@std@@SAXPCJ@Z
            1C578B7C241C57E8........89C5FF742428E8........83:
              0. 18 A5D5 0088 0000:?replace4@RegExp@@SAPADPADPAUregmatch@@0@Z
      56:
        31:
          C931F68B4424148B108B023D8D0000C074413D8E0000C074413D8F:
            0. 69 EFF4 010A 0000:___xcfilter
          DB8B74241C85F6745D391D........7517568B4C241C8B54241851:
            0. 02 4684 0081 0000:__strncoll (0032: 00)
            1. 02 4684 0081 0000:__strnicoll (0032: 01)
        57:
          31:
            DB31FF8B54241C8B7424188B12895424108A0AFF442410EB0A8B:
              0. A7 3A25 014A (l)0000:UM_TYPE_ENCODING
            F68B4C241C8B7C24188B118954240C8A02FF44240C0FBED883EB:
              0. 0D A025 0283 (l)0000:UM_DATA_TYPE
          8B:
            54241869C26D0100008D8A4FF8FFFF894C240CDB44240CDC35:
              0. 00 0000 00A5 (l)0000:_Jan1Day
            5C24:
              18:
                8B7424208B7C242453E8........53E8........83C404:
                  0. 09 34D8 00AE 0000:_setvbuf
                E8........83C01489442410833D........000F848900:
                  0. 17 9C0B 00C0 0000:__mbstok
              1C:
                668B7C2418F6430D01750C8B4B10F681........107463:
                  0. 07 E2C1 00B4 0000:__fputwc_nlock
                8B7C24188B4B088B731449894B08410F84990000008B43:
                  0. 17 6FED 00C5 (l)0000:_MBTOWC
              248B7C24208D4C2410518D5424105257FF742428FF742428:
                0. 01 3E9B 0113 0000:_gcvt
            7C24208B7424248D4C2410518D5424105257FF742428FF742428:
              0. 01 3E9B 0113 0000:_gcvt
          8D442410C7442410000000008B4C24248B113B1075528B44241883:
            0. 0A 0CB9 00B5 (l)0000:___mbtowc
          C644241000FF74241C8B4C241CE8........84C075608B4C2418E8:
            0. 00 0000 0086 0000:??$__copy_digits@std@V?$istreambuf_iterator@std@DV?$char_traits@std@D@1@@1@D@std@@YA_NAAV?$istreambuf_iterator@std@DV?$char_traits@std@D@1@@1@0AAV?$basic_string@std@DV?$char_traits@std@D@1@V?$allocator@std@D@1@@1@PBD@Z
          C705........0100000068........FF15........31DBA1:
            0. 00 0000 00F3 0000:__beginthreadex
          E8........:
            66A1........:
              6689442412668B0D........8B1D:
                0. 00 0000 00A0 0000:_disp_eeop
              8B1D........668B0D........8B15:
                0. 00 0000 00A3 0000:_disp_eeop
            89C385C0750C5F:
              5E5BB81600000083C408C3FF15:
                0. 00 0000 00A5 0000:__SET_NT_ERRNO
              B8160000005E5B83C408C3FF15:
                0. 00 0000 00A0 0000:__SET_NT_ERRNO
        668B4424146683F8FF747D663DFF00772D668B5424148B1D:
          0. 24 FB21 0094 0000:_iswctype
        6A:
          01E8........83C40489C385C07436536A00FF15........8D4801:
            0. 07 7AC8 0085 0000:_dos_getdrive
          04:
            6800100000FF74241C6A00FF15........85C089442408750B5E:
              0. 0C B863 00B4 0000:_sbrk
            8D442410506A1E8B4C2420FF31FF15........8B5424148D5A04:
              0. 09 071B 007B 0000:__Locale_t_fmt_ampm
        833D........000F84:
          9D0000008B4424148B7424148038000F848200:
            0. 0A DD7F 00C0 0000:__mbslwr
          A00000008B4424148B7424148038000F848500:
            0. 0A DD7F 00C3 0000:__mbsupr
        8B:
          442414:
            50E8........83C40485C0755E6A016A008B4C241C51E8:
              0. 00 0000 008D 0000:_eof
            85C074758BD889C6C744240C00000000803800745AB90100:
              0. 04 8146 0087 (l)0000:_ansigrp
          4C24:
            14:
              81F900010000725C8B05........85C0744A894C24148B4C:
                0. 1E 7967 0098 0000:__ismbcalpha (003A: 03) (REF 0074: .)
                1. 1E 7967 0098 0000:__ismbcalnum (003A: 07) (REF 0074: .)
                2. 1E 7967 0096 0000:__ismbcpunct (003A: 75) (REF 0073: .)
                3. 1E 7967 0098 0000:__ismbcgraph (003A: 17) (REF 0074: .)
                4. 1E 7967 0098 0000:__ismbcprint (003A: 57) (REF 0074: .)
              894C240CE8........8D54240C5268........E8:
                0. 02 F6B7 0050 0000:___unmangle_vc_exception_type
              BA010000008B318A1E463915........7E146A040FBECB51:
                0. 01 3E9B 0080 (l)0000:UM_DIMENSION
            208B54241C8B4424248B5C2418505152538B74242456E8:
              0. 00 0000 005B 0000:__lsearch
          5C2414:
            53E8........:
              83C40483F8088944240C720B5E5B83C408B8:
                0. 0C 32DE 00D2 0000:_raise
              8B430C8944241083C404F644240C83750EBE:
                0. 07 1E05 0079 0000:_ftell
            85DB74:
              328D4C240C51E8........8D54241052E8:
                0. 11 9D0F 0046 0000:__wstrtime (REF 0037: __swprintf)
                1. 11 9D0F 0046 0000:__strtime (REF 0037: _sprintf)
              3C8D4C240C51E8........8D54241052E8:
                0. 1B E74A 0050 0000:__wstrdate (REF 0041: __swprintf)
                1. 1B E74A 0050 0000:__strdate (REF 0041: _sprintf)
            8B:
              73148B4B1083F9200F848D00000083F90A0F8484000000:
                0. 1A 9D23 00B1 (l)0000:_MBSTOWCS
              74241885DB7508C744241C000000008B05........85C0:
                0. 04 B4BE 00CD 0000:_strxfrm
          7424:
            14:
              6A006A006AFF566A006A00FF15........8D0C4502000000:
                0. 06 19C2 006E 0000:___ConvertFromACP
              8974240C56E8........89C383C4048D5C06FF3BDE76168A:
                0. 1F 2B20 003F 0000:_strrev
                1. 1F 7E6B 003F 0000:_strrev
              8B44242085F6740E83FE01740983FE020F85:
                050100008B4C:
                  0. 35 0790 0147 0000:___wspawn
                F60000008B4C:
                  0. 34 C6FF 0138 0000:___spawn
            20578B7C24208D4C2410518D5424105257FF742428FF742428:
              0. 01 3E9B 0110 0000:_gcvt
        8D442418508D4C241851E8........83C40889C385C07E448B542414:
          0. 0F 7141 006A 0000:??$__lower_bound@std@PBIIU?$less@std@I@1@H@std@@YAPBIPBI0ABIU?$less@std@I@1@PAH@Z
        FF742414E8........83C40489C38038007410803B25740B438A0384:
          0. F1 4E98 0111 0000:?__get_date_order@std@@YA?AW4dateorder@time_base@1@PAU_Locale_time@@@Z
      833D........007514FF742414FF742414E8........89C383C408EB3C:
        0. 0B E6C8 0071 0000:_strcoll (001B: 00)
        1. 0B E6C8 0071 0000:__stricoll (001B: 01)
      89CB8D:
        430CFF74242C8B93FC010000FF74242C508954241452FFB3F801:
          0. 13 D0DA 008E 0000:?do_get_date@?$time_get@std@_YV?$istreambuf_iterator@std@_YV?$char_traits@std@_Y@1@@1@@std@@MBE?AV?$istreambuf_iterator@std@_YV?$char_traits@std@_Y@1@@2@V32@0AAVios_base@2@AAHPAUtm@@@Z (REF 0033: ??$__get_formatted_time@std@V?$istreambuf_iterator@std@_YV?$char_traits@std@_Y@1@@1@PBD@std@@YAPBDV?$istreambuf_iterator@std@_YV?$char_traits@std@_Y@1@@1@0PBD1ABV_Time_Info@1@AAHPAUtm@@@Z)
          1. 13 D0DA 008E 0000:?do_get_date@?$time_get@std@DV?$istreambuf_iterator@std@DV?$char_traits@std@D@1@@1@@std@@MBE?AV?$istreambuf_iterator@std@DV?$char_traits@std@D@1@@2@V32@0AAVios_base@2@AAHPAUtm@@@Z (REF 0033: ??$__get_formatted_time@std@V?$istreambuf_iterator@std@DV?$char_traits@std@D@1@@1@PBD@std@@YAPBDV?$istreambuf_iterator@std@DV?$char_traits@std@D@1@@1@0PBD1ABV_Time_Info@1@AAHPAUtm@@@Z)
        530C568B742414FF742424FF742424528B93:
          F001000089542418:
            0. 0D 14F4 0060 0000:?do_get_time@?$time_get@std@_YPB_Y@std@@MBEPB_YPB_Y0AAVios_base@2@AAHPAUtm@@@Z (REF 002D: ??$__get_formatted_time@std@PB_YPBD@std@@YAPBDPB_Y0PBD1ABV_Time_Info@1@AAHPAUtm@@@Z)
            1. 0D 14F4 0060 0000:?do_get_time@?$time_get@std@DPBD@std@@MBEPBDPBD0AAVios_base@2@AAHPAUtm@@@Z (REF 002D: ??$__get_formatted_time@std@PBD0@std@@YAPBDPBD000ABV_Time_Info@1@AAHPAUtm@@@Z)
          FC01000089542418:
            0. 0D DA96 0066 0000:?do_get_date@?$time_get@std@_YPB_Y@std@@MBEPB_YPB_Y0AAVios_base@2@AAHPAUtm@@@Z (REF 002D: ??$__get_formatted_time@std@PB_YPBD@std@@YAPBDPB_Y0PBD1ABV_Time_Info@1@AAHPAUtm@@@Z)
            1. 0D DA96 0066 0000:?do_get_date@?$time_get@std@DPBD@std@@MBEPBDPBD0AAVios_base@2@AAHPAUtm@@@Z (REF 002D: ??$__get_formatted_time@std@PBD0@std@@YAPBDPBD000ABV_Time_Info@1@AAHPAUtm@@@Z)
      8B:
        05........85C08B5C24147416D944241083EC0CDB3C24E8:
          0. 08 066D 0092 0000:_modff
        442410506A00E8........83C40889C383F8FF7427F6442414807407:
          0. 15 A10C 005B 0000:__wchmod
        5C24:
          10:
            55:
              56:
                57:
                  31FF393D........0F8EC8000000B9........39190F:
                    0. 11 B85A 00EA (l)0000:_checkcpinfo
                  FF33E8........83C4048D4B045083EC0451E8:
                    0. 00 0000 00EA 0000:__Locale_strcmp
                8B74241C578B7C2424:
                  53E8........81630CCFFFFFFF8B:
                    0. 36 581F 0125 0000:_fseek
                  833D........000F848900000031:
                    0. 0D E82F 00BB 0000:__mbsncmp
              8B:
                6C241C568B74241C57:
                  895C241455E8........83C40485:
                    0. 08 DA7A 0080 0000:_fgetws
                  FF15........A900000080894424:
                    0. 29 6A3B 0166 0000:__DllMainCRTStartup@12
                EB568B74241C578B7C242457E8........83C40485F674:
                  0. 06 C61A 0071 0000:_fgets
            56:
              53E8........:
                83C40483F8088944240C720B5EB801000000:
                  0. 0C AEC4 00D2 0000:_raise
                8B430C8944241083C404F644240C83750E6A:
                  0. 07 6454 007B 0000:_ftell
              57:
                8A44241C8844240CC644240D00FF33E8........83C404:
                  0. 1E 85AD 00E5 0000:__Locale_tolower
                  1. 1E EB05 00E5 0000:__Locale_toupper
                E8........83C01489442410833D........000F848700:
                  0. 16 8BA8 00BD 0000:__mbstok
              8B:
                73148B4B1083F9200F848A00000083F90A0F8481000000:
                  0. 1C EDBE 00AE (l)0000:_MBSTOWCS
                74241C578B7C242453E8........53E8........83C404:
                  0. 08 EA32 00AD 0000:_setvbuf
              8D73F08D5608578B7C241C3BD373054239DA72FB8D471889:
                0. 32 ACB0 0066 0000:?deallocate@?$__debug_alloc@std@V__new_alloc@1@@std@@SAXPAXI@Z
              FF742420FF742420FF7424208D44241450E8........8B4C:
                0. 23 683C 0043 0000:??$__get_string@std@PB_YPA_Y@std@@YA?AU?$pair@std@PB_Y_N@1@PB_Y0PA_Y1@Z (REF 001A: ??$mismatch@std@PB_YPA_Y@std@@YA?AU?$pair@std@PB_YPA_Y@1@PB_Y0PA_Y@Z)
                1. 23 683C 0043 0000:??$__get_string@std@PBDPAD@std@@YA?AU?$pair@std@PBD_N@1@PBD0PAD1@Z (REF 001A: ??$mismatch@std@PBDPAD@std@@YA?AU?$pair@std@PBDPAD@1@PBD0PAD@Z)
            6AF4FF15........:
              83F8FF8944240474206A008D4C240C5153:
                0. 01 3E9B 004F 0000:__win32_stderrmsg
              8944240483F8FF74216A008D4C240C5153:
                0. 01 3E9B 0051 0000:__win32_stderrmsg
            85DB:
              5556570F8455010000C7442414000000006A3D53E8:
                0. 00 0000 0171 (l)0000:___sync_wenviron
              56:
                74:
                  2F8D4C240C51E8........8D54241052E8:
                    0. 0E 6EE7 0043 0000:__wstrtime (REF 0034: __swprintf)
                    1. 0E 6EE7 0043 0000:__strtime (REF 0034: _sprintf)
                  3B8D4C240C51E8........8D54241052E8:
                    0. 1A 894D 004F 0000:__wstrdate (REF 0040: __swprintf)
                    1. 1A 894D 004F 0000:__strdate (REF 0040: _sprintf)
                8B7424187508C744241C00000000833D........0075:
                  0. 03 EC5F 00C5 0000:_strxfrm
            8B4B28568D44240883C10E506A016A0051E8........834424:
              0. 14 BCD1 0053 0000:__cpp_longjmp_unwind@4
            E8........83C01485DB8944240875068B1885DB74:
              14FF7424:
                0. 03 E1B2 005B 0000:_strtok
              158B4424:
                0. 04 A95C 005D 0000:_strtok
          14:
            53E8........53:
              668B44241850E8........668944241453E8:
                0. 00 0000 0031 0000:_fputwc
              FF742418E8........668944241453E8:
                0. 00 0000 002F 0000:_fputwc
            55:
              56578B7C241C57E8........89C5FF742428E8........83:
                0. 18 5ABF 0088 0000:?replace4@RegExp@@SAPADPADPAUregmatch@@0@Z
              8B6C241C39EB568B74242857894C24147465FF74241C8BCD:
                0. 0D CCC9 0097 0000:?do_in@?$codecvt_byname@std@_YDU__stl_mbstate_t@@@std@@MBE?AW4result@codecvt_base@2@AAU__stl_mbstate_t@@PBD1AAPBDPA_Y3AAPA_Y@Z
            5657668B7C2418F7430C00010000750C8B4B10F681:
              0. 0A 4274 00B7 0000:__fputwc_nlock
            833D........007416D944241083EC0CDB3C24E8........D9:
              0. 07 B522 008E 0000:_modff
            8B4B0856498B7314578B7C2418894B08410F8491000000837B:
              0. 15 1C5B 00BD (l)0000:_MBTOWC
            FF742410E8........8944240C83C4048B4C24108B54240838:
              0. 1A 72BF 003A 0000:_strrchr
          1C:
            56578B7C24208D4C2410518D5424105257FF742428FF742428:
              0. 01 3E9B 0110 0000:_gcvt
            85DB56:
              74378B4C24248A118854240C807C241C007414FF7424:
                0. 06 6CBD 005C 0000:??$fill_n@std@V?$ostreambuf_iterator@std@DV?$char_traits@std@D@1@@1@ID@std@@YA?AV?$ostreambuf_iterator@std@DV?$char_traits@std@D@1@@1@V21@IABD@Z
              7E378B4C24248A118854240C807C241C007414FF7424:
                0. 06 6CBD 005C 0000:??$fill_n@std@V?$ostreambuf_iterator@std@DV?$char_traits@std@D@1@@1@HD@std@@YA?AV?$ostreambuf_iterator@std@DV?$char_traits@std@D@1@@1@V21@HABD@Z
      BB........53E8........83C404F7430C830000007524FF742410FF74:
        0. 04 EFD0 0060 0000:__wfopen (REF 0024: __WFOPEN)
        1. 04 EFD0 0060 0000:_fopen (REF 0024: __FOPEN)
      E8........89C3E8........05800700003BC3764F53E8........83C4:
        0. 13 B739 0075 0000:__wfopen (REF 0033: __WFOPEN)
        1. 13 B739 0075 0000:_fopen (REF 0033: __FOPEN)
      FF742410:
        6A00E8........83C40889C383F8FF742DF744241480000000:
          0. 1A C057 005F 0000:__wchmod
        FF15........89C383F8FF7429F74424148000000074098BC3:
          0. 15 FE0D 0057 0000:_chmod
    668B4424:
      0C6683F8FF5356747B663DFF00772D668B4C24148B15:
        0. 24 B52F 0092 0000:_iswctype
      108D4C24046689042466C74424020000516AFF8D542408526A01:
        0. 02 ABB7 0034 0000:__Locale_wchar_ctype
    6A:
      00:
        6A006A018D442410506A018D4C24245168400200008B542428FF7204:
          0. 02 ABB7 003C 0000:__Locale_wctob
        8B442410506A00E8........83C40C85C07514E8........B9FFFFFF:
          0. 11 05D5 0031 0000:__wmkdir
        8D44240850FF7424:
          14E8........83C40450FF742418FF35:
            0. 02 ABB7 003B 0000:_disp_puts
          20FF742420FF742420FF742420E8........83C4:
            0. 02 E3D8 0022 0000:??$__copy_aux@std@PBDV?$back_insert_iterator@std@V?$basic_string@std@DV?$char_traits@std@D@1@V?$allocator@std@D@1@@1@@1@@std@@YA?AV?$back_insert_iterator@std@V?$basic_string@std@DV?$char_traits@std@D@1@V?$allocator@std@D@1@@1@@1@PBD0V21@ABU__false_type@1@@Z
        FF742410:
          6A00E8........83C40C85C07513E8........C7442404FF:
            0. 0F BE48 002F 0000:__wmkdir
          FF15........85C07513E8........C7442404FFFFFFFF8B:
            0. 0B FFE4 002B 0000:_mkdir
      018D442408506A018D4C241C516800:
        0100008B542420FF32FF15:
          0. 00 0000 002A 0000:__Locale_wchar_tolower
        0200008B542420FF32FF15:
          0. 00 0000 002A 0000:__Locale_wchar_toupper
      028D442408506A:
        528B4C2418FF31FF15........8D54240452E8:
          0. 00 0000 0025 0000:__Locale_p_sign_posn
        538B4C2418FF31FF15........8D54240452E8:
          0. 00 0000 0025 0000:__Locale_n_sign_posn
        548B4C2418FF31FF15........8A54240480FA307506:
          0. 19 517A 0039 0000:__Locale_p_cs_precedes
        558B4C2418FF31FF15........8A54240480FA307506:
          0. 19 517A 0039 0000:__Locale_p_sep_by_space
        568B4C2418FF31FF15........8A54240480FA307506:
          0. 19 517A 0039 0000:__Locale_n_cs_precedes
        578B4C2418FF31FF15........8A54240480FA307506:
          0. 19 517A 0039 0000:__Locale_n_sep_by_space
      068D44240450:
        6804100000FF742418FF15........8D0C2451E8:
          0. 00 0000 0025 0000:___intGetACP
        6A0BFF742418FF15........8D0C2451E8........83C4:
          0. 02 7052 0022 0000:___intGetOCP
    83:
      3D........:
        0074:
          3CFF742414FF742414FF74241CFF7424186A:
            00FF35:
              0. 00 0000 005C 0000:__mbsnbcoll
            01FF35:
              0. 00 0000 005C 0000:__mbsnbicoll
          56FF742414FF742414E8........83C40850FF742414:
            0. 09 7E61 0076 0000:__mbsncoll (000D: 00)
            1. 09 7E61 0076 0000:__mbsnicoll (000D: 01)
        FF74286A008D44240850FF742414E8........83C40450FF:
          0. 05 92D0 0042 0000:__cputs
      7C240C00:
        7435FF74240CE8........83C4048D04450200000050E8:
          0. 00 0000 0044 0000:__wcsdup
        7511FF742414FF742414E8........83C410C3E8........89:
          0. 08 4A93 005E 0000:__wgetdcwd (REF 0012: __wgetcwd)
          1. 08 4A93 005E 0000:__getdcwd (REF 0012: _getcwd)
    894C24048B410885C0740DFF74240C50E8........83C4088B4C24048379:
      0. 10 0EB9 003A 0000:?do_close@_Messages_impl@std@@UBEXH@Z
    8A44240C8D4C2404044088442404C64424053AC64424060051FF15:
      0. 00 0000 002A 0000:__chdrive
    8B:
      05........535685C0:
        0F84:
          A10000008B4C24148B7424148039000F8486:
            0. 0D A5A1 00C6 0000:__mbslwr
          A20000008B4C24148B7424148039000F8487:
            0. 0D A5A1 00C7 0000:__mbsupr
        74:
          418B5C241C8B7424185356538B0D........8B:
            0. 09 6567 006C 0000:__mbsnbcoll
            1. 09 DE7B 006D 0000:__mbsnbicoll
          598B5C241C8B7424185356E8........83C408:
            0. 09 09D3 0084 0000:__mbsncoll (0014: 00)
            1. 09 09D3 0084 0000:__mbsnicoll (0014: 01)
      41045389CB56:
        2B0385C057790140D1F83B44241C:
          730E5FB8FFFFFFFF5E:
            0. 27 160F 0074 0000:?find_first_not_of@?$basic_string@std@_YV?$char_traits@std@_Y@1@V?$allocator@std@_Y@1@@std@@QBEI_YI@Z
            1. 25 D6BB 0072 0000:?find_first_not_of@?$basic_string@std@_YV?$char_traits@std@_Y@1@V?$allocator@std@_Y@1@@std@@QBEI_YI@Z
          770E5FB8FFFFFFFF5E:
            0. 27 160F 006E 0000:?find@?$basic_string@std@_YV?$char_traits@std@_Y@1@V?$allocator@std@_Y@1@@std@@QBEI_YI@Z
            1. 25 D6BB 006C 0000:?find@?$basic_string@std@_YV?$char_traits@std@_Y@1@V?$allocator@std@_Y@1@@std@@QBEI_YI@Z
        572B033B44241C:
          730E5FB8FFFFFFFF5E5B83C408C20800:
            0. 1A 6B00 0060 0000:?find_first_not_of@?$basic_string@std@DV?$char_traits@std@D@1@V?$allocator@std@D@1@@std@@QBEIDI@Z
            1. 19 BAA7 005F 0000:?find_first_not_of@?$basic_string@std@DV?$char_traits@std@D@1@V?$allocator@std@D@1@@std@@QBEIDI@Z
          770E5FB8FFFFFFFF5E5B83C408C20800:
            0. 1A 6B00 005A 0000:?find@?$basic_string@std@DV?$char_traits@std@D@1@V?$allocator@std@D@1@@std@@QBEIDI@Z
            1. 19 BAA7 0059 0000:?find@?$basic_string@std@DV?$char_traits@std@D@1@V?$allocator@std@D@1@@std@@QBEIDI@Z
      4424:
        0C:
          2B442410890424DB042483C408C3:
            0. 00 0000 0014 0000:_difftime
          506A00E8........83C40885C07514E8........B9FFFFFFFF89:
            0. 0F AF56 002F 0000:__wrmdir (REF 000A: ___wRemoveDirectory)
            1. 0F AF56 002F 0000:__wchdir (REF 000A: ___wSetCurrentDirectory)
          85C053567475C744240C000000008BD889C6803800745AB90100:
            0. 04 8146 0087 (l)0000:_ansigrp
          8B:
            085385C956894C240C79085E31C05B83C408C3E8........8B:
              0. 01 54B7 0070 0000:_localtime
            105385D25675085E8BC25B83C408C33B542414770D8954240C:
              0. 01 3E9B 0043 0000:___eh_find_caller
          8D:
            0C24C74424040100000089042451FF35........FF15:
              0. 00 0000 0036 0000:_disp_setcursortype
            1424890424C7442404........:
              8B028B52045250FF74241CFF:
                0. 04 5AE3 002E 0000:?do_scan_is@?$ctype@std@_Y@std@@MBEPB_YW4mask@ctype_base@2@PB_Y1@Z
              FF7204FF32FF74241CFF7424:
                0. 02 3058 002C 0000:?do_scan_is@?$ctype@std@_Y@std@@MBEPB_YW4mask@ctype_base@2@PB_Y1@Z
          99F77C241089542404:
            8904248B5424048B042483C408C3:
              0. 00 0000 001D 0000:_div
            8B5424048904248B042483C408C3:
              0. 00 0000 001D 0000:_div
        10:
          53:
            562B442414:
              3B4424247C1AFF74241CFF74241CFF74241CE8:
                0. 00 0000 0107 0000:??$__copy_float_and_fill@std@DPAD@std@@YAPADPBD0PADHHDDD@Z
              85C0790140D1F83B4424247C1AFF74241CFF7424:
                0. 06 156E 011B 0000:??$__copy_float_and_fill@std@_YPA_Y@std@@YAPA_YPB_Y0PA_YHH_Y_Y_Y@Z
            8B5C2410:
              5657C6030039180F84FA0000008B4B048039000F85:
                0. 65 1B31 0122 0000:?_Rebalance@?$_Rb_global@std@_N@std@@SAXPAU_Rb_tree_node_base@2@AAPAU32@@Z
              8D0C03568B74241C894C240C2BCB510FB6165253E8:
                0. 00 0000 0031 0000:??$fill_n@std@I@std@@YAPADPADIABD@Z (0010: C3)
          8D48145351FF7424145150E8........83C40C8944240C593BC8:
            0. 2F 6C90 004F 0000:?__get_fdigit@std@@YA_NAA_YPB_Y@Z
          C1E00353565750E8........83C40489C385C0741D6A008D4C24:
            0. 11 3EE3 0041 0000:??$_Stl_copy_array@std@U?$pair@std@P6AXW4event@ios_base@1@AAV31@H@ZH@1@@std@@YAPAU?$pair@std@P6AXW4event@ios_base@1@AAV31@H@ZH@1@PBU21@I@Z
        14:
          53562B44241885C0790140D1F889C685C00F8E81000000807C24:
            0. 99 4222 00B9 0000:??$__copy@std@PA_YV?$ostreambuf_iterator@std@_YV?$char_traits@std@_Y@1@@1@H@std@@YA?AV?$ostreambuf_iterator@std@_YV?$char_traits@std@_Y@1@@1@PA_Y0V21@ABUrandom_access_iterator_tag@1@PAH@Z
          8D88A80000005356575150FF742424FF742424894C241CE8:
            0. 00 0000 005C 0000:??$__get_short_or_long_dayname@std@V?$istreambuf_iterator@std@_YV?$char_traits@std@_Y@1@@1@@std@@YA_NAAV?$istreambuf_iterator@std@_YV?$char_traits@std@_Y@1@@1@0ABV_Time_Info@1@PAUtm@@@Z (REF 001E: ??$__match@std@V?$istreambuf_iterator@std@_YV?$char_traits@std@_Y@1@@1@PAV?$basic_string@std@DV?$char_traits@std@D@1@V?$allocator@std@D@1@@1@@std@@YAPAV?$basic_string@std@DV?$char_traits@std@D@1@V?$allocator@std@D@1@@1@AAV?$istreambuf_iterator@std@_YV?$char_traits@std@_Y@1@@1@0PAV21@1@Z)
            1. 00 0000 005C 0000:??$__get_short_or_long_dayname@std@PBD@std@@YA_NAAPBD0ABV_Time_Info@1@PAUtm@@@Z (REF 001E: ??$__match@std@PBDPAV?$basic_string@std@DV?$char_traits@std@D@1@V?$allocator@std@D@1@@1@@std@@YAPAV?$basic_string@std@DV?$char_traits@std@D@1@V?$allocator@std@D@1@@1@AAPBD0PAV21@1@Z)
            2. 00 0000 005C 0000:??$__get_short_or_long_dayname@std@PB_Y@std@@YA_NAAPB_Y0ABV_Time_Info@1@PAUtm@@@Z (REF 001E: ??$__match@std@PB_YPAV?$basic_string@std@DV?$char_traits@std@D@1@V?$allocator@std@D@1@@1@@std@@YAPAV?$basic_string@std@DV?$char_traits@std@D@1@V?$allocator@std@D@1@@1@AAPB_Y0PAV21@1@Z)
            3. 00 0000 005C 0000:??$__get_short_or_long_dayname@std@V?$istreambuf_iterator@std@DV?$char_traits@std@D@1@@1@@std@@YA_NAAV?$istreambuf_iterator@std@DV?$char_traits@std@D@1@@1@0ABV_Time_Info@1@PAUtm@@@Z (REF 001E: ??$__match@std@V?$istreambuf_iterator@std@DV?$char_traits@std@D@1@@1@PAV?$basic_string@std@DV?$char_traits@std@D@1@V?$allocator@std@D@1@@1@@std@@YAPAV?$basic_string@std@DV?$char_traits@std@D@1@V?$allocator@std@D@1@@1@AAV?$istreambuf_iterator@std@DV?$char_traits@std@D@1@@1@0PAV21@1@Z)
        1853568B74241485F6740E83FE01740983FE020F85:
          E5000000837C:
            0. 2E 8302 0127 0000:___spawn
          F4000000837C:
            0. 31 0A55 0136 0000:___wspawn
    8D:
      042450:
        6A006A008B4C2418FF348D........FF15........85C0741DFF:
          0. 0E F8CD 0045 0000:_dos_getftime
        FF742418FF742418FF15........85C074238D0C24516A006A00:
          0. 07 CF93 0044 0000:_dos_setftime
      4424:
        04:
          50:
            DB6C241C83EC08DD1C24DB6C241883EC08DD1C24E8:
              0. 04 2055 0024 0000:_remainderl
            FF7424:
              10FF15........83F8FF890424750EFF15........85:
                0. 0E C6C6 002E 0000:?__file_size@_SgI@@YAJPAX@Z
              14FF742414E8........83C414C3:
                0. 00 0000 0018 0000:??$__destroy@std@PAPAXPAX@std@@YAXPAPAX00@Z
              18FF742418FF742418E8........83C418C3:
                0. 00 0000 001C 0000:??$copy@std@PB_YPAD@std@@YAPADPB_Y0PAD@Z (REF 0014: ??$__copy_aux@std@PB_YPAD@std@@YAPADPB_Y0PADABU__true_type@1@@Z)
                1. 00 0000 001C 0000:??$copy@std@PBDPA_Y@std@@YAPA_YPBD0PA_Y@Z (REF 0014: ??$__copy_aux@std@PBDPA_Y@std@@YAPA_YPBD0PA_YABU__true_type@1@@Z)
                2. 00 0000 001C 0000:??$uninitialized_copy@std@PAD0@std@@YAPADPAD00@Z (REF 0014: ??$__uninitialized_copy@std@PAD0@std@@YAPADPAD00ABU__true_type@1@@Z)
                3. 00 0000 001C 0000:??$uninitialized_fill_n@std@PADID@std@@YAPADPADIABD@Z (REF 0014: ??$__uninitialized_fill_n@std@PADID@std@@YAPADPADIABDABU__true_type@1@@Z)
                4. 00 0000 001C 0000:??$uninitialized_copy@std@PA_Y0@std@@YAPA_YPA_Y00@Z (REF 0014: ??$__uninitialized_copy@std@PA_Y0@std@@YAPA_YPA_Y00ABU__true_type@1@@Z)
                5. 00 0000 001C 0000:??$uninitialized_fill_n@std@PA_YI_Y@std@@YAPA_YPA_YIAB_Y@Z (REF 0014: ??$__uninitialized_fill_n@std@PA_YI_Y@std@@YAPA_YPA_YIAB_YABU__true_type@1@@Z)
                6. 00 0000 001C 0000:??$find_if@std@PBDU?$_Eq_int_bound@std@V?$char_traits@std@D@1@@1@@std@@YAPBDPBD0U?$_Eq_int_bound@std@V?$char_traits@std@D@1@@1@@Z (REF 0014: ??$__find_if@std@PBDU?$_Eq_int_bound@std@V?$char_traits@std@D@1@@1@@std@@YAPBDPBD0U?$_Eq_int_bound@std@V?$char_traits@std@D@1@@1@ABUrandom_access_iterator_tag@1@@Z)
                7. 00 0000 001C 0000:??$copy@std@PAD0@std@@YAPADPAD00@Z (REF 0014: ??$__copy_aux@std@PAD0@std@@YAPADPAD00ABU__true_type@1@@Z)
                8. 00 0000 001C 0000:??$find@std@PADD@std@@YAPADPAD0ABD@Z (REF 0014: ??$__find@std@PADD@std@@YAPADPAD0ABDABUrandom_access_iterator_tag@1@@Z)
                9. 00 0000 001C 0000:??$uninitialized_fill_n@std@PAPAXIPAX@std@@YAPAPAXPAPAXIABQAX@Z (REF 0014: ??$__uninitialized_fill_n@std@PAPAXIPAX@std@@YAPAPAXPAPAXIABQAXABU__true_type@1@@Z)
                10. 00 0000 001C 0000:??$uninitialized_copy@std@PADPA_Y@std@@YAPA_YPAD0PA_Y@Z (REF 0014: ??$__uninitialized_copy@std@PADPA_Y@std@@YAPA_YPAD0PA_YABU__true_type@1@@Z)
                11. 00 0000 001C 0000:??$copy@std@PBU?$pair@std@P6AXW4event@ios_base@1@AAV31@H@ZH@1@PAU21@@std@@YAPAU?$pair@std@P6AXW4event@ios_base@1@AAV31@H@ZH@1@PBU21@0PAU21@@Z (REF 0014: ??$__copy_aux@std@PBU?$pair@std@P6AXW4event@ios_base@1@AAV31@H@ZH@1@PAU21@@std@@YAPAU?$pair@std@P6AXW4event@ios_base@1@AAV31@H@ZH@1@PBU21@0PAU21@ABU__true_type@1@@Z)
                12. 00 0000 001C 0000:??$copy@std@PBJPAJ@std@@YAPAJPBJ0PAJ@Z (REF 0014: ??$__copy_aux@std@PBJPAJ@std@@YAPAJPBJ0PAJABU__true_type@1@@Z)
                13. 00 0000 001C 0000:??$copy@std@PBQAXPAPAX@std@@YAPAPAXPBQAX0PAPAX@Z (REF 0014: ??$__copy_aux@std@PBQAXPAPAX@std@@YAPAPAXPBQAX0PAPAXABU__true_type@1@@Z)
                14. 00 0000 001C 0000:??$find@std@PA_Y_Y@std@@YAPA_YPA_Y0AB_Y@Z (REF 0014: ??$__find@std@PA_Y_Y@std@@YAPA_YPA_Y0AB_YABUrandom_access_iterator_tag@1@@Z)
                15. 00 0000 001C 0000:??$copy@std@PBDPAD@std@@YAPADPBD0PAD@Z (REF 0014: ??$__copy_aux@std@PBDPAD@std@@YAPADPBD0PADABU__true_type@1@@Z)
                16. 00 0000 001C 0000:??$copy@std@PB_YPA_Y@std@@YAPA_YPB_Y0PA_Y@Z (REF 0014: ??$__copy_aux@std@PB_YPA_Y@std@@YAPA_YPB_Y0PA_YABU__true_type@1@@Z)
                17. 00 0000 001C 0000:??$copy@std@PA_Y0@std@@YAPA_YPA_Y00@Z (REF 0014: ??$__copy_aux@std@PA_Y0@std@@YAPA_YPA_Y00ABU__true_type@1@@Z)
                18. 00 0000 001C 0000:??$find@std@PB_Y_Y@std@@YAPB_YPB_Y0AB_Y@Z (REF 0014: ??$__find@std@PB_Y_Y@std@@YAPB_YPB_Y0AB_YABUrandom_access_iterator_tag@1@@Z)
                19. 00 0000 001C 0000:??$copy_backward@std@PAD0@std@@YAPADPAD00@Z (REF 0014: ??$__copy_backward_aux@std@PAD0@std@@YAPADPAD00ABU__true_type@1@@Z)
                20. 00 0000 001C 0000:??$copy_backward@std@PA_Y0@std@@YAPA_YPA_Y00@Z (REF 0014: ??$__copy_backward_aux@std@PA_Y0@std@@YAPA_YPA_Y00ABU__true_type@1@@Z)
              1C83EC048D4C2420518D4C2404E8........83EC048D:
                0. 09 B107 003A 0000:??$find_if@std@V?$reverse_iterator@std@PBD@1@U?$_Neq_char_bound@std@V?$char_traits@std@D@1@@1@@std@@YA?AV?$reverse_iterator@std@PBD@1@V21@0U?$_Neq_char_bound@std@V?$char_traits@std@D@1@@1@@Z (REF 0032: ??$__find_if@std@V?$reverse_iterator@std@PBD@1@U?$_Neq_char_bound@std@V?$char_traits@std@D@1@@1@@std@@YA?AV?$reverse_iterator@std@PBD@1@V21@0U?$_Neq_char_bound@std@V?$char_traits@std@D@1@@1@ABUrandom_access_iterator_tag@1@@Z)
                1. 09 B107 003A 0000:??$find_if@std@V?$reverse_iterator@std@PB_Y@1@U?$_Eq_char_bound@std@V?$char_traits@std@_Y@1@@1@@std@@YA?AV?$reverse_iterator@std@PB_Y@1@V21@0U?$_Eq_char_bound@std@V?$char_traits@std@_Y@1@@1@@Z (REF 0032: ??$__find_if@std@V?$reverse_iterator@std@PB_Y@1@U?$_Eq_char_bound@std@V?$char_traits@std@_Y@1@@1@@std@@YA?AV?$reverse_iterator@std@PB_Y@1@V21@0U?$_Eq_char_bound@std@V?$char_traits@std@_Y@1@@1@ABUrandom_access_iterator_tag@1@@Z)
                2. 09 B107 003A 0000:??$find_if@std@V?$reverse_iterator@std@PB_Y@1@U?$_Neq_char_bound@std@V?$char_traits@std@_Y@1@@1@@std@@YA?AV?$reverse_iterator@std@PB_Y@1@V21@0U?$_Neq_char_bound@std@V?$char_traits@std@_Y@1@@1@@Z (REF 0032: ??$__find_if@std@V?$reverse_iterator@std@PB_Y@1@U?$_Neq_char_bound@std@V?$char_traits@std@_Y@1@@1@@std@@YA?AV?$reverse_iterator@std@PB_Y@1@V21@0U?$_Neq_char_bound@std@V?$char_traits@std@_Y@1@@1@ABUrandom_access_iterator_tag@1@@Z)
                3. 09 B107 003A 0000:??$find_if@std@V?$reverse_iterator@std@PBD@1@U?$_Eq_char_bound@std@V?$char_traits@std@D@1@@1@@std@@YA?AV?$reverse_iterator@std@PBD@1@V21@0U?$_Eq_char_bound@std@V?$char_traits@std@D@1@@1@@Z (REF 0032: ??$__find_if@std@V?$reverse_iterator@std@PBD@1@U?$_Eq_char_bound@std@V?$char_traits@std@D@1@@1@@std@@YA?AV?$reverse_iterator@std@PBD@1@V21@0U?$_Eq_char_bound@std@V?$char_traits@std@D@1@@1@ABUrandom_access_iterator_tag@1@@Z)
              20FF742420:
                83EC048D4C2424518D4C2404E8:
                  0. 0D 250A 003E 0000:??$find_if@std@V?$reverse_iterator@std@PB_Y@1@U?$_Not_within_traits@std@V?$char_traits@std@_Y@1@@1@@std@@YA?AV?$reverse_iterator@std@PB_Y@1@V21@0U?$_Not_within_traits@std@V?$char_traits@std@_Y@1@@1@@Z (REF 001C: ??0?$reverse_iterator@std@PB_Y@std@@QAE@ABV01@@Z)
                  1. 0D 250A 003E 0000:??$find_if@std@V?$reverse_iterator@std@PBD@1@U?$_Not_within_traits@std@V?$char_traits@std@D@1@@1@@std@@YA?AV?$reverse_iterator@std@PBD@1@V21@0U?$_Not_within_traits@std@V?$char_traits@std@D@1@@1@@Z (REF 001C: ??0?$reverse_iterator@std@PBD@std@@QAE@ABV01@@Z)
                FF742420FF742420FF742420E8:
                  0. 04 224A 0024 0000:??$copy@std@PADV?$ostreambuf_iterator@std@DV?$char_traits@std@D@1@@1@@std@@YA?AV?$ostreambuf_iterator@std@DV?$char_traits@std@D@1@@1@PAD0V21@@Z (REF 001C: ??$__copy_aux@std@PADV?$ostreambuf_iterator@std@DV?$char_traits@std@D@1@@1@@std@@YA?AV?$ostreambuf_iterator@std@DV?$char_traits@std@D@1@@1@PAD0V21@ABU__false_type@1@@Z)
                  1. 04 224A 0024 0000:??$copy@std@PA_YV?$ostreambuf_iterator@std@_YV?$char_traits@std@_Y@1@@1@@std@@YA?AV?$ostreambuf_iterator@std@_YV?$char_traits@std@_Y@1@@1@PA_Y0V21@@Z (REF 001C: ??$__copy_aux@std@PA_YV?$ostreambuf_iterator@std@_YV?$char_traits@std@_Y@1@@1@@std@@YA?AV?$ostreambuf_iterator@std@_YV?$char_traits@std@_Y@1@@1@PA_Y0V21@ABU__false_type@1@@Z)
                  2. 04 224A 0024 0000:??$copy@std@PB_YV?$ostreambuf_iterator@std@_YV?$char_traits@std@_Y@1@@1@@std@@YA?AV?$ostreambuf_iterator@std@_YV?$char_traits@std@_Y@1@@1@PB_Y0V21@@Z (REF 001C: ??$__copy_aux@std@PB_YV?$ostreambuf_iterator@std@_YV?$char_traits@std@_Y@1@@1@@std@@YA?AV?$ostreambuf_iterator@std@_YV?$char_traits@std@_Y@1@@1@PB_Y0V21@ABU__false_type@1@@Z)
                  3. 04 224A 0024 0000:??$copy@std@PBDV?$ostreambuf_iterator@std@DV?$char_traits@std@D@1@@1@@std@@YA?AV?$ostreambuf_iterator@std@DV?$char_traits@std@D@1@@1@PBD0V21@@Z (REF 001C: ??$__copy_aux@std@PBDV?$ostreambuf_iterator@std@DV?$char_traits@std@D@1@@1@@std@@YA?AV?$ostreambuf_iterator@std@DV?$char_traits@std@D@1@@1@PBD0V21@ABU__false_type@1@@Z)
              24FF742424FF742424FF742424FF742424FF742424E8:
                0. 00 0000 0028 0000:_remainderl
          8B4C240C504151E8........83C4088B44240483C408C3:
            0. 00 0000 001D 0000:_setdisk
        10:
          50FF7424106A0068........E8........83C41085C089442404:
            0. 0F CAE3 002F 0000:__cprintf
          8B4C240C50516A0068........E8........83C41085C0894424:
            0. 10 8C58 0030 0000:__cprintf
    A1........:
      53568B35........5780383D751156E8........4001C683C4:
        0. 15 2B15 00DA 0000:___build_environ
      83F8FF74196A008D4C2408516A018D5424185250FF15:
        0. 00 0000 0036 0000:_putch
    B8........5350E8........B9........FF742418FF7424185168:
      0. 00 0000 005B 0000:_vwprintf (REF 001D: __fputwc_nlock)
      1. 00 0000 005B 0000:_vprintf (REF 001D: __fputc_nlock)
    E8........:
      85C089442404750683C408C204008B5424048B44240C894210:
        0. 10 FAC8 0030 0000:__SET_ERRNO
      8944240468000C0000E8........D9442410D9FC:
        8B442408D9:
          0. 05 BE0D 0034 0000:_truncf
        D95C2410FF:
          0. 04 AB11 0033 0000:_truncf
    FF7424:
      0C:
        6A00E8........83C40885C07513E8........C7442404FFFFFF:
          0. 0D AA78 002D 0000:__wrmdir (REF 0009: ___wRemoveDirectory)
          1. 0D AA78 002D 0000:__wchdir (REF 0009: ___wSetCurrentDirectory)
        E8........83C40485C0:
          755A6A016A00FF742414E8........83:
            0. 13 B735 0082 0000:_eof
          89442404750DFF74240CE8........83:
            0. 0B B404 002B 0000:___GetDefaultCP
        FF15........85C07513E8........C7442404FFFFFFFF8B4424:
          0. 09 B5D5 0029 0000:_rmdir (REF 0008: __imp__RemoveDirectoryA@4)
          1. 09 B5D5 0029 0000:_chdir (REF 0008: __imp__SetCurrentDirectoryA@4)
      146A00FF7424188B442418FF3485........FF15........83F8FF:
        0. 0F 24F4 003C 0000:__dos_seek
        1. 07 DFCA 0033 0000:_lseek
      1CFF74241CFF74241CFF74241C:
        6A008B442420FF30FF15:
          0. 24 32CF 0044 0000:__Locale_strwcmp
        FF74241CE8........83C41485C0:
          0. 2B 9C2F 0053 0000:__lsearch
  515283EC24DB7C240CDB3C248B4C240403C90F83........8B44241003C00F:
    0. 01 EB46 020D 0000:fatan_chk
  53:
    31DB56:
      578B7C241885FF743B8BF70FAF35........56E8........83C404:
        0. 0A 3949 006E 0000:___wGetCurrentDirectory
      8B74241085F65774:
        4531C98B5424183974241874398A028844240C:
          0. 10 5EF0 005C (l)0000:_WCSOFFSET
        4E535356FF15........89C785C0743F8D4F01:
          0. 02 2EAE 0063 (l)0000:__getosenv
    518B4424163500070000A9000700000F85........C1E80B83E00F80B8:
      0. 00 0000 0693 0226:frem_chk 024C:drem_chk 0272:lrem_chk 0284:fprem_chk 056E:frem1_chk 0594:drem1_chk 05BA:lrem1_chk 05CC:fprem1_chk
    55:
      31ED5631F65731FF55FF74242455E8........83C40C89C383F8FF7475:
        0. 03 07BD 00AC 0000:_wcsftime
      56:
        57:
          31:
            C08B6C242C8B4C24188B7C24288D14498D0C55........8B5424:
              0. 06 F70F 0100 0000:_disp_box
            ED5531F68B4C242431FF5155E8........83C40C89C383F8FF74:
              0. 05 3D71 00B4 0000:_wcsftime
          8B:
            05........:
              85C08B7424188B7C241CC744241000000000756866:
                0. 6D 56EC 00DA 0000:__wcsicmp
              8B:
                5C2418:
                  85C08B74241CC744241000000000756866:
                    0. 6D 3218 00DA 0000:__wcsicmp
                  8B6C241C85C00F849A00000031FF8BD580:
                    0. 0B 975D 00D2 0000:__mbsspnp
                6C241C85C00F849C00000031FF8BD5807D000074:
                  0. 07 30A9 00C7 0000:__mbsspn (005E: 74)
                  1. 07 30A9 00C7 0000:__mbscspn (005E: 7C)
            5C24:
              188B:
                44241C50FF15........83C40489C585C0743B8BCD8B:
                  0. 0F 0F34 0070 0000:_wcsstr
                6C241C8B7C24240FAF6C242057E8........83C4048B:
                  0. 1C EAAC 0119 0000:_fwrite
              1C8B6C24188B4B088B731449894B0841745E817B10FFFF00:
                0. 0E 9B79 0085 (l)0000:_WCTOMB
              248B7C241853E8........83C4048B6C241C0FAF6C242085:
                0. 20 582D 013B 0000:_fread
            6C241C8B5C24208B7424188B7C242485F6741B85FF741785DB8D:
              0. 1A 13F8 003A 0000:?__vec_invariant@@YAXPAXIHP6CHXZ@Z
            7424248B7C241856E8........83C4048B6C241C0FAF6C242085:
              0. 24 1575 013B 0000:_fread
        8B7424:
          14578B7C241CC744241000000000833D........007568668B:
            0. 69 56A9 00D3 0000:__wcsicmp
          20578B7C241856E8........83C4048B6C241C0FAF6C242085:
            0. 27 5E0B 0156 0000:_fread
      8B6C241456:
        57833D........000F849600000031FF8BD5807D0000741A:
          0. 05 E596 00BF 0000:__mbsspn (005A: 74)
          1. 05 E596 00BF 0000:__mbscspn (005A: 7C)
        8B7424148A1E5731FF84DB0F84F600000080FB2E75358D5E:
          0. 03 C90E 0117 0000:___ParseLocaleString
    56:
      31:
        DB31C98A44241C8B7424108A5C24148A4C24183BD97F0B89CA084433:
          0. 0A 2044 002A (l)0000:_fillrange
        F6:
          8B4C241085C975068B0D........894C2410565656566AFF8B4C24:
            0. 0E 6168 007A 0000:___wDeleteFile (004B: EC) (REF 0060: __imp__DeleteFileA@4)
            1. 0E 6168 007A 0000:___wRemoveDirectory (004B: EC) (REF 0060: __imp__RemoveDirectoryA@4)
            2. 0E 6168 007A 0000:___wSetCurrentDirectory (004B: EC) (REF 0060: __imp__SetCurrentDirectoryA@4)
            3. 0E 6168 007D 0000:___wGetFileAttributes (004B: FF)
            4. 0E 6168 009B 0000:___wCreateFile (004B: 52)
          E8........89C3:
            83C360E8........05800700003BC3763353E8:
              0. 00 0000 0056 0000:_fcloseall
            E8........05800700003BC3763353E8:
              0. 0B 3A83 0053 0000:__rmtmp
              1. 0B AD41 0053 0000:_flushall
      57:
        31:
          DB:
            395C2414745A391D........751A66817C2418FF0077508B4C24:
              0. 14 25F9 007B 0000:_wctomb
            8B:
              74241485F6744531C98B5424183974241874398A0284C08844:
                0. 0D D04F 005C (l)0000:_WCSOFFSET
              7C241885FF743D8BF70FAF35........56FF15........83C4:
                0. 0B 0C66 0072 0000:___wGetCurrentDirectory
          FF8B742414393D........75:
            2C66393E8BDE0F8483000000668B0B:
              0. 04 2142 00B5 0000:__wcslwr
              1. 04 45AD 00B5 0000:__wcsupr
            478BDE803E000F848F000000B90100:
              0. 04 8146 00C1 0000:_strlwr
            488BDE803E000F8490000000B90100:
              0. 04 8146 00C2 0000:_strupr
        668B:
          4C241C8B5C242081E1FF7F0000746481F9FF7F0000753F8B5424:
            0. B3 617E 00D3 0000:_frexpl
          54241C81E2FF7F0000747981FAFF7F0000754E8B5424188B4424:
            0. CC 951A 00EC 0000:_frexpl
        837C241400747331DB8B4424148B4C980C85C9740951E8........83:
          0. 10 CC8B 0083 0000:__Locale_time_destroy
        8B:
          05........8B:
            4C24:
              188B7424148B5C241C85C074:
                5E8BD6803E0074:
                  0. 07 CAB0 0090 0000:__mbsncat
                648BD6803E0074:
                  0. 07 CAB0 0096 0000:__mbsnbcat
              1C8B7424148B5C241885C074648BD6803E0074:
                0. 07 CAB0 0096 0000:__mbsnbcat
            5C24:
              143D0100000074446A006A006AFFA1:
                0. 02 C6BC 0078 0000:__mbstrlen
              1C85C00F84CF0000008B4C241831F6C1E9088B:
                0. 2E 3769 00FD 0000:__mbsnset
          4424:
            14:
              31DB8B08894C240C8B54240C8A023C40744684C0750E53FF:
                0. 01 54B7 0074 (l)0000:UM_SCOPE
              85C075178B44241C8B4C24185051E8........83C4085F5E:
                0. 04 A47D 006D 0000:__wgetdcwd (REF 0017: __wgetcwd)
                1. 04 A47D 006D 0000:__getdcwd (REF 0017: _getcwd)
              8B:
                08894C240C8A1180FA58751868........E8........FF:
                  0. 13 53AF 00CF (l)0000:UM_ARGUMENT_TYPES
                48048B5104035424146A016A018B5A1C8D4A04E8:
                  0. 00 0000 0062 0000:?ws@@YAAAVistream@@AAV1@@Z
                4C241C8944240C518B54241C528D74241C5668:
                  0. 01 3E9B 0041 0000:__vswprintf (001D: 5B)
                  1. 01 3E9B 003F 0000:_vsprintf (001D: C3)
            1C50E8........83C40489C3837C241400741D8D4B018B5424:
              0. 10 B1AC 0042 (l)0000:_strpad
          4C24:
            14:
              68........8B31E8........89C783C404E93701000057FF:
                0. 01 54B7 0182 (l)0000:UM_STRING
              8B318BD6460FBE3A83C7BF780583FF0A7E0431DBEB2B8BCF:
                0. 05 1A3D 0058 (l)0000:UM_CALLING_CONVENTION
            188B54241C833D........0074:
              4D8B5C241485D2742F8A0184:
                0. 0A F799 0086 0000:__mbsncpy
              538B5C241485D274358A0184:
                0. 0A 4684 008C 0000:__mbsnbcpy
          5C24:
            14:
              85DB:
                0F849B0000008B430C3D........740A50FF15:
                  0. 00 0000 00B0 (l)0000:_freelocaleconv
                75075F5E5B5931C0C3E8........:
                  05980000008B4B14:
                    0. 22 29C4 006D 0000:__wasctime
                  83C0528B4B148944:
                    0. 1C 199E 0065 0000:_asctime
              8B:
                430CA880740724FD0C0189430C8A4B0C80E13180F901:
                  0F:
                    0. 29 3882 00D8 (l)0000:__1fillbuf
                  74:
                    0. 34 8AA4 00E5 0000:__fillbuf
                73148B4B1083F920746A83F90A746583F90974608B5308:
                  0. 12 99A3 0087 (l)0000:_WCSTOMBS
            188B7424148B7C241C85DB75075F5E5B5931C0C383FF027C05:
              0. BB 4B65 00DB 0000:__itow
          742414:
            56E8........89C731DB83C4048B0CDD........575156E8:
              0. 00 0000 0075 (l)0000:_getlangcode (0024: C4)
              1. 00 0000 0045 (l)0000:_getcountrycode (0024: C3)
            8B:
              5E148B4E1083F920746A83F90A746583F90974608B5608:
                0. 12 F377 0087 (l)0000:_WCSTOMBS
              FEE8........50E8........83C404E8........50E8:
                0. 00 0000 0079 0000:_gets (0058: C3)
                1. 00 0000 009B 0000:__getws (0058: 00)
        8D4424:
          18508D4C242051E8........83C40889C3C1FB020F8E:
            A10000:
              0. AD 3D96 0165 0000:??$__find_if@std@V?$reverse_iterator@std@PBD@1@U?$_Eq_char_bound@std@V?$char_traits@std@D@1@@1@@std@@YA?AV?$reverse_iterator@std@PBD@1@V21@0U?$_Eq_char_bound@std@V?$char_traits@std@D@1@@1@ABUrandom_access_iterator_tag@1@@Z
              1. AD E666 0165 0000:??$__find_if@std@V?$reverse_iterator@std@PBD@1@U?$_Neq_char_bound@std@V?$char_traits@std@D@1@@1@@std@@YA?AV?$reverse_iterator@std@PBD@1@V21@0U?$_Neq_char_bound@std@V?$char_traits@std@D@1@@1@ABUrandom_access_iterator_tag@1@@Z
            AE0000:
              0. BA 5A7E 017A 0000:??$__find_if@std@V?$reverse_iterator@std@PB_Y@1@U?$_Neq_char_bound@std@V?$char_traits@std@_Y@1@@1@@std@@YA?AV?$reverse_iterator@std@PB_Y@1@V21@0U?$_Neq_char_bound@std@V?$char_traits@std@_Y@1@@1@ABUrandom_access_iterator_tag@1@@Z
              1. BA 6F2D 017A 0000:??$__find_if@std@V?$reverse_iterator@std@PB_Y@1@U?$_Eq_char_bound@std@V?$char_traits@std@_Y@1@@1@@std@@YA?AV?$reverse_iterator@std@PB_Y@1@V21@0U?$_Eq_char_bound@std@V?$char_traits@std@_Y@1@@1@ABUrandom_access_iterator_tag@1@@Z
          1C508D4C241C51E8........83C40884C074:
            4F8B5C24208B54:
              0. 3E 9946 007E 0000:??$__find_first_of@std@V?$reverse_iterator@std@PBD@1@PBDU?$_Eq_traits@std@V?$char_traits@std@D@1@@1@@std@@YA?AV?$reverse_iterator@std@PBD@1@V21@0PBD1U?$_Eq_traits@std@V?$char_traits@std@D@1@@1@@Z
            548B5C24208B54:
              0. 43 870F 0083 0000:??$__find_first_of@std@V?$reverse_iterator@std@PB_Y@1@PB_YU?$_Eq_traits@std@V?$char_traits@std@_Y@1@@1@@std@@YA?AV?$reverse_iterator@std@PB_Y@1@V21@0PB_Y1U?$_Eq_traits@std@V?$char_traits@std@_Y@1@@1@@Z
          20508D4C241C:
            51E8........83C40884C0746A8D4C2418E8:
              0. 00 0000 009E 0000:??$__copy_sign@std@V?$istreambuf_iterator@std@DV?$char_traits@std@D@1@@1@D@std@@YA?AV?$istreambuf_iterator@std@DV?$char_traits@std@D@1@@1@V21@0AAV?$basic_string@std@DV?$char_traits@std@D@1@V?$allocator@std@D@1@@1@DD@Z
            E8........84C0756A8D4C2418E8........8A:
              0. 3A 1129 009A 0000:??$__copy_sign@std@V?$istreambuf_iterator@std@DV?$char_traits@std@D@1@@1@D@std@@YA?AV?$istreambuf_iterator@std@DV?$char_traits@std@D@1@@1@V21@0AAV?$basic_string@std@DV?$char_traits@std@D@1@V?$allocator@std@D@1@@1@DD@Z
        B9:
          010000008B7C24148B078944240C390D........7E146A040FBE10:
            0. 02 4684 00D3 (l)0000:UM_ARGUMENT
          E80300008B5C24148B7424188BC399F7F98944240C:
            0430880689D0:
              0. 68 BB74 0088 (l)0000:DECPUT1
            83C030668906:
              0. 70 B858 0090 (l)0000:DECPUT1
        BE010000008B5C241485DB75014353FF15........83C40489C785C0:
          0. 04 DA71 0063 0000:?__do_newalloc@@YAPAXI@Z
        BFFFFFFFFF6A00FF7424186A00E8........:
          83C40C89C33BDF743A43:
            0. 06 C5F8 0060 (l)0000:___wputenv
          89C383C40C4353E8:
            0. 00 0000 0058 0000:__wputenv
        E8........89C3:
          83C348:
            833D........00742D668B0366253F0050E8:
              0. 00 0000 0055 0000:_fegetenv
            8B7424148BFBA5A5A4A4833D........0074:
              0. 11 57DF 003F 0000:_fesetenv
          8B74241483C3488BFBA5A5A4A4833D........0074:
            0. 11 F3D4 003F 0000:_fesetenv
          BE........8D7B48A5A5A4A4FF7304FF5308:
            50E8:
              0. 00 0000 002D 0000:___threadstartex@4
            E8:
              0. 00 0000 002C 0000:___threadstart@4
      668B4424106683F8FF746B8B0D........85C975146683F861725B6683:
        0. 1C 098F 0082 0000:_towupper
      803D........000F85:
        DC000000C605........016AF5FF15........A3:
          0. 00 0000 00F0 0000:_disp_open
        DF000000C605........016AF5FF15........83:
          0. 03 6BE4 00F3 0000:_disp_open
      833D........00:
        74:
          0C813D................75095EB8010000005B59:
            0. 03 3BD2 0090 0000:_exit_popstate
          4FA1........31DB3958047E2368008000008B0D:
            0. 00 0000 005F 0000:__sbrk_freeall
        750AC705................813D:
          0. 05 3B9E 00A4 0000:_exit_PUSHSTATE
      894C24088B410885C074158B542410FF3250E8........83C40889C385:
        0. 1F A450 004B 0000:?do_open@_Messages_impl@std@@UBEHABV?$basic_string@std@DV?$char_traits@std@D@1@V?$allocator@std@D@1@@2@ABVlocale@2@@Z
      8A4424188B5C2414884424088D4C2408C6442409005153E8........8A:
        0. 10 F90D 003A (l)0000:STR_BRACKET
      8B:
        05........:
          85C08B7424108B5C2414742A8BCBC1E90874238BD6803E:
            0. 22 B205 004D 0000:__mbsset
          BE010000008B1D........85C0750CC705:
            0. 00 0000 0089 (l)0000:__sti_time
        15........8B4C2410895424088B742414890D........8B1D:
          0. 00 0000 0079 (l)0000:?set_nh@@YAP6AHI@ZP6AHI@ZH@Z
        1D........668B442414668B4C2410668944240866894C240A8B5424:
          0. 05 5CAD 0051 0000:_disp_move
        442410:
          50E8........83C404B9FFFFFFFF3BC1753568000100008B54:
            0. 04 946C 0057 0000:_creatnew
          8B5C24108B48048B5104837C1A180074138B4C2410E8:
            0. 00 0000 00EB 0000:??6@YAAAVostream@@AAV0@ABVcomplex@@@Z
        4C24108B5C241451E8........668B501489C66681C26C0766891366:
          0. 3D 38C8 005D 0000:___UnixToSystemTime
        5C24:
          10:
            53E8........83C4048B4B108DB1........F6066075168B54:
              0. 36 6A90 0065 0000:_fwide
            8B74241456E8........83C404:
              66833B007423668B0B5651E8:
                0. 00 0000 0054 0000:_fputws
              803B00741F560FBE0B51E8:
                0. 00 0000 004F 0000:_fputs
            E8........89C683C614:
              833D........00747885DB75068B1E:
                0. 0B 6D08 00A4 0000:__mbstok
              85DB75068B1E85DB74158B4C241451:
                0. 02 9E9D 0055 0000:_strtok
          1453E8........83C404F6430C32750D837C2410FF7406837B08:
            0. 24 F9C1 0053 0000:_ungetc
        7424:
          10:
            56E8........83C4048B4E108D99........F6036075168B54:
              0. 36 D145 0065 0000:_fwide
            57:
              31FF393D........75:
                2666393E8BDE747E6A:
                  01FF33E8:
                    0. 00 0000 00AB 0000:__wcslwr
                  02FF33E8:
                    0. 00 0000 00AB 0000:__wcsupr
                47803E008BDE0F848C000000B90100:
                  0. 04 8146 00BD 0000:_strlwr
                48803E008BDE0F848D000000B90100:
                  0. 04 8146 00BE 0000:_strupr
              56E8........89C731DB83C40457FF34DD........56E8:
                0. 00 0000 0072 (l)0000:_getlangcode (0023: 04)
                1. 00 0000 0044 (l)0000:_getcountrycode (0023: C3)
            83FEFF74:
              17FF74241468........E8........83C40889C385:
                0. 0B 466E 00B4 0000:__wfdopen (0082: 04)
                1. 0B 466E 00AE 0000:_fdopen (0082: C3)
              188B4C24145168........E8........83C40889C3:
                0. 0C ABFA 00B3 0000:__wfdopen (0080: 04)
                1. 0C ABFA 00AD 0000:_fdopen (0080: C3)
            8A44241C0FB65C24140FB64C24183BD97F0B89CA0844330143:
              0. 08 68B8 0028 (l)0000:_fillrange
            8B5E14578B4E1083F920746783F90A746283F909745D8B5608:
              0. 10 D68C 0084 (l)0000:_WCSTOMBS
          148B5C241068040100008B0E890B8B56088B4604895308894304:
            0. 39 529B 0099 (l)0000:_ConvertAsciiToWide
          185756E8........83C40489C383F8040F872F010000FF249D:
            0. 00 0000 0347 (l)0000:?_Init_monetary_formats@std@@YAXAAUpattern@money_base@1@0PAU_Locale_monetary@@@Z
          1CC644240800FF742414:
            8B4C2414E8........84C0756C8B4C24:
              0. 02 90F1 0091 0000:??$__copy_digits@std@V?$istreambuf_iterator@std@_YV?$char_traits@std@_Y@1@@1@_Y@std@@YA_NAAV?$istreambuf_iterator@std@_YV?$char_traits@std@_Y@1@@1@0AAV?$basic_string@std@DV?$char_traits@std@D@1@V?$allocator@std@D@1@@1@PB_Y@Z
            FF742414E8........83C40884C0746E:
              0. 05 C01D 0096 0000:??$__copy_digits@std@V?$istreambuf_iterator@std@_YV?$char_traits@std@_Y@1@@1@_Y@std@@YA_NAAV?$istreambuf_iterator@std@_YV?$char_traits@std@_Y@1@@1@0AAV?$basic_string@std@DV?$char_traits@std@D@1@V?$allocator@std@D@1@@1@PB_Y@Z
      8D44241C508D4C2418:
        51E8........83C40884C074758D4C2414E8:
          0. 00 0000 00B0 0000:??$mismatch@std@V?$istreambuf_iterator@std@_YV?$char_traits@std@_Y@1@@1@PA_Y@std@@YA?AU?$pair@std@V?$istreambuf_iterator@std@_YV?$char_traits@std@_Y@1@@1@PA_Y@1@V?$istreambuf_iterator@std@_YV?$char_traits@std@_Y@1@@1@0PA_Y@Z
        E8........84C075718D4C2414E8........8B54:
          0. 47 2FF6 00A8 0000:??$mismatch@std@V?$istreambuf_iterator@std@_YV?$char_traits@std@_Y@1@@1@PA_Y@std@@YA?AU?$pair@std@V?$istreambuf_iterator@std@_YV?$char_traits@std@_Y@1@@1@PA_Y@1@V?$istreambuf_iterator@std@_YV?$char_traits@std@_Y@1@@1@0PA_Y@Z
      B8010000003905........8A5C24107E1768070100000FBECB51E8:
        0. 00 0000 004E (l)0000:?isword@@YAHD@Z
      C644240800FF742414FF742414E8........83C40884C074668B4C2410:
        0. 01 3E9B 008A 0000:??$__copy_digits@std@V?$istreambuf_iterator@std@DV?$char_traits@std@D@1@@1@D@std@@YA_NAAV?$istreambuf_iterator@std@DV?$char_traits@std@D@1@@1@0AAV?$basic_string@std@DV?$char_traits@std@D@1@V?$allocator@std@D@1@@1@PBD@Z
      E8........:
        89C38B402085C0740950E8........83C40431D28B0D:
          0. 00 0000 0069 0000:__endthread
        8BB09802000085F67505E8........C706000000008B4618:
          0. 18 A9DA 0043 0000:?__eh_rethrow@@YAXXZ
      FF7424:
        10E8........89C3FF742418E8........83C40889C685DB7416:
          0. 07 4027 0049 (l)0000:?__match_name@@YAHPBD0@Z
        18FF742418FF7424188B4C24288B01FF50248D542420526A2E8B:
          0. 24 45A6 005E 0000:?__convert_float_buffer@std@@YAPA_YPBD0PA_YABV?$ctype@std@_Y@1@_Y@Z
    68........:
      E8........83C40489C3837C240C0075216A0053E8:
        0. 11 0546 006A 0000:__wsystem (REF 0008: __wgetenv)
        1. 11 0546 006A 0000:_system (REF 0008: _getenv)
      FF15........83C40489C3837C240C0075216A0053E8:
        0. 00 0000 006C 0000:__wsystem (REF 0009: __imp___wgetenv)
        1. 00 0000 006C 0000:_system (REF 0009: __imp__getenv)
    6A:
      00:
        68800000086A:
          026A006A006800000040FF742424FF15........89C3:
            0. 17 917A 0069 0000:_file_write
          046A006A006800000040FF742424FF15........89C3:
            0. 0E 901A 0076 0000:_file_append
        8D4424:
          088B4C24105051E8........83C4048B1D........508B5424:
            0. 05 1C19 003D 0000:_disp_puts
          1850E8........83C404508D4C241C8B54241851528B5C241C:
            0. 02 9E9D 002C 0000:__wspawnle (REF 000A: ___wseek_envp)
            1. 02 9E9D 002C 0000:_spawnle (REF 000A: ___seek_envp)
      018D44241850E8........83C404508D4C241C8B54241851528B5C241C:
        0. 02 9E9D 002C 0000:__wspawnlpe (REF 000A: ___wseek_envp)
        1. 02 9E9D 002C 0000:_spawnlpe (REF 000A: ___seek_envp)
      0CE8........83C40489C385C075058BC35B59C36A0C6A0053E8:
        0. 00 0000 0029 0000:__Locale_messages_create
    89CB:
      568079070074045E5B58C38B338B56083B560C7305668B12EB098B06:
        0. 2A ED1B 004A 0000:?_M_getc@?$istreambuf_iterator@std@_YV?$char_traits@std@_Y@1@@std@@ABEXXZ
        1. 33 F7A8 0053 0000:?_M_getc@?$istreambuf_iterator@std@_YV?$char_traits@std@_Y@1@@std@@ABEXXZ
      8D430C568B93:
        F0010000FF74242CFF74242C508954241452FFB3EC01:
          0. 13 D0DA 0087 0000:?do_get_time@?$time_get@std@DV?$istreambuf_iterator@std@DV?$char_traits@std@D@1@@1@@std@@MBE?AV?$istreambuf_iterator@std@DV?$char_traits@std@D@1@@2@V32@0AAVios_base@2@AAHPAUtm@@@Z (0053: 00) (REF 0033: ??$__get_formatted_time@std@V?$istreambuf_iterator@std@DV?$char_traits@std@D@1@@1@PBD@std@@YAPBDV?$istreambuf_iterator@std@DV?$char_traits@std@D@1@@1@0PBD1ABV_Time_Info@1@AAHPAUtm@@@Z)
          1. 13 D0DA 0087 0000:?do_get_time@?$time_get@std@_YV?$istreambuf_iterator@std@_YV?$char_traits@std@_Y@1@@1@@std@@MBE?AV?$istreambuf_iterator@std@_YV?$char_traits@std@_Y@1@@2@V32@0AAVios_base@2@AAHPAUtm@@@Z (0053: 00) (REF 0033: ??$__get_formatted_time@std@V?$istreambuf_iterator@std@_YV?$char_traits@std@_Y@1@@1@PBD@std@@YAPBDV?$istreambuf_iterator@std@_YV?$char_traits@std@_Y@1@@1@0PBD1ABV_Time_Info@1@AAHPAUtm@@@Z)
          2. 13 D0DA 008B 0000:?do_get_time@?$time_get@std@_YV?$istreambuf_iterator@std@_YV?$char_traits@std@_Y@1@@1@@std@@MBE?AV?$istreambuf_iterator@std@_YV?$char_traits@std@_Y@1@@2@V32@0AAVios_base@2@AAHPAUtm@@@Z (0053: 5B) (REF 0033: ??$__get_formatted_time@std@V?$istreambuf_iterator@std@_YV?$char_traits@std@_Y@1@@1@PBD@std@@YAPBDV?$istreambuf_iterator@std@_YV?$char_traits@std@_Y@1@@1@0PBD1ABV_Time_Info@1@AAHPAUtm@@@Z)
          3. 13 D0DA 008B 0000:?do_get_time@?$time_get@std@DV?$istreambuf_iterator@std@DV?$char_traits@std@D@1@@1@@std@@MBE?AV?$istreambuf_iterator@std@DV?$char_traits@std@D@1@@2@V32@0AAVios_base@2@AAHPAUtm@@@Z (0053: 5B) (REF 0033: ??$__get_formatted_time@std@V?$istreambuf_iterator@std@DV?$char_traits@std@D@1@@1@PBD@std@@YAPBDV?$istreambuf_iterator@std@DV?$char_traits@std@D@1@@1@0PBD1ABV_Time_Info@1@AAHPAUtm@@@Z)
        FC010000FF74242CFF74242C508954241452FFB3F801:
          0. 13 D0DA 0091 0000:?do_get_date@?$time_get@std@_YV?$istreambuf_iterator@std@_YV?$char_traits@std@_Y@1@@1@@std@@MBE?AV?$istreambuf_iterator@std@_YV?$char_traits@std@_Y@1@@2@V32@0AAVios_base@2@AAHPAUtm@@@Z (REF 0033: ??$__get_formatted_time@std@V?$istreambuf_iterator@std@_YV?$char_traits@std@_Y@1@@1@PBD@std@@YAPBDV?$istreambuf_iterator@std@_YV?$char_traits@std@_Y@1@@1@0PBD1ABV_Time_Info@1@AAHPAUtm@@@Z)
          1. 13 D0DA 0091 0000:?do_get_date@?$time_get@std@DV?$istreambuf_iterator@std@DV?$char_traits@std@D@1@@1@@std@@MBE?AV?$istreambuf_iterator@std@DV?$char_traits@std@D@1@@2@V32@0AAVios_base@2@AAHPAUtm@@@Z (REF 0033: ??$__get_formatted_time@std@V?$istreambuf_iterator@std@DV?$char_traits@std@D@1@@1@PBD@std@@YAPBDV?$istreambuf_iterator@std@DV?$char_traits@std@D@1@@1@0PBD1ABV_Time_Info@1@AAHPAUtm@@@Z)
    8B:
      05........:
        5657BB0100000085C075466A006A008B4C24208B54241C51:
          0. 03 7B48 006E (l)0000:_getstrinfo
        8B:
          54240C85C0742331C9380A743631DB8A1AF683:
            0. 1D E166 0051 0000:__mbslen
          5C24108B4C241485C074408BC3C1E8088944240474358B:
            0. 44 4D97 006E 0000:__mbsnbset
      1D........:
        56:
          8B35........81E31000000081E60600000085DB7509F6:
            0. 01 D5A7 0097 (l)0000:_find_tail (0072: 5E)
            1. 01 D5A7 0094 (l)0000:_find_tail (0072: C3)
          BE01000000833D........00750CC705:
            0. 00 0000 0087 (l)0000:__sti_time
        81E310000000568B35........81E60600000085DB750CF7:
          0. 01 D5A7 0099 (l)0000:_find_tail (0075: 5B)
          1. 01 D5A7 0097 (l)0000:_find_tail (0075: C3)
      44240C50E8........83C404:
        408944240450FF15........83C40489C3:
          0. 10 80CF 003C 0000:_strdup
        B9FFFFFFFF8844240425FF0000003BC174:
          0. 07 BC51 005C 0000:_getw
      5C24:
        0C:
          53E8........:
            53E8........668944240C53E8........83C40C:
              0. 08 71CA 0028 0000:_fgetwc
            6A006A0053E8........:
              80630CDF53E8:
                0. 06 9F6A 0026 0000:_rewind
              81630CDFFFFFFF53E8:
                0. 00 0000 0029 0000:_rewind
            83C40485C074:
              0F81C3A100000081FB7F83000072:
                0. 07 9994 0027 0000:__mbctokata
              1781FB93830000770F81FB7F8300:
                0. 0F 16E9 002F 0000:__mbctohira
            8B4424188B4C241450515368........E8:
              0. 00 0000 0035 0000:_vfwprintf (REF 0018: __fputwc_nlock)
              1. 00 0000 0035 0000:_vfprintf (REF 0018: __fputc_nlock)
            FF742418FF7424185368........E8........89:
              0. 05 740F 0033 0000:_vfwprintf (REF 0016: __fputwc_nlock)
              1. 05 740F 0033 0000:_vfprintf (REF 0016: __fputc_nlock)
          55:
            56:
              57FF74241CE8........83C40489C585C074388BCD01C98B:
                0. 0C 4366 006B 0000:_wcsstr
              8B74241857C744241000000000833D........007568668B:
                0. 69 DC4A 00D3 0000:__wcsicmp
              8D73F08D5608578B7C241C3BD373054239DA72FB8D6F1889:
                0. 32 82A7 0066 0000:?deallocate@?$__debug_alloc@std@V?$__node_alloc@std@$0@$0@@1@@std@@SAXPAXI@Z (REF 0059: ?deallocate@?$__node_alloc@std@$0@$0@@std@@SAXPAXI@Z)
                1. 32 82A7 0066 0000:?deallocate@?$__debug_alloc@std@V?$__node_alloc@std@$00$0@@1@@std@@SAXPAXI@Z (REF 0059: ?deallocate@?$__node_alloc@std@$00$0@@std@@SAXPAXI@Z)
            8B6C24145657:
              833D........000F849400000031FF8BD5807D:
                0. 09 BA2A 00CB 0000:__mbsspnp (0094: 74)
                1. 09 BA2A 00BE 0000:__mbspbrk (0094: C3)
              8B7C24240FAF6C242057E8........83C4048B:
                0. 1F 9E31 0127 0000:_fwrite
          56:
            31F685DB570F84ED000000803B000F84E4000000B901000000:
              0. 02 18B5 0108 (l)0000:GMT_OFFSET
            53E8........83C4048B4B108DB1........F6066075168B54:
              0. 36 1191 0065 0000:_fwide
            57807B370075158BCBE8........84C075395FB8FFFFFFFF5E:
              0. 35 9890 005E 0000:?_M_doit@?$_Underflow@std@_YV?$char_traits@std@_Y@1@@std@@SA_YPAV?$basic_filebuf@std@_YV?$char_traits@std@_Y@1@@2@@Z
            8B:
              7314578B4B1083F920746783F90A746283F909745D8B5308:
                0. 10 E496 0084 (l)0000:_WCSTOMBS
              742414:
                3BF3:
                  74128BD62BD35253FF742424E8........83C4:
                    0. 09 1BC9 0029 0000:?do_narrow@?$ctype@std@D@std@@MBEPBDPBD0DPAD@Z
                  75068B442418EB188BCE2BCB5153FF742420E8:
                    0. 00 0000 0031 (!)0000:?
                56E8........83C404:
                  66833B00742156FF33E8:
                    0. 00 0000 0052 0000:_fputws
                  803B00741F560FBE0B51E8:
                    0. 00 0000 004F 0000:_fputs
                85F6741F8BC6B90A00000031D2F7F14B89C6895424:
                  0. 14 C995 0034 0000:??$__write_decimal_backward@std@K@std@@YAPADPADKHABU__false_type@1@@Z
                8B0E890B8B56088B46048943048953088B56108B46:
                  0. 39 403C 0099 (l)0000:_ConvertAsciiToWide
            BE010000005785DB75014353E8........83C40489C785C075:
              0. 03 DA7F 0062 0000:?__do_newalloc@@YAPAXI@Z
            C70300000000C7430400000000C7430800000000C7430C0000:
              0. 04 749A 009B 0000:?log10@std@@YA?AU?$complex@std@N@1@ABU21@@Z (0076: C3)
              1. 04 749A 00A0 0000:?log10@std@@YA?AU?$complex@std@N@1@ABU21@@Z (0076: C4)
              2. 16 D341 006B 0000:?log@std@@YA?AU?$complex@std@N@1@ABU21@@Z
            D9EEDB3BD9EEDB7B0A:
              803D........0075:
                236800002440FE05:
                  0. 00 0000 0099 0000:?log10@std@@YA?AU?$complex@std@_Z@1@ABU21@@Z
                28FF35........FE:
                  0. 01 D5A7 009E 0000:?log10@std@@YA?AU?$complex@std@_Z@1@ABU21@@Z
              8B4424148B4C2414DB2883EC08DD1C24:
                0. 0A 39E1 0065 0000:?log@std@@YA?AU?$complex@std@_Z@1@ABU21@@Z
            E8........89C683C614:
              833D........00747585DB75068B1E:
                0. 0A 861E 00A0 0000:__mbstok
              85DB75068B1E85DB7414FF74241453:
                0. 01 3E9B 0053 0000:_strtok
          68........E8........83C404:
            66833B00742568........FF33:
              0. 01 3E9B 0070 0000:__putws
            803B00742368........0FBE03:
              0. 02 F6B7 0068 0000:_puts
          833D........0174446A006A006AFF53FF35........FF35:
            0. 00 0000 0070 0000:__mbstrlen
          85DB:
            5657:
              0F84930000008B430C3D........740950E8:
                0. 08 549D 00A8 (l)0000:_freelocaleconv
              75075F31C05E5B59C3E8........:
                05980000008B4B14:
                  0. 14 89CE 0069 0000:__wasctime
                83C0528B4B148944:
                  0. 0F 2CED 0061 0000:_asctime
            74:
              0B53E8........89C383C4048BC35B59C20400:
                0. 00 0000 001C (l)0000:STR_DUP
              13FF15........890331C0884304884305884306E8:
                0. 00 0000 0027 0000:_dos_exterr
              198B431485C0740950E8........83C40453E8:
                0. 06 3EA9 0026 0000:__Locale_numeric_destroy
              2053E8........83C40485C074135368........68:
                0. 00 0000 004F 0000:__wperror (REF 000C: _wcslen)
                1. 00 0000 004F 0000:_perror (REF 000C: _strlen)
              2453E8........83C40485C074175368........E8:
                0. 00 0000 0058 0000:_perror
              2553FF15........83C40485C074175368........E8:
                0. 00 0000 0059 0000:__wperror
          8A03565784C00F84830000003C2B743A3C2D74363C3A7432B901:
            0. 05 2875 0150 (l)0000:NEXT_NUMBER
          8B:
            0B568B7424148D5304890E52E8........8D4B0C89460451E8:
              0. 00 0000 004D (l)0000:_finddata_to_finddata_t
            430C56A98000000057740D25FDFFFFFF0D0100000089430C8A:
              0. 3F C7E0 00FB 0000:__fillbuf
              1. 31 F73D 00EC (l)0000:__1fillbuf
            542410895C24048BCA803B0074:
              16803A0074098A023A03740B:
                0. 14 C780 0034 0000:_strcspn
              1B803A0074168A023A037408:
                0. 19 C075 0039 0000:_strspn
          C70300000000C7430400000000C7430800000000C7430C000000:
            0. 14 BECC 0040 0000:??$?Kstd@N@std@@YA?AU?$complex@std@N@1@ABNABU21@@Z
          D9EEDB3BD9EEDB7B0A8D430A8B4C2414508D510A535251FF7424:
            0. 02 3247 002E 0000:??$?Kstd@_Z@std@@YA?AU?$complex@std@_Z@1@AB_ZABU21@@Z
          E8........83C02050E8........83C404:
            66833B00742BE8:
              0. 00 0000 0082 0000:__putws
            803B007427E8:
              0. 00 0000 0078 0000:_puts
          F6430C0874158B430885C0740E50FF15........80630CF783C4:
            0. 13 9EBE 0033 0000:_FREEBUF
          F7430C0800000074178B430885C0741050E8........81630CF7:
            0. 18 B2B5 0038 0000:_FREEBUF
        10:
          56:
            6A0053E8........83C4083BC374128B4C24108B118B338931:
              0. 0C 7549 002C 0000:?__splice_after@?$_Sl_global@std@_N@std@@SAXPAU_Slist_node_base@2@0@Z
            8A4424188D4C240888442408C6442409005153E8........8A:
              0. 10 F90D 003A (l)0000:STR_BRACKET
            8B7424:
              10833D........00742A8BCBC1E9087423803E008BD6:
                0. 21 EA64 004C 0000:__mbsset
              182BF3:
                577E:
                  2D8A0B807C2424007411518B4C2424E8:
                    0. 00 0000 0055 0000:??$__copy@std@PADV?$ostreambuf_iterator@std@DV?$char_traits@std@D@1@@1@H@std@@YA?AV?$ostreambuf_iterator@std@DV?$char_traits@std@D@1@@1@PAD0V21@ABUrandom_access_iterator_tag@1@PAH@Z
                  348A0B884C240C807C2424007414FF7424:
                    0. 06 0EC5 005C 0000:??$__copy@std@PBDV?$ostreambuf_iterator@std@DV?$char_traits@std@D@1@@1@H@std@@YA?AV?$ostreambuf_iterator@std@DV?$char_traits@std@D@1@@1@PBD0V21@ABUrandom_access_iterator_tag@1@PAH@Z
                7E11FF338B4C2420E8........434E85F67FEF:
                  0. 10 B5E1 0030 0000:??$__copy@std@PBDV?$back_insert_iterator@std@V?$basic_string@std@DV?$char_traits@std@D@1@V?$allocator@std@D@1@@1@@1@H@std@@YA?AV?$back_insert_iterator@std@V?$basic_string@std@DV?$char_traits@std@D@1@V?$allocator@std@D@1@@1@@1@PBD0V21@ABUrandom_access_iterator_tag@1@PAH@Z
            FF742410E8........668B48146681C16C0766890B89C6668B:
              0. 3C 9231 005C 0000:___UnixToSystemTime
          85DB568B742410578B7C241C75075F31C05E5B59C383FF027C05:
            0. B7 E43C 00D7 0000:__itow
          8B4B08558B6C241049568B731457894B0841745A817B10FFFF00:
            0. 0C 5B3C 0081 (l)0000:_WCTOMB
        14:
          53E8........83C404:
            F6430C83740953E8........83C4048B44:
              0. 0A 109A 0042 0000:__wfreopen (REF 002A: __WFOPEN)
              1. 0A 109A 0042 0000:_freopen (REF 002A: __FOPEN)
            F7430C83000000740953E8........83C4:
              0. 0B F3FD 0043 0000:__wfreopen (REF 002B: __WFOPEN)
              1. 0B F3FD 0043 0000:_freopen (REF 002B: __FOPEN)
          558B6C2414568B74241485F6578B7C2424741B85FF741785DB8D:
            0. 1A 13F8 003A 0000:?__vec_invariant@@YAXPAXIHP6CHXZ@Z
          5657833D........000F84CE0000008B4C241831F6C1E908884C:
            0. 2D E189 00F9 0000:__mbsnset
        185556578B7C241853E8........83C4048B6C241C0FAF6C242085:
          0. 23 CB2C 0156 0000:_fread
    8D4424188B4C241450518B5424188B5C24145253E8........83C4105B59:
      0. 01 EF04 0021 0000:__snwprintf (REF 0017: __vsnwprintf)
      1. 01 EF04 0021 0000:__snprintf (REF 0017: _vsnprintf)
    B8676666668B4C240C8B5C2410F7E9C1FA0289C8C1F81F2BD06BC20A2BC8:
      0. 1E 152F 003E (l)0000:DECPUT
      1. 1B 736B 003B (l)0000:DECPUT
    BB:
      010000005657833D........0075416A006A00FF742420FF742420FF15:
        0. 00 0000 0068 (l)0000:_getstrinfo
      ........:
        53E8........83C404F7430C830000007526FF74240CFF7424:
          0. 07 0FEF 005F 0000:__wfsopen (REF 0027: __WSOPENF)
          1. 07 0FEF 005F 0000:__fsopen (REF 0027: __SOPENF)
        5631F653E8........83C404:
          837B1C00740A53E8........46:
            0. 05 63E0 003D 0000:__rmtmp
          F7430C83000000740A53E8:
            0. 00 0000 0040 0000:_flushall (REF 001E: _fflush)
            1. 00 0000 0040 0000:_fcloseall (REF 001E: _fclose)
    C705........01000000833D........00752D833D........007424A1:
      0. 00 0000 009A 0000:_exit
    DB6C241083EC08DD1C24E8........89C383C40883EB0183FB030F87:
      9700:
        0. 05 BB02 00DE (l)0000:__sincos@16
      9A00:
        0. 05 BB02 00E2 (l)0000:__sincos@16
      9C00:
        0. 05 BB02 00E3 (l)0000:__sincos@16
      9F00:
        0. 05 BB02 00E7 (l)0000:__sincos@16
    E8........:
      89C3E8........05800700003BC3765253E8........83C404:
        0. 17 5993 0075 0000:__wfsopen (REF 0037: __WSOPENF)
        1. 17 5993 0075 0000:__fsopen (REF 0037: __SOPENF)
      8B5C240C660958485B58C20400:
        0. 00 0000 0014 0000:__FEEXCEPT
    FF:
      15........:
        89442404A9000000807407807C240404720431C0EB05B801:
          0. 1A AE50 0099 0000:__CRT_INIT@12
        A900000080894424047407807C240404720431C0EB05B801:
          0. 1A 6A78 00B8 0000:__CRT_INIT@12
      74240CE8........83C404:
        408944240450E8........83C40489C385C0:
          0. 0C 8B39 0038 0000:_strdup
        B9FFFFFFFF8844240425FF0000003BC17430:
          0. 05 38B0 0058 0000:_getw
  66:
    8B:
      442408:
        535657663B442420750A5FB8FFFFFFFF5E5B59C38D4C24148B54:
          0. 09 3CE4 009C 0000:?__get_digit@std@@YAH_YPB_Y0_Y@Z
        6683F8:
          0176:
            3E6683F8207738668944240825FFFF00006A0268:
              0. 00 0000 004C 0000:_tab_sizeputenv
            406683F820773A66894424086A0268........25FF:
              0. 05 9C82 004E 0000:_tab_sizeputenv
          FF53567469833D........0075146683F8:
            41725A6683F8:
              0. 1B 93A8 0080 0000:_towlower
            61725A6683F8:
              0. 1B 135E 0080 0000:_towupper
      4C24:
        08:
          50668B44241053668944240866894C240AFF742408FF35:
            0. 00 0000 0051 0000:_disp_move
          8B44240C5051E8........83C40859C3:
            0. 00 0000 0016 0000:_putwc
        10538B5C2418565781E1FF7F0000746381F9FF7F0000753E8B5424:
          0. B2 2E0F 00D2 0000:_frexpl
      54241053565781E2FF7F0000747881FAFF7F0000754D8B5424188B4424:
        0. CB BE6B 00EB 0000:_frexpl
    A1........:
      25FFFF000050E8........83C40458C3:
        0. 00 0000 0017 0000:_disp_endstand
      347725FFFF000050E8........83C40458C3:
        0. 00 0000 0019 0000:_disp_startstand
      357700000025FFFF000050E8........83C40458C3:
        0. 00 0000 001C 0000:_disp_startstand
  68:
    004000008B442410:
      83F80119C981E1040000005150FF742414E8:
        0. 05 EE7D 0025 0000:_setbuf
      8B54240C83F80119C981E104000000515052E8:
        0. 00 0000 0026 0000:_setbuf
    03010000:
      668B44240C50E8........83C40859C3:
        0. 00 0000 0016 0000:_iswalpha
      FF74240CE8........83C40859C3:
        0. 00 0000 0014 0000:_iswalpha
    07010000:
      668B44240C50E8........83C40859C3:
        0. 00 0000 0016 0000:_iswalnum
      FF74240CE8........83C40859C3:
        0. 00 0000 0014 0000:_iswalnum
    17010000:
      668B44240C50E8........83C40859C3:
        0. 00 0000 0016 0000:_iswgraph
      FF74240CE8........83C40859C3:
        0. 00 0000 0014 0000:_iswgraph
    57010000:
      668B44240C50E8........83C40859C3:
        0. 00 0000 0016 0000:_iswprint
      FF74240CE8........83C40859C3:
        0. 00 0000 0014 0000:_iswprint
    80000000:
      668B44240C50E8........83C40859C3:
        0. 00 0000 0016 0000:_iswxdigit
      FF74240CE8........83C40859C3:
        0. 00 0000 0014 0000:_iswxdigit
    FF:
      3F000068000000806A00:
        DD44241483EC0CDB3C24E8........83C41859:
          0. 01 EF04 0021 0000:_atan
        FF74241CFF74241CFF74241CE8........83C4:
          0. 03 E375 0023 0000:_atanl
      FFEF4768000000E0E8........68FFFFEF7FD91D........6AFFE8:
        0. 00 0000 003F 0000:___SI?%complex_trig_cpp3004608791_
    ........:
      A1........50:
        6A00E8........83C40C85C0740759B801000000:
          0. 03 B390 0041 (l)0000:_get_another
        FF15........85C0740759B801000000C38B0D:
          0. 00 0000 003D (l)0000:_get_another
      E8........83C404:
        58C3:
          0. 00 0000 0010 0000:___SI?%___heap32_multpool_cpp1525433864_ (REF 0002: ___SD?%___heap32_multpool_cpp1525433864_)
          1. 00 0000 0010 0000:___SI?%___heap32_multpool_cpp4106907224_ (REF 0002: ___SD?%___heap32_multpool_cpp4106907224_)
          2. 00 0000 0010 0000:___SI?%locale_catalog_cpp3056921815_ (REF 0002: ___SD?%locale_catalog_cpp3056921815_)
          3. 00 0000 0010 0000:___SI?%locale_catalog_cpp3098213161_ (REF 0002: ___SD?%locale_catalog_cpp3098213161_)
          4. 00 0000 0010 0000:?_M_throw_out_of_range@?$_String_base@std@_YV?$allocator@std@_Y@1@@std@@QBEXXZ (REF 0007: ?__stl_throw_out_of_range@std@@YAXPBD@Z)
          5. 00 0000 0010 (!)0000:? (REF 0007: ?__stl_throw_length_error@std@@YAXPBD@Z)
          6. 00 0000 0010 0000:__purecall (REF 0007: ___faterr)
        59C3:
          0. 00 0000 0010 (!)0000:?
      FF:
        15........58C3:
          0. 00 0000 000E 0000:__STD_critical (REF 0008: __imp__DeleteCriticalSection@4)
          1. 00 0000 000E 0000:__rtl_critical_enter (REF 0008: __imp__EnterCriticalSection@4)
          2. 00 0000 000E 0000:__rtl_critical_exit (REF 0008: __imp__LeaveCriticalSection@4)
          3. 00 0000 000E 0000:__STI_critical (REF 0008: __imp__InitializeCriticalSection@4)
        35........:
          6A00E8........83C40C85C0740759B801000000:
            0. 03 DCBA 0040 (l)0000:_get_another
          FF15........85C0740759B801000000C3FF35:
            0. 00 0000 003C (l)0000:_get_another
        74240CE8........83C40859C3:
          0. 00 0000 0014 0000:_fputwchar
  6A:
    00:
      68........FF15........58C3:
        0. 00 0000 0010 0000:_controlc_close
      6A:
        00:
          8B4424148B4C241050516A02E8........83C41459C3:
            0. 00 0000 001B 0000:__wexecv (REF 0012: ___wspawn)
            1. 00 0000 001B 0000:_execv (REF 0012: ___spawn)
          8D442414:
            50FF7424146A02E8........83C41459C3:
              0. 00 0000 001A 0000:__wexecl (REF 0011: ___wspawn)
              1. 00 0000 001A 0000:_execl (REF 0011: ___spawn)
            8B4C241050516A02E8........83C41459C3:
              0. 00 0000 001B 0000:__wexecl (REF 0012: ___wspawn)
              1. 00 0000 001B 0000:_execl (REF 0012: ___spawn)
          FF742414:
            8B442414FF3485........FF15........3B44240C7515:
              0. 07 4FAF 0045 0000:_chsize
            FF7424146A02E8........83C41459C3:
              0. 00 0000 0019 0000:__wexecv (REF 0010: ___wspawn)
              1. 00 0000 0019 0000:_execv (REF 0010: ___spawn)
        02E8........6A006A15E8........83C41058C3:
          0. 00 0000 0018 0000:__STD_signal
      8B442410:
        8B54240C8B085152E8........83C40C59C3:
          0. 00 0000 0019 0000:_fsetpos
        FF30FF742410E8........83C40C59C3:
          0. 00 0000 0017 0000:_fsetpos
      8D4424:
        0450FF7424:
          18FF742418FF742418E8........83C41459C3:
            0. 00 0000 001E 0000:??$__copy_ptrs@std@PBDPA_Y@std@@YAPA_YPBD0PA_YABU__false_type@1@@Z (REF 0015: ??$__copy@std@PBDPA_YH@std@@YAPA_YPBD0PA_YABUrandom_access_iterator_tag@1@PAH@Z)
            1. 00 0000 001E 0000:??$__copy_ptrs@std@PADPA_Y@std@@YAPA_YPAD0PA_YABU__false_type@1@@Z (REF 0015: ??$__copy@std@PADPA_YH@std@@YAPA_YPAD0PA_YABUrandom_access_iterator_tag@1@PAH@Z)
            2. 00 0000 001E 0000:??$__copy_ptrs@std@PBU?$pair@std@P6AXW4event@ios_base@1@AAV31@H@ZH@1@PAU21@@std@@YAPAU?$pair@std@P6AXW4event@ios_base@1@AAV31@H@ZH@1@PBU21@0PAU21@ABU__false_type@1@@Z (REF 0015: ??$__copy@std@PBU?$pair@std@P6AXW4event@ios_base@1@AAV31@H@ZH@1@PAU21@H@std@@YAPAU?$pair@std@P6AXW4event@ios_base@1@AAV31@H@ZH@1@PBU21@0PAU21@ABUrandom_access_iterator_tag@1@PAH@Z)
            3. 00 0000 001E 0000:??$__copy_ptrs@std@PB_YPAD@std@@YAPADPB_Y0PADABU__false_type@1@@Z (REF 0015: ??$__copy@std@PB_YPADH@std@@YAPADPB_Y0PADABUrandom_access_iterator_tag@1@PAH@Z)
          20FF742420FF742420FF742420FF742420E8:
            0. 00 0000 0026 0000:??$__copy_aux@std@PADV?$ostreambuf_iterator@std@DV?$char_traits@std@D@1@@1@@std@@YA?AV?$ostreambuf_iterator@std@DV?$char_traits@std@D@1@@1@PAD0V21@ABU__false_type@1@@Z (REF 001D: ??$__copy@std@PADV?$ostreambuf_iterator@std@DV?$char_traits@std@D@1@@1@H@std@@YA?AV?$ostreambuf_iterator@std@DV?$char_traits@std@D@1@@1@PAD0V21@ABUrandom_access_iterator_tag@1@PAH@Z)
            1. 00 0000 0026 0000:??$__copy_aux@std@PA_YV?$ostreambuf_iterator@std@_YV?$char_traits@std@_Y@1@@1@@std@@YA?AV?$ostreambuf_iterator@std@_YV?$char_traits@std@_Y@1@@1@PA_Y0V21@ABU__false_type@1@@Z (REF 001D: ??$__copy@std@PA_YV?$ostreambuf_iterator@std@_YV?$char_traits@std@_Y@1@@1@H@std@@YA?AV?$ostreambuf_iterator@std@_YV?$char_traits@std@_Y@1@@1@PA_Y0V21@ABUrandom_access_iterator_tag@1@PAH@Z)
            2. 00 0000 0026 0000:??$__copy_aux@std@PB_YV?$ostreambuf_iterator@std@_YV?$char_traits@std@_Y@1@@1@@std@@YA?AV?$ostreambuf_iterator@std@_YV?$char_traits@std@_Y@1@@1@PB_Y0V21@ABU__false_type@1@@Z (REF 001D: ??$__copy@std@PB_YV?$ostreambuf_iterator@std@_YV?$char_traits@std@_Y@1@@1@H@std@@YA?AV?$ostreambuf_iterator@std@_YV?$char_traits@std@_Y@1@@1@PB_Y0V21@ABUrandom_access_iterator_tag@1@PAH@Z)
            3. 00 0000 0026 0000:??$__copy_aux@std@PBDV?$ostreambuf_iterator@std@DV?$char_traits@std@D@1@@1@@std@@YA?AV?$ostreambuf_iterator@std@DV?$char_traits@std@D@1@@1@PBD0V21@ABU__false_type@1@@Z (REF 001D: ??$__copy@std@PBDV?$ostreambuf_iterator@std@DV?$char_traits@std@D@1@@1@H@std@@YA?AV?$ostreambuf_iterator@std@DV?$char_traits@std@D@1@@1@PBD0V21@ABUrandom_access_iterator_tag@1@PAH@Z)
        1050E8........83C404508D4C2414:
          51FF7424146A02E8:
            0. 00 0000 0026 0000:__wexecle (REF 0009: ___wseek_envp)
            1. 00 0000 0026 0000:_execle (REF 0009: ___seek_envp)
          8B54241051526A02E8:
            0. 00 0000 0027 0000:__wexecle (REF 0009: ___wseek_envp)
            1. 00 0000 0027 0000:_execle (REF 0009: ___seek_envp)
      E8........A3........83C40458C3:
        0. 00 0000 0012 0000:_randomize
      FF:
        15........59C3:
          0. 00 0000 000B 0000:_coreleft (REF 0005: __imp__GlobalCompact@4)
        35........FF7424148B4C2414E8........59C3:
          0. 00 0000 0018 0000:??$_Locale_insert@std@V?$ctype@std@D@1@@std@@YAPAVfacet@locale@1@PAV_Locale@1@PAV?$ctype@std@D@1@@Z (REF 0005: ?id@?$ctype@std@D@std@@2V0locale@2@A)
          1. 00 0000 0018 0000:??$_Locale_insert@std@V?$codecvt@std@DDU__stl_mbstate_t@@@1@@std@@YAPAVfacet@locale@1@PAV_Locale@1@PAV?$codecvt@std@DDU__stl_mbstate_t@@@1@@Z (REF 0005: ?id@?$codecvt@std@DDU__stl_mbstate_t@@@std@@2V0locale@2@A)
          2. 00 0000 0018 0000:??$_Locale_insert@std@V?$ctype@std@_Y@1@@std@@YAPAVfacet@locale@1@PAV_Locale@1@PAV?$ctype@std@_Y@1@@Z (REF 0005: ?id@?$ctype@std@_Y@std@@2V0locale@2@A)
          3. 00 0000 0018 0000:??$_Locale_insert@std@V?$codecvt@std@_YDU__stl_mbstate_t@@@1@@std@@YAPAVfacet@locale@1@PAV_Locale@1@PAV?$codecvt@std@_YDU__stl_mbstate_t@@@1@@Z (REF 0005: ?id@?$codecvt@std@_YDU__stl_mbstate_t@@@std@@2V0locale@2@A)
          4. 00 0000 0018 0000:??$_Locale_insert@std@V?$numpunct@std@D@1@@std@@YAPAVfacet@locale@1@PAV_Locale@1@PAV?$numpunct@std@D@1@@Z (REF 0005: ?id@?$numpunct@std@D@std@@2V0locale@2@A)
          5. 00 0000 0018 0000:??$_Locale_insert@std@V?$num_get@std@DV?$istreambuf_iterator@std@DV?$char_traits@std@D@1@@1@@1@@std@@YAPAVfacet@locale@1@PAV_Locale@1@PAV?$num_get@std@DV?$istreambuf_iterator@std@DV?$char_traits@std@D@1@@1@@1@@Z (REF 0005: ?id@?$num_get@std@DV?$istreambuf_iterator@std@DV?$char_traits@std@D@1@@1@@std@@2V0locale@2@A)
          6. 00 0000 0018 0000:??$_Locale_insert@std@V?$num_put@std@DV?$ostreambuf_iterator@std@DV?$char_traits@std@D@1@@1@@1@@std@@YAPAVfacet@locale@1@PAV_Locale@1@PAV?$num_put@std@DV?$ostreambuf_iterator@std@DV?$char_traits@std@D@1@@1@@1@@Z (REF 0005: ?id@?$num_put@std@DV?$ostreambuf_iterator@std@DV?$char_traits@std@D@1@@1@@std@@2V0locale@2@A)
          7. 00 0000 0018 0000:??$_Locale_insert@std@V?$numpunct@std@_Y@1@@std@@YAPAVfacet@locale@1@PAV_Locale@1@PAV?$numpunct@std@_Y@1@@Z (REF 0005: ?id@?$numpunct@std@_Y@std@@2V0locale@2@A)
          8. 00 0000 0018 0000:??$_Locale_insert@std@V?$num_get@std@_YV?$istreambuf_iterator@std@_YV?$char_traits@std@_Y@1@@1@@1@@std@@YAPAVfacet@locale@1@PAV_Locale@1@PAV?$num_get@std@_YV?$istreambuf_iterator@std@_YV?$char_traits@std@_Y@1@@1@@1@@Z (REF 0005: ?id@?$num_get@std@_YV?$istreambuf_iterator@std@_YV?$char_traits@std@_Y@1@@1@@std@@2V0locale@2@A)
          9. 00 0000 0018 0000:??$_Locale_insert@std@V?$num_put@std@_YV?$ostreambuf_iterator@std@_YV?$char_traits@std@_Y@1@@1@@1@@std@@YAPAVfacet@locale@1@PAV_Locale@1@PAV?$num_put@std@_YV?$ostreambuf_iterator@std@_YV?$char_traits@std@_Y@1@@1@@1@@Z (REF 0005: ?id@?$num_put@std@_YV?$ostreambuf_iterator@std@_YV?$char_traits@std@_Y@1@@1@@std@@2V0locale@2@A)
          10. 00 0000 0018 0000:??$_Locale_insert@std@V?$time_get@std@DV?$istreambuf_iterator@std@DV?$char_traits@std@D@1@@1@@1@@std@@YAPAVfacet@locale@1@PAV_Locale@1@PAV?$time_get@std@DV?$istreambuf_iterator@std@DV?$char_traits@std@D@1@@1@@1@@Z (REF 0005: ?id@?$time_get@std@DV?$istreambuf_iterator@std@DV?$char_traits@std@D@1@@1@@std@@2V0locale@2@A)
          11. 00 0000 0018 0000:??$_Locale_insert@std@V?$time_put@std@DV?$ostreambuf_iterator@std@DV?$char_traits@std@D@1@@1@@1@@std@@YAPAVfacet@locale@1@PAV_Locale@1@PAV?$time_put@std@DV?$ostreambuf_iterator@std@DV?$char_traits@std@D@1@@1@@1@@Z (REF 0005: ?id@?$time_put@std@DV?$ostreambuf_iterator@std@DV?$char_traits@std@D@1@@1@@std@@2V0locale@2@A)
          12. 00 0000 0018 0000:??$_Locale_insert@std@V?$time_get@std@_YV?$istreambuf_iterator@std@_YV?$char_traits@std@_Y@1@@1@@1@@std@@YAPAVfacet@locale@1@PAV_Locale@1@PAV?$time_get@std@_YV?$istreambuf_iterator@std@_YV?$char_traits@std@_Y@1@@1@@1@@Z (REF 0005: ?id@?$time_get@std@_YV?$istreambuf_iterator@std@_YV?$char_traits@std@_Y@1@@1@@std@@2V0locale@2@A)
          13. 00 0000 0018 0000:??$_Locale_insert@std@V?$time_put@std@_YV?$ostreambuf_iterator@std@_YV?$char_traits@std@_Y@1@@1@@1@@std@@YAPAVfacet@locale@1@PAV_Locale@1@PAV?$time_put@std@_YV?$ostreambuf_iterator@std@_YV?$char_traits@std@_Y@1@@1@@1@@Z (REF 0005: ?id@?$time_put@std@_YV?$ostreambuf_iterator@std@_YV?$char_traits@std@_Y@1@@1@@std@@2V0locale@2@A)
          14. 00 0000 0018 0000:??$_Locale_insert@std@V?$collate@std@D@1@@std@@YAPAVfacet@locale@1@PAV_Locale@1@PAV?$collate@std@D@1@@Z (REF 0005: ?id@?$collate@std@D@std@@2V0locale@2@A)
          15. 00 0000 0018 0000:??$_Locale_insert@std@V?$collate@std@_Y@1@@std@@YAPAVfacet@locale@1@PAV_Locale@1@PAV?$collate@std@_Y@1@@Z (REF 0005: ?id@?$collate@std@_Y@std@@2V0locale@2@A)
          16. 00 0000 0018 0000:??$_Locale_insert@std@V?$moneypunct@std@D$0@@1@@std@@YAPAVfacet@locale@1@PAV_Locale@1@PAV?$moneypunct@std@D$0@@1@@Z (REF 0005: ?id@?$moneypunct@std@D$0@@std@@2V0locale@2@A)
          17. 00 0000 0018 0000:??$_Locale_insert@std@V?$moneypunct@std@D$00@1@@std@@YAPAVfacet@locale@1@PAV_Locale@1@PAV?$moneypunct@std@D$00@1@@Z (REF 0005: ?id@?$moneypunct@std@D$00@std@@2V0locale@2@A)
          18. 00 0000 0018 0000:??$_Locale_insert@std@V?$money_get@std@DV?$istreambuf_iterator@std@DV?$char_traits@std@D@1@@1@@1@@std@@YAPAVfacet@locale@1@PAV_Locale@1@PAV?$money_get@std@DV?$istreambuf_iterator@std@DV?$char_traits@std@D@1@@1@@1@@Z (REF 0005: ?id@?$money_get@std@DV?$istreambuf_iterator@std@DV?$char_traits@std@D@1@@1@@std@@2V0locale@2@A)
          19. 00 0000 0018 0000:??$_Locale_insert@std@V?$money_put@std@DV?$ostreambuf_iterator@std@DV?$char_traits@std@D@1@@1@@1@@std@@YAPAVfacet@locale@1@PAV_Locale@1@PAV?$money_put@std@DV?$ostreambuf_iterator@std@DV?$char_traits@std@D@1@@1@@1@@Z (REF 0005: ?id@?$money_put@std@DV?$ostreambuf_iterator@std@DV?$char_traits@std@D@1@@1@@std@@2V0locale@2@A)
          20. 00 0000 0018 0000:??$_Locale_insert@std@V?$money_get@std@_YV?$istreambuf_iterator@std@_YV?$char_traits@std@_Y@1@@1@@1@@std@@YAPAVfacet@locale@1@PAV_Locale@1@PAV?$money_get@std@_YV?$istreambuf_iterator@std@_YV?$char_traits@std@_Y@1@@1@@1@@Z (REF 0005: ?id@?$money_get@std@_YV?$istreambuf_iterator@std@_YV?$char_traits@std@_Y@1@@1@@std@@2V0locale@2@A)
          21. 00 0000 0018 0000:??$_Locale_insert@std@V?$moneypunct@std@_Y$0@@1@@std@@YAPAVfacet@locale@1@PAV_Locale@1@PAV?$moneypunct@std@_Y$0@@1@@Z (REF 0005: ?id@?$moneypunct@std@_Y$0@@std@@2V0locale@2@A)
          22. 00 0000 0018 0000:??$_Locale_insert@std@V?$moneypunct@std@_Y$00@1@@std@@YAPAVfacet@locale@1@PAV_Locale@1@PAV?$moneypunct@std@_Y$00@1@@Z (REF 0005: ?id@?$moneypunct@std@_Y$00@std@@2V0locale@2@A)
          23. 00 0000 0018 0000:??$_Locale_insert@std@V?$money_put@std@_YV?$ostreambuf_iterator@std@_YV?$char_traits@std@_Y@1@@1@@1@@std@@YAPAVfacet@locale@1@PAV_Locale@1@PAV?$money_put@std@_YV?$ostreambuf_iterator@std@_YV?$char_traits@std@_Y@1@@1@@1@@Z (REF 0005: ?id@?$money_put@std@_YV?$ostreambuf_iterator@std@_YV?$char_traits@std@_Y@1@@1@@std@@2V0locale@2@A)
          24. 00 0000 0018 0000:??$_Locale_insert@std@V?$messages@std@D@1@@std@@YAPAVfacet@locale@1@PAV_Locale@1@PAV?$messages@std@D@1@@Z (REF 0005: ?id@?$messages@std@D@std@@2V0locale@2@A)
          25. 00 0000 0018 0000:??$_Locale_insert@std@V?$messages@std@_Y@1@@std@@YAPAVfacet@locale@1@PAV_Locale@1@PAV?$messages@std@_Y@1@@Z (REF 0005: ?id@?$messages@std@_Y@std@@2V0locale@2@A)
        7424:
          10FF742410E8........83C40C58C3:
            0. 00 0000 0015 0000:??$_Destroy@std@PAPAX@std@@YAXPAPAX0@Z (REF 000C: ??$__destroy@std@PAPAXPAX@std@@YAXPAPAX00@Z)
            1. 00 0000 0015 0000:_dos_creat (REF 000C: ___nt_creat)
          18FF742418FF742418:
            8B442418FF3485........FF15:
              0. 09 FC32 002F 0000:__dos_read
            FF742418E8........83C41459C3:
              0. 00 0000 001D 0000:__wspawnve (REF 0014: ___wspawn)
              1. 00 0000 001D 0000:??$__match@std@V?$istreambuf_iterator@std@DV?$char_traits@std@D@1@@1@PAV?$basic_string@std@DV?$char_traits@std@D@1@V?$allocator@std@D@1@@1@@std@@YAPAV?$basic_string@std@DV?$char_traits@std@D@1@V?$allocator@std@D@1@@1@AAV?$istreambuf_iterator@std@DV?$char_traits@std@D@1@@1@0PAV21@1@Z (REF 0014: ??$__match@std@V?$istreambuf_iterator@std@DV?$char_traits@std@D@1@@1@PAV?$basic_string@std@DV?$char_traits@std@D@1@V?$allocator@std@D@1@@1@J@std@@YAPAV?$basic_string@std@DV?$char_traits@std@D@1@V?$allocator@std@D@1@@1@AAV?$istreambuf_iterator@std@DV?$char_traits@std@D@1@@1@0PAV21@1PAJ@Z)
              2. 00 0000 001D 0000:??$__match@std@V?$istreambuf_iterator@std@_YV?$char_traits@std@_Y@1@@1@PAV?$basic_string@std@DV?$char_traits@std@D@1@V?$allocator@std@D@1@@1@@std@@YAPAV?$basic_string@std@DV?$char_traits@std@D@1@V?$allocator@std@D@1@@1@AAV?$istreambuf_iterator@std@_YV?$char_traits@std@_Y@1@@1@0PAV21@1@Z (REF 0014: ??$__match@std@V?$istreambuf_iterator@std@_YV?$char_traits@std@_Y@1@@1@PAV?$basic_string@std@DV?$char_traits@std@D@1@V?$allocator@std@D@1@@1@J@std@@YAPAV?$basic_string@std@DV?$char_traits@std@D@1@V?$allocator@std@D@1@@1@AAV?$istreambuf_iterator@std@_YV?$char_traits@std@_Y@1@@1@0PAV21@1PAJ@Z)
              3. 00 0000 001D 0000:??$__match@std@PBDPAV?$basic_string@std@DV?$char_traits@std@D@1@V?$allocator@std@D@1@@1@@std@@YAPAV?$basic_string@std@DV?$char_traits@std@D@1@V?$allocator@std@D@1@@1@AAPBD0PAV21@1@Z (REF 0014: ??$__match@std@PBDPAV?$basic_string@std@DV?$char_traits@std@D@1@V?$allocator@std@D@1@@1@H@std@@YAPAV?$basic_string@std@DV?$char_traits@std@D@1@V?$allocator@std@D@1@@1@AAPBD0PAV21@1PAH@Z)
              4. 00 0000 001D 0000:??$__match@std@PB_YPAV?$basic_string@std@DV?$char_traits@std@D@1@V?$allocator@std@D@1@@1@@std@@YAPAV?$basic_string@std@DV?$char_traits@std@D@1@V?$allocator@std@D@1@@1@AAPB_Y0PAV21@1@Z (REF 0014: ??$__match@std@PB_YPAV?$basic_string@std@DV?$char_traits@std@D@1@V?$allocator@std@D@1@@1@H@std@@YAPAV?$basic_string@std@DV?$char_traits@std@D@1@V?$allocator@std@D@1@@1@AAPB_Y0PAV21@1PAH@Z)
              5. 00 0000 001D 0000:_spawnve (REF 0014: ___spawn)
          28FF742428FF7424288D442424508D54242052FF742420E8:
            0. 00 0000 0029 0000:?do_get@?$num_get@std@DV?$istreambuf_iterator@std@DV?$char_traits@std@D@1@@1@@std@@MBE?AV?$istreambuf_iterator@std@DV?$char_traits@std@D@1@@2@V32@0AAVios_base@2@AAHAAJ@Z (REF 001E: ??$_M_do_get_integer@std@V?$istreambuf_iterator@std@DV?$char_traits@std@D@1@@1@JD@std@@YA?AV?$istreambuf_iterator@std@DV?$char_traits@std@D@1@@1@AAV21@0AAVios_base@1@AAHAAJPAD@Z)
            1. 00 0000 0029 0000:?do_get@?$num_get@std@DV?$istreambuf_iterator@std@DV?$char_traits@std@D@1@@1@@std@@MBE?AV?$istreambuf_iterator@std@DV?$char_traits@std@D@1@@2@V32@0AAVios_base@2@AAHAAG@Z (REF 001E: ??$_M_do_get_integer@std@V?$istreambuf_iterator@std@DV?$char_traits@std@D@1@@1@GD@std@@YA?AV?$istreambuf_iterator@std@DV?$char_traits@std@D@1@@1@AAV21@0AAVios_base@1@AAHAAGPAD@Z)
            2. 00 0000 0029 0000:?do_get@?$num_get@std@DV?$istreambuf_iterator@std@DV?$char_traits@std@D@1@@1@@std@@MBE?AV?$istreambuf_iterator@std@DV?$char_traits@std@D@1@@2@V32@0AAVios_base@2@AAHAAI@Z (REF 001E: ??$_M_do_get_integer@std@V?$istreambuf_iterator@std@DV?$char_traits@std@D@1@@1@ID@std@@YA?AV?$istreambuf_iterator@std@DV?$char_traits@std@D@1@@1@AAV21@0AAVios_base@1@AAHAAIPAD@Z)
            3. 00 0000 0029 0000:?do_get@?$num_get@std@DV?$istreambuf_iterator@std@DV?$char_traits@std@D@1@@1@@std@@MBE?AV?$istreambuf_iterator@std@DV?$char_traits@std@D@1@@2@V32@0AAVios_base@2@AAHAAK@Z (REF 001E: ??$_M_do_get_integer@std@V?$istreambuf_iterator@std@DV?$char_traits@std@D@1@@1@KD@std@@YA?AV?$istreambuf_iterator@std@DV?$char_traits@std@D@1@@1@AAV21@0AAVios_base@1@AAHAAKPAD@Z)
            4. 00 0000 0029 0000:?do_get@?$num_get@std@DV?$istreambuf_iterator@std@DV?$char_traits@std@D@1@@1@@std@@MBE?AV?$istreambuf_iterator@std@DV?$char_traits@std@D@1@@2@V32@0AAVios_base@2@AAHAA_J@Z (REF 001E: ??$_M_do_get_integer@std@V?$istreambuf_iterator@std@DV?$char_traits@std@D@1@@1@_JD@std@@YA?AV?$istreambuf_iterator@std@DV?$char_traits@std@D@1@@1@AAV21@0AAVios_base@1@AAHAA_JPAD@Z)
            5. 00 0000 0029 0000:?do_get@?$num_get@std@DV?$istreambuf_iterator@std@DV?$char_traits@std@D@1@@1@@std@@MBE?AV?$istreambuf_iterator@std@DV?$char_traits@std@D@1@@2@V32@0AAVios_base@2@AAHAA_K@Z (REF 001E: ??$_M_do_get_integer@std@V?$istreambuf_iterator@std@DV?$char_traits@std@D@1@@1@_KD@std@@YA?AV?$istreambuf_iterator@std@DV?$char_traits@std@D@1@@1@AAV21@0AAVios_base@1@AAHAA_KPAD@Z)
            6. 00 0000 0029 0000:?do_get@?$num_get@std@_YV?$istreambuf_iterator@std@_YV?$char_traits@std@_Y@1@@1@@std@@MBE?AV?$istreambuf_iterator@std@_YV?$char_traits@std@_Y@1@@2@V32@0AAVios_base@2@AAHAAJ@Z (REF 001E: ??$_M_do_get_integer@std@V?$istreambuf_iterator@std@_YV?$char_traits@std@_Y@1@@1@J_Y@std@@YA?AV?$istreambuf_iterator@std@_YV?$char_traits@std@_Y@1@@1@AAV21@0AAVios_base@1@AAHAAJPA_Y@Z)
            7. 00 0000 0029 0000:?do_get@?$num_get@std@_YV?$istreambuf_iterator@std@_YV?$char_traits@std@_Y@1@@1@@std@@MBE?AV?$istreambuf_iterator@std@_YV?$char_traits@std@_Y@1@@2@V32@0AAVios_base@2@AAHAAG@Z (REF 001E: ??$_M_do_get_integer@std@V?$istreambuf_iterator@std@_YV?$char_traits@std@_Y@1@@1@G_Y@std@@YA?AV?$istreambuf_iterator@std@_YV?$char_traits@std@_Y@1@@1@AAV21@0AAVios_base@1@AAHAAGPA_Y@Z)
            8. 00 0000 0029 0000:?do_get@?$num_get@std@_YV?$istreambuf_iterator@std@_YV?$char_traits@std@_Y@1@@1@@std@@MBE?AV?$istreambuf_iterator@std@_YV?$char_traits@std@_Y@1@@2@V32@0AAVios_base@2@AAHAAI@Z (REF 001E: ??$_M_do_get_integer@std@V?$istreambuf_iterator@std@_YV?$char_traits@std@_Y@1@@1@I_Y@std@@YA?AV?$istreambuf_iterator@std@_YV?$char_traits@std@_Y@1@@1@AAV21@0AAVios_base@1@AAHAAIPA_Y@Z)
            9. 00 0000 0029 0000:?do_get@?$num_get@std@_YV?$istreambuf_iterator@std@_YV?$char_traits@std@_Y@1@@1@@std@@MBE?AV?$istreambuf_iterator@std@_YV?$char_traits@std@_Y@1@@2@V32@0AAVios_base@2@AAHAAK@Z (REF 001E: ??$_M_do_get_integer@std@V?$istreambuf_iterator@std@_YV?$char_traits@std@_Y@1@@1@K_Y@std@@YA?AV?$istreambuf_iterator@std@_YV?$char_traits@std@_Y@1@@1@AAV21@0AAVios_base@1@AAHAAKPA_Y@Z)
            10. 00 0000 0029 0000:?do_get@?$num_get@std@_YV?$istreambuf_iterator@std@_YV?$char_traits@std@_Y@1@@1@@std@@MBE?AV?$istreambuf_iterator@std@_YV?$char_traits@std@_Y@1@@2@V32@0AAVios_base@2@AAHAA_J@Z (REF 001E: ??$_M_do_get_integer@std@V?$istreambuf_iterator@std@_YV?$char_traits@std@_Y@1@@1@_J_Y@std@@YA?AV?$istreambuf_iterator@std@_YV?$char_traits@std@_Y@1@@1@AAV21@0AAVios_base@1@AAHAA_JPA_Y@Z)
            11. 00 0000 0029 0000:?do_get@?$num_get@std@_YV?$istreambuf_iterator@std@_YV?$char_traits@std@_Y@1@@1@@std@@MBE?AV?$istreambuf_iterator@std@_YV?$char_traits@std@_Y@1@@2@V32@0AAVios_base@2@AAHAA_K@Z (REF 001E: ??$_M_do_get_integer@std@V?$istreambuf_iterator@std@_YV?$char_traits@std@_Y@1@@1@_K_Y@std@@YA?AV?$istreambuf_iterator@std@_YV?$char_traits@std@_Y@1@@1@AAV21@0AAVios_base@1@AAHAA_KPA_Y@Z)
    01:
      668B44240C50E8........83C40859C3:
        0. 00 0000 0013 0000:_iswupper
      68........FF15........58C3:
        0. 00 0000 0010 0000:_controlc_open
      6A00:
        8B4424148B4C241050516A02E8........83C41459C3:
          0. 00 0000 001B 0000:__wexecvp (REF 0012: ___wspawn)
          1. 00 0000 001B 0000:_execvp (REF 0012: ___spawn)
        8D442414:
          50FF7424146A02E8........83C41459C3:
            0. 00 0000 001A 0000:__wexeclp (REF 0011: ___wspawn)
            1. 00 0000 001A 0000:_execlp (REF 0011: ___spawn)
          8B4C241050516A02E8........83C41459C3:
            0. 00 0000 001B 0000:__wexeclp (REF 0012: ___wspawn)
            1. 00 0000 001B 0000:_execlp (REF 0012: ___spawn)
        FF742414FF7424146A02E8........83C41459C3:
          0. 00 0000 0019 0000:__wexecvp (REF 0010: ___wspawn)
          1. 00 0000 0019 0000:_execvp (REF 0010: ___spawn)
      8D44241050E8........83C404508D4C2414:
        51FF7424146A02E8:
          0. 00 0000 0026 0000:__wexeclpe (REF 0009: ___wseek_envp)
          1. 00 0000 0026 0000:_execlpe (REF 0009: ___seek_envp)
        8B54241051526A02E8:
          0. 00 0000 0027 0000:__wexeclpe (REF 0009: ___wseek_envp)
          1. 00 0000 0027 0000:_execlpe (REF 0009: ___seek_envp)
      A1........508D4C240851E8........83C40C85C07E0B668B14246689:
        0. 01 54B7 0027 (l)0000:__GETWDECPOINT
      FF:
        35........8D44240850E8........83C40C85C07E0B668B0C246689:
          0. 01 9D2B 0027 (l)0000:__GETWDECPOINT
        7424:
          0CE8........83C40859C3:
            0. 00 0000 0011 0000:_iswupper
          18FF742418FF742418FF742418E8........83C41459C3:
            0. 00 0000 001D 0000:__wspawnvpe (REF 0014: ___wspawn)
            1. 00 0000 001D 0000:_spawnvpe (REF 0014: ___spawn)
    02:
      668B44240C50E8........83C40859C3:
        0. 00 0000 0013 0000:_iswlower
      6A016A008B4424188D0C85........51FF15........8B54241850FF34:
        0. 01 5C33 0040 0000:_dup2
      FF74240CE8........83C40859C3:
        0. 00 0000 0011 0000:_iswlower
    04:
      668B44240C50E8........83C40859C3:
        0. 00 0000 0013 0000:_iswdigit
      FF74240CE8........83C40859C3:
        0. 00 0000 0011 0000:_iswdigit
    08:
      668B44240C50E8........83C40859C3:
        0. 00 0000 0013 0000:_iswspace
      FF74240CE8........83C40859C3:
        0. 00 0000 0011 0000:_iswspace
    0A:
      8B4424108B4C240C5051E8........83C40C58C20800:
        0. 00 0000 0019 (l)0000:UL2A
      FF742410FF742410E8........83C40C58C20800:
        538B5C2408568B7424:
          0. 10 1987 14D8 0160:_unmangle_ident 0C07:_unmangle_pt 12D3:___unmangle_vc_exception_type
        ..:
          0. 00 0000 0017 (l)0000:UL2A
    10:
      668B44240C50E8........83C40859C3:
        0. 00 0000 0013 0000:_iswpunct
      8B4424108B4C240C5051E8........83C40C58C20800:
        0. 00 0000 0019 (l)0000:UL2A
      FF74240CE8........83C40859C3:
        0. 00 0000 0011 0000:_iswpunct
    16E8........83C404:
      0. 00 0000 000B 0000:_abort (REF 0004: _raise)
    19E8........83C40458C3:
      0. 00 0000 000D 0000:_disp_reset43
    20:
      668B44240C50E8........83C40859C3:
        0. 00 0000 0013 0000:_iswcntrl
      FF74240CE8........83C40859C3:
        0. 00 0000 0011 0000:_iswcntrl
    32:
      6A32FF15........58C3:
        0. 00 0000 000D 0000:_sound_click
      E8........83C40458C3:
        0. 00 0000 000D 0000:_disp_set43
    3CE8........83C40458C3:
      0. 00 0000 000D 0000:__STI_io_ctor
    F6FF15........A3........6AF5FF15........A3........6AF4FF15:
      0. 00 0000 002A 0000:__STI_init_std_files
    FDE8........83C40458C3:
      0. 00 0000 000D (l)0000:___setmbctype
  803D........00:
    74:
      0AB9........E8........58C3:
        0. 00 0000 0016 (!)0000:?
      1CA1........B9........2B05........50FF35:
        0. 00 0000 0028 0000:___SD?%locale_catalog_cpp3056921815_
      4EC605........00FF35........FF35........FF15:
        0. 00 0000 005A 0000:_disp_close
      51C605........0066A1........8B0D........5051FF:
        0. 01 54B7 005D 0000:_disp_close
    7510FE05........B9........E8........C705:
      0. 00 0000 0026 0000:?CreateMainHeap@RTLHeap@@SAXXZ
  83:
    3D........00:
      74:
        06FF15........58C3:
          0. 00 0000 0012 0000:__setenvp (REF 0003: ___init_environ_ptr)
          1. 00 0000 0012 0000:___callve (REF 0003: ___ve_debughook)
          2. 00 0000 0012 0000:___initmbctype (REF 0003: ___init_mbctype_ptr)
        0B6A:
          00FF15........83C40458C3:
            0. 00 0000 0017 0000:___rtl_clean_cppexceptions
          01FF15........83C40458C3:
            0. 00 0000 0017 0000:___rtl_init_cppexceptions
        18FF35........E8........C705........0000000083:
          0. 04 2A3F 0024 0000:__STD_make_wide_envptr
        23FF0D........A1........FF3485........E8:
          0. 00 0000 005C (l)0000:UM_TERM
        336AFFFF7424106AFFFF7424146A:
          00FF35........FF15:
            0. 00 0000 004F 0000:__mbscoll
          01FF35........FF15:
            0. 00 0000 004F 0000:__mbsicoll
      75:
        0BE8........FF05........58C3:
          0. 00 0000 0017 0000:__allocinit (REF 000B: ?CreateMainHeap@RTLMultiPool@@SAXXZ)
          1. 00 0000 0017 0000:___internal_tzset (REF 000B: _tzset)
        3E688C0000006AFF68........E8........B8:
          0. 05 C2DA 004A 0000:__InitSemaphoreSys
    7C24:
      080074:
        0CFF742408E8........83C40458C20800:
          0. 00 0000 0018 (!)0000:?
        16FF74240CFF74240CE8........0344241083C40859C35931:
          0. 02 7A31 0022 0000:__mbsninc
      0CFF750759B8FFFF0000C36A018D442404506A018D4C2418516A018B:
        0. 08 7199 0032 0000:__Locale_btowc
      100075178B442408FF3485........FF15........85C07525EB276A:
        0. 14 5D32 004D 0000:__dos_write
    C1:
      08E8........59C3:
        0. 00 0000 000B 0000:?pcount@ostrstream@std@@QBEHXZ (REF 0005: ?pcount@strstreambuf@std@@QBEHXZ)
      0C5356FF74242C518D442424508D4C242051E8........83C41084C074:
        0. 21 448E 006E 0000:?do_get_weekday@?$time_get@std@_YV?$istreambuf_iterator@std@_YV?$char_traits@std@_Y@1@@1@@std@@MBE?AV?$istreambuf_iterator@std@_YV?$char_traits@std@_Y@1@@2@V32@0AAVios_base@2@AAHPAUtm@@@Z (REF 0016: ??$__get_short_or_long_dayname@std@V?$istreambuf_iterator@std@_YV?$char_traits@std@_Y@1@@1@@std@@YA_NAAV?$istreambuf_iterator@std@_YV?$char_traits@std@_Y@1@@1@0ABV_Time_Info@1@PAUtm@@@Z)
        1. 21 448E 006E 0000:?do_get_monthname@?$time_get@std@DV?$istreambuf_iterator@std@DV?$char_traits@std@D@1@@1@@std@@MBE?AV?$istreambuf_iterator@std@DV?$char_traits@std@D@1@@2@V32@0AAVios_base@2@AAHPAUtm@@@Z (REF 0016: ??$__get_short_or_long_monthname@std@V?$istreambuf_iterator@std@DV?$char_traits@std@D@1@@1@@std@@YA_NAAV?$istreambuf_iterator@std@DV?$char_traits@std@D@1@@1@0ABV_Time_Info@1@PAUtm@@@Z)
        2. 21 448E 006E 0000:?do_get_weekday@?$time_get@std@DV?$istreambuf_iterator@std@DV?$char_traits@std@D@1@@1@@std@@MBE?AV?$istreambuf_iterator@std@DV?$char_traits@std@D@1@@2@V32@0AAVios_base@2@AAHPAUtm@@@Z (REF 0016: ??$__get_short_or_long_dayname@std@V?$istreambuf_iterator@std@DV?$char_traits@std@D@1@@1@@std@@YA_NAAV?$istreambuf_iterator@std@DV?$char_traits@std@D@1@@1@0ABV_Time_Info@1@PAUtm@@@Z)
        3. 21 448E 006E 0000:?do_get_monthname@?$time_get@std@_YV?$istreambuf_iterator@std@_YV?$char_traits@std@_Y@1@@1@@std@@MBE?AV?$istreambuf_iterator@std@_YV?$char_traits@std@_Y@1@@2@V32@0AAVios_base@2@AAHPAUtm@@@Z (REF 0016: ??$__get_short_or_long_monthname@std@V?$istreambuf_iterator@std@_YV?$char_traits@std@_Y@1@@1@@std@@YA_NAAV?$istreambuf_iterator@std@_YV?$char_traits@std@_Y@1@@1@0ABV_Time_Info@1@PAUtm@@@Z)
        4. 22 C2CC 0072 0000:?do_get_monthname@?$time_get@std@_YV?$istreambuf_iterator@std@_YV?$char_traits@std@_Y@1@@1@@std@@MBE?AV?$istreambuf_iterator@std@_YV?$char_traits@std@_Y@1@@2@V32@0AAVios_base@2@AAHPAUtm@@@Z (REF 0016: ??$__get_short_or_long_monthname@std@V?$istreambuf_iterator@std@_YV?$char_traits@std@_Y@1@@1@@std@@YA_NAAV?$istreambuf_iterator@std@_YV?$char_traits@std@_Y@1@@1@0ABV_Time_Info@1@PAUtm@@@Z)
        5. 22 C2CC 0072 0000:?do_get_weekday@?$time_get@std@_YV?$istreambuf_iterator@std@_YV?$char_traits@std@_Y@1@@1@@std@@MBE?AV?$istreambuf_iterator@std@_YV?$char_traits@std@_Y@1@@2@V32@0AAVios_base@2@AAHPAUtm@@@Z (REF 0016: ??$__get_short_or_long_dayname@std@V?$istreambuf_iterator@std@_YV?$char_traits@std@_Y@1@@1@@std@@YA_NAAV?$istreambuf_iterator@std@_YV?$char_traits@std@_Y@1@@1@0ABV_Time_Info@1@PAUtm@@@Z)
        6. 22 C2CC 0072 0000:?do_get_monthname@?$time_get@std@DV?$istreambuf_iterator@std@DV?$char_traits@std@D@1@@1@@std@@MBE?AV?$istreambuf_iterator@std@DV?$char_traits@std@D@1@@2@V32@0AAVios_base@2@AAHPAUtm@@@Z (REF 0016: ??$__get_short_or_long_monthname@std@V?$istreambuf_iterator@std@DV?$char_traits@std@D@1@@1@@std@@YA_NAAV?$istreambuf_iterator@std@DV?$char_traits@std@D@1@@1@0ABV_Time_Info@1@PAUtm@@@Z)
        7. 22 C2CC 0072 0000:?do_get_weekday@?$time_get@std@DV?$istreambuf_iterator@std@DV?$char_traits@std@D@1@@1@@std@@MBE?AV?$istreambuf_iterator@std@DV?$char_traits@std@D@1@@2@V32@0AAVios_base@2@AAHPAUtm@@@Z (REF 0016: ??$__get_short_or_long_dayname@std@V?$istreambuf_iterator@std@DV?$char_traits@std@D@1@@1@@std@@YA_NAAV?$istreambuf_iterator@std@DV?$char_traits@std@D@1@@1@0ABV_Time_Info@1@PAUtm@@@Z)
      18E8........59C3:
        0. 00 0000 000B 0000:?pcount@strstream@std@@QBEHXZ (REF 0005: ?pcount@strstreambuf@std@@QBEHXZ)
    EC14DB3C248B44240825FF7F00000F84........3DFF7F00000F84:
      0. 00 0000 00C3 0000:fptan_chk
  8A:
    042459C3:
      0. 00 0000 0006 (!)0000:?
    442408:
      880424C644240100FF74240C8D4C240451E8........59C20800:
        0. 00 0000 001F (l)0000:STR_CATC
      8B4C240C880424C644240100518D54240452E8........59C20800:
        0. 00 0000 0020 (l)0000:STR_CATC
  8B:
    01:
      53894424048B5C240C8B542404891389D85B59C20400:
        0. 00 0000 0019 0000:?rend@?$basic_string@std@DV?$char_traits@std@D@1@V?$allocator@std@D@1@@std@@QBE?AV?$reverse_iterator@std@PBD@2@XZ
      8B5008538B5C240C568B333BD657760C8B398B47048B14B085D2EB0231:
        0. 08 B09C 0037 0000:?_M_use_facet@locale@std@@QBEPAVfacet@12@ABVid@12@@Z
    05........:
      535685C0:
        74:
          0C813D................75095E5B59B8010000:
            0. 04 29E8 0094 0000:_exit_popstate
          3D6AFF8B35........8B542418526AFF8B5C241C:
            0. 06 5EBB 0060 0000:__mbscoll
            1. 06 E5A7 0060 0000:__mbsicoll
        750AC705................813D:
          0. 00 0000 00A7 0000:_exit_PUSHSTATE
      5685C0C705........01000000752F8B05........85C07425:
        0. 01 FB44 00A0 0000:_exit
      85C0:
        74:
          06FF15........58C3:
            0. 00 0000 0013 0000:___callve (REF 0003: ___ve_debughook)
            1. 00 0000 0013 0000:___initmbctype (REF 0003: ___init_mbctype_ptr)
          19A1........50FF15........C705........000000:
            0. 06 E2A3 0026 0000:__STD_make_wide_envptr
        753E688C0000006AFF68........E8........6A10B8:
          0. 00 0000 004B 0000:__InitSemaphoreSys
    0D........:
      538B1D........558B6C241456BE01000000578B7C24188339:
        0. 08 F47A 004F (l)0000:___find_envptr (REF 0003: __environ)
        1. 08 F47A 004F (l)0000:___find_wenvptr (REF 0003: __wenviron)
      83F9FF8B44240CA3........740751FF15........68:
        0. 00 0000 004A 0000:__wfindfirst (001F: 59)
        1. 00 0000 0046 0000:_findfirst (001F: E8)
      8B01FF500858C3:
        0. 00 0000 000E 0000:?_S_uninitialize@locale@std@@SAXXZ
    15........8B4C2408538B1D........568B74241489542408890D:
      0. 00 0000 0078 (l)0000:?set_nh@@YAP6AHI@ZP6AHI@ZH@Z
    41:
      0453562B0185C0577901408B5424188B5C241CD1F88D341A3BC6730C5F:
        0. 28 4923 006D 0000:?find@?$basic_string@std@_YV?$char_traits@std@_Y@1@V?$allocator@std@_Y@1@@std@@QBEIPB_YII@Z
      0885C05389CB740DFF74240C50E8........83C408837B0C00740CFF74:
        0. 06 3E15 002F 0000:?do_close@_Messages_impl@std@@UBEXH@Z
    4424:
      08:
        50E8........:
          83C40459C3:
            0. 00 0000 0010 (l)0000:_disp2_putc
          8B4C2410BAFFFFFFFF890183C4043BC289D0740231:
            0. 03 2E3C 0023 0000:_fgetpos
        53:
          5657:
            3B442418:
              0F84:
                CC0300008B4C241C3B4C24200F84BE030000:
                  0. AB 4B0B 03E7 0000:??$__get_formatted_time@std@PBD0@std@@YAPBDPBD000ABV_Time_Info@1@AAHPAUtm@@@Z
                E00300008B4C241C3B4C24200F84D2030000:
                  0. AB 18FC 03FB 0000:??$__get_formatted_time@std@PB_YPBD@std@@YAPBDPB_Y0PBD1ABV_Time_Info@1@AAHPAUtm@@@Z
              75158B7C2420C707060000008B4424145F5E5B59:
                0. 16 7DC8 0076 0000:?do_get_year@?$time_get@std@_YPB_Y@std@@MBEPB_YPB_Y0AAVios_base@2@AAHPAUtm@@@Z (REF 0036: ??$__get_decimal_integer@std@PB_YH@std@@YA_NAAPB_Y0AAH@Z)
                1. 16 7DC8 0076 0000:?do_get_year@?$time_get@std@DPBD@std@@MBEPBDPBD0AAVios_base@2@AAHPAUtm@@@Z (REF 0036: ??$__get_decimal_integer@std@PBDH@std@@YA_NAAPBD0AAH@Z)
            894C240C8B0083C108508B41042B019981E20300000003C2:
              0. 41 114B 0061 0000:??$_M_find@?$hashtable@std@U?$pair@std@_OHVlocale@1@@1@HU?$hash@std@H@1@U?$_Select1st@std@U?$pair@std@_OHVlocale@1@@1@@1@U?$equal_to@std@H@1@V?$allocator@std@U?$pair@std@HVlocale@1@@1@@1@@std@H@?$hashtable@std@U?$pair@std@_OHVlocale@1@@1@HU?$hash@std@H@1@U?$_Select1st@std@U?$pair@std@_OHVlocale@1@@1@@1@U?$equal_to@std@H@1@V?$allocator@std@U?$pair@std@HVlocale@1@@1@@1@@std@@ABEPAU?$_Hashtable_node@std@U?$pair@std@_OHVlocale@1@@1@@2@ABH@Z
          89442404FF742414FF7424148D4C24145168........E8:
            0. 00 0000 003B 0000:__vswprintf (0018: 5B)
            1. 00 0000 0039 0000:_vsprintf (0018: C3)
        85C074188B4C240C8B5424085152E8........0344241083C40859:
          0. 05 F657 0025 0000:__mbsninc
        8B:
          0853:
            31DB5657894C240C8B54240C8A023C40744584C0750D53E8:
              0. 00 0000 0073 (l)0000:UM_SCOPE
            5657894C240C8A1180FA58751868........E8........89:
              0. 13 9DF1 00CE (l)0000:UM_ARGUMENT_TYPES
            FF348D........E8........8B54240C8B1AFF349D:
              0. 00 0000 002B 0000:_matherr
          4804538B5104:
            5657035424148B5A1C8D4A046A016A01E8:
              0. 00 0000 0062 0000:?ws@@YAAAVistream@@AAV1@@Z
            8B5C240C56837C1A180074138B4C2410E8:
              0. 00 0000 00EB 0000:??6@YAAAVostream@@AAV0@ABVcomplex@@@Z
          4C240C:
            5085C97505B9........5168........E8........83C0:
              0. 03 0B78 0031 0000:?genericerror@@YAXHPAD@Z
            53C705........00000000A3........6A01890D:
              0. 00 0000 004E 0000:___GetLCID
          5424:
            0C538B08563B0A75148D5A04538D700456E8........83C4:
              0. 12 B9E4 0032 0000:??$?8std@QBDU?$pair@std@PAXI@0@@std@@YA_NABU?$pair@std@QBDU?$pair@std@PAXI@1@@1@0@Z
            14538B5C24103BC35556578B7C2420:
              0F84A800000039D70F:
                0. AB 5410 00CB 0000:??$search@std@PB_Y0U?$_Eq_traits@std@V?$char_traits@std@_Y@1@@1@@std@@YAPB_YPB_Y000U?$_Eq_traits@std@V?$char_traits@std@_Y@1@@1@@Z
              747F39D7747B8BCF41:
                0. 7E 1534 009E 0000:??$search@std@PBD0U?$_Eq_traits@std@V?$char_traits@std@D@1@@1@@std@@YAPBDPBD000U?$_Eq_traits@std@V?$char_traits@std@D@1@@1@@Z
        FF30E8........8B4C2410:
          D91983C40458C3:
            0. 00 0000 0017 0000:?__string_to_float@std@@YAXABV?$basic_string@std@DV?$char_traits@std@D@1@V?$allocator@std@D@1@@1@AAM@Z
          DB3983C40458C3:
            0. 00 0000 0017 0000:?__string_to_float@std@@YAXABV?$basic_string@std@DV?$char_traits@std@D@1@V?$allocator@std@D@1@@1@AA_Z@Z
          DD1983C40458C3:
            0. 00 0000 0017 0000:?__string_to_float@std@@YAXABV?$basic_string@std@DV?$char_traits@std@D@1@V?$allocator@std@D@1@@1@AAN@Z
      0C:
        2570000000508B4C241081E10B00000051FF742410E8........83:
          0. 04 30E0 0024 0000:_dos_open
        31C983F8107507B940000000EB1683F80A7507B910000000EB0A83:
          0. 0E C0E4 0045 (l)0000:?sbase@@YAAAVios@@AAV1@H@Z
        3D80000000760EFF742408E8........83C404EB0D50FF74240CE8:
          0. 00 0000 0029 0000:?deallocate@?$__node_alloc@std@$0@$0@@std@@SAXPAXI@Z (REF 0020: ?_M_deallocate@?$__node_alloc@std@$0@$0@@std@@CAXPAXI@Z)
          1. 00 0000 0029 0000:?deallocate@?$__node_alloc@std@$00$0@@std@@SAXPAXI@Z (REF 0020: ?_M_deallocate@?$__node_alloc@std@$00$0@@std@@CAXPAXI@Z)
        50:
          68020300008B4C241051E8........83C40C59C3:
            0. 00 0000 001A 0000:__wcreat
          D944240C83EC08DD1C24E8........83C40C59C3:
            0. 00 0000 001A 0000:_frexpf
          E8........:
            83C404:
              3D008000007D0EDB44240CD9442408D9FD59:
                0. 0D 7F28 004B 0000:_scalbf
              508B4C240C51E8........:
                59C20800:
                  0. 00 0000 001D (l)0000:STR_CAT1
                83C40450E8:
                  0. 00 0000 002A 0000:?before@type_info@std@@QBA_NABV12@@Z (REF 0007: ?name@type_info@std@@QBAPBDXZ)
                  1. 00 0000 002A 0000:?before@Type_info@@QBAHABV1@@Z (REF 0007: ?name@Type_info@@QBAPBDXZ)
            89C158:
              8941108B54240889918C00000058C20800:
                0. 00 0000 001F (l)0000:_RESTOREERRNOSTATUS
              8B54240889411089918C00000058C20800:
                0. 00 0000 001F (l)0000:_RESTOREERRNOSTATUS
        5389CB8B530456570344241C2B133BC2760C5FB8FFFFFFFF5E5B59:
          0. 1F AA12 005D 0000:?find@?$basic_string@std@DV?$char_traits@std@D@1@V?$allocator@std@D@1@@std@@QBEIPBDII@Z
        85C0740783F8017425EB486A00FF7424186A00FF74241C8B542418:
          0. 03 D912 006D 0000:__dos_lock
        8B:
          0D........A3........83F9FF740751FF15........68:
            0. 00 0000 0049 0000:__wfindfirst (001E: 31)
            1. 00 0000 0045 0000:_findfirst (001E: E8)
          4C24:
            0850:
              51:
                6A00E8........83C40C85C074045931C0C3E8:
                  0. 00 0000 0029 0000:__wrename
                E8........:
                  5068........68........E8:
                    0. 05 5707 0025 0000:_vscanf
                  83C4:
                    0450E8........59C20800:
                      0. 00 0000 001D (l)0000:STR_CAT12 (REF 0015: STR_CAT1)
                      1. 00 0000 001D (l)0000:STR_CAT2 (REF 0015: STR_CAT)
                    0859C3:
                      0. 00 0000 0015 0000:_putc (REF 000C: _fputc)
                      1. 00 0000 0015 0000:__tcscmp (REF 000C: __mbscmp)
                      2. 00 0000 0015 0000:__tcscspn (REF 000C: __mbscspn)
                      3. 00 0000 0015 0000:__tcsicmp (REF 000C: __mbsicmp)
                      4. 00 0000 0015 0000:__tcsninc (REF 000C: __mbsninc)
                      5. 00 0000 0015 0000:__tcsdec (REF 000C: __mbsdec)
                      6. 00 0000 0015 0000:__tcsstr (REF 000C: __mbsstr)
                      7. 00 0000 0015 0000:__tcsspn (REF 000C: __mbsspn)
                      8. 00 0000 0015 0000:__tcspbrk (REF 000C: __mbspbrk)
                      9. 00 0000 0015 0000:__tcsrchr (REF 000C: __mbsrchr)
                      10. 00 0000 0015 0000:__tcstok (REF 000C: __mbstok)
                FF15........:
                  58C3:
                    0. 00 0000 0013 0000:_sound_note
                  83C40859C3:
                    0. 00 0000 0016 0000:__tcschr (REF 000D: __imp___mbschr)
                    1. 00 0000 0016 0000:__expand (REF 000D: __imp__realloc)
              E8........8B44240859C3:
                0. 00 0000 0015 (l)0000:?sios@@YAAAVios@@AAV1@J@Z (REF 000B: ?setf@ios@@QAEJJ@Z)
                1. 00 0000 0015 (l)0000:?rsios@@YAAAVios@@AAV1@J@Z (REF 000B: ?unsetf@ios@@QAEJJ@Z)
            0C257000000081E10B00000050518B54241052E8:
              0. 05 0044 0025 0000:_dos_open
          542408508D48025152E8........83C40C58C3:
            0. 00 0000 0019 0000:_getftime
        C1E0:
          02535650E8........83C40489C385C07416538B4C24188B54:
            0. 08 A51F 0035 0000:??$_Stl_copy_array@std@PAX@std@@YAPAPAXPBQAXI@Z (REF 0028: ??$copy@std@PBQAXPAPAX@std@@YAPAPAXPBQAX0PAPAX@Z)
            1. 08 A51F 0035 0000:??$_Stl_copy_array@std@J@std@@YAPAJPBJI@Z (REF 0028: ??$copy@std@PBJPAJ@std@@YAPAJPBJ0PAJ@Z)
          03535650E8........83C40489C385C07416538B4C24188B54:
            0. 08 1209 0035 0000:??$_Stl_copy_array@std@U?$pair@std@P6AXW4event@ios_base@1@AAV31@H@ZH@1@@std@@YAPAU?$pair@std@P6AXW4event@ios_base@1@AAV31@H@ZH@1@PBU21@I@Z
      10:
        2B44240C8904243944241473068D542414EB038D14248B0259C210:
          0. 01 78F0 0021 (!)0000:?
        506A408B4C24148B5424105152E8........83C41059C3:
          0. 00 0000 001C 0000:__wopen
        8B4C2418538B5C241856573B44241874:
          3D8BD339CB74298B742418:
            0. 44 71D0 0064 0000:??$__find_first_of@std@V?$reverse_iterator@std@PBD@1@PBDU?$_Eq_traits@std@V?$char_traits@std@D@1@@1@@std@@YA?AV?$reverse_iterator@std@PBD@1@V21@0PBD1U?$_Eq_traits@std@V?$char_traits@std@D@1@@1@@Z
          448BD339CB742F8B742418:
            0. 4B 1F58 006B 0000:??$__find_first_of@std@V?$reverse_iterator@std@PB_Y@1@PB_YU?$_Eq_traits@std@V?$char_traits@std@_Y@1@@1@@std@@YA?AV?$reverse_iterator@std@PB_Y@1@V21@0PB_Y1U?$_Eq_traits@std@V?$char_traits@std@_Y@1@@1@@Z
      142B442410:
        50FF7424148B5424142B54241052FF742414FF710CE8:
          0. 00 0000 002A 0000:?do_compare@?$collate_byname@std@D@std@@MBEHPBD000@Z
        85C0790140D1F850FF7424148B5424142B54241085D279:
          0. 0D E887 0038 0000:?do_compare@?$collate_byname@std@_Y@std@@MBEHPB_Y000@Z
      18535657394424187C1EFF74241C8B4424:
        188B5C241C8D14185250E8:
          0. 00 0000 018D 0000:??$__copy_integer_and_fill@std@DPAD@std@@YAPADPBDHPADHHDDD@Z
        1C8B5C24188D14435253E8:
          0. 00 0000 01A6 0000:??$__copy_integer_and_fill@std@_YPA_Y@std@@YAPA_YPB_YHPA_YHH_Y_Y_Y@Z
    490C8B01FF74240CFF74240CFF1059C20800:
      0. 00 0000 0014 0000:?do_open@?$messages@std@D@std@@MBEHABV?$basic_string@std@DV?$char_traits@std@D@1@V?$allocator@std@D@1@@2@ABVlocale@2@@Z
    4C24:
      08:
        31D25053:
          31DB5657A1........8B349085F67419394E18750B8B3D:
            0. 00 0000 009B 0000:__addthreadtableentry
          56EB065E5B83C408C3A1........8B1C9085DB7405394B:
            0. 18 8093 0075 0000:__removethreadtableentry
        41508D4424045051E8........83C4088B44240483C408C3:
          0. 00 0000 001D 0000:_setdisk
        50:
          53:
            5556578B7C242039F9750A5F31C05E5D5B83C408C331D2:
              668B:
                0. 6B 3272 00E4 0000:??$__insert_grouping_aux@std@_Y@std@@YAHPA_Y0ABV?$basic_string@std@DV?$char_traits@std@D@1@V?$allocator@std@D@1@@1@_Y_Y_YH@Z
                1. 7C CA57 00F5 0000:??$__insert_grouping_aux@std@_Y@std@@YAHPA_Y0ABV?$basic_string@std@DV?$char_traits@std@D@1@V?$allocator@std@D@1@@1@_Y_Y_YH@Z
              8A01:
                0. 53 81EF 00BB 0000:??$__insert_grouping_aux@std@D@std@@YAHPAD0ABV?$basic_string@std@DV?$char_traits@std@D@1@V?$allocator@std@D@1@@1@DDDH@Z
                1. 64 FE00 00CC 0000:??$__insert_grouping_aux@std@D@std@@YAHPAD0ABV?$basic_string@std@DV?$char_traits@std@D@1@V?$allocator@std@D@1@@1@DDDH@Z
            56894C240CE8........8D54240C5268........E8:
              0. 02 F6B7 0050 0000:___unmangle_vc_exception_type
            8B:
              195531ED5657BFFFFFFFFFE8........BA3F000000895C24:
                0. 0B 97D5 01D5 (l)0000:UM_NESTNAME
              5C2410558B2D........565731FF66393974416A006A006A:
                0. 0E 3219 00E5 (l)0000:___make_ascii_envptr
            8D44240450FF7104E8........83C408FF7424148D5424088B:
              0. 07 A69E 0033 0000:__Locale_ctype_name
          833D........00742231D2381174340FB601F680........0474:
            0. 1A EA3A 004F 0000:__mbslen
        5356:
          31F685C975068B0D........894C2410565656566AFFFF7424:
            0. 0C EAC3 0075 0000:___wDeleteFile (0047: EB) (REF 005C: __imp__DeleteFileA@4)
            1. 0C EAC3 0075 0000:___wRemoveDirectory (0047: EB) (REF 005C: __imp__RemoveDirectoryA@4)
            2. 0C EAC3 0075 0000:___wSetCurrentDirectory (0047: EB) (REF 005C: __imp__SetCurrentDirectoryA@4)
            3. 0C EAC3 0078 0000:___wGetFileAttributes (0047: FF)
            4. 0C EAC3 0090 0000:___wCreateFile (0047: 15)
          8B31:
            5768........E8........89C783C404E93601000057E8:
              0. 00 0000 0181 (l)0000:UM_STRING
            8BD657460FBE3A83C7BF780583FF0A7E0431DBEB2A8BCF:
              0. 05 90FD 0057 (l)0000:UM_CALLING_CONVENTION
        80394C751F8079014375198079025F751368........FF742410E8:
          0. 00 0000 003C 0000:__Locale_extract_messages_name
        81F900010000505356725B833D........00744A894C24148B4C24:
          0. 25 6B96 0095 0000:__ismbcalpha (0031: 03) (REF 0072: .)
          1. 25 6B96 0095 0000:__ismbcalnum (0031: 07) (REF 0072: .)
          2. 25 6B96 0095 0000:__ismbcpunct (0031: 10) (REF 0072: .)
          3. 25 6B96 0095 0000:__ismbcgraph (0031: 17) (REF 0072: .)
          4. 25 6B96 0095 0000:__ismbcprint (0031: 57) (REF 0072: .)
        8D1449538D0C55........8B542410558B6C2424C1E20856578B7C:
          0. 04 A944 00F6 0000:_disp_box
        B867666666538B5C2410F7E989C8C1F81FC1FA022BD06BC20A2BC8:
          0. 1E 79EC 003E (l)0000:DECPUT
          1. 1B D568 003B (l)0000:DECPUT
        BA010000005053568B318A1E463915........7E146A040FBECB51:
          0. 01 3E9B 0082 (l)0000:UM_DIMENSION
      0C:
        53:
          568B7424102BCE5785C9790141D1F989CFC1FF027E79668B1E53:
            0. 05 CB5D 0108 0000:??$__find_if@std@PB_YV?$unary_negate@std@U_Ctype_byname_w_is_mask@1@@1@@std@@YAPB_YPB_Y0V?$unary_negate@std@U_Ctype_byname_w_is_mask@1@@1@ABUrandom_access_iterator_tag@1@@Z (00D3: 75)
            1. 05 CB5D 0108 0000:??$__find_if@std@PB_YU_Ctype_byname_w_is_mask@1@@std@@YAPB_YPB_Y0U_Ctype_byname_w_is_mask@1@ABUrandom_access_iterator_tag@1@@Z (00D3: 74)
          8B5C2414568B74241057833D........0074:
            5D803E008BD67419:
              0. 05 E596 008D 0000:__mbsncat
            63803E008BD67419:
              0. 05 E596 0093 0000:__mbsnbcat
        85C950538B5C2410568B74241CC60600785483F9057F4F803B4C0F:
          0. 24 DB08 00C8 0000:___Extract_locale_name
        8B:
          1150535631F6578B7C24188954240C8A02FF44240C0FBED883EB:
            0. 0D CE8D 0281 (l)0000:UM_DATA_TYPE
          542410535657833D........0074:
            4D8B5C241485D2742F8A0184:
              0. 0A F799 0083 0000:__mbsncpy
            538B5C241485D274358A0184:
              0. 0A 4684 0089 0000:__mbsnbcpy
        C1E102538B5C240C5651E8........83C40489C685C074188B5424:
          0. 0E 03D3 003B 0000:??$_Stl_copy_array@std@J@std@@YAPAJPBJI@Z (000C: C3)
      10:
        505355568B74241C2BCE5785C9790141D1F989CF85C97E64807C24:
          0. 7C 89D7 009C 0000:??$__copy@std@PA_YV?$ostreambuf_iterator@std@_YV?$char_traits@std@_Y@1@@1@H@std@@YA?AV?$ostreambuf_iterator@std@_YV?$char_traits@std@_Y@1@@1@PA_Y0V21@ABUrandom_access_iterator_tag@1@PAH@Z
        538B5C2410:
          568B74241057833D........007463803E008BD67419:
            0. 05 E596 0093 0000:__mbsnbcat
          833D........0074408BC3C1E8088944240474358B54:
            0. 41 A62B 006B 0000:__mbsnbset
        8B1150538B5C2414558B6C2420568B742418578B7C242C0FAFD503:
          0. 30 D7DE 0050 0000:__lfind
    510885D25389CB5674158B442410FF3052E8........83C40889C685C0EB:
      0. 15 975E 0041 0000:?do_open@_Messages_impl@std@@UBEHABV?$basic_string@std@DV?$char_traits@std@D@1@V?$allocator@std@D@1@@2@ABVlocale@2@@Z
    5424:
      08:
        31C0F682........047405B808000000B9........395110754AF7:
          0. 4E 971E 0084 0000:?_get_osfflags@_SgI@@YAHHPAX@Z
        535657894C240CFF32E8........8B4C241083C1045083EC048B41:
          0. 38 3BF5 008B 0000:??$_M_find@?$hashtable@std@U?$pairQBDPAXI@1@PBD_Select1st__eqstrV?$allocato@ABEPAH_nod@2@Z
        8D8A4FF8FFFF50535657894C240CDB44240CDC35........83EC08:
          0. 0C 43CC 00A5 (l)0000:_Jan1Day
      0C:
        31C985D2742A837C2408007410890C240FBE028B4C24086689018B:
          0. 19 345F 0039 0000:__fmbtowc
        508B44240C8B0853:
          31DB56573B0A742F8B7424188B3E8A07884424:
            0. 0F 6C31 004D 0000:??$__copy_digits@std@PBDD@std@@YA_NAAPBD0AAV?$basic_string@std@DV?$char_traits@std@D@1@V?$allocator@std@D@1@@1@PBD@Z
          5657C6442410003B0A742D8B7424188B3E8A1F:
            0. 10 2D2B 0050 0000:??$__copy_digits@std@PBDD@std@@YA_NAAPBD0AAV?$basic_string@std@DV?$char_traits@std@D@1@V?$allocator@std@D@1@@1@PBD@Z
          8B5C241C5657C6442410003B0A743F8B742418:
            0. 11 600F 0066 0000:??$__copy_digits@std@PB_Y_Y@std@@YA_NAAPB_Y0AAV?$basic_string@std@DV?$char_traits@std@D@1@V?$allocator@std@D@1@@1@PB_Y@Z
        8B:
          12505331DB568B7424145731FF895424108A0AFF442410EB0A8B:
            0. A7 22E2 0149 (l)0000:UM_TYPE_ENCODING
          4424085250E8........83C40859C3:
            0. 00 0000 0015 0000:_imaxabs
          CA538B5C240C895C2404803B0074:
            16803A0074098A023A03740B:
              0. 14 C780 0034 0000:_strcspn
            1B803A0074168A023A037408:
              0. 19 C075 0039 0000:_strspn
      10:
        5053:
          8B5C2414555631F6578B7C241C85FF0F847C01000083FA0119:
            0. 0A 2797 01EF 0000:_wcstombs
          8D44241C508D5C240C2B5424188954240C53E8........8B00:
            0. 0A 9421 002A 0000:?do_length@?$codecvt_byname@std@_YDU__stl_mbstate_t@@@std@@MBEHABU__stl_mbstate_t@@PBD1I@Z
        5356578D44240CC744240C000000008B4C24188B193B18750D8B5C:
          0. 36 0EAC 0056 0000:__Locale_unshift
        8B4C2408508B442410D900:
          538B5C2414D94304D9C9568B74241C8B:
            0. 4B B674 006B 0000:??$?Dstd@M@std@@YA?AU?$complex@std@M@1@ABU21@0@Z
          D902D9FFDEC9D900D9C9D91C24D902D9:
            0. 1B AA11 003B 0000:?polar@std@@YA?AU?$complex@std@M@1@ABM0@Z
      148B44240C538B5C24142BD856525350FF74241C8902FF710CE8:
        0. 00 0000 005E 0000:?do_unshift@?$codecvt_byname@std@_YDU__stl_mbstate_t@@@std@@MBE?AW4result@codecvt_base@2@AAU__stl_mbstate_t@@PAD1AAPAD@Z
  8D:
    042450:
      E8........83C4048B042459:
        48C3:
          0. 00 0000 0013 0000:_getdisk
        C3:
          0. 00 0000 0012 0000:__getdrive
      FF7424:
        10FF742410E8........83C40C:
          58C3:
            0. 00 0000 0017 0000:??$advance@std@PB_YH@std@@YAXAAPB_YH@Z (REF 000E: ??$__advance@std@PB_YH@std@@YAXAAPB_YHABUrandom_access_iterator_tag@1@@Z)
            1. 00 0000 0017 0000:??$advance@std@PBIH@std@@YAXAAPBIH@Z (REF 000E: ??$__advance@std@PBIH@std@@YAXAAPBIHABUrandom_access_iterator_tag@1@@Z)
            2. 00 0000 0017 0000:??$advance@std@PBDH@std@@YAXAAPBDH@Z (REF 000E: ??$__advance@std@PBDH@std@@YAXAAPBDHABUrandom_access_iterator_tag@1@@Z)
          59C3:
            0. 00 0000 0017 0000:??$distance@std@PBD@std@@YAHABQBD0@Z (REF 000E: ??$__distance@std@PBD@std@@YAHABQBD0ABUrandom_access_iterator_tag@1@@Z)
            1. 00 0000 0017 0000:??$distance@std@PB_Y@std@@YAHABQB_Y0@Z (REF 000E: ??$__distance@std@PB_Y@std@@YAHABQB_Y0ABUrandom_access_iterator_tag@1@@Z)
            2. 00 0000 0017 0000:??$distance@std@PAD@std@@YAHABQAD0@Z (REF 000E: ??$__distance@std@PAD@std@@YAHABQAD0ABUrandom_access_iterator_tag@1@@Z)
            3. 00 0000 0017 0000:??$distance@std@PA_Y@std@@YAHABQA_Y0@Z (REF 000E: ??$__distance@std@PA_Y@std@@YAHABQA_Y0ABUrandom_access_iterator_tag@1@@Z)
            4. 00 0000 0017 0000:??$distance@std@PBI@std@@YAHABQBI0@Z (REF 000E: ??$__distance@std@PBI@std@@YAHABQBI0ABUrandom_access_iterator_tag@1@@Z)
            5. 00 0000 0017 0000:??$distance@std@PAPAX@std@@YAHABQAPAX0@Z (REF 000E: ??$__distance@std@PAPAX@std@@YAHABQAPAX0ABUrandom_access_iterator_tag@1@@Z)
            6. 00 0000 0017 0000:_remainderf (REF 000E: _remquof)
        14FF742414FF742414E8........83C41059C3:
          0. 00 0000 001B 0000:??$__copy_aux@std@PB_YPAD@std@@YAPADPB_Y0PADABU__true_type@1@@Z (REF 0012: ??$__copy_ptrs@std@PB_YPAD@std@@YAPADPB_Y0PADABU__false_type@1@@Z)
          1. 00 0000 001B 0000:??$__copy_aux@std@PBDPA_Y@std@@YAPA_YPBD0PA_YABU__true_type@1@@Z (REF 0012: ??$__copy_ptrs@std@PBDPA_Y@std@@YAPA_YPBD0PA_YABU__false_type@1@@Z)
          2. 00 0000 001B 0000:??$__copy_aux@std@PAD0@std@@YAPADPAD00ABU__true_type@1@@Z (REF 0012: ??$__copy_ptrs@std@PAD0@std@@YAPADPAD00ABU__true_type@1@@Z)
          3. 00 0000 001B 0000:??$__uninitialized_copy@std@PAD0@std@@YAPADPAD00ABU__true_type@1@@Z (REF 0012: ??$__copy_aux@std@PAD0@std@@YAPADPAD00ABU__true_type@1@@Z)
          4. 00 0000 001B 0000:??$find_if@std@PBDU?$_Eq_char_bound@std@V?$char_traits@std@D@1@@1@@std@@YAPBDPBD0U?$_Eq_char_bound@std@V?$char_traits@std@D@1@@1@@Z (REF 0012: ??$__find_if@std@PBDU?$_Eq_char_bound@std@V?$char_traits@std@D@1@@1@@std@@YAPBDPBD0U?$_Eq_char_bound@std@V?$char_traits@std@D@1@@1@ABUrandom_access_iterator_tag@1@@Z)
          5. 00 0000 001B 0000:??$find_if@std@PADU?$_Eq_char_bound@std@V?$char_traits@std@D@1@@1@@std@@YAPADPAD0U?$_Eq_char_bound@std@V?$char_traits@std@D@1@@1@@Z (REF 0012: ??$__find_if@std@PADU?$_Eq_char_bound@std@V?$char_traits@std@D@1@@1@@std@@YAPADPAD0U?$_Eq_char_bound@std@V?$char_traits@std@D@1@@1@ABUrandom_access_iterator_tag@1@@Z)
          6. 00 0000 001B 0000:??$find_if@std@PBDU?$_Neq_char_bound@std@V?$char_traits@std@D@1@@1@@std@@YAPBDPBD0U?$_Neq_char_bound@std@V?$char_traits@std@D@1@@1@@Z (REF 0012: ??$__find_if@std@PBDU?$_Neq_char_bound@std@V?$char_traits@std@D@1@@1@@std@@YAPBDPBD0U?$_Neq_char_bound@std@V?$char_traits@std@D@1@@1@ABUrandom_access_iterator_tag@1@@Z)
          7. 00 0000 001B 0000:??$__copy_aux@std@PA_Y0@std@@YAPA_YPA_Y00ABU__true_type@1@@Z (REF 0012: ??$__copy_ptrs@std@PA_Y0@std@@YAPA_YPA_Y00ABU__true_type@1@@Z)
          8. 00 0000 001B 0000:??$__uninitialized_copy@std@PA_Y0@std@@YAPA_YPA_Y00ABU__true_type@1@@Z (REF 0012: ??$__copy_aux@std@PA_Y0@std@@YAPA_YPA_Y00ABU__true_type@1@@Z)
          9. 00 0000 001B 0000:??$find_if@std@PB_YU?$_Eq_char_bound@std@V?$char_traits@std@_Y@1@@1@@std@@YAPB_YPB_Y0U?$_Eq_char_bound@std@V?$char_traits@std@_Y@1@@1@@Z (REF 0012: ??$__find_if@std@PB_YU?$_Eq_char_bound@std@V?$char_traits@std@_Y@1@@1@@std@@YAPB_YPB_Y0U?$_Eq_char_bound@std@V?$char_traits@std@_Y@1@@1@ABUrandom_access_iterator_tag@1@@Z)
          10. 00 0000 001B 0000:??$find_if@std@PA_YU?$_Eq_char_bound@std@V?$char_traits@std@_Y@1@@1@@std@@YAPA_YPA_Y0U?$_Eq_char_bound@std@V?$char_traits@std@_Y@1@@1@@Z (REF 0012: ??$__find_if@std@PA_YU?$_Eq_char_bound@std@V?$char_traits@std@_Y@1@@1@@std@@YAPA_YPA_Y0U?$_Eq_char_bound@std@V?$char_traits@std@_Y@1@@1@ABUrandom_access_iterator_tag@1@@Z)
          11. 00 0000 001B 0000:??$find_if@std@PB_YU?$_Neq_char_bound@std@V?$char_traits@std@_Y@1@@1@@std@@YAPB_YPB_Y0U?$_Neq_char_bound@std@V?$char_traits@std@_Y@1@@1@@Z (REF 0012: ??$__find_if@std@PB_YU?$_Neq_char_bound@std@V?$char_traits@std@_Y@1@@1@@std@@YAPB_YPB_Y0U?$_Neq_char_bound@std@V?$char_traits@std@_Y@1@@1@ABUrandom_access_iterator_tag@1@@Z)
          12. 00 0000 001B 0000:??$__copy_aux@std@PAPAX0@std@@YAPAPAXPAPAX00ABU__true_type@1@@Z (REF 0012: ??$__copy_ptrs@std@PAPAX0@std@@YAPAPAXPAPAX00ABU__true_type@1@@Z)
          13. 00 0000 001B 0000:??$__uninitialized_copy@std@PAPAX0@std@@YAPAPAXPAPAX00ABU__true_type@1@@Z (REF 0012: ??$__copy_aux@std@PAPAX0@std@@YAPAPAXPAPAX00ABU__true_type@1@@Z)
          14. 00 0000 001B 0000:??$__copy_aux@std@PBQAXPAPAX@std@@YAPAPAXPBQAX0PAPAXABU__true_type@1@@Z (REF 0012: ??$__copy_ptrs@std@PBQAXPAPAX@std@@YAPAPAXPBQAX0PAPAXABU__true_type@1@@Z)
          15. 00 0000 001B 0000:??$__uninitialized_copy@std@PBQAXPAPAX@std@@YAPAPAXPBQAX0PAPAXABU__true_type@1@@Z (REF 0012: ??$__copy_aux@std@PBQAXPAPAX@std@@YAPAPAXPBQAX0PAPAXABU__true_type@1@@Z)
          16. 00 0000 001B 0000:??$__copy_aux@std@PADPA_Y@std@@YAPA_YPAD0PA_YABU__true_type@1@@Z (REF 0012: ??$__copy_ptrs@std@PADPA_Y@std@@YAPA_YPAD0PA_YABU__false_type@1@@Z)
          17. 00 0000 001B 0000:??$__uninitialized_copy@std@PADPA_Y@std@@YAPA_YPAD0PA_YABU__true_type@1@@Z (REF 0012: ??$__copy_aux@std@PADPA_Y@std@@YAPA_YPAD0PA_YABU__true_type@1@@Z)
          18. 00 0000 001B 0000:??$__copy_aux@std@PBDPAD@std@@YAPADPBD0PADABU__true_type@1@@Z (REF 0012: ??$__copy_ptrs@std@PBDPAD@std@@YAPADPBD0PADABU__true_type@1@@Z)
          19. 00 0000 001B 0000:??$__uninitialized_copy@std@PBDPAD@std@@YAPADPBD0PADABU__true_type@1@@Z (REF 0012: ??$__copy_aux@std@PBDPAD@std@@YAPADPBD0PADABU__true_type@1@@Z)
          20. 00 0000 001B 0000:??$__copy_aux@std@PB_YPA_Y@std@@YAPA_YPB_Y0PA_YABU__true_type@1@@Z (REF 0012: ??$__copy_ptrs@std@PB_YPA_Y@std@@YAPA_YPB_Y0PA_YABU__true_type@1@@Z)
          21. 00 0000 001B 0000:??$__uninitialized_copy@std@PB_YPA_Y@std@@YAPA_YPB_Y0PA_YABU__true_type@1@@Z (REF 0012: ??$__copy_aux@std@PB_YPA_Y@std@@YAPA_YPB_Y0PA_YABU__true_type@1@@Z)
          22. 00 0000 001B 0000:??$find_if@std@PB_YU?$_Eq_int_bound@std@V?$char_traits@std@_Y@1@@1@@std@@YAPB_YPB_Y0U?$_Eq_int_bound@std@V?$char_traits@std@_Y@1@@1@@Z (REF 0012: ??$__find_if@std@PB_YU?$_Eq_int_bound@std@V?$char_traits@std@_Y@1@@1@@std@@YAPB_YPB_Y0U?$_Eq_int_bound@std@V?$char_traits@std@_Y@1@@1@ABUrandom_access_iterator_tag@1@@Z)
          23. 00 0000 001B 0000:??$__copy_aux@std@PBU?$pair@std@P6AXW4event@ios_base@1@AAV31@H@ZH@1@PAU21@@std@@YAPAU?$pair@std@P6AXW4event@ios_base@1@AAV31@H@ZH@1@PBU21@0PAU21@ABU__true_type@1@@Z (REF 0012: ??$__copy_ptrs@std@PBU?$pair@std@P6AXW4event@ios_base@1@AAV31@H@ZH@1@PAU21@@std@@YAPAU?$pair@std@P6AXW4event@ios_base@1@AAV31@H@ZH@1@PBU21@0PAU21@ABU__false_type@1@@Z)
          24. 00 0000 001B 0000:??$__copy_aux@std@PBJPAJ@std@@YAPAJPBJ0PAJABU__true_type@1@@Z (REF 0012: ??$__copy_ptrs@std@PBJPAJ@std@@YAPAJPBJ0PAJABU__true_type@1@@Z)
          25. 00 0000 001B 0000:??$__copy_backward_aux@std@PAD0@std@@YAPADPAD00ABU__true_type@1@@Z (REF 0012: ??$__copy_backward_ptrs@std@PAD0@std@@YAPADPAD00ABU__true_type@1@@Z)
          26. 00 0000 001B 0000:??$__copy_backward_aux@std@PA_Y0@std@@YAPA_YPA_Y00ABU__true_type@1@@Z (REF 0012: ??$__copy_backward_ptrs@std@PA_Y0@std@@YAPA_YPA_Y00ABU__true_type@1@@Z)
        18FF742418FF742418FF742418E8........83C41459C3:
          0. 00 0000 001F 0000:_remainder (REF 0016: _remquo)
          1. 00 0000 001F 0000:??$find_if@std@PBDU?$_Not_within_traits@std@V?$char_traits@std@D@1@@1@@std@@YAPBDPBD0U?$_Not_within_traits@std@V?$char_traits@std@D@1@@1@@Z (REF 0016: ??$__find_if@std@PBDU?$_Not_within_traits@std@V?$char_traits@std@D@1@@1@@std@@YAPBDPBD0U?$_Not_within_traits@std@V?$char_traits@std@D@1@@1@ABUrandom_access_iterator_tag@1@@Z)
          2. 00 0000 001F 0000:??$find_if@std@PB_YU?$_Not_within_traits@std@V?$char_traits@std@_Y@1@@1@@std@@YAPB_YPB_Y0U?$_Not_within_traits@std@V?$char_traits@std@_Y@1@@1@@Z (REF 0016: ??$__find_if@std@PB_YU?$_Not_within_traits@std@V?$char_traits@std@_Y@1@@1@@std@@YAPB_YPB_Y0U?$_Not_within_traits@std@V?$char_traits@std@_Y@1@@1@ABUrandom_access_iterator_tag@1@@Z)
          3. 00 0000 001F 0000:??$find_if@std@PBDU_Ctype_is_mask@?$ctype@std@D@1@@std@@YAPBDPBD0U_Ctype_is_mask@?$ctype@std@D@1@@Z (REF 0016: ??$__find_if@std@PBDU_Ctype_is_mask@?$ctype@std@D@1@@std@@YAPBDPBD0U_Ctype_is_mask@?$ctype@std@D@1@ABUrandom_access_iterator_tag@1@@Z)
          4. 00 0000 001F 0000:??$find_if@std@PBDU_Ctype_not_mask@?$ctype@std@D@1@@std@@YAPBDPBD0U_Ctype_not_mask@?$ctype@std@D@1@@Z (REF 0016: ??$__find_if@std@PBDU_Ctype_not_mask@?$ctype@std@D@1@@std@@YAPBDPBD0U_Ctype_not_mask@?$ctype@std@D@1@ABUrandom_access_iterator_tag@1@@Z)
          5. 00 0000 001F 0000:??$find_if@std@PB_YU_Ctype_w_is_mask@?$ctype@std@D@1@@std@@YAPB_YPB_Y0U_Ctype_w_is_mask@?$ctype@std@D@1@@Z (REF 0016: ??$__find_if@std@PB_YU_Ctype_w_is_mask@?$ctype@std@D@1@@std@@YAPB_YPB_Y0U_Ctype_w_is_mask@?$ctype@std@D@1@ABUrandom_access_iterator_tag@1@@Z)
          6. 00 0000 001F 0000:??$find_if@std@PB_YV?$unary_negate@std@U_Ctype_w_is_mask@?$ctype@std@D@1@@1@@std@@YAPB_YPB_Y0V?$unary_negate@std@U_Ctype_w_is_mask@?$ctype@std@D@1@@1@@Z (REF 0016: ??$__find_if@std@PB_YV?$unary_negate@std@U_Ctype_w_is_mask@?$ctype@std@D@1@@1@@std@@YAPB_YPB_Y0V?$unary_negate@std@U_Ctype_w_is_mask@?$ctype@std@D@1@@1@ABUrandom_access_iterator_tag@1@@Z)
          7. 00 0000 001F 0000:??$find_if@std@PB_YU_Ctype_byname_w_is_mask@1@@std@@YAPB_YPB_Y0U_Ctype_byname_w_is_mask@1@@Z (REF 0016: ??$__find_if@std@PB_YU_Ctype_byname_w_is_mask@1@@std@@YAPB_YPB_Y0U_Ctype_byname_w_is_mask@1@ABUrandom_access_iterator_tag@1@@Z)
          8. 00 0000 001F 0000:??$find_if@std@PB_YV?$unary_negate@std@U_Ctype_byname_w_is_mask@1@@1@@std@@YAPB_YPB_Y0V?$unary_negate@std@U_Ctype_byname_w_is_mask@1@@1@@Z (REF 0016: ??$__find_if@std@PB_YV?$unary_negate@std@U_Ctype_byname_w_is_mask@1@@1@@std@@YAPB_YPB_Y0V?$unary_negate@std@U_Ctype_byname_w_is_mask@1@@1@ABUrandom_access_iterator_tag@1@@Z)
          9. 00 0000 001F 0000:??$copy@std@PBDV?$back_insert_iterator@std@V?$basic_string@std@DV?$char_traits@std@D@1@V?$allocator@std@D@1@@1@@1@@std@@YA?AV?$back_insert_iterator@std@V?$basic_string@std@DV?$char_traits@std@D@1@V?$allocator@std@D@1@@1@@1@PBD0V21@@Z (REF 0016: ??$__copy_aux@std@PBDV?$back_insert_iterator@std@V?$basic_string@std@DV?$char_traits@std@D@1@V?$allocator@std@D@1@@1@@1@@std@@YA?AV?$back_insert_iterator@std@V?$basic_string@std@DV?$char_traits@std@D@1@V?$allocator@std@D@1@@1@@1@PBD0V21@ABU__false_type@1@@Z)
    442410:
      50:
        8D4C2404C64424042E51FF742414FF742414E8........83C410:
          0. 02 E7E6 0022 0000:?__adjust_float_buffer@std@@YAXPAD0D@Z
        FF742410:
          8D4C24105168........68........E8........83C4:
            0. 03 40D0 0023 0000:_swscanf (REF 0010: _sgetwc)
            1. 03 40D0 0023 0000:_sscanf (REF 0010: _sgetc)
          FF742410:
            68........68........E8........83C414:
              0. 02 3FFF 0022 0000:_fwscanf (REF 000F: _fgetwc)
              1. 02 3FFF 0022 0000:_fscanf (REF 000F: _fgetc)
            E8........83C40C59C3:
              0. 00 0000 0018 0000:_sprintf (REF 000F: _vsprintf)
              1. 00 0000 0018 0000:_fwprintf (REF 000F: _vfwprintf)
              2. 00 0000 0018 0000:__swprintf (REF 000F: __vswprintf)
              3. 00 0000 0018 0000:_fprintf (REF 000F: _vfprintf)
      8B4C240C5051:
        8B54241052:
          68........68........E8........83:
            0. 04 67A3 0024 0000:_fwscanf (REF 0011: _fgetwc)
            1. 04 67A3 0024 0000:_fscanf (REF 0011: _fgetc)
          E8........83C40C59C3:
            0. 00 0000 001A 0000:_sprintf (REF 0011: _vsprintf)
            1. 00 0000 001A 0000:_fwprintf (REF 0011: _vfwprintf)
            2. 00 0000 001A 0000:__swprintf (REF 0011: __vswprintf)
            3. 00 0000 001A 0000:_fprintf (REF 0011: _vfprintf)
        8D5424105268........68........E8........83:
          0. 04 67A3 0024 0000:_swscanf (REF 0011: _sgetwc)
          1. 04 67A3 0024 0000:_sscanf (REF 0011: _sgetc)
    516450538BD95657894C240C8B43083B5008753889C73B1074328B53088D:
      0. 08 8A87 0081 0000:?_M_append_buffer@?$basic_stringbuf@std@DV?$char_traits@std@D@1@V?$allocator@std@D@1@@std@@ABEXXZ
  9BDFE083E03F0F84........50E8........DED99BDFE09BDBE29E58C3509B:
    0. 07 DB4D 00E7 0000:__FCOMPP@ 001E:__FTEST0@ 003E:__FTEST@ 0056:__DTST87@ 005A:__87TOPSW@ 005F:__DBLTO87@ 006A:__DBLINT87@ 008B:__DBLLNG87@ 00A7:__FLTTO87@ 00AE:__status87 00B3:__clear87 00BC:__control87 00E3:__fpreset
  A1........:
    2B05........85C0790140D1F8B9........50FF35........E8:
      0. 00 0000 0043 0000:___SD?%monetary_cpp3130235727_
    B9........2B05........50FF35........E8........B9:
      0. 00 0000 003D 0000:___SD?%locale_impl_cpp3086152336_
  B80100000053568A5C24103905........7E1768070100000FBECB51E8:
    0. 00 0000 004E (l)0000:?isword@@YAHD@Z
  B9:
    01000000535657:
      390D........7E6E6A088B5424188B52048B52048B4424:
        0. 11 E7EA 01DE 0000:?eatwhite@@YAXAAVistream@@@Z
      8B7C24148B078944240C390D........7E146A040FBE10:
        0. 02 4684 00D3 (l)0000:UM_ARGUMENT
    0300000050538B5C24108B4310563BC17C7283F8097F6D3BC17E0583F809:
      0. 0A 87B0 008E 0000:___adjustfordst
    E8030000538B5C240C8BC356998B74241457F7F989D3B964000000894424:
      0. 68 0A13 0088 (l)0000:DECPUT1
      1. 70 A893 0090 (l)0000:DECPUT1
    ........:
      53568B742410578BFE51E8........83C404BA........52E8:
        0. 00 0000 0078 0000:_gets (0057: C3)
        1. 00 0000 009A 0000:__getws (0057: 00)
      E8........:
        58C3:
          0. 00 0000 000D (!)0000:? (REF 0007: ??1Iostream_init@@QAE@XZ)
        68........E8........83C40458C3:
          0. 00 0000 001A 0000:___SI?%___ios_dbp_cpp3376406843_ (REF 000C: ___SD?%___ios_dbp_cpp3376406843_)
          1. 00 0000 001A 0000:___SI?%___ios_fstream_cpp3376531161_ (REF 000C: ___SD?%___ios_fstream_cpp3376531161_)
          2. 00 0000 001A 0000:___SI?%___ios_ios_cpp3376942015_ (REF 000C: ___SD?%___ios_ios_cpp3376942015_)
          3. 00 0000 001A 0000:___SI?%___ios_istream_cpp3377228925_ (REF 000C: ___SD?%___ios_istream_cpp3377228925_)
          4. 00 0000 001A 0000:___SI?%___ios_istreamf_cpp3377535623_ (REF 000C: ___SD?%___ios_istreamf_cpp3377535623_)
          5. 00 0000 001A 0000:___SI?%___ios_istreami_cpp3377742689_ (REF 000C: ___SD?%___ios_istreami_cpp3377742689_)
          6. 00 0000 001A 0000:___SI?%___ios_istreamx_cpp3377958671_ (REF 000C: ___SD?%___ios_istreamx_cpp3377958671_)
          7. 00 0000 001A 0000:___SI?%___ios_manip_cpp3378084005_ (REF 000C: ___SD?%___ios_manip_cpp3378084005_)
          8. 00 0000 001A 0000:___SI?%___ios_ostream_cpp3378223029_ (REF 000C: ___SD?%___ios_ostream_cpp3378223029_)
          9. 00 0000 001A 0000:___SI?%___ios_ostreamf_cpp3378453180_ (REF 000C: ___SD?%___ios_ostreamf_cpp3378453180_)
          10. 00 0000 001A 0000:___SI?%___ios_ostreami_cpp3378587539_ (REF 000C: ___SD?%___ios_ostreami_cpp3378587539_)
          11. 00 0000 001A 0000:___SI?%___ios_ostreamx_cpp3378713649_ (REF 000C: ___SD?%___ios_ostreamx_cpp3378713649_)
          12. 00 0000 001A 0000:___SI?%___ios_siosync_cpp3378838632_ (REF 000C: ___SD?%___ios_siosync_cpp3378838632_)
          13. 00 0000 001A 0000:___SI?%___ios_stdiostr_cpp3378964975_ (REF 000C: ___SD?%___ios_stdiostr_cpp3378964975_)
          14. 00 0000 001A 0000:___SI?%___ios_stream_cpp3379137379_ (REF 000C: ___SD?%___ios_stream_cpp3379137379_)
          15. 00 0000 001A 0000:___SI?%___ios_streambf_cpp3379314308_ (REF 000C: ___SD?%___ios_streambf_cpp3379314308_)
          16. 00 0000 001A 0000:___SI?%___ios_strstrea_cpp3379468333_ (REF 000C: ___SD?%___ios_strstrea_cpp3379468333_)
          17. 00 0000 001A 0000:___SI?%___ios_dbp_cpp1260246491_ (REF 000C: ___SD?%___ios_dbp_cpp1260246491_)
          18. 00 0000 001A 0000:___SI?%___ios_fstream_cpp1515117721_ (REF 000C: ___SD?%___ios_fstream_cpp1515117721_)
          19. 00 0000 001A 0000:___SI?%___ios_ios_cpp1515709053_ (REF 000C: ___SD?%___ios_ios_cpp1515709053_)
          20. 00 0000 001A 0000:___SI?%___ios_istream_cpp1516082929_ (REF 000C: ___SD?%___ios_istream_cpp1516082929_)
          21. 00 0000 001A 0000:___SI?%___ios_istreamf_cpp1516428638_ (REF 000C: ___SD?%___ios_istreamf_cpp1516428638_)
          22. 00 0000 001A 0000:___SI?%___ios_istreami_cpp1516693087_ (REF 000C: ___SD?%___ios_istreami_cpp1516693087_)
          23. 00 0000 001A 0000:___SI?%___ios_istreamx_cpp1517019911_ (REF 000C: ___SD?%___ios_istreamx_cpp1517019911_)
          24. 00 0000 001A 0000:___SI?%___ios_manip_cpp1517198711_ (REF 000C: ___SD?%___ios_manip_cpp1517198711_)
          25. 00 0000 001A 0000:___SI?%___ios_ostream_cpp1517584131_ (REF 000C: ___SD?%___ios_ostream_cpp1517584131_)
          26. 00 0000 001A 0000:___SI?%___ios_ostreamf_cpp1517828611_ (REF 000C: ___SD?%___ios_ostreamf_cpp1517828611_)
          27. 00 0000 001A 0000:___SI?%___ios_ostreami_cpp1518002869_ (REF 000C: ___SD?%___ios_ostreami_cpp1518002869_)
          28. 00 0000 001A 0000:___SI?%___ios_ostreamx_cpp1518177367_ (REF 000C: ___SD?%___ios_ostreamx_cpp1518177367_)
          29. 00 0000 001A 0000:___SI?%___ios_siosync_cpp1518693015_ (REF 000C: ___SD?%___ios_siosync_cpp1518693015_)
          30. 00 0000 001A 0000:___SI?%___ios_stdiostr_cpp1518849923_ (REF 000C: ___SD?%___ios_stdiostr_cpp1518849923_)
          31. 00 0000 001A 0000:___SI?%___ios_stream_cpp1519068497_ (REF 000C: ___SD?%___ios_stream_cpp1519068497_)
          32. 00 0000 001A 0000:___SI?%___ios_streambf_cpp1519396301_ (REF 000C: ___SD?%___ios_streambf_cpp1519396301_)
          33. 00 0000 001A 0000:___SI?%___ios_strstrea_cpp1519587503_ (REF 000C: ___SD?%___ios_strstrea_cpp1519587503_)
          34. 00 0000 001A 0000:___SI?%___ios_dbp_cpp1923249699_ (REF 000C: ___SD?%___ios_dbp_cpp1923249699_)
          35. 00 0000 001A 0000:___SI?%___ios_fstream_cpp1923379608_ (REF 000C: ___SD?%___ios_fstream_cpp1923379608_)
          36. 00 0000 001A 0000:___SI?%___ios_ios_cpp1923797112_ (REF 000C: ___SD?%___ios_ios_cpp1923797112_)
          37. 00 0000 001A 0000:___SI?%___ios_istream_cpp1924097496_ (REF 000C: ___SD?%___ios_istream_cpp1924097496_)
          38. 00 0000 001A 0000:___SI?%___ios_istreamf_cpp1924417705_ (REF 000C: ___SD?%___ios_istreamf_cpp1924417705_)
          39. 00 0000 001A 0000:___SI?%___ios_istreami_cpp1924637708_ (REF 000C: ___SD?%___ios_istreami_cpp1924637708_)
          40. 00 0000 001A 0000:___SI?%___ios_istreamx_cpp1924858155_ (REF 000C: ___SD?%___ios_istreamx_cpp1924858155_)
          41. 00 0000 001A 0000:___SI?%___ios_manip_cpp1924989993_ (REF 000C: ___SD?%___ios_manip_cpp1924989993_)
          42. 00 0000 001A 0000:___SI?%___ios_ostream_cpp1925135514_ (REF 000C: ___SD?%___ios_ostream_cpp1925135514_)
          43. 00 0000 001A 0000:___SI?%___ios_ostreamf_cpp1925363744_ (REF 000C: ___SD?%___ios_ostreamf_cpp1925363744_)
          44. 00 0000 001A 0000:___SI?%___ios_ostreami_cpp1925506459_ (REF 000C: ___SD?%___ios_ostreami_cpp1925506459_)
          45. 00 0000 001A 0000:___SI?%___ios_ostreamx_cpp1925640312_ (REF 000C: ___SD?%___ios_ostreamx_cpp1925640312_)
          46. 00 0000 001A 0000:___SI?%___ios_siosync_cpp1925772366_ (REF 000C: ___SD?%___ios_siosync_cpp1925772366_)
          47. 00 0000 001A 0000:___SI?%___ios_stdiostr_cpp1925907891_ (REF 000C: ___SD?%___ios_stdiostr_cpp1925907891_)
          48. 00 0000 001A 0000:___SI?%___ios_stream_cpp1926094821_ (REF 000C: ___SD?%___ios_stream_cpp1926094821_)
          49. 00 0000 001A 0000:___SI?%___ios_streambf_cpp1926280558_ (REF 000C: ___SD?%___ios_streambf_cpp1926280558_)
          50. 00 0000 001A 0000:___SI?%___ios_strstrea_cpp1926449857_ (REF 000C: ___SD?%___ios_strstrea_cpp1926449857_)
          51. 00 0000 001A 0000:___SI?%___ios_dbp_cpp4029037910_ (REF 000C: ___SD?%___ios_dbp_cpp4029037910_)
          52. 00 0000 001A 0000:___SI?%___ios_fstream_cpp4031151624_ (REF 000C: ___SD?%___ios_fstream_cpp4031151624_)
          53. 00 0000 001A 0000:___SI?%___ios_ios_cpp4031558602_ (REF 000C: ___SD?%___ios_ios_cpp4031558602_)
          54. 00 0000 001A 0000:___SI?%___ios_istream_cpp4031863001_ (REF 000C: ___SD?%___ios_istream_cpp4031863001_)
          55. 00 0000 001A 0000:___SI?%___ios_istreamf_cpp4032175576_ (REF 000C: ___SD?%___ios_istreamf_cpp4032175576_)
          56. 00 0000 001A 0000:___SI?%___ios_istreami_cpp4032399521_ (REF 000C: ___SD?%___ios_istreami_cpp4032399521_)
          57. 00 0000 001A 0000:___SI?%___ios_istreamx_cpp4032681564_ (REF 000C: ___SD?%___ios_istreamx_cpp4032681564_)
          58. 00 0000 001A 0000:___SI?%___ios_manip_cpp4032872678_ (REF 000C: ___SD?%___ios_manip_cpp4032872678_)
          59. 00 0000 001A 0000:___SI?%___ios_ostream_cpp4033111574_ (REF 000C: ___SD?%___ios_ostream_cpp4033111574_)
          60. 00 0000 001A 0000:___SI?%___ios_ostreamf_cpp4033388907_ (REF 000C: ___SD?%___ios_ostreamf_cpp4033388907_)
          61. 00 0000 001A 0000:___SI?%___ios_ostreami_cpp4033531431_ (REF 000C: ___SD?%___ios_ostreami_cpp4033531431_)
          62. 00 0000 001A 0000:___SI?%___ios_ostreamx_cpp4033664532_ (REF 000C: ___SD?%___ios_ostreamx_cpp4033664532_)
          63. 00 0000 001A 0000:___SI?%___ios_siosync_cpp4033990122_ (REF 000C: ___SD?%___ios_siosync_cpp4033990122_)
          64. 00 0000 001A 0000:___SI?%___ios_stdiostr_cpp4034165506_ (REF 000C: ___SD?%___ios_stdiostr_cpp4034165506_)
          65. 00 0000 001A 0000:___SI?%___ios_stream_cpp4034344740_ (REF 000C: ___SD?%___ios_stream_cpp4034344740_)
          66. 00 0000 001A 0000:___SI?%___ios_streambf_cpp4034529437_ (REF 000C: ___SD?%___ios_streambf_cpp4034529437_)
          67. 00 0000 001A 0000:___SI?%___ios_strstrea_cpp4034687617_ (REF 000C: ___SD?%___ios_strstrea_cpp4034687617_)
          68. 00 0000 001A 0000:___SI?%fstream_cpp3018898426_ (REF 000C: ___SD?%fstream_cpp3018898426_)
          69. 00 0000 001A 0000:___SI?%locale_cpp3054126116_ (REF 000C: ___SD?%locale_cpp3054126116_)
          70. 00 0000 001A 0000:___SI?%fstream_cpp3054400749_ (REF 000C: ___SD?%fstream_cpp3054400749_)
          71. 00 0000 001A 0000:___SI?%locale_cpp3094471847_ (REF 000C: ___SD?%locale_cpp3094471847_)
        6A01B9........E8........6A01B9........E8:
          0. 00 0000 004A 0000:___SI?%___ios_iostream_cpp1923949581_ (REF 003C: ___SD?%___ios_iostream_cpp1923949581_)
          1. 00 0000 004A 0000:___SI?%___ios_iostream_cpp3377086866_ (REF 003C: ___SD?%___ios_iostream_cpp3377086866_)
        B9........:
          6A01E8........B9........6A01E8:
            0. 00 0000 004A 0000:___SI?%___ios_iostream_cpp4031715251_ (REF 003C: ___SD?%___ios_iostream_cpp4031715251_)
            1. 00 0000 004A 0000:___SI?%___ios_iostream_cpp1515896496_ (REF 003C: ___SD?%___ios_iostream_cpp1515896496_)
          E8........B9........E8........B9:
            0. 00 0000 0035 (!)0000:?
  D94424:
    08D944240C83EC14DB7C240ADB3C24E8........83C41459C3:
      0. 00 0000 001D 0000:_cacosf (REF 0014: _cacosl)
      1. 00 0000 001D 0000:_casinf (REF 0014: _casinl)
      2. 00 0000 001D 0000:_catanf (REF 0014: _catanl)
      3. 00 0000 001D 0000:_ccosf (REF 0014: _ccosl)
      4. 00 0000 001D 0000:_csinf (REF 0014: _csinl)
      5. 00 0000 001D 0000:_ctanf (REF 0014: _ctanl)
      6. 00 0000 001D 0000:_cacoshf (REF 0014: _cacoshl)
      7. 00 0000 001D 0000:_casinhf (REF 0014: _casinhl)
      8. 00 0000 001D 0000:_catanhf (REF 0014: _catanhl)
      9. 00 0000 001D 0000:_ccoshf (REF 0014: _ccoshl)
      10. 00 0000 001D 0000:_csinhf (REF 0014: _csinhl)
      11. 00 0000 001D 0000:_ctanhf (REF 0014: _ctanhl)
      12. 00 0000 001D 0000:_cexpf (REF 0014: _cexpl)
      13. 00 0000 001D 0000:_clogf (REF 0014: _clogl)
      14. 00 0000 001D 0000:_clog10f (REF 0014: _clog10l)
      15. 00 0000 001D 0000:_csqrtf (REF 0014: _csqrtl)
      16. 00 0000 001D 0000:_cprojf (REF 0014: _cprojl)
      17. 00 0000 001D 0000:_cabsf (REF 0014: _cabsl)
    0C83EC:
      08DD1C24D944241083EC08DD1C24E8........83C41059C3:
        0. 00 0000 001F 0000:_powf
      0CDB3C24D944241483EC0CDB3C24E8........83C41859C3:
        0. 00 0000 001F 0000:_fmodf (REF 0016: __fmod87)
        1. 00 0000 001F 0000:_hypotf (REF 0016: _hypotl)
        2. 00 0000 001F 0000:_atan2f (REF 0016: _atan2l)
    10D944241483EC14:
      D9C9D944241CD9CAD9C9D9442420D9CADB7C240A:
        0. 0E AF19 0037 0000:_cpowf
      DB7C240ADB3C24D944241CD944242083EC14DB7C:
        0. 06 9E1A 002F 0000:_cpowf
  DD4424:
    08:
      83EC0CDB3C24E8:
        5301000083C40C59C3D944240483EC0CDB3C24E8:
          0. 38 32DC 09A5 0000:_tgamma 0015:_tgammaf 0028:_lgamma 0040:_lgammaf 0163:_tgammal 0520:_lgammal
        ........83C40C59C3:
          0. 00 0000 0015 0000:_expm1 (REF 000C: _expm1l)
          1. 00 0000 0015 0000:_exp (REF 000C: _expl)
          2. 00 0000 0015 0000:_tanh (REF 000C: _tanhl)
          3. 00 0000 0015 0000:_erf (REF 000C: _erfl)
          4. 00 0000 0015 0000:_erfc (REF 000C: _erfcl)
          5. 00 0000 0015 0000:_log1p (REF 000C: _log1pl)
          6. 00 0000 0015 0000:_ceil (REF 000C: __ceil87)
          7. 00 0000 0015 0000:_floor (REF 000C: __floor87)
          8. 00 0000 0015 0000:_tan (REF 000C: _tanl)
          9. 00 0000 0015 0000:_tgamma (REF 000C: _tgammal)
          10. 00 0000 0015 0000:_lgamma (REF 000C: _lgammal)
      DD44241083EC14DB7C240ADB3C24E8........83C41459C3:
        0. 00 0000 001D 0000:_cacos (REF 0014: _cacosl)
        1. 00 0000 001D 0000:_casin (REF 0014: _casinl)
        2. 00 0000 001D 0000:_catan (REF 0014: _catanl)
        3. 00 0000 001D 0000:_ccos (REF 0014: _ccosl)
        4. 00 0000 001D 0000:_csin (REF 0014: _csinl)
        5. 00 0000 001D 0000:_ctan (REF 0014: _ctanl)
        6. 00 0000 001D 0000:_cacosh (REF 0014: _cacoshl)
        7. 00 0000 001D 0000:_casinh (REF 0014: _casinhl)
        8. 00 0000 001D 0000:_catanh (REF 0014: _catanhl)
        9. 00 0000 001D 0000:_ccosh (REF 0014: _ccoshl)
        10. 00 0000 001D 0000:_csinh (REF 0014: _csinhl)
        11. 00 0000 001D 0000:_ctanh (REF 0014: _ctanhl)
        12. 00 0000 001D 0000:_cexp (REF 0014: _cexpl)
        13. 00 0000 001D 0000:_clog (REF 0014: _clogl)
        14. 00 0000 001D 0000:_clog10 (REF 0014: _clog10l)
        15. 00 0000 001D 0000:_csqrt (REF 0014: _csqrtl)
        16. 00 0000 001D 0000:_cproj (REF 0014: _cprojl)
        17. 00 0000 001D 0000:_cabs (REF 0014: _cabsl)
    1083EC0CDB3C24DD44241483EC0CDB3C24E8........83C41859C3:
      0. 00 0000 001F 0000:_pow (REF 0016: _powl)
      1. 00 0000 001F 0000:_fmod (REF 0016: __fmod87)
      2. 00 0000 001F 0000:_hypot (REF 0016: _hypotl)
      3. 00 0000 001F 0000:_atan2 (REF 0016: _atan2l)
    18DD44242083EC14:
      D9C9DD44241CD9CAD9C9DD442424D9CADB7C240A:
        0. 0E AF19 0037 0000:_cpow
      DB7C240ADB3C24DD44241CDD44242483EC14DB7C:
        0. 06 9E1A 002F 0000:_cpow
  E8........:
    058C00000059C3:
      0. 00 0000 000D 0000:___doserrno
    3D0F0100007D256A1068........68........6A00FF15:
      0. 00 0000 0039 0000:_CheckWin32sVer
    50E8........83C40459C3:
      0. 00 0000 0011 (!)0000:?
    58C3:
      0. 00 0000 0008 (l!)0000:? (REF 0002: ?terminate@@YAXXZ)
      1. 00 0000 0008 0000:?unexpected@std@@YAXXZ (REF 0002: ?unexpected@@YAXXZ)
      2. 00 0000 0008 (l)0000:?terminate_default@@YAXXZ (REF 0002: _abort)
    803D........0075146A00B9........FE05........6A10E8:
      0. 00 0000 002F 0000:?CreateMainHeap@RTLMultiPool@@SAXXZ
    83C0:
      1059C3:
        0. 00 0000 000B 0000:__errno (REF 0002: __getthreaddata)
      2050:
        668B44240C50E8........83C40859C3:
          0. 00 0000 001A 0000:_fputwchar
        E8........8B4424108B4C240C5051E8........83C0:
          0. 03 4EF9 0062 0000:_vwprintf (REF 0023: __fputwc_nlock)
          1. 03 4EF9 0062 0000:_vprintf (REF 0023: __fputc_nlock)
    85C075045931C0C3E8........59C3:
      0. 00 0000 0015 0000:_findnext
    89042468000C0000E8........:
      DB6C240C:
        D9:
          E4DFE0:
            9EDDD8720E:
              0. 06 8250 0053 0000:_roundl
            DDD89E720E:
              0. 06 8250 0052 0000:_roundl
          FC:
            8B442404DB7C24:
              0. 03 DEDB 0030 0000:_truncl
            DB7C240CFF7424:
              0. 02 6103 002F 0000:_truncl
        DB2D........DED9DF:
          0. 0C 3683 0059 0000:_roundl
      DD44240C:
        D9:
          E4DFE0:
            9EDDD8720C:
              0. 06 8B92 004F 0000:_round
            DDD89E720C:
              0. 06 8B92 004E 0000:_round
          FC:
            8B442404DD5C24:
              0. 03 DEDB 0030 0000:_trunc
            DD5C240CFF7424:
              0. 02 6103 002F 0000:_trunc
        DC1D........DFE09E:
          0. 08 FBD4 0051 0000:_round
    A3........58C3:
      0. 00 0000 000D 0000:__STI_clock (REF 0002: _clock)
    E8........A3........58C3:
      0. 00 0000 0012 0000:?_S_initialize@locale@std@@SAXXZ (REF 0002: ?_Stl_loc_assign_ids@std@@YAXXZ)
    FF80A4020000833D........007408FF15........EB05E8:
      0. 00 0000 0029 0000:?terminate@@YAXXZ
    ..:
      0. 00 0000 0006 0000:?__eh_error@@YAXXZ (REF 0002: _abort)
  FF:
    15........:
      2B05........59C3:
        0. 00 0000 000F 0000:_clock (REF 0003: __imp__GetTickCount@0)
      59C3:
        0. 00 0000 0009 0000:_getpid (REF 0003: __imp__GetCurrentProcessId@0)
    35........FF:
      15........FF35........FF15........58C3:
        0. 00 0000 001B 0000:__STD_conio
      35........:
        E8........FF35........D91D........FF35:
          0. 00 0000 004B 0000:___SI?%complex_trig_cpp3036469778_
        FF35........:
          DD44241483EC0CDB3C24E8:
            0. 00 0000 0027 0000:_atan
          FF74241CFF74241CFF74241CE8:
            0. 00 0000 0029 0000:_atanl
    71:
      0CE8........83C404:
        59C3:
          0. 00 0000 000E 0000:?do_decimal_point@?$numpunct_byname@std@D@std@@MBEDXZ (REF 0005: __Locale_decimal_point)
          1. 00 0000 000E 0000:?do_thousands_sep@?$numpunct_byname@std@D@std@@MBEDXZ (REF 0005: __Locale_thousands_sep)
          2. 00 0000 000E 0000:?do_max_length@?$codecvt_byname@std@_YDU__stl_mbstate_t@@@std@@MBEHXZ (REF 0005: __Locale_mb_cur_max)
        669859C3:
          0. 00 0000 0010 0000:?do_thousands_sep@?$numpunct_byname@std@_Y@std@@MBE_YXZ (REF 0005: __Locale_thousands_sep)
          1. 00 0000 0010 0000:?do_decimal_point@?$numpunct_byname@std@_Y@std@@MBE_YXZ (REF 0005: __Locale_decimal_point)
      14E8........:
        0FBEC083C40459C3:
          0. 00 0000 0011 (!)0000:?
        83C404:
          59C3:
            0. 00 0000 000E (!)0000:?
          669859C3:
            0. 00 0000 0010 (!)0000:?
    7424:
      08:
        6A:
          01E8........83C40885C074088B4C240C8A11881058C3:
            0. 00 0000 001D 0000:??$_Construct@std@DD@std@@YAXPADABD@Z
          02E8........83C40885C0740A8B4C240C668B1166891058C3:
            0. 00 0000 001F 0000:??$_Construct@std@_Y_Y@std@@YAXPA_YAB_Y@Z
        8B44241085C07505B8........5068........68........E8:
          0. 00 0000 002C 0000:?genericerror@@YAXHPAD@Z
        E8........:
          83C404:
            59C3:
              0. 00 0000 000F (l)0000:_disp2_putc
            B9FFFFFFFF3BC1752E6800010000FF74240CE8:
              0. 00 0000 004B 0000:_creatnew
          8B4C2410BAFFFFFFFF890183C4043BC289D0740231C0:
            0. 02 3FFF 0022 0000:_fgetpos
        FF:
          15........83F8FF89042474128B04248B4C240C253700000089:
            0. 06 9183 002C 0000:_dos_getfileattr
          710CE8........83C40859C20400:
            0. 00 0000 0014 0000:?do_tolower@?$ctype_byname@std@_Y@std@@MBE_Y_Y@Z (REF 0009: __Locale_wchar_tolower)
            1. 00 0000 0014 0000:?do_toupper@?$ctype_byname@std@_Y@std@@MBE_Y_Y@Z (REF 0009: __Locale_wchar_toupper)
          742418FF7424188B442418FF3485........FF742424FF742424:
            0. 02 A996 0035 0000:?_VerboseAssert@?$__stl_debug_engine@std@_N@std@@SAXPBDH0H@Z
      0C:
        6802030000FF742410E8........83C40C59C3:
          0. 00 0000 0018 0000:__wcreat (REF 000F: __wopen)
          1. 00 0000 0018 0000:_creat (REF 000F: _open)
        8B:
          4424:
            0C8D480451FF30E8........83C40C59C3:
              0. 00 0000 0019 (!)0000:?
            108D480251FF742410E8........83C40C58C3:
              0. 00 0000 001B 0000:_getftime
          4C240CE8........:
            58C3:
              0. 00 0000 0010 0000:_RTLPoolFree
            59C3:
              0. 00 0000 0010 0000:??$?8std@_YV?$char_traits@std@_Y@0@@std@@YA_NABV?$istreambuf_iterator@std@_YV?$char_traits@std@_Y@1@@1@0@Z (REF 000A: ?equal@?$istreambuf_iterator@std@_YV?$char_traits@std@_Y@1@@std@@QBE_NABV12@@Z)
              1. 00 0000 0010 0000:??$?8std@DV?$char_traits@std@D@0@@std@@YA_NABV?$istreambuf_iterator@std@DV?$char_traits@std@D@1@@1@0@Z (REF 000A: ?equal@?$istreambuf_iterator@std@DV?$char_traits@std@D@1@@std@@QBE_NABV12@@Z)
            8B44240859C3:
              0. 00 0000 0014 (l)0000:?sios@@YAAAVios@@AAV1@J@Z (REF 000A: ?setf@ios@@QAEJJ@Z)
              1. 00 0000 0014 0000:??$?5std@DV?$char_traits@std@D@0@@std@@YAAAV?$basic_istream@std@DV?$char_traits@std@D@1@@1@AAV21@AAD@Z (REF 000A: ?_M_formatted_get@?$basic_istream@std@DV?$char_traits@std@D@1@@std@@QAEXAAD@Z)
              2. 00 0000 0014 (l)0000:?rsios@@YAAAVios@@AAV1@J@Z (REF 000A: ?unsetf@ios@@QAEJJ@Z)
        D944240C83EC08DD1C24E8........83C40C59C3:
          0. 00 0000 0019 0000:_frexpf
        E8........83C404:
          3D008000007D0EDB44240CD9442408D9FDDDD9:
            0. 0B FD88 0049 0000:_scalbf
          50FF74240CE8........:
            59C20800:
              0. 00 0000 001B (l)0000:STR_CAT1
            83C40450E8:
              0. 08 3FE3 0028 0000:?before@type_info@std@@QBA_NABV12@@Z (REF 0006: ?name@type_info@std@@QBAPBDXZ)
              1. 08 3FE3 0028 0000:?before@Type_info@@QBAHABV1@@Z (REF 0006: ?name@Type_info@@QBAPBDXZ)
          8D04450200000050FF742410FF742410E8:
            0. 00 0000 0027 0000:_wcscpy
        FF74240C:
          68........68........68........E8........83C414:
            0. 02 3FFF 0022 0000:_vscanf
          6A00E8........83C40C85C074045931C0C3E8:
            0. 07 E2F9 0027 0000:__wrename
          E8........83C4:
            0450E8........59C20800:
              0. 00 0000 001B (l)0000:STR_CAT12 (REF 0013: STR_CAT1)
              1. 00 0000 001B (l)0000:STR_CAT2 (REF 0013: STR_CAT)
            08:
              59C3:
                0. 00 0000 0013 0000:__expand (REF 000A: _realloc)
                1. 00 0000 0013 0000:_putc (REF 000A: _fputc)
                2. 00 0000 0013 0000:__tcschr (REF 000A: __mbschr)
                3. 00 0000 0013 0000:__tcscmp (REF 000A: __mbscmp)
                4. 00 0000 0013 0000:__tcscspn (REF 000A: __mbscspn)
                5. 00 0000 0013 0000:__tcsicmp (REF 000A: __mbsicmp)
                6. 00 0000 0013 0000:__tcsninc (REF 000A: __mbsninc)
                7. 00 0000 0013 0000:__tcsdec (REF 000A: __mbsdec)
                8. 00 0000 0013 0000:__tcsstr (REF 000A: __mbsstr)
                9. 00 0000 0013 0000:__tcsspn (REF 000A: __mbsspn)
                10. 00 0000 0013 0000:__tcspbrk (REF 000A: __mbspbrk)
                11. 00 0000 0013 0000:__tcsrchr (REF 000A: __mbsrchr)
                12. 00 0000 0013 0000:__tcstok (REF 000A: __mbstok)
                13. 00 0000 0013 0000:_putwc (REF 000A: _fputwc)
                14. 00 0000 0013 0000:_imaxabs (REF 000A: _llabs)
                15. 00 0000 0013 0000:?_Loc_ctype_name@std@@YAPADPBXPAD@Z (REF 000A: __Locale_ctype_name)
                16. 00 0000 0013 0000:?_Loc_numeric_name@std@@YAPADPBXPAD@Z (REF 000A: __Locale_numeric_name)
                17. 00 0000 0013 0000:?_Loc_time_name@std@@YAPADPBXPAD@Z (REF 000A: __Locale_time_name)
                18. 00 0000 0013 0000:?_Loc_collate_name@std@@YAPADPBXPAD@Z (REF 000A: __Locale_collate_name)
                19. 00 0000 0013 0000:?_Loc_monetary_name@std@@YAPADPBXPAD@Z (REF 000A: __Locale_monetary_name)
                20. 00 0000 0013 0000:?_Loc_messages_name@std@@YAPADPBXPAD@Z (REF 000A: __Locale_messages_name)
              84C0740431C0EB05B80100000059C3:
                0. 00 0000 0020 0000:??$?9std@V?$reverse_iterator@std@PB_Y@0@@std@@YA_NABV?$reverse_iterator@std@PB_Y@1@0@Z (REF 000A: ??$?8std@PB_Y@std@@YA_NABV?$reverse_iterator@std@PB_Y@1@0@Z)
                1. 00 0000 0020 0000:??$?9std@V?$istreambuf_iterator@std@DV?$char_traits@std@D@1@@0@@std@@YA_NABV?$istreambuf_iterator@std@DV?$char_traits@std@D@1@@1@0@Z (REF 000A: ??$?8std@DV?$char_traits@std@D@0@@std@@YA_NABV?$istreambuf_iterator@std@DV?$char_traits@std@D@1@@1@0@Z)
                2. 00 0000 0020 0000:??$?9std@U?$_Ht_iterator@pai_OHVlocale@1@Noncst_traitsHhashHSelect1stequal_toV?$al@0@YA_NAB0@Z (REF 000A: ??$?8std@U?$pair@_OHVlocale@1@@0_Noncst_traits1HhashHSelect1stequal_toV?$alto@YA_NABHt_iter10@Z)
                3. 00 0000 0020 0000:??$?9std@U?$_Ht_iterator@paiQBDPAXI@1@Noncst_traitsPhashBDSelect1stU__eqstrV?$alloc@0@YA_NAB0@Z (REF 000A: ??$?8std@U?$pair@QBDPAXI@1@@0_Noncst_traits1PhashBDSelect1stU__eqstrV?$allocato@YA_NABHt_iter10@Z)
                4. 00 0000 0020 0000:??$?9std@V?$basic_string@std@DV?$char_traits@std@D@1@V?$allocator@std@D@1@@0@@std@@YA_NABV?$basic_string@std@DV?$char_traits@std@D@1@V?$allocator@std@D@1@@1@0@Z (REF 000A: ??$?8std@DV?$char_traits@std@D@0@V?$allocator@std@D@0@@std@@YA_NABV?$basic_string@std@DV?$char_traits@std@D@1@V?$allocator@std@D@1@@1@0@Z)
                5. 00 0000 0020 0000:??$?9std@V?$istreambuf_iterator@std@_YV?$char_traits@std@_Y@1@@0@@std@@YA_NABV?$istreambuf_iterator@std@_YV?$char_traits@std@_Y@1@@1@0@Z (REF 000A: ??$?8std@_YV?$char_traits@std@_Y@0@@std@@YA_NABV?$istreambuf_iterator@std@_YV?$char_traits@std@_Y@1@@1@0@Z)
                6. 00 0000 0020 0000:??$?9std@V?$reverse_iterator@std@PBD@0@@std@@YA_NABV?$reverse_iterator@std@PBD@1@0@Z (REF 000A: ??$?8std@PBD@std@@YA_NABV?$reverse_iterator@std@PBD@1@0@Z)
          FF15........:
            58C3:
              0. 00 0000 0011 0000:_sound_note
            85C074045931C0C3E8........:
              59C3:
                0. 00 0000 001E 0000:_dos_setfileattr
              B8FFFFFF:
                0. 03 47F0 0023 0000:_rename
      10:
        6A40FF742414FF742414E8........83C41059C3:
          0. 00 0000 0019 0000:__wopen (REF 0010: __wsopen)
          1. 00 0000 0019 0000:_open (REF 0010: _sopen)
        FF742410FF742410E8........:
          83C40C59C3:
            0. 00 0000 0017 0000:_floorl (REF 000E: __floor87)
            1. 00 0000 0017 0000:??$__uninitialized_fill_n@std@PADID@std@@YAPADPADIABDABU__true_type@1@@Z (REF 000E: ??$fill_n@std@I@std@@YAPADPADIABD@Z)
            2. 00 0000 0017 0000:??$__uninitialized_fill_n@std@PA_YI_Y@std@@YAPA_YPA_YIAB_YABU__true_type@1@@Z (REF 000E: ??$fill_n@std@PA_YI_Y@std@@YAPA_YPA_YIAB_Y@Z)
            3. 00 0000 0017 0000:??$__uninitialized_fill_n@std@PAPAXIPAX@std@@YAPAPAXPAPAXIABQAXABU__true_type@1@@Z (REF 000E: ??$fill_n@std@PAPAXIPAX@std@@YAPAPAXPAPAXIABQAX@Z)
            4. 00 0000 0017 0000:??$__put_time@std@PAD@std@@YAPADPAD00ABVios_base@1@D@Z (REF 000E: ??$copy@std@PAD0@std@@YAPADPAD00@Z)
            5. 00 0000 0017 0000:_ceill (REF 000E: __ceil87)
          8B442420DB3883C40CFF742410FF:
            0. 0F 6598 005C 0000:_modfl (002C: C3)
            1. 0F 6598 0060 0000:_modfl (002C: 83)
      14FF742414FF742414FF742414E8........83C41059:
        C21000:
          0. 00 0000 001D 0000:?do_compare@?$collate@std@_Y@std@@MBEHPB_Y000@Z (REF 0012: ??$__lexicographical_compare_3way@std@PB_Y0@std@@YAHPB_Y000@Z)
          1. 00 0000 001D 0000:?do_compare@?$collate@std@D@std@@MBEHPBD000@Z (REF 0012: ??$__lexicographical_compare_3way@std@PBD0@std@@YAHPBD000@Z)
        C3:
          0. 00 0000 001B 0000:_vswprintf
      18:
        8D442405508D4C240851FF742420FF742420FF742420FF742420E8:
          0. 00 0000 0029 0000:??$find_end@std@PB_Y0U?$_Eq_traits@std@V?$char_traits@std@_Y@1@@1@@std@@YAPB_YPB_Y000U?$_Eq_traits@std@V?$char_traits@std@_Y@1@@1@@Z (REF 0020: ??$__find_end@std@PB_Y0U?$_Eq_traits@std@V?$char_traits@std@_Y@1@@1@@std@@YAPB_YPB_Y000ABUbidirectional_iterator_tag@1@1U?$_Eq_traits@std@V?$char_traits@std@_Y@1@@1@@Z)
          1. 00 0000 0029 0000:??$find_end@std@PBD0U?$_Eq_traits@std@V?$char_traits@std@D@1@@1@@std@@YAPBDPBD000U?$_Eq_traits@std@V?$char_traits@std@D@1@@1@@Z (REF 0020: ??$__find_end@std@PBD0U?$_Eq_traits@std@V?$char_traits@std@D@1@@1@@std@@YAPBDPBD000ABUbidirectional_iterator_tag@1@1U?$_Eq_traits@std@V?$char_traits@std@D@1@@1@@Z)
        FF742418FF742418FF742418FF742418E8........83C41459C3:
          0. 00 0000 001F 0000:??$__put_time@std@V?$ostreambuf_iterator@std@DV?$char_traits@std@D@1@@1@@std@@YA?AV?$ostreambuf_iterator@std@DV?$char_traits@std@D@1@@1@PAD0V21@ABVios_base@1@D@Z
    B128020000E8........83C40459C3:
      0. 00 0000 0011 (!)0000:?
51:
  31:
    C05389CB8B5304568943088B720403F35739461075588B7E0C85FF742639:
      0. 21 0A9A 0096 0000:?do_ipfx@istream@@IAEHH@Z
    D251538B5C24105689CE8B46045789108B7E048B44241C8957043BC2895E:
      0. 09 B616 015D 0000:?test@RegExp@@QAEHPADH@Z
  51:
    53:
      55:
        56:
          5789:
            CE8B:
              5C241C8B56048B5204837C32140074116A00E8:
                0. 87 833C 0117 0000:??5istream@@QAEAAV0@PAVstreambuf@@@Z
              6C241C8B46048B5004837C32140074116A00E8:
                0. 5E FC74 0141 0000:??5istream@@QAEAAV0@PAD@Z
              7C241C8B56048B5204837C32140074116A00E8:
                0. 68 57C7 0395 0000:?floatstr@istream@@AAEXPAD@Z
            CF:
              397C241C0F84:
                C20000008B47088B178B5C241C8B74241C8B:
                  0. 15 C1D6 00E0 0000:??4?$vector@std@DV?$allocator@std@D@1@@std@@QAEAAV01@ABV01@@Z
                D10000008B47088B172BC285C07901408B5C:
                  0. 25 8E25 00EF 0000:??4?$vector@std@_YV?$allocator@std@_Y@1@@std@@QAEAAV01@ABV01@@Z
                EB0000008B47088B172BC285C07901408B5C:
                  0. 25 ADA5 0109 0000:??4?$vector@std@_YV?$allocator@std@_Y@1@@std@@QAEAAV01@ABV01@@Z
              8B:
                5C241C8B57048B5204837C3A140074116A00E8:
                  0. 87 B1B4 0117 0000:??5istream@@QAEAAV0@PAVstreambuf@@@Z
                6C241C8B47048B5004837C3A140074116A00E8:
                  0. 5E D11C 0141 0000:??5istream@@QAEAAV0@PAD@Z
          89CE8B5604578B52048B7C241C837C32140074116A00E8:
            0. 66 4C1D 0391 0000:?floatstr@istream@@AAEXPAD@Z
        8B6C241456:
          5789CF8B47048B5004837C3A140074116A00E8:
            0. 5D 2A02 0146 0000:??5istream@@QAEAAV0@PAD@Z
          89CE8B4604578B5004837C32140074116A00E8:
            0. 5D E4D0 0146 0000:??5istream@@QAEAAV0@PAD@Z
      56:
        5789:
          CB8B41280FBE1089D083FA620F849500000083F8660F84960000:
            0. EF 1638 0287 0000:?escape@RegExp@@AAEHXZ
            1. EF C67F 028F 0000:?escape@RegExp@@AAEHXZ
          CE31D28B5C24188B460489108B7E048B44241C895704895E083B:
            0. 09 32D0 015D 0000:?test@RegExp@@QAEHPADH@Z
        89:
          CB6683793000740A5E5B83C40831C0C204008B5424148B73088953:
            0. 18 1D23 00A6 0000:?attach@filebuf@@QAEPAV1@H@Z
          CE57:
            8B7C241C6A006A006A006A026A00FF36FF15........85C089:
              0. 29 052B 0082 0000:?_M_mmap@_Filebuf_base@std@@QAEPAXJJ@Z
            FF71108B0D........E8........85C0894604894424107465:
              0. 6C 992E 008C 0000:?ThreadNewBlock@RTLPool@@AAEXXZ
        8B:
          510489CE8B5204837C321400740D6A00E8........85C07467EB04:
            0. 56 C4F4 008F 0000:??5istream@@QAEAAV0@AAD@Z
          71048B06578974240C8B54240C0346043B02740F895424108B5C24:
            0. 14 7EDF 0034 0000:?underflow@?$basic_stringbuf@std@DV?$char_traits@std@D@1@V?$allocator@std@D@1@@std@@MAEHXZ
      6800040000E8........83C40485C089442408750A5B:
        83C408B8FFFFFF:
          0. 26 9F85 0046 0000:?doallocate@streambuf@@MAEHXZ
        B8FFFFFFFF83C4:
          0. 26 6AB7 0046 0000:?doallocate@streambuf@@MAEHXZ
      6A008B4424148B5424188D1C105350E8........8B4424085B83C408C2:
        0. 02 87C1 0022 0000:?setbuf@streambuf@@UAEPAV1@PADH@Z
      89CB:
        555657395C241C0F84080100008B43088B132BC29981E203000000:
          0. 31 464E 0126 0000:??4?$vector@std@PAXV?$allocator@std@PAX@1@@std@@QAEAAV01@ABV01@@Z
        56:
          395C24140F840D0100008B43088B132BC29981E20300000003C2:
            0. 2F B3CB 0127 0000:??4?$vector@std@PAXV?$allocator@std@PAX@1@@std@@QAEAAV01@ABV01@@Z
          57:
            8079:
              3000750431C0EB05B8010000008844240C807B3800742E:
                0. 28 0F09 00D5 0000:?close@?$basic_filebuf@std@_YV?$char_traits@std@_Y@1@@std@@QAEPAV12@XZ
              3800746B807B340075658D4354894424108B4B448D5424:
                0. 42 A5A8 0084 0000:?_M_unshift@?$basic_filebuf@std@_YV?$char_traits@std@_Y@1@@std@@AAE_NXZ
              68007471807B6400756B8D8384000000894424108B4B74:
                0. 48 656A 008A 0000:?_M_unshift@?$basic_filebuf@std@DV?$char_traits@std@D@1@@std@@AAE_NXZ
            837928FF750666C74330000066837B300075095F31C05E5B83:
              0. 40 1EC2 008E 0000:?close@filebuf@@QAEPAV1@XZ
            8B7C241C6A006A006A006A026A00FF33FF15........85C089:
              0. 29 FBB0 0082 0000:?_M_mmap@_Filebuf_base@std@@QAEPAXJJ@Z
          6683793000740A5E31C05B83C408C2040066C7433001008B5424:
            0. 18 C062 00A9 0000:?attach@filebuf@@QAEPAV1@H@Z
          68........8B4C2418E8........89C189:
            43708B00FF5010BA01:
              0. 4D 2EAB 006D 0000:?_M_setup_codecvt@?$basic_filebuf@std@_YV?$char_traits@std@_Y@1@@std@@AAEXABVlocale@2@@Z
            83A00000008B00FF50:
              0. 5C 66F3 007C 0000:?_M_setup_codecvt@?$basic_filebuf@std@DV?$char_traits@std@D@1@@std@@AAEXABVlocale@2@@Z
          8D542418528D54241852E8........83C40889C685C074108BCE:
            0. 05 A433 005A 0000:??$_M_range_initialize@?$vector@std@PAXV?$allocator@std@PAX@1@@std@PAPAX@?$vector@std@PAXV?$allocator@std@PAX@1@@std@@IAEXPAPAX0ABUforward_iterator_tag@2@@Z
          C641:
            390057807B380074:
              606AFF8B03FF50306683F8FFB9010000:
                0. 17 2F94 00A1 0000:?_M_seek_init@?$basic_filebuf@std@_YV?$char_traits@std@_Y@1@@std@@AAE_N_N@Z
              6E6AFF8B03FF5030B9FFFFFFFF6639C8:
                0. 25 2045 00AF 0000:?_M_seek_init@?$basic_filebuf@std@_YV?$char_traits@std@_Y@1@@std@@AAE_N_N@Z
            690057807B680074646AFF8B03FF503083F8FFB901000000:
              0. 16 9A08 00BF 0000:?_M_seek_init@?$basic_filebuf@std@DV?$char_traits@std@D@1@@std@@AAE_N_N@Z
        8079300074638D5324F74208100000007457807B37007551807B39:
          0. 0A BE5D 0075 0000:?_M_switch_to_output_mode@?$basic_filebuf@std@_YV?$char_traits@std@_Y@1@@std@@AAE_NXZ
      8B:
        41:
          0456578B5004BBFFFFFFFF03542410F642108475156A:
            016A018B4A:
              0. 24 23B1 0051 0000:?tellg@istream@@QAEJXZ
            026A018B4A:
              0. 24 23B1 0051 0000:?tellp@ostream@@QAEJXZ
          14565789CB85C074072B43107418EB0439E474128B036AFFFF5018:
            0. 3B 1E03 009C 0000:?sync@filebuf@@UAEHXZ
          28565789CB3DFFFFFFFF750666C74330000066837B300075095F5E:
            0. 45 1B09 0094 0000:?close@filebuf@@QAEPAV1@XZ
        590485DB74078B5B0485DB75F98B4C2408E8........89C383380074:
          0. 04 9232 0034 0000:?CheckGroup@RTLHeapBlock@@QAEXXZ
        5C2410:
          55:
            56:
              5789CF8B57048B5204837C3A140074116A00E8:
                0. 85 96DC 0116 0000:??5istream@@QAEAAV0@PAVstreambuf@@@Z
              89CE8B5604578B5204837C32140074116A00E8:
                0. 85 729F 0116 0000:??5istream@@QAEAAV0@PAVstreambuf@@@Z
            8B6C24188BD5562BD38B7424205789CF:
              3BD689542414721E:
                0. 09 62CA 006D 0000:?replace@?$basic_string@std@DV?$char_traits@std@D@1@V?$allocator@std@D@1@@std@@QAEAAV12@PAD0ID@Z
              85D2790142D1FA3B:
                0. 0E 166D 0070 0000:?replace@?$basic_string@std@_YV?$char_traits@std@_Y@1@V?$allocator@std@_Y@1@@std@@QAEAAV12@PA_Y0I_Y@Z
          85DB:
            5589CD568B74241C578B7C2424747285FF7E048BD7EB14:
              0. 0B 33EF 0094 0000:?_M_setup@strstreambuf@std@@AAEXPAD0H@Z
            567505BB0100000039590472148D43FFC1E8038B118B0C:
              0. 02 7DDB 005C 0000:?Alloc@RTLMultiPool@@QAEPAXK@Z
          FF742414E8........89038B4424088943048BC35B83C408C2:
            0. 02 87C1 0022 0000:??$find@hashtable@std@U?$pairQBDPAXI@1@PBD_Select1st__eqstrV?$allocato@QAE?AHt_iterNoncst_traits2@AB@Z (REF 000C: ??$_M_find@?$hashtable@std@U?$pairQBDPAXI@1@PBD_Select1st__eqstrV?$allocato@ABEPAH_nod@2@Z)
            1. 02 87C1 0022 0000:??$find@hashtable@std@U?$pair_OHVloca1@HH_Select1stequal_toV?$alto@QAE?AHt_iterNoncst_traits2@ABH@Z (REF 000C: ??$_M_find@?$hashtable@std@U?$pair@std@_OHVlocale@1@@1@HU?$hash@std@H@1@U?$_Select1st@std@U?$pair@std@_OHVlocale@1@@1@@1@U?$equal_to@std@H@1@V?$allocator@std@U?$pair@std@HVlocale@1@@1@@1@@std@H@?$hashtable@std@U?$pair@std@_OHVlocale@1@@1@HU?$hash@std@H@1@U?$_Select1st@std@U?$pair@std@_OHVlocale@1@@1@@1@U?$equal_to@std@H@1@V?$allocator@std@U?$pair@std@HVlocale@1@@1@@1@@std@@ABEPAU?$_Hashtable_node@std@U?$pair@std@_OHVlocale@1@@1@@2@ABH@Z)
      E8........8B4424088D58:
        04FF7304FF33E8........8BCBE8:
          0. 08 F5A4 0028 0000:??1?$hashtable@std@U?$pair@std@QBDU?$pair@std@PAXI@1@@1@PBDU?$hash@std@PBD@1@U?$_Select1st@std@U?$pair@std@QBDU?$pair@std@PAXI@1@@1@@1@U__eqstr@1@V?$allocator@std@U?$pair@std@PBDU?$pair@std@PAXI@1@@1@@1@@std@@QAE@XZ
        08FF7304FF33E8........8BCBE8:
          0. 08 F5A4 0028 0000:??1?$hashtable@std@U?$pair@std@_OHVlocale@1@@1@HU?$hash@std@H@1@U?$_Select1st@std@U?$pair@std@_OHVlocale@1@@1@@1@U?$equal_to@std@H@1@V?$allocator@std@U?$pair@std@HVlocale@1@@1@@1@@std@@QAE@XZ
    8D:
      44240450FF742414FF742414E8........83C408C20C00:
        0. 00 0000 001A 0000:??$_M_append_dispatch@?$basic_string@std@DV?$char_traits@std@D@1@V?$allocator@std@D@1@@std@PBD@?$basic_string@std@DV?$char_traits@std@D@1@V?$allocator@std@D@1@@std@@AAEAAV12@PBD0ABU__false_type@2@@Z (REF 0010: ??$append@?$basic_string@std@DV?$char_traits@std@D@1@V?$allocator@std@D@1@@std@PBD@?$basic_string@std@DV?$char_traits@std@D@1@V?$allocator@std@D@1@@std@@AAEAAV12@PBD0ABUforward_iterator_tag@2@@Z)
        1. 00 0000 001A 0000:??$_M_initialize_aux@?$vector@std@PAXV?$allocator@std@PAX@1@@std@PAPAX@?$vector@std@PAXV?$allocator@std@PAX@1@@std@@QAEXPAPAX0ABU__false_type@2@@Z (REF 0010: ??$_M_range_initialize@?$vector@std@PAXV?$allocator@std@PAX@1@@std@PAPAX@?$vector@std@PAXV?$allocator@std@PAX@1@@std@@IAEXPAPAX0ABUforward_iterator_tag@2@@Z)
        2. 00 0000 001A 0000:??$_M_append_dispatch@?$basic_string@std@_YV?$char_traits@std@_Y@1@V?$allocator@std@_Y@1@@std@PA_Y@?$basic_string@std@_YV?$char_traits@std@_Y@1@V?$allocator@std@_Y@1@@std@@AAEAAV12@PA_Y0ABU__false_type@2@@Z (REF 0010: ??$append@?$basic_string@std@_YV?$char_traits@std@_Y@1@V?$allocator@std@_Y@1@@std@PA_Y@?$basic_string@std@_YV?$char_traits@std@_Y@1@V?$allocator@std@_Y@1@@std@@AAEAAV12@PA_Y0ABUforward_iterator_tag@2@@Z)
        3. 00 0000 001A 0000:??$_M_append_dispatch@?$basic_string@std@_YV?$char_traits@std@_Y@1@V?$allocator@std@_Y@1@@std@PB_Y@?$basic_string@std@_YV?$char_traits@std@_Y@1@V?$allocator@std@_Y@1@@std@@AAEAAV12@PB_Y0ABU__false_type@2@@Z (REF 0010: ??$append@?$basic_string@std@_YV?$char_traits@std@_Y@1@V?$allocator@std@_Y@1@@std@PB_Y@?$basic_string@std@_YV?$char_traits@std@_Y@1@V?$allocator@std@_Y@1@@std@@AAEAAV12@PB_Y0ABUforward_iterator_tag@2@@Z)
        4. 00 0000 001A 0000:??$_M_append_dispatch@?$basic_string@std@DV?$char_traits@std@D@1@V?$allocator@std@D@1@@std@PAD@?$basic_string@std@DV?$char_traits@std@D@1@V?$allocator@std@D@1@@std@@AAEAAV12@PAD0ABU__false_type@2@@Z (REF 0010: ??$append@?$basic_string@std@DV?$char_traits@std@D@1@V?$allocator@std@D@1@@std@PAD@?$basic_string@std@DV?$char_traits@std@D@1@V?$allocator@std@D@1@@std@@AAEAAV12@PAD0ABUforward_iterator_tag@2@@Z)
      49:
        28FF74240CE8........8B4C2404E8........83C408C20400:
          0. 00 0000 001D 0000:?str@?$basic_stringbuf@std@_YV?$char_traits@std@_Y@1@V?$allocator@std@_Y@1@@std@@QAEXABV?$basic_string@std@_YV?$char_traits@std@_Y@1@V?$allocator@std@_Y@1@@2@@Z
        58FF74240CE8........8B4C2404E8........83C408C20400:
          0. 00 0000 001D 0000:?str@?$basic_stringbuf@std@DV?$char_traits@std@D@1@V?$allocator@std@D@1@@std@@QAEXABV?$basic_string@std@DV?$char_traits@std@D@1@V?$allocator@std@D@1@@2@@Z
    E8........83C40459C3:
      0. 00 0000 000C 0000:?underflow@?$basic_filebuf@std@_YV?$char_traits@std@_Y@1@@std@@MAE_YXZ (REF 0003: ?_M_doit@?$_Underflow@std@_YV?$char_traits@std@_Y@1@@std@@SA_YPAV?$basic_filebuf@std@_YV?$char_traits@std@_Y@1@@2@@Z)
      1. 00 0000 000C 0000:?underflow@?$basic_filebuf@std@DV?$char_traits@std@D@1@@std@@MAEHXZ (REF 0003: ?_M_doit@?$_Underflow@std@DV?$char_traits@std@D@1@@std@@SAHPAV?$basic_filebuf@std@DV?$char_traits@std@D@1@@2@@Z)
    FF74240CE8........85C089442404740D8B44240483C40883C004C20400:
      0. 09 368E 0033 0000:?find_or_insert@?$hashtable@std@U?$pair@std@QBDU?$pair@std@PAXI@1@@1@PBDU?$hash@std@PBD@1@U?$_Select1st@std@U?$pair@std@QBDU?$pair@std@PAXI@1@@1@@1@U__eqstr@1@V?$allocator@std@U?$pair@std@PBDU?$pair@std@PAXI@1@@1@@1@@std@@QAEAAU?$pair@std@QBDU?$pair@std@PAXI@1@@2@ABU32@@Z (REF 0007: ??$_M_find@?$hashtable@std@U?$pairQBDPAXI@1@PBD_Select1st__eqstrV?$allocato@ABEPAH_nod@2@Z)
      1. 09 368E 0033 0000:?find_or_insert@?$hashtable@std@U?$pair@std@_OHVlocale@1@@1@HU?$hash@std@H@1@U?$_Select1st@std@U?$pair@std@_OHVlocale@1@@1@@1@U?$equal_to@std@H@1@V?$allocator@std@U?$pair@std@HVlocale@1@@1@@1@@std@@QAEAAU?$pair@std@_OHVlocale@1@@2@ABU32@@Z (REF 0007: ??$_M_find@?$hashtable@std@U?$pair@std@_OHVlocale@1@@1@HU?$hash@std@H@1@U?$_Select1st@std@U?$pair@std@_OHVlocale@1@@1@@1@U?$equal_to@std@H@1@V?$allocator@std@U?$pair@std@HVlocale@1@@1@@1@@std@H@?$hashtable@std@U?$pair@std@_OHVlocale@1@@1@HU?$hash@std@H@1@U?$_Select1st@std@U?$pair@std@_OHVlocale@1@@1@@1@U?$equal_to@std@H@1@V?$allocator@std@U?$pair@std@HVlocale@1@@1@@1@@std@@ABEPAU?$_Hashtable_node@std@U?$pair@std@_OHVlocale@1@@1@@2@ABH@Z)
  53:
    31DB568B7424108BD6570FBE0683F82B740C83F82D740F83F8307412EB38:
      0. 01 20FB 006D 0000:?printint@ostream@@AAEXPBD@Z
    5556:
      5789:
        CB8B6C24:
          188B53048B7C241C8B5204F7441A14FFFEFFFF74116A:
            0. 02 D97D 00E3 0000:?read@istream@@QAEAAV1@PADH@Z
          1C8B:
            53248B43208B7C24183BD0760689D62BF0EB0231:
              0. 07 D9E3 00AD 0000:?xsgetn@streambuf@@UAEHPADH@Z
            7B188B53148B7424182BFA7E10575652E8:
              0. 00 0000 00AC 0000:?xsputn@streambuf@@UAEHPBDH@Z
        CE8B56048B7C24188B5204F7443214FFFEFFFF740D6A01E8:
          0. 00 0000 0093 0000:?ignore@istream@@QAEAAV1@HH@Z
      89CE:
        8B5604578B52048B7C2418F7443214FFFEFFFF740D6A01E8:
          0. 00 0000 0093 0000:?ignore@istream@@QAEAAV1@HH@Z
        8D5E0C578DBB10020000C701........8B57088B072BD08D4F08:
          0. 03 2648 00AE 0000:??1?$time_put@std@DV?$ostreambuf_iterator@std@DV?$char_traits@std@D@1@@1@@std@@MAE@XZ (REF 0012: ??_Q?$time_put@std@DV?$ostreambuf_iterator@std@DV?$char_traits@std@D@1@@1@@std@@6B@)
          1. 03 2648 00AE 0000:??1?$time_get@std@_YV?$istreambuf_iterator@std@_YV?$char_traits@std@_Y@1@@1@@std@@MAE@XZ (REF 0012: ??_Q?$time_get@std@_YV?$istreambuf_iterator@std@_YV?$char_traits@std@_Y@1@@1@@std@@6B@)
          2. 03 2648 00AE 0000:??1?$time_put@std@_YV?$ostreambuf_iterator@std@_YV?$char_traits@std@_Y@1@@1@@std@@MAE@XZ (REF 0012: ??_Q?$time_put@std@_YV?$ostreambuf_iterator@std@_YV?$char_traits@std@_Y@1@@1@@std@@6B@)
          3. 03 2648 00AE 0000:??1?$time_get@std@DV?$istreambuf_iterator@std@DV?$char_traits@std@D@1@@1@@std@@MAE@XZ (REF 0012: ??_Q?$time_get@std@DV?$istreambuf_iterator@std@DV?$char_traits@std@D@1@@1@@std@@6B@)
    56:
      57:
        31DB8B7424148BD60FBE0683F82B740C83F82D740F83F8307412EB38:
          0. 01 20FB 006E 0000:?printint@ostream@@AAEXPBD@Z
        89:
          CB8B:
            4424148B7C2418BEFFFFFFFF83FF02751BF6433004750485C0:
              0. 8B 7F74 0123 0000:?seekoff@strstreambuf@@UAEJJW4seek_dir@ios@@H@Z
            5424:
              1466837B0400741F8B430885C074183BC2741489542414:
                0. 05 D6BF 0076 0000:?setb@streambuf@@IAEXPAD0H@Z
              1866837B040074218B430885C0741A3B44241474148954:
                0. 07 CC93 0078 0000:?setb@streambuf@@IAEXPAD0H@Z
            7C24148BD7C1E20252E8........83C40489C685C0743B8B43:
              0. 12 34D3 0060 0000:?usersize@ios@@AAEXH@Z
          CF8B5C24148B57048B5204837C3A1800740FE8........85C00F84:
            0. 81 9BF9 00B5 0000:??6ostream@@QAEAAV0@PAVstreambuf@@@Z
        8B:
          411889CA8B5C24188B742414F7D3215A18237424180972188B7A18:
            0. 21 19BB 0041 0000:?setf@ios@@QAEJJJ@Z
          44241489CB8B50048B72048B7C06088B4304578B48048D4C0B04E8:
            0. 00 0000 002D (!)0000:?
          54241889CBF6C208740580CA02EB0B8AC2240F3C02750380CA1066:
            0. 13 A088 0083 0000:?open@fstreambase@@QAEXPBDHH@Z
      89:
        CB:
          8B:
            53188B7424142B53143BD67C1D568B542414528B531452E8:
              0. 00 0000 0041 0000:?sputn@streambuf@@QAEHPBDH@Z
            74241456E8........:
              568B130353048B4C24145152E8:
                0. 0C 88E4 002C 0000:?write@RegBuffer@@QAEXPBXI@Z
              8B4B048B132B4C24105103542414528D0C:
                0. 03 B354 0033 (!)0000:? (000F: 00)
          BEFFFFFFFF8B53048B520403D3F642108475156A:
            016A018B4A086A:
              0. 1A B886 0044 0000:?tellg@istream@@QAEJXZ
            026A018B4A086A:
              0. 1A B886 0044 0000:?tellp@ostream@@QAEJXZ
        CE8B:
          5604578B7C24142B1685D2790142D1FA3BD772108B068D1C78FF:
            0. 04 B91C 003F 0000:?resize@?$basic_string@std@_YV?$char_traits@std@_Y@1@V?$allocator@std@_Y@1@@std@@QAEXI_Y@Z
          5E2C578B7C241485DB74158B4E24FF74D9FC5657FF54D9F84B83:
            0. 0D D53D 002D 0000:?_M_invoke_callbacks@ios_base@std@@IAEXW4event@12@@Z
      8B:
        411889CA894424088B5C2410:
          095A188B7218F7C6010000007406804A:
            0. 12 0CC6 0032 0000:?setf@ios@@QAEJJ@Z
          F7D3215A188B7218F7C6010000007406:
            0. 14 D7AF 0034 0000:?unsetf@ios@@QAEJJ@Z
        510489CE8B52048B5C32088B53203B532472138B138BCBFF520C83F8:
          0. 2C 327F 0058 0000:?do_get@istream@@AAEDXZ
        74241085F65789CF744E8D5F1C8B43042B039981E20300000003C2C1:
          0. 1C 23FD 0063 0000:?remove@_Locale@std@@QAEXI@Z
    89CB:
      31C0568943088B5304578B720403F339461075578B7E0C85FF742639:
        0. 21 0A9A 0095 0000:?do_ipfx@istream@@IAEHH@Z
      395C240C740E8B44240CFF7004FF30E8........8BC35B59C20400:
        0. 00 0000 001F 0000:??4?$basic_string@std@_YV?$char_traits@std@_Y@1@V?$allocator@std@_Y@1@@std@@QAEAAV01@ABV01@@Z (REF 0014: ??$assign@?$basic_string@std@_YV?$char_traits@std@_Y@1@V?$allocator@std@_Y@1@@std@PA_Y@?$basic_string@std@_YV?$char_traits@std@_Y@1@V?$allocator@std@_Y@1@@std@@QAEAAV12@PA_Y0@Z)
        1. 00 0000 001F 0000:??4?$basic_string@std@DV?$char_traits@std@D@1@V?$allocator@std@D@1@@std@@QAEAAV01@ABV01@@Z (REF 0014: ??$assign@?$basic_string@std@DV?$char_traits@std@D@1@V?$allocator@std@D@1@@std@PAD@?$basic_string@std@DV?$char_traits@std@D@1@V?$allocator@std@D@1@@std@@QAEAAV12@PAD0@Z)
      55568DB1100200008B5608578B062BD0528D4E0850E8........8DBB:
        0. 11 642F 009E 0000:??1_Time_Info@std@@QAE@XZ
      56:
        57:
          6A00E8........8BCBFF742414E8........8B442414:
            668B5054:
              0. 0F B88C 0046 0000:?copyfmt@?$basic_ios@std@_YV?$char_traits@std@_Y@1@@std@@QAEAAV12@ABV12@@Z
            8A505488:
              0. 0D 0F06 0044 0000:?copyfmt@?$basic_ios@std@DV?$char_traits@std@D@1@@std@@QAEAAV12@ABV12@@Z
          837C2418FF74:
            2B807B37007405E8........31C0884337884338:
              0. 45 9409 0065 0000:?_M_seek_return@?$basic_filebuf@std@_YV?$char_traits@std@_Y@1@@std@@AAE?AV?$fpos@std@U__stl_mbstate_t@@@2@JU__stl_mbstate_t@@@Z
            39807B67007405E8........C64367008B4B0431:
              0. 53 4314 0073 0000:?_M_seek_return@?$basic_filebuf@std@DV?$char_traits@std@D@1@@std@@AAE?AV?$fpos@std@U__stl_mbstate_t@@@2@JU__stl_mbstate_t@@@Z
          8B7C2414:
            85FF743985FF74058D77F4EB0231F68D53048BCEC746:
              0. 07 4139 004E 0000:?Free@RTLHeap@@QAEXPAX@Z
            8BD7C1E20252E8........83C40489C685C07438837B:
              0. 10 C02F 005D 0000:?usersize@ios@@AAEXH@Z
        66C7442408FFFF8B430C3B430875308B33FF5620668944240A663B:
          0. 30 037F 0050 0000:?_M_snextc_aux@?$basic_streambuf@std@_YV?$char_traits@std@_Y@1@@std@@AAE_YXZ
        80796000746A8D5354F7420810000000745E807B67007558807B69:
          0. 0A A7DF 007B 0000:?_M_switch_to_output_mode@?$basic_filebuf@std@DV?$char_traits@std@D@1@@std@@AAE_NXZ
        837904007511E8........837B040075065E31C05B59C38B:
          4B048B:
            0. 12 BBD1 0032 0000:?Alloc@RTLPool@@QAEPAXXZ
          53048B:
            0. 12 2BB4 0032 0000:?Alloc@RTLPool@@QAEPAXXZ
        8B74241456E8........8B:
          0B56FF742414034B0451E8........01:
            0. 0B D70E 002B 0000:?write@RegBuffer@@QAEXPBXI@Z
          4B048B132B4C241051035424148D0C32:
            0. 03 FE51 0033 0000:?spread@RegBuffer@@QAEXII@Z
        8D73:
          28C701........8B56088B062BD085D2790142D1FA8D4E0852:
            0. 02 F6B7 0031 0000:??1?$basic_stringbuf@std@_YV?$char_traits@std@_Y@1@V?$allocator@std@_Y@1@@std@@UAE@XZ
          58C701........8B56088B062BD08D4E085250E8........8B:
            0. 02 034A 002A 0000:??1?$basic_stringbuf@std@DV?$char_traits@std@D@1@V?$allocator@std@D@1@@std@@UAE@XZ
        C701........:
          6A00E8........FF7324E8........FF7330E8:
            0. 00 0000 004D 0000:??1ios_base@std@@UAE@XZ
          FF7308E8........83C4048B430C85C0741689C685:
            0. 06 0815 003E 0000:??1_Messages_impl@std@@UAE@XZ
        E8........8B730431C9C6436800B8FFFFFFFFC6436901894E0889:
          0. 0B C7B9 002B 0000:?_M_input_error@?$basic_filebuf@std@DV?$char_traits@std@D@1@@std@@AAEHXZ
      66837938007413:
        6A028B43048B48048D4C0B04E8........EB34FF74:
          0. 06 C439 0057 0000:?attach@fstreambase@@QAEXH@Z
        8B53046A028B4A048D4C0B04E8........EB358B44:
          0. 07 81EF 0058 0000:?attach@fstreambase@@QAEXH@Z
      6A:
        01E8........8B0B8B53048A44240C880411FF43045B58C20400:
          0. 00 0000 001F 0000:?writeByte@RegBuffer@@QAEXI@Z
        02E8........8B0B8B5304668B44240C66890411834304025B58C2:
          0. 02 2768 0022 0000:?writeword@RegBuffer@@QAEXI@Z
        04E8........8B0B8B53048B44240C890411834304045B58C20400:
          0. 00 0000 0020 0000:?write4@RegBuffer@@QAEXI@Z
      85C974:
        15E8........F644240C01740953E8........83C4048BC35B:
          0. 04 E908 0024 0000:??_Gfilebuf@@UAEPAXI@Z (REF 0009: ??1filebuf@@UAE@XZ)
          1. 04 E908 0024 0000:??_Gfstreambase@@UAEPAXI@Z (REF 0009: ??_Dfstreambase@@UAEXXZ)
          2. 04 E908 0024 0000:??_Gifstream@@UAEPAXI@Z (REF 0009: ??_Difstream@@UAEXXZ)
          3. 04 E908 0024 0000:??_Gofstream@@UAEPAXI@Z (REF 0009: ??_Dofstream@@UAEXXZ)
          4. 04 E908 0024 0000:??_Gfstream@@UAEPAXI@Z (REF 0009: ??_Dfstream@@UAEXXZ)
          5. 04 E908 0024 0000:??_Gios@@UAEPAXI@Z (REF 0009: ??1ios@@UAE@XZ)
          6. 04 E908 0024 0000:??_Giostream@@UAEPAXI@Z (REF 0009: ??_Diostream@@UAEXXZ)
          7. 04 E908 0024 0000:??_Giostream_withassign@@UAEPAXI@Z (REF 0009: ??_Diostream_withassign@@UAEXXZ)
          8. 04 E908 0024 0000:??_Gistream@@UAEPAXI@Z (REF 0009: ??_Distream@@UAEXXZ)
          9. 04 E908 0024 0000:??_Gistream_withassign@@UAEPAXI@Z (REF 0009: ??_Distream_withassign@@UAEXXZ)
          10. 04 E908 0024 0000:??_Gostream@@UAEPAXI@Z (REF 0009: ??_Dostream@@UAEXXZ)
          11. 04 E908 0024 0000:??_Gostream_withassign@@UAEPAXI@Z (REF 0009: ??_Dostream_withassign@@UAEXXZ)
          12. 04 E908 0024 0000:??_Gstdiobuf@@UAEPAXI@Z (REF 0009: ??1stdiobuf@@UAE@XZ)
          13. 04 E908 0024 0000:??_Gstdiostream@@UAEPAXI@Z (REF 0009: ??1stdiostream@@UAE@XZ)
          14. 04 E908 0024 0000:??_Gstreambuf@@UAEPAXI@Z (REF 0009: ??1streambuf@@UAE@XZ)
          15. 04 E908 0024 0000:??_Gstrstreambuf@@UAEPAXI@Z (REF 0009: ??1strstreambuf@@UAE@XZ)
          16. 04 E908 0024 0000:??_Gstrstreambase@@UAEPAXI@Z (REF 0009: ??_Dstrstreambase@@UAEXXZ)
          17. 04 E908 0024 0000:??_Gistrstream@@UAEPAXI@Z (REF 0009: ??_Distrstream@@UAEXXZ)
          18. 04 E908 0024 0000:??_Gostrstream@@UAEPAXI@Z (REF 0009: ??_Dostrstream@@UAEXXZ)
          19. 04 E908 0024 0000:??_Gstrstream@@UAEPAXI@Z (REF 0009: ??_Dstrstream@@UAEXXZ)
          20. 04 E908 0024 0000:??_Gbad_cast@std@@UAEPAXI@Z (REF 0009: ??1bad_cast@std@@UAE@XZ)
          21. 04 E908 0024 0000:??_Gbad_typeid@std@@UAEPAXI@Z (REF 0009: ??1bad_typeid@std@@UAE@XZ)
          22. 04 E908 0024 0000:??_Gbad_alloc@std@@UAEPAXI@Z (REF 0009: ??1bad_alloc@std@@UAE@XZ)
        1953E8........83C404F644240C01740953E8........83C4:
          0. 08 85A8 0028 0000:??_Gtype_info@std@@UAEPAXI@Z (REF 000A: ??1type_info@std@@UAA@XZ)
          1. 08 85A8 0028 0000:??_GType_info@@UAEPAXI@Z (REF 000A: ??1Type_info@@UAA@XZ)
      8B:
        410856578B53042BC23B442414731A8B7424148B038D3C3201FF89:
          0. 05 E7CF 0035 0000:?reserve@RegBuffer@@QAEXI@Z
        43:
          04FF74240C8B48048D4C0B04E8........8BC35B59C20400:
            0. 00 0000 001E (!)0000:?
          0856:
            8B132BC2579981E20300000003C28B742414C1F8023BC673:
              0. 24 8985 00A7 0000:?reserve@?$vector@std@PAXV?$allocator@std@PAX@1@@std@@QAEXI@Z
              1. 24 EC0E 009A 0000:?reserve@?$vector@std@PAXV?$allocator@std@PAX@1@@std@@QAEXI@Z
            8D4B08FF742414FF742414FF500485C074136A008B73048B:
              0. 07 D98F 0044 0000:?setbuf@fstreambase@@QAEXPADH@Z
        44240C8B5304508B4A048D4C0B04E8........8BC35B59C20400:
          0. 00 0000 001F (!)0000:?
        53:
          04:
            558B52048B6C241056578B7C241CF7441A14FFFEFFFF74116A:
              0. 02 D97D 00E0 0000:?read@istream@@QAEAAV1@PADH@Z
            568B:
              520403D3F7421084000000BEFFFFFFFF75158B4A088B11:
                0. 1D 1AB4 0047 0000:?tellp@ostream@@QAEJXZ
                1. 1D 29EE 0047 0000:?tellg@istream@@QAEJXZ
              74241057668B7C24182B1385D2790142D1FA3BD6721E57:
                0. 04 2D53 006B 0000:?assign@?$basic_string@std@_YV?$char_traits@std@_Y@1@V?$allocator@std@_Y@1@@std@@QAEAAV12@I_Y@Z
          08568B03:
            2BD0578B74241485D2790142D1FA3BD673658B53042B:
              0. 18 AFCA 0088 0000:?reserve@?$vector@std@_YV?$allocator@std@_Y@1@@std@@QAEXI@Z
            8B742410572BD03BD673538B53042BD08954240C833B:
              0. 0A 132E 006F 0000:?reserve@?$vector@std@DV?$allocator@std@D@1@@std@@QAEXI@Z
          14558B6C2414568B742414578B7B182BFA7E10575652E8:
            0. 00 0000 00AA 0000:?xsputn@streambuf@@UAEHPBDH@Z
          18568B7424142B53143BD67C1B56FF742414FF7314E8:
            0. 1E 100B 003E 0000:?sputn@streambuf@@QAEHPBDH@Z
          24558B43208B6C2414563BD0578B7C2418760689D62BF0EB0231:
            0. 07 D9E3 00AB 0000:?xsgetn@streambuf@@UAEHPADH@Z
        54240C83FA017C083915........7D0A5B59B8........C2040039:
          0. 0E A6A6 004E (!)0000:?
      C701:
        00000000A1........568B0D........8B1189442408FF52048B:
          0. 0B F621 002B 0000:??0locale@std@@QAE@XZ
        ........:
          8A43:
            305624033C01751F8B432C85C0740C8B730856FF:
              0. 0C A26D 003E 0000:??1strstreambuf@@UAE@XZ
            5C5689442408C0E007C0F80774178B542408C0E2:
              0. 0D 152D 003C 0000:??1strstreambuf@std@@UAE@XZ
          8B44240CC743380000000050E8........8BC35B59C2:
            0. 02 2768 0022 0000:??0ios@@QAE@PAVstreambuf@@@Z
          C7433800000000FF74240CE8........8BC35B59C204:
            0. 01 78F0 0021 0000:??0ios@@QAE@PAVstreambuf@@@Z
      FF71:
        04FF33FF7308FF742418E8........83C4105B59C20400:
          0. 00 0000 001D 0000:?replace2@RegExp@@QAEPADPAD@Z
        28E8........014328FF431883C4045B58C20400:
          0. 00 0000 001A 0000:?error@RegExp@@AAEXPAD@Z
    8B:
      1985DB56747FF7431C020000008B73040F84........5381631CFDFFFF:
        0. 03 5EEC 008C 0000:??1__eh_cv@@QAE@XZ
      41:
        0489CB56:
          578B5004:
            03D3F642108475146A:
              018B4A088B7424188B3956:
                0. 15 7B4E 0042 0000:?seekg@istream@@QAEAAV1@J@Z
              028B4A088B7424188B3956:
                0. 15 7B4E 0042 0000:?seekp@ostream@@QAEAAV1@J@Z
            8B3D........03D381CF800000005768C0000000:
              0. 07 03AD 0061 0000:??6ostream@@QAEAAV0@PAX@Z
          8B:
            5004:
              03D3F6421086750BF6421D207405E8........8B4B:
                0. 0C 3DE3 0043 0000:?do_osfx@ostream@@IAEXXZ
              837C1A1800740BE8........85C0745AEB0409E474:
                0. 51 A6ED 0084 0000:??6ostream@@QAEAAV0@D@Z
              F7441A14FFFEFFFF740D6A01E8........85C07463:
                0. 4D 9887 008C 0000:?get@istream@@QAEHXZ
            73088B13575052568B7C242057E8........83C4105F5E:
              0. 05 CE09 0025 0000:?replace2@RegExp@@QAEPADPAD@Z
        14565789CB85C074072B4310751AEB0439E475148B53248B73203BD6:
          0. 50 8D39 00BC 0000:?seekoff@stdiobuf@@UAEJJW4seek_dir@ios@@H@Z
        1889CA8B5C240C89442404895A18F644240C017406804A1101EB0480:
          0. 0C 25F2 002C 0000:?flags@ios@@QAEJJ@Z
        2889CB50E8........014328FF431883C4045B58C20400:
          0. 00 0000 001B 0000:?error@RegExp@@AAEXPAD@Z
      51:
        0489CB56578B5204837C1A1400740D6A00E8........85C07467EB04:
          0. 56 3FF6 008E 0000:??5istream@@QAEAAV0@AAD@Z
        3855565789CB8B7A048B53280FBE0A83F929740B85C9741283F97C74:
          0. 14 C78D 00AD 0000:?parseRegexp@RegExp@@AAEHXZ
      590856578BD185DB740F8954240C8BCBE8........8B54240C8B442414:
        0. 28 48BE 0048 0000:?tie@ios@@QAEPAVostream@@PAV2@@Z
      5C240C:
        56:
          5789CF8B57048B5204837C3A1800740BE8........85C0747F:
            0. 7B 703D 00AF 0000:??6ostream@@QAEAAV0@PAVstreambuf@@@Z
          8B742414:
            3BDE74:
              1E8B5104422BD6740B525653E8........83:
                0. 15 B9C8 0035 0000:?erase@?$basic_string@std@DV?$char_traits@std@D@1@V?$allocator@std@D@1@@std@@QAEPADPAD0@Z
              308B51042BD685D2790142D1FA42740D01D2:
                0. 04 5DD7 0047 0000:?erase@?$basic_string@std@_YV?$char_traits@std@_Y@1@V?$allocator@std@_Y@1@@std@@QAEPA_YPA_Y0@Z
            8BD6572BD385D2790142D1FA4252E8........8B4C:
              0. 14 BEB6 0056 0000:??$_M_range_initialize@?$basic_string@std@_YV?$char_traits@std@_Y@1@V?$allocator@std@_Y@1@@std@PB_Y@?$basic_string@std@_YV?$char_traits@std@_Y@1@V?$allocator@std@_Y@1@@std@@AAEXPB_Y0ABUforward_iterator_tag@2@@Z (0021: 00)
            8D5601572BD352E8........8B4C240C8B393BF375:
              0. 0D 5FDF 004D 0000:??$_M_range_initialize@?$basic_string@std@DV?$char_traits@std@D@1@V?$allocator@std@D@1@@std@PBD@?$basic_string@std@DV?$char_traits@std@D@1@V?$allocator@std@D@1@@std@@AAEXPBD0ABUforward_iterator_tag@2@@Z (001F: 00)
        85DB741883795800740953FF515883C404EB0953E8........83:
          0. 07 B368 0027 0000:?_M_free@strstreambuf@std@@AAEXPAD@Z
      D98B4308568A542410837804007E1B895C24088B4C24088B5908FF4B04:
        0. 26 305D 0046 0000:?sputc@?$basic_streambuf@std@DV?$char_traits@std@D@1@@std@@QAEHD@Z
    8D44241089CB508D54241052E8........83C40840508BCBE8........FF:
      0. 0A 9731 003E 0000:??$_M_range_initialize@?$basic_string@std@_YV?$char_traits@std@_Y@1@V?$allocator@std@_Y@1@@std@PA_Y@?$basic_string@std@_YV?$char_traits@std@_Y@1@V?$allocator@std@_Y@1@@std@@AAEXPA_Y0ABUforward_iterator_tag@2@@Z (0011: C2) (REF 000F: ??$distance@std@PA_Y@std@@YAHABQA_Y0@Z)
      1. 0A 9731 003E 0000:??$_M_range_initialize@?$basic_string@std@_YV?$char_traits@std@_Y@1@V?$allocator@std@_Y@1@@std@PAD@?$basic_string@std@_YV?$char_traits@std@_Y@1@V?$allocator@std@_Y@1@@std@@AAEXPAD0ABUforward_iterator_tag@2@@Z (0011: C2) (REF 000F: ??$distance@std@PAD@std@@YAHABQAD0@Z)
      2. 0A 9731 003C 0000:??$_M_range_initialize@?$basic_string@std@DV?$char_traits@std@D@1@V?$allocator@std@D@1@@std@PAD@?$basic_string@std@DV?$char_traits@std@D@1@V?$allocator@std@D@1@@std@@AAEXPAD0ABUforward_iterator_tag@2@@Z (0011: 00)
  668B5424086683FAFF515389CB56570F84D40000008B7324F7C6100000000F:
    0. 1B CAF1 0104 0000:?overflow@?$basic_stringbuf@std@_YV?$char_traits@std@_Y@1@V?$allocator@std@_Y@1@@std@@MAE_Y_Y@Z
  68:
    80000000FF742410FF742410E8........59C20800:
      0. 00 0000 0017 0000:?_M_open@_Filebuf_base@std@@QAE_NPBDH@Z
    ........:
      6A:
        026A0C51E8........83C41058C3:
          0. 00 0000 0015 0000:??$basic_string@std@DV?$char_traits@std@D@1@V?$allocator@std@D@1@__2@?$basic_string@std@DV?$char_traits@std@D@1@V?$allocator@std@D@1@@std@@QAEXXZ
        0E6A0C51E8........83C41058C3:
          0. 00 0000 0015 0000:??$basic_string@std@DV?$char_traits@std@D@1@V?$allocator@std@D@1@__14@?$basic_string@std@DV?$char_traits@std@D@1@V?$allocator@std@D@1@@std@@QAEXXZ
        186A0C51E8........83C41058C3:
          0. 00 0000 0015 0000:??$basic_string@std@DV?$char_traits@std@D@1@V?$allocator@std@D@1@__24@?$basic_string@std@DV?$char_traits@std@D@1@V?$allocator@std@D@1@@std@@QAEXXZ
      E8........83C4048B042459C3:
        0. 00 0000 0013 0000:??0?$_Node_Alloc_Lock@std@$00$0@@std@@QAE@XZ
  6A01E8........8B04248B:
    400859C3:
      0. 00 0000 0010 0000:?str@strstreambuf@@QAEPADXZ
    48048B410859C3:
      0. 00 0000 0013 0000:?str@strstreambuf@std@@QAEPADXZ
  8079:
    380074:
      166AFF8B11FF52306683F8FFB8FFFFFFFF740231C059C35931C0:
        0. 01 EF04 0021 0000:?sync@?$basic_filebuf@std@_YV?$char_traits@std@_Y@1@@std@@MAEHXZ
      206AFF8B11FF5230B9FFFFFFFF6639C86689042489C866894C24:
        0. 0B B370 002B 0000:?sync@?$basic_filebuf@std@_YV?$char_traits@std@_Y@1@@std@@MAEHXZ
    680074156AFF8B11FF523083F8FFB8FFFFFFFF740231C059C35931C0C3:
      0. 00 0000 0020 0000:?sync@?$basic_filebuf@std@DV?$char_traits@std@D@1@@std@@MAEHXZ
  83:
    7C24080074:
      0AFF742408FF15........8B04248B480485C9740751FF15:
        0. 00 0000 0031 0000:?_M_unmap@_Filebuf_base@std@@QAEXPAXJ@Z
      1E6A00FF742410E8........83C40450FF7424108B44240C8B:
        0. 02 C1AA 002A 0000:?_M_insert@locale@std@@AAEXPAVfacet@12@AAVid@12@@Z
    C1:
      04E8........58C3:
        0. 00 0000 000B 0000:??1?$pair@std@_OHVlocale@1@@std@@QAE@XZ (REF 0005: ??1locale@std@@QAE@XZ)
      08:
        E8........59C3:
          0. 00 0000 000B 0000:?str@ostrstream@std@@QAEPADXZ (REF 0005: ?str@strstreambuf@std@@QAEPADXZ)
        FF742408E8........58C20400:
          0. 00 0000 0011 0000:?freeze@ostrstream@std@@QAEX_N@Z
      0CE8........59C3:
        0. 00 0000 000B 0000:?str@istrstream@std@@QAEPADXZ (REF 0005: ?str@strstreambuf@std@@QAEPADXZ)
      18:
        51FF15........58C3:
          0. 00 0000 000D 0000:?incr@_Locale@std@@UAEXXZ
        E8........59C3:
          0. 00 0000 000B 0000:?str@strstream@std@@QAEPADXZ (REF 0005: ?str@strstreambuf@std@@QAEPADXZ)
        FF742408E8........58C20400:
          0. 00 0000 0011 0000:?freeze@strstream@std@@QAEX_N@Z
  85C95389CB74:
    18E8........F744240C01000000740953E8........83C404:
      0. 07 58B1 0027 0000:??_Gexception@std@@UAEPAXI@Z (REF 0009: ??1exception@std@@UAE@XZ)
      1. 07 58B1 0027 0000:??_Gbad_exception@std@@UAEPAXI@Z (REF 0009: ??1bad_exception@std@@UAE@XZ)
      2. 07 58B1 0027 0000:??_Gfilebuf@@UAEPAXI@Z (REF 0009: ??1filebuf@@UAE@XZ)
      3. 07 58B1 0027 0000:??_Gfstreambase@@UAEPAXI@Z (REF 0009: ??_Dfstreambase@@UAEXXZ)
      4. 07 58B1 0027 0000:??_Gifstream@@UAEPAXI@Z (REF 0009: ??_Difstream@@UAEXXZ)
      5. 07 58B1 0027 0000:??_Gofstream@@UAEPAXI@Z (REF 0009: ??_Dofstream@@UAEXXZ)
      6. 07 58B1 0027 0000:??_Gfstream@@UAEPAXI@Z (REF 0009: ??_Dfstream@@UAEXXZ)
      7. 07 58B1 0027 0000:??_Gios@@UAEPAXI@Z (REF 0009: ??1ios@@UAE@XZ)
      8. 07 58B1 0027 0000:??_Giostream@@UAEPAXI@Z (REF 0009: ??_Diostream@@UAEXXZ)
      9. 07 58B1 0027 0000:??_Giostream_withassign@@UAEPAXI@Z (REF 0009: ??_Diostream_withassign@@UAEXXZ)
      10. 07 58B1 0027 0000:??_Gistream@@UAEPAXI@Z (REF 0009: ??_Distream@@UAEXXZ)
      11. 07 58B1 0027 0000:??_Gistream_withassign@@UAEPAXI@Z (REF 0009: ??_Distream_withassign@@UAEXXZ)
      12. 07 58B1 0027 0000:??_Gostream@@UAEPAXI@Z (REF 0009: ??_Dostream@@UAEXXZ)
      13. 07 58B1 0027 0000:??_Gostream_withassign@@UAEPAXI@Z (REF 0009: ??_Dostream_withassign@@UAEXXZ)
      14. 07 58B1 0027 0000:??_Gbad_cast@std@@UAEPAXI@Z (REF 0009: ??1bad_cast@std@@UAE@XZ)
      15. 07 58B1 0027 0000:??_Gstdiobuf@@UAEPAXI@Z (REF 0009: ??1stdiobuf@@UAE@XZ)
      16. 07 58B1 0027 0000:??_Gstdiostream@@UAEPAXI@Z (REF 0009: ??1stdiostream@@UAE@XZ)
      17. 07 58B1 0027 0000:??_Gstreambuf@@UAEPAXI@Z (REF 0009: ??1streambuf@@UAE@XZ)
      18. 07 58B1 0027 0000:??_Gstrstreambuf@@UAEPAXI@Z (REF 0009: ??1strstreambuf@@UAE@XZ)
      19. 07 58B1 0027 0000:??_Gstrstreambase@@UAEPAXI@Z (REF 0009: ??_Dstrstreambase@@UAEXXZ)
      20. 07 58B1 0027 0000:??_Gistrstream@@UAEPAXI@Z (REF 0009: ??_Distrstream@@UAEXXZ)
      21. 07 58B1 0027 0000:??_Gostrstream@@UAEPAXI@Z (REF 0009: ??_Dostrstream@@UAEXXZ)
      22. 07 58B1 0027 0000:??_Gstrstream@@UAEPAXI@Z (REF 0009: ??_Dstrstream@@UAEXXZ)
      23. 07 58B1 0027 0000:??_Gbad_typeid@std@@UAEPAXI@Z (REF 0009: ??1bad_typeid@std@@UAE@XZ)
      24. 07 58B1 0027 0000:??_Gbad_alloc@std@@UAEPAXI@Z (REF 0009: ??1bad_alloc@std@@UAE@XZ)
      25. 07 58B1 0027 0000:??_G?$codecvt@std@DDU__stl_mbstate_t@@@std@@UAEPAXI@Z (REF 0009: ??1?$codecvt@std@DDU__stl_mbstate_t@@@std@@MAE@XZ)
      26. 07 58B1 0027 0000:??_G?$codecvt@std@_YDU__stl_mbstate_t@@@std@@UAEPAXI@Z (REF 0009: ??1?$codecvt@std@_YDU__stl_mbstate_t@@@std@@MAE@XZ)
      27. 07 58B1 0027 0000:??_G?$collate@std@D@std@@UAEPAXI@Z (REF 0009: ??1?$collate@std@D@std@@MAE@XZ)
      28. 07 58B1 0027 0000:??_G?$collate@std@_Y@std@@UAEPAXI@Z (REF 0009: ??1?$collate@std@_Y@std@@MAE@XZ)
      29. 07 58B1 0027 0000:??_G?$basic_ostream@std@DV?$char_traits@std@D@1@@std@@UAEPAXI@Z (REF 0009: ??_D?$basic_ostream@std@DV?$char_traits@std@D@1@@std@@UAEXXZ)
      30. 07 58B1 0027 0000:??_Gfacet@locale@std@@UAEPAXI@Z (REF 0009: ??1facet@locale@std@@MAE@XZ)
      31. 07 58B1 0027 0000:??_G?$ctype@std@D@std@@UAEPAXI@Z (REF 0009: ??1?$ctype@std@D@std@@MAE@XZ)
      32. 07 58B1 0027 0000:??_G?$ctype@std@_Y@std@@UAEPAXI@Z (REF 0009: ??1?$ctype@std@_Y@std@@MAE@XZ)
      33. 07 58B1 0027 0000:??_Gruntime_error@std@@UAEPAXI@Z (REF 0009: ??1runtime_error@std@@UAE@XZ)
      34. 07 58B1 0027 0000:??_Grange_error@std@@UAEPAXI@Z (REF 0009: ??1range_error@std@@UAE@XZ)
      35. 07 58B1 0027 0000:??_G__Named_exception@std@@UAEPAXI@Z (REF 0009: ??1__Named_exception@std@@UAE@XZ)
      36. 07 58B1 0027 0000:??_Glogic_error@std@@UAEPAXI@Z (REF 0009: ??1logic_error@std@@UAE@XZ)
      37. 07 58B1 0027 0000:??_Gout_of_range@std@@UAEPAXI@Z (REF 0009: ??1out_of_range@std@@UAE@XZ)
      38. 07 58B1 0027 0000:??_Glength_error@std@@UAEPAXI@Z (REF 0009: ??1length_error@std@@UAE@XZ)
      39. 07 58B1 0027 0000:??_Ginvalid_argument@std@@UAEPAXI@Z (REF 0009: ??1invalid_argument@std@@UAE@XZ)
      40. 07 58B1 0027 0000:??_Goverflow_error@std@@UAEPAXI@Z (REF 0009: ??1overflow_error@std@@UAE@XZ)
      41. 07 58B1 0027 0000:??_Gdomain_error@std@@UAEPAXI@Z (REF 0009: ??1domain_error@std@@UAE@XZ)
      42. 07 58B1 0027 0000:??_Gunderflow_error@std@@UAEPAXI@Z (REF 0009: ??1underflow_error@std@@UAE@XZ)
      43. 07 58B1 0027 0000:??_G?$ctype_byname@std@D@std@@UAEPAXI@Z (REF 0009: ??1?$ctype_byname@std@D@std@@UAE@XZ)
      44. 07 58B1 0027 0000:??_G?$ctype_byname@std@_Y@std@@UAEPAXI@Z (REF 0009: ??1?$ctype_byname@std@_Y@std@@MAE@XZ)
      45. 07 58B1 0027 0000:??_G?$collate_byname@std@D@std@@UAEPAXI@Z (REF 0009: ??1?$collate_byname@std@D@std@@MAE@XZ)
      46. 07 58B1 0027 0000:??_G?$collate_byname@std@_Y@std@@UAEPAXI@Z (REF 0009: ??1?$collate_byname@std@_Y@std@@MAE@XZ)
      47. 07 58B1 0027 0000:??_G?$codecvt_byname@std@DDU__stl_mbstate_t@@@std@@UAEPAXI@Z (REF 0009: ??1?$codecvt_byname@std@DDU__stl_mbstate_t@@@std@@UAE@XZ)
      48. 07 58B1 0027 0000:??_G?$codecvt_byname@std@_YDU__stl_mbstate_t@@@std@@UAEPAXI@Z (REF 0009: ??1?$codecvt_byname@std@_YDU__stl_mbstate_t@@@std@@MAE@XZ)
      49. 07 58B1 0027 0000:??_G?$numpunct@std@D@std@@UAEPAXI@Z (REF 0009: ??1?$numpunct@std@D@std@@MAE@XZ)
      50. 07 58B1 0027 0000:??_G?$numpunct_byname@std@D@std@@UAEPAXI@Z (REF 0009: ??1?$numpunct_byname@std@D@std@@MAE@XZ)
      51. 07 58B1 0027 0000:??_G?$numpunct@std@_Y@std@@UAEPAXI@Z (REF 0009: ??1?$numpunct@std@_Y@std@@MAE@XZ)
      52. 07 58B1 0027 0000:??_G?$numpunct_byname@std@_Y@std@@UAEPAXI@Z (REF 0009: ??1?$numpunct_byname@std@_Y@std@@MAE@XZ)
      53. 07 58B1 0027 0000:??_G?$moneypunct_byname@std@D$00@std@@UAEPAXI@Z (REF 0009: ??1?$moneypunct_byname@std@D$00@std@@MAE@XZ)
      54. 07 58B1 0027 0000:??_G?$moneypunct_byname@std@D$0@@std@@UAEPAXI@Z (REF 0009: ??1?$moneypunct_byname@std@D$0@@std@@MAE@XZ)
      55. 07 58B1 0027 0000:??_G?$moneypunct_byname@std@_Y$00@std@@UAEPAXI@Z (REF 0009: ??1?$moneypunct_byname@std@_Y$00@std@@MAE@XZ)
      56. 07 58B1 0027 0000:??_G?$moneypunct_byname@std@_Y$0@@std@@UAEPAXI@Z (REF 0009: ??1?$moneypunct_byname@std@_Y$0@@std@@MAE@XZ)
      57. 07 58B1 0027 0000:??_G_Messages_impl@std@@UAEPAXI@Z (REF 0009: ??1_Messages_impl@std@@UAE@XZ)
      58. 07 58B1 0027 0000:??_G?$messages@std@D@std@@UAEPAXI@Z (REF 0009: ??1?$messages@std@D@std@@MAE@XZ)
      59. 07 58B1 0027 0000:??_G?$messages_byname@std@D@std@@UAEPAXI@Z (REF 0009: ??1?$messages_byname@std@D@std@@MAE@XZ)
      60. 07 58B1 0027 0000:??_G?$messages@std@_Y@std@@UAEPAXI@Z (REF 0009: ??1?$messages@std@_Y@std@@MAE@XZ)
      61. 07 58B1 0027 0000:??_G?$messages_byname@std@_Y@std@@UAEPAXI@Z (REF 0009: ??1?$messages_byname@std@_Y@std@@MAE@XZ)
      62. 07 58B1 0027 0000:??_G?$basic_streambuf@std@_YV?$char_traits@std@_Y@1@@std@@UAEPAXI@Z (REF 0009: ??1?$basic_streambuf@std@_YV?$char_traits@std@_Y@1@@std@@UAE@XZ)
      63. 07 58B1 0027 0000:??_G?$basic_ostream@std@_YV?$char_traits@std@_Y@1@@std@@UAEPAXI@Z (REF 0009: ??_D?$basic_ostream@std@_YV?$char_traits@std@_Y@1@@std@@UAEXXZ)
      64. 07 58B1 0027 0000:??_G?$basic_istream@std@DV?$char_traits@std@D@1@@std@@UAEPAXI@Z (REF 0009: ??_D?$basic_istream@std@DV?$char_traits@std@D@1@@std@@UAEXXZ)
      65. 07 58B1 0027 0000:??_G?$basic_iostream@std@DV?$char_traits@std@D@1@@std@@UAEPAXI@Z (REF 0009: ??_D?$basic_iostream@std@DV?$char_traits@std@D@1@@std@@UAEXXZ)
      66. 07 58B1 0027 0000:??_G?$basic_istream@std@_YV?$char_traits@std@_Y@1@@std@@UAEPAXI@Z (REF 0009: ??_D?$basic_istream@std@_YV?$char_traits@std@_Y@1@@std@@UAEXXZ)
      67. 07 58B1 0027 0000:??_G?$basic_iostream@std@_YV?$char_traits@std@_Y@1@@std@@UAEPAXI@Z (REF 0009: ??_D?$basic_iostream@std@_YV?$char_traits@std@_Y@1@@std@@UAEXXZ)
      68. 07 58B1 0027 0000:??_G?$basic_streambuf@std@DV?$char_traits@std@D@1@@std@@UAEPAXI@Z (REF 0009: ??1?$basic_streambuf@std@DV?$char_traits@std@D@1@@std@@UAE@XZ)
      69. 07 58B1 0027 0000:??_G?$basic_filebuf@std@DV?$char_traits@std@D@1@@std@@UAEPAXI@Z (REF 0009: ??1?$basic_filebuf@std@DV?$char_traits@std@D@1@@std@@UAE@XZ)
      70. 07 58B1 0027 0000:??_G?$basic_filebuf@std@_YV?$char_traits@std@_Y@1@@std@@UAEPAXI@Z (REF 0009: ??1?$basic_filebuf@std@_YV?$char_traits@std@_Y@1@@std@@UAE@XZ)
      71. 07 58B1 0027 0000:??_Gfailure@ios_base@std@@UAEPAXI@Z (REF 0009: ??1failure@ios_base@std@@UAE@XZ)
      72. 07 58B1 0027 0000:??_Gios_base@std@@UAEPAXI@Z (REF 0009: ??1ios_base@std@@UAE@XZ)
      73. 07 58B1 0027 0000:??_Gstdio_istreambuf@_SgI@@UAEPAXI@Z (REF 0009: ??1stdio_istreambuf@_SgI@@UAE@XZ)
      74. 07 58B1 0027 0000:??_Gstdio_ostreambuf@_SgI@@UAEPAXI@Z (REF 0009: ??1stdio_ostreambuf@_SgI@@UAE@XZ)
      75. 07 58B1 0027 0000:??_G_Locale@std@@UAEPAXI@Z (REF 0009: ??1_Locale@std@@UAE@XZ)
      76. 07 58B1 0027 0000:??_G_Locale_impl@std@@UAEPAXI@Z (REF 0009: ??1_Locale_impl@std@@UAE@XZ)
      77. 07 58B1 0027 0000:??_G_Messages@std@@UAEPAXI@Z (REF 0009: ??1_Messages@std@@UAE@XZ)
      78. 07 58B1 0027 0000:??_G?$moneypunct@std@D$00@std@@UAEPAXI@Z (REF 0009: ??1?$moneypunct@std@D$00@std@@MAE@XZ)
      79. 07 58B1 0027 0000:??_G?$moneypunct@std@D$0@@std@@UAEPAXI@Z (REF 0009: ??1?$moneypunct@std@D$0@@std@@MAE@XZ)
      80. 07 58B1 0027 0000:??_G?$moneypunct@std@_Y$00@std@@UAEPAXI@Z (REF 0009: ??1?$moneypunct@std@_Y$00@std@@MAE@XZ)
      81. 07 58B1 0027 0000:??_G?$moneypunct@std@_Y$0@@std@@UAEPAXI@Z (REF 0009: ??1?$moneypunct@std@_Y$0@@std@@MAE@XZ)
      82. 07 58B1 0027 0000:??_G?$basic_stringbuf@std@DV?$char_traits@std@D@1@V?$allocator@std@D@1@@std@@UAEPAXI@Z (REF 0009: ??1?$basic_stringbuf@std@DV?$char_traits@std@D@1@V?$allocator@std@D@1@@std@@UAE@XZ)
      83. 07 58B1 0027 0000:??_G?$basic_stringbuf@std@_YV?$char_traits@std@_Y@1@V?$allocator@std@_Y@1@@std@@UAEPAXI@Z (REF 0009: ??1?$basic_stringbuf@std@_YV?$char_traits@std@_Y@1@V?$allocator@std@_Y@1@@std@@UAE@XZ)
      84. 07 58B1 0027 0000:??_G?$basic_istringstream@std@DV?$char_traits@std@D@1@V?$allocator@std@D@1@@std@@UAEPAXI@Z (REF 0009: ??_D?$basic_istringstream@std@DV?$char_traits@std@D@1@V?$allocator@std@D@1@@std@@UAEXXZ)
      85. 07 58B1 0027 0000:??_G?$basic_istringstream@std@_YV?$char_traits@std@_Y@1@V?$allocator@std@_Y@1@@std@@UAEPAXI@Z (REF 0009: ??_D?$basic_istringstream@std@_YV?$char_traits@std@_Y@1@V?$allocator@std@_Y@1@@std@@UAEXXZ)
      86. 07 58B1 0027 0000:??_G?$basic_ostringstream@std@DV?$char_traits@std@D@1@V?$allocator@std@D@1@@std@@UAEPAXI@Z (REF 0009: ??_D?$basic_ostringstream@std@DV?$char_traits@std@D@1@V?$allocator@std@D@1@@std@@UAEXXZ)
      87. 07 58B1 0027 0000:??_G?$basic_ostringstream@std@_YV?$char_traits@std@_Y@1@V?$allocator@std@_Y@1@@std@@UAEPAXI@Z (REF 0009: ??_D?$basic_ostringstream@std@_YV?$char_traits@std@_Y@1@V?$allocator@std@_Y@1@@std@@UAEXXZ)
      88. 07 58B1 0027 0000:??_G?$basic_stringstream@std@DV?$char_traits@std@D@1@V?$allocator@std@D@1@@std@@UAEPAXI@Z (REF 0009: ??_D?$basic_stringstream@std@DV?$char_traits@std@D@1@V?$allocator@std@D@1@@std@@UAEXXZ)
      89. 07 58B1 0027 0000:??_G?$basic_stringstream@std@_YV?$char_traits@std@_Y@1@V?$allocator@std@_Y@1@@std@@UAEPAXI@Z (REF 0009: ??_D?$basic_stringstream@std@_YV?$char_traits@std@_Y@1@V?$allocator@std@_Y@1@@std@@UAEXXZ)
      90. 07 58B1 0027 0000:??_Gstdio_streambuf_base@_SgI@@UAEPAXI@Z (REF 0009: ??1stdio_streambuf_base@_SgI@@UAE@XZ)
      91. 07 58B1 0027 0000:??_Gstrstreambuf@std@@UAEPAXI@Z (REF 0009: ??1strstreambuf@std@@UAE@XZ)
      92. 07 58B1 0027 0000:??_Gistrstream@std@@UAEPAXI@Z (REF 0009: ??_Distrstream@std@@UAEXXZ)
      93. 07 58B1 0027 0000:??_Gostrstream@std@@UAEPAXI@Z (REF 0009: ??_Dostrstream@std@@UAEXXZ)
      94. 07 58B1 0027 0000:??_Gstrstream@std@@UAEPAXI@Z (REF 0009: ??_Dstrstream@std@@UAEXXZ)
    1C53E8........83C404F744240C01000000740953E8:
      0. 00 0000 002B 0000:??_Gtype_info@std@@UAEPAXI@Z (REF 000A: ??1type_info@std@@UAA@XZ)
      1. 00 0000 002B 0000:??_GType_info@@UAEPAXI@Z (REF 000A: ??1Type_info@@UAA@XZ)
    1EC703........E8........F744240C01000000740953E8:
      0. 00 0000 002D 0000:??_G?$basic_ios@std@DV?$char_traits@std@D@1@@std@@UAEPAXI@Z (REF 000A: ??_Q?$basic_ios@std@DV?$char_traits@std@D@1@@std@@6B@)
      1. 00 0000 002D 0000:??_G?$basic_ios@std@_YV?$char_traits@std@_Y@1@@std@@UAEPAXI@Z (REF 000A: ??_Q?$basic_ios@std@_YV?$char_traits@std@_Y@1@@std@@6B@)
      2. 00 0000 002D 0000:??_G?$num_get@std@DV?$istreambuf_iterator@std@DV?$char_traits@std@D@1@@1@@std@@UAEPAXI@Z (REF 000A: ??_Q?$num_get@std@DV?$istreambuf_iterator@std@DV?$char_traits@std@D@1@@1@@std@@6B@)
      3. 00 0000 002D 0000:??_G?$num_put@std@DV?$ostreambuf_iterator@std@DV?$char_traits@std@D@1@@1@@std@@UAEPAXI@Z (REF 000A: ??_Q?$num_put@std@DV?$ostreambuf_iterator@std@DV?$char_traits@std@D@1@@1@@std@@6B@)
      4. 00 0000 002D 0000:??_G?$num_get@std@_YV?$istreambuf_iterator@std@_YV?$char_traits@std@_Y@1@@1@@std@@UAEPAXI@Z (REF 000A: ??_Q?$num_get@std@_YV?$istreambuf_iterator@std@_YV?$char_traits@std@_Y@1@@1@@std@@6B@)
      5. 00 0000 002D 0000:??_G?$num_put@std@_YV?$ostreambuf_iterator@std@_YV?$char_traits@std@_Y@1@@1@@std@@UAEPAXI@Z (REF 000A: ??_Q?$num_put@std@_YV?$ostreambuf_iterator@std@_YV?$char_traits@std@_Y@1@@1@@std@@6B@)
      6. 00 0000 002D 0000:??_G?$money_get@std@DV?$istreambuf_iterator@std@DV?$char_traits@std@D@1@@1@@std@@UAEPAXI@Z (REF 000A: ??_Q?$money_get@std@DV?$istreambuf_iterator@std@DV?$char_traits@std@D@1@@1@@std@@6B@)
      7. 00 0000 002D 0000:??_G?$money_put@std@DV?$ostreambuf_iterator@std@DV?$char_traits@std@D@1@@1@@std@@UAEPAXI@Z (REF 000A: ??_Q?$money_put@std@DV?$ostreambuf_iterator@std@DV?$char_traits@std@D@1@@1@@std@@6B@)
      8. 00 0000 002D 0000:??_G?$money_get@std@_YV?$istreambuf_iterator@std@_YV?$char_traits@std@_Y@1@@1@@std@@UAEPAXI@Z (REF 000A: ??_Q?$money_get@std@_YV?$istreambuf_iterator@std@_YV?$char_traits@std@_Y@1@@1@@std@@6B@)
      9. 00 0000 002D 0000:??_G?$money_put@std@_YV?$ostreambuf_iterator@std@_YV?$char_traits@std@_Y@1@@1@@std@@UAEPAXI@Z (REF 000A: ??_Q?$money_put@std@_YV?$ostreambuf_iterator@std@_YV?$char_traits@std@_Y@1@@1@@std@@6B@)
    248B43088B132BC2508D4B0852E8........F744240C010000:
      0. 05 19E9 0033 0000:??_G?$basic_string@std@DV?$char_traits@std@D@1@V?$allocator@std@D@1@@std@@QAEPAXI@Z
  8B:
    01:
      515389CB:
        2B44241083F82489442404770C5B83C408B801000000C20800:
          0. 07 4FE6 0068 0000:?Reclaim@RTLHeapBlock@@QAEHIAAV1@@Z
        FF501CB9FFFFFFFF6639C8668944240889C866894C240A740F:
          0. 14 EBE7 0034 0000:?uflow@?$basic_streambuf@std@_YV?$char_traits@std@_Y@1@@std@@MAE_YXZ
      85C0:
        5389CB56741F8B43088B132BC29981E20300000003C2C1F802508B:
          0. 06 0236 002E 0000:??1?$_Vector_base@std@PAXV?$allocator@std@PAX@1@@std@@QAE@XZ
        740950E8........83C40458C3:
          0. 00 0000 0012 0000:??1_Catalog_locale_map@std@@QAE@XZ
      FF74240C6A00FF742410FF501C59C20800:
        0. 00 0000 0014 0000:?seekpos@streambuf@@UAEJJH@Z
    098B01FF500858C3:
      0. 00 0000 000A 0000:??1locale@std@@QAE@XZ
    11:
      5389CB56FF521CB9FFFFFFFF3BC189C8740F8B7304FF4E048B16428916:
        0. 08 CC34 0028 0000:?uflow@?$basic_streambuf@std@DV?$char_traits@std@D@1@@std@@MAEHXZ
      8B420451535531ED565789CF8B57045083C2088B4204895424142B0299:
        0. 50 1C5F 0070 0000:?_M_skip_to_next@?$_Hashtable_iterator@std@U?$pair@std@_OHVlocale@1@@1@HU?$hash@std@H@1@U?$_Select1st@std@U?$pair@std@_OHVlocale@1@@1@@1@U?$equal_to@std@H@1@V?$allocator@std@U?$pair@std@HVlocale@1@@1@@1@@std@@QAEPAU?$_Hashtable_node@std@U?$pair@std@_OHVlocale@1@@1@@2@XZ
    41:
      04:
        40515389CB56573B4308752D8B53042B13BE010000003BD68954240C:
          0. 19 C5B4 0059 0000:?push_back@?$basic_string@std@DV?$char_traits@std@D@1@V?$allocator@std@D@1@@std@@QAEXD@Z
        53:
          56578944240C8B54240C8B1A035A043B1874178B71048B3E0FB617:
            0. 19 539E 0039 0000:?uflow@?$basic_stringbuf@std@DV?$char_traits@std@D@1@V?$allocator@std@D@1@@std@@MAEHXZ
          89CB3B44240C75:
            12FF742410E8........8B4304485B59C20800FF:
              0. 08 EF10 0031 0000:?insert@?$basic_string@std@DV?$char_traits@std@D@1@V?$allocator@std@D@1@@std@@QAEPADPADD@Z
            14FF742410E8........8B430483C0FE5B59C208:
              0. 0A D54C 0033 0000:?insert@?$basic_string@std@_YV?$char_traits@std@_Y@1@V?$allocator@std@_Y@1@@std@@QAEPA_YPA_Y_Y@Z
        83C002515389CB56573B430875348B53042B1385D2790142D1FABE01:
          0. 22 79B2 0067 0000:?push_back@?$basic_string@std@_YV?$char_traits@std@_Y@1@V?$allocator@std@_Y@1@@std@@QAEX_Y@Z
        85C05153:
          740B89C28178083F2D000075075B83C40831C0C389442408:
            0. 01 3E9B 004C 0000:?MergeBackward@RTLHeapBlock@@QAEHXZ
          89CB740B8178083F2D000089C275075B83C40831C0C38944:
            0. 03 1003 0048 0000:?MergeBackward@RTLHeapBlock@@QAEHXZ
        8B50:
          04:
            5153BBFFFFFFFF565703542410F742108400000075158B4A08:
              0. 27 30FA 0054 0000:?tellg@istream@@QAEJXZ
              1. 27 790D 0054 0000:?tellp@ostream@@QAEJXZ
            53:
              555689CE8B5C325C5785DB743D89DF8B178BCBFF521083F8:
                0. 2E 7666 005A 0000:?flush@?$basic_ostream@std@DV?$char_traits@std@D@1@@std@@QAEAAV12@XZ (000B: C3)
              89CB:
                03D356:
                  57F742108400000075138B4A086A:
                    018B31FF74:
                      0. 17 AC94 0044 0000:?seekg@istream@@QAEAAV1@J@Z
                    028B31FF74:
                      0. 17 AC94 0044 0000:?seekp@ostream@@QAEAAV1@J@Z
                  8B721C8D4A04578B3D........81CF80000000:
                    0. 07 7FBF 0060 0000:??6ostream@@QAEAAV0@PAX@Z
                  F7421086000000750EF7421C002000007405E8:
                    0. 00 0000 004C 0000:?do_osfx@ostream@@IAEXXZ
                55568B741A5C85F657743D89F78B178BCEFF521083F8:
                  0. 2E 329A 005A 0000:?flush@?$basic_ostream@std@DV?$char_traits@std@D@1@@std@@QAEAAV12@XZ (000B: C3)
                56:
                  837C1A1800740BE8........85C07459EB0409E474:
                    0. 50 54DB 0083 0000:??6ostream@@QAEAAV0@D@Z
                  F7441A14FFFEFFFF740D6A01E8........85C07461:
                    0. 4C CEDB 008A 0000:?get@istream@@QAEHXZ
          085389CB568B303BD65774728B7C2414B8FFFFFFFF3BF875218B:
            0. 70 3A92 0090 0000:?pbackfail@strstreambuf@std@@MAEHH@Z
      08:
        51538BD95657837804007E21895C240C8B4C240C8B5908FF4B048B3B:
          0. 2F 460C 004F 0000:?sputc@?$basic_streambuf@std@DV?$char_traits@std@D@1@@std@@QAEHD@Z
        5389CB8B5304562BC2573B44241473198B7424148D3C3201FF57897B:
          0. 04 7928 0034 0000:?reserve@RegBuffer@@QAEXI@Z
      0C:
        5389CB:
          563B430875288B33FF56206683F8FFB8FFFFFFFF74148B4B08:
            0. 21 8290 0041 0000:?_M_snextc_aux@?$basic_streambuf@std@_YV?$char_traits@std@_Y@1@@std@@AAE_YXZ
          89442404E8........8BCBFF742404C743083F2D0000FF7424:
            0. 02 90F1 002B 0000:?Claim@RTLHeapBlock@@QAEHI@Z
        8B5108533BC2740D895424048B5C2404668B03EB05B8FFFFFFFF5B59:
          0. 01 EF04 0021 0000:?underflow@?$basic_stringbuf@std@_YV?$char_traits@std@_Y@1@V?$allocator@std@_Y@1@@std@@MAE_YXZ
      10250001000089042489CA837C2408007410814A1000010000814A1801:
        0. 1E 22FC 003E 0000:?skip@ios@@QAEHH@Z
      1485C0:
        515389CB565774072B43107418EB0439E474126AFF8B33FF5618:
          0. 3A 6FDF 009A 0000:?sync@filebuf@@UAEHXZ
        5389CB565774072B4310751AEB0439E475148B53248B73203BD6:
          0. 49 27C2 00B4 0000:?seekoff@stdiobuf@@UAEJJW4seek_dir@ios@@H@Z
      1889CA538B5C24:
        0C:
          56095A188B721889442408F7C6010000007409814A:
            0. 18 0DC9 0038 0000:?setf@ios@@QAEJJ@Z
          89442404895A18F744240C010000007409814A1000:
            0. 15 78CD 0035 0000:?flags@ios@@QAEJJ@Z
          F7D356215A188B721889442408F7C6010000007409:
            0. 1A 6C9C 003A 0000:?unsetf@ios@@QAEJJ@Z
        10F7D3568B74241057215A18237424180972188B7A18:
          0. 27 0E44 0047 0000:?setf@ios@@QAEJJJ@Z
      28515389CB56570FBE1089D083FA620F849500000083F8660F84960000:
        0. EF 1638 0287 0000:?escape@RegExp@@AAEHXZ
        1. EF C67F 028F 0000:?escape@RegExp@@AAEHXZ
      3885C0C701........740950E8........83C40458C3:
        0. 00 0000 0019 0000:??1ios@@UAE@XZ
      588B542408515389CB56895358837B580119F6F7DE8944240C897308E8:
        0. 00 0000 0030 (!)0000:?
    4424:
      08:
        51535589CD568B3085F657:
          0F84:
            870000008B46048D5508508B4204:
              0. 34 0E6C 00A7 0000:?erase@?$hashtable@std@U?$pair@std@_OHVlocale@1@@1@HU?$hash@std@H@1@U?$_Select1st@std@U?$pair@std@_OHVlocale@1@@1@@1@U?$equal_to@std@H@1@V?$allocator@std@U?$pair@std@HVlocale@1@@1@@1@@std@@QAEXABU?$_Ht_iterator@std@U?$pair@std@_OHVlocale@1@@1@U?$_Const_traits@std@U?$pair@std@_OHVlocale@1@@1@@1@HU?$hash@std@H@1@U?$_Select1st@std@U?$pair@std@_OHVlocale@1@@1@@1@U?$equal_to@std@H@1@V?$allocator@std@U?$pair@std@HVlocale@1@@1@@1@@2@@Z
            8B0000008D55048B42042B029981:
              0. 12 BE94 00AB 0000:?erase@?$hhtable@std@U?$pairQBDPAXI@1@PBD_Select1st__eqstrV?$allocato@QAEXABHt_itConst_traits2Z
          74738D55048B42042B029981E2030000:
            0. 0E 4875 008F 0000:?erase@?$hhtable@std@U?$pairQBDPAXI@1@PBD_Select1st__eqstrV?$allocato@QAEXABHt_itConst_traits2Z
        5389CB:
          56BEFFFFFFFF578B7C241883FF02751D66F7433004007504:
            0. 90 6A97 0129 0000:?seekoff@strstreambuf@@UAEJJW4seek_dir@ios@@H@Z
          8B5304FF70048B4A048D4C0B04E8........8BC35B59C204:
            0. 01 78F0 0021 0000:??4iostream_withassign@@QAEAAV0@AAVios@@@Z
        8B50045389CB568B7204578B7B048B4F04FF7406088D4C0B04E8:
          0. 00 0000 002C (!)0000:?
        BAFFFFFFFF513BC2535675498B59088B332B73087428FF7154E8:
          0. 00 0000 007A 0000:?overflow@stdio_ostreambuf@_SgI@@MAEHH@Z
      0C:
        515356578D54240C8944240C52FF7154E8........83C40885C075:
          0. 0B 7FB4 0064 0000:?seekpos@stdio_streambuf_base@_SgI@@MAE?AV?$fpos@std@U__stl_mbstate_t@@@std@@V34@H@Z
        538B185653E8........85DB741F8B4C241039590876166A018B54:
          0. 0E 3C9A 0038 0000:?insert@_Locale@std@@QAEXPAV_Locale_impl@2@ABVid@locale@2@@Z
    4C2408538D4104C701FFFFFFFF8D542404C7442404000000008B1A89188B:
      0. 06 9FC0 0026 0000:?seekoff@?$basic_streambuf@std@DV?$char_traits@std@D@1@@std@@MAE?AV?$fpos@std@U__stl_mbstate_t@@@2@JHH@Z
    51:
      008B420451535589CD8B55045683C2085731FF508B4204895424142B02:
        0. 51 DEB8 0071 0000:?_M_skip_to_next@?$_Hashtable_iterator@std@U?$pair@std@_OHVlocale@1@@1@HU?$hash@std@H@1@U?$_Select1st@std@U?$pair@std@_OHVlocale@1@@1@@1@U?$equal_to@std@H@1@V?$allocator@std@U?$pair@std@HVlocale@1@@1@@1@@std@@QAEPAU?$_Hashtable_node@std@U?$pair@std@_OHVlocale@1@@1@@2@XZ
      04:
        538B5C240C555689CE8B065789038953048B3E8B5704837A04007E0B:
          0. 24 DD54 0044 0000:??E?$istreambuf_iterator@std@DV?$char_traits@std@D@1@@std@@QAE?AV01@H@Z
        83C204538B4204555689CE2B029981E2030000005703C2C1F8028944:
          0. 08 5FCD 0071 0000:?_M_skip_to_next@?$_Hashtable_iterator@std@U?$pair@std@QBDU?$pair@std@PAXI@1@@1@PBDU?$hash@std@PBD@1@U?$_Select1st@std@U?$pair@std@QBDU?$pair@std@PAXI@1@@1@@1@U__eqstr@1@V?$allocator@std@U?$pair@std@PBDU?$pair@std@PAXI@1@@1@@1@@std@@QAEPAU?$_Hashtable_node@std@U?$pair@std@QBDU?$pair@std@PAXI@1@@1@@2@XZ
        8B5204:
          51535689CE837C321400740D6A00E8........85C07466EB04:
            0. 55 5201 008E 0000:??5istream@@QAEAAV0@AAD@Z
          53:
            03D18B5C240C568B725C85F65774198D5204F64208057510:
              0. 32 2B04 0052 0000:?tellg@?$basic_istream@std@DV?$char_traits@std@D@1@@std@@QAE?AV?$fpos@std@U__stl_mbstate_t@@@2@XZ
            5689CE8B5C32088B53203B532472138B138BCBFF520C83F8:
              0. 2B 9223 0057 0000:?do_get@istream@@AAEDXZ
            89CB5657837C1A1400740D6A00E8........85C07466EB04:
              0. 55 C17F 008D 0000:??5istream@@QAEAAV0@AAD@Z
      10425389CB565752E8........8D4B048B41042B019981E20300000003:
        0. 0F 9397 006E 0000:?_M_insert@?$hashtable@std@U?$pair@std@QBDU?$pair@std@PAXI@1@@1@PBDU?$hash@std@PBD@1@U?$_Select1st@std@U?$pair@std@QBDU?$pair@std@PAXI@1@@1@@1@U__eqstr@1@V?$allocator@std@U?$pair@std@PBDU?$pair@std@PAXI@1@@1@@1@@std@@QAEAAU?$pair@std@QBDU?$pair@std@PAXI@1@@2@ABU32@@Z
      14425389CB565752E8........8B4C24148B01508D53088B42042B0299:
        0. 20 3905 005F 0000:?_M_insert@?$hashtable@std@U?$pair@std@_OHVlocale@1@@1@HU?$hash@std@H@1@U?$_Select1st@std@U?$pair@std@_OHVlocale@1@@1@@1@U?$equal_to@std@H@1@V?$allocator@std@U?$pair@std@HVlocale@1@@1@@1@@std@@QAEAAU?$pair@std@_OHVlocale@1@@2@ABU32@@Z
      385389CB5556578B7A048B53280FBE0A83F929740B85C9741283F97C74:
        0. 14 FD8E 00AD 0000:?parseRegexp@RegExp@@AAEHXZ
    5424:
      08:
        5153558B6C241C565789CF8B47:
          048B34903B742420750C55FF7424:
            0. 02 3247 0068 0000:?_M_erase_bucket@?$hashtable@std@U?$pair@std@QBDU?$pair@std@PAXI@1@@1@PBDU?$hash@std@PBD@1@U?$_Select1st@std@U?$pair@std@QBDU?$pair@std@PAXI@1@@1@@1@U__eqstr@1@V?$allocator@std@U?$pair@std@PBDU?$pair@std@PAXI@1@@1@@1@@std@@AAEX_OIPAU?$_Hashtable_node@std@U?$pair@std@QBDU?$pair@std@PAXI@1@@1@@2@1@Z (0045: 00)
            1. 02 3247 0074 0000:?_M_erase_bucket@?$hashtable@std@U?$pair@std@QBDU?$pair@std@PAXI@1@@1@PBDU?$hash@std@PBD@1@U?$_Select1st@std@U?$pair@std@QBDU?$pair@std@PAXI@1@@1@@1@U__eqstr@1@V?$allocator@std@U?$pair@std@PBDU?$pair@std@PAXI@1@@1@@1@@std@@AAEX_OIPAU?$_Hashtable_node@std@U?$pair@std@QBDU?$pair@std@PAXI@1@@1@@2@1@Z (0045: EB)
          088B34903B742420750C55FF7424:
            0. 02 3247 0074 0000:?_M_erase_bucket@?$hashtable@std@U?$pair@std@_OHVlocale@1@@1@HU?$hash@std@H@1@U?$_Select1st@std@U?$pair@std@_OHVlocale@1@@1@@1@U?$equal_to@std@H@1@V?$allocator@std@U?$pair@std@HVlocale@1@@1@@1@@std@@AAEX_OIPAU?$_Hashtable_node@std@U?$pair@std@_OHVlocale@1@@1@@2@1@Z
        5389CB:
          565766837B0400741E8B430885C074173BC2741389542414:
            0. 04 36F3 0075 0000:?setb@streambuf@@IAEXPAD0H@Z
          8A430C5684C0752485D2782084C0751C83FAFF7417895424:
            0. 06 41F6 007B 0000:?_M_open@_Filebuf_base@std@@QAE_NHH@Z
        83FA015389CB7C083915........7D0A5BB8........59C2040039:
          0. 0D 4742 004D (!)0000:?
        8B:
          015389CB56573B0274168B0B8B39FF57088B5424148B328B1689:
            0. 0F 3DE5 002F 0000:??4locale@std@@QAEABV01@ABV01@@Z
          0251535531ED565789CF8D7708508B46042B069981E203000000:
            0. 3A CDD1 00C0 0000:?erase@?$hashtable@std@U?$pair@std@_OHVlocale@1@@1@HU?$hash@std@H@1@U?$_Select1st@std@U?$pair@std@_OHVlocale@1@@1@@1@U?$equal_to@std@H@1@V?$allocator@std@U?$pair@std@HVlocale@1@@1@@1@@std@@QAEIABH@Z
      0C:
        5389CB:
          565766837B040074208B430885C074193B44241474138954:
            0. 06 CB83 0077 0000:?setb@streambuf@@IAEXPAD0H@Z
          F7C208000000740881CA02000000EB0E8AC2240F3C027506:
            0. 1A F6DC 0085 0000:?open@fstreambase@@QAEXPBDHH@Z
        8B0253555689CE8D560857508B42042B029981E20300000003C2C1:
          0. 2F E5D3 00A3 0000:?insert_equal_noresize@?$hashtable@std@U?$pair_OHVloca1@HH_Select1sttoV?$alto@QAE?AHt_iterNoncst_traits2@AB2Z
    D1:
      515380790C0075075B83C40831C0C3807A0D007507BB01000000EB2583:
        0. 10 4F96 0056 0000:?_M_close@_Filebuf_base@std@@QAE_NXZ
      538B590885DB5657740F8954240C8BCBE8........8B54240C8B442414:
        0. 28 4ACD 0048 0000:?tie@ios@@QAEPAVostream@@PAV2@@Z
      8B410453668B5C240C56573B420874636683FBFF743E8B7A0866395FFE:
        0. 62 31DC 0082 0000:?pbackfail@?$basic_stringbuf@std@_YV?$char_traits@std@_Y@1@V?$allocator@std@_Y@1@@std@@MAE_Y_Y@Z
  8D042450FF742410FF742410E8........:
    58C20800:
      0. 00 0000 0016 0000:??$_M_range_initialize@?$basic_string@std@_YV?$char_traits@std@_Y@1@V?$allocator@std@_Y@1@@std@PB_Y@?$basic_string@std@_YV?$char_traits@std@_Y@1@V?$allocator@std@_Y@1@@std@@AAEXPB_Y0@Z (REF 000E: ??$_M_range_initialize@?$basic_string@std@_YV?$char_traits@std@_Y@1@V?$allocator@std@_Y@1@@std@PB_Y@?$basic_string@std@_YV?$char_traits@std@_Y@1@V?$allocator@std@_Y@1@@std@@AAEXPB_Y0ABUforward_iterator_tag@2@@Z)
      1. 00 0000 0016 0000:??$_M_range_initialize@?$basic_string@std@DV?$char_traits@std@D@1@V?$allocator@std@D@1@@std@PAD@?$basic_string@std@DV?$char_traits@std@D@1@V?$allocator@std@D@1@@std@@AAEXPAD0@Z (REF 000E: ??$_M_range_initialize@?$basic_string@std@DV?$char_traits@std@D@1@V?$allocator@std@D@1@@std@PAD@?$basic_string@std@DV?$char_traits@std@D@1@V?$allocator@std@D@1@@std@@AAEXPAD0ABUforward_iterator_tag@2@@Z)
      2. 00 0000 0016 0000:??$_M_range_initialize@?$basic_string@std@_YV?$char_traits@std@_Y@1@V?$allocator@std@_Y@1@@std@PA_Y@?$basic_string@std@_YV?$char_traits@std@_Y@1@V?$allocator@std@_Y@1@@std@@AAEXPA_Y0@Z (REF 000E: ??$_M_range_initialize@?$basic_string@std@_YV?$char_traits@std@_Y@1@V?$allocator@std@_Y@1@@std@PA_Y@?$basic_string@std@_YV?$char_traits@std@_Y@1@V?$allocator@std@_Y@1@@std@@AAEXPA_Y0ABUforward_iterator_tag@2@@Z)
      3. 00 0000 0016 0000:??$_M_range_initialize@?$basic_string@std@_YV?$char_traits@std@_Y@1@V?$allocator@std@_Y@1@@std@PAD@?$basic_string@std@_YV?$char_traits@std@_Y@1@V?$allocator@std@_Y@1@@std@@AAEXPAD0@Z (REF 000E: ??$_M_range_initialize@?$basic_string@std@_YV?$char_traits@std@_Y@1@V?$allocator@std@_Y@1@@std@PAD@?$basic_string@std@_YV?$char_traits@std@_Y@1@V?$allocator@std@_Y@1@@std@@AAEXPAD0ABUforward_iterator_tag@2@@Z)
      4. 00 0000 0016 0000:??$_M_range_initialize@?$basic_string@std@DV?$char_traits@std@D@1@V?$allocator@std@D@1@@std@PBD@?$basic_string@std@DV?$char_traits@std@D@1@V?$allocator@std@D@1@@std@@AAEXPBD0@Z (REF 000E: ??$_M_range_initialize@?$basic_string@std@DV?$char_traits@std@D@1@V?$allocator@std@D@1@@std@PBD@?$basic_string@std@DV?$char_traits@std@D@1@V?$allocator@std@D@1@@std@@AAEXPBD0ABUforward_iterator_tag@2@@Z)
    59C20800:
      0. 00 0000 0016 0000:??$assign@?$basic_string@std@DV?$char_traits@std@D@1@V?$allocator@std@D@1@@std@PAD@?$basic_string@std@DV?$char_traits@std@D@1@V?$allocator@std@D@1@@std@@QAEAAV12@PAD0@Z (REF 000E: ??$_M_assign_dispatch@?$basic_string@std@DV?$char_traits@std@D@1@V?$allocator@std@D@1@@std@PAD@?$basic_string@std@DV?$char_traits@std@D@1@V?$allocator@std@D@1@@std@@AAEAAV12@PAD0ABU__false_type@2@@Z)
      1. 00 0000 0016 0000:??$append@?$basic_string@std@DV?$char_traits@std@D@1@V?$allocator@std@D@1@@std@PBD@?$basic_string@std@DV?$char_traits@std@D@1@V?$allocator@std@D@1@@std@@QAEAAV12@PBD0@Z (REF 000E: ??$_M_append_dispatch@?$basic_string@std@DV?$char_traits@std@D@1@V?$allocator@std@D@1@@std@PBD@?$basic_string@std@DV?$char_traits@std@D@1@V?$allocator@std@D@1@@std@@AAEAAV12@PBD0ABU__false_type@2@@Z)
      2. 00 0000 0016 0000:??$append@?$basic_string@std@_YV?$char_traits@std@_Y@1@V?$allocator@std@_Y@1@@std@PA_Y@?$basic_string@std@_YV?$char_traits@std@_Y@1@V?$allocator@std@_Y@1@@std@@QAEAAV12@PA_Y0@Z (REF 000E: ??$_M_append_dispatch@?$basic_string@std@_YV?$char_traits@std@_Y@1@V?$allocator@std@_Y@1@@std@PA_Y@?$basic_string@std@_YV?$char_traits@std@_Y@1@V?$allocator@std@_Y@1@@std@@AAEAAV12@PA_Y0ABU__false_type@2@@Z)
      3. 00 0000 0016 0000:??$assign@?$basic_string@std@_YV?$char_traits@std@_Y@1@V?$allocator@std@_Y@1@@std@PA_Y@?$basic_string@std@_YV?$char_traits@std@_Y@1@V?$allocator@std@_Y@1@@std@@QAEAAV12@PA_Y0@Z (REF 000E: ??$_M_assign_dispatch@?$basic_string@std@_YV?$char_traits@std@_Y@1@V?$allocator@std@_Y@1@@std@PA_Y@?$basic_string@std@_YV?$char_traits@std@_Y@1@V?$allocator@std@_Y@1@@std@@AAEAAV12@PA_Y0ABU__false_type@2@@Z)
      4. 00 0000 0016 0000:??$append@?$basic_string@std@DV?$char_traits@std@D@1@V?$allocator@std@D@1@@std@H@?$basic_string@std@DV?$char_traits@std@D@1@V?$allocator@std@D@1@@std@@QAEAAV12@HH@Z (REF 000E: ??$_M_append_dispatch@?$basic_string@std@DV?$char_traits@std@D@1@V?$allocator@std@D@1@@std@H@?$basic_string@std@DV?$char_traits@std@D@1@V?$allocator@std@D@1@@std@@AAEAAV12@HHABU__true_type@2@@Z)
      5. 00 0000 0016 0000:??$append@?$basic_string@std@_YV?$char_traits@std@_Y@1@V?$allocator@std@_Y@1@@std@PB_Y@?$basic_string@std@_YV?$char_traits@std@_Y@1@V?$allocator@std@_Y@1@@std@@QAEAAV12@PB_Y0@Z (REF 000E: ??$_M_append_dispatch@?$basic_string@std@_YV?$char_traits@std@_Y@1@V?$allocator@std@_Y@1@@std@PB_Y@?$basic_string@std@_YV?$char_traits@std@_Y@1@V?$allocator@std@_Y@1@@std@@AAEAAV12@PB_Y0ABU__false_type@2@@Z)
      6. 00 0000 0016 0000:??$append@?$basic_string@std@_YV?$char_traits@std@_Y@1@V?$allocator@std@_Y@1@@std@H@?$basic_string@std@_YV?$char_traits@std@_Y@1@V?$allocator@std@_Y@1@@std@@QAEAAV12@HH@Z (REF 000E: ??$_M_append_dispatch@?$basic_string@std@_YV?$char_traits@std@_Y@1@V?$allocator@std@_Y@1@@std@H@?$basic_string@std@_YV?$char_traits@std@_Y@1@V?$allocator@std@_Y@1@@std@@AAEAAV12@HHABU__true_type@2@@Z)
      7. 00 0000 0016 0000:??$append@?$basic_string@std@DV?$char_traits@std@D@1@V?$allocator@std@D@1@@std@PAD@?$basic_string@std@DV?$char_traits@std@D@1@V?$allocator@std@D@1@@std@@QAEAAV12@PAD0@Z (REF 000E: ??$_M_append_dispatch@?$basic_string@std@DV?$char_traits@std@D@1@V?$allocator@std@D@1@@std@PAD@?$basic_string@std@DV?$char_traits@std@D@1@V?$allocator@std@D@1@@std@@AAEAAV12@PAD0ABU__false_type@2@@Z)
  A1........40A3........487505E8........8B042459C3:
    0. 00 0000 0019 0000:??0_Loc_init@ios_base@std@@QAE@XZ (REF 0010: ?_S_initialize@locale@std@@SAXXZ)
    1. 00 0000 0019 0000:??0Init@ios_base@std@@QAE@XZ (REF 0010: ?_S_initialize@ios_base@std@@KAXXZ)
  B8:
    FFFFFFFF533944240C7420FF7154FF742410E8........83C40883F8FF74:
      0. 3B B91A 005B 0000:?pbackfail@stdio_istreambuf@_SgI@@MAEHH@Z
    ........50E8........83C4048B042459C3:
      0. 00 0000 0014 0000:??0?$_Node_Alloc_Lock@std@$00$0@@std@@QAE@XZ
  C1E903741D890789470489470889470C89471089471489471889471C83C720:
    0. 12 A65F 0032 0000:__opti_stosd
    1. 6A F835 008A 0000:__opti_stosd 0032:_memset
  C701........:
    8D49:
      1CE8........58C3:
        0. 00 0000 0011 0000:??1?$basic_streambuf@std@_YV?$char_traits@std@_Y@1@@std@@UAE@XZ
      4CE8........58C3:
        0. 00 0000 0011 0000:??1?$basic_streambuf@std@DV?$char_traits@std@D@1@@std@@UAE@XZ
    E8........58C3:
      0. 00 0000 000E 0000:??1?$codecvt@std@DDU__stl_mbstate_t@@@std@@MAE@XZ (REF 0003: ??_Q?$codecvt@std@DDU__stl_mbstate_t@@@std@@6B@)
      1. 00 0000 000E 0000:??1?$codecvt@std@_YDU__stl_mbstate_t@@@std@@MAE@XZ (REF 0003: ??_Q?$codecvt@std@_YDU__stl_mbstate_t@@@std@@6B@)
      2. 00 0000 000E 0000:??1?$collate@std@D@std@@MAE@XZ (REF 0003: ??_Q?$collate@std@D@std@@6B@)
      3. 00 0000 000E 0000:??1?$collate@std@_Y@std@@MAE@XZ (REF 0003: ??_Q?$collate@std@_Y@std@@6B@)
      4. 00 0000 000E 0000:??1?$basic_ios@std@DV?$char_traits@std@D@1@@std@@UAE@XZ (REF 0003: ??_Q?$basic_ios@std@DV?$char_traits@std@D@1@@std@@6B@)
      5. 00 0000 000E 0000:??1?$ctype@std@_Y@std@@MAE@XZ (REF 0003: ??_Q?$ctype@std@_Y@std@@6B@)
      6. 00 0000 000E 0000:??1?$codecvt_byname@std@DDU__stl_mbstate_t@@@std@@UAE@XZ (REF 0003: ??_Q?$codecvt_byname@std@DDU__stl_mbstate_t@@@std@@6B@)
      7. 00 0000 000E 0000:??1?$messages_byname@std@D@std@@MAE@XZ (REF 0003: ??_Q?$messages_byname@std@D@std@@6B@)
      8. 00 0000 000E 0000:??1?$messages_byname@std@_Y@std@@MAE@XZ (REF 0003: ??_Q?$messages_byname@std@_Y@std@@6B@)
      9. 00 0000 000E 0000:??1?$basic_ios@std@_YV?$char_traits@std@_Y@1@@std@@UAE@XZ (REF 0003: ??_Q?$basic_ios@std@_YV?$char_traits@std@_Y@1@@std@@6B@)
      10. 00 0000 000E 0000:??1?$moneypunct@std@D$00@std@@MAE@XZ (REF 0003: ??_Q?$moneypunct@std@D$00@std@@6B@)
      11. 00 0000 000E 0000:??1?$moneypunct@std@D$0@@std@@MAE@XZ (REF 0003: ??_Q?$moneypunct@std@D$0@@std@@6B@)
      12. 00 0000 000E 0000:??1?$moneypunct@std@_Y$00@std@@MAE@XZ (REF 0003: ??_Q?$moneypunct@std@_Y$00@std@@6B@)
      13. 00 0000 000E 0000:??1?$moneypunct@std@_Y$0@@std@@MAE@XZ (REF 0003: ??_Q?$moneypunct@std@_Y$0@@std@@6B@)
      14. 00 0000 000E 0000:??1?$numpunct@std@D@std@@MAE@XZ (REF 0003: ??_Q?$numpunct@std@D@std@@6B@)
      15. 00 0000 000E 0000:??1?$numpunct@std@_Y@std@@MAE@XZ (REF 0003: ??_Q?$numpunct@std@_Y@std@@6B@)
      16. 00 0000 000E 0000:??1stdio_istreambuf@_SgI@@UAE@XZ (REF 0003: ??_Qstdio_istreambuf@_SgI@@6B@)
      17. 00 0000 000E 0000:??1stdio_ostreambuf@_SgI@@UAE@XZ (REF 0003: ??_Qstdio_ostreambuf@_SgI@@6B@)
  E8........:
    58C3:
      0. 00 0000 0008 0000:??1?$vector@std@_YV?$allocator@std@_Y@1@@std@@QAE@XZ (REF 0002: ??1?$_Vector_base@std@_YV?$allocator@std@_Y@1@@std@@QAE@XZ)
      1. 00 0000 0008 0000:??1?$vector@std@DV?$allocator@std@D@1@@std@@QAE@XZ (REF 0002: ??1?$_Vector_base@std@DV?$allocator@std@D@1@@std@@QAE@XZ)
    8B04248D:
      48:
        08:
          C701........E8........58C3:
            0. 00 0000 0019 0000:??_D?$basic_ostream@std@_YV?$char_traits@std@_Y@1@@std@@UAEXXZ (REF 0002: ??1?$basic_ostream@std@_YV?$char_traits@std@_Y@1@@std@@UAE@XZ)
            1. 00 0000 0019 0000:??_D?$basic_ostream@std@DV?$char_traits@std@D@1@@std@@UAEXXZ (REF 0002: ??1?$basic_ostream@std@DV?$char_traits@std@D@1@@std@@UAE@XZ)
          E8........58C3:
            0. 00 0000 0013 0000:??_Dostream@@UAEXXZ (REF 0002: ??1ostream@@UAE@XZ)
            1. 00 0000 0013 0000:??_Dostream_withassign@@UAEXXZ (REF 0002: ??1ostream_withassign@@UAE@XZ)
        10E8........58C3:
          0. 00 0000 0013 0000:??_Distream@@UAEXXZ (REF 0002: ??1istream@@UAE@XZ)
          1. 00 0000 0013 0000:??_Distream_withassign@@UAEXXZ (REF 0002: ??1istream_withassign@@UAE@XZ)
        18:
          C701........E8........58C3:
            0. 00 0000 0019 0000:??_D?$basic_iostream@std@_YV?$char_traits@std@_Y@1@@std@@UAEXXZ (REF 0002: ??1?$basic_iostream@std@_YV?$char_traits@std@_Y@1@@std@@UAE@XZ)
            1. 00 0000 0019 0000:??_D?$basic_iostream@std@DV?$char_traits@std@D@1@@std@@UAEXXZ (REF 0002: ??1?$basic_iostream@std@DV?$char_traits@std@D@1@@std@@UAE@XZ)
          E8........58C3:
            0. 00 0000 0013 0000:??_Diostream_withassign@@UAEXXZ (REF 0002: ??1iostream_withassign@@UAE@XZ)
            1. 00 0000 0013 0000:??_Diostream@@UAEXXZ (REF 0002: ??1iostream@@UAE@XZ)
        48E8........58C3:
          0. 00 0000 0013 0000:??_Dstrstreambase@@UAEXXZ (REF 0002: ??1strstreambase@@MAE@XZ)
          1. 00 0000 0013 0000:??_Dfstreambase@@UAEXXZ (REF 0002: ??1fstreambase@@UAE@XZ)
        50:
          C701........E8........58C3:
            0. 00 0000 0019 0000:??_D?$basic_ostringstream@std@_YV?$char_traits@std@_Y@1@V?$allocator@std@_Y@1@@std@@UAEXXZ (REF 0002: ??1?$basic_ostringstream@std@_YV?$char_traits@std@_Y@1@V?$allocator@std@_Y@1@@std@@UAE@XZ)
            1. 00 0000 0019 0000:??_D?$basic_istringstream@std@_YV?$char_traits@std@_Y@1@V?$allocator@std@_Y@1@@std@@UAEXXZ (REF 0002: ??1?$basic_istringstream@std@_YV?$char_traits@std@_Y@1@V?$allocator@std@_Y@1@@std@@UAE@XZ)
          E8........58C3:
            0. 00 0000 0013 0000:??_Dostrstream@@UAEXXZ (REF 0002: ??1ostrstream@@UAE@XZ)
            1. 00 0000 0013 0000:??_Dofstream@@UAEXXZ (REF 0002: ??1ofstream@@UAE@XZ)
        58E8........58C3:
          0. 00 0000 0013 0000:??_Distrstream@@UAEXXZ (REF 0002: ??1istrstream@@UAE@XZ)
          1. 00 0000 0013 0000:??_Difstream@@UAEXXZ (REF 0002: ??1ifstream@@UAE@XZ)
        60:
          C701........E8........58C3:
            0. 00 0000 0019 0000:??_D?$basic_stringstream@std@_YV?$char_traits@std@_Y@1@V?$allocator@std@_Y@1@@std@@UAEXXZ
          E8........58C3:
            0. 00 0000 0013 0000:??_Dstrstream@@UAEXXZ (REF 0002: ??1strstream@@UAE@XZ)
            1. 00 0000 0013 0000:??_Dfstream@@UAEXXZ (REF 0002: ??1fstream@@UAE@XZ)
        68C701........E8........58C3:
          0. 00 0000 0019 0000:??_Dostrstream@std@@UAEXXZ
        70C701........E8........58C3:
          0. 00 0000 0019 0000:??_Distrstream@std@@UAEXXZ
        78C701........E8........58C3:
          0. 00 0000 0019 0000:??_D?$basic_ostringstream@std@DV?$char_traits@std@D@1@V?$allocator@std@D@1@@std@@UAEXXZ (REF 0002: ??1?$basic_ostringstream@std@DV?$char_traits@std@D@1@V?$allocator@std@D@1@@std@@UAE@XZ)
          1. 00 0000 0019 0000:??_Dstrstream@std@@UAEXXZ (REF 0002: ??1strstream@std@@UAE@XZ)
          2. 00 0000 0019 0000:??_D?$basic_istringstream@std@DV?$char_traits@std@D@1@V?$allocator@std@D@1@@std@@UAEXXZ (REF 0002: ??1?$basic_istringstream@std@DV?$char_traits@std@D@1@V?$allocator@std@D@1@@std@@UAE@XZ)
      8888000000C701........E8........58C3:
        0. 00 0000 001C 0000:??_D?$basic_stringstream@std@DV?$char_traits@std@D@1@V?$allocator@std@D@1@@std@@UAEXXZ
  FF:
    0D........7505E8........58C3:
      0. 00 0000 0010 0000:??1_Loc_init@ios_base@std@@QAE@XZ (REF 000A: ?_S_uninitialize@locale@std@@SAXXZ)
      1. 00 0000 0010 0000:??1Init@ios_base@std@@QAE@XZ (REF 000A: ?_S_uninitialize@ios_base@std@@KAXXZ)
    31E8........:
      83C404:
        58C3:
          0. 00 0000 000D (!)0000:?
        59C3:
          0. 00 0000 000D 0000:?_M_file_size@_Filebuf_base@std@@QAEJXZ
      8B442404C7000000000083C40458C3:
        0. 00 0000 0017 0000:??1RegBuffer@@QAE@XZ
    7154E8........83C40483F8:
      0119C0F7D059C3:
        0. 00 0000 0015 0000:?sync@stdio_streambuf_base@_SgI@@MAEHXZ
      FF7402EB05B8FFFFFFFF59C3:
        0. 00 0000 001A 0000:?uflow@stdio_istreambuf@_SgI@@MAEHXZ
    74240C837C240C007507837C241000740431C0EB05B8010000003C0119D2:
      0. 12 1C15 0040 0000:?setbuf@stdio_streambuf_base@_SgI@@MAEPAV?$basic_streambuf@std@DV?$char_traits@std@D@1@@std@@PADH@Z
525081642404FFFFFF7FDF2C2485D27908DB2D........DEC183C408C3:
  0. 00 0000 001D 0000:__U64_LDBL
53:
  31:
    C08B4C24088B5C240C85C97E:
      0F3803740B4039C87D06803C180075F55BC2:
        0. 02 87C1 0022 (l)0000:STRLEN2
      11663903740C4039C87D0766833C430075F4:
        0. 04 3F98 0024 (l)0000:WCSLEN2
    C931DB5631D28B74240C578B7C241485FF742F803C3200742983FB047419:
      0. 06 3042 004A 0000:__mbsnccnt
    D2:
      31DB8B4C2408:
        0FBE0183F822741085C0741283F820741483F809740FEB:
          0. 37 A9B1 0057 (l)0000:_parse_program_name
        668B0125FFFF000083F822741085C0741483F820741683:
          0. 48 1D83 0068 (l)0000:_parse_program_name
      8B5C240C8B4C240885DB74218A0184C0741B25FF000000F680:
        0. 18 336B 0038 0000:__mbsnbcnt
    DB:
      558B6C2410568B74241C578B7C24245756FF74242455C705........01:
        0. 08 CF11 0101 0000:_wfnsplit (REF 0028: __wsplitpath)
        1. 08 CF11 0101 0000:_fnsplit (REF 0028: __splitpath)
      568B74240C:
        0FBE0E51E8........83C40485C074098BD6460FBE1AC1E3:
          0. 0B 1E0F 002B 0000:__tcsnextc
        578B7C24140FBF1689D00FBF0F2BC1751785D27413430FBF:
          0. 14 ED3D 0034 0000:_wcscmp
      668B54240C8B4C2408663911750289CB8BC183C1026683380075EE8BC3:
        0. 02 8FCC 0022 0000:_wcsrchr
      8B542408568B7424148B4C241085F674:
        118A01880284C0740983C10242:
          0. 0A 41F3 002A 0000:__fwcstombs
        140FBE016685C0668902740983:
          0. 0D 2967 002D 0000:__fmbstowcs
  5152:
    57E8........B9000400008B1D........8B3B83C30485FF740D3B4718:
      0. 10 BBE1 0030 0000:___threadid
    E8........B9010400008B1D........4974148B1383C30485D274F43B:
      0. 0F 7727 0038 0000:__getthreaddata
  55:
    56:
      31F6578B7C241C4F78428D0C3E85C9790141D1F989CB8B542418FF34DA:
        0. 06 4234 0058 0000:___ConvertName
      57:
        31F631FF8B6C241485ED75068B2D........565656566AFF8B4C242C:
          0. 09 3772 00C7 0000:___wMoveFile
        6A006A00FF742428FF7424286A01FF742428FF15........89C101C9:
          0. 04 BD50 0090 0000:___ConvertToCP
        837C241C0074538B4C241C31F68D79FF8D1C3ED1EB89DA0FAF542420:
          0. 45 980F 0065 0000:_bsearch
        89CB8B7424148B7C24188B6C241C85FF66C743300000750D56E8:
          0. 00 0000 0095 0000:?init@strstreambuf@@AAEXPADH0@Z
        8B:
          05........8B:
            54241C8B7424148B7C241885C0747C31ED85D2746F:
              0. 0A B1BF 00AE 0000:__mbsncmp
            7C24148B6C24188B74241C85C00F848E00000031D2:
              0. 13 C07F 00BC 0000:__mbsnbcmp
          44241C85C074548B4C241C31F68D79FF8D1C3ED1EB89DA0FAF5424:
            0. 47 14CB 0067 0000:_bsearch
          4C24:
            188B6C24148B7C24248B7424183B4C242077:
              278B5C241C397C:
                0. 07 33DE 0046 0000:_disp_peekbox
              298B5C241C397C:
                0. 10 F07A 0048 0000:_disp_pokebox
            1C8B5424148B6C24188B7424208B7C242431DB57565155C705:
              0. 00 0000 00F3 0000:_fnsplit (00D2: C3)
              1. 00 0000 00F7 0000:_wfnsplit (00D2: 8B)
          5C241431F68B7C24188B6C241C85DB0F84BC00000083FD0119C941:
            0. 08 AA4A 0120 0000:_mbstowcs
          7424188B6C24148B7C24243B74242077218B5C241C397C241C7710:
            0. 04 79C7 003C 0000:_disp_fillbox
      8B:
        410489CE578B5004F7443214FFFEFFFF74116A01E8........85C00F:
          0. A2 3DA4 012D 0000:?get@istream@@QAEAAV1@AAVstreambuf@@D@Z
        74241C85F657:
          745F807C241C008B4C2424668B19743F8B5424188B4A:
            0. 63 5916 0083 0000:??$fill_n@std@V?$ostreambuf_iterator@std@_YV?$char_traits@std@_Y@1@@1@I_Y@std@@YA?AV?$ostreambuf_iterator@std@_YV?$char_traits@std@_Y@1@@1@V21@IAB_Y@Z
          7E5F807C241C008B4C2424668B19743F8B5424188B4A:
            0. 63 0EDE 0083 0000:??$fill_n@std@V?$ostreambuf_iterator@std@_YV?$char_traits@std@_Y@1@@1@H_Y@std@@YA?AV?$ostreambuf_iterator@std@_YV?$char_traits@std@_Y@1@@1@V21@HAB_Y@Z
    8B6C240C56:
      31F65731FF85ED75068B2D........565656566AFFFF74242C:
        0. 08 A914 00BF 0000:___wMoveFile
      8B742414578B7C24243B7424207721397C241C8B5C241C7710:
        0. 04 79C7 003C 0000:_disp_fillbox
  56:
    31:
      C031C98B54241031DB8B74240C85D27430803C3300742A83F904741A31:
        0. 06 D550 0047 0000:__mbsnccnt
      DB:
        31C98B44240C8A188ACBF681........0474128BC38B74240CC1E008:
          0. 0E 7640 002E 0000:__mbsnextc
        8B:
          4C24148B44240C668B74241085C97409668934584339CB72F75E5B:
            0. 01 EF04 0021 0000:_wmemset
          7424:
            0C0FBE0E51E8........83C40485C074098BD6460FBE1AC1E3:
              0. 0B 1453 002B 0000:__tcsnextc
            148B54240C8B4C241085F674:
              118A01880284C0740983C10242:
                0. 0A 4BAF 002A 0000:__fwcstombs
              140FBE016689026685C0740983:
                0. 0D 233B 002D 0000:__fmbstowcs
      F68B:
        4C240C85C975068B0D........894C240C565656566AFF8B4C2424:
          0. 0D D036 007D 0000:___wSetFileAttributes (REF 0064: __imp__SetFileAttributesA@8)
          1. 0D D036 007D 0000:___wCreateDirectory (REF 0064: __imp__CreateDirectoryA@8)
        5C240C85DB750DE8........3BC6786231F6EB5E53E8........83:
          0. 21 51CF 007C 0000:_fflush
    57:
      31:
        C08B5C241085DB747A3944241474743803747031C08B0D........8A:
          0. 0A 3639 0092 0000:_mblen
        C98B5C24108B4424148ACB5051E8........83C408BAFFFFFFFF3BC2:
          0. 13 2DA2 0050 0000:_putw
        DB8B:
          4424108BD08BF0663918740A83C2024366833A0075F6D1EB8944:
            0. 28 71E4 0048 0000:__wcsrev
          5424148B442410C602258B48048B7104F644061C80740543C604:
            0. 3A 19B8 00A7 (l)0000:?intformat@@YAXAAVostream@@PADHH@Z
          7424108B7C24140FBF1689D00FBF0F2BC1751785D27413430FBF:
            0. 14 ED3D 0034 0000:_wcscmp
        F68B4C24188B5424108B5C241485C97438668B02663B03751466833A:
          0. 33 ABC9 0053 0000:_wcsncmp
      89:
        C831D28B5C24148B742410C700........6689500489700866895006:
          0. 26 E30D 0046 0000:??0streambuf@@QAE@PADH@Z
        CA8B5C24108BC38BF325FF00000081E6FFFCFFFF8BFB09420C81E7FF:
          0. 0F 515A 002F 0000:?setstate@ios@@IAEXH@Z
        CB8B:
          4424:
            108B530C25FF00000081E2800000008B73100BC281E600FF:
              0. 1F DB2E 003F 0000:?clear@ios@@QAEXH@Z
            148B542410508B7308528D4B08FF560485C074138B43046A:
              0. 09 0D86 0046 0000:?setbuf@fstreambase@@QAEXPADH@Z
          5424148B74241885D2740D837C24100074068B442410EB028BC2:
            0. 21 8845 0041 0000:?setg@streambuf@@IAEXPAD00@Z
      8B:
        05........:
          85C08B7424108B7C2414747231D231DB31C98A1E8ACBF6:
            0. 01 F965 0095 0000:__mbscmp
          8B5C241085C08B7C2414742FBEFFFFFFFF803B0075095F:
            0. 0D 96AD 004A 0000:__mbsbtype
          BF010000008B1D........85C0750CC705:
            0. 00 0000 009D (l)0000:__sti_monetary
        411489CF85C074072B4710741CEB0439E474168B076AFFFF5018BBFF:
          0. 2D A121 0096 0000:?sync@stdiobuf@@UAEHXZ
        4C24148B:
          5C24188B5424108BC283C2026683380075F583C2FE85DB74:
            0. 28 9FB3 0048 0000:_wcsncat
          7424108BDE66833E007424668B018BD1663B03741166833A:
            0. 28 3DFD 0048 0000:_wcsspn
        5424:
          108B5C24148B:
            420885C075268B420485C0741F803B00741A8BC3:
              0. 1C 0F52 003C (l)0000:_PutStr
            742418D1EE85F68D76FF741A8A0ABF020000008A:
              0. 16 0DB1 0036 0000:_swab
          148B5C24188B7424108B0A8B038902BF04000000890B01FA01FB:
            0. 09 F86A 0029 (l)0000:_iswap@12
        5C24:
          108B:
            5424148B430885C075268B430485C0741F803A00741A8BC2:
              0. 1C DBCB 003C (l)0000:_PutStr
            74241485F6740485DB750431FFEB4456E8........83C404:
              0. 06 71F2 0074 (l)0000:STR_CAT
          148B:
            0383C0023B43047C298943048B4B04C1E1028B53085152FF:
              0. 01 54B7 0052 (l)0000:ADDARGP
            54241C8B7424108B7C241885D274158A0331C988064A4346:
              0. 12 CC79 0032 0000:_memccpy
        793489CB85FF7505BF100000008B432885C0740B57FF532889C683C4:
          0. 05 E74A 0064 0000:?doallocate@strstreambuf@@UAEHXZ
      8D44241C508D:
        4C2418:
          51E8........83C40884C074668D4C2414E8:
            0. 00 0000 00A1 0000:??$mismatch@std@V?$istreambuf_iterator@std@DV?$char_traits@std@D@1@@1@PAD@std@@YA?AU?$pair@std@V?$istreambuf_iterator@std@DV?$char_traits@std@D@1@@1@PAD@1@V?$istreambuf_iterator@std@DV?$char_traits@std@D@1@@1@0PAD@Z
          E8........84C0:
            74258B4C2428C701060000008B:
              0. 2D 9442 009F 0000:?do_get_year@?$time_get@std@_YV?$istreambuf_iterator@std@_YV?$char_traits@std@_Y@1@@1@@std@@MBE?AV?$istreambuf_iterator@std@_YV?$char_traits@std@_Y@1@@2@V32@0AAVios_base@2@AAHPAUtm@@@Z (REF 000D: ?equal@?$istreambuf_iterator@std@_YV?$char_traits@std@_Y@1@@std@@QBE_NABV12@@Z)
              1. 2D 9442 009F 0000:?do_get_year@?$time_get@std@DV?$istreambuf_iterator@std@DV?$char_traits@std@D@1@@1@@std@@MBE?AV?$istreambuf_iterator@std@DV?$char_traits@std@D@1@@2@V32@0AAVios_base@2@AAHPAUtm@@@Z (REF 000D: ?equal@?$istreambuf_iterator@std@DV?$char_traits@std@D@1@@std@@QBE_NABV12@@Z)
            75628D4C2414E8........8B54:
              0. 3A D128 0099 0000:??$mismatch@std@V?$istreambuf_iterator@std@DV?$char_traits@std@D@1@@1@PAD@std@@YA?AU?$pair@std@V?$istreambuf_iterator@std@DV?$char_traits@std@D@1@@1@PAD@1@V?$istreambuf_iterator@std@DV?$char_traits@std@D@1@@1@0PAD@Z
        54241852E8........83C40884C074258B4C2428C70106:
          0. 31 E194 00A5 0000:?do_get_year@?$time_get@std@_YV?$istreambuf_iterator@std@_YV?$char_traits@std@_Y@1@@1@@std@@MBE?AV?$istreambuf_iterator@std@_YV?$char_traits@std@_Y@1@@2@V32@0AAVios_base@2@AAHPAUtm@@@Z (REF 000E: ??$?8std@_YV?$char_traits@std@_Y@0@@std@@YA_NABV?$istreambuf_iterator@std@_YV?$char_traits@std@_Y@1@@1@0@Z)
          1. 31 E194 00A5 0000:?do_get_year@?$time_get@std@DV?$istreambuf_iterator@std@DV?$char_traits@std@D@1@@1@@std@@MBE?AV?$istreambuf_iterator@std@DV?$char_traits@std@D@1@@2@V32@0AAVios_base@2@AAHPAUtm@@@Z (REF 000E: ??$?8std@DV?$char_traits@std@D@0@@std@@YA_NABV?$istreambuf_iterator@std@DV?$char_traits@std@D@1@@1@0@Z)
    6A006A006A006A006A018D44242C5068200200008B4C2428FF7104FF15:
      0. 00 0000 006A 0000:__Locale_wctomb
    83:
      3D........008B5C24108B44240C8B54241474:
        468BF085D274308A0B84:
          0. 0B 9B82 007B 0000:__mbsncpy
        4C8BF085D274368A0B84:
          0. 0B 3F99 0081 0000:__mbsnbcpy
      7C240C000F84B30000008B44240C8B480C81F9........740951E8:
        0. 00 0000 00C3 (l)0000:_freelocaleconv
    89:
      CB:
        85C9740C8B43048B50048D741304EB0231F656FF54241083C4048BC3:
          0. 05 EC16 0025 (!)0000:?
        8B:
          44240C8B73048B50048B4E04528D4C0B04E8........8BC35E5BC2:
            0. 02 2768 0022 0000:??4iostream_withassign@@QAEAAV0@AAVios@@@Z
          54240C8B74241089531489531085D2740C85F674083BF272048BC6:
            0. 0C 4C89 002C 0000:?setp@streambuf@@IAEXPAD0@Z
          74240C56E8........568B0B6A00034B0451E8........01730483:
            0. 07 724A 0027 0000:?fill0@RegBuffer@@QAEXI@Z
      CE:
        8B5C240C85DB74248B530452E8........8B4B048B13518B0E034E04:
          0. 03 FE51 0035 0000:?write@RegBuffer@@QAEXPAU1@@Z
        BBFFFFFFFF66837E3000743C8B54240C81FA00400000751568004000:
          0. 06 42EA 0053 0000:?setmode@filebuf@@QAEHH@Z
    8B:
      0D........8B44240C85C974418A188BD08BF084DB742131C98ACBF681:
        0. 00 0000 0065 0000:__mbsrev
      35........8B5C240CE8........8D4B0C516A1556E8........8D5310:
        0. 05 42E3 00DC (l)0000:_takelocaleconv
      410489CE578B500403D6F6421086755E8B5A088B53203B531C76158B7B:
        0. 34 D2C6 0079 0000:?putback@istream@@QAEAAV1@D@Z
      4424:
        0C:
          85C00F84BC0000008B44240C8B480C81F9........740A51FF15:
            0. 00 0000 00CD (l)0000:_freelocaleconv
          8B:
            088B148D........52E8........8B5C240C8B338B04B5:
              0. 00 0000 002D 0000:_matherr
            5C240C80380074560FBE0BF6C18074488B54240C5252E8:
              0. 00 0000 0080 0000:_unmangle_ident
        10:
          83F8017402EB1731C98A4C240CF681........08743C5E5BB802:
            0. 0C 9E5D 0060 0000:__mbbtype (REF 0046: .)
          8A54240C83F8017402EB1531C98ACAF681........0874385E5B:
            0. 0C 3F85 005E 0000:__mbbtype (REF 0044: .)
        1C8B4C241850518B54241C8B5C241852538B74241C56E8:
          0. 06 4A79 0026 0000:__wmakepath (REF 001C: _wfnmerge)
          1. 06 4A79 0026 0000:__makepath (REF 001C: _fnmerge)
      4C24:
        0C8B54241039CA745E85D2745A4A833D........00744B894C240C:
          0. 06 8411 0071 0000:__mbsdec
        148B5C24108B54240C85C97419668B036689026685C0740EBE0200:
          0. 23 6F6A 0043 0000:_wcsncpy
      5424:
        0C8B:
          4A040FBE0185C0740C83F801740A83F802740AEB1D41EB1F83:
            0. 1A 8C95 0043 (!)0000:?
          7424108B5C24148B420885C0752A8B420485C0742385DB8D5B:
            0. 22 4B0F 0042 (l)0000:_PutMem
        148B4C24108B5C240C85D27419668B016689036685C0740EBE0200:
          0. 23 4247 0043 0000:_wcsncpy
      7424:
        0C:
          56:
            E8........:
              83C4048D1C463BDE762B668B0325FFFF000083F8:
                0. 26 12EB 0046 (l)0000:_get_file_extension
              89C383C40403DE3BDE76:
                11807BFF30750B4B39F3:
                  0. 0E C6BB 002E (l)0000:_killzeroes
                2F0FBE0383F82E741183:
                  0. 19 259E 004B (l)0000:_get_file_extension
                  1. 19 4986 004B (l)0000:_get_file_extension
            FF15........83C4048D1C463BDE762B668B0325FFFF000083:
              0. 27 CFE9 0047 (l)0000:_get_file_extension
          57833D........00746B31DB391D........741F568B0D:
            0. 00 0000 00EB (l)0000:__storeosenvironstring
          85F6:
            0F848E00000031DB8B0C9E51FF15........8B549E1C52FF:
              0. 01 54B7 009F (l)0000:_freelocaletime
            74:
              6031DB8B4C9E0C85C9740951E8........83C4048B549E:
                0. 07 8C2C 006D 0000:__Locale_time_destroy
              7D31DBFF349EE8........FF749E1CE8........4383C4:
                0. 0D 3A87 008A (l)0000:_freelocaletime
          8B:
            4C24108BDE66833E007422668339008BD17411668B02663B03:
              0. 24 6EB3 0044 0000:_wcscspn
            4E10668B1C4D........8B560C8B4614056C07000081E3FFFF:
              0. 25 709E 0045 (l)0000:__calc_yday@4
            5424108B5C24148A0A8A03880242880B434E75F35E5BC20C00:
              0. 00 0000 0020 (l)0000:_cswap@12
        148B:
          54240C85F68B5C24108D76FF7425668B02668B0B25FFFF0000:
            0. 1D B157 003D 0000:_wmemcmp
          5C240C85F6750DE8........89C681C69000000085DB75068B:
            0. 0C F47C 0063 0000:_wcstok
    8D442418508D4C2414:
      51E8........83C40884C00F84810000008D4C2410:
        0. 01 3E9B 00B5 0000:??$__copy_sign@std@V?$istreambuf_iterator@std@_YV?$char_traits@std@_Y@1@@1@_Y@std@@YA?AV?$istreambuf_iterator@std@_YV?$char_traits@std@_Y@1@@1@V21@0AAV?$basic_string@std@DV?$char_traits@std@D@1@V?$allocator@std@D@1@@1@_Y_Y@Z
      E8........84C00F85810000008D4C2410E8:
        0. 00 0000 00B1 0000:??$__copy_sign@std@V?$istreambuf_iterator@std@_YV?$char_traits@std@_Y@1@@1@_Y@std@@YA?AV?$istreambuf_iterator@std@_YV?$char_traits@std@_Y@1@@1@V21@0AAV?$basic_string@std@DV?$char_traits@std@D@1@V?$allocator@std@D@1@@1@_Y_Y@Z
    B80800000066094424128B4C2410660944241A8B54241881E1FFFF070081:
      0. 3A 4B0F 005A 0000:__largestNaN
    BE0100000057FF742410E8........89C3FF742418E8........83C40889:
      0. 0C 90BF 0048 (l)0000:?__vc_match_name@@YAHPBD0@Z
    E8........89C38B402085C0740950E8........83C40431D28B0D:
      0. 00 0000 0054 0000:__endthreadex
    FF742414E8........83C40489C3837C240C00741C8D430150FF7424188B:
      0. 0C 7237 003C (l)0000:_strpad
  6A:
    008B4424188B4C241450518B5424188B5C24145253E8........83C4145B:
      0. 01 EF04 0021 0000:__wspawnve (REF 0018: ___wspawn)
      1. 01 EF04 0021 0000:_spawnve (REF 0018: ___spawn)
    018B4424188B4C241450518B5424188B5C24145253E8........83C4145B:
      0. 01 EF04 0021 0000:__wspawnvpe (REF 0018: ___wspawn)
      1. 01 EF04 0021 0000:_spawnvpe (REF 0018: ___spawn)
    3C89CB6A0053E8........8D432C89430483C40C8BC35BC3:
      0. 00 0000 001A 0000:??0RegExp@@QAE@XZ
  803D........007422FE0D........A1........B9........2B05:
    0. 03 C1DC 0117 0000:___SD?%numpunct_cpp3173440193_
  83:
    3D........00:
      75:
        045B31C0C38B1D........BA01000000833B008B0D:
          0. 00 0000 0031 (l)0000:___get_envlength (REF 0003: __environ)
          1. 00 0000 0031 (l)0000:___get_wenvlength (REF 0003: __wenviron)
        0AC705................0FBF05........8D0C85:
          0. 00 0000 0048 0000:__fatexit
      8B4C24088B54240C743239D1772E8A0184C0742825FF0000:
        0. 03 1C6A 0048 0000:__ismbstrail
    C10C56FF74241C518D442418508D4C241851E8........83C41084C0740C:
      0. 33 F814 0053 0000:?do_get_monthname@?$time_get@std@DPBD@std@@MBEPBDPBD0AAVios_base@2@AAHPAUtm@@@Z (REF 0015: ??$__get_short_or_long_monthname@std@PBD@std@@YA_NAAPBD0ABV_Time_Info@1@PAUtm@@@Z)
      1. 33 F814 0053 0000:?do_get_weekday@?$time_get@std@_YPB_Y@std@@MBEPB_YPB_Y0AAVios_base@2@AAHPAUtm@@@Z (REF 0015: ??$__get_short_or_long_dayname@std@PB_Y@std@@YA_NAAPB_Y0ABV_Time_Info@1@PAUtm@@@Z)
      2. 33 F814 0053 0000:?do_get_monthname@?$time_get@std@_YPB_Y@std@@MBEPB_YPB_Y0AAVios_base@2@AAHPAUtm@@@Z (REF 0015: ??$__get_short_or_long_monthname@std@PB_Y@std@@YA_NAAPB_Y0ABV_Time_Info@1@PAUtm@@@Z)
      3. 33 F814 0053 0000:?do_get_weekday@?$time_get@std@DPBD@std@@MBEPBDPBD0AAVios_base@2@AAHPAUtm@@@Z (REF 0015: ??$__get_short_or_long_dayname@std@PBD@std@@YA_NAAPBD0ABV_Time_Info@1@PAUtm@@@Z)
  89:
    C831D2568B74240C8B5C2410573BDAC700........668950046689500689:
      0. 26 F0D2 0046 0000:??0streambuf@@QAE@PADH@Z
    CA:
      31C089423C8B5C240889421489420CC7421000010000C7421811000000:
        0. 1B 4560 003B 0000:?init@ios@@IAEXPAVstreambuf@@@Z
      568B715889F3578D7A58035F042B1FF742540800000074128B7A048BC3:
        0. 48 6678 0068 0000:?_M_set_ptrs@?$basic_stringbuf@std@DV?$char_traits@std@D@1@V?$allocator@std@D@1@@std@@AAEXXZ
      8B:
        41:
          0C563B4208740F8B5A08668B338342080289F05E5BC35EB8FFFFFF:
            0. 03 F7C3 0023 0000:?uflow@?$basic_stringbuf@std@_YV?$char_traits@std@_Y@1@V?$allocator@std@_Y@1@@std@@MAE_YXZ
          243B422076088B5A200FB6035BC3894220B8FFFFFFFF5BC3:
            0. 00 0000 001D 0000:?underflow@streambuf@@UAEHXZ
        5C240C568B44240C57894208C70200000000C7420400000000837A08:
          0. 2F 2D1E 0064 0000:??0RTLPool@@QAE@II@Z
      8D5A5855568B71585789F7037B042B3BF742540800000074138B6A048B:
        0. 4C B8C4 006C 0000:?_M_set_ptrs@?$basic_stringbuf@std@DV?$char_traits@std@D@1@V?$allocator@std@D@1@@std@@AAEXXZ
    CB:
      558B6C2414568B742410578B7C241885FF66C743300000750D56E8:
        0. 00 0000 0096 0000:?init@strstreambuf@@AAEXPADH0@Z
      56:
        578B793485FF7505BF10000000837B2800740B57FF532889C683C404:
          0. 04 5E54 0063 0000:?doallocate@strstreambuf@@UAEHXZ
        8339007405E8........8B44240C833800740789C1E8........8B74:
          0. 16 0F59 0036 0000:?equal@?$istreambuf_iterator@std@_YV?$char_traits@std@_Y@1@@std@@QBE_NABV12@@Z
          1. 16 4980 0036 0000:?equal@?$istreambuf_iterator@std@DV?$char_traits@std@D@1@@std@@QBE_NABV12@@Z
        8B74240C:
          56E8........8B0B566A00034B0451E8........01730483:
            0. 07 724A 0027 0000:?fill0@RegBuffer@@QAEXI@Z
          81FEFFFFFF7F772885F6742485F6740F8BD601D252E8:
            0. 00 0000 0042 0000:?_M_allocate_block@?$_String_base@std@_YV?$allocator@std@_Y@1@@std@@QAEXI@Z
          83FEFF772385F6741F85F6740B56E8........83C404EB02:
            0. 11 4732 003A 0000:?_M_allocate_block@?$_String_base@std@DV?$allocator@std@D@1@@std@@QAEXI@Z
        C741:
          08000000008B53048B5204578B741A088B56203B5624720B8B06:
            0. 13 1268 00D0 0000:?eatwhite@istream@@IAEXXZ
          10........8B43048B5004C7441A04........578B73048B7E04:
            0. 04 4CA5 005C 0000:??1?$basic_iostream@std@_YV?$char_traits@std@_Y@1@@std@@UAE@XZ (001B: 04) (REF 0007: ??_Q?$basic_iostream@std@_YV?$char_traits@std@_Y@1@@std@@6B?$basic_ostream@std@_YV?$char_traits@std@_Y@1@@1@@)
            1. 04 4CA5 005C 0000:??1?$basic_iostream@std@DV?$char_traits@std@D@1@@std@@UAE@XZ (001B: 04) (REF 0007: ??_Q?$basic_iostream@std@DV?$char_traits@std@D@1@@std@@6B?$basic_ostream@std@DV?$char_traits@std@D@1@@1@@)
            2. 04 4CA5 0041 0000:??1?$basic_stringstream@std@_YV?$char_traits@std@_Y@1@V?$allocator@std@_Y@1@@std@@UAE@XZ (001B: 5B) (REF 0007: ??_Q?$basic_stringstream@std@_YV?$char_traits@std@_Y@1@V?$allocator@std@_Y@1@@std@@6B?$basic_ostream@std@_YV?$char_traits@std@_Y@1@@1@?$basic_iostream@std@_YV?$char_traits@std@_Y@1@@1@@)
            3. 04 4CA5 0041 0000:??1strstream@std@@UAE@XZ (001B: 5B) (REF 0007: ??_Qstrstream@std@@6B?$basic_ostream@std@DV?$char_traits@std@D@1@@1@?$basic_iostream@std@DV?$char_traits@std@D@1@@1@@)
            4. 04 4CA5 0041 0000:??1?$basic_stringstream@std@DV?$char_traits@std@D@1@V?$allocator@std@D@1@@std@@UAE@XZ (001B: 5B) (REF 0007: ??_Q?$basic_stringstream@std@DV?$char_traits@std@D@1@V?$allocator@std@D@1@@std@@6B?$basic_ostream@std@DV?$char_traits@std@D@1@@1@?$basic_iostream@std@DV?$char_traits@std@D@1@@1@@)
      6A:
        00E8........8BC3895B10895B0C5BC3:
          0. 00 0000 0014 0000:??0RTLHeapBlock@@QAE@XZ
        01E8........8B0B8B53048A442408880411FF43045BC20400:
          0. 00 0000 001D 0000:?writeTCHAR@RegBuffer@@QAEXD@Z
        3C6A0053E8........8D432C89430483C40C8BC35BC3:
          0. 00 0000 001A 0000:??0RegExp@@QAE@XZ
      8079:
        300074418D5324F64208087438807B38007532807B3900752C837B:
          0. 05 AD69 004E 0000:?_M_switch_to_input_mode@?$basic_filebuf@std@_YV?$char_traits@std@_Y@1@@std@@AAE_NXZ
        3600740BFF733CE8........83C404FF7344E8........31C08943:
          0. 0F 5B55 002F 0000:?_M_deallocate_buffers@?$basic_filebuf@std@_YV?$char_traits@std@_Y@1@@std@@AAEXXZ
        6000744A8D5354F64208087441807B6800753B807B69007535837B:
          0. 05 CF1C 0057 0000:?_M_switch_to_input_mode@?$basic_filebuf@std@DV?$char_traits@std@D@1@@std@@AAE_NXZ
        6600740BFF736CE8........83C404FF7374E8........31C08943:
          0. 0F 189D 002F 0000:?_M_deallocate_buffers@?$basic_filebuf@std@DV?$char_traits@std@D@1@@std@@AAEXXZ
      83790C00750BFF7310E8........83C4048D432C8B4B043BC1740951E8:
        0. 00 0000 0036 0000:??1RegExp@@QAE@XZ
      85C956740C8B43048B50048D741304EB0231F656FF54241083C4048BC3:
        0. 05 EC16 0025 (!)0000:?
      8B:
        41:
          08:
            8543147405E8........5BC3:
              0. 00 0000 0012 0000:?_M_check_exception_mask@ios_base@std@@IAEXXZ
            8B132BC2:
              85C0790140D1F88D4B085052E8........5BC3:
                0. 00 0000 001D 0000:??1?$basic_string@std@_YV?$char_traits@std@_Y@1@V?$allocator@std@_Y@1@@std@@QAE@XZ
              8D4B085052E8........5BC3:
                0. 00 0000 0016 0000:??1?$basic_string@std@DV?$char_traits@std@D@1@V?$allocator@std@D@1@@std@@QAE@XZ
          20:
            3B432472078B13FF520CEB03FF43205BC3:
              0. 00 0000 0017 0000:?stossc@streambuf@@QAEXXZ
            56573B432473:
              0A8B73200FB6065F5E5BC3837B0800745166837B:
                0. 21 9492 0077 0000:?underflow@strstreambuf@@UAEHXZ
              0B8B532031C08A025F5E5BC3837B080074596683:
                0. 25 C268 0080 0000:?underflow@strstreambuf@@UAEHXZ
        442408807B:
          37008B54240C7542807B3800753C807B39007536837B3C:
            0. 10 C474 0059 0000:?setbuf@?$basic_filebuf@std@_YV?$char_traits@std@_Y@1@@std@@MAEPAV?$basic_streambuf@std@_YV?$char_traits@std@_Y@1@@2@PA_YH@Z
          67008B54240C7542807B6800753C807B69007536837B6C:
            0. 10 C474 0059 0000:?setbuf@?$basic_filebuf@std@DV?$char_traits@std@D@1@@std@@MAEPAV?$basic_streambuf@std@DV?$char_traits@std@D@1@@2@PADH@Z
        53:
          04568B74240C:
            2B133BD67222560FBE54241452FF33E8........8B:
              0. 0A 4BF5 0060 0000:?assign@?$basic_string@std@DV?$char_traits@std@D@1@V?$allocator@std@D@1@@std@@QAEAAV12@ID@Z
            578B7C24142BFE2B133BD772228B1385FF740B5756:
              0. 02 4684 0066 0000:?assign@?$basic_string@std@DV?$char_traits@std@D@1@V?$allocator@std@D@1@@std@@QAEAAV12@PBD0@Z
          10568B410C89420C8B7310578B7B0C8977105F5E5BC3:
            0. 00 0000 001B 0000:?Remove@RTLHeapBlock@@QAEXXZ
        542408568B74241085D2895314895310740C85F674083BF272048BC6:
          0. 0C 4C89 002C 0000:?setp@streambuf@@IAEXPAD0@Z
      8D:
        413456573B431075243B4314741FFF73148D4B28FF7310E8:
          0. 2B 602E 004B 0000:?_M_append_buffer@?$basic_stringbuf@std@_YV?$char_traits@std@_Y@1@V?$allocator@std@_Y@1@@std@@ABEXXZ
        4908E8........85C07413:
          6A008B53048B4A048D4C0B04E8:
            0. 0F C5FB 0035 0000:?close@fstreambase@@QAEXXZ
          8B53046A008B4A048D4C0B04E8:
            0. 0F FDFF 0035 0000:?close@fstreambase@@QAEXXZ
      B8FFFFFFFF66837B300074298B431485C074072B4310740DEB0439E474:
        0. 1A 8A9C 003A 0000:?detach@filebuf@@QAEHXZ
      BAFFFFFFFF66837B300074298B431485C074072B4310740CEB0439E474:
        0. 1C 402E 003C 0000:?detach@filebuf@@QAEHXZ
      C7:
        01:
          000000008D4B04E8........8D43048943188BC35BC3:
            0. 00 0000 001B 0000:??0RTLHeap@@QAE@XZ
          ........:
            6AFFE8........8BCBE8........5BC3:
              0. 00 0000 0019 0000:??1stdiobuf@@UAE@XZ
            807B1000740BFF730CE8........83C4048BCBE8:
              0. 00 0000 0023 0000:??1?$ctype@std@D@std@@MAE@XZ
            837B2C007407E8........EB076AFFE8........8BCBE8:
              0. 00 0000 0026 0000:??1filebuf@@UAE@XZ
            8A433024033C01751C837B2C00740BFF7308FF532C83C4:
              0. 07 3404 0037 0000:??1strstreambuf@@UAE@XZ
            8B43:
              0C85C0741380780400740D85C074098B106A0189C1:
                0. 06 E0CA 002C 0000:??1?$messages@std@_Y@std@@MAE@XZ (REF 0005: ??_Q?$messages@std@_Y@std@@6B@)
                1. 06 E0CA 002C 0000:??1?$messages@std@D@std@@MAE@XZ (REF 0005: ??_Q?$messages@std@D@std@@6B@)
              2C85C07407E8........EB076AFFE8........8BCB:
                0. 01 3E9B 0027 0000:??1filebuf@@UAE@XZ
            8D4B40E8........8BCBE8........5BC3:
              0. 00 0000 001A 0000:??1stdiostream@@UAE@XZ
            E8........8BCBE8........8BCBE8........5BC3:
              0. 00 0000 001E 0000:??1?$basic_filebuf@std@_YV?$char_traits@std@_Y@1@@std@@UAE@XZ (REF 0005: ??_Q?$basic_filebuf@std@_YV?$char_traits@std@_Y@1@@std@@6B@)
              1. 00 0000 001E 0000:??1?$basic_filebuf@std@DV?$char_traits@std@D@1@@std@@UAE@XZ (REF 0005: ??_Q?$basic_filebuf@std@DV?$char_traits@std@D@1@@std@@6B@)
            FF:
              73:
                0CE8........8BCBE8........83C4045BC3:
                  0. 00 0000 001D 0000:??1?$collate_byname@std@D@std@@MAE@XZ (REF 0005: ??_Q?$collate_byname@std@D@std@@6B@)
                  1. 00 0000 001D 0000:??1?$collate_byname@std@_Y@std@@MAE@XZ (REF 0005: ??_Q?$collate_byname@std@_Y@std@@6B@)
                  2. 00 0000 001D 0000:??1?$codecvt_byname@std@_YDU__stl_mbstate_t@@@std@@MAE@XZ (REF 0005: ??_Q?$codecvt_byname@std@_YDU__stl_mbstate_t@@@std@@6B@)
                  3. 00 0000 001D 0000:??1?$numpunct_byname@std@D@std@@MAE@XZ (REF 0005: ??_Q?$numpunct_byname@std@D@std@@6B@)
                  4. 00 0000 001D 0000:??1?$numpunct_byname@std@_Y@std@@MAE@XZ (REF 0005: ??_Q?$numpunct_byname@std@_Y@std@@6B@)
                  5. 00 0000 001D 0000:??1?$ctype_byname@std@_Y@std@@MAE@XZ (REF 0005: ??_Q?$ctype_byname@std@_Y@std@@6B@)
                14E8........8BCBE8........83C4045BC3:
                  0. 00 0000 001D 0000:??1?$moneypunct_byname@std@D$0@@std@@MAE@XZ (REF 0005: ??_Q?$moneypunct_byname@std@D$0@@std@@6B@)
                  1. 00 0000 001D 0000:??1?$moneypunct_byname@std@_Y$00@std@@MAE@XZ (REF 0005: ??_Q?$moneypunct_byname@std@_Y$00@std@@6B@)
                  2. 00 0000 001D 0000:??1?$moneypunct_byname@std@_Y$0@@std@@MAE@XZ (REF 0005: ??_Q?$moneypunct_byname@std@_Y$0@@std@@6B@)
                  3. 00 0000 001D 0000:??1?$moneypunct_byname@std@D$00@std@@MAE@XZ (REF 0005: ??_Q?$moneypunct_byname@std@D$00@std@@6B@)
                54E8........8BCBE8........83C4045BC3:
                  0. 00 0000 001D 0000:??1stdio_streambuf_base@_SgI@@UAE@XZ
              B318040000E8........8BCBE8........83C4045BC3:
                0. 00 0000 0020 0000:??1?$ctype_byname@std@D@std@@UAE@XZ
        41:
          08000000008B530456578B52048B741A088B56203B5624720B8B06:
            0. 13 1268 00CC 0000:?eatwhite@istream@@IAEXXZ
          10........8B4304:
            8B5004C7441A04........C703........:
              8D4B:
                0. 02 90F1 002F 0000:??1iostream@@UAE@XZ
              E8:
                0. 00 0000 0025 0000:??1iostream_withassign@@UAE@XZ
            8D4B108B5004C7441A04........C703:
              0. 00 0000 002F 0000:??1iostream@@UAE@XZ
          48........8B4304:
            8B5004C7441A04........C703........8D4B:
              0. 02 A7EC 002F 0000:??1ofstream@@UAE@XZ (REF 0006: ??_Qofstream@@6Bostream@@@)
              1. 02 A7EC 002F 0000:??1istrstream@@UAE@XZ (REF 0006: ??_Qistrstream@@6Bistream@@@)
              2. 02 A7EC 002F 0000:??1ostrstream@@UAE@XZ (REF 0006: ??_Qostrstream@@6Bostream@@@)
              3. 02 A7EC 002F 0000:??1ifstream@@UAE@XZ (REF 0006: ??_Qifstream@@6Bistream@@@)
            8D4B488B5004C7441A04........C703:
              0. 00 0000 002F 0000:??1ofstream@@UAE@XZ (REF 0006: ??_Qofstream@@6Bostream@@@)
              1. 00 0000 002F 0000:??1istrstream@@UAE@XZ (REF 0006: ??_Qistrstream@@6Bistream@@@)
              2. 00 0000 002F 0000:??1ostrstream@@UAE@XZ (REF 0006: ??_Qostrstream@@6Bostream@@@)
              3. 00 0000 002F 0000:??1ifstream@@UAE@XZ (REF 0006: ??_Qifstream@@6Bistream@@@)
          58........8B43048D4B48C74348........8B5004C7441A04:
            0. 00 0000 0036 0000:??1strstream@@UAE@XZ (REF 0006: ??_Qstrstream@@6Bostream@@iostream@@@)
            1. 00 0000 0036 0000:??1fstream@@UAE@XZ (REF 0006: ??_Qfstream@@6Bostream@@iostream@@@)
      E8........31C0C643380089430489430889430C48C64339015BC3:
        0. 00 0000 001E 0000:?_M_input_error@?$basic_filebuf@std@_YV?$char_traits@std@_Y@1@@std@@AAE_YXZ
      FF:
        7104FF33E8........8BCBE8........83C4085BC3:
          0. 00 0000 0019 0000:??1?$vector@std@PAXV?$allocator@std@PAX@1@@std@@QAE@XZ
        742408E8........8BCBFF74240CE8........8BC35BC20800:
          0. 00 0000 001D 0000:??0RTLHeapBlock@@QAE@IAAV0@@Z
  8A415CC0E007C0F80774168A5C240880E30189CA83C25C00DB8A0224FD0AD8:
    0. 06 DCE6 0026 0000:?freeze@strstreambuf@std@@QAEX_N@Z
  8B:
    01:
      89CB:
        85C074:
          0F8B53082BD08D4B085250E8........5BC3:
            0. 00 0000 001A 0000:??1?$_Vector_base@std@DV?$allocator@std@D@1@@std@@QAE@XZ
          168B53082BD085D2790142D1FA8D4B085250E8........5B:
            0. 01 EF04 0021 0000:??1?$_Vector_base@std@_YV?$allocator@std@_Y@1@@std@@QAE@XZ
        FF50:
          0CB9FFFFFFFF3BC189C874:
            068B53200FB6025BC3:
              0. 00 0000 001B 0000:?do_snextc@streambuf@@AAEHXZ
            078B532031C08A025BC3:
              0. 00 0000 001C 0000:?do_snextc@streambuf@@AAEHXZ
          1C6683F8FFB8FFFFFFFF740F8B4B0883C102894B0883E90266:
            0. 04 B188 0024 0000:?uflow@?$basic_streambuf@std@_YV?$char_traits@std@_Y@1@@std@@MAE_YXZ
      8B:
        50048B5A04F744180800200000740789C1E8........5BC3:
          0. 00 0000 001C 0000:??1sentry@?$basic_ostream@std@_YV?$char_traits@std@_Y@1@@std@@QAE@XZ (REF 0016: ?flush@?$basic_ostream@std@_YV?$char_traits@std@_Y@1@@std@@QAEAAV12@XZ)
          1. 00 0000 001C 0000:??1sentry@?$basic_ostream@std@DV?$char_traits@std@D@1@@std@@QAE@XZ (REF 0016: ?flush@?$basic_ostream@std@DV?$char_traits@std@D@1@@std@@QAEAAV12@XZ)
        5C2408568B50088B33573BD6760A8B398B47048B04B0EB0231C05F5E:
          0. 04 9F31 0024 0000:?_M_get_facet@locale@std@@QBEPAVfacet@12@ABVid@12@@Z
    05........85C08B54240874158BDA31C98A0B42F681........04740142:
      0. 09 13DA 0029 0000:__mbsinc
    198B44240C506A008B54241052FF531C5BC20800:
      0. 00 0000 0016 0000:?seekpos@streambuf@@UAEJJH@Z
    1D........5657BF01000000833D........00750CC705:
      0. 00 0000 009B (l)0000:__sti_monetary
    41:
      04:
        89:
          CA:
            568B5804C7441304........578B72048B7E04C7441704:
              0. 00 0000 002B 0000:??1?$basic_ostream@std@_YV?$char_traits@std@_Y@1@@std@@UAE@XZ (REF 000E: ??_Q?$basic_ostream@std@_YV?$char_traits@std@_Y@1@@std@@6Bios_base@1@?$basic_ios@std@_YV?$char_traits@std@_Y@1@@1@@)
              1. 00 0000 002B 0000:??1?$basic_istream@std@DV?$char_traits@std@D@1@@std@@UAE@XZ (REF 000E: ??_Q?$basic_istream@std@DV?$char_traits@std@D@1@@std@@6Bios_base@1@?$basic_ios@std@DV?$char_traits@std@D@1@@1@@)
              2. 00 0000 002B 0000:??1?$basic_istream@std@_YV?$char_traits@std@_Y@1@@std@@UAE@XZ (REF 000E: ??_Q?$basic_istream@std@_YV?$char_traits@std@_Y@1@@std@@6Bios_base@1@?$basic_ios@std@_YV?$char_traits@std@_Y@1@@1@@)
              3. 00 0000 002B 0000:??1?$basic_ostream@std@DV?$char_traits@std@D@1@@std@@UAE@XZ (REF 000E: ??_Q?$basic_ostream@std@DV?$char_traits@std@D@1@@std@@6Bios_base@1@?$basic_ios@std@DV?$char_traits@std@D@1@@1@@)
            8B5804C7441304........C702........5BC3:
              0. 00 0000 0019 0000:??1istream@@UAE@XZ
          CB:
            568B5004:
              03D357F74210:
                8400000075178B4A086A:
                  018B31FF7424:
                    0. 1A 936F 0062 0000:?seekg@istream@@QAEAAV1@JW4seek_dir@ios@@@Z
                  028B31FF7424:
                    0. 1A 936F 0062 0000:?seekp@ostream@@QAEAAV1@JW4seek_dir@ios@@@Z
                8600000075608B72088B56203B561C76:
                  0. 36 1691 007E 0000:?putback@istream@@QAEAAV1@D@Z
              57:
                03D3F64210:
                  8475196A:
                    018B4A088B7424188B7C2414:
                      0. 19 226C 0061 0000:?seekg@istream@@QAEAAV1@JW4seek_dir@ios@@@Z
                    028B4A088B7424188B7C2414:
                      0. 19 226C 0061 0000:?seekp@ostream@@QAEAAV1@JW4seek_dir@ios@@@Z
                  86755E8B7A088B57203B571C76158B77:
                    0. 34 08F2 0079 0000:?putback@istream@@QAEAAV1@D@Z
                8B4C1A088B31FF562483F8FF75118B7B046A048B4F:
                  0. 06 01B5 0030 0000:?flush@ostream@@QAEAAV1@XZ
              8B4C1A08578B31FF562483F8FF75116A048B7B048B4F:
                0. 06 01B5 0030 0000:?flush@ostream@@QAEAAV1@XZ
              8D:
                4310C7441A04........578B73048B7E04C7441F04:
                  0. 00 0000 003B 0000:??_D?$basic_istream@std@_YV?$char_traits@std@_Y@1@@std@@UAEXXZ (REF 0011: ??_Q?$basic_istream@std@_YV?$char_traits@std@_Y@1@@std@@6Bios_base@1@?$basic_ios@std@_YV?$char_traits@std@_Y@1@@1@@)
                  1. 00 0000 003B 0000:??_D?$basic_istream@std@DV?$char_traits@std@D@1@@std@@UAEXXZ (REF 0011: ??_Q?$basic_istream@std@DV?$char_traits@std@D@1@@std@@6Bios_base@1@?$basic_ios@std@DV?$char_traits@std@D@1@@1@@)
                4B:
                  08C7441A04........578B73048B7E04C7441F04:
                    0. 00 0000 003A 0000:??1?$basic_ostringstream@std@_YV?$char_traits@std@_Y@1@V?$allocator@std@_Y@1@@std@@UAE@XZ (REF 0011: ??_Q?$basic_ostringstream@std@_YV?$char_traits@std@_Y@1@V?$allocator@std@_Y@1@@std@@6Bios_base@1@?$basic_ios@std@_YV?$char_traits@std@_Y@1@@1@@)
                    1. 00 0000 003A 0000:??1ostrstream@std@@UAE@XZ (REF 0011: ??_Qostrstream@std@@6Bios_base@1@?$basic_ios@std@DV?$char_traits@std@D@1@@1@@)
                    2. 00 0000 003A 0000:??1?$basic_ostringstream@std@DV?$char_traits@std@D@1@V?$allocator@std@D@1@@std@@UAE@XZ (REF 0011: ??_Q?$basic_ostringstream@std@DV?$char_traits@std@D@1@V?$allocator@std@D@1@@std@@6Bios_base@1@?$basic_ios@std@DV?$char_traits@std@D@1@@1@@)
                  0CC7441A04........578B73048B7E04C7441F04:
                    0. 00 0000 0055 0000:??1?$basic_istringstream@std@_YV?$char_traits@std@_Y@1@V?$allocator@std@_Y@1@@std@@UAE@XZ (REF 0011: ??_Q?$basic_istringstream@std@_YV?$char_traits@std@_Y@1@V?$allocator@std@_Y@1@@std@@6Bios_base@1@?$basic_ios@std@_YV?$char_traits@std@_Y@1@@1@@)
                    1. 00 0000 0055 0000:??1istrstream@std@@UAE@XZ (REF 0011: ??_Qistrstream@std@@6Bios_base@1@?$basic_ios@std@DV?$char_traits@std@D@1@@1@@)
                    2. 00 0000 0055 0000:??1?$basic_istringstream@std@DV?$char_traits@std@D@1@V?$allocator@std@D@1@@std@@UAE@XZ (REF 0011: ??_Q?$basic_istringstream@std@DV?$char_traits@std@D@1@V?$allocator@std@D@1@@std@@6Bios_base@1@?$basic_ios@std@DV?$char_traits@std@D@1@@1@@)
            8B5004:
              8D4B08C7441A04........C703........E8........5B:
                0. 01 EF04 0021 0000:??1strstreambase@@MAE@XZ (REF 0010: ??_Qstrstreambase@@6Bios@@@)
                1. 01 EF04 0021 0000:??1fstreambase@@UAE@XZ (REF 0010: ??_Qfstreambase@@6Bios@@@)
              C7441A04........C703........E8........5BC3:
                0. 00 0000 001E 0000:??1ostream@@UAE@XZ (REF 000D: ??_Qostream@@6Bios@@@)
                1. 00 0000 001E 0000:??1ostream_withassign@@UAE@XZ (REF 000D: ??_Qostream_withassign@@6Bios@@ostream@@@)
                2. 00 0000 001E 0000:??1istream_withassign@@UAE@XZ (REF 000D: ??_Qistream_withassign@@6Bios@@istream@@@)
              F6441A1D607405E8........5BC3:
                0. 00 0000 0017 0000:?osfx@ostream@@QAEXXZ
              F7441A1C006000007405E8........5BC3:
                0. 00 0000 001A 0000:?osfx@ostream@@QAEXXZ
        8B50:
          04:
            555689CE57F7443214FFFEFFFF74116A01E8........85C00F:
              0. A0 5069 012A 0000:?get@istream@@QAEAAV1@AAVstreambuf@@D@Z
            5689CE03D657F742108600000075608B5A088B53203B531C76:
              0. 36 7887 007E 0000:?putback@istream@@QAEAAV1@D@Z
          0856:
            89CB573B1074668B54241083FAFF74448B7B048B373856FF:
              0. 60 8E1A 0080 0000:?pbackfail@?$basic_stringbuf@std@DV?$char_traits@std@D@1@V?$allocator@std@D@1@@std@@MAEHH@Z
            8B308B5C240C573BD6745883FBFF75198B5104FF4204FF0A:
              0. 56 4028 0076 0000:?pbackfail@strstreambuf@std@@MAEHH@Z
      0C89CB85C0750C8B431050E8........83C4048D4B2C8B53043BCA7409:
        0. 02 4684 0038 0000:??1RegExp@@QAE@XZ
      1485C0565789CF74072B4710741CEB0439E474166AFF8B07FF5018BAFF:
        0. 2C DFEA 0096 0000:?sync@stdiobuf@@UAEHXZ
      5C89CB85C0740CFF73608D4B2450E8........C6433700C7435C000000:
        0. 03 0405 0023 0000:?_M_exit_input_mode@?$basic_filebuf@std@_YV?$char_traits@std@_Y@1@@std@@AAEXXZ
    4424:
      08:
        31DB568BD08BF057663918740A83C2024366833A0075F689442410:
          0. 28 E85B 0048 0000:__wcsrev
        3B44240C74338B4C24108B5424103B4C241474178B5C24088A033A:
          0. 24 286A 0044 0000:??$__find_first_of@std@PBD0U?$_Eq_traits@std@V?$char_traits@std@D@1@@1@@std@@YAPBDPBD000U?$_Eq_traits@std@V?$char_traits@std@D@1@@1@@Z
        506A00E8........83C40889C383F8FF7507E8........EB1CF644:
          0. 0D 08F6 003E 0000:__waccess
        56:
          0FB6100FB6CAF681........0474118BC2C1E0088B74240C0FB6:
            0. 0B 0A98 002B 0000:__mbsnextc
          3B44241074:
            258B4C240C8B5C24148A113A1374055E31C05BC3FF:
              0. 19 F719 0039 0000:??$equal@std@PAD0U?$_Eq_traits@std@V?$char_traits@std@D@1@@1@@std@@YA_NPAD00U?$_Eq_traits@std@V?$char_traits@std@D@1@@1@@Z
            2C8B4C240C8B5C2414668B11663B1374055E31C05B:
              0. 20 6602 0040 0000:??$equal@std@PA_Y0U?$_Eq_traits@std@V?$char_traits@std@_Y@1@@1@@std@@YA_NPA_Y00U?$_Eq_traits@std@V?$char_traits@std@_Y@1@@1@@Z
            398B4C24148B5424143B4C2418741C8B5C240C668B:
              0. 2C 98E8 004C 0000:??$__find_first_of@std@PB_Y0U?$_Eq_traits@std@V?$char_traits@std@_Y@1@@1@@std@@YAPB_YPB_Y000U?$_Eq_traits@std@V?$char_traits@std@_Y@1@@1@@Z
          833D........0074408A188BD08BF084DB74200FB6CBF681:
            0. 00 0000 0062 0000:__mbsrev
        89:
          CA568B58108B74240C578B7C2410895A1089720C8957108B4210:
            0. 09 676C 0029 0000:?InsertAfter@RTLHeapBlock@@QAEXAAV1@@Z
          CB568B530C25FF0000005781E2800000000BC28B731081E600FF:
            0. 1F FA71 003F 0000:?clear@ios@@QAEXH@Z
        8B:
          08803900740F8B5424088B1A43891A4B0FBE03EB05B8FFFFFFFF:
            0. 02 8FCC 0022 (l)0000:_sgetc
          10563B510477138D5AFFC1EB03508B318B0C9EE8........EB0C:
            0. 02 C6BC 0031 0000:?SelectFree@RTLMultiPool@@AAEXPAX@Z
          48:
            04568B510403D0837A0C0075:
              198B5A6085DB740789D9E8:
                0. 00 0000 007A 0000:??$_M_init_skip@std@_YV?$char_traits@std@_Y@1@@std@@YA_NAAV?$basic_istream@std@_YV?$char_traits@std@_Y@1@@1@@Z (REF 001E: ?flush@?$basic_ostream@std@_YV?$char_traits@std@_Y@1@@std@@QAEAAV12@XZ)
                1. 00 0000 007A 0000:??$_M_init_skip@std@DV?$char_traits@std@D@1@@std@@YA_NAAV?$basic_istream@std@DV?$char_traits@std@D@1@@1@@Z (REF 001E: ?flush@?$basic_ostream@std@DV?$char_traits@std@D@1@@std@@QAEAAV12@XZ)
              4A8B5A6085DB740789D9E8:
                0. 00 0000 00A7 0000:??$_M_init_noskip@std@_YV?$char_traits@std@_Y@1@@std@@YA_NAAV?$basic_istream@std@_YV?$char_traits@std@_Y@1@@1@@Z (REF 001E: ?flush@?$basic_ostream@std@_YV?$char_traits@std@_Y@1@@std@@QAEAAV12@XZ)
                1. 00 0000 00A7 0000:??$_M_init_noskip@std@DV?$char_traits@std@D@1@@std@@YA_NAAV?$basic_istream@std@DV?$char_traits@std@D@1@@1@@Z (REF 001E: ?flush@?$basic_ostream@std@DV?$char_traits@std@D@1@@std@@QAEAAV12@XZ)
              59837A5C0075248D5A048B7308:
                0. 1A 5976 0072 0000:??$_M_init@std@_YV?$char_traits@std@_Y@1@@std@@YA_NAAV?$basic_ostream@std@_YV?$char_traits@std@_Y@1@@1@@Z (REF 0053: ?flush@?$basic_ostream@std@_YV?$char_traits@std@_Y@1@@std@@QAEAAV12@XZ)
                1. 1A 5976 0072 0000:??$_M_init@std@DV?$char_traits@std@D@1@@std@@YA_NAAV?$basic_ostream@std@DV?$char_traits@std@D@1@@1@@Z (REF 0053: ?flush@?$basic_ostream@std@DV?$char_traits@std@D@1@@std@@QAEAAV12@XZ)
            10668B1C4D........8B500C8B4014056C07000081E3FFFF00:
              0. 23 6D05 0043 (l)0000:__calc_yday@4
          4C24:
            0856BA........8038000F84400100000FBE0183F8647425:
              0. FF 3EA1 0163 0000:___ConvertDate
            0C:
              8A108A19881888115BC3:
                0. 00 0000 0013 0000:??$swap@std@_N@std@@YAXAA_N0@Z
              8B108B19891889115BC3:
                0. 00 0000 0013 (!)0000:?
          5004568B00050080C12A81D2214E62FEBB8096980031C957E8:
            0. 00 0000 0027 (l)0000:_FILETIME_to_time_t
          54240C8B083B0A75:
            088B58043B5A04740431C0EB05B801000000:
              0. 02 8FCC 0022 0000:??$?8std@PAXI@std@@YA_NABU?$pair@std@PAXI@1@0@Z
            108D5A04538D4804E8........84C0750431:
              0. 0A 8C32 002A 0000:??$?8std@_OHVlocale@0@@std@@YA_NABU?$pair@std@_OHVlocale@1@@1@0@Z
          5C240856803800745A0FBE0BF7C1800000007449FF74240CFF74:
            0. 03 4158 0084 0000:_unmangle_ident
        8D:
          4003508B4C240C8D817E0100002B442410BB0700000099F7FB58:
            0. 04 72CF 0024 (l)0000:?__iso_week_days@std@@YAHHH@Z
          4818565168A300000051E8........83C40489C350E8:
            0. 2E 374F 004E 0000:?allocate@?$__debug_alloc@std@V__new_alloc@1@@std@@SAPAXI@Z
      0C:
        56:
          2B44240C85C0790140D1F889C6C1FE020F8E990000008B4C240C:
            0. 09 1E3A 0138 0000:??$__find_if@std@PB_YV?$unary_negate@std@U_Ctype_byname_w_is_mask@1@@1@@std@@YAPB_YPB_Y0V?$unary_negate@std@U_Ctype_byname_w_is_mask@1@@1@ABUrandom_access_iterator_tag@1@@Z (00FF: 75)
            1. 09 1E3A 0138 0000:??$__find_if@std@PB_YU_Ctype_byname_w_is_mask@1@@std@@YAPB_YPB_Y0U_Ctype_byname_w_is_mask@1@ABUrandom_access_iterator_tag@1@@Z (00FF: 74)
          57:
            2B44241085C0790140D1F889:
              C1C1F9027E568B542410668B1A:
                0. 68 4ADF 00D0 0000:??$__find_if@std@PB_YU?$_Neq_char_bound@std@V?$char_traits@std@_Y@1@@1@@std@@YAPB_YPB_Y0U?$_Neq_char_bound@std@V?$char_traits@std@_Y@1@@1@ABUrandom_access_iterator_tag@1@@Z
                1. 68 655C 00D0 0000:??$__find_if@std@PA_YU?$_Eq_char_bound@std@V?$char_traits@std@_Y@1@@1@@std@@YAPA_YPA_Y0U?$_Eq_char_bound@std@V?$char_traits@std@_Y@1@@1@ABUrandom_access_iterator_tag@1@@Z (0047: C3)
              C3C1FB020F8E:
                B90000008B4C24:
                  0. D3 4EB7 017A 0000:??$__find_if@std@PB_YU_Ctype_w_is_mask@?$ctype@std@D@1@@std@@YAPB_YPB_Y0U_Ctype_w_is_mask@?$ctype@std@D@1@ABUrandom_access_iterator_tag@1@@Z
                C90000008B4C24:
                  0. E3 6902 018A 0000:??$__find_if@std@PB_YV?$unary_negate@std@U_Ctype_w_is_mask@?$ctype@std@D@1@@1@@std@@YAPB_YPB_Y0V?$unary_negate@std@U_Ctype_w_is_mask@?$ctype@std@D@1@@1@ABUrandom_access_iterator_tag@1@@Z
            394424100F84:
              1C0100008B4C24183B4C241C0F840E0100008B:
                0. FF C4A5 0135 0000:??$search@std@PB_Y0U?$_Eq_traits@std@V?$char_traits@std@_Y@1@@1@@std@@YAPB_YPB_Y000U?$_Eq_traits@std@V?$char_traits@std@_Y@1@@1@@Z
              FC0000008B4C24183B4C241C0F84EE0000008B:
                0. F5 4A7B 0115 0000:??$search@std@PBD0U?$_Eq_traits@std@V?$char_traits@std@D@1@@1@@std@@YAPBDPBD000U?$_Eq_traits@std@V?$char_traits@std@D@1@@1@@Z
            3B44241874:
              268B54241C8A083A0A751CFF4424148B5C2414FF:
                0. 2E 80C8 004E 0000:??$mismatch@std@PBDPAD@std@@YA?AU?$pair@std@PBDPAD@1@PBD0PAD@Z
              2F8B54241C668B08663B0A7523BB02000000015C:
                0. 37 9884 0057 0000:??$mismatch@std@PB_YPA_Y@std@@YA?AU?$pair@std@PB_YPA_Y@1@PB_Y0PA_Y@Z
          8B74240C2BC6579981E20300000003C2C1F80289C385C07E2B8B:
            0. 30 B450 0050 0000:??$__lower_bound@std@PBIIU?$less@std@I@1@H@std@@YAPBIPBI0ABIU?$less@std@I@1@PAH@Z
        83:
          78040074:
            1D8B4C240C8B1983C302891983EB02668B542408FF49:
              0. 0F E243 002F (l)0000:___snwprintf
            1E8B4C240C8B194389194B8A542408FF49048B442408:
              0. 10 ADAE 0030 (l)0000:___snprintf
          F80156:
            7402EB160FB64C240CF681........08743B5EB8020000:
              0. 0A FC7E 005E 0000:__mbbtype (REF 0044: .)
            8A54240C7402EB140FB6CAF681........0874375EB802:
              0. 0A D39B 005C 0000:__mbbtype (REF 0042: .)
        8B:
          480485C974:
            1D668B5424088B4C240C89D08B19FF490483C30289:
              0. 10 7021 0030 (l)0000:___snwprintf
            1E8B4C240C8A5424088B4424088B19FF49044325FF:
              0. 11 0471 0031 (l)0000:___snprintf
          542408:
            56572B44241885C0790140D1F889C1C1F9027E5E8B5C24:
              0. 74 09DC 00E7 0000:??$__find_if@std@V?$reverse_iterator@std@PB_Y@1@U?$_Neq_char_bound@std@V?$char_traits@std@_Y@1@@1@@std@@YA?AV?$reverse_iterator@std@PB_Y@1@V21@0U?$_Neq_char_bound@std@V?$char_traits@std@_Y@1@@1@ABUrandom_access_iterator_tag@1@@Z
              1. 74 1437 00E7 0000:??$__find_if@std@V?$reverse_iterator@std@PB_Y@1@U?$_Eq_char_bound@std@V?$char_traits@std@_Y@1@@1@@std@@YA?AV?$reverse_iterator@std@PB_Y@1@V21@0U?$_Eq_char_bound@std@V?$char_traits@std@_Y@1@@1@ABUrandom_access_iterator_tag@1@@Z
            8A08880A81E1FF000000F681........0474068A580188:
              0. 04 726C 0024 0000:__mbccpy
          5C2410568B54241831DB5781E20000008009DAC7000000000075:
            0. D5 19F2 00F5 0000:?_Stl_norm_and_round@std@@YAXAA_KAAH_K_K@Z
      10:
        558B6C240C56570B442418743F8B54241C8B442418BB0A00000056:
          0. 04 AACF 0058 0000:??$__write_decimal_backward@std@_K@std@@YAPADPAD_KHABU__false_type@1@@Z
        568B74240C570B44241474448B5424188B442414BB0A0000005631:
          0. 03 F1A5 005B 0000:??$__write_decimal_backward@std@_K@std@@YAPADPAD_KHABU__false_type@1@@Z
      148B4C241050518B5424148B5C24105253E8........83C4105BC3:
        0. 00 0000 001F 0000:_vswprintf
    4C24:
      08:
        31:
          C08B5C240C85C97E:
            0F3803740B4039C87D06803C180075F55BC2:
              0. 02 87C1 0022 (l)0000:STRLEN2
            11663903740C4039C87D0766833C430075F4:
              0. 04 3F98 0024 (l)0000:WCSLEN2
          D2:
            31DB:
              0FBE0183F822741085C0741583F820741783F8097412EB:
                0. 3A B85F 005A (l)0000:_parse_program_name
              668B0125FFFF000083F822741085C0741783F820741983:
                0. 4B FB08 006B (l)0000:_parse_program_name
            8BC139D27C0D7F0583F8F376065B31C0C2040083C10C83F924:
              0. 23 F210 0043 0000:?FixSize@RTLHeap@@AAEII@Z
        56:
          31F685C975068B0D........894C240C565656566AFFFF742424:
            0. 0B DDEE 0077 0000:___wSetFileAttributes (REF 005F: __imp__SetFileAttributesA@8)
            1. 0B DDEE 0077 0000:___wCreateDirectory (REF 005F: __imp__CreateDirectoryA@8)
          8D711881FE800000005668A3000000760D56E8........83C404:
            0. 06 BD30 0063 0000:?allocate@?$__debug_alloc@std@V?$__node_alloc@std@$0@$0@@1@@std@@SAPAXI@Z (REF 0026: ?_M_allocate@?$__node_alloc@std@$0@$0@@std@@CAPAXI@Z)
            1. 06 BD30 0063 0000:?allocate@?$__debug_alloc@std@V?$__node_alloc@std@$00$0@@1@@std@@SAPAXI@Z (REF 0026: ?_M_allocate@?$__node_alloc@std@$00$0@@std@@CAPAXI@Z)
        668B54240C31DB663911750289CB8BC183C1026683380075EE8BC3:
          0. 02 8FCC 0022 0000:_wcsrchr
        80390074308A013C307C0F3C397F0B8001D04180390075EDEB1B3C:
          0. 1C CBA6 003C 0000:___FixGrouping
        83:
          3D........0074148BD9410FB613F682........047401415B8B:
            0. 07 3A7C 0027 0000:__mbsinc
          F9F376065B31C0C2040083C10C83F9247305B9240000008D41FF:
            0. 19 2561 0039 0000:?FixSize@RTLHeap@@AAEII@Z
        8B:
          44240C562BC185C057790140D1F889C2C1FA027E3A668B19663B:
            0. 4C 6D50 00A0 0000:??$__find_if@std@PB_YU?$_Neq_char_bound@std@V?$char_traits@std@_Y@1@@1@@std@@YAPB_YPB_Y0U?$_Neq_char_bound@std@V?$char_traits@std@_Y@1@@1@ABUrandom_access_iterator_tag@1@@Z
            1. 4C B581 00A0 0000:??$__find_if@std@PB_YU?$_Eq_int_bound@std@V?$char_traits@std@_Y@1@@1@@std@@YAPB_YPB_Y0U?$_Eq_int_bound@std@V?$char_traits@std@_Y@1@@1@ABUrandom_access_iterator_tag@1@@Z (0033: C3)
          5424:
            08560FBE0285C0740C83F801740A83F802740AEB1D41EB1F:
              0. 24 EA36 0044 (l)0000:?__get_name@@YAPADPBD@Z
            0C:
              56:
                2BD1C1FA02:
                  577E2D0FB6013B4424187455410FB6193B:
                    0. 2F E171 007C 0000:??$__find_if@std@PBDU?$_Eq_int_bound@std@V?$char_traits@std@D@1@@1@@std@@YAPBDPBD0U?$_Eq_int_bound@std@V?$char_traits@std@D@1@@1@ABUrandom_access_iterator_tag@1@@Z
                  7E298A013A442414:
                    744F418A193A5C2414:
                      0. 2A B4D7 0072 0000:??$__find_if@std@PBDU?$_Eq_char_bound@std@V?$char_traits@std@D@1@@1@@std@@YAPBDPBD0U?$_Eq_char_bound@std@V?$char_traits@std@D@1@@1@ABUrandom_access_iterator_tag@1@@Z (0027: C3)
                    754F418A193A5C2414:
                      0. 2A 3F6E 0072 0000:??$__find_if@std@PBDU?$_Neq_char_bound@std@V?$char_traits@std@D@1@@1@@std@@YAPBDPBD0U?$_Neq_char_bound@std@V?$char_traits@std@D@1@@1@ABUrandom_access_iterator_tag@1@@Z
                39CA745485D274504A833D........0074410FB61AF6:
                  0. 01 EB46 0067 0000:__mbsdec
              833D........00743239D1772E8A0184C0742825FF0000:
                0. 03 1C6A 0048 0000:__ismbstrail
          5C2414568B742414578B7C241439F974:
            1C8BD639DE74118A013A:
              0. 19 5C59 0039 0000:??$__find_first_of@std@PBD0U?$_Eq_traits@std@V?$char_traits@std@D@1@@1@@std@@YAPBDPBD000U?$_Eq_traits@std@V?$char_traits@std@D@1@@1@@Z
            228BD639DE7415668B01:
              0. 1F 84E4 003F 0000:??$__find_first_of@std@PB_Y0U?$_Eq_traits@std@V?$char_traits@std@_Y@1@@1@@std@@YAPB_YPB_Y000U?$_Eq_traits@std@V?$char_traits@std@_Y@1@@1@@Z
        B80200000056BA0300000031DB8801B8040000008B742410885101:
          0. 15 F553 0035 (l)0000:?_Init_monetary_formats@std@@YAXAAUpattern@money_base@1@0@Z
      0C:
        31DB568B44240C668B74241485C97409668934584339CB72F75E5B:
          0. 01 EF04 0021 0000:?assign@?$__char_traits_base@std@_Y_Y@std@@SAPA_YPA_YI_Y@Z
        558B6C240C568B742414578B7C24243B4C24207727397C241C8B5C:
          0. 07 33DE 0046 0000:_disp_peekbox
          1. 0E A819 0046 0000:_disp_pokebox
        56:
          572B4C2410C1F9027E458B4424108A103A542418:
            7479FF442410:
              0. 45 EFF8 00A5 0000:??$__find_if@std@PADU?$_Eq_char_bound@std@V?$char_traits@std@D@1@@1@@std@@YAPADPAD0U?$_Eq_char_bound@std@V?$char_traits@std@D@1@@1@ABUrandom_access_iterator_tag@1@@Z (003F: C3)
            7579FF442410:
              0. 45 C828 00A5 0000:??$__find_if@std@PBDU?$_Neq_char_bound@std@V?$char_traits@std@D@1@@1@@std@@YAPBDPBD0U?$_Neq_char_bound@std@V?$char_traits@std@D@1@@1@ABUrandom_access_iterator_tag@1@@Z
          8B74240C8BDE:
            5766833E007424668B018BD1663B03741166833A:
              0. 28 5AE7 0048 0000:_wcsspn
            66833E007422668339008BD17411668B02663B03:
              0. 24 B887 0044 0000:_wcscspn
        8B:
          542408:
            56:
              572B4C2418C1F9027E498B4424148A58FF3A5C241C:
                74:
                  0. 4D 1ED3 00B8 0000:??$__find_if@std@V?$reverse_iterator@std@PBD@1@U?$_Eq_char_bound@std@V?$char_traits@std@D@1@@1@@std@@YA?AV?$reverse_iterator@std@PBD@1@V21@0U?$_Eq_char_bound@std@V?$char_traits@std@D@1@@1@ABUrandom_access_iterator_tag@1@@Z
                75:
                  0. 4D AD76 00B8 0000:??$__find_if@std@V?$reverse_iterator@std@PBD@1@U?$_Neq_char_bound@std@V?$char_traits@std@D@1@@1@@std@@YA?AV?$reverse_iterator@std@PBD@1@V21@0U?$_Neq_char_bound@std@V?$char_traits@std@D@1@@1@ABUrandom_access_iterator_tag@1@@Z
              8B52148D:
                72BA668B1C4D........8D826C0700009933:
                  0. 42 324A 0062 (l)0000:__calc_dstendday@8
                826C070000578D7ABA99668B1C4D:
                  0. 4A 81D8 006A (l)0000:__calc_dststartday@8
            85C9:
              74:
                108B4424108B1849891A83C20485C975F05B8BC2:
                  0. 01 EF04 0021 0000:??$fill_n@std@PAPAXIPAX@std@@YAPAPAXPAPAXIABQAX@Z
                128B442410668B184966891A83C20285C975EE5B:
                  0. 03 0BEE 0023 0000:??$fill_n@std@PA_YI_Y@std@@YAPA_YPA_YIAB_Y@Z
              7E128B442410668B184966891A83C20285C97FEE5B:
                0. 03 0BEE 0023 0000:??$fill_n@std@PA_YH_Y@std@@YAPA_YPA_YHAB_Y@Z
          5C2410568B54240C578BC283C2026683380075F583C2FE85DB74:
            0. 28 9CD3 0048 0000:_wcsncat
      10:
        31DB568B44240C668B74241085C97409668934584339CB72F75E5B:
          0. 01 EF04 0021 0000:_wmemset
        8B:
          5424085631F68B5C24105785C97438668B02663B03751466833A:
            0. 33 C3BC 0053 0000:_wcsncmp
          5C240C568B54240C85C97419668B036685C0668902740EBE0200:
            0. 23 AA66 0043 0000:_wcsncpy
    5424:
      08:
        31DB:
          381A74:
            0E8D1C9B0FBE024203D8803A0075F28BC35BC3:
              0. 00 0000 001D 0000:?__stl_hash_string@std@@YAIPBD@Z
            33C1E3048A023C307C0C3C397F080FBE0A83C1D0EB16:
              0. 22 895D 0042 (l)0000:_LocaleFromHex
          568B74241039F274108B4424148A0A3A087501434239F275F0:
            0. 05 E010 0025 0000:??$count@std@PADD@std@@YAHPAD0ABD@Z
        56:
          578B7C2414833D........00743C31F68BCA0FB61A89D825FF00:
            0. 04 0E50 0065 0000:__mbsrchr
          8B:
            4424108B08890A8B5C24148B338972048BC25E5BC3:
              0. 00 0000 001C 0000:??$make_pair@std@P6AXW4event@ios_base@1@AAV31@H@ZH@std@@YA?AU?$pair@std@P6AXW4event@ios_base@1@AAV31@H@ZH@1@ABQ6AXW4event@ios_base@1@AAV41@H@ZABH@Z
            7424:
              1057833D........00743E8BCA0FB61A89D825FF000000:
                0. 02 97A3 0067 0000:__mbschr
              18578B7C241439FA7422668B1A83C2020FBECB8BC325FF:
                0. 1D 8729 003D 0000:?do_narrow@?$ctype@std@_Y@std@@MBEPB_YPB_Y0DPAD@Z
        83FAFF75048BC2EB:
          0F8B4C240C8AC2FF098B1988030FBEC05BC3:
            0. 00 0000 001F (l)0000:_sungetc
          138B4C240C8BC28301FE8B1966890325FFFF00:
            0. 03 0405 0023 (l)0000:_sungetwc
        89CB56:
          8D41048D7204578B3E89388B02890389C85F5E5BC20400:
            0. 00 0000 001F 0000:??0?$fpos@std@U__stl_mbstate_t@@@std@@QAE@ABV01@@Z
          C701000000008B328B1689F1FF52048BC389335E5BC20400:
            0. 00 0000 0020 0000:??0locale@std@@QAE@ABV01@@Z
        8B:
          44240C:
            2BC28B5C241085C0790140D1F889C185C07E0D8A0283C2:
              0. 0D DA9B 002D 0000:??$__copy@std@PB_YPADH@std@@YAPADPB_Y0PADABUrandom_access_iterator_tag@1@PAH@Z
            56:
              2BC285C057790140D1F889:
                C3C1FB027E398B74241866:
                  0. 49 DD46 00A5 0000:??$__find@std@PA_Y_Y@std@@YAPA_YPA_Y0AB_YABUrandom_access_iterator_tag@1@@Z (003B: C3)
                C6C1FE020F8E:
                  A000000066:
                    0. B8 EF73 014B 0000:??$__find_if@std@PB_YU_Ctype_w_is_mask@?$ctype@std@D@1@@std@@YAPB_YPB_Y0U_Ctype_w_is_mask@?$ctype@std@D@1@ABUrandom_access_iterator_tag@1@@Z
                  B000000066:
                    0. C8 F33F 015B 0000:??$__find_if@std@PB_YV?$unary_negate@std@U_Ctype_w_is_mask@?$ctype@std@D@1@@1@@std@@YAPB_YPB_Y0V?$unary_negate@std@U_Ctype_w_is_mask@?$ctype@std@D@1@@1@ABUrandom_access_iterator_tag@1@@Z
              89CE8B1E39C274:
                14395E04740F8A0A42880B4339C274:
                  0. 11 C89F 0055 0000:??$_M_assign_dispatch@?$basic_string@std@DV?$char_traits@std@D@1@V?$allocator@std@D@1@@std@PAD@?$basic_string@std@DV?$char_traits@std@D@1@V?$allocator@std@D@1@@std@@AAEAAV12@PAD0ABU__false_type@2@@Z
                1D395E047418668B0A66890BB90200:
                  0. 1A 2DF6 005E 0000:??$_M_assign_dispatch@?$basic_string@std@_YV?$char_traits@std@_Y@1@V?$allocator@std@_Y@1@@std@PA_Y@?$basic_string@std@_YV?$char_traits@std@_Y@1@V?$allocator@std@_Y@1@@std@@AAEAAV12@PA_Y0ABU__false_type@2@@Z
            8B08890A8B5C24108A038842048BC25BC3:
              0. 00 0000 001A (!)0000:?
          4A04560FBE0185C0740C83F801740A83F802740AEB1D41EB1F83:
            0. 1A 8C95 0043 (!)0000:?
          4C24:
            0C:
              31DB39CA73:
                0D8D1C9B0FBE0203D84239CA72F38BC35BC2:
                  0. 02 87C1 0022 0000:?do_hash@?$collate@std@D@std@@MBEJPBD0@Z
                14668B028D1C9B83C20225FFFF000003D839:
                  0. 09 AA7D 0029 0000:?do_hash@?$collate@std@_Y@std@@MBEJPB_Y0@Z
              39CA:
                73100FB6028A98........881A4239CA72F05B8BC1:
                  0. 03 2EB7 0023 (!)0000:?
                74:
                  0F8B4424108B18891A83C20439CA75F15BC3:
                    0. 00 0000 001E 0000:??$fill@std@PAPAXPAX@std@@YAXPAPAX0ABQAX@Z
                  118B442410668B1866891A83C20239CA75EF5BC3:
                    0. 00 0000 0020 0000:??$fill@std@PA_Y_Y@std@@YAXPA_Y0AB_Y@Z
              568B5C241439CA74:
                108BF2420FBE0666890383C30239CA:
                  0. 09 71F1 0029 0000:?do_widen@?$ctype@std@_Y@std@@MBEPBDPBD0PA_Y@Z
                1A668B02663B0374055E31C05BC3BE:
                  0. 14 2347 0034 0000:??$equal@std@PA_Y0U?$_Eq_traits@std@V?$char_traits@std@_Y@1@@1@@std@@YA_NPA_Y00U?$_Eq_traits@std@V?$char_traits@std@_Y@1@@1@@Z
              8B5C2410:
                2BCA7E0F0FBE02424966890383C30285C97FF1:
                  0. 04 9337 0024 0000:??$__copy@std@PBDPA_YH@std@@YAPA_YPBD0PA_YABUrandom_access_iterator_tag@1@PAH@Z
                39CA74108A023A0374045B31C0C3424339CA75:
                  0. 08 5CD8 0028 0000:??$equal@std@PAD0U?$_Eq_traits@std@V?$char_traits@std@D@1@@1@@std@@YA_NPAD00U?$_Eq_traits@std@V?$char_traits@std@D@1@@1@@Z
            10:
              668B5C240C8BC285C9741166833A00740B66891A83C202:
                0. 07 C5B5 0027 0000:__wcsnset
              85C98B5C240C8BC28D49FF7414803A00740F881A4285C9:
                0. 0C E24F 002C 0000:_strnset
          5A:
            08568B430C578942088B4B0C85C974038951048B72048B7C24:
              0. 2D D786 004D 0000:?_Rotate_right@?$_Rb_global@std@_N@std@@SAXPAU_Rb_tree_node_base@2@AAPAU32@@Z
            0C568B43085789420C8B4B0885C974038951048B72048B7C24:
              0. 2D 3F83 004D 0000:?_Rotate_left@?$_Rb_global@std@_N@std@@SAXPAU_Rb_tree_node_base@2@AAPAU32@@Z
          5C24:
            0C56:
              2BDAC1FB02577E:
                278B4C24188A028A093AC1744D428A:
                  0. 27 3E39 0079 0000:??$__find@std@PADD@std@@YAPADPAD0ABDABUrandom_access_iterator_tag@1@@Z
                3D0FB6028B4C241C8B348185742418:
                  0. 3D 52EE 00A1 0000:??$__find_if@std@PBDU_Ctype_not_mask@?$ctype@std@D@1@@std@@YAPBDPBD0U_Ctype_not_mask@?$ctype@std@D@1@ABUrandom_access_iterator_tag@1@@Z
                  1. 3D F070 00A1 0000:??$__find_if@std@PBDU_Ctype_is_mask@?$ctype@std@D@1@@std@@YAPBDPBD0U_Ctype_is_mask@?$ctype@std@D@1@ABUrandom_access_iterator_tag@1@@Z
              39DA:
                57741D8B4C2418668B02663B01750A8B74241C66:
                  0. 10 F2A7 0030 0000:??$replace@std@PA_Y_Y@std@@YAXPA_Y0AB_Y1@Z
                7327668B0A6681F9000173118BF181E6FFFF0000:
                  0. 03 8B03 003C (!)0000:?
                74178B4C24148A023A0175088B7424188A068802:
                  0. 08 2D38 0028 0000:??$replace@std@PADD@std@@YAXPAD0ABD1@Z
              57837A08007525837A0400741F803B00741A8BC38B32:
                0. 1A D9E0 003A (l)0000:_PutStr
              8B742414:
                3BD357741039F2740C8B038B0A8B3E893B89:
                  0. 07 7DCD 0027 0000:?__splice_after@?$_Sl_global@std@_N@std@@SAXPAU_Slist_node_base@2@00@Z
                85F68D76FF7425668B02668B0B25FFFF0000:
                  0. 1D B157 003D 0000:_wmemcmp
                D1EE5785F68D76FF741A8A0A8A4201BF0200:
                  0. 16 52C2 0036 0000:_swab
            10568B742410:
              39:
                DA74218B4B0489118B4E0489198B4A0489:
                  0. 16 4B28 0036 0000:?_Transfer@?$_List_global@std@_N@std@@SAXPAU_List_node_base@2@00@Z
                F257:
                  7328668B0A6681F9000173108BC125:
                    0. 07 1216 0043 0000:?do_is@?$ctype@std@_Y@std@@MBEPB_YPB_Y0PAW4mask@ctype_base@2@@Z
                  8B7C241C74:
                    2339FB741F8A0A8A033A:
                      0. 36 326F 0056 0000:??$__lexicographical_compare_3way@std@PBD0@std@@YAHPBD000@Z
                    2E39FB742A668B0A668B:
                      0. 41 8AF2 0061 0000:??$__lexicographical_compare_3way@std@PB_Y0@std@@YAHPB_Y000@Z
              837A08007529837A0400742385DB8D5BFF74:
                0. 20 4822 0040 (l)0000:_PutMem
      0C:
        56572B542410C1FA027E618B4C24100FB6018B5C241C8B34838574:
          0. 61 2589 00D9 0000:??$__find_if@std@PBDU_Ctype_is_mask@?$ctype@std@D@1@@std@@YAPBDPBD0U_Ctype_is_mask@?$ctype@std@D@1@ABUrandom_access_iterator_tag@1@@Z
          1. 61 F1A1 00D9 0000:??$__find_if@std@PBDU_Ctype_not_mask@?$ctype@std@D@1@@std@@YAPBDPBD0U_Ctype_not_mask@?$ctype@std@D@1@ABUrandom_access_iterator_tag@1@@Z
        89CB568B74241485D257740D837C24100074068B442410EB028BC2:
          0. 21 660D 0041 0000:?setg@streambuf@@IAEXPAD00@Z
        8B:
          4424085631DB57C602258B48048B7104F744061C800000007405:
            0. 3F A0E1 00B2 (l)0000:?intformat@@YAXAAVostream@@PADHH@Z
          4C2410:
            568B5C241839CA57741D668B02663B037515BE02000000:
              0. 1F 32E3 003F 0000:??$mismatch@std@PB_YPA_Y@std@@YA?AU?$pair@std@PB_YPA_Y@1@PB_Y0PA_Y@Z
            8B5C241439CA74128A023A03750C424339CA74068A023A:
              0. 10 0BD0 0030 0000:??$mismatch@std@PBDPAD@std@@YA?AU?$pair@std@PBDPAD@1@PBD0PAD@Z
          5C24:
            08803B008BCA741A803A00740D8A023A0375048BC35BC342:
              0. 0E 1F30 002E 0000:_strpbrk
            10568B74240C:
              578B0A8B03BF04000000890201FA890B01FB:
                0. 09 F86A 0029 (l)0000:_iswap@12
              8A0A8A03880242880B434E75F35E5BC20C00:
                0. 00 0000 0020 (l)0000:_cswap@12
              8B4C241839D6740439CB75085EB801000000:
                0. 2D B3FC 004D 0000:?__valid_grouping@std@@YA_NPBD000@Z
      10:
        85D28B442408668B5C240C8D52FF741166391875025BC383C00285:
          0. 0A 7F0F 002A 0000:_wmemchr
        8B:
          442408668B5C240C85D28D52FF741166391875025BC383C00285:
            0. 0A 7F0F 002A 0000:_wmemchr
          4C240C568B5C240C85D27419668B016685C0668903740EBE0200:
            0. 23 1F3D 0043 0000:_wcsncpy
      148B44240C568B7424248B5C241C8902B803000000891E5E5BC21C00:
        0. 00 0000 0020 (!)0000:?
    5C24:
      08:
        3B5C240C74:
          1D8A0B3A4C2414750343EB123A4C2418750C6A2D8B4C:
            0. 03 213F 002C 0000:??$__copy_sign@std@PBDD@std@@YAPBDPBD0AAV?$basic_string@std@DV?$char_traits@std@D@1@V?$allocator@std@D@1@@1@DD@Z
          24668B0B663B4C2414750583C302EB15663B4C241875:
            0. 08 C4FB 0033 0000:??$__copy_sign@std@PB_Y_Y@std@@YAPB_YPB_Y0AAV?$basic_string@std@DV?$char_traits@std@D@1@V?$allocator@std@D@1@@1@_Y_Y@Z
        55:
          568B7424148BC6572BC39981E20300000003C2C1F80289CF89C5:
            0. 0B 78BD 0067 0000:??$_M_range_initialize@?$vector@std@PAXV?$allocator@std@PAX@1@@std@PAPAX@?$vector@std@PAXV?$allocator@std@PAX@1@@std@@IAEXPAPAX0ABUforward_iterator_tag@2@@Z
          89CD568B742418578B7C241839FB7319FF33FF750CE8:
            0. 18 BAFB 0038 0000:?do_is@?$ctype_byname@std@_Y@std@@MBEPB_YPB_Y0PAW4mask@ctype_base@2@@Z
          8B6C24145631F685DB578B7C24180F84B800000083FD0119C941:
            0. 08 74A4 011A 0000:_mbstowcs
        56:
          31:
            C089038943048D4B048B542414518D7204535652FF742420E8:
              0. 00 0000 002C 0000:??$?Kstd@M@std@@YA?AU?$complex@std@M@1@ABMABU21@@Z
            F685DB750DE8........3BC678:
              6631F6EB6253E8........83:
                0. 1F 8AE5 0080 0000:_fflush
              6731F6EB638A430C24263C02:
                0. 16 AC24 0081 0000:_fflush
          57:
            31C08903894304:
              3805........75:
                206800002440FE05:
                  0. 00 0000 0091 0000:?log10@std@@YA?AU?$complex@std@M@1@ABU21@@Z
                26FF35........FE05:
                  0. 00 0000 0097 0000:?log10@std@@YA?AU?$complex@std@M@1@ABU21@@Z
              8B4C2414D90183EC088B54241CDD1C24D942:
                0. 08 CD2E 0063 0000:?log@std@@YA?AU?$complex@std@M@1@ABU21@@Z
            8B7C2414833D........00742EBEFFFFFFFF803B0075095FB8:
              0. 0B 05D1 0048 0000:__mbsbtype
          8B:
            35........E8........8D4B0C516A1556E8........8D5310:
              0. 05 42E3 00DB (l)0000:_takelocaleconv
            7424:
              10:
                39F35789CF:
                  7317FF33FF770CE8........66890383C3:
                    0. 10 3E44 0030 0000:?do_tolower@?$ctype_byname@std@_Y@std@@MBEPB_YPA_YPB_Y@Z (REF 0017: __Locale_wchar_tolower)
                    1. 10 3E44 0030 0000:?do_toupper@?$ctype_byname@std@_Y@std@@MBEPB_YPA_YPB_Y@Z (REF 0017: __Locale_wchar_toupper)
                  74190FBE0B51FFB718040000E8:
                    0. 12 A985 0032 0000:?do_tolower@?$ctype_byname@std@D@std@@UBEPBDPADPBD@Z (REF 001C: __Locale_tolower)
                    1. 12 A985 0032 0000:?do_toupper@?$ctype_byname@std@D@std@@UBEPBDPADPBD@Z (REF 001C: __Locale_toupper)
                3BF374128BD62BD35253FF74241CE8........83C40C:
                  0. 07 3D74 0027 0000:?do_widen@?$ctype@std@D@std@@MBEPBDPBD0PAD@Z
                85F657740485DB750431FFEB4356E8........83C404:
                  0. 06 71F2 0071 (l)0000:STR_CAT
                FF74241456E8........83C40885C07551FF74241856:
                  0. 01 3E9B 013A 0000:__Locale_compose_name (0118: C3)
                  1. 01 3E9B 0140 0000:__Locale_compose_name (0118: 00)
              1485F6750DE8........89C681C69000000085DB75068B:
                0. 0B A0BE 0061 0000:_wcstok
          E8........A1........B93C0000006A0099F7F966894306E8:
            0. 00 0000 0044 0000:__ftime
        81FBFFFFFF7F5689CE772885DB742485DB740F8BD301D252E8:
          0. 00 0000 0042 0000:?_M_allocate_block@?$_String_base@std@_YV?$allocator@std@_Y@1@@std@@QAEXI@Z
        83FBFF:
          5689CE772385DB741F85DB740B53E8........83C404EB02:
            0. 11 B912 003A 0000:?_M_allocate_block@?$_String_base@std@DV?$allocator@std@D@1@@std@@QAEXI@Z
          75048BC3EB:
            108B4C240C8AC38B114A891188020FBEC05BC3:
              0. 00 0000 0020 (l)0000:_sungetc
            158B4C240C8BC38B1183C2FE891166890225FF:
              0. 05 E5F9 0025 (l)0000:_sungetwc
        85DB5689CE7421FF7304E8........8B0EFF7304FF33034E0451E8:
          0. 00 0000 0032 0000:?write@RegBuffer@@QAEXPAU1@@Z
        8B:
          03563B410477138D50FFC1EA03538B318B0C96E8........EB0C:
            0. 02 C6BC 0031 0000:?SelectFree@RTLMultiPool@@AAEXPAX@Z
          44240C:
            5053FF15........83C4048D0C4351FF15........83C4:
              0. 05 1A5E 0025 0000:_wcscat
            562BC39981E20700000003C2C1F8038B74241489C185C0:
              0. 1F 2EA4 003F 0000:??$__copy@std@PBU?$pair@std@P6AXW4event@ios_base@1@AAV31@H@ZH@1@PAU21@H@std@@YAPAU?$pair@std@P6AXW4event@ios_base@1@AAV31@H@ZH@1@PBU21@0PAU21@ABUrandom_access_iterator_tag@1@PAH@Z
            8B50048B008B4C241089038953048A018843088BC35BC3:
              0. 00 0000 0020 0000:??$make_pair@std@V?$istreambuf_iterator@std@DV?$char_traits@std@D@1@@1@_N@std@@YA?AU?$pair@std@V?$istreambuf_iterator@std@DV?$char_traits@std@D@1@@1@_N@1@ABV?$istreambuf_iterator@std@DV?$char_traits@std@D@1@@1@AB_N@Z
          4C240C:
            39CB74158B4424108B50048B00890389530483C30839CB:
              0. 04 032B 0024 0000:??$fill@std@PAU?$pair@std@P6AXW4event@ios_base@1@AAV31@H@ZH@1@U21@@std@@YAXPAU?$pair@std@P6AXW4event@ios_base@1@AAV31@H@ZH@1@0ABU21@@Z
            66833B007426668339008BD17415668B02663B0375048B:
              0. 19 FACC 0039 0000:_wcspbrk
          5104565789CF8B0789038953048B378B56083B560C7306834608:
            0. 1A AD37 003A 0000:??E?$istreambuf_iterator@std@_YV?$char_traits@std@_Y@1@@std@@QAE?AV01@H@Z
          54240C5657837B08007525837B0400741F803A00741A8BC28B33:
            0. 1A 8879 003A (l)0000:_PutStr
          C35689CA25FF000000578BF381E6FFFCFFFF09420C8BFB81E7FF:
            0. 0F 515A 002F 0000:?setstate@ios@@IAEXH@Z
        FF74240C:
          0FB6C350E8........83C408B9FFFFFFFF3BC174248BC3:
            0. 0E 85A7 0049 0000:_putw
          53E8........83C4048D044350E8........83C4088BC3:
            0. 02 8FCC 0022 0000:_wcscat
      0C:
        2B5C24087E1653FF74240C8B4424182BC350E8........83C40CEB:
          0. 07 519C 0027 (!)0000:?
        31D28B4C240885DB74218A0184C0741B25FF000000F680:
          0. 18 336B 0038 0000:__mbsnbcnt
        53E8........83C404F7430C32000000750D837C2408FF7406837B:
          0. 24 130F 0051 0000:_ungetc
        5556BE0A000000578B7C24146A016A006A00FF34BD........FF15:
          0. 00 0000 00C4 0000:_locking
        85DB568B74240C741D8BC3B90A00000031D2F7F14E80C23088168B:
          0. 10 34B8 0030 0000:??$__write_decimal_backward@std@K@std@@YAPADPADKHABU__false_type@1@@Z
        8B:
          035683C002573B43047C278943048B4B04C1E10251FF7308E8:
            0. 00 0000 02E6 0050:RESPONSE_EXPAND (0030: 83)
            1. 00 0000 0050 (l)0000:ADDARGP
          442408568B542414833D........0074:
            468BF085D274308A0B84:
              0. 0B 9B82 0079 0000:__mbsncpy
            4C8BF085D274368A0B84:
              0. 0B 3F99 007F 0000:__mbsnbcpy
          542414568B74240C578B7C241885D274148A034A438806460FB6:
            0. 11 C0EE 0031 0000:_memccpy
        B801000000568B74240CC60625F7C30008000074078BC840C60431:
          0. 99 8015 00B9 (l)0000:?fill_fmtbuf@std@@YAHPADHD@Z
      102B5C240C7E188B44240CFF308B4C2418E8........4BFF44240C85:
        0. 13 18AD 0033 0000:??$__copy@std@PBDV?$back_insert_iterator@std@V?$basic_string@std@DV?$char_traits@std@D@1@V?$allocator@std@D@1@@1@@1@H@std@@YA?AV?$back_insert_iterator@std@V?$basic_string@std@DV?$char_traits@std@D@1@V?$allocator@std@D@1@@1@@1@PBD0V21@ABUrandom_access_iterator_tag@1@PAH@Z
      185589CD568B742414573B74241C7460FF742414FF368B4C24302BCB:
        0. 06 3A65 0089 0000:?do_out@?$codecvt_byname@std@_YDU__stl_mbstate_t@@@std@@MBE?AW4result@codecvt_base@2@AAU__stl_mbstate_t@@PB_Y1AAPB_YPAD3AAPAD@Z
    818C00000089CB85C0740FFFB3900000008D4B5450E8........C6436700:
      0. 0C C5CF 002C 0000:?_M_exit_input_mode@?$basic_filebuf@std@DV?$char_traits@std@D@1@@std@@AAEXXZ
  8D:
    41:
      1889CB50FF15........837B1800750C85DB74088B138BCB6A01FF125B:
        0. 01 EF04 0021 0000:?decr@_Locale@std@@UAEXXZ
      288B58045689CA2B1885DB57790143D1FB8B7A28F74224080000008D34:
        0. 35 22EB 0055 0000:?_M_set_ptrs@?$basic_stringbuf@std@_YV?$char_traits@std@_Y@1@V?$allocator@std@_Y@1@@std@@AAEXXZ
    590CC701........8B43088B132BC28D4B085052E8........5BC3:
      0. 00 0000 001D 0000:??1_Locale_impl@std@@UAE@XZ
  B8:
    080000005666094424128B4C241081E1FFFF0700660944241A8B54241881:
      0. 3A 4B0F 005A 0000:__largestNaN
    FFFFFFFF563944240C7420FF7154FF742410E8........83C40883F8FF74:
      0. 37 D0F0 0057 0000:?pbackfail@stdio_istreambuf@_SgI@@MAEHH@Z
    ........:
      56:
        6804010000506A:
          1F8B4C2418FF31FF15........8B54240C8D:
            0. 04 6D33 003F 0000:__Locale_d_fmt
          208B4C2418FF31FF15........8B54240C8D:
            0. 04 6D33 003F 0000:__Locale_long_d_fmt
        6A09506A:
          288B4C2418FF31FF15........8B54240C8D5A0453:
            0. 01 8DAC 0035 0000:__Locale_am_str
          298B4C2418FF31FF15........8B54240C8D5A0453:
            0. 01 8DAC 0035 0000:__Locale_pm_str
      B9........56FF74240C50518B4C24208B11FF5224BB:
        0. 01 BBC9 0037 0000:?_Initialize_get_digit@std@@YAXPA_Y0ABV?$ctype@std@_Y@1@@Z
  BB:
    01000000:
      53E8........4383C40483FB4672F1:
        A1........50FF15:
          0. 00 0000 002D 0000:__DestroyAllSemaphores
        FF35........FF15:
          0. 00 0000 002D 0000:__DestroyAllSemaphores
      5689CE8D561CC701........8B42042B029981E2030000005703:
        0. 0E 2C9F 0059 0000:??1_Locale@std@@UAE@XZ
    FFFFFFFF5689CE66837E3000743A8B54240C81FA00400000751468004000:
      0. 05 11DA 0051 0000:?setmode@filebuf@@QAEHH@Z
    ........:
      53E8........83C404F7430C83000000740953E8........83C4:
        0. 03 7437 0037 0000:___fcloseall
      8B430CA9830000007410A940000000740953E8........83C404:
        0. 05 8999 002D 0000:__flushterm
      FF15........A9000000807505BB........8BC35BC3:
        0. 00 0000 001C (l)0000:_GetWin32CmdInterp
  E8........:
    89C3E8........05800700003BC376258B430CA883740DA84074:
      0. 03 0BC8 003D 0000:__flushterm
    8B4C240C8B008901E8........8B5C24088B1089135BC20800:
      0. 00 0000 001F (l)0000:_SAVEERRNOSTATUS
  FF:
    0D........753F833D........00740C:
      6A018B0D........8B01FF10833D:
        0. 00 0000 004A 0000:??1Iostream_init@@QAE@XZ
      8B0D........6A018B01FF10833D:
        0. 00 0000 004A 0000:??1Iostream_init@@QAE@XZ
    7424:
      08:
        6A00E8........83C40889C383F8FF7507E8........EB22F74424:
          0. 12 A51B 0043 0000:__waccess
        FF15........89C383F8FF7507E8........EB22F744240C020000:
          0. 0E 6CBC 003F 0000:_access
      0CFF74240CE8........89C383C40883EB0183FB0377:
        4AFF249D:
          0. 00 0000 00AA 0000:_sqrt
        50FF249D:
          0. 00 0000 00AB 0000:_sqrt
        55FF249D:
          0. 00 0000 00B7 0000:_sqrt
55:
  31C98BEC83EC:
    145356578B7D08C745EC14000000894DF0894DF457E8:
      0. 00 0000 007F 0000:_wcstod
    485356578D55C08955E0BA1F0000008B5D088955E8C745B848:
      0. 69 AD1D 0328 0000:__SCANFLOAT
      1. 69 E523 0325 0000:__SCANFLOAT
  89E5:
    065051525356578D35........64A10400000089068D35........64A1:
      0. 08 81F6 0049 0000:__ptrchk
    51535657:
      556A00FF750CE802000000EB08FF7508E8........5D5F5E5B:
        0. 05 6604 0025 0000:__global_unwind
      8B5D08558B6D0CFFD35D5F5E5B5989EC5DC3:
        C8040000538B45:
          0. 3D FDCC 0111 0000:__call_except_block 0019:__local_except_handler 0045:__global_unwind 006A:__local_unwind 00F4:__local_unwind2 00F9:__abnormal_termination
        ..:
          0. 00 0000 0019 0000:__call_except_block
  8B:
    05........8BEC3D010000007504DEF9EB0AB80D000000E8........5DC3:
      0. 00 0000 0020 0000:__FDIVP
    4C24088B296A018B411C508B411850E8........83C40C5DC3:
      0. 00 0000 001B 0000:__seh_longjmp_unwind@4
    EC:
      0FB64D08:
        0FB681........25:
          010000005DC3558BEC0FB64D080FB681:
            0. 00 0000 0160 0000:__ismbbkalnum 0015:__ismbbkprint 002A:__ismbbkpunct 003F:__ismbbalnum 0072:__ismbbalpha 00A5:__ismbbgraph 00D8:__ismbbkana 00FD:__ismbbprint 0130:__ismbbpunct (REF 014B: .)
          040000005DC3:
            0. 00 0000 0015 0000:__ismbblead
          080000005DC3:
            0. 00 0000 0015 0000:__ismbbtrail
        8B15........0FB7044A25008000005DC3558BEC6803010000:
          0. 04 EF25 00FC 0000:_isleadbyte 0018:_iswalpha 002D:_iswupper 003F:_iswlower 0051:_iswdigit 0063:_iswxdigit 0078:_iswspace 008A:_iswpunct 009C:_iswalnum 00B1:_iswprint 00C6:_iswgraph 00DB:_iswcntrl 00ED:_iswascii
      1E0656578E5D088B750C8E45108B45188B7D148BC8C1E902F3A5B10323:
        0. 09 63C9 0029 0000:_movedata
      50:
        535657BA01000000F066FF0455........740952E8........83C404:
          0. 05 1D18 0057 0000:_realloc
        5657D92D........E8........BE........8945FC8B45FC8D7848A5:
          0. 10 1CC5 003F 0000:___threadstart@4
        813D........A403000075:
          4F668B4508668945FC807DFD217241807D:
            0. 45 5319 0065 0000:__mbcjistojms
            1. 45 D7F8 0065 0000:__mbcjistojms
          59668B4508668945FC0FB645FDF680:
            0. 00 0000 006F 0000:__mbcjmstojis
          5B668B4508668945FC31C08A45FDF680:
            0. 00 0000 0071 0000:__mbcjmstojis
        8B4508:
          2D........539981E21F0000005603C2C1F8055783C00A8945:
            0. 02 A9B1 007F 0000:___fp_lock
          83C0FC2B450C8945FC8B4DFC8B451089018B45FC8B6D0889C4:
            0. 05 B3D3 0025 0000:?_call_catch_block@@YAXJIP6CHXZ@Z
        DB6D08D9E59BDFE0DDD825004500003D0001000074253D0004000074:
          0. 63 29AE 0083 0000:___fpclassify_ld
          1. 6A D407 008A 0000:___fpclassify_ld
      53:
        56:
          57:
            8B:
              45:
                08:
                  8A0884C9744B8A1080FA2B743F80FA2D743A80FA3A7435:
                    0. 07 5004 11E1 0B84:_tzset 0E64:_localtime 0EE2:_mktime 1073:_gmtime
                  E8........83FE00741E83FE03750C0D000040006A01E8:
                    0. 00 0000 0315 0000:_rintf 011B:_nextafterf 02BA:___fpclassify_f
                0C8B088B5508890A8B48088B5804895A04894A088B48108B:
                  0. 3A 52D4 01AC 00A1:___wFindFirstFile 0155:___wFindNextFile (0151: EC)
                  1. 3A 52D4 01AE 00A1:___wFindFirstFile 0157:___wFindNextFile (0151: 00)
              5508F066FF:
                0455........740952E8........83C4045F5E5B:
                  0. 02 5F98 0022 0000:__LockSemaphore
                0C55........780952E8........83C4045F5E5B:
                  0. 02 5F98 0022 0000:__UnlockSemaphore
              7508:
                8B7D0C8B1E85DB75206A0CE8........83C40489C3897B:
                  0. 2E F055 004E (l)0000:_trace_sympair_add
                AC3C2074FB3C09:
                  0F82........3C0D76EF3C2B0F85:
                    0. 00 0000 012A 0000:_strtoul
                  72093C0D76F33C2B7501AC8B5D1085DB:
                    0. 9B 0612 00E2 0000:_strtoull
                    1. 9F 97F7 00E6 0000:_strtoull
                    2. 9B BDDA 00E3 0000:_strtoull
              7D:
                0885FF0F84B2000000FF05........8B0785C0740950E8:
                  0. 00 0000 00C8 (l)0000:_trace_report
                0C33C08BC849:
                  8BDFFCF2AE8B5510F7D13BD10F87:
                    0. 2E D049 004E 0000:_strncpy
                  FCF2AEF7D12BF98BD18BC88BF78B7D08498B:
                    0. 1B CAD5 003B 0000:_strcat
            BA:
              00000000F066FF0455........740952E8........83C4048B:
                0. 05 565C 0060 0000:__DestroySemaphore
              01000000F066FF0455........740952E8........83C404FF:
                0. 04 8FBD 004B 0000:_free
          813D........A403000075448B:
            450883F820721883F87F73138B55:
              0. 08 49BC 0138 0000:__mbbtombc 005C:__mbctombb
            4D08C1E9080FB6C90FB681:
              0. 00 0000 005B 0000:__ismbcl1 (0023: 98)
              1. 00 0000 005B 0000:__ismbcl2 (0023: EA)
          83:
            3D........00:
              74:
                448B45083B450C773C8B4D0880390074348B75:
                  0. 07 81E5 0058 0000:__ismbslead
                458B45083B450C773D8B4D0880390074358B75:
                  0. 07 81E5 0059 0000:__ismbstrail
              750AC705................0FBF05........B9:
                0. 00 0000 0051 0000:__fatexit
            7D1000750DE8........0590000000894510837D080075128B45:
              0. 17 D903 007D 0000:_wcstok
          8B:
            450C83F8017402EB190FB655080FB68A........F6C108744CB8:
              0. 0F 46BB 0074 0000:__mbbtype (REF 0049: .)
            4D0C8A118B5D0888130FB6D20FB682........A804740C8B750C:
              0. 0D BA40 002D 0000:__mbccpy
          FF750CE8........83C4048B450CF6400C32750C837D08FF740683:
            0. 2E 6798 0272 0000:_ungetc 005C:_fseek 01AC:_ftell 023A:_fgetpos 025B:_fsetpos
        813D........A403000075328B4D08C1E9080FB6C90FB681:
          0. 0B F464 0047 0000:__ismbcl0
        833D........:
          0074148B1D........A1........8B00A3........EB:
            0. 04 A855 0032 (l)0000:_stack_malloc
          010F850F010000C705........02000000833D:
            0. 00 0000 0123 0000:_trace_term
        8B:
          45:
            088B0849FF348D........E8........8B55088B1A4BFF349D:
              0. 00 0000 002D 0000:_matherr
            0C8B008B501C8B40188B4D088B092B41181B511C89D109C17504:
              0. 09 E6CC 003C (l)0000:_symbol_cmp
          4D08C1E9080FB6C90FB681........A80474100FB65D080FB693:
            0. 00 0000 0034 0000:__ismbclegal
          5D08:
            0FBE03F680........08740D430FBE03F680........0875F3:
              0. 05 8721 0025 (l)0000:_skipspace (REF 0019: .)
            833D........007520C705........00000000A1........C1:
              0. 04 5D45 005C (l)0000:_trace_array
            85DB74216A0053E8........83C4088B0385C0740950E8:
              0. 00 0000 002F (l)0000:_trace_order
        E8........8B008B4D0C8901E8........8B108B5D0889135B5DC208:
          0. 06 72FF 01F7 0040:__FOPEN (01D0: 00)
          1. 06 72FF 01FA 0040:__WFOPEN (01D0: C9)
        FF7508E8........83C40489C385DB750A6A01E8........83C4048B:
          0. 04 97DF 0024 (l)0000:_trace_malloc
      56578B75:
        088B7D0C8B4D10E32FB441B65AAC8A17473AC20F85:
          0. 31 8AA2 0051 0000:_memicmp
        0C8B7D0833C08BC849FCF2AE4F8BD78BFE8BC849F2AEF7D18B:
          0. 20 0F43 0040 0000:_strncat
      578B45088B550C8BFA81E70000F07F743081FF0000F07F7451C1EF1481:
        0. 74 C9E9 03AE 0000:_frexp 0081:_nextafter 024D:_rint 039D:___flt_rounds
      5DC3558BEC53B8........A3........B9........890D........BA:
        0. 00 0000 0037 0000:__fltused 0005:__STI_fltused
      648B15........6AFF:
        31:
          C068........52648925........83EC:
            105389:
              0. 1B 4CFC 0096 0000:??0ios_base@std@@IAE@XZ
              1. 18 D73B 0077 0000:??0?$basic_streambuf@std@_YV?$char_traits@std@_Y@1@@std@@IAE@XZ
            145356:
              0. FF 6948 01F1 0000:??$_M_ignore_buffered@std@_YV?$char_traits@std@_Y@1@U?$_Is_not_wspace@std@V?$char_traits@std@_Y@1@@1@U?$_Scan_for_not_wspace@std@V?$char_traits@std@_Y@1@@1@@std@@YAXPAV?$basic_istream@std@_YV?$char_traits@std@_Y@1@@1@PAV?$basic_streambuf@std@_YV?$char_traits@std@_Y@1@@1@U?$_Is_not_wspace@std@V?$char_traits@std@_Y@1@@1@U?$_Scan_for_not_wspace@std@V?$char_traits@std@_Y@1@@1@_N4@Z
            1C5356:
              0. FF 5257 01F5 0000:??$_M_read_unbuffered@std@_YV?$char_traits@std@_Y@1@U?$_Constant_unary_fun@std@_N_Y@1@@std@@YAHPAV?$basic_istream@std@_YV?$char_traits@std@_Y@1@@1@PAV?$basic_streambuf@std@_YV?$char_traits@std@_Y@1@@1@HPA_YU?$_Constant_unary_fun@std@_N_Y@1@_N44@Z
              1. FF 830B 01FC 0000:??$_M_read_unbuffered@std@_YV?$char_traits@std@_Y@1@U?$_Eq_char_bound@std@V?$char_traits@std@_Y@1@@1@@std@@YAHPAV?$basic_istream@std@_YV?$char_traits@std@_Y@1@@1@PAV?$basic_streambuf@std@_YV?$char_traits@std@_Y@1@@1@HPA_YU?$_Eq_char_bound@std@V?$char_traits@std@_Y@1@@1@_N44@Z
              2. FF F984 0222 0000:??$_M_read_unbuffered@std@_YV?$char_traits@std@_Y@1@U?$_Is_wspace_null@std@V?$char_traits@std@_Y@1@@1@@std@@YAHPAV?$basic_istream@std@_YV?$char_traits@std@_Y@1@@1@PAV?$basic_streambuf@std@_YV?$char_traits@std@_Y@1@@1@HPA_YU?$_Is_wspace_null@std@V?$char_traits@std@_Y@1@@1@_N44@Z
            24538B:
              0. 0F 4587 01F1 0000:??0locale@std@@QAE@PBD@Z
            28:
              5356:
                0. FF 26CA 01C9 0000:??$_M_ignore_unbuffered@std@_YV?$char_traits@std@_Y@1@U?$_Constant_binary_fun@std@HHH@1@U?$_Constant_unary_fun@std@_N_Y@1@@std@@YAHPAV?$basic_istream@std@_YV?$char_traits@std@_Y@1@@1@PAV?$basic_streambuf@std@_YV?$char_traits@std@_Y@1@@1@HU?$_Constant_binary_fun@std@HHH@1@U?$_Constant_unary_fun@std@_N_Y@1@_N4@Z
                1. FF 560F 01CB 0000:??$_M_ignore_unbuffered@std@_YV?$char_traits@std@_Y@1@U?$minus@std@H@1@U?$_Constant_unary_fun@std@_N_Y@1@@std@@YAHPAV?$basic_istream@std@_YV?$char_traits@std@_Y@1@@1@PAV?$basic_streambuf@std@_YV?$char_traits@std@_Y@1@@1@HU?$minus@std@H@1@U?$_Constant_unary_fun@std@_N_Y@1@_N4@Z
                2. FF 73C0 01D5 0000:??$_M_ignore_unbuffered@std@_YV?$char_traits@std@_Y@1@U?$_Constant_binary_fun@std@HHH@1@U?$_Eq_int_bound@std@V?$char_traits@std@_Y@1@@1@@std@@YAHPAV?$basic_istream@std@_YV?$char_traits@std@_Y@1@@1@PAV?$basic_streambuf@std@_YV?$char_traits@std@_Y@1@@1@HU?$_Constant_binary_fun@std@HHH@1@U?$_Eq_int_bound@std@V?$char_traits@std@_Y@1@@1@_N4@Z
                3. FF 7E2B 01DD 0000:??$_M_ignore_unbuffered@std@_YV?$char_traits@std@_Y@1@U?$minus@std@H@1@U?$_Eq_int_bound@std@V?$char_traits@std@_Y@1@@1@@std@@YAHPAV?$basic_istream@std@_YV?$char_traits@std@_Y@1@@1@PAV?$basic_streambuf@std@_YV?$char_traits@std@_Y@1@@1@HU?$minus@std@H@1@U?$_Eq_int_bound@std@V?$char_traits@std@_Y@1@@1@_N4@Z
              8B4D:
                0. 48 9DBE 01E6 0000:??$_M_copy_buffered@std@_YV?$char_traits@std@_Y@1@U?$_Eq_char_bound@std@V?$char_traits@std@_Y@1@@1@U?$_Scan_for_char_val@std@V?$char_traits@std@_Y@1@@1@@std@@YAHPAV?$basic_istream@std@_YV?$char_traits@std@_Y@1@@1@PAV?$basic_streambuf@std@_YV?$char_traits@std@_Y@1@@1@1U?$_Scan_for_char_val@std@V?$char_traits@std@_Y@1@@1@U?$_Eq_char_bound@std@V?$char_traits@std@_Y@1@@1@_N4@Z
                1. FF D122 01E6 0000:??$_M_copy_buffered@std@_YV?$char_traits@std@_Y@1@U?$_Constant_unary_fun@std@_N_Y@1@U?$_Project2nd@std@PB_Y0@1@@std@@YAHPAV?$basic_istream@std@_YV?$char_traits@std@_Y@1@@1@PAV?$basic_streambuf@std@_YV?$char_traits@std@_Y@1@@1@1U?$_Project2nd@std@PB_Y0@1@U?$_Constant_unary_fun@std@_N_Y@1@_N4@Z
            2C53:
              56:
                0. 0F 34A8 01ED 0000:??0locale@std@@QAE@PBD@Z
              89:
                0. FF 8E8A 02B8 0000:??$_M_ignore_buffered@std@_YV?$char_traits@std@_Y@1@U?$_Constant_binary_fun@std@HHH@1@U?$_Constant_unary_fun@std@_N_Y@1@U?$_Project2nd@std@PB_Y0@1@@std@@YAHPAV?$basic_istream@std@_YV?$char_traits@std@_Y@1@@1@PAV?$basic_streambuf@std@_YV?$char_traits@std@_Y@1@@1@HU?$_Constant_binary_fun@std@HHH@1@U?$_Constant_unary_fun@std@_N_Y@1@U?$_Project2nd@std@PB_Y0@1@_N5@Z
                1. FF 9EA1 02B7 0000:??$_M_ignore_buffered@std@_YV?$char_traits@std@_Y@1@U?$minus@std@H@1@U?$_Constant_unary_fun@std@_N_Y@1@U?$_Project2nd@std@PB_Y0@1@@std@@YAHPAV?$basic_istream@std@_YV?$char_traits@std@_Y@1@@1@PAV?$basic_streambuf@std@_YV?$char_traits@std@_Y@1@@1@HU?$minus@std@H@1@U?$_Constant_unary_fun@std@_N_Y@1@U?$_Project2nd@std@PB_Y0@1@_N5@Z
            30:
              5356:
                0. 70 0683 02AF 0000:??$_M_read_buffered@std@_YV?$char_traits@std@_Y@1@U?$_Is_wspace_null@std@V?$char_traits@std@_Y@1@@1@U?$_Scan_wspace_null@std@V?$char_traits@std@_Y@1@@1@@std@@YAHPAV?$basic_istream@std@_YV?$char_traits@std@_Y@1@@1@PAV?$basic_streambuf@std@_YV?$char_traits@std@_Y@1@@1@HPA_YU?$_Is_wspace_null@std@V?$char_traits@std@_Y@1@@1@U?$_Scan_wspace_null@std@V?$char_traits@std@_Y@1@@1@_N55@Z
                1. 7B 0A68 0293 0000:??$_M_read_buffered@std@_YV?$char_traits@std@_Y@1@U?$_Constant_unary_fun@std@_N_Y@1@U?$_Project2nd@std@PB_Y0@1@@std@@YAHPAV?$basic_istream@std@_YV?$char_traits@std@_Y@1@@1@PAV?$basic_streambuf@std@_YV?$char_traits@std@_Y@1@@1@HPA_YU?$_Constant_unary_fun@std@_N_Y@1@U?$_Project2nd@std@PB_Y0@1@_N55@Z
                2. 73 65F4 02A4 0000:??$_M_read_buffered@std@_YV?$char_traits@std@_Y@1@U?$_Eq_char_bound@std@V?$char_traits@std@_Y@1@@1@U?$_Scan_for_char_val@std@V?$char_traits@std@_Y@1@@1@@std@@YAHPAV?$basic_istream@std@_YV?$char_traits@std@_Y@1@@1@PAV?$basic_streambuf@std@_YV?$char_traits@std@_Y@1@@1@HPA_YU?$_Eq_char_bound@std@V?$char_traits@std@_Y@1@@1@U?$_Scan_for_char_val@std@V?$char_traits@std@_Y@1@@1@_N55@Z
                3. 96 A914 0295 0000:??$_M_read_buffered@std@_YV?$char_traits@std@_Y@1@U?$_Constant_unary_fun@std@_N_Y@1@U?$_Project2nd@std@PB_Y0@1@@std@@YAHPAV?$basic_istream@std@_YV?$char_traits@std@_Y@1@@1@PAV?$basic_streambuf@std@_YV?$char_traits@std@_Y@1@@1@HPA_YU?$_Constant_unary_fun@std@_N_Y@1@U?$_Project2nd@std@PB_Y0@1@_N55@Z
                4. 71 BC0F 02A1 0000:??$_M_read_buffered@std@_YV?$char_traits@std@_Y@1@U?$_Eq_char_bound@std@V?$char_traits@std@_Y@1@@1@U?$_Scan_for_char_val@std@V?$char_traits@std@_Y@1@@1@@std@@YAHPAV?$basic_istream@std@_YV?$char_traits@std@_Y@1@@1@PAV?$basic_streambuf@std@_YV?$char_traits@std@_Y@1@@1@HPA_YU?$_Eq_char_bound@std@V?$char_traits@std@_Y@1@@1@U?$_Scan_for_char_val@std@V?$char_traits@std@_Y@1@@1@_N55@Z
                5. 6A C9AD 02A9 0000:??$_M_read_buffered@std@_YV?$char_traits@std@_Y@1@U?$_Is_wspace_null@std@V?$char_traits@std@_Y@1@@1@U?$_Scan_wspace_null@std@V?$char_traits@std@_Y@1@@1@@std@@YAHPAV?$basic_istream@std@_YV?$char_traits@std@_Y@1@@1@PAV?$basic_streambuf@std@_YV?$char_traits@std@_Y@1@@1@HPA_YU?$_Is_wspace_null@std@V?$char_traits@std@_Y@1@@1@U?$_Scan_wspace_null@std@V?$char_traits@std@_Y@1@@1@_N55@Z
                6. FF EBE0 01B1 0000:??$_M_ignore_unbuffered@std@DV?$char_traits@std@D@1@U?$minus@std@H@1@U?$_Constant_unary_fun@std@_NH@1@@std@@YAHPAV?$basic_istream@std@DV?$char_traits@std@D@1@@1@PAV?$basic_streambuf@std@DV?$char_traits@std@D@1@@1@HU?$minus@std@H@1@U?$_Constant_unary_fun@std@_NH@1@_N4@Z
                7. FF EC51 01AA 0000:??$_M_ignore_unbuffered@std@DV?$char_traits@std@D@1@U?$_Constant_binary_fun@std@HHH@1@U?$_Constant_unary_fun@std@_NH@1@@std@@YAHPAV?$basic_istream@std@DV?$char_traits@std@D@1@@1@PAV?$basic_streambuf@std@DV?$char_traits@std@D@1@@1@HU?$_Constant_binary_fun@std@HHH@1@U?$_Constant_unary_fun@std@_NH@1@_N4@Z
              8B4D:
                0. FF EC0D 01F2 0000:??$_M_copy_buffered@std@DV?$char_traits@std@D@1@U?$_Constant_unary_fun@std@_NH@1@U?$_Project2nd@std@PBD0@1@@std@@YAHPAV?$basic_istream@std@DV?$char_traits@std@D@1@@1@PAV?$basic_streambuf@std@DV?$char_traits@std@D@1@@1@1U?$_Project2nd@std@PBD0@1@U?$_Constant_unary_fun@std@_NH@1@_N4@Z
            345356:
              0. FF 1F4B 01EA 0000:??$_M_read_unbuffered@std@DV?$char_traits@std@D@1@U?$_Eq_char_bound@std@V?$char_traits@std@D@1@@1@@std@@YAHPAV?$basic_istream@std@DV?$char_traits@std@D@1@@1@PAV?$basic_streambuf@std@DV?$char_traits@std@D@1@@1@HPADU?$_Eq_char_bound@std@V?$char_traits@std@D@1@@1@_N44@Z
              1. A3 4A7A 02D8 0000:??$_M_ignore_buffered@std@_YV?$char_traits@std@_Y@1@U?$_Constant_binary_fun@std@HHH@1@U?$_Eq_int_bound@std@V?$char_traits@std@_Y@1@@1@U?$_Scan_for_int_val@std@V?$char_traits@std@_Y@1@@1@@std@@YAHPAV?$basic_istream@std@_YV?$char_traits@std@_Y@1@@1@PAV?$basic_streambuf@std@_YV?$char_traits@std@_Y@1@@1@HU?$_Constant_binary_fun@std@HHH@1@U?$_Eq_int_bound@std@V?$char_traits@std@_Y@1@@1@U?$_Scan_for_int_val@std@V?$char_traits@std@_Y@1@@1@_N5@Z
              2. FD 7AEB 01E5 0000:??$_M_read_unbuffered@std@DV?$char_traits@std@D@1@U?$_Constant_unary_fun@std@_NH@1@@std@@YAHPAV?$basic_istream@std@DV?$char_traits@std@D@1@@1@PAV?$basic_streambuf@std@DV?$char_traits@std@D@1@@1@HPADU?$_Constant_unary_fun@std@_NH@1@_N44@Z
              3. 9E 8562 02D3 0000:??$_M_ignore_buffered@std@_YV?$char_traits@std@_Y@1@U?$minus@std@H@1@U?$_Eq_int_bound@std@V?$char_traits@std@_Y@1@@1@U?$_Scan_for_int_val@std@V?$char_traits@std@_Y@1@@1@@std@@YAHPAV?$basic_istream@std@_YV?$char_traits@std@_Y@1@@1@PAV?$basic_streambuf@std@_YV?$char_traits@std@_Y@1@@1@HU?$minus@std@H@1@U?$_Eq_int_bound@std@V?$char_traits@std@_Y@1@@1@U?$_Scan_for_int_val@std@V?$char_traits@std@_Y@1@@1@_N5@Z
              4. 59 B3A3 020C 0000:??$_M_ignore_buffered@std@DV?$char_traits@std@D@1@U?$_Is_not_wspace@std@V?$char_traits@std@D@1@@1@U?$_Scan_for_not_wspace@std@V?$char_traits@std@D@1@@1@@std@@YAXPAV?$basic_istream@std@DV?$char_traits@std@D@1@@1@PAV?$basic_streambuf@std@DV?$char_traits@std@D@1@@1@U?$_Is_not_wspace@std@V?$char_traits@std@D@1@@1@U?$_Scan_for_not_wspace@std@V?$char_traits@std@D@1@@1@_N4@Z
              5. FF E449 020F 0000:??$_M_read_unbuffered@std@DV?$char_traits@std@D@1@U?$_Is_wspace_null@std@V?$char_traits@std@D@1@@1@@std@@YAHPAV?$basic_istream@std@DV?$char_traits@std@D@1@@1@PAV?$basic_streambuf@std@DV?$char_traits@std@D@1@@1@HPADU?$_Is_wspace_null@std@V?$char_traits@std@D@1@@1@_N44@Z
            385356:
              0. FF 35EE 01BD 0000:??$_M_ignore_unbuffered@std@DV?$char_traits@std@D@1@U?$minus@std@H@1@U?$_Eq_int_bound@std@V?$char_traits@std@D@1@@1@@std@@YAHPAV?$basic_istream@std@DV?$char_traits@std@D@1@@1@PAV?$basic_streambuf@std@DV?$char_traits@std@D@1@@1@HU?$minus@std@H@1@U?$_Eq_int_bound@std@V?$char_traits@std@D@1@@1@_N4@Z
              1. FF A5F0 01B9 0000:??$_M_ignore_unbuffered@std@DV?$char_traits@std@D@1@U?$_Constant_binary_fun@std@HHH@1@U?$_Eq_int_bound@std@V?$char_traits@std@D@1@@1@@std@@YAHPAV?$basic_istream@std@DV?$char_traits@std@D@1@@1@PAV?$basic_streambuf@std@DV?$char_traits@std@D@1@@1@HU?$_Constant_binary_fun@std@HHH@1@U?$_Eq_int_bound@std@V?$char_traits@std@D@1@@1@_N4@Z
            3C5356:
              0. 96 EECA 02C9 0000:??$_M_ignore_buffered@std@DV?$char_traits@std@D@1@U?$_Constant_binary_fun@std@HHH@1@U?$_Eq_int_bound@std@V?$char_traits@std@D@1@@1@U?$_Scan_for_int_val@std@V?$char_traits@std@D@1@@1@@std@@YAHPAV?$basic_istream@std@DV?$char_traits@std@D@1@@1@PAV?$basic_streambuf@std@DV?$char_traits@std@D@1@@1@HU?$_Constant_binary_fun@std@HHH@1@U?$_Eq_int_bound@std@V?$char_traits@std@D@1@@1@U?$_Scan_for_int_val@std@V?$char_traits@std@D@1@@1@_N5@Z
            445356:
              0. 97 4A03 02CC 0000:??$_M_ignore_buffered@std@DV?$char_traits@std@D@1@U?$minus@std@H@1@U?$_Eq_int_bound@std@V?$char_traits@std@D@1@@1@U?$_Scan_for_int_val@std@V?$char_traits@std@D@1@@1@@std@@YAHPAV?$basic_istream@std@DV?$char_traits@std@D@1@@1@PAV?$basic_streambuf@std@DV?$char_traits@std@D@1@@1@HU?$minus@std@H@1@U?$_Eq_int_bound@std@V?$char_traits@std@D@1@@1@U?$_Scan_for_int_val@std@V?$char_traits@std@D@1@@1@_N5@Z
              1. FF D60D 02BA 0000:??$_M_ignore_buffered@std@DV?$char_traits@std@D@1@U?$minus@std@H@1@U?$_Constant_unary_fun@std@_NH@1@U?$_Project2nd@std@PBD0@1@@std@@YAHPAV?$basic_istream@std@DV?$char_traits@std@D@1@@1@PAV?$basic_streambuf@std@DV?$char_traits@std@D@1@@1@HU?$minus@std@H@1@U?$_Constant_unary_fun@std@_NH@1@U?$_Project2nd@std@PBD0@1@_N5@Z
              2. FF FB40 02B9 0000:??$_M_ignore_buffered@std@DV?$char_traits@std@D@1@U?$_Constant_binary_fun@std@HHH@1@U?$_Constant_unary_fun@std@_NH@1@U?$_Project2nd@std@PBD0@1@@std@@YAHPAV?$basic_istream@std@DV?$char_traits@std@D@1@@1@PAV?$basic_streambuf@std@DV?$char_traits@std@D@1@@1@HU?$_Constant_binary_fun@std@HHH@1@U?$_Constant_unary_fun@std@_NH@1@U?$_Project2nd@std@PBD0@1@_N5@Z
            4C5356:
              0. 82 3CC8 01F8 0000:??$_M_copy_unbuffered@std@DV?$char_traits@std@D@1@U?$_Eq_char_bound@std@V?$char_traits@std@D@1@@1@@std@@YAHPAV?$basic_istream@std@DV?$char_traits@std@D@1@@1@PAV?$basic_streambuf@std@DV?$char_traits@std@D@1@@1@1U?$_Eq_char_bound@std@V?$char_traits@std@D@1@@1@_N3@Z
              1. 7E 7B73 01F1 0000:??$_M_copy_unbuffered@std@DV?$char_traits@std@D@1@U?$_Constant_unary_fun@std@_NH@1@@std@@YAHPAV?$basic_istream@std@DV?$char_traits@std@D@1@@1@PAV?$basic_streambuf@std@DV?$char_traits@std@D@1@@1@1U?$_Constant_unary_fun@std@_NH@1@_N3@Z
              2. 90 9208 0252 0000:??$_M_copy_unbuffered@std@_YV?$char_traits@std@_Y@1@U?$_Eq_char_bound@std@V?$char_traits@std@_Y@1@@1@@std@@YAHPAV?$basic_istream@std@_YV?$char_traits@std@_Y@1@@1@PAV?$basic_streambuf@std@_YV?$char_traits@std@_Y@1@@1@1U?$_Eq_char_bound@std@V?$char_traits@std@_Y@1@@1@_N3@Z
              3. 8A A588 0249 0000:??$_M_copy_unbuffered@std@_YV?$char_traits@std@_Y@1@U?$_Constant_unary_fun@std@_N_Y@1@@std@@YAHPAV?$basic_istream@std@_YV?$char_traits@std@_Y@1@@1@PAV?$basic_streambuf@std@_YV?$char_traits@std@_Y@1@@1@1U?$_Constant_unary_fun@std@_N_Y@1@_N3@Z
            505356:
              0. 86 2DE4 02AD 0000:??$_M_read_buffered@std@DV?$char_traits@std@D@1@U?$_Constant_unary_fun@std@_NH@1@U?$_Project2nd@std@PBD0@1@@std@@YAHPAV?$basic_istream@std@DV?$char_traits@std@D@1@@1@PAV?$basic_streambuf@std@DV?$char_traits@std@D@1@@1@HPADU?$_Constant_unary_fun@std@_NH@1@U?$_Project2nd@std@PBD0@1@_N55@Z
              1. 9D D2B4 02AD 0000:??$_M_read_buffered@std@DV?$char_traits@std@D@1@U?$_Constant_unary_fun@std@_NH@1@U?$_Project2nd@std@PBD0@1@@std@@YAHPAV?$basic_istream@std@DV?$char_traits@std@D@1@@1@PAV?$basic_streambuf@std@DV?$char_traits@std@D@1@@1@HPADU?$_Constant_unary_fun@std@_NH@1@U?$_Project2nd@std@PBD0@1@_N55@Z
            585356:
              0. 7A 325B 02BF 0000:??$_M_read_buffered@std@DV?$char_traits@std@D@1@U?$_Is_wspace_null@std@V?$char_traits@std@D@1@@1@U?$_Scan_wspace_null@std@V?$char_traits@std@D@1@@1@@std@@YAHPAV?$basic_istream@std@DV?$char_traits@std@D@1@@1@PAV?$basic_streambuf@std@DV?$char_traits@std@D@1@@1@HPADU?$_Is_wspace_null@std@V?$char_traits@std@D@1@@1@U?$_Scan_wspace_null@std@V?$char_traits@std@D@1@@1@_N55@Z
              1. 78 4645 02BC 0000:??$_M_read_buffered@std@DV?$char_traits@std@D@1@U?$_Is_wspace_null@std@V?$char_traits@std@D@1@@1@U?$_Scan_wspace_null@std@V?$char_traits@std@D@1@@1@@std@@YAHPAV?$basic_istream@std@DV?$char_traits@std@D@1@@1@PAV?$basic_streambuf@std@DV?$char_traits@std@D@1@@1@HPADU?$_Is_wspace_null@std@V?$char_traits@std@D@1@@1@U?$_Scan_wspace_null@std@V?$char_traits@std@D@1@@1@_N55@Z
              2. 7E CA0A 02B3 0000:??$_M_read_buffered@std@DV?$char_traits@std@D@1@U?$_Eq_char_bound@std@V?$char_traits@std@D@1@@1@U?$_Scan_for_char_val@std@V?$char_traits@std@D@1@@1@@std@@YAHPAV?$basic_istream@std@DV?$char_traits@std@D@1@@1@PAV?$basic_streambuf@std@DV?$char_traits@std@D@1@@1@HPADU?$_Eq_char_bound@std@V?$char_traits@std@D@1@@1@U?$_Scan_for_char_val@std@V?$char_traits@std@D@1@@1@_N55@Z
              3. 7C D998 02B4 0000:??$_M_read_buffered@std@DV?$char_traits@std@D@1@U?$_Eq_char_bound@std@V?$char_traits@std@D@1@@1@U?$_Scan_for_char_val@std@V?$char_traits@std@D@1@@1@@std@@YAHPAV?$basic_istream@std@DV?$char_traits@std@D@1@@1@PAV?$basic_streambuf@std@DV?$char_traits@std@D@1@@1@HPADU?$_Eq_char_bound@std@V?$char_traits@std@D@1@@1@U?$_Scan_for_char_val@std@V?$char_traits@std@D@1@@1@_N55@Z
          C968........52648925........83EC:
            145356:
              0. 1E EC7A 0149 0000:?__rtti_cast@@YAPAXPAX0PBD1H@Z
            488B55:
              0. 52 D980 01FF 0000:??$_M_copy_buffered@std@DV?$char_traits@std@D@1@U?$_Eq_char_bound@std@V?$char_traits@std@D@1@@1@U?$_Scan_for_char_val@std@V?$char_traits@std@D@1@@1@@std@@YAHPAV?$basic_istream@std@DV?$char_traits@std@D@1@@1@PAV?$basic_streambuf@std@DV?$char_traits@std@D@1@@1@1U?$_Scan_for_char_val@std@V?$char_traits@std@D@1@@1@U?$_Eq_char_bound@std@V?$char_traits@std@D@1@@1@_N4@Z
        68........:
          52:
            648925........83EC:
              08:
                50:
                  53:
                    56:
                      57:
                        0. 05 0459 00A5 0000:?_S_oom_malloc@?$__malloc_alloc@std@$0@@std@@CAPAXI@Z
                      C7:
                        0. 34 5A35 0068 0000:??$swap@std@V?$_STLP_alloc_proxy@std@PADDV?$allocator@std@D@1@@1@@std@@YAXAAV?$_STLP_alloc_proxy@std@PADDV?$allocator@std@D@1@@1@0@Z (REF 000D: ??$swap@std@V?$_STLP_alloc_proxy@std@PADDV?$allocator@std@D@1@@1@@std@@YAXAAV?$_STLP_alloc_proxy@std@PADDV?$allocator@std@D@1@@1@0@Z)
                        1. 34 5A35 0068 0000:??$swap@std@V?$_STLP_alloc_proxy@std@PA_Y_YV?$allocator@std@_Y@1@@1@@std@@YAXAAV?$_STLP_alloc_proxy@std@PA_Y_YV?$allocator@std@_Y@1@@1@0@Z (REF 000D: ??$swap@std@V?$_STLP_alloc_proxy@std@PA_Y_YV?$allocator@std@_Y@1@@1@@std@@YAXAAV?$_STLP_alloc_proxy@std@PA_Y_YV?$allocator@std@_Y@1@@1@0@Z)
                        2. 34 5A35 0068 0000:??$swap@std@V?$_STLP_alloc_proxy@std@PAPAXPAXV?$allocator@std@PAX@1@@1@@std@@YAXAAV?$_STLP_alloc_proxy@std@PAPAXPAXV?$allocator@std@PAX@1@@1@0@Z (REF 000D: ??$swap@std@V?$_STLP_alloc_proxy@std@PAPAXPAXV?$allocator@std@PAX@1@@1@@std@@YAXAAV?$_STLP_alloc_proxy@std@PAPAXPAXV?$allocator@std@PAX@1@@1@0@Z)
                    FF71:
                      0. 02 A1CD 0068 0000:?do_grouping@?$numpunct_byname@std@D@std@@MBE?AV?$basic_string@std@DV?$char_traits@std@D@1@V?$allocator@std@D@1@@2@XZ (0041: E9) (REF 000D: ?do_grouping@?$numpunct_byname@std@D@std@@MBE?AV?$basic_string@std@DV?$char_traits@std@D@1@V?$allocator@std@D@1@@2@XZ)
                      1. 02 A1CD 0068 0000:?do_grouping@?$numpunct_byname@std@_Y@std@@MBE?AV?$basic_string@std@DV?$char_traits@std@D@1@V?$allocator@std@D@1@@2@XZ (0041: E9) (REF 000D: ?do_grouping@?$numpunct_byname@std@_Y@std@@MBE?AV?$basic_string@std@DV?$char_traits@std@D@1@V?$allocator@std@D@1@@2@XZ)
                      2. 02 A1CD 006F 0000:?do_grouping@?$numpunct_byname@std@_Y@std@@MBE?AV?$basic_string@std@DV?$char_traits@std@D@1@V?$allocator@std@D@1@@2@XZ (0041: 04) (REF 000D: ?do_grouping@?$numpunct_byname@std@_Y@std@@MBE?AV?$basic_string@std@DV?$char_traits@std@D@1@V?$allocator@std@D@1@@2@XZ)
                      3. 02 A1CD 006F 0000:?do_grouping@?$numpunct_byname@std@D@std@@MBE?AV?$basic_string@std@DV?$char_traits@std@D@1@V?$allocator@std@D@1@@2@XZ (0041: 04) (REF 000D: ?do_grouping@?$numpunct_byname@std@D@std@@MBE?AV?$basic_string@std@DV?$char_traits@std@D@1@V?$allocator@std@D@1@@2@XZ)
                  803D:
                    0. 00 0000 0083 0000:___SD?%locale_catalog_cpp3098213161_
                  833D:
                    0. 00 0000 006E 0000:?unexpected@@YAXXZ
                  B8:
                    0. 00 0000 006D 0000:?xalloc@ios_base@std@@SAHXZ (0043: B8)
                    1. 00 0000 0071 0000:?xalloc@ios_base@std@@SAHXZ (0043: 8B)
                  B9:
                    0. 00 0000 007E 0000:___SI?%locale_impl_cpp3140148849_ (0059: E9)
                    1. 00 0000 0085 0000:___SI?%locale_impl_cpp3086152336_ (0059: 5D)
                  C745FC:
                    0. 13 DFDA 00C8 0000:___SD?%monetary_cpp3202990124_ (0058: B9)
                    1. 13 DFDA 0098 0000:___SD?%locale_impl_cpp3140148849_ (0058: E5)
                  FF7508:
                    0. 01 3E9B 003F 0000:??3@YAXPAXABUnothrow_t@std@@@Z (0014: B8) (REF 000D: ??3@YAXPAXABUnothrow_t@std@@@Z)
                    1. 01 3E9B 003F 0000:??_Q@YAXPAXABUnothrow_t@std@@@Z (0014: B8) (REF 000D: ??_Q@YAXPAXABUnothrow_t@std@@@Z)
                    2. 01 3E9B 0040 0000:??_P@YAPAXIABUnothrow_t@std@@@Z (0014: C3) (REF 000D: ??_P@YAPAXIABUnothrow_t@std@@@Z)
                    3. 01 3E9B 0040 0000:??2@YAPAXIABUnothrow_t@std@@@Z (0014: C3) (REF 000D: ??2@YAPAXIABUnothrow_t@std@@@Z)
                51:
                  53:
                    56:
                      83:
                        0. 08 145A 00C1 0000:??0fstream@@QAE@H@Z
                        1. 08 3131 00C7 0000:??0fstream@@QAE@PBDHH@Z (REF 000D: ??0fstream@@QAE@PBDHH@Z)
                        2. 08 3131 00C7 0000:??0fstream@@QAE@HPADH@Z (REF 000D: ??0fstream@@QAE@HPADH@Z)
                        3. 08 85EF 00C5 0000:??0iostream@@QAE@PAVstreambuf@@@Z (0083: E8)
                        4. 08 85EF 00E0 0000:??0?$basic_stringstream@std@_YV?$char_traits@std@_Y@1@V?$allocator@std@_Y@1@@std@@QAE@H@Z (0083: 50)
                        5. 08 85EF 00B0 0000:??0ofstream@@QAE@H@Z (000D: 50)
                        6. 08 85EF 00BB 0000:??0istrstream@@QAE@PAD@Z (0083: 8B)
                        7. 08 85EF 00B0 0000:??0ifstream@@QAE@H@Z (000D: 58)
                        8. 08 902F 00A3 0000:??0?$basic_ostream@std@DV?$char_traits@std@D@1@@std@@QAE@PAV?$basic_streambuf@std@DV?$char_traits@std@D@1@@1@@Z (004B: 75) (REF 000D: ??0?$basic_ostream@std@DV?$char_traits@std@D@1@@std@@QAE@PAV?$basic_streambuf@std@DV?$char_traits@std@D@1@@1@@Z)
                        9. 08 902F 00A3 0000:??0?$basic_ostream@std@_YV?$char_traits@std@_Y@1@@std@@QAE@PAV?$basic_streambuf@std@_YV?$char_traits@std@_Y@1@@1@@Z (004B: 75) (REF 000D: ??0?$basic_ostream@std@_YV?$char_traits@std@_Y@1@@std@@QAE@PAV?$basic_streambuf@std@_YV?$char_traits@std@_Y@1@@1@@Z)
                        10. 08 902F 008F 0000:??0ostream@@QAE@PAVstreambuf@@@Z (004B: 8B)
                        11. 08 902F 0099 0000:??0istream@@QAE@PAVstreambuf@@@Z (004B: C7)
                        12. 08 902F 00A8 0000:??0fstreambase@@QAE@H@Z (004B: 50)
                        13. 08 902F 00D5 0000:??0?$basic_ostringstream@std@_YV?$char_traits@std@_Y@1@V?$allocator@std@_Y@1@@std@@QAE@H@Z (004B: 45) (REF 000D: ??0?$basic_ostringstream@std@_YV?$char_traits@std@_Y@1@V?$allocator@std@_Y@1@@std@@QAE@H@Z)
                        14. 08 902F 011B 0000:??0?$basic_istringstream@std@_YV?$char_traits@std@_Y@1@V?$allocator@std@_Y@1@@std@@QAE@H@Z (004B: 01) (REF 000D: ??0?$basic_istringstream@std@_YV?$char_traits@std@_Y@1@V?$allocator@std@_Y@1@@std@@QAE@H@Z)
                        15. 08 902F 00D5 0000:??0?$basic_ostringstream@std@DV?$char_traits@std@D@1@V?$allocator@std@D@1@@std@@QAE@H@Z (004B: 45) (REF 000D: ??0?$basic_ostringstream@std@DV?$char_traits@std@D@1@V?$allocator@std@D@1@@std@@QAE@H@Z)
                        16. 08 902F 011B 0000:??0?$basic_istringstream@std@DV?$char_traits@std@D@1@V?$allocator@std@D@1@@std@@QAE@H@Z (004B: 01) (REF 000D: ??0?$basic_istringstream@std@DV?$char_traits@std@D@1@V?$allocator@std@D@1@@std@@QAE@H@Z)
                        17. 08 A084 00B6 0000:??0ofstream@@QAE@HPADH@Z (000D: 50)
                        18. 08 A084 00BC 0000:??0ofstream@@QAE@PBDHH@Z (001E: 02)
                        19. 08 A084 00B6 0000:??0ifstream@@QAE@HPADH@Z (000D: 58)
                        20. 08 A084 00BC 0000:??0ifstream@@QAE@PBDHH@Z (001E: 01)
                        21. 08 B544 00C9 0000:??0istream@@QAE@PAVstreambuf@@HPAVostream@@@Z (007C: 04)
                        22. 08 B544 00B6 0000:??0fstreambase@@QAE@PBDHH@Z (007C: 5E)
                        23. 08 B544 00AE 0000:??0strstreambase@@IAE@PADH0@Z (007C: B8) (REF 000D: ??0strstreambase@@IAE@PADH0@Z)
                        24. 08 B544 00AE 0000:??0fstreambase@@QAE@HPADH@Z (007C: B8) (REF 000D: ??0fstreambase@@QAE@HPADH@Z)
                        25. 08 F828 00E3 0000:??0?$basic_stringstream@std@DV?$char_traits@std@D@1@V?$allocator@std@D@1@@std@@QAE@H@Z
                      8D:
                        0. 14 2722 00E7 0000:??0?$numpunct_byname@std@D@std@@QAE@PBDI@Z (00A6: C2)
                        1. 14 2722 0114 0000:??0?$numpunct_byname@std@_Y@std@@QAE@PBDI@Z (00A6: 0D)
                        2. 0F 4FC9 00C6 0000:??0?$basic_stringbuf@std@DV?$char_traits@std@D@1@V?$allocator@std@D@1@@std@@QAE@ABV?$basic_string@std@DV?$char_traits@std@D@1@V?$allocator@std@D@1@@1@H@Z
                      C7:
                        0. 13 7F27 00B7 0000:??1?$basic_iostream@std@_YV?$char_traits@std@_Y@1@@std@@UAE@XZ (0056: 8B) (REF 000D: ??1?$basic_iostream@std@_YV?$char_traits@std@_Y@1@@std@@UAE@XZ)
                        1. 13 7F27 00B7 0000:??1?$basic_iostream@std@DV?$char_traits@std@D@1@@std@@UAE@XZ (0056: 8B) (REF 000D: ??1?$basic_iostream@std@DV?$char_traits@std@D@1@@std@@UAE@XZ)
                        2. 13 7F27 008E 0000:??1?$basic_stringstream@std@_YV?$char_traits@std@_Y@1@V?$allocator@std@_Y@1@@std@@UAE@XZ (0056: E9) (REF 000D: ??1?$basic_stringstream@std@_YV?$char_traits@std@_Y@1@V?$allocator@std@_Y@1@@std@@UAE@XZ)
                        3. 13 7F27 008E 0000:??1?$basic_stringstream@std@DV?$char_traits@std@D@1@V?$allocator@std@D@1@@std@@UAE@XZ (0056: E9) (REF 000D: ??1?$basic_stringstream@std@DV?$char_traits@std@D@1@V?$allocator@std@D@1@@std@@UAE@XZ)
                        4. 13 7F27 008E 0000:??1strstream@std@@UAE@XZ (0056: E9) (REF 000D: ??1strstream@std@@UAE@XZ)
                        5. 17 B080 0087 0000:??1ostrstream@std@@UAE@XZ (004B: E9) (REF 000D: ??1ostrstream@std@@UAE@XZ)
                        6. 17 B080 0087 0000:??1?$basic_ostringstream@std@_YV?$char_traits@std@_Y@1@V?$allocator@std@_Y@1@@std@@UAE@XZ (004B: E9) (REF 000D: ??1?$basic_ostringstream@std@_YV?$char_traits@std@_Y@1@V?$allocator@std@_Y@1@@std@@UAE@XZ)
                        7. 17 B080 0087 0000:??1?$basic_ostringstream@std@DV?$char_traits@std@D@1@V?$allocator@std@D@1@@std@@UAE@XZ (004B: E9) (REF 000D: ??1?$basic_ostringstream@std@DV?$char_traits@std@D@1@V?$allocator@std@D@1@@std@@UAE@XZ)
                        8. 17 B080 00B0 0000:??1istrstream@std@@UAE@XZ (004B: 8B) (REF 000D: ??1istrstream@std@@UAE@XZ)
                        9. 17 B080 00B0 0000:??1?$basic_istringstream@std@DV?$char_traits@std@D@1@V?$allocator@std@D@1@@std@@UAE@XZ (004B: 8B) (REF 000D: ??1?$basic_istringstream@std@DV?$char_traits@std@D@1@V?$allocator@std@D@1@@std@@UAE@XZ)
                        10. 17 B080 00B0 0000:??1?$basic_istringstream@std@_YV?$char_traits@std@_Y@1@V?$allocator@std@_Y@1@@std@@UAE@XZ (004B: 8B) (REF 000D: ??1?$basic_istringstream@std@_YV?$char_traits@std@_Y@1@V?$allocator@std@_Y@1@@std@@UAE@XZ)
                        11. 17 B27A 00AA 0000:??1_Locale@std@@UAE@XZ
                      E8:
                        0. 00 0000 00A1 0000:??0filebuf@@QAE@XZ
                    837D:
                      0. 07 417D 007D 0000:??0ostream_withassign@@QAE@XZ (0006: 08)
                      1. 07 417D 006C 0000:??0ostream@@IAE@XZ (0040: E9)
                      2. 07 417D 007D 0000:??0istream_withassign@@QAE@XZ (0006: 10)
                      3. 07 417D 0073 0000:??0istream@@IAE@XZ (0040: 04)
                      4. 07 54BD 008B 0000:??0iostream_withassign@@QAE@XZ
                    E8:
                      0. 00 0000 007A 0000:??0__Named_exception@std@@QAE@ABV?$basic_string@std@DV?$char_traits@std@D@1@V?$allocator@std@D@1@@1@@Z (004C: 5D)
                      1. 00 0000 0071 0000:??0stdiostream@@QAE@PAU_iobuf@@@Z (004C: E9)
                  837D08:
                    0. 07 98FC 006A 0000:??0?$messages_byname@std@_Y@std@@QAE@PBDI@Z (REF 000D: ??0?$messages_byname@std@_Y@std@@QAE@PBDI@Z)
                    1. 07 98FC 006A 0000:??0?$messages_byname@std@D@std@@QAE@PBDI@Z (REF 000D: ??0?$messages_byname@std@D@std@@QAE@PBDI@Z)
                  85C953:
                    0. 0D 704E 006C 0000:??_G?$basic_ios@std@DV?$char_traits@std@D@1@@std@@UAEPAXI@Z (REF 000D: ??_G?$basic_ios@std@DV?$char_traits@std@D@1@@std@@UAEPAXI@Z)
                    1. 0D 704E 006C 0000:??_G?$basic_ios@std@_YV?$char_traits@std@_Y@1@@std@@UAEPAXI@Z (REF 000D: ??_G?$basic_ios@std@_YV?$char_traits@std@_Y@1@@std@@UAEPAXI@Z)
                    2. 0D 704E 006C 0000:??_G?$num_get@std@DV?$istreambuf_iterator@std@DV?$char_traits@std@D@1@@1@@std@@UAEPAXI@Z (REF 000D: ??_G?$num_get@std@DV?$istreambuf_iterator@std@DV?$char_traits@std@D@1@@1@@std@@UAEPAXI@Z)
                    3. 0D 704E 006C 0000:??_G?$num_put@std@DV?$ostreambuf_iterator@std@DV?$char_traits@std@D@1@@1@@std@@UAEPAXI@Z (REF 000D: ??_G?$num_put@std@DV?$ostreambuf_iterator@std@DV?$char_traits@std@D@1@@1@@std@@UAEPAXI@Z)
                    4. 0D 704E 006C 0000:??_G?$num_get@std@_YV?$istreambuf_iterator@std@_YV?$char_traits@std@_Y@1@@1@@std@@UAEPAXI@Z (REF 000D: ??_G?$num_get@std@_YV?$istreambuf_iterator@std@_YV?$char_traits@std@_Y@1@@1@@std@@UAEPAXI@Z)
                    5. 0D 704E 006C 0000:??_G?$num_put@std@_YV?$ostreambuf_iterator@std@_YV?$char_traits@std@_Y@1@@1@@std@@UAEPAXI@Z (REF 000D: ??_G?$num_put@std@_YV?$ostreambuf_iterator@std@_YV?$char_traits@std@_Y@1@@1@@std@@UAEPAXI@Z)
                    6. 0D 704E 006C 0000:??_G?$money_get@std@DV?$istreambuf_iterator@std@DV?$char_traits@std@D@1@@1@@std@@UAEPAXI@Z (REF 000D: ??_G?$money_get@std@DV?$istreambuf_iterator@std@DV?$char_traits@std@D@1@@1@@std@@UAEPAXI@Z)
                    7. 0D 704E 006C 0000:??_G?$money_put@std@DV?$ostreambuf_iterator@std@DV?$char_traits@std@D@1@@1@@std@@UAEPAXI@Z (REF 000D: ??_G?$money_put@std@DV?$ostreambuf_iterator@std@DV?$char_traits@std@D@1@@1@@std@@UAEPAXI@Z)
                    8. 0D 704E 006C 0000:??_G?$money_get@std@_YV?$istreambuf_iterator@std@_YV?$char_traits@std@_Y@1@@1@@std@@UAEPAXI@Z (REF 000D: ??_G?$money_get@std@_YV?$istreambuf_iterator@std@_YV?$char_traits@std@_Y@1@@1@@std@@UAEPAXI@Z)
                    9. 0D 704E 006C 0000:??_G?$money_put@std@_YV?$ostreambuf_iterator@std@_YV?$char_traits@std@_Y@1@@1@@std@@UAEPAXI@Z (REF 000D: ??_G?$money_put@std@_YV?$ostreambuf_iterator@std@_YV?$char_traits@std@_Y@1@@1@@std@@UAEPAXI@Z)
                  8B4508:
                    0. 1F 7806 00BA 0000:??0?$basic_streambuf@std@DV?$char_traits@std@D@1@@std@@IAE@PAU_iobuf@@0@Z
                  8D4104:
                    0. 12 E1A2 0095 0000:??0?$collate_byname@std@D@std@@QAE@PBDI@Z (REF 000D: ??0?$collate_byname@std@D@std@@QAE@PBDI@Z)
                    1. 12 E1A2 0095 0000:??0?$collate_byname@std@_Y@std@@QAE@PBDI@Z (REF 000D: ??0?$collate_byname@std@_Y@std@@QAE@PBDI@Z)
                    2. 12 E1A2 0095 0000:??0?$codecvt_byname@std@_YDU__stl_mbstate_t@@@std@@QAE@PBDI@Z (REF 000D: ??0?$codecvt_byname@std@_YDU__stl_mbstate_t@@@std@@QAE@PBDI@Z)
                    3. 12 E1A2 0095 0000:??0?$ctype_byname@std@_Y@std@@QAE@PBDI@Z (REF 000D: ??0?$ctype_byname@std@_Y@std@@QAE@PBDI@Z)
                  C7:
                    01:
                      0. 00 0000 0040 0000:??1bad_exception@std@@UAE@XZ (REF 000D: ??1bad_exception@std@@UAE@XZ)
                      1. 00 0000 0040 0000:??1bad_cast@std@@UAE@XZ (REF 000D: ??1bad_cast@std@@UAE@XZ)
                      2. 00 0000 0040 0000:??1bad_typeid@std@@UAE@XZ (REF 000D: ??1bad_typeid@std@@UAE@XZ)
                      3. 00 0000 0040 0000:??1bad_alloc@std@@UAE@XZ (REF 000D: ??1bad_alloc@std@@UAE@XZ)
                      4. 00 0000 0040 0000:??1__Named_exception@std@@UAE@XZ (REF 000D: ??1__Named_exception@std@@UAE@XZ)
                      5. 00 0000 0040 0000:??1logic_error@std@@UAE@XZ (REF 000D: ??1logic_error@std@@UAE@XZ)
                      6. 00 0000 0040 0000:??1runtime_error@std@@UAE@XZ (REF 000D: ??1runtime_error@std@@UAE@XZ)
                      7. 00 0000 0040 0000:??1domain_error@std@@UAE@XZ (REF 000D: ??1domain_error@std@@UAE@XZ)
                      8. 00 0000 0040 0000:??1invalid_argument@std@@UAE@XZ (REF 000D: ??1invalid_argument@std@@UAE@XZ)
                      9. 00 0000 0040 0000:??1length_error@std@@UAE@XZ (REF 000D: ??1length_error@std@@UAE@XZ)
                      10. 00 0000 0040 0000:??1out_of_range@std@@UAE@XZ (REF 000D: ??1out_of_range@std@@UAE@XZ)
                      11. 00 0000 0040 0000:??1range_error@std@@UAE@XZ (REF 000D: ??1range_error@std@@UAE@XZ)
                      12. 00 0000 0040 0000:??1overflow_error@std@@UAE@XZ (REF 000D: ??1overflow_error@std@@UAE@XZ)
                      13. 00 0000 0040 0000:??1underflow_error@std@@UAE@XZ (REF 000D: ??1underflow_error@std@@UAE@XZ)
                      14. 00 0000 0040 0000:??1failure@ios_base@std@@UAE@XZ (REF 000D: ??1failure@ios_base@std@@UAE@XZ)
                    45FC:
                      0. 11 0737 0083 0000:??1strstream@@UAE@XZ (REF 000D: ??1strstream@@UAE@XZ)
                      1. 11 0737 0083 0000:??1fstream@@UAE@XZ (REF 000D: ??1fstream@@UAE@XZ)
                      2. 0B 0951 006B 0000:??1?$messages@std@D@std@@MAE@XZ (REF 000D: ??1?$messages@std@D@std@@MAE@XZ)
                      3. 0B 0951 006B 0000:??1?$messages@std@_Y@std@@MAE@XZ (REF 000D: ??1?$messages@std@_Y@std@@MAE@XZ)
                      4. 0C 33F4 0082 0000:??1?$hashtable@std@U?$pair@std@QBDU?$pair@std@PAXI@1@@1@PBDU?$hash@std@PBD@1@U?$_Select1st@std@U?$pair@std@QBDU?$pair@std@PAXI@1@@1@@1@U__eqstr@1@V?$allocator@std@U?$pair@std@PBDU?$pair@std@PAXI@1@@1@@1@@std@@QAE@XZ (0028: 04)
                      5. 0C 33F4 0082 0000:??1?$hashtable@std@U?$pair@std@_OHVlocale@1@@1@HU?$hash@std@H@1@U?$_Select1st@std@U?$pair@std@_OHVlocale@1@@1@@1@U?$equal_to@std@H@1@V?$allocator@std@U?$pair@std@HVlocale@1@@1@@1@@std@@QAE@XZ (0028: 08)
                      6. 1F 390E 0076 0000:??1?$basic_string@std@DV?$char_traits@std@D@1@V?$allocator@std@D@1@@std@@QAE@XZ
                      7. 11 4BF9 007C 0000:??1iostream@@UAE@XZ
                      8. 1C 532A 0073 0000:??1?$_Vector_base@std@_YV?$allocator@std@_Y@1@@std@@QAE@XZ
                      9. 11 8627 007C 0000:??1ifstream@@UAE@XZ (REF 000D: ??1ifstream@@UAE@XZ)
                      10. 11 8627 007C 0000:??1ostrstream@@UAE@XZ (REF 000D: ??1ostrstream@@UAE@XZ)
                      11. 11 8627 007C 0000:??1istrstream@@UAE@XZ (REF 000D: ??1istrstream@@UAE@XZ)
                      12. 11 8627 007C 0000:??1ofstream@@UAE@XZ (REF 000D: ??1ofstream@@UAE@XZ)
                      13. 11 8B8D 0068 0000:??1?$_String_base@std@DV?$allocator@std@D@1@@std@@QAE@XZ
                      14. 09 936D 0076 0000:??1strstreambuf@@UAE@XZ
                      15. 06 A461 0058 0000:??1stdiobuf@@UAE@XZ (0006: E8)
                      16. 06 A461 0062 0000:??1?$ctype@std@D@std@@MAE@XZ (0006: 10)
                      17. 06 A461 0065 0000:??1filebuf@@UAE@XZ (0006: 2C)
                      18. 06 A461 004E 0000:??1stdio_ostreambuf@_SgI@@UAE@XZ (0006: FC) (REF 000D: ??1stdio_ostreambuf@_SgI@@UAE@XZ)
                      19. 06 A461 004E 0000:??1bad_typeid@std@@UAE@XZ (0006: FC) (REF 000D: ??1bad_typeid@std@@UAE@XZ)
                      20. 06 A461 004E 0000:??1?$codecvt@std@DDU__stl_mbstate_t@@@std@@MAE@XZ (0006: FC) (REF 000D: ??1?$codecvt@std@DDU__stl_mbstate_t@@@std@@MAE@XZ)
                      21. 06 A461 004E 0000:??1?$codecvt@std@_YDU__stl_mbstate_t@@@std@@MAE@XZ (0006: FC) (REF 000D: ??1?$codecvt@std@_YDU__stl_mbstate_t@@@std@@MAE@XZ)
                      22. 06 A461 004E 0000:??1?$collate@std@D@std@@MAE@XZ (0006: FC) (REF 000D: ??1?$collate@std@D@std@@MAE@XZ)
                      23. 06 A461 004E 0000:??1stdio_istreambuf@_SgI@@UAE@XZ (0006: FC) (REF 000D: ??1stdio_istreambuf@_SgI@@UAE@XZ)
                      24. 06 A461 004E 0000:??1?$moneypunct@std@D$00@std@@MAE@XZ (0006: FC) (REF 000D: ??1?$moneypunct@std@D$00@std@@MAE@XZ)
                      25. 06 A461 004E 0000:??1?$moneypunct@std@_Y$00@std@@MAE@XZ (0006: FC) (REF 000D: ??1?$moneypunct@std@_Y$00@std@@MAE@XZ)
                      26. 06 A461 004E 0000:??1bad_cast@std@@UAE@XZ (0006: FC) (REF 000D: ??1bad_cast@std@@UAE@XZ)
                      27. 06 A461 004E 0000:??1?$basic_ios@std@DV?$char_traits@std@D@1@@std@@UAE@XZ (0006: FC) (REF 000D: ??1?$basic_ios@std@DV?$char_traits@std@D@1@@std@@UAE@XZ)
                      28. 06 A461 004E 0000:??1?$moneypunct@std@D$0@@std@@MAE@XZ (0006: FC) (REF 000D: ??1?$moneypunct@std@D$0@@std@@MAE@XZ)
                      29. 06 A461 004E 0000:??1?$ctype@std@_Y@std@@MAE@XZ (0006: FC) (REF 000D: ??1?$ctype@std@_Y@std@@MAE@XZ)
                      30. 06 A461 004E 0000:??1__Named_exception@std@@UAE@XZ (0006: FC) (REF 000D: ??1__Named_exception@std@@UAE@XZ)
                      31. 06 A461 004E 0000:??1logic_error@std@@UAE@XZ (0006: FC) (REF 000D: ??1logic_error@std@@UAE@XZ)
                      32. 06 A461 004E 0000:??1runtime_error@std@@UAE@XZ (0006: FC) (REF 000D: ??1runtime_error@std@@UAE@XZ)
                      33. 06 A461 004E 0000:??1domain_error@std@@UAE@XZ (0006: FC) (REF 000D: ??1domain_error@std@@UAE@XZ)
                      34. 06 A461 004E 0000:??1invalid_argument@std@@UAE@XZ (0006: FC) (REF 000D: ??1invalid_argument@std@@UAE@XZ)
                      35. 06 A461 004E 0000:??1length_error@std@@UAE@XZ (0006: FC) (REF 000D: ??1length_error@std@@UAE@XZ)
                      36. 06 A461 004E 0000:??1out_of_range@std@@UAE@XZ (0006: FC) (REF 000D: ??1out_of_range@std@@UAE@XZ)
                      37. 06 A461 004E 0000:??1range_error@std@@UAE@XZ (0006: FC) (REF 000D: ??1range_error@std@@UAE@XZ)
                      38. 06 A461 004E 0000:??1overflow_error@std@@UAE@XZ (0006: FC) (REF 000D: ??1overflow_error@std@@UAE@XZ)
                      39. 06 A461 004E 0000:??1underflow_error@std@@UAE@XZ (0006: FC) (REF 000D: ??1underflow_error@std@@UAE@XZ)
                      40. 06 A461 004E 0000:??1bad_exception@std@@UAE@XZ (0006: FC) (REF 000D: ??1bad_exception@std@@UAE@XZ)
                      41. 06 A461 004E 0000:??1failure@ios_base@std@@UAE@XZ (0006: FC) (REF 000D: ??1failure@ios_base@std@@UAE@XZ)
                      42. 06 A461 004E 0000:??1?$basic_ios@std@_YV?$char_traits@std@_Y@1@@std@@UAE@XZ (0006: FC) (REF 000D: ??1?$basic_ios@std@_YV?$char_traits@std@_Y@1@@std@@UAE@XZ)
                      43. 06 A461 004E 0000:??1?$numpunct@std@D@std@@MAE@XZ (0006: FC) (REF 000D: ??1?$numpunct@std@D@std@@MAE@XZ)
                      44. 06 A461 004E 0000:??1?$numpunct@std@_Y@std@@MAE@XZ (0006: FC) (REF 000D: ??1?$numpunct@std@_Y@std@@MAE@XZ)
                      45. 06 A461 004E 0000:??1?$messages_byname@std@_Y@std@@MAE@XZ (0006: FC) (REF 000D: ??1?$messages_byname@std@_Y@std@@MAE@XZ)
                      46. 06 A461 004E 0000:??1?$messages_byname@std@D@std@@MAE@XZ (0006: FC) (REF 000D: ??1?$messages_byname@std@D@std@@MAE@XZ)
                      47. 06 A461 004E 0000:??1?$collate@std@_Y@std@@MAE@XZ (0006: FC) (REF 000D: ??1?$collate@std@_Y@std@@MAE@XZ)
                      48. 06 A461 004E 0000:??1bad_alloc@std@@UAE@XZ (0006: FC) (REF 000D: ??1bad_alloc@std@@UAE@XZ)
                      49. 06 A461 004E 0000:??1?$codecvt_byname@std@DDU__stl_mbstate_t@@@std@@UAE@XZ (0006: FC) (REF 000D: ??1?$codecvt_byname@std@DDU__stl_mbstate_t@@@std@@UAE@XZ)
                      50. 06 A461 004E 0000:??1?$moneypunct@std@_Y$0@@std@@MAE@XZ (0006: FC) (REF 000D: ??1?$moneypunct@std@_Y$0@@std@@MAE@XZ)
                      51. 06 A461 005F 0000:??1?$ctype_byname@std@D@std@@UAE@XZ (0006: 18)
                      52. 06 A461 005C 0000:??1stdio_streambuf_base@_SgI@@UAE@XZ (0006: 54)
                      53. 06 A461 005C 0000:??1?$numpunct_byname@std@_Y@std@@MAE@XZ (0006: 0C) (REF 000D: ??1?$numpunct_byname@std@_Y@std@@MAE@XZ)
                      54. 06 A461 005C 0000:??1?$numpunct_byname@std@D@std@@MAE@XZ (0006: 0C) (REF 000D: ??1?$numpunct_byname@std@D@std@@MAE@XZ)
                      55. 06 A461 005C 0000:??1?$ctype_byname@std@_Y@std@@MAE@XZ (0006: 0C) (REF 000D: ??1?$ctype_byname@std@_Y@std@@MAE@XZ)
                      56. 06 A461 005C 0000:??1?$collate_byname@std@D@std@@MAE@XZ (0006: 0C) (REF 000D: ??1?$collate_byname@std@D@std@@MAE@XZ)
                      57. 06 A461 005C 0000:??1?$collate_byname@std@_Y@std@@MAE@XZ (0006: 0C) (REF 000D: ??1?$collate_byname@std@_Y@std@@MAE@XZ)
                      58. 06 A461 005C 0000:??1?$codecvt_byname@std@_YDU__stl_mbstate_t@@@std@@MAE@XZ (0006: 0C) (REF 000D: ??1?$codecvt_byname@std@_YDU__stl_mbstate_t@@@std@@MAE@XZ)
                      59. 06 A461 005C 0000:??1?$moneypunct_byname@std@_Y$0@@std@@MAE@XZ (0006: 14) (REF 000D: ??1?$moneypunct_byname@std@_Y$0@@std@@MAE@XZ)
                      60. 06 A461 005C 0000:??1?$moneypunct_byname@std@D$0@@std@@MAE@XZ (0006: 14) (REF 000D: ??1?$moneypunct_byname@std@D$0@@std@@MAE@XZ)
                      61. 06 A461 005C 0000:??1?$moneypunct_byname@std@D$00@std@@MAE@XZ (0006: 14) (REF 000D: ??1?$moneypunct_byname@std@D$00@std@@MAE@XZ)
                      62. 06 A461 005C 0000:??1?$moneypunct_byname@std@_Y$00@std@@MAE@XZ (0006: 14) (REF 000D: ??1?$moneypunct_byname@std@_Y$00@std@@MAE@XZ)
                      63. 06 A461 005E 0000:??1?$basic_filebuf@std@DV?$char_traits@std@D@1@@std@@UAE@XZ (REF 000D: ??1?$basic_filebuf@std@DV?$char_traits@std@D@1@@std@@UAE@XZ)
                      64. 06 A461 005E 0000:??1?$basic_filebuf@std@_YV?$char_traits@std@_Y@1@@std@@UAE@XZ (REF 000D: ??1?$basic_filebuf@std@_YV?$char_traits@std@_Y@1@@std@@UAE@XZ)
                      65. 0F BC44 004B 0000:??1?$pair@std@_OHVlocale@1@@std@@QAE@XZ
                      66. 26 C1D6 007D 0000:??1?$basic_string@std@_YV?$char_traits@std@_Y@1@V?$allocator@std@_Y@1@@std@@QAE@XZ
                      67. 0E C984 005F 0000:??1strstreambase@@MAE@XZ (0024: E5) (REF 000D: ??1strstreambase@@MAE@XZ)
                      68. 0E C984 005F 0000:??1fstreambase@@UAE@XZ (0024: E5) (REF 000D: ??1fstreambase@@UAE@XZ)
                      69. 0E C984 005C 0000:??1ostream_withassign@@UAE@XZ (0024: B8) (REF 000D: ??1ostream_withassign@@UAE@XZ)
                      70. 0E C984 005C 0000:??1istream_withassign@@UAE@XZ (0024: B8) (REF 000D: ??1istream_withassign@@UAE@XZ)
                      71. 0C CCF6 0048 0000:??1?$vector@std@DV?$allocator@std@D@1@@std@@QAE@XZ (REF 000D: ??1?$vector@std@DV?$allocator@std@D@1@@std@@QAE@XZ)
                      72. 0C CCF6 0048 0000:??1?$vector@std@_YV?$allocator@std@_Y@1@@std@@QAE@XZ (REF 000D: ??1?$vector@std@_YV?$allocator@std@_Y@1@@std@@QAE@XZ)
                      73. 0C CCF6 0048 0000:??1?$vector@std@PAXV?$allocator@std@PAX@1@@std@@QAE@XZ (REF 000D: ??1?$vector@std@PAXV?$allocator@std@PAX@1@@std@@QAE@XZ)
                      74. 0A D53A 0063 0000:??1iostream_withassign@@UAE@XZ
                      75. 15 E3F6 006C 0000:??1?$_Vector_base@std@DV?$allocator@std@D@1@@std@@QAE@XZ
                      76. 0D E642 0067 0000:??1stdiostream@@UAE@XZ (0014: 45)
                      77. 0D E642 005F 0000:??1?$basic_streambuf@std@_YV?$char_traits@std@_Y@1@@std@@UAE@XZ (0014: 1C)
                      78. 0D E642 005F 0000:??1?$basic_streambuf@std@DV?$char_traits@std@D@1@@std@@UAE@XZ (0014: 4C)
                      79. 18 F2B8 006F 0000:??1?$_String_base@std@_YV?$allocator@std@_Y@1@@std@@QAE@XZ
                  E8:
                    0. 00 0000 0058 0000:??_D?$basic_ostream@std@_YV?$char_traits@std@_Y@1@@std@@UAEXXZ (0007: 08) (REF 000D: ??_D?$basic_ostream@std@_YV?$char_traits@std@_Y@1@@std@@UAEXXZ)
                    1. 00 0000 0058 0000:??_D?$basic_ostream@std@DV?$char_traits@std@D@1@@std@@UAEXXZ (0007: 08) (REF 000D: ??_D?$basic_ostream@std@DV?$char_traits@std@D@1@@std@@UAEXXZ)
                    2. 00 0000 0058 0000:??_D?$basic_iostream@std@DV?$char_traits@std@D@1@@std@@UAEXXZ (0007: 18) (REF 000D: ??_D?$basic_iostream@std@DV?$char_traits@std@D@1@@std@@UAEXXZ)
                    3. 00 0000 0058 0000:??_D?$basic_iostream@std@_YV?$char_traits@std@_Y@1@@std@@UAEXXZ (0007: 18) (REF 000D: ??_D?$basic_iostream@std@_YV?$char_traits@std@_Y@1@@std@@UAEXXZ)
                    4. 00 0000 0058 0000:??_D?$basic_istringstream@std@_YV?$char_traits@std@_Y@1@V?$allocator@std@_Y@1@@std@@UAEXXZ (0007: 50) (REF 000D: ??_D?$basic_istringstream@std@_YV?$char_traits@std@_Y@1@V?$allocator@std@_Y@1@@std@@UAEXXZ)
                    5. 00 0000 0058 0000:??_D?$basic_ostringstream@std@_YV?$char_traits@std@_Y@1@V?$allocator@std@_Y@1@@std@@UAEXXZ (0007: 50) (REF 000D: ??_D?$basic_ostringstream@std@_YV?$char_traits@std@_Y@1@V?$allocator@std@_Y@1@@std@@UAEXXZ)
                    6. 00 0000 0058 0000:??_D?$basic_stringstream@std@_YV?$char_traits@std@_Y@1@V?$allocator@std@_Y@1@@std@@UAEXXZ (0007: 60)
                    7. 00 0000 0058 0000:??_Dostrstream@std@@UAEXXZ (0007: 68)
                    8. 00 0000 0058 0000:??_Distrstream@std@@UAEXXZ (0007: 70)
                    9. 00 0000 0058 0000:??_D?$basic_istringstream@std@DV?$char_traits@std@D@1@V?$allocator@std@D@1@@std@@UAEXXZ (0007: 78) (REF 000D: ??_D?$basic_istringstream@std@DV?$char_traits@std@D@1@V?$allocator@std@D@1@@std@@UAEXXZ)
                    10. 00 0000 0058 0000:??_Dstrstream@std@@UAEXXZ (0007: 78) (REF 000D: ??_Dstrstream@std@@UAEXXZ)
                    11. 00 0000 0058 0000:??_D?$basic_ostringstream@std@DV?$char_traits@std@D@1@V?$allocator@std@D@1@@std@@UAEXXZ (0007: 78) (REF 000D: ??_D?$basic_ostringstream@std@DV?$char_traits@std@D@1@V?$allocator@std@D@1@@std@@UAEXXZ)
                    12. 00 0000 005B 0000:??_D?$basic_stringstream@std@DV?$char_traits@std@D@1@V?$allocator@std@D@1@@std@@UAEXXZ (0007: 88)
                    13. 00 0000 0058 0000:??0?$basic_ios@std@_YV?$char_traits@std@_Y@1@@std@@IAE@XZ (0007: 00) (REF 000D: ??0?$basic_ios@std@_YV?$char_traits@std@_Y@1@@std@@IAE@XZ)
                    14. 00 0000 0056 0000:??0?$basic_ios@std@DV?$char_traits@std@D@1@@std@@IAE@XZ (0007: 00) (REF 000D: ??0?$basic_ios@std@DV?$char_traits@std@D@1@@std@@IAE@XZ)
                    15. 00 0000 0061 0000:??0strstreambuf@@QAE@XZ (0007: 00) (REF 000D: ??0strstreambuf@@QAE@XZ)
                    16. 00 0000 004A 0000:??0bad_alloc@std@@QAE@XZ (0007: 00) (REF 000D: ??0bad_alloc@std@@QAE@XZ)
                    17. 00 0000 004A 0000:??0bad_cast@std@@QAE@XZ (0007: 00) (REF 000D: ??0bad_cast@std@@QAE@XZ)
                    18. 00 0000 0071 0000:??0?$basic_stringbuf@std@_YV?$char_traits@std@_Y@1@V?$allocator@std@_Y@1@@std@@QAE@ABV?$basic_string@std@_YV?$char_traits@std@_Y@1@V?$allocator@std@_Y@1@@1@H@Z (0007: 00) (REF 000D: ??0?$basic_stringbuf@std@_YV?$char_traits@std@_Y@1@V?$allocator@std@_Y@1@@std@@QAE@ABV?$basic_string@std@_YV?$char_traits@std@_Y@1@V?$allocator@std@_Y@1@@1@H@Z)
                53:
                  5657FF:
                    0. 05 D9AD 006F 0000:??$_Construct@std@U?$pair@std@QBDU?$pair@std@PAXI@1@@1@0@std@@YAXPAU?$pair@std@QBDU?$pair@std@PAXI@1@@1@ABU21@@Z
                  803D:
                    0. 00 0000 0245 0000:___SD?%numpunct_cpp3259594164_
                  89CB8B:
                    0. 0F BD45 0063 0000:?pubimbue@?$basic_streambuf@std@_YV?$char_traits@std@_Y@1@@std@@QAE?AVlocale@2@ABV32@@Z
                    1. 0F DC05 0063 0000:?pubimbue@?$basic_streambuf@std@DV?$char_traits@std@D@1@@std@@QAE?AVlocale@2@ABV32@@Z
                  FF7508:
                    0. 03 7D15 0075 0000:??$_Construct@std@U?$pair@std@_OHVlocale@1@@1@0@std@@YAXPAU?$pair@std@_OHVlocale@1@@1@ABU21@@Z
                81EC:
                  18:
                    01:
                      0. 09 8A68 0128 0000:?__stl_throw_range_error@std@@YAXPBD@Z (00D7: 00) (REF 000D: ?__stl_throw_range_error@std@@YAXPBD@Z)
                      1. 09 8A68 0128 0000:?__stl_throw_invalid_argument@std@@YAXPBD@Z (00D7: 00) (REF 000D: ?__stl_throw_invalid_argument@std@@YAXPBD@Z)
                      2. 09 8A68 0128 0000:?__stl_throw_length_error@std@@YAXPBD@Z (00D7: 00) (REF 000D: ?__stl_throw_length_error@std@@YAXPBD@Z)
                      3. 09 8A68 0128 0000:?__stl_throw_out_of_range@std@@YAXPBD@Z (00D7: 00) (REF 000D: ?__stl_throw_out_of_range@std@@YAXPBD@Z)
                      4. 09 8A68 0128 0000:?__stl_throw_overflow_error@std@@YAXPBD@Z (00D7: 00) (REF 000D: ?__stl_throw_overflow_error@std@@YAXPBD@Z)
                      5. 09 8A68 0105 0000:?__stl_throw_invalid_argument@std@@YAXPBD@Z (00D7: E9) (REF 000D: ?__stl_throw_invalid_argument@std@@YAXPBD@Z)
                      6. 09 8A68 0105 0000:?__stl_throw_length_error@std@@YAXPBD@Z (00D7: E9) (REF 000D: ?__stl_throw_length_error@std@@YAXPBD@Z)
                      7. 09 8A68 0105 0000:?__stl_throw_out_of_range@std@@YAXPBD@Z (00D7: E9) (REF 000D: ?__stl_throw_out_of_range@std@@YAXPBD@Z)
                      8. 09 8A68 0105 0000:?__stl_throw_range_error@std@@YAXPBD@Z (00D7: E9) (REF 000D: ?__stl_throw_range_error@std@@YAXPBD@Z)
                      9. 09 8A68 0105 0000:?__stl_throw_overflow_error@std@@YAXPBD@Z (00D7: E9) (REF 000D: ?__stl_throw_overflow_error@std@@YAXPBD@Z)
                    02:
                      0. 0B 6CC0 016D 0000:?_M_throw_runtime_error@locale@std@@SAXPBD@Z
                  1C:
                    01:
                      0. 0F 33FB 0198 0000:?insert_messages_facets@_Locale@std@@QAEXPBD@Z (0164: E9) (REF 000D: ?insert_messages_facets@_Locale@std@@QAEXPBD@Z)
                      1. 0F 33FB 0198 0000:?insert_collate_facets@_Locale@std@@QAEXPBD@Z (0164: E9) (REF 000D: ?insert_collate_facets@_Locale@std@@QAEXPBD@Z)
                      2. 0F 33FB 01A5 0000:?insert_collate_facets@_Locale@std@@QAEXPBD@Z (0164: 5E) (REF 000D: ?insert_collate_facets@_Locale@std@@QAEXPBD@Z)
                      3. 0F 33FB 01A5 0000:?insert_messages_facets@_Locale@std@@QAEXPBD@Z (0164: 5E) (REF 000D: ?insert_messages_facets@_Locale@std@@QAEXPBD@Z)
                      4. 09 8A68 00EC 0000:?_M_throw_failure@ios_base@std@@IAEXXZ
                    02:
                      0. 0C F156 0152 0000:?_M_throw_runtime_error@locale@std@@SAXPBD@Z
                  2801:
                    0. 09 9C09 00DF (l)0000:?__release_category@std@@YAXPAXP6AX0@ZP6APADPBXPAD@ZPAV?$hash_map@std@PBDU?$pair@std@PAXI@1@U?$hash@std@PBD@1@U__eqstr@1@V?$allocator@std@U?$pair@std@PBDU?$pair@std@PAXI@1@@1@@1@@1@@Z
                  2C01:
                    0. 0F 734F 03BB 0000:?insert_numeric_facets@_Locale@std@@QAEXPBD@Z (0387: E9)
                    1. 0F 734F 03E8 0000:?insert_numeric_facets@_Locale@std@@QAEXPBD@Z (0387: 35)
                    2. 0F 734F 023E 0000:?insert_ctype_facets@_Locale@std@@QAEXPBD@Z (020A: E9)
                    3. 0F 734F 025B 0000:?insert_ctype_facets@_Locale@std@@QAEXPBD@Z (020A: D4)
                  3001:
                    0. 09 9C09 00F3 (l)0000:?__release_category@std@@YAXPAXP6AX0@ZP6APADPBXPAD@ZPAV?$hash_map@std@PBDU?$pair@std@PAXI@1@U?$hash@std@PBD@1@U__eqstr@1@V?$allocator@std@U?$pair@std@PBDU?$pair@std@PAXI@1@@1@@1@@1@@Z
                  3C01:
                    0. 0F 805A 07BE 0000:?insert_time_facets@_Locale@std@@QAEXPBD@Z (078A: E9)
                    1. 0F 805A 07DB 0000:?insert_time_facets@_Locale@std@@QAEXPBD@Z (078A: FF)
                    2. 0F 805A 049D 0000:?insert_monetary_facets@_Locale@std@@QAEXPBD@Z (0469: E9)
                    3. 0F 805A 04DA 0000:?insert_monetary_facets@_Locale@std@@QAEXPBD@Z (0469: FF)
                  5001:
                    0. 24 567F 024D (l)0000:?__acquire_category@std@@YAPAXPBDP6APAX0@ZP6APBDPAD@ZPAPAV?$hash_map@std@PBDU?$pair@std@PAXI@1@U?$hash@std@PBD@1@U__eqstr@1@V?$allocator@std@U?$pair@std@PBDU?$pair@std@PAXI@1@@1@@1@@1@@Z
                  5801:
                    0. 21 2472 0277 (l)0000:?__acquire_category@std@@YAPAXPBDP6APAX0@ZP6APBDPAD@ZPAPAV?$hash_map@std@PBDU?$pair@std@PAXI@1@U?$hash@std@PBD@1@U__eqstr@1@V?$allocator@std@U?$pair@std@PBDU?$pair@std@PAXI@1@@1@@1@@1@@Z
                  9000:
                    0. 48 9F60 0582 0000:?seekoff@?$basic_filebuf@std@DV?$char_traits@std@D@1@@std@@MAE?AV?$fpos@std@U__stl_mbstate_t@@@2@JHH@Z
                  9800:
                    0. 48 3C38 0567 0000:?seekoff@?$basic_filebuf@std@_YV?$char_traits@std@_Y@1@@std@@MAE?AV?$fpos@std@U__stl_mbstate_t@@@2@JHH@Z
                  9C00:
                    0. 16 265D 015C 0000:??$__put_integer@std@V?$ostreambuf_iterator@std@_YV?$char_traits@std@_Y@1@@1@@std@@YA?AV?$ostreambuf_iterator@std@_YV?$char_traits@std@_Y@1@@1@PAD0V21@AAVios_base@1@H_Y@Z
                    1. 18 F48E 0100 0000:?do_put@?$money_put@std@_YV?$ostreambuf_iterator@std@_YV?$char_traits@std@_Y@1@@1@@std@@MBE?AV?$ostreambuf_iterator@std@_YV?$char_traits@std@_Y@1@@2@V32@_NAAVios_base@2@_Y_Z@Z (00A0: 54)
                    2. 18 F48E 00DD 0000:?do_put@?$money_put@std@_YV?$ostreambuf_iterator@std@_YV?$char_traits@std@_Y@1@@1@@std@@MBE?AV?$ostreambuf_iterator@std@_YV?$char_traits@std@_Y@1@@2@V32@_NAAVios_base@2@_Y_Z@Z (00A0: E9)
                  A400:
                    0. 16 2368 0160 0000:??$__put_integer@std@V?$ostreambuf_iterator@std@_YV?$char_traits@std@_Y@1@@1@@std@@YA?AV?$ostreambuf_iterator@std@_YV?$char_traits@std@_Y@1@@1@PAD0V21@AAVios_base@1@H_Y@Z
                    1. 16 95FF 015A 0000:??$__put_integer@std@PA_Y@std@@YAPA_YPAD0PA_YAAVios_base@1@H_Y@Z
                  A800:
                    0. 1F 66DB 0EBE 0000:?do_get@?$money_get@std@_YPB_Y@std@@MBEPB_YPB_Y0_NAAVios_base@2@AAHAAV?$basic_string@std@_YV?$char_traits@std@_Y@1@V?$allocator@std@_Y@1@@2@@Z (0D9F: 00)
                    1. 1F 66DB 0DE3 0000:?do_get@?$money_get@std@DPBD@std@@MBEPBDPBD0_NAAVios_base@2@AAHAAV?$basic_string@std@DV?$char_traits@std@D@1@V?$allocator@std@D@1@@2@@Z (0D9F: E9)
                    2. 1F F425 0A9C 0000:?do_get@?$money_get@std@_YPB_Y@std@@MBEPB_YPB_Y0_NAAVios_base@2@AAHAAV?$basic_string@std@_YV?$char_traits@std@_Y@1@V?$allocator@std@_Y@1@@2@@Z (097A: 6A)
                    3. 1F F425 09BE 0000:?do_get@?$money_get@std@DPBD@std@@MBEPBDPBD0_NAAVios_base@2@AAHAAV?$basic_string@std@DV?$char_traits@std@D@1@V?$allocator@std@D@1@@2@@Z (097A: E9)
                85C95389:
                  0. 26 CE92 0092 0000:??_G?$basic_string@std@DV?$char_traits@std@D@1@V?$allocator@std@D@1@@std@@QAEPAXI@Z
                8B:
                  410453:
                    0. 0D 4C2F 007B 0000:??_D?$basic_istream@std@_YV?$char_traits@std@_Y@1@@std@@UAEXXZ (REF 000D: ??_D?$basic_istream@std@_YV?$char_traits@std@_Y@1@@std@@UAEXXZ)
                    1. 0D 4C2F 007B 0000:??_D?$basic_istream@std@DV?$char_traits@std@D@1@@std@@UAEXXZ (REF 000D: ??_D?$basic_istream@std@DV?$char_traits@std@D@1@@std@@UAEXXZ)
                  45:
                    0853:
                      0. 21 E3C3 00BE 0000:??0RTLMultiPool@@QAE@II@Z
                    F464:
                      0. 01 E967 0033 0000:??_Q@YAXPAX0@Z (REF 000D: ??_Q@YAXPAX0@Z)
                      1. 01 E967 0033 0000:??3@YAXPAX0@Z (REF 000D: ??3@YAXPAX0@Z)
                  4D:
                    0853:
                      0. 01 3E9B 0057 0000:??0Type_info@@AAA@ABV0@@Z
                    F464:
                      0. 02 768F 0037 0000:??_P@YAPAXIPAX@Z (REF 000D: ??_P@YAPAXIPAX@Z)
                      1. 02 768F 0037 0000:??2@YAPAXIPAX@Z (REF 000D: ??2@YAPAXIPAX@Z)
                  550853:
                    0. 16 7245 0089 0000:??0?$ctype@std@D@std@@QAE@PBW4mask@ctype_base@1@_NI@Z
                8D5104C7:
                  0. 0B CD2E 0062 0000:??0?$messages@std@D@std@@QAE@PAV_Messages@1@@Z (REF 000D: ??0?$messages@std@D@std@@QAE@PAV_Messages@1@@Z)
                  1. 0B CD2E 0062 0000:??0?$messages@std@_Y@std@@QAE@PAV_Messages@1@@Z (REF 000D: ??0?$messages@std@_Y@std@@QAE@PAV_Messages@1@@Z)
                  2. 11 DE1F 0072 0000:??0?$codecvt_byname@std@DDU__stl_mbstate_t@@@std@@QAE@PBDI@Z
                C7:
                  01:
                    0. 00 0000 003A 0000:??1exception@std@@UAE@XZ
                  45FC00:
                    0. 08 4A77 0054 0000:??1Type_info@@UAA@XZ
                    1. 10 747D 0042 0000:??1?$_STLP_alloc_proxy@std@PA_Y_YV?$allocator@std@_Y@1@@std@@QAE@XZ (REF 000D: ??1?$_STLP_alloc_proxy@std@PA_Y_YV?$allocator@std@_Y@1@@std@@QAE@XZ)
                    2. 10 747D 0042 0000:??1?$_STLP_alloc_proxy@std@PAPAXPAXV?$allocator@std@PAX@1@@std@@QAE@XZ (REF 000D: ??1?$_STLP_alloc_proxy@std@PAPAXPAXV?$allocator@std@PAX@1@@std@@QAE@XZ)
                    3. 10 747D 0042 0000:??1?$_STLP_alloc_proxy@std@IU?$_Hashtable_node@std@U?$pair@std@_OHVlocale@1@@1@@1@V?$allocator@std@U?$_Hashtable_node@std@U?$pair@std@_OHVlocale@1@@1@@1@@1@@std@@QAE@XZ (REF 000D: ??1?$_STLP_alloc_proxy@std@IU?$_Hashtable_node@std@U?$pair@std@_OHVlocale@1@@1@@1@V?$allocator@std@U?$_Hashtable_node@std@U?$pair@std@_OHVlocale@1@@1@@1@@1@@std@@QAE@XZ)
                    4. 10 747D 0042 0000:??1?$_STLP_alloc_proxy@std@IU?$_Hashtable_node@std@U?$pair@std@QBDU?$pair@std@PAXI@1@@1@@1@V?$allocator@std@U?$_Hashtable_node@std@U?$pair@std@QBDU?$pair@std@PAXI@1@@1@@1@@1@@std@@QAE@XZ (REF 000D: ??1?$_STLP_alloc_proxy@std@IU?$_Hashtable_node@std@U?$pair@std@QBDU?$pair@std@PAXI@1@@1@@1@V?$allocator@std@U?$_Hashtable_node@std@U?$pair@std@QBDU?$pair@std@PAXI@1@@1@@1@@1@@std@@QAE@XZ)
                    5. 10 747D 0042 0000:??1?$_STLP_alloc_proxy@std@PADDV?$allocator@std@D@1@@std@@QAE@XZ (REF 000D: ??1?$_STLP_alloc_proxy@std@PADDV?$allocator@std@D@1@@std@@QAE@XZ)
                FF7508E8:
                  0. 00 0000 003F 0000:?set_terminate@std@@YAP6AXXZP6AXXZ@Z (REF 000D: ?set_terminate@std@@YAP6AXXZP6AXXZ@Z)
                  1. 00 0000 003F 0000:?set_new_handler@std@@YAP6AXXZP6AXXZ@Z (REF 000D: ?set_new_handler@std@@YAP6AXXZP6AXXZ@Z)
                  2. 00 0000 003F 0000:?set_unexpected@std@@YAP6AXXZP6AXXZ@Z (REF 000D: ?set_unexpected@std@@YAP6AXXZP6AXXZ@Z)
              10:
                53:
                  56:
                    57:
                      89:
                        0. 12 5CFD 00E8 0000:??1ios_base@std@@UAE@XZ (0083: 45)
                        1. 12 5CFD 00C1 0000:??1?$basic_stringbuf@std@_YV?$char_traits@std@_Y@1@V?$allocator@std@_Y@1@@std@@UAE@XZ (0083: 5D)
                        2. 12 5CFD 00BA 0000:??1?$basic_stringbuf@std@DV?$char_traits@std@D@1@V?$allocator@std@D@1@@std@@UAE@XZ (0083: E9)
                        3. 0B 9DFD 011A 0000:??0istrstream@std@@QAE@PAD@Z (00E3: 08)
                        4. 0B 9DFD 0118 0000:??0istrstream@std@@QAE@PBD@Z (00E3: B8)
                      C7:
                        0. 08 03C1 00A1 0000:??1_Locale_impl@std@@UAE@XZ
                    894D:
                      0. 0A 09EF 00DA 0000:??0?$basic_ostringstream@std@_YV?$char_traits@std@_Y@1@V?$allocator@std@_Y@1@@std@@QAE@ABV?$basic_string@std@_YV?$char_traits@std@_Y@1@V?$allocator@std@_Y@1@@1@H@Z (0006: 50)
                      1. 0A 09EF 0120 0000:??0?$basic_istringstream@std@_YV?$char_traits@std@_Y@1@V?$allocator@std@_Y@1@@std@@QAE@ABV?$basic_string@std@_YV?$char_traits@std@_Y@1@V?$allocator@std@_Y@1@@1@H@Z (0006: 50)
                      2. 0A 09EF 011C 0000:??0istrstream@std@@QAE@PADH@Z (00A6: C7)
                      3. 0A 09EF 011A 0000:??0istrstream@std@@QAE@PBDH@Z (00A6: 1A)
                      4. 0A 09EF 00DA 0000:??0?$basic_ostringstream@std@DV?$char_traits@std@D@1@V?$allocator@std@D@1@@std@@QAE@ABV?$basic_string@std@DV?$char_traits@std@D@1@V?$allocator@std@D@1@@1@H@Z (0006: 78)
                      5. 0A 09EF 0120 0000:??0?$basic_istringstream@std@DV?$char_traits@std@D@1@V?$allocator@std@D@1@@std@@QAE@ABV?$basic_string@std@DV?$char_traits@std@D@1@V?$allocator@std@D@1@@1@H@Z (0006: 78)
                      6. 0A 1C2F 00E5 0000:??0?$basic_stringstream@std@_YV?$char_traits@std@_Y@1@V?$allocator@std@_Y@1@@std@@QAE@ABV?$basic_string@std@_YV?$char_traits@std@_Y@1@V?$allocator@std@_Y@1@@1@H@Z (008F: 04)
                      7. 0A 1C2F 00BE 0000:??0istrstream@@QAE@PADH@Z (008F: E9)
                      8. 0A 2C84 00A7 0000:??0strstreambase@@IAE@XZ (0078: E9) (REF 000D: ??0strstreambase@@IAE@XZ)
                      9. 0A 2C84 00A7 0000:??0fstreambase@@QAE@XZ (0078: E9) (REF 000D: ??0fstreambase@@QAE@XZ)
                      10. 0A 2C84 00D0 0000:??0ostrstream@std@@QAE@XZ (0078: 8B)
                      11. 0A 3944 00AF 0000:??0iostream@@IAE@XZ (0047: 10)
                      12. 0A 3944 00E1 0000:??0strstream@std@@QAE@XZ (0047: C7)
                      13. 0A 3944 00B6 0000:??0ostrstream@@QAE@XZ (0047: 55)
                      14. 0A 3944 00AF 0000:??0ofstream@@QAE@XZ (000D: 50)
                      15. 0A 3944 00AF 0000:??0ifstream@@QAE@XZ (000D: 58)
                      16. 11 4B1A 00DA 0000:??0strstreambuf@std@@QAE@PAEH0@Z (0080: 02) (REF 000D: ??0strstreambuf@std@@QAE@PAEH0@Z)
                      17. 11 4B1A 00DA 0000:??0strstreambuf@std@@QAE@PACH0@Z (0080: 02) (REF 000D: ??0strstreambuf@std@@QAE@PACH0@Z)
                      18. 11 4B1A 00DA 0000:??0strstreambuf@std@@QAE@PADH0@Z (0080: 02) (REF 000D: ??0strstreambuf@std@@QAE@PADH0@Z)
                      19. 11 4B1A 00BD 0000:??0?$basic_stringbuf@std@DV?$char_traits@std@D@1@V?$allocator@std@D@1@@std@@QAE@H@Z (0080: 04)
                      20. 02 5843 00A9 0000:??0filebuf@@QAE@H@Z (006C: 45)
                      21. 02 5843 0098 0000:??0stdiobuf@@QAE@PAU_iobuf@@@Z (006C: B8)
                      22. 0A 61E8 00E8 0000:??0?$basic_stringstream@std@DV?$char_traits@std@D@1@V?$allocator@std@D@1@@std@@QAE@ABV?$basic_string@std@DV?$char_traits@std@D@1@V?$allocator@std@D@1@@1@H@Z
                      23. 16 7819 0096 0000:??0?$messages@std@D@std@@QAE@I@Z (0026: 00)
                      24. 16 7819 0096 0000:??0?$messages@std@_Y@std@@QAE@I@Z (0026: 01)
                      25. 16 93CE 0076 0000:??0?$moneypunct@std@_Y$0@@std@@QAE@I@Z (REF 000D: ??0?$moneypunct@std@_Y$0@@std@@QAE@I@Z)
                      26. 16 93CE 0076 0000:??0?$moneypunct@std@D$00@std@@QAE@I@Z (REF 000D: ??0?$moneypunct@std@D$00@std@@QAE@I@Z)
                      27. 16 93CE 0076 0000:??0?$moneypunct@std@D$0@@std@@QAE@I@Z (REF 000D: ??0?$moneypunct@std@D$0@@std@@QAE@I@Z)
                      28. 16 93CE 0076 0000:??0?$moneypunct@std@_Y$00@std@@QAE@I@Z (REF 000D: ??0?$moneypunct@std@_Y$00@std@@QAE@I@Z)
                      29. 0A A8F1 00C7 0000:??0strstream@@QAE@XZ (0091: 04)
                      30. 0A A8F1 00C0 0000:??0fstream@@QAE@XZ (0091: E9)
                      31. 0A BC36 00C1 0000:??0ostream@@QAE@HPAD@Z
                    8B75:
                      0. 05 4CF4 00A7 0000:??0strstreambuf@@QAE@H@Z
                      1. 25 75B7 00B4 0000:?MoreCore@RTLHeap@@AAEPAVRTLHeapBlock@@I@Z
                      2. 25 A8D7 00B2 0000:?MoreCore@RTLHeap@@AAEPAVRTLHeapBlock@@I@Z
                    C745:
                      0. 44 2682 0095 0000:?do_transform@?$collate@std@_Y@std@@MBE?AV?$basic_string@std@_YV?$char_traits@std@_Y@1@V?$allocator@std@_Y@1@@2@PB_Y0@Z (REF 000D: ?do_transform@?$collate@std@_Y@std@@MBE?AV?$basic_string@std@_YV?$char_traits@std@_Y@1@V?$allocator@std@_Y@1@@2@PB_Y0@Z)
                      1. 44 2682 0095 0000:?do_transform@?$collate@std@D@std@@MBE?AV?$basic_string@std@DV?$char_traits@std@D@1@V?$allocator@std@D@1@@2@PBD0@Z (REF 000D: ?do_transform@?$collate@std@D@std@@MBE?AV?$basic_string@std@DV?$char_traits@std@D@1@V?$allocator@std@D@1@@2@PBD0@Z)
                  89:
                    4DE8:
                      0. 2D 1AC1 0085 0000:??1?$_Vector_base@std@PAXV?$allocator@std@PAX@1@@std@@QAE@XZ
                      1. 01 3E9B 006F 0000:??0strstreambuf@@QAE@P6APAXJ@ZP6AXPAX@Z@Z (0049: E9)
                      2. 01 3E9B 009E 0000:??0_Messages_impl@std@@QAE@_N@Z (0049: E8)
                      3. 01 3E9B 008F 0000:??0_Messages_impl@std@@QAE@_NPAU_Locale_messages@@@Z (0049: 00)
                      4. 0C 62F5 0079 0000:??1strstreambuf@std@@UAE@XZ
                      5. 04 8F42 008A 0000:??0?$moneypunct_byname@std@D$0@@std@@QAE@PBDI@Z (REF 000D: ??0?$moneypunct_byname@std@D$0@@std@@QAE@PBDI@Z)
                      6. 04 8F42 008A 0000:??0?$moneypunct_byname@std@D$00@std@@QAE@PBDI@Z (REF 000D: ??0?$moneypunct_byname@std@D$00@std@@QAE@PBDI@Z)
                      7. 04 8F42 008A 0000:??0?$moneypunct_byname@std@_Y$0@@std@@QAE@PBDI@Z (REF 000D: ??0?$moneypunct_byname@std@_Y$0@@std@@QAE@PBDI@Z)
                      8. 04 8F42 008A 0000:??0?$moneypunct_byname@std@_Y$00@std@@QAE@PBDI@Z (REF 000D: ??0?$moneypunct_byname@std@_Y$00@std@@QAE@PBDI@Z)
                      9. 09 C138 0080 0000:??1_Messages_impl@std@@UAE@XZ
                    CB56:
                      0. 06 3680 0108 0000:?getline@?$basic_istream@std@_YV?$char_traits@std@_Y@1@@std@@QAEAAV12@PA_YH_Y@Z (00DD: E9)
                      1. 06 3680 010D 0000:?get@?$basic_istream@std@DV?$char_traits@std@D@1@@std@@QAEAAV12@PADHD@Z (00DD: B8)
                      2. 06 3680 010E 0000:?getline@?$basic_istream@std@_YV?$char_traits@std@_Y@1@@std@@QAEAAV12@PA_YH_Y@Z (00DD: 00)
                      3. 06 3680 0110 0000:?get@?$basic_istream@std@DV?$char_traits@std@D@1@@std@@QAEAAV12@PADHD@Z (00DD: C2)
                      4. 03 F35B 00D9 0000:?sync@?$basic_istream@std@_YV?$char_traits@std@_Y@1@@std@@QAEHXZ (REF 000D: ?sync@?$basic_istream@std@_YV?$char_traits@std@_Y@1@@std@@QAEHXZ)
                      5. 03 F35B 00D9 0000:?sync@?$basic_istream@std@DV?$char_traits@std@D@1@@std@@QAEHXZ (REF 000D: ?sync@?$basic_istream@std@DV?$char_traits@std@D@1@@std@@QAEHXZ)
                  8B5D08:
                    0. 0E 5800 0124 0000:??0?$basic_iostream@std@_YV?$char_traits@std@_Y@1@@std@@QAE@PAV?$basic_streambuf@std@_YV?$char_traits@std@_Y@1@@1@@Z (REF 000D: ??0?$basic_iostream@std@_YV?$char_traits@std@_Y@1@@std@@QAE@PAV?$basic_streambuf@std@_YV?$char_traits@std@_Y@1@@1@@Z)
                    1. 0E 5800 0124 0000:??0?$basic_iostream@std@DV?$char_traits@std@D@1@@std@@QAE@PAV?$basic_streambuf@std@DV?$char_traits@std@D@1@@1@@Z (REF 000D: ??0?$basic_iostream@std@DV?$char_traits@std@D@1@@std@@QAE@PAV?$basic_streambuf@std@DV?$char_traits@std@D@1@@1@@Z)
                    2. 0E 68AB 00F0 0000:??0ostrstream@std@@QAE@PADHH@Z
                    3. 44 6FA7 008D 0000:?do_transform@?$collate@std@_Y@std@@MBE?AV?$basic_string@std@_YV?$char_traits@std@_Y@1@V?$allocator@std@_Y@1@@2@PB_Y0@Z (REF 000D: ?do_transform@?$collate@std@_Y@std@@MBE?AV?$basic_string@std@_YV?$char_traits@std@_Y@1@V?$allocator@std@_Y@1@@2@PB_Y0@Z)
                    4. 44 6FA7 008D 0000:?do_transform@?$collate@std@D@std@@MBE?AV?$basic_string@std@DV?$char_traits@std@D@1@V?$allocator@std@D@1@@2@PBD0@Z (REF 000D: ?do_transform@?$collate@std@D@std@@MBE?AV?$basic_string@std@DV?$char_traits@std@D@1@V?$allocator@std@D@1@@2@PBD0@Z)
                    5. 34 7271 0085 0000:??0?$basic_string@std@DV?$char_traits@std@D@1@V?$allocator@std@D@1@@std@@QAE@PBDABV?$allocator@std@D@1@@Z (0027: B8)
                    6. 34 7271 0086 0000:??0?$basic_string@std@_YV?$char_traits@std@_Y@1@V?$allocator@std@_Y@1@@std@@QAE@PB_YABV?$allocator@std@_Y@1@@Z (0027: 00)
                    7. 0E 7D6B 0101 0000:??0strstream@std@@QAE@PADHH@Z (00AA: 8D)
                    8. 0E 7D6B 00E2 0000:??0ostrstream@@QAE@PADHH@Z (00AA: B8)
                    9. 12 8042 00AD 0000:??0locale@std@@QAE@PAV_Locale_impl@1@_N@Z
                    10. 0E ECDE 00F3 0000:??0strstream@@QAE@PADHH@Z
                5657894D:
                  0. 05 8067 0065 0000:??0__Named_exception@std@@QAE@ABV01@@Z
                6A:
                  00894D:
                    0. 05 8067 005B 0000:??0stdio_streambuf_base@_SgI@@QAE@PAU_iobuf@@@Z
                  18E8:
                    0. 00 0000 0062 0000:_RTLPoolCreate
                894D:
                  E48D:
                    0. 11 BD93 0061 0000:??0_Locale_impl@std@@QAE@PBD@Z (002B: E9)
                    1. 11 BD93 0068 0000:??0_Locale_impl@std@@QAE@PBD@Z (002B: 04)
                  E8:
                    E8:
                      0. 00 0000 0069 0000:??0?$basic_ios@std@_YV?$char_traits@std@_Y@1@@std@@QAE@PAV?$basic_streambuf@std@_YV?$char_traits@std@_Y@1@@1@@Z (0024: FF)
                      1. 00 0000 0067 0000:??0?$basic_ios@std@DV?$char_traits@std@D@1@@std@@QAE@PAV?$basic_streambuf@std@DV?$char_traits@std@D@1@@1@@Z (0024: 08)
                      2. 00 0000 0061 0000:??0strstreambuf@@QAE@PADH0@Z (0024: 8B)
                      3. 00 0000 0072 0000:??0filebuf@@QAE@HPADH@Z (0024: 89)
                      4. 00 0000 004E 0000:??0bad_alloc@std@@QAE@ABV01@@Z (0024: B8) (REF 000D: ??0bad_alloc@std@@QAE@ABV01@@Z)
                      5. 00 0000 004E 0000:??0bad_cast@std@@QAE@ABV01@@Z (0024: B8) (REF 000D: ??0bad_cast@std@@QAE@ABV01@@Z)
                      6. 00 0000 0068 0000:??0?$basic_stringbuf@std@_YV?$char_traits@std@_Y@1@V?$allocator@std@_Y@1@@std@@QAE@H@Z (0024: 55)
                    FF:
                      0. 03 2FDA 0051 0000:??0range_error@std@@QAE@ABV01@@Z (REF 000D: ??0range_error@std@@QAE@ABV01@@Z)
                      1. 03 2FDA 0051 0000:??0runtime_error@std@@QAE@ABV01@@Z (REF 000D: ??0runtime_error@std@@QAE@ABV01@@Z)
                      2. 03 2FDA 0051 0000:??0out_of_range@std@@QAE@ABV01@@Z (REF 000D: ??0out_of_range@std@@QAE@ABV01@@Z)
                      3. 03 2FDA 0051 0000:??0logic_error@std@@QAE@ABV01@@Z (REF 000D: ??0logic_error@std@@QAE@ABV01@@Z)
                      4. 03 2FDA 0051 0000:??0length_error@std@@QAE@ABV01@@Z (REF 000D: ??0length_error@std@@QAE@ABV01@@Z)
                      5. 03 2FDA 0051 0000:??0invalid_argument@std@@QAE@ABV01@@Z (REF 000D: ??0invalid_argument@std@@QAE@ABV01@@Z)
                      6. 03 2FDA 0051 0000:??0overflow_error@std@@QAE@ABV01@@Z (REF 000D: ??0overflow_error@std@@QAE@ABV01@@Z)
                      7. 03 2FDA 0051 0000:??0failure@ios_base@std@@QAE@ABV?$basic_string@std@DV?$char_traits@std@D@1@V?$allocator@std@D@1@@2@@Z (REF 000D: ??0failure@ios_base@std@@QAE@ABV?$basic_string@std@DV?$char_traits@std@D@1@V?$allocator@std@D@1@@2@@Z)
                      8. 03 2FDA 0051 0000:??0failure@ios_base@std@@QAE@ABV012@@Z (REF 000D: ??0failure@ios_base@std@@QAE@ABV012@@Z)
                8B:
                  45:
                    0853:
                      0. 09 305D 0084 (l)0000:?_Stl_loc_get_index@std@@YAIAAVid@locale@1@@Z
                      1. 0C 7886 006D 0000:??0_Locale_impl@std@@QAE@ABV01@@Z
                      2. 07 79E2 0080 (l)0000:?_Stl_loc_get_index@std@@YAIAAVid@locale@1@@Z
                      3. 22 7F58 00D4 0000:??0RTLMultiPool@@QAE@II@Z
                    1453:
                      0. 0D A687 00DA 0000:?do_put@?$num_put@std@DV?$ostreambuf_iterator@std@DV?$char_traits@std@D@1@@1@@std@@MBE?AV?$ostreambuf_iterator@std@DV?$char_traits@std@D@1@@2@V32@AAVios_base@2@DPBX@Z
                  4D0853:
                    0. 0A D985 0081 0000:?_M_allocate@?$__node_alloc@std@$0@$0@@std@@CAPAXI@Z (REF 000D: ?_M_allocate@?$__node_alloc@std@$0@$0@@std@@CAPAXI@Z)
                    1. 0A D985 0081 0000:?_M_allocate@?$__node_alloc@std@$00$0@@std@@CAPAXI@Z (REF 000D: ?_M_allocate@?$__node_alloc@std@$00$0@@std@@CAPAXI@Z)
                8D45E8C7:
                  0. 0B C96E 0055 0000:?do_grouping@?$moneypunct_byname@std@D$00@std@@MBE?AV?$basic_string@std@DV?$char_traits@std@D@1@V?$allocator@std@D@1@@2@XZ (0025: E9) (REF 000D: ?do_grouping@?$moneypunct_byname@std@D$00@std@@MBE?AV?$basic_string@std@DV?$char_traits@std@D@1@V?$allocator@std@D@1@@2@XZ)
                  1. 0B C96E 0055 0000:?do_grouping@?$moneypunct_byname@std@_Y$00@std@@MBE?AV?$basic_string@std@DV?$char_traits@std@D@1@V?$allocator@std@D@1@@2@XZ (0025: E9) (REF 000D: ?do_grouping@?$moneypunct_byname@std@_Y$00@std@@MBE?AV?$basic_string@std@DV?$char_traits@std@D@1@V?$allocator@std@D@1@@2@XZ)
                  2. 0B C96E 0055 0000:?do_negative_sign@?$moneypunct_byname@std@D$0@@std@@MBE?AV?$basic_string@std@DV?$char_traits@std@D@1@V?$allocator@std@D@1@@2@XZ (0025: E9) (REF 000D: ?do_negative_sign@?$moneypunct_byname@std@D$0@@std@@MBE?AV?$basic_string@std@DV?$char_traits@std@D@1@V?$allocator@std@D@1@@2@XZ)
                  3. 0B C96E 0055 0000:?do_positive_sign@?$moneypunct_byname@std@D$0@@std@@MBE?AV?$basic_string@std@DV?$char_traits@std@D@1@V?$allocator@std@D@1@@2@XZ (0025: E9) (REF 000D: ?do_positive_sign@?$moneypunct_byname@std@D$0@@std@@MBE?AV?$basic_string@std@DV?$char_traits@std@D@1@V?$allocator@std@D@1@@2@XZ)
                  4. 0B C96E 0055 0000:?do_curr_symbol@?$moneypunct_byname@std@D$0@@std@@MBE?AV?$basic_string@std@DV?$char_traits@std@D@1@V?$allocator@std@D@1@@2@XZ (0025: E9) (REF 000D: ?do_curr_symbol@?$moneypunct_byname@std@D$0@@std@@MBE?AV?$basic_string@std@DV?$char_traits@std@D@1@V?$allocator@std@D@1@@2@XZ)
                  5. 0B C96E 0055 0000:?do_grouping@?$moneypunct_byname@std@D$0@@std@@MBE?AV?$basic_string@std@DV?$char_traits@std@D@1@V?$allocator@std@D@1@@2@XZ (0025: E9) (REF 000D: ?do_grouping@?$moneypunct_byname@std@D$0@@std@@MBE?AV?$basic_string@std@DV?$char_traits@std@D@1@V?$allocator@std@D@1@@2@XZ)
                  6. 0B C96E 0055 0000:?do_negative_sign@?$moneypunct_byname@std@D$00@std@@MBE?AV?$basic_string@std@DV?$char_traits@std@D@1@V?$allocator@std@D@1@@2@XZ (0025: E9) (REF 000D: ?do_negative_sign@?$moneypunct_byname@std@D$00@std@@MBE?AV?$basic_string@std@DV?$char_traits@std@D@1@V?$allocator@std@D@1@@2@XZ)
                  7. 0B C96E 0055 0000:?do_positive_sign@?$moneypunct_byname@std@D$00@std@@MBE?AV?$basic_string@std@DV?$char_traits@std@D@1@V?$allocator@std@D@1@@2@XZ (0025: E9) (REF 000D: ?do_positive_sign@?$moneypunct_byname@std@D$00@std@@MBE?AV?$basic_string@std@DV?$char_traits@std@D@1@V?$allocator@std@D@1@@2@XZ)
                  8. 0B C96E 0055 0000:?do_curr_symbol@?$moneypunct_byname@std@D$00@std@@MBE?AV?$basic_string@std@DV?$char_traits@std@D@1@V?$allocator@std@D@1@@2@XZ (0025: E9) (REF 000D: ?do_curr_symbol@?$moneypunct_byname@std@D$00@std@@MBE?AV?$basic_string@std@DV?$char_traits@std@D@1@V?$allocator@std@D@1@@2@XZ)
                  9. 0B C96E 0055 0000:?do_grouping@?$moneypunct_byname@std@_Y$0@@std@@MBE?AV?$basic_string@std@DV?$char_traits@std@D@1@V?$allocator@std@D@1@@2@XZ (0025: E9) (REF 000D: ?do_grouping@?$moneypunct_byname@std@_Y$0@@std@@MBE?AV?$basic_string@std@DV?$char_traits@std@D@1@V?$allocator@std@D@1@@2@XZ)
                  10. 0B C96E 005C 0000:?do_grouping@?$moneypunct_byname@std@_Y$0@@std@@MBE?AV?$basic_string@std@DV?$char_traits@std@D@1@V?$allocator@std@D@1@@2@XZ (0025: 04) (REF 000D: ?do_grouping@?$moneypunct_byname@std@_Y$0@@std@@MBE?AV?$basic_string@std@DV?$char_traits@std@D@1@V?$allocator@std@D@1@@2@XZ)
                  11. 0B C96E 005C 0000:?do_grouping@?$moneypunct_byname@std@_Y$00@std@@MBE?AV?$basic_string@std@DV?$char_traits@std@D@1@V?$allocator@std@D@1@@2@XZ (0025: 04) (REF 000D: ?do_grouping@?$moneypunct_byname@std@_Y$00@std@@MBE?AV?$basic_string@std@DV?$char_traits@std@D@1@V?$allocator@std@D@1@@2@XZ)
                  12. 0B C96E 005C 0000:?do_negative_sign@?$moneypunct_byname@std@D$0@@std@@MBE?AV?$basic_string@std@DV?$char_traits@std@D@1@V?$allocator@std@D@1@@2@XZ (0025: 04) (REF 000D: ?do_negative_sign@?$moneypunct_byname@std@D$0@@std@@MBE?AV?$basic_string@std@DV?$char_traits@std@D@1@V?$allocator@std@D@1@@2@XZ)
                  13. 0B C96E 005C 0000:?do_positive_sign@?$moneypunct_byname@std@D$0@@std@@MBE?AV?$basic_string@std@DV?$char_traits@std@D@1@V?$allocator@std@D@1@@2@XZ (0025: 04) (REF 000D: ?do_positive_sign@?$moneypunct_byname@std@D$0@@std@@MBE?AV?$basic_string@std@DV?$char_traits@std@D@1@V?$allocator@std@D@1@@2@XZ)
                  14. 0B C96E 005C 0000:?do_curr_symbol@?$moneypunct_byname@std@D$0@@std@@MBE?AV?$basic_string@std@DV?$char_traits@std@D@1@V?$allocator@std@D@1@@2@XZ (0025: 04) (REF 000D: ?do_curr_symbol@?$moneypunct_byname@std@D$0@@std@@MBE?AV?$basic_string@std@DV?$char_traits@std@D@1@V?$allocator@std@D@1@@2@XZ)
                  15. 0B C96E 005C 0000:?do_grouping@?$moneypunct_byname@std@D$0@@std@@MBE?AV?$basic_string@std@DV?$char_traits@std@D@1@V?$allocator@std@D@1@@2@XZ (0025: 04) (REF 000D: ?do_grouping@?$moneypunct_byname@std@D$0@@std@@MBE?AV?$basic_string@std@DV?$char_traits@std@D@1@V?$allocator@std@D@1@@2@XZ)
                  16. 0B C96E 005C 0000:?do_negative_sign@?$moneypunct_byname@std@D$00@std@@MBE?AV?$basic_string@std@DV?$char_traits@std@D@1@V?$allocator@std@D@1@@2@XZ (0025: 04) (REF 000D: ?do_negative_sign@?$moneypunct_byname@std@D$00@std@@MBE?AV?$basic_string@std@DV?$char_traits@std@D@1@V?$allocator@std@D@1@@2@XZ)
                  17. 0B C96E 005C 0000:?do_positive_sign@?$moneypunct_byname@std@D$00@std@@MBE?AV?$basic_string@std@DV?$char_traits@std@D@1@V?$allocator@std@D@1@@2@XZ (0025: 04) (REF 000D: ?do_positive_sign@?$moneypunct_byname@std@D$00@std@@MBE?AV?$basic_string@std@DV?$char_traits@std@D@1@V?$allocator@std@D@1@@2@XZ)
                  18. 0B C96E 005C 0000:?do_curr_symbol@?$moneypunct_byname@std@D$00@std@@MBE?AV?$basic_string@std@DV?$char_traits@std@D@1@V?$allocator@std@D@1@@2@XZ (0025: 04) (REF 000D: ?do_curr_symbol@?$moneypunct_byname@std@D$00@std@@MBE?AV?$basic_string@std@DV?$char_traits@std@D@1@V?$allocator@std@D@1@@2@XZ)
                  19. 0B C96E 005C 0000:?do_grouping@?$moneypunct_byname@std@D$00@std@@MBE?AV?$basic_string@std@DV?$char_traits@std@D@1@V?$allocator@std@D@1@@2@XZ (0025: 04) (REF 000D: ?do_grouping@?$moneypunct_byname@std@D$00@std@@MBE?AV?$basic_string@std@DV?$char_traits@std@D@1@V?$allocator@std@D@1@@2@XZ)
                FF7508E8:
                  0. 00 0000 008A 0000:?__stl_new@std@@YAPAXI@Z
              14:
                53:
                  56:
                    5789:
                      0. 14 17DD 0149 0000:?_M_formatted_get@?$basic_istream@std@_YV?$char_traits@std@_Y@1@@std@@QAEXAA_Y@Z
                      1. 05 4B4E 00CF 0000:?_M_new_node@?$hashtable@std@U?$pair@std@QBDU?$pair@std@PAXI@1@@1@PBDU?$hash@std@PBD@1@U?$_Select1st@std@U?$pair@std@QBDU?$pair@std@PAXI@1@@1@@1@U__eqstr@1@V?$allocator@std@U?$pair@std@PBDU?$pair@std@PAXI@1@@1@@1@@std@@AAEPAU?$_Hashtable_node@std@U?$pair@std@QBDU?$pair@std@PAXI@1@@1@@2@ABU?$pair@std@QBDU?$pair@std@PAXI@1@@2@@Z (0071: E8)
                      2. 05 4B4E 00A2 0000:?_M_new_node@?$hashtable@std@U?$pair@std@QBDU?$pair@std@PAXI@1@@1@PBDU?$hash@std@PBD@1@U?$_Select1st@std@U?$pair@std@QBDU?$pair@std@PAXI@1@@1@@1@U__eqstr@1@V?$allocator@std@U?$pair@std@PBDU?$pair@std@PAXI@1@@1@@1@@std@@AAEPAU?$_Hashtable_node@std@U?$pair@std@QBDU?$pair@std@PAXI@1@@1@@2@ABU?$pair@std@QBDU?$pair@std@PAXI@1@@2@@Z (0071: 04)
                      3. 05 7A72 00D7 0000:?_M_new_node@?$hashtable@std@U?$pair@std@_OHVlocale@1@@1@HU?$hash@std@H@1@U?$_Select1st@std@U?$pair@std@_OHVlocale@1@@1@@1@U?$equal_to@std@H@1@V?$allocator@std@U?$pair@std@HVlocale@1@@1@@1@@std@@AAEPAU?$_Hashtable_node@std@U?$pair@std@_OHVlocale@1@@1@@2@ABU?$pair@std@_OHVlocale@1@@2@@Z (0078: E4)
                      4. 05 7A72 00A2 0000:?_M_new_node@?$hashtable@std@U?$pair@std@_OHVlocale@1@@1@HU?$hash@std@H@1@U?$_Select1st@std@U?$pair@std@_OHVlocale@1@@1@@1@U?$equal_to@std@H@1@V?$allocator@std@U?$pair@std@HVlocale@1@@1@@1@@std@@AAEPAU?$_Hashtable_node@std@U?$pair@std@_OHVlocale@1@@1@@2@ABU?$pair@std@_OHVlocale@1@@2@@Z (0078: E9)
                    6683:
                      0. 01 1E1A 01BB 0000:?sync_with_stdio@ios@@SAXXZ
                    894D:
                      0. 16 3FB0 011A 0000:??0?$numpunct_byname@std@_Y@std@@QAE@PBDI@Z
                      1. 11 4B1A 00D9 0000:??0strstreambuf@std@@QAE@PBCH@Z (REF 000D: ??0strstreambuf@std@@QAE@PBCH@Z)
                      2. 11 4B1A 00D9 0000:??0strstreambuf@std@@QAE@PBDH@Z (REF 000D: ??0strstreambuf@std@@QAE@PBDH@Z)
                      3. 11 4B1A 00D9 0000:??0strstreambuf@std@@QAE@PBEH@Z (REF 000D: ??0strstreambuf@std@@QAE@PBEH@Z)
                      4. 16 7819 0099 0000:??0?$messages@std@D@std@@IAE@IPAU_Locale_messages@@@Z (0029: 00)
                      5. 16 7819 0099 0000:??0?$messages@std@_Y@std@@IAE@IPAU_Locale_messages@@@Z (0029: 01)
                      6. 3A 84E7 00A7 0000:??0?$basic_string@std@DV?$char_traits@std@D@1@V?$allocator@std@D@1@@std@@QAE@XZ
                      7. 3A 9F2A 00A7 0000:??0?$basic_string@std@DV?$char_traits@std@D@1@V?$allocator@std@D@1@@std@@QAE@XZ
                      8. 0A CA59 00D7 0000:??0istream@@QAE@HPADH@Z (00A8: E9)
                      9. 0A CA59 00EB 0000:??0istream@@QAE@HHPAVostream@@@Z (00A8: 64)
                      10. 3A CE71 00A9 0000:??0?$basic_string@std@_YV?$char_traits@std@_Y@1@V?$allocator@std@_Y@1@@std@@QAE@XZ
                      11. 3A D5BC 00A9 0000:??0?$basic_string@std@_YV?$char_traits@std@_Y@1@V?$allocator@std@_Y@1@@std@@QAE@XZ
                      12. 0A EF32 00BB 0000:??0ostream@@QAE@H@Z
                  89:
                    4DE4:
                      0. 3F 3B78 0088 0000:??0?$basic_string@std@_YV?$char_traits@std@_Y@1@V?$allocator@std@_Y@1@@std@@QAE@ABV01@@Z (REF 000D: ??0?$basic_string@std@_YV?$char_traits@std@_Y@1@V?$allocator@std@_Y@1@@std@@QAE@ABV01@@Z)
                      1. 3F 3B78 0088 0000:??0?$basic_string@std@DV?$char_traits@std@D@1@V?$allocator@std@D@1@@std@@QAE@ABV01@@Z (REF 000D: ??0?$basic_string@std@DV?$char_traits@std@D@1@V?$allocator@std@D@1@@std@@QAE@ABV01@@Z)
                    CB56:
                      0. 09 083C 0114 0000:??6?$basic_ostream@std@_YV?$char_traits@std@_Y@1@@std@@QAEAAV01@PAV?$basic_streambuf@std@_YV?$char_traits@std@_Y@1@@1@@Z (00E6: E9)
                      1. 09 083C 011E 0000:??6?$basic_ostream@std@DV?$char_traits@std@D@1@@std@@QAEAAV01@PAV?$basic_streambuf@std@DV?$char_traits@std@D@1@@1@@Z (00E6: E5)
                      2. 1D 7071 010A 0000:??5?$basic_istream@std@_YV?$char_traits@std@_Y@1@@std@@QAEAAV01@PAV?$basic_streambuf@std@_YV?$char_traits@std@_Y@1@@1@@Z (00C8: E9)
                      3. 1D 7071 0114 0000:??5?$basic_istream@std@_YV?$char_traits@std@_Y@1@@std@@QAEAAV01@PAV?$basic_streambuf@std@_YV?$char_traits@std@_Y@1@@1@@Z (00C8: E5)
                      4. 13 BAB1 00A6 0000:??0locale@std@@QAE@PAV_Locale_impl@1@_N@Z
                      5. 07 E58D 00F8 0000:?get@?$basic_istream@std@_YV?$char_traits@std@_Y@1@@std@@QAEAAV12@AAV?$basic_streambuf@std@_YV?$char_traits@std@_Y@1@@2@_Y@Z (00CC: E9)
                      6. 07 E58D 00FE 0000:?get@?$basic_istream@std@_YV?$char_traits@std@_Y@1@@std@@QAEAAV12@AAV?$basic_streambuf@std@_YV?$char_traits@std@_Y@1@@2@_Y@Z (00CC: 00)
                      7. 03 F35B 0101 0000:?get@?$basic_istream@std@DV?$char_traits@std@D@1@@std@@QAEAAV12@AAV?$basic_streambuf@std@DV?$char_traits@std@D@1@@2@D@Z (00D4: B8)
                      8. 03 F35B 0104 0000:?get@?$basic_istream@std@DV?$char_traits@std@D@1@@std@@QAEAAV12@AAV?$basic_streambuf@std@DV?$char_traits@std@D@1@@2@D@Z (00D4: C2)
                      9. 05 F853 00C0 0000:?init@?$basic_ios@std@DV?$char_traits@std@D@1@@std@@IAEXPAV?$basic_streambuf@std@DV?$char_traits@std@D@1@@2@@Z (0091: B8)
                      10. 05 F853 00C1 0000:?init@?$basic_ios@std@_YV?$char_traits@std@_Y@1@@std@@IAEXPAV?$basic_streambuf@std@_YV?$char_traits@std@_Y@1@@2@@Z (0091: 00)
                  8B5D10:
                    0. 1D 6218 00E7 0000:?__vec_new@@YAPAXPAXIHP6CPAXXZP6CHXZ@Z
                    1. 4B 6541 00AB 0000:?__vec_ctor@@YAPAXPAXIHP6CPAXXZP6CHXZ@Z
                6A04FF15:
                  0. 00 0000 007A 0000:?_M_throw_bad_cast@_Locale_impl@std@@SAXXZ
                894DE88B:
                  0. 15 233B 0068 0000:?pubimbue@?$basic_streambuf@std@DV?$char_traits@std@D@1@@std@@QAE?AVlocale@2@ABV32@@Z
                  1. 15 D422 0068 0000:?pubimbue@?$basic_streambuf@std@_YV?$char_traits@std@_Y@1@@std@@QAE?AVlocale@2@ABV32@@Z
                8B:
                  450C53:
                    0. 09 660D 01D5 0000:?compile@RegExp@@QAEHPAD0H@Z
                  550853:
                    0. 5D 38AF 00F5 0000:?erase@?$hashtable@std@U?$pair@std@_OHVlocale@1@@1@HU?$hash@std@H@1@U?$_Select1st@std@U?$pair@std@_OHVlocale@1@@1@@1@U?$equal_to@std@H@1@V?$allocator@std@U?$pair@std@HVlocale@1@@1@@1@@std@@QAEXABU?$_Ht_iterator@std@U?$pair@std@_OHVlocale@1@@1@U?$_Const_traits@std@U?$pair@std@_OHVlocale@1@@1@@1@HU?$hash@std@H@1@U?$_Select1st@std@U?$pair@std@_OHVlocale@1@@1@@1@U?$equal_to@std@H@1@V?$allocator@std@U?$pair@std@HVlocale@1@@1@@1@@2@@Z
                    1. 1B CD80 00B1 0000:?_M_erase_bucket@?$hashtable@std@U?$pair@std@_OHVlocale@1@@1@HU?$hash@std@H@1@U?$_Select1st@std@U?$pair@std@_OHVlocale@1@@1@@1@U?$equal_to@std@H@1@V?$allocator@std@U?$pair@std@HVlocale@1@@1@@1@@std@@AAEX_OIPAU?$_Hashtable_node@std@U?$pair@std@_OHVlocale@1@@1@@2@1@Z
                    2. 66 DC42 010B 0000:?erase@?$hashtable@std@U?$pair@std@_OHVlocale@1@@1@HU?$hash@std@H@1@U?$_Select1st@std@U?$pair@std@_OHVlocale@1@@1@@1@U?$equal_to@std@H@1@V?$allocator@std@U?$pair@std@HVlocale@1@@1@@1@@std@@QAEIABH@Z
                8D45E4C7:
                  0. 07 C862 0074 0000:___SI?%monetary_cpp3202990124_ (0048: E9)
                  1. 07 C862 0082 0000:___SI?%monetary_cpp3130235727_ (0048: A3)
              18:
                53:
                  5657:
                    68:
                      0. 05 5459 00CA 0000:?_Stl_create_wfilebuf@std@@YAPAV?$basic_filebuf@std@_YV?$char_traits@std@_Y@1@@1@PAU_iobuf@@H@Z
                      1. 05 A5D7 00CA 0000:?_Stl_create_filebuf@std@@YAPAV?$basic_filebuf@std@DV?$char_traits@std@D@1@@1@PAU_iobuf@@H@Z
                    89:
                      0. 03 18A2 00E1 0000:??0?$basic_filebuf@std@_YV?$char_traits@std@_Y@1@@std@@QAE@XZ
                      1. 12 1D9F 0179 0000:??0?$basic_filebuf@std@DV?$char_traits@std@D@1@@std@@QAE@XZ
                      2. 04 23EA 014E 0000:?ignore@?$basic_istream@std@_YV?$char_traits@std@_Y@1@@std@@QAEAAV12@XZ
                      3. 04 2EC9 0141 0000:?ignore@?$basic_istream@std@DV?$char_traits@std@D@1@@std@@QAEAAV12@XZ (00AC: FF)
                      4. 04 2EC9 0141 0000:?ignore@?$basic_istream@std@_YV?$char_traits@std@_Y@1@@std@@QAEAAV12@XZ (00AC: FE)
                      5. 0A 47E8 0134 0000:?get@?$basic_istream@std@_YV?$char_traits@std@_Y@1@@std@@QAE_YXZ
                      6. 0B 48DD 0182 0000:?unget@?$basic_istream@std@_YV?$char_traits@std@_Y@1@@std@@QAEAAV12@XZ
                      7. 1E 7E87 013C 0000:??0strstreambuf@std@@QAE@P6APAXI@ZP6AXPAX@Z@Z
                      8. 0B B33C 0133 0000:?get@?$basic_istream@std@DV?$char_traits@std@D@1@@std@@QAEHXZ
                      9. 11 ED1E 010D 0000:?peek@?$basic_istream@std@_YV?$char_traits@std@_Y@1@@std@@QAE_YXZ
                  89CB56:
                    0. 06 3680 0107 0000:?get@?$basic_istream@std@_YV?$char_traits@std@_Y@1@@std@@QAEAAV12@PA_YH_Y@Z (00DC: E9)
                    1. 06 3680 010D 0000:?get@?$basic_istream@std@_YV?$char_traits@std@_Y@1@@std@@QAEAAV12@PA_YH_Y@Z (00DC: 00)
                    2. 06 3680 0110 0000:?getline@?$basic_istream@std@DV?$char_traits@std@D@1@@std@@QAEAAV12@PADHD@Z (00DC: 5D)
                    3. 06 3680 0113 0000:?getline@?$basic_istream@std@DV?$char_traits@std@D@1@@std@@QAEAAV12@PADHD@Z (00DC: 5B)
                    4. 03 F35B 01AA 0000:?readsome@?$basic_istream@std@_YV?$char_traits@std@_Y@1@@std@@QAEHPA_YH@Z (0105: 0C)
                    5. 03 F35B 01B4 0000:?readsome@?$basic_istream@std@_YV?$char_traits@std@_Y@1@@std@@QAEHPA_YH@Z (0105: 8B)
                    6. 03 F35B 0139 0000:?read@?$basic_istream@std@_YV?$char_traits@std@_Y@1@@std@@QAEAAV12@PA_YH@Z (0105: 5B)
                    7. 03 F35B 0140 0000:?read@?$basic_istream@std@DV?$char_traits@std@D@1@@std@@QAEAAV12@PADH@Z (0105: 0D)
                    8. 03 F35B 0143 0000:?read@?$basic_istream@std@_YV?$char_traits@std@_Y@1@@std@@QAEAAV12@PA_YH@Z (0105: C3)
                    9. 03 F35B 014A 0000:?read@?$basic_istream@std@DV?$char_traits@std@D@1@@std@@QAEAAV12@PADH@Z (0105: FF)
                  8B5D:
                    08:
                      0. 61 2FDE 01B7 0000:?_M_copy_buffered@?$basic_ostream@std@_YV?$char_traits@std@_Y@1@@std@@AAE_NPAV?$basic_streambuf@std@_YV?$char_traits@std@_Y@1@@2@0@Z
                    10:
                      0. 5D ECDE 00BD 0000:?__vec_cpct@@YAPAXPAXIHP6CPAXXZP6CHXZ0@Z
                8B:
                  45:
                    0C53:
                      0. 0D ECA7 00DD 0000:?do_put@?$num_put@std@DPAD@std@@MBEPADPADAAVios_base@2@DPBX@Z (0065: 18)
                      1. 0D ECA7 00DD 0000:?do_put@?$num_put@std@_YPA_Y@std@@MBEPA_YPA_YAAVios_base@2@_YPBX@Z (0065: 28)
                    1453:
                      0. 0D A932 00E0 0000:?do_put@?$num_put@std@DV?$ostreambuf_iterator@std@DV?$char_traits@std@D@1@@1@@std@@MBE?AV?$ostreambuf_iterator@std@DV?$char_traits@std@D@1@@2@V32@AAVios_base@2@DPBX@Z (0065: 18)
                      1. 0D A932 00E0 0000:?do_put@?$num_put@std@_YV?$ostreambuf_iterator@std@_YV?$char_traits@std@_Y@1@@1@@std@@MBE?AV?$ostreambuf_iterator@std@_YV?$char_traits@std@_Y@1@@2@V32@AAVios_base@2@_YPBX@Z (0065: 28)
                  550853:
                    0. 3C C9F7 00A3 0000:?_M_erase_bucket@?$hashtable@std@U?$pair@std@_OHVlocale@1@@1@HU?$hash@std@H@1@U?$_Select1st@std@U?$pair@std@_OHVlocale@1@@1@@1@U?$equal_to@std@H@1@V?$allocator@std@U?$pair@std@HVlocale@1@@1@@1@@std@@AAEX_OIPAU?$_Hashtable_node@std@U?$pair@std@_OHVlocale@1@@1@@2@@Z
              1C:
                53:
                  56:
                    5789:
                      0. 0C 0219 00B8 0000:??$_M_allocate_and_copy@?$vector@std@DV?$allocator@std@D@1@@std@PAD@?$vector@std@DV?$allocator@std@D@1@@std@@IAEPADIPAD0@Z (REF 000D: ??$_M_allocate_and_copy@?$vector@std@DV?$allocator@std@D@1@@std@PAD@?$vector@std@DV?$allocator@std@D@1@@std@@IAEPADIPAD0@Z)
                      1. 0C 0219 00B8 0000:??$_M_allocate_and_copy@?$vector@std@DV?$allocator@std@D@1@@std@PBD@?$vector@std@DV?$allocator@std@D@1@@std@@IAEPADIPBD0@Z (REF 000D: ??$_M_allocate_and_copy@?$vector@std@DV?$allocator@std@D@1@@std@PBD@?$vector@std@DV?$allocator@std@D@1@@std@@IAEPADIPBD0@Z)
                      2. 14 06BE 014E 0000:?_M_formatted_get@?$basic_istream@std@DV?$char_traits@std@D@1@@std@@QAEXAAD@Z (0115: E9)
                      3. 14 06BE 0164 0000:?_M_formatted_get@?$basic_istream@std@_YV?$char_traits@std@_Y@1@@std@@QAEXAA_Y@Z (0115: 45)
                      4. 04 23EA 013F 0000:?get@?$basic_istream@std@DV?$char_traits@std@D@1@@std@@QAEAAV12@AAD@Z (0111: B8)
                      5. 04 23EA 0141 0000:?get@?$basic_istream@std@_YV?$char_traits@std@_Y@1@@std@@QAEAAV12@AA_Y@Z (0111: 04)
                      6. 10 83C7 00BC 0000:??$_M_allocate_and_copy@?$vector@std@PAXV?$allocator@std@PAX@1@@std@PBQAX@?$vector@std@PAXV?$allocator@std@PAX@1@@std@@IAEPAPAXIPBQAX0@Z (REF 000D: ??$_M_allocate_and_copy@?$vector@std@PAXV?$allocator@std@PAX@1@@std@PBQAX@?$vector@std@PAXV?$allocator@std@PAX@1@@std@@IAEPAPAXIPBQAX0@Z)
                      7. 10 83C7 00BC 0000:??$_M_allocate_and_copy@?$vector@std@PAXV?$allocator@std@PAX@1@@std@PAPAX@?$vector@std@PAXV?$allocator@std@PAX@1@@std@@IAEPAPAXIPAPAX0@Z (REF 000D: ??$_M_allocate_and_copy@?$vector@std@PAXV?$allocator@std@PAX@1@@std@PAPAX@?$vector@std@PAXV?$allocator@std@PAX@1@@std@@IAEPAPAXIPAPAX0@Z)
                      8. 1E A345 0154 0000:??0strstreambuf@std@@QAE@H@Z (010A: 04)
                      9. 1E A345 0152 0000:??0strstreambuf@std@@QAE@H@Z (010A: B8)
                      10. 06 B791 012F 0000:??0_Locale@std@@QAE@ABV_Locale_impl@1@@Z (0104: E9)
                      11. 06 B791 0136 0000:??0_Locale@std@@QAE@ABV_Locale_impl@1@@Z (0104: 04)
                      12. 0F C373 00BB 0000:??$_M_allocate_and_copy@?$vector@std@_YV?$allocator@std@_Y@1@@std@PA_Y@?$vector@std@_YV?$allocator@std@_Y@1@@std@@IAEPA_YIPA_Y0@Z (REF 000D: ??$_M_allocate_and_copy@?$vector@std@_YV?$allocator@std@_Y@1@@std@PA_Y@?$vector@std@_YV?$allocator@std@_Y@1@@std@@IAEPA_YIPA_Y0@Z)
                      13. 0F C373 00BB 0000:??$_M_allocate_and_copy@?$vector@std@_YV?$allocator@std@_Y@1@@std@PB_Y@?$vector@std@_YV?$allocator@std@_Y@1@@std@@IAEPA_YIPB_Y0@Z (REF 000D: ??$_M_allocate_and_copy@?$vector@std@_YV?$allocator@std@_Y@1@@std@PB_Y@?$vector@std@_YV?$allocator@std@_Y@1@@std@@IAEPA_YIPB_Y0@Z)
                    894D:
                      0. 03 094D 0085 0000:?seekg@?$basic_istream@std@DV?$char_traits@std@D@1@@std@@QAEAAV12@JH@Z (REF 000D: ?seekg@?$basic_istream@std@DV?$char_traits@std@D@1@@std@@QAEAAV12@JH@Z)
                      1. 03 094D 0085 0000:?seekg@?$basic_istream@std@_YV?$char_traits@std@_Y@1@@std@@QAEAAV12@JH@Z (REF 000D: ?seekg@?$basic_istream@std@_YV?$char_traits@std@_Y@1@@std@@QAEAAV12@JH@Z)
                      2. 03 0D44 0202 0000:??0Iostream_init@@QAE@XZ
                    FF75:
                      0. 08 4B12 010B 0000:??$__put_float@std@PAD@std@@YAPADPAD00AAVios_base@1@DDDABV?$basic_string@std@DV?$char_traits@std@D@1@V?$allocator@std@D@1@@1@@Z (00DE: E9)
                      1. 08 4B12 0135 0000:??$__put_float@std@PAD@std@@YAPADPAD00AAVios_base@1@DDDABV?$basic_string@std@DV?$char_traits@std@D@1@V?$allocator@std@D@1@@1@@Z (00DE: 50)
                      2. 08 6F76 0111 0000:??$__put_float@std@V?$ostreambuf_iterator@std@DV?$char_traits@std@D@1@@1@@std@@YA?AV?$ostreambuf_iterator@std@DV?$char_traits@std@D@1@@1@PAD0V21@AAVios_base@1@DDDABV?$basic_string@std@DV?$char_traits@std@D@1@V?$allocator@std@D@1@@1@@Z (00E4: E9)
                      3. 08 6F76 013B 0000:??$__put_float@std@V?$ostreambuf_iterator@std@DV?$char_traits@std@D@1@@1@@std@@YA?AV?$ostreambuf_iterator@std@DV?$char_traits@std@D@1@@1@PAD0V21@AAVios_base@1@DDDABV?$basic_string@std@DV?$char_traits@std@D@1@V?$allocator@std@D@1@@1@@Z (00E4: 18)
                  89CB:
                    56:
                      0. 18 2282 0113 0000:??5?$basic_istream@std@DV?$char_traits@std@D@1@@std@@QAEAAV01@PAV?$basic_streambuf@std@DV?$char_traits@std@D@1@@1@@Z
                      1. 1D 4344 011E 0000:??5?$basic_istream@std@DV?$char_traits@std@D@1@@std@@QAEAAV01@PAV?$basic_streambuf@std@DV?$char_traits@std@D@1@@1@@Z
                      2. 07 527D 00D0 0000:?imbue@?$basic_ios@std@_YV?$char_traits@std@_Y@1@@std@@QAE?AVlocale@2@ABV32@@Z (00A4: E9) (REF 000D: ?imbue@?$basic_ios@std@_YV?$char_traits@std@_Y@1@@std@@QAE?AVlocale@2@ABV32@@Z)
                      3. 07 527D 00D0 0000:?imbue@?$basic_ios@std@DV?$char_traits@std@D@1@@std@@QAE?AVlocale@2@ABV32@@Z (00A4: E9) (REF 000D: ?imbue@?$basic_ios@std@DV?$char_traits@std@D@1@@std@@QAE?AVlocale@2@ABV32@@Z)
                      4. 07 527D 00FA 0000:?imbue@?$basic_ios@std@DV?$char_traits@std@D@1@@std@@QAE?AVlocale@2@ABV32@@Z (00A4: 00) (REF 000D: ?imbue@?$basic_ios@std@DV?$char_traits@std@D@1@@std@@QAE?AVlocale@2@ABV32@@Z)
                      5. 07 527D 00FA 0000:?imbue@?$basic_ios@std@_YV?$char_traits@std@_Y@1@@std@@QAE?AVlocale@2@ABV32@@Z (00A4: 00) (REF 000D: ?imbue@?$basic_ios@std@_YV?$char_traits@std@_Y@1@@std@@QAE?AVlocale@2@ABV32@@Z)
                      6. 02 9E9D 0080 0000:?seekg@?$basic_istream@std@_YV?$char_traits@std@_Y@1@@std@@QAEAAV12@JH@Z (REF 000D: ?seekg@?$basic_istream@std@_YV?$char_traits@std@_Y@1@@std@@QAEAAV12@JH@Z)
                      7. 02 9E9D 0080 0000:?seekg@?$basic_istream@std@DV?$char_traits@std@D@1@@std@@QAEAAV12@JH@Z (REF 000D: ?seekg@?$basic_istream@std@DV?$char_traits@std@D@1@@std@@QAEAAV12@JH@Z)
                    8B:
                      0. 4A 6979 016D 0000:?_M_fill_assign@?$vector@std@_YV?$allocator@std@_Y@1@@std@@QAEXIAB_Y@Z
                      1. 3F D373 015B 0000:?_M_fill_assign@?$vector@std@DV?$allocator@std@D@1@@std@@QAEXIABD@Z
                  8B5D:
                    08:
                      0. 83 7422 00C4 0000:??$__pushback@std@_YV?$char_traits@std@_Y@1@@std@@YA_NPAV?$basic_streambuf@std@_YV?$char_traits@std@_Y@1@@1@_Y@Z
                      1. 08 B2ED 00FD 0000:?replace@RegExp@@QAEPADPAD@Z
                      2. 83 CF41 00C4 0000:??$__pushback@std@DV?$char_traits@std@D@1@@std@@YA_NPAV?$basic_streambuf@std@DV?$char_traits@std@D@1@@1@D@Z
                    0C:
                      0. 13 070C 0162 0000:??0locale@std@@QAE@ABV01@PBDH@Z
                8B510853:
                  0. 30 3406 00C8 0000:?do_get@_Messages_impl@std@@UBE?AV?$basic_string@std@DV?$char_traits@std@D@1@V?$allocator@std@D@1@@2@HHHABV32@@Z
              20:
                53:
                  31DB56:
                    0. 54 96FD 00D2 0000:?clear@?$hashtable@std@U?$pair@std@_OHVlocale@1@@1@HU?$hash@std@H@1@U?$_Select1st@std@U?$pair@std@_OHVlocale@1@@1@@1@U?$equal_to@std@H@1@V?$allocator@std@U?$pair@std@HVlocale@1@@1@@1@@std@@QAEXXZ
                    1. FF F57E 01AF 0000:??$_M_ignore_unbuffered@std@_YV?$char_traits@std@_Y@1@U?$_Is_not_wspace@std@V?$char_traits@std@_Y@1@@1@@std@@YAXPAV?$basic_istream@std@_YV?$char_traits@std@_Y@1@@1@PAV?$basic_streambuf@std@_YV?$char_traits@std@_Y@1@@1@U?$_Is_not_wspace@std@V?$char_traits@std@_Y@1@@1@_N3@Z
                  56:
                    5789:
                      0. 12 2B9C 0117 0000:?peek@?$basic_istream@std@DV?$char_traits@std@D@1@@std@@QAEHXZ
                      1. 04 4289 014C 0000:?ignore@?$basic_istream@std@DV?$char_traits@std@D@1@@std@@QAEAAV12@XZ
                      2. 0B D46D 0163 0000:?putback@?$basic_istream@std@DV?$char_traits@std@D@1@@std@@QAEAAV12@D@Z (0133: E9)
                      3. 0B D46D 0186 0000:?unget@?$basic_istream@std@DV?$char_traits@std@D@1@@std@@QAEAAV12@XZ (0133: 00)
                      4. 04 E12C 009D 0000:?seekg@?$basic_istream@std@_YV?$char_traits@std@_Y@1@@std@@QAEAAV12@V?$fpos@std@U__stl_mbstate_t@@@2@@Z (REF 000D: ?seekg@?$basic_istream@std@_YV?$char_traits@std@_Y@1@@std@@QAEAAV12@V?$fpos@std@U__stl_mbstate_t@@@2@@Z)
                      5. 04 E12C 009D 0000:?seekg@?$basic_istream@std@DV?$char_traits@std@D@1@@std@@QAEAAV12@V?$fpos@std@U__stl_mbstate_t@@@2@@Z (REF 000D: ?seekg@?$basic_istream@std@DV?$char_traits@std@D@1@@std@@QAEAAV12@V?$fpos@std@U__stl_mbstate_t@@@2@@Z)
                      6. 78 F066 027B 0000:??1_Time_Info@std@@QAE@XZ
                    668B:
                      0. 0F 49A5 0164 0000:?putback@?$basic_istream@std@_YV?$char_traits@std@_Y@1@@std@@QAEAAV12@_Y@Z
                  803D:
                    0. 00 0000 0138 0000:___SI?%numpunct_cpp3259594164_ (0113: E9)
                    1. 00 0000 0162 0000:___SI?%numpunct_cpp3173440193_ (0113: 45)
                  89CB:
                    56:
                      0. 03 F35B 01B0 0000:?readsome@?$basic_istream@std@DV?$char_traits@std@D@1@@std@@QAEHPADH@Z (0188: E9)
                      1. 03 F35B 01BA 0000:?readsome@?$basic_istream@std@DV?$char_traits@std@D@1@@std@@QAEHPADH@Z (0188: E5)
                    8B:
                      0. 53 C10E 019B 0000:?_M_fill_assign@?$vector@std@PAXV?$allocator@std@PAX@1@@std@@QAEXIABQAX@Z
                  8B5D:
                    08:
                      0. 61 12C4 01C0 0000:?_M_copy_buffered@?$basic_ostream@std@_YV?$char_traits@std@_Y@1@@std@@AAE_NPAV?$basic_streambuf@std@_YV?$char_traits@std@_Y@1@@2@0@Z
                      1. 09 D029 00D3 0000:?do_get@?$money_get@std@_YPB_Y@std@@MBEPB_YPB_Y0_NAAVios_base@2@AAHAA_Z@Z (0099: 5B)
                      2. 09 D029 00CC 0000:?do_get@?$money_get@std@DPBD@std@@MBEPBDPBD0_NAAVios_base@2@AAHAA_Z@Z (0099: B8)
                      3. 09 D029 00FD 0000:?do_get@?$money_get@std@_YPB_Y@std@@MBEPB_YPB_Y0_NAAVios_base@2@AAHAA_Z@Z (0099: 75)
                      4. 09 D029 00F6 0000:?do_get@?$money_get@std@DPBD@std@@MBEPBDPBD0_NAAVios_base@2@AAHAA_Z@Z (0099: C7)
                    0C:
                      0. 0A 9DEE 0110 0000:?write@?$basic_ostream@std@_YV?$char_traits@std@_Y@1@@std@@QAEAAV12@PB_YH@Z (REF 000D: ?write@?$basic_ostream@std@_YV?$char_traits@std@_Y@1@@std@@QAEAAV12@PB_YH@Z)
                      1. 0A 9DEE 0110 0000:?write@?$basic_ostream@std@DV?$char_traits@std@D@1@@std@@QAEAAV12@PBDH@Z (REF 000D: ?write@?$basic_ostream@std@DV?$char_traits@std@D@1@@std@@QAEAAV12@PBDH@Z)
                8B410853:
                  0. 2A 8A57 00E0 0000:?do_get@_Messages_impl@std@@UBE?AV?$basic_string@std@DV?$char_traits@std@D@1@V?$allocator@std@D@1@@2@HHHABV32@@Z
              24:
                53:
                  5657:
                    89:
                      0. 14 0A04 0160 0000:?_M_formatted_get@?$basic_istream@std@DV?$char_traits@std@D@1@@std@@QAEXAAD@Z
                      1. 0C 1861 0130 0000:?reserve@?$basic_string@std@_YV?$char_traits@std@_Y@1@V?$allocator@std@_Y@1@@std@@QAEXI@Z
                      2. 09 26B1 0119 0000:?reserve@?$basic_string@std@DV?$char_traits@std@D@1@V?$allocator@std@D@1@@std@@QAEXI@Z
                    8D:
                      0. 0E 206D 0102 0000:?do_curr_symbol@?$moneypunct_byname@std@_Y$00@std@@MBE?AV?$basic_string@std@_YV?$char_traits@std@_Y@1@V?$allocator@std@_Y@1@@2@XZ (00B3: 00) (REF 000D: ?do_curr_symbol@?$moneypunct_byname@std@_Y$00@std@@MBE?AV?$basic_string@std@_YV?$char_traits@std@_Y@1@V?$allocator@std@_Y@1@@2@XZ)
                      1. 0E 206D 0102 0000:?do_positive_sign@?$moneypunct_byname@std@_Y$0@@std@@MBE?AV?$basic_string@std@_YV?$char_traits@std@_Y@1@V?$allocator@std@_Y@1@@2@XZ (00B3: 00) (REF 000D: ?do_positive_sign@?$moneypunct_byname@std@_Y$0@@std@@MBE?AV?$basic_string@std@_YV?$char_traits@std@_Y@1@V?$allocator@std@_Y@1@@2@XZ)
                      2. 0E 206D 0102 0000:?do_curr_symbol@?$moneypunct_byname@std@_Y$0@@std@@MBE?AV?$basic_string@std@_YV?$char_traits@std@_Y@1@V?$allocator@std@_Y@1@@2@XZ (00B3: 00) (REF 000D: ?do_curr_symbol@?$moneypunct_byname@std@_Y$0@@std@@MBE?AV?$basic_string@std@_YV?$char_traits@std@_Y@1@V?$allocator@std@_Y@1@@2@XZ)
                      3. 0E 206D 0102 0000:?do_negative_sign@?$moneypunct_byname@std@_Y$00@std@@MBE?AV?$basic_string@std@_YV?$char_traits@std@_Y@1@V?$allocator@std@_Y@1@@2@XZ (00B3: 00) (REF 000D: ?do_negative_sign@?$moneypunct_byname@std@_Y$00@std@@MBE?AV?$basic_string@std@_YV?$char_traits@std@_Y@1@V?$allocator@std@_Y@1@@2@XZ)
                      4. 0E 206D 0102 0000:?do_positive_sign@?$moneypunct_byname@std@_Y$00@std@@MBE?AV?$basic_string@std@_YV?$char_traits@std@_Y@1@V?$allocator@std@_Y@1@@2@XZ (00B3: 00) (REF 000D: ?do_positive_sign@?$moneypunct_byname@std@_Y$00@std@@MBE?AV?$basic_string@std@_YV?$char_traits@std@_Y@1@V?$allocator@std@_Y@1@@2@XZ)
                      5. 0E 206D 0102 0000:?do_negative_sign@?$moneypunct_byname@std@_Y$0@@std@@MBE?AV?$basic_string@std@_YV?$char_traits@std@_Y@1@V?$allocator@std@_Y@1@@2@XZ (00B3: 00) (REF 000D: ?do_negative_sign@?$moneypunct_byname@std@_Y$0@@std@@MBE?AV?$basic_string@std@_YV?$char_traits@std@_Y@1@V?$allocator@std@_Y@1@@2@XZ)
                      6. 0E 206D 00E6 0000:?do_positive_sign@?$moneypunct_byname@std@_Y$0@@std@@MBE?AV?$basic_string@std@_YV?$char_traits@std@_Y@1@V?$allocator@std@_Y@1@@2@XZ (00B3: E9) (REF 000D: ?do_positive_sign@?$moneypunct_byname@std@_Y$0@@std@@MBE?AV?$basic_string@std@_YV?$char_traits@std@_Y@1@V?$allocator@std@_Y@1@@2@XZ)
                      7. 0E 206D 00E6 0000:?do_curr_symbol@?$moneypunct_byname@std@_Y$0@@std@@MBE?AV?$basic_string@std@_YV?$char_traits@std@_Y@1@V?$allocator@std@_Y@1@@2@XZ (00B3: E9) (REF 000D: ?do_curr_symbol@?$moneypunct_byname@std@_Y$0@@std@@MBE?AV?$basic_string@std@_YV?$char_traits@std@_Y@1@V?$allocator@std@_Y@1@@2@XZ)
                      8. 0E 206D 00E6 0000:?do_negative_sign@?$moneypunct_byname@std@_Y$00@std@@MBE?AV?$basic_string@std@_YV?$char_traits@std@_Y@1@V?$allocator@std@_Y@1@@2@XZ (00B3: E9) (REF 000D: ?do_negative_sign@?$moneypunct_byname@std@_Y$00@std@@MBE?AV?$basic_string@std@_YV?$char_traits@std@_Y@1@V?$allocator@std@_Y@1@@2@XZ)
                      9. 0E 206D 00E6 0000:?do_positive_sign@?$moneypunct_byname@std@_Y$00@std@@MBE?AV?$basic_string@std@_YV?$char_traits@std@_Y@1@V?$allocator@std@_Y@1@@2@XZ (00B3: E9) (REF 000D: ?do_positive_sign@?$moneypunct_byname@std@_Y$00@std@@MBE?AV?$basic_string@std@_YV?$char_traits@std@_Y@1@V?$allocator@std@_Y@1@@2@XZ)
                      10. 0E 206D 00E6 0000:?do_curr_symbol@?$moneypunct_byname@std@_Y$00@std@@MBE?AV?$basic_string@std@_YV?$char_traits@std@_Y@1@V?$allocator@std@_Y@1@@2@XZ (00B3: E9) (REF 000D: ?do_curr_symbol@?$moneypunct_byname@std@_Y$00@std@@MBE?AV?$basic_string@std@_YV?$char_traits@std@_Y@1@V?$allocator@std@_Y@1@@2@XZ)
                      11. 0E 206D 00E6 0000:?do_negative_sign@?$moneypunct_byname@std@_Y$0@@std@@MBE?AV?$basic_string@std@_YV?$char_traits@std@_Y@1@V?$allocator@std@_Y@1@@2@XZ (00B3: E9) (REF 000D: ?do_negative_sign@?$moneypunct_byname@std@_Y$0@@std@@MBE?AV?$basic_string@std@_YV?$char_traits@std@_Y@1@V?$allocator@std@_Y@1@@2@XZ)
                  89CB56:
                    0. 02 9E9D 0096 0000:?seekg@?$basic_istream@std@_YV?$char_traits@std@_Y@1@@std@@QAEAAV12@V?$fpos@std@U__stl_mbstate_t@@@2@@Z (REF 000D: ?seekg@?$basic_istream@std@_YV?$char_traits@std@_Y@1@@std@@QAEAAV12@V?$fpos@std@U__stl_mbstate_t@@@2@@Z)
                    1. 02 9E9D 0096 0000:?seekg@?$basic_istream@std@DV?$char_traits@std@D@1@@std@@QAEAAV12@V?$fpos@std@U__stl_mbstate_t@@@2@@Z (REF 000D: ?seekg@?$basic_istream@std@DV?$char_traits@std@D@1@@std@@QAEAAV12@V?$fpos@std@U__stl_mbstate_t@@@2@@Z)
                    2. 13 D80D 0156 0000:?_M_formatted_get@?$basic_istream@std@_YV?$char_traits@std@_Y@1@@std@@QAEXPA_Y@Z
                    3. 07 E58D 013A 0000:?ignore@?$basic_istream@std@_YV?$char_traits@std@_Y@1@@std@@QAEAAV12@H_Y@Z
                  8B5D0C:
                    0. 16 3F28 00CE 0000:??$_M_allocate_and_copy@?$vector@std@PAXV?$allocator@std@PAX@1@@std@PBQAX@?$vector@std@PAXV?$allocator@std@PAX@1@@std@@IAEPAPAXIPBQAX0@Z (REF 000D: ??$_M_allocate_and_copy@?$vector@std@PAXV?$allocator@std@PAX@1@@std@PBQAX@?$vector@std@PAXV?$allocator@std@PAX@1@@std@@IAEPAPAXIPBQAX0@Z)
                    1. 16 3F28 00CE 0000:??$_M_allocate_and_copy@?$vector@std@PAXV?$allocator@std@PAX@1@@std@PAPAX@?$vector@std@PAXV?$allocator@std@PAX@1@@std@@IAEPAPAXIPAPAX0@Z (REF 000D: ??$_M_allocate_and_copy@?$vector@std@PAXV?$allocator@std@PAX@1@@std@PAPAX@?$vector@std@PAXV?$allocator@std@PAX@1@@std@@IAEPAPAXIPAPAX0@Z)
                    2. 15 D4A3 00CD 0000:??$_M_allocate_and_copy@?$vector@std@_YV?$allocator@std@_Y@1@@std@PA_Y@?$vector@std@_YV?$allocator@std@_Y@1@@std@@IAEPA_YIPA_Y0@Z (REF 000D: ??$_M_allocate_and_copy@?$vector@std@_YV?$allocator@std@_Y@1@@std@PA_Y@?$vector@std@_YV?$allocator@std@_Y@1@@std@@IAEPA_YIPA_Y0@Z)
                    3. 15 D4A3 00CD 0000:??$_M_allocate_and_copy@?$vector@std@_YV?$allocator@std@_Y@1@@std@PB_Y@?$vector@std@_YV?$allocator@std@_Y@1@@std@@IAEPA_YIPB_Y0@Z (REF 000D: ??$_M_allocate_and_copy@?$vector@std@_YV?$allocator@std@_Y@1@@std@PB_Y@?$vector@std@_YV?$allocator@std@_Y@1@@std@@IAEPA_YIPB_Y0@Z)
                    4. 12 FF5D 00CA 0000:??$_M_allocate_and_copy@?$vector@std@DV?$allocator@std@D@1@@std@PBD@?$vector@std@DV?$allocator@std@D@1@@std@@IAEPADIPBD0@Z (REF 000D: ??$_M_allocate_and_copy@?$vector@std@DV?$allocator@std@D@1@@std@PBD@?$vector@std@DV?$allocator@std@D@1@@std@@IAEPADIPBD0@Z)
                    5. 12 FF5D 00CA 0000:??$_M_allocate_and_copy@?$vector@std@DV?$allocator@std@D@1@@std@PAD@?$vector@std@DV?$allocator@std@D@1@@std@@IAEPADIPAD0@Z (REF 000D: ??$_M_allocate_and_copy@?$vector@std@DV?$allocator@std@D@1@@std@PAD@?$vector@std@DV?$allocator@std@D@1@@std@@IAEPADIPAD0@Z)
                85C95389:
                  0. 19 15C5 02D6 0000:??_G?$time_put@std@_YV?$ostreambuf_iterator@std@_YV?$char_traits@std@_Y@1@@1@@std@@UAEPAXI@Z (REF 000D: ??_G?$time_put@std@_YV?$ostreambuf_iterator@std@_YV?$char_traits@std@_Y@1@@1@@std@@UAEPAXI@Z)
                  1. 19 15C5 02D6 0000:??_G?$time_put@std@DV?$ostreambuf_iterator@std@DV?$char_traits@std@D@1@@1@@std@@UAEPAXI@Z (REF 000D: ??_G?$time_put@std@DV?$ostreambuf_iterator@std@DV?$char_traits@std@D@1@@1@@std@@UAEPAXI@Z)
                  2. 19 15C5 02D6 0000:??_G?$time_get@std@_YV?$istreambuf_iterator@std@_YV?$char_traits@std@_Y@1@@1@@std@@UAEPAXI@Z (REF 000D: ??_G?$time_get@std@_YV?$istreambuf_iterator@std@_YV?$char_traits@std@_Y@1@@1@@std@@UAEPAXI@Z)
                  3. 19 15C5 02D6 0000:??_G?$time_get@std@DV?$istreambuf_iterator@std@DV?$char_traits@std@D@1@@1@@std@@UAEPAXI@Z (REF 000D: ??_G?$time_get@std@DV?$istreambuf_iterator@std@DV?$char_traits@std@D@1@@1@@std@@UAEPAXI@Z)
                  4. 12 565E 02E9 0000:??_G?$time_get_byname@std@_YV?$istreambuf_iterator@std@_YV?$char_traits@std@_Y@1@@1@@std@@UAEPAXI@Z (REF 000D: ??_G?$time_get_byname@std@_YV?$istreambuf_iterator@std@_YV?$char_traits@std@_Y@1@@1@@std@@UAEPAXI@Z)
                  5. 12 565E 02E9 0000:??_G?$time_put_byname@std@DV?$ostreambuf_iterator@std@DV?$char_traits@std@D@1@@1@@std@@UAEPAXI@Z (REF 000D: ??_G?$time_put_byname@std@DV?$ostreambuf_iterator@std@DV?$char_traits@std@D@1@@1@@std@@UAEPAXI@Z)
                  6. 12 565E 02E9 0000:??_G?$time_put_byname@std@_YV?$ostreambuf_iterator@std@_YV?$char_traits@std@_Y@1@@1@@std@@UAEPAXI@Z (REF 000D: ??_G?$time_put_byname@std@_YV?$ostreambuf_iterator@std@_YV?$char_traits@std@_Y@1@@1@@std@@UAEPAXI@Z)
                  7. 12 565E 02E9 0000:??_G?$time_get_byname@std@DV?$istreambuf_iterator@std@DV?$char_traits@std@D@1@@1@@std@@UAEPAXI@Z (REF 000D: ??_G?$time_get_byname@std@DV?$istreambuf_iterator@std@DV?$char_traits@std@D@1@@1@@std@@UAEPAXI@Z)
              28:
                53:
                  56:
                    5789:
                      0. 12 43A4 02AB 0000:??1?$time_get@std@DV?$istreambuf_iterator@std@DV?$char_traits@std@D@1@@1@@std@@MAE@XZ (REF 000D: ??1?$time_get@std@DV?$istreambuf_iterator@std@DV?$char_traits@std@D@1@@1@@std@@MAE@XZ)
                      1. 12 43A4 02AB 0000:??1?$time_put@std@DV?$ostreambuf_iterator@std@DV?$char_traits@std@D@1@@1@@std@@MAE@XZ (REF 000D: ??1?$time_put@std@DV?$ostreambuf_iterator@std@DV?$char_traits@std@D@1@@1@@std@@MAE@XZ)
                      2. 12 43A4 02AB 0000:??1?$time_get@std@_YV?$istreambuf_iterator@std@_YV?$char_traits@std@_Y@1@@1@@std@@MAE@XZ (REF 000D: ??1?$time_get@std@_YV?$istreambuf_iterator@std@_YV?$char_traits@std@_Y@1@@1@@std@@MAE@XZ)
                      3. 12 43A4 02AB 0000:??1?$time_put@std@_YV?$ostreambuf_iterator@std@_YV?$char_traits@std@_Y@1@@1@@std@@MAE@XZ (REF 000D: ??1?$time_put@std@_YV?$ostreambuf_iterator@std@_YV?$char_traits@std@_Y@1@@1@@std@@MAE@XZ)
                      4. 07 B058 011B 0000:?put@?$basic_ostream@std@DV?$char_traits@std@D@1@@std@@QAEAAV12@D@Z
                    668B:
                      0. 0B C770 0155 0000:?put@?$basic_ostream@std@_YV?$char_traits@std@_Y@1@@std@@QAEAAV12@_Y@Z
                  89CB8B:
                    0. 4E 31A6 01C4 0000:?_M_fill_assign@?$vector@std@_YV?$allocator@std@_Y@1@@std@@QAEXIAB_Y@Z
                    1. 53 99A1 01D8 0000:?_M_fill_assign@?$vector@std@PAXV?$allocator@std@PAX@1@@std@@QAEXIABQAX@Z
                  8B5D08:
                    0. 4E 66FE 01CE 0000:?_M_copy_unbuffered@?$basic_ostream@std@_YV?$char_traits@std@_Y@1@@std@@AAE_NPAV?$basic_streambuf@std@_YV?$char_traits@std@_Y@1@@2@0@Z
                8B4D0853:
                  0. 03 4F66 0187 0000:?global@locale@std@@SA?AV12@ABV12@@Z (00E2: DB)
                  1. 03 4F66 010A 0000:?global@locale@std@@SA?AV12@ABV12@@Z (00E2: E9)
              2C:
                53:
                  56:
                    5789:
                      0. 06 5397 0124 0000:?do_get@?$money_get@std@DV?$istreambuf_iterator@std@DV?$char_traits@std@D@1@@1@@std@@MBE?AV?$istreambuf_iterator@std@DV?$char_traits@std@D@1@@2@V32@0_NAAVios_base@2@AAHAA_Z@Z (00F9: E9)
                      1. 06 5397 012B 0000:?do_get@?$money_get@std@_YV?$istreambuf_iterator@std@_YV?$char_traits@std@_Y@1@@1@@std@@MBE?AV?$istreambuf_iterator@std@_YV?$char_traits@std@_Y@1@@2@V32@0_NAAVios_base@2@AAHAA_Z@Z (00F9: 24)
                      2. 06 7286 0109 0000:?do_get@?$money_get@std@_YV?$istreambuf_iterator@std@_YV?$char_traits@std@_Y@1@@1@@std@@MBE?AV?$istreambuf_iterator@std@_YV?$char_traits@std@_Y@1@@2@V32@0_NAAVios_base@2@AAHAA_Z@Z (00D7: 24)
                      3. 06 7286 0102 0000:?do_get@?$money_get@std@DV?$istreambuf_iterator@std@DV?$char_traits@std@D@1@@1@@std@@MBE?AV?$istreambuf_iterator@std@DV?$char_traits@std@D@1@@2@V32@0_NAAVios_base@2@AAHAA_Z@Z (00D7: E9)
                    89CE:
                      0. 13 CFE6 0169 0000:?_M_formatted_get@?$basic_istream@std@DV?$char_traits@std@D@1@@std@@QAEXPAD@Z
                  89CB56:
                    0. 06 57E3 0128 0000:?ignore@?$basic_istream@std@_YV?$char_traits@std@_Y@1@@std@@QAEAAV12@H@Z (00FD: E9)
                    1. 06 57E3 0141 0000:?ignore@?$basic_istream@std@_YV?$char_traits@std@_Y@1@@std@@QAEAAV12@H@Z (00FD: 4D)
                    2. 07 E58D 014B 0000:?ignore@?$basic_istream@std@_YV?$char_traits@std@_Y@1@@std@@QAEAAV12@H_Y@Z
                8B:
                  413853:
                    0. 14 449E 011C 0000:?optimize@RegExp@@AAEXXZ
                  45:
                    0C53:
                      0. 22 F3D3 0165 0000:?do_put@?$num_put@std@_YPA_Y@std@@MBEPA_YPA_YAAVios_base@2@_Y_N@Z (0104: 4D)
                      1. 22 F3D3 0150 0000:?do_put@?$num_put@std@DPAD@std@@MBEPADPADAAVios_base@2@D_N@Z (0104: B8)
                      2. 22 F3D3 01B8 0000:?do_put@?$num_put@std@_YPA_Y@std@@MBEPA_YPA_YAAVios_base@2@_Y_N@Z (0104: 08)
                      3. 22 F3D3 01A3 0000:?do_put@?$num_put@std@DPAD@std@@MBEPADPADAAVios_base@2@D_N@Z (0104: 09)
                    1453:
                      0. 28 928E 0171 0000:?do_put@?$num_put@std@_YV?$ostreambuf_iterator@std@_YV?$char_traits@std@_Y@1@@1@@std@@MBE?AV?$ostreambuf_iterator@std@_YV?$char_traits@std@_Y@1@@2@V32@AAVios_base@2@_Y_N@Z (00F7: C7)
                      1. 28 928E 015C 0000:?do_put@?$num_put@std@DV?$ostreambuf_iterator@std@DV?$char_traits@std@D@1@@1@@std@@MBE?AV?$ostreambuf_iterator@std@DV?$char_traits@std@D@1@@2@V32@AAVios_base@2@D_N@Z (00F7: 64)
                      2. 28 928E 01C4 0000:?do_put@?$num_put@std@_YV?$ostreambuf_iterator@std@_YV?$char_traits@std@_Y@1@@1@@std@@MBE?AV?$ostreambuf_iterator@std@_YV?$char_traits@std@_Y@1@@2@V32@AAVios_base@2@_Y_N@Z (00F7: 08)
                      3. 28 928E 01AF 0000:?do_put@?$num_put@std@DV?$ostreambuf_iterator@std@DV?$char_traits@std@D@1@@1@@std@@MBE?AV?$ostreambuf_iterator@std@DV?$char_traits@std@D@1@@2@V32@AAVios_base@2@D_N@Z (00F7: 00)
                      4. 28 928E 0176 0000:?do_put@?$num_put@std@_YV?$ostreambuf_iterator@std@_YV?$char_traits@std@_Y@1@@1@@std@@MBE?AV?$ostreambuf_iterator@std@_YV?$char_traits@std@_Y@1@@2@V32@AAVios_base@2@_Y_N@Z (00F7: D0)
                      5. 28 928E 0161 0000:?do_put@?$num_put@std@DV?$ostreambuf_iterator@std@DV?$char_traits@std@D@1@@1@@std@@MBE?AV?$ostreambuf_iterator@std@DV?$char_traits@std@D@1@@2@V32@AAVios_base@2@D_N@Z (00F7: 83)
                      6. 28 928E 01C9 0000:?do_put@?$num_put@std@_YV?$ostreambuf_iterator@std@_YV?$char_traits@std@_Y@1@@1@@std@@MBE?AV?$ostreambuf_iterator@std@_YV?$char_traits@std@_Y@1@@2@V32@AAVios_base@2@_Y_N@Z (00F7: FF)
                      7. 28 928E 01B4 0000:?do_put@?$num_put@std@DV?$ostreambuf_iterator@std@DV?$char_traits@std@D@1@@1@@std@@MBE?AV?$ostreambuf_iterator@std@DV?$char_traits@std@D@1@@2@V32@AAVios_base@2@D_N@Z (00F7: C3)
                  551053:
                    0. 17 0759 0184 0000:?do_transform@?$collate_byname@std@D@std@@MBE?AV?$basic_string@std@DV?$char_traits@std@D@1@V?$allocator@std@D@1@@2@PBD0@Z
              3053:
                5657:
                  8B:
                    0. 6F 6AB5 01D9 0000:?_M_copy_buffered@?$basic_ostream@std@DV?$char_traits@std@D@1@@std@@AAE_NPAV?$basic_streambuf@std@DV?$char_traits@std@D@1@@2@0@Z
                    1. 07 B54D 0199 0000:??$_M_put_num@std@DV?$char_traits@std@D@1@K@std@@YAAAV?$basic_ostream@std@DV?$char_traits@std@D@1@@1@AAV21@K@Z (00B2: 18)
                    2. 07 B54D 0199 0000:??$_M_put_num@std@DV?$char_traits@std@D@1@J@std@@YAAAV?$basic_ostream@std@DV?$char_traits@std@D@1@@1@AAV21@J@Z (00B2: 1C)
                    3. 07 B54D 019C 0000:??$_M_put_num@std@DV?$char_traits@std@D@1@K@std@@YAAAV?$basic_ostream@std@DV?$char_traits@std@D@1@@1@AAV21@K@Z (00B8: 18)
                    4. 07 B54D 019C 0000:??$_M_put_num@std@DV?$char_traits@std@D@1@J@std@@YAAAV?$basic_ostream@std@DV?$char_traits@std@D@1@@1@AAV21@J@Z (00B8: 1C)
                  C6:
                    0. FF AE8E 01A4 0000:??$_M_ignore_unbuffered@std@DV?$char_traits@std@D@1@U?$_Is_not_wspace@std@V?$char_traits@std@D@1@@1@@std@@YAXPAV?$basic_istream@std@DV?$char_traits@std@D@1@@1@PAV?$basic_streambuf@std@DV?$char_traits@std@D@1@@1@U?$_Is_not_wspace@std@V?$char_traits@std@D@1@@1@_N3@Z
                8B5D08:
                  0. 51 75DA 01AC 0000:?_M_copy_unbuffered@?$basic_ostream@std@DV?$char_traits@std@D@1@@std@@AAE_NPAV?$basic_streambuf@std@DV?$char_traits@std@D@1@@2@0@Z
                  1. 40 8D57 01EA 0000:?_M_fill_assign@?$vector@std@DV?$allocator@std@D@1@@std@@QAEXIABD@Z
                  2. 4E E700 01EB 0000:?_M_copy_unbuffered@?$basic_ostream@std@_YV?$char_traits@std@_Y@1@@std@@AAE_NPAV?$basic_streambuf@std@_YV?$char_traits@std@_Y@1@@2@0@Z
              34:
                53:
                  56:
                    5789:
                      0. 0C 084E 0146 0000:?reserve@?$basic_string@std@_YV?$char_traits@std@_Y@1@V?$allocator@std@_Y@1@@std@@QAEXI@Z
                      1. 09 80FC 012F 0000:?reserve@?$basic_string@std@DV?$char_traits@std@D@1@V?$allocator@std@D@1@@std@@QAEXI@Z
                    8B75:
                      0. 0E 17FC 031E 0000:??0locale@std@@QAE@ABV01@0H@Z
                    8D71:
                      0. 21 0D2B 01AA 0000:?_M_copy_from@?$hashtable@std@U?$pair@std@QBDU?$pair@std@PAXI@1@@1@PBDU?$hash@std@PBD@1@U?$_Select1st@std@U?$pair@std@QBDU?$pair@std@PAXI@1@@1@@1@U__eqstr@1@V?$allocator@std@U?$pair@std@PBDU?$pair@std@PAXI@1@@1@@1@@std@@AAEXABV12@@Z
                      1. 21 AA31 01AA 0000:?_M_copy_from@?$hashtable@std@U?$pair@std@_OHVlocale@1@@1@HU?$hash@std@H@1@U?$_Select1st@std@U?$pair@std@_OHVlocale@1@@1@@1@U?$equal_to@std@H@1@V?$allocator@std@U?$pair@std@HVlocale@1@@1@@1@@std@@AAEXABV12@@Z
                  89CB56:
                    0. 06 57E3 013C 0000:?ignore@?$basic_istream@std@DV?$char_traits@std@D@1@@std@@QAEAAV12@H@Z (0111: E9)
                    1. 06 57E3 0155 0000:?ignore@?$basic_istream@std@DV?$char_traits@std@D@1@@std@@QAEAAV12@H@Z (0111: 4D)
                  8D59:
                    04:
                      0. 25 2171 0253 0000:?resize@?$hashtable@std@U?$pair@std@QBDU?$pair@std@PAXI@1@@1@PBDU?$hash@std@PBD@1@U?$_Select1st@std@U?$pair@std@QBDU?$pair@std@PAXI@1@@1@@1@U__eqstr@1@V?$allocator@std@U?$pair@std@PBDU?$pair@std@PAXI@1@@1@@1@@std@@QAEXI@Z
                    08:
                      0. 25 358D 024A 0000:?resize@?$hashtable@std@U?$pair@std@_OHVlocale@1@@1@HU?$hash@std@H@1@U?$_Select1st@std@U?$pair@std@_OHVlocale@1@@1@@1@U?$equal_to@std@H@1@V?$allocator@std@U?$pair@std@HVlocale@1@@1@@1@@std@@QAEXI@Z
                8B:
                  450853:
                    0. 3C 5FEE 01AD 0000:?_M_insert_aux@?$basic_string@std@_YV?$char_traits@std@_Y@1@V?$allocator@std@_Y@1@@std@@AAEPA_YPA_Y_Y@Z
                    1. 26 92BE 0210 0000:??$append@?$basic_string@std@_YV?$char_traits@std@_Y@1@V?$allocator@std@_Y@1@@std@PA_Y@?$basic_string@std@_YV?$char_traits@std@_Y@1@V?$allocator@std@_Y@1@@std@@AAEAAV12@PA_Y0ABUforward_iterator_tag@2@@Z
                    2. 1F B126 0206 0000:??$append@?$basic_string@std@DV?$char_traits@std@D@1@V?$allocator@std@D@1@@std@PBD@?$basic_string@std@DV?$char_traits@std@D@1@V?$allocator@std@D@1@@std@@AAEAAV12@PBD0ABUforward_iterator_tag@2@@Z
                    3. 26 DBB4 0230 0000:??$append@?$basic_string@std@_YV?$char_traits@std@_Y@1@V?$allocator@std@_Y@1@@std@PB_Y@?$basic_string@std@_YV?$char_traits@std@_Y@1@V?$allocator@std@_Y@1@@std@@AAEAAV12@PB_Y0ABUforward_iterator_tag@2@@Z
                    4. 29 DBE1 0184 0000:?_M_insert_aux@?$basic_string@std@DV?$char_traits@std@D@1@V?$allocator@std@D@1@@std@@AAEPADPADD@Z
                    5. 1F E3A2 01E9 0000:??$append@?$basic_string@std@DV?$char_traits@std@D@1@V?$allocator@std@D@1@@std@PAD@?$basic_string@std@DV?$char_traits@std@D@1@V?$allocator@std@D@1@@std@@AAEAAV12@PAD0ABUforward_iterator_tag@2@@Z
                  55:
                    0853:
                      0. 15 87D2 010C 0000:??8locale@std@@QBE_NABV01@@Z
                    1053:
                      0. 20 2D0F 01FA 0000:?do_get@?$num_get@std@DPBD@std@@MBEPBDPBD0AAVios_base@2@AAHAA_N@Z
                      1. 24 7CCA 01AB 0000:?do_transform@?$collate_byname@std@_Y@std@@MBE?AV?$basic_string@std@_YV?$char_traits@std@_Y@1@V?$allocator@std@_Y@1@@2@PB_Y0@Z
                      2. 21 8A59 01A9 0000:?do_transform@?$collate_byname@std@_Y@std@@MBE?AV?$basic_string@std@_YV?$char_traits@std@_Y@1@V?$allocator@std@_Y@1@@2@PB_Y0@Z
                      3. 20 A99C 022B 0000:?do_get@?$num_get@std@_YPB_Y@std@@MBEPB_YPB_Y0AAVios_base@2@AAHAA_N@Z
                      4. 20 C570 024E 0000:?do_get@?$num_get@std@DPBD@std@@MBEPBDPBD0AAVios_base@2@AAHAA_N@Z
                      5. 20 ED91 027F 0000:?do_get@?$num_get@std@_YPB_Y@std@@MBEPB_YPB_Y0AAVios_base@2@AAHAA_N@Z
                      6. 1A F3F8 019C 0000:?do_transform@?$collate_byname@std@D@std@@MBE?AV?$basic_string@std@DV?$char_traits@std@D@1@V?$allocator@std@D@1@@2@PBD0@Z
              38:
                5356:
                  5789:
                    0. 42 A816 024B 0000:?insert@?$basic_string@std@DV?$char_traits@std@D@1@V?$allocator@std@D@1@@std@@QAEXPADID@Z
                    1. 56 CE74 0279 0000:?insert@?$basic_string@std@_YV?$char_traits@std@_Y@1@V?$allocator@std@_Y@1@@std@@QAEXPA_YI_Y@Z
                  8B75:
                    0. 6F C493 01E4 0000:?_M_copy_buffered@?$basic_ostream@std@DV?$char_traits@std@D@1@@std@@AAE_NPAV?$basic_streambuf@std@DV?$char_traits@std@D@1@@2@0@Z
                    1. 0D E671 03BB 0000:??0locale@std@@QAE@ABV01@0H@Z
                8B451C53:
                  0. 1A 0421 02DB 0000:?do_get@?$num_get@std@_YV?$istreambuf_iterator@std@_YV?$char_traits@std@_Y@1@@1@@std@@MBE?AV?$istreambuf_iterator@std@_YV?$char_traits@std@_Y@1@@2@V32@0AAVios_base@2@AAHAA_N@Z
                  1. 1A 151E 031B 0000:?do_get@?$num_get@std@_YV?$istreambuf_iterator@std@_YV?$char_traits@std@_Y@1@@1@@std@@MBE?AV?$istreambuf_iterator@std@_YV?$char_traits@std@_Y@1@@2@V32@0AAVios_base@2@AAHAA_N@Z
                  2. 1A 442E 029F 0000:?do_get@?$num_get@std@DV?$istreambuf_iterator@std@DV?$char_traits@std@D@1@@1@@std@@MBE?AV?$istreambuf_iterator@std@DV?$char_traits@std@D@1@@2@V32@0AAVios_base@2@AAHAA_N@Z
                  3. 1A 4A3D 02E1 0000:?do_get@?$num_get@std@DV?$istreambuf_iterator@std@DV?$char_traits@std@D@1@@1@@std@@MBE?AV?$istreambuf_iterator@std@DV?$char_traits@std@D@1@@2@V32@0AAVios_base@2@AAHAA_N@Z
                  4. 1A A785 02DB 0000:?do_get@?$num_get@std@_YV?$istreambuf_iterator@std@_YV?$char_traits@std@_Y@1@@1@@std@@MBE?AV?$istreambuf_iterator@std@_YV?$char_traits@std@_Y@1@@2@V32@0AAVios_base@2@AAHAA_N@Z
                  5. 1A B6BA 031B 0000:?do_get@?$num_get@std@_YV?$istreambuf_iterator@std@_YV?$char_traits@std@_Y@1@@1@@std@@MBE?AV?$istreambuf_iterator@std@_YV?$char_traits@std@_Y@1@@2@V32@0AAVios_base@2@AAHAA_N@Z
                  6. 1A E78A 029F 0000:?do_get@?$num_get@std@DV?$istreambuf_iterator@std@DV?$char_traits@std@D@1@@1@@std@@MBE?AV?$istreambuf_iterator@std@DV?$char_traits@std@D@1@@2@V32@0AAVios_base@2@AAHAA_N@Z
                  7. 1A E999 02E1 0000:?do_get@?$num_get@std@DV?$istreambuf_iterator@std@DV?$char_traits@std@D@1@@1@@std@@MBE?AV?$istreambuf_iterator@std@DV?$char_traits@std@D@1@@2@V32@0AAVios_base@2@AAHAA_N@Z
              3C53:
                56578B:
                  0. 07 0CAE 01A1 0000:??$_M_put_num@std@DV?$char_traits@std@D@1@N@std@@YAAAV?$basic_ostream@std@DV?$char_traits@std@D@1@@1@AAV21@N@Z (00C4: 05)
                  1. 07 0CAE 01A4 0000:??$_M_put_num@std@DV?$char_traits@std@D@1@N@std@@YAAAV?$basic_ostream@std@DV?$char_traits@std@D@1@@1@AAV21@N@Z (00C4: 00)
                  2. 07 0CAE 01A4 0000:??$_M_put_num@std@DV?$char_traits@std@D@1@_Z@std@@YAAAV?$basic_ostream@std@DV?$char_traits@std@D@1@@1@AAV21@_Z@Z (00C4: 31)
                  3. 07 0CAE 01A5 0000:??$_M_put_num@std@DV?$char_traits@std@D@1@_K@std@@YAAAV?$basic_ostream@std@DV?$char_traits@std@D@1@@1@AAV21@_K@Z (00BE: 08)
                  4. 07 0CAE 01A5 0000:??$_M_put_num@std@DV?$char_traits@std@D@1@_J@std@@YAAAV?$basic_ostream@std@DV?$char_traits@std@D@1@@1@AAV21@_J@Z (00BE: 0C)
                  5. 07 0CAE 01A7 0000:??$_M_put_num@std@DV?$char_traits@std@D@1@_Z@std@@YAAAV?$basic_ostream@std@DV?$char_traits@std@D@1@@1@AAV21@_Z@Z (00C4: 80)
                  6. 07 0CAE 01A8 0000:??$_M_put_num@std@DV?$char_traits@std@D@1@_K@std@@YAAAV?$basic_ostream@std@DV?$char_traits@std@D@1@@1@AAV21@_K@Z (00C4: 08)
                  7. 07 0CAE 01A8 0000:??$_M_put_num@std@DV?$char_traits@std@D@1@_J@std@@YAAAV?$basic_ostream@std@DV?$char_traits@std@D@1@@1@AAV21@_J@Z (00C4: 0C)
                  8. 0A 9217 01FB 0000:?_M_put_widen@?$basic_ostream@std@DV?$char_traits@std@D@1@@std@@QAEXPBD@Z (01C7: B8)
                  9. 0A 9217 01FF 0000:?_M_put_widen@?$basic_ostream@std@_YV?$char_traits@std@_Y@1@@std@@QAEXPBD@Z (01C7: 5D)
                8B5D0C:
                  0. 3F 64A1 023D 0000:??$append@?$basic_string@std@_YV?$char_traits@std@_Y@1@V?$allocator@std@_Y@1@@std@PB_Y@?$basic_string@std@_YV?$char_traits@std@_Y@1@V?$allocator@std@_Y@1@@std@@AAEAAV12@PB_Y0ABUforward_iterator_tag@2@@Z
                  1. 31 914C 020C 0000:??$append@?$basic_string@std@DV?$char_traits@std@D@1@V?$allocator@std@D@1@@std@PBD@?$basic_string@std@DV?$char_traits@std@D@1@V?$allocator@std@D@1@@std@@AAEAAV12@PBD0ABUforward_iterator_tag@2@@Z
                8D59:
                  04:
                    0. 25 C2F5 0285 0000:?resize@?$hashtable@std@U?$pair@std@QBDU?$pair@std@PAXI@1@@1@PBDU?$hash@std@PBD@1@U?$_Select1st@std@U?$pair@std@QBDU?$pair@std@PAXI@1@@1@@1@U__eqstr@1@V?$allocator@std@U?$pair@std@PBDU?$pair@std@PAXI@1@@1@@1@@std@@QAEXI@Z
                  08:
                    0. 25 E202 029D 0000:?resize@?$hashtable@std@U?$pair@std@_OHVlocale@1@@1@HU?$hash@std@H@1@U?$_Select1st@std@U?$pair@std@_OHVlocale@1@@1@@1@U?$equal_to@std@H@1@V?$allocator@std@U?$pair@std@HVlocale@1@@1@@1@@std@@QAEXI@Z
              4053:
                5657C7:
                  0. 07 01FE 05F1 0000:?_S_initialize@ios_base@std@@KAXXZ (05C5: E9)
                  1. 07 01FE 05F7 0000:?_S_initialize@ios_base@std@@KAXXZ (05C5: C3)
                89CB56:
                  0. 06 3680 0154 0000:?ignore@?$basic_istream@std@DV?$char_traits@std@D@1@@std@@QAEAAV12@HH@Z
                  1. 06 A4E6 014C 0000:?ignore@?$basic_istream@std@DV?$char_traits@std@D@1@@std@@QAEAAV12@HH@Z
                8B5D08:
                  0. 51 FEB3 01C1 0000:?_M_copy_unbuffered@?$basic_ostream@std@DV?$char_traits@std@D@1@@std@@AAE_NPAV?$basic_streambuf@std@DV?$char_traits@std@D@1@@2@0@Z
              44:
                5356578B:
                  0. 0A 0935 023D 0000:?_M_put_nowiden@?$basic_ostream@std@DV?$char_traits@std@D@1@@std@@QAEXPBD@Z (0209: B8)
                  1. 0A 0935 0241 0000:?_M_put_nowiden@?$basic_ostream@std@_YV?$char_traits@std@_Y@1@@std@@QAEXPB_Y@Z (0209: 5D)
                8B550853:
                  0. 13 04EA 01DE 0000:??8locale@std@@QBE_NABV01@@Z
              48535657C7:
                0. 20 4C14 01C4 0000:??$_M_get_num@std@DV?$char_traits@std@D@1@_Z@std@@YAHAAV?$basic_istream@std@DV?$char_traits@std@D@1@@1@AA_Z@Z (00E1: 0C)
                1. 20 4C14 01C4 0000:??$_M_get_num@std@DV?$char_traits@std@D@1@N@std@@YAHAAV?$basic_istream@std@DV?$char_traits@std@D@1@@1@AAN@Z (00E1: 14)
                2. 20 4C14 01C4 0000:??$_M_get_num@std@DV?$char_traits@std@D@1@M@std@@YAHAAV?$basic_istream@std@DV?$char_traits@std@D@1@@1@AAM@Z (00E1: 18)
                3. 20 4C14 01C7 0000:??$_M_get_num@std@DV?$char_traits@std@D@1@_Z@std@@YAHAAV?$basic_istream@std@DV?$char_traits@std@D@1@@1@AA_Z@Z (00E7: 0C)
                4. 20 4C14 01C7 0000:??$_M_get_num@std@DV?$char_traits@std@D@1@N@std@@YAHAAV?$basic_istream@std@DV?$char_traits@std@D@1@@1@AAN@Z (00E7: 14)
                5. 20 4C14 01C7 0000:??$_M_get_num@std@DV?$char_traits@std@D@1@M@std@@YAHAAV?$basic_istream@std@DV?$char_traits@std@D@1@@1@AAM@Z (00E7: 18)
              4C:
                538B5D0C:
                  0. 31 6747 0216 0000:??$append@?$basic_string@std@DV?$char_traits@std@D@1@V?$allocator@std@D@1@@std@PAD@?$basic_string@std@DV?$char_traits@std@D@1@V?$allocator@std@D@1@@std@@AAEAAV12@PAD0ABUforward_iterator_tag@2@@Z
                  1. 3F A45A 0247 0000:??$append@?$basic_string@std@_YV?$char_traits@std@_Y@1@V?$allocator@std@_Y@1@@std@PA_Y@?$basic_string@std@_YV?$char_traits@std@_Y@1@V?$allocator@std@_Y@1@@std@@AAEAAV12@PA_Y0ABUforward_iterator_tag@2@@Z
                8B450853:
                  0. 29 1956 01DC 0000:?_M_insert_aux@?$basic_string@std@DV?$char_traits@std@D@1@V?$allocator@std@D@1@@std@@AAEPADPADD@Z
                  1. 3C 7522 0208 0000:?_M_insert_aux@?$basic_string@std@_YV?$char_traits@std@_Y@1@V?$allocator@std@_Y@1@@std@@AAEPA_YPA_Y_Y@Z
              50:
                53565789:
                  0. 07 667F 0252 0000:?_M_put_char@?$basic_ostream@std@DV?$char_traits@std@D@1@@std@@QAEXD@Z
                8A4D0853:
                  0. 01 7255 0387 0000:?sync_with_stdio@ios_base@std@@SA_N_N@Z (0361: E9)
                  1. 01 7255 038D 0000:?sync_with_stdio@ios_base@std@@SA_N_N@Z (0361: C3)
              5853668B5D:
                0. 0B 4D19 02FC 0000:?_M_put_char@?$basic_ostream@std@_YV?$char_traits@std@_Y@1@@std@@QAEX_Y@Z
              605389CB56:
                0. 09 535A 027C 0000:?insert@_Catalog_locale_map@std@@QAEXHABVlocale@2@@Z
                1. 0C A146 0272 0000:?insert@_Catalog_locale_map@std@@QAEXHABVlocale@2@@Z
              648B451853:
                0. 0C 762A 00E4 0000:?do_put@?$money_put@std@DV?$ostreambuf_iterator@std@DV?$char_traits@std@D@1@@1@@std@@MBE?AV?$ostreambuf_iterator@std@DV?$char_traits@std@D@1@@2@V32@_NAAVios_base@2@D_Z@Z (0090: 00)
                1. 0C 762A 00C1 0000:?do_put@?$money_put@std@DV?$ostreambuf_iterator@std@DV?$char_traits@std@D@1@@1@@std@@MBE?AV?$ostreambuf_iterator@std@DV?$char_traits@std@D@1@@2@V32@_NAAVios_base@2@D_Z@Z (0090: E9)
              6853565789:
                0. 67 EDA7 02F9 0000:?insert@?$basic_string@std@_YV?$char_traits@std@_Y@1@V?$allocator@std@_Y@1@@std@@QAEXPA_YI_Y@Z
              7053565789:
                0. 53 EC58 02F0 0000:?insert@?$basic_string@std@DV?$char_traits@std@D@1@V?$allocator@std@D@1@@std@@QAEXPADID@Z
            8D:
              55:
                CC648925........83EC3053:
                  0. 0B CDAB 0199 0000:?do_get@_Messages_impl@std@@UBE?AV?$basic_string@std@_YV?$char_traits@std@_Y@1@V?$allocator@std@_Y@1@@2@HHHABV32@@Z
                D0648925........83EC2853:
                  0. 07 9411 01C1 0000:?do_get@_Messages_impl@std@@UBE?AV?$basic_string@std@_YV?$char_traits@std@_Y@1@V?$allocator@std@_Y@1@@2@HHHABV32@@Z
                DC648925........83EC3453:
                  0. 14 6E0A 01A1 0000:?_M_copy_from@?$hashtable@std@U?$pair@std@QBDU?$pair@std@PAXI@1@@1@PBDU?$hash@std@PBD@1@U?$_Select1st@std@U?$pair@std@QBDU?$pair@std@PAXI@1@@1@@1@U__eqstr@1@V?$allocator@std@U?$pair@std@PBDU?$pair@std@PAXI@1@@1@@1@@std@@AAEXABV12@@Z
                  1. 14 8E0E 01A1 0000:?_M_copy_from@?$hashtable@std@U?$pair@std@_OHVlocale@1@@1@HU?$hash@std@H@1@U?$_Select1st@std@U?$pair@std@_OHVlocale@1@@1@@1@U?$equal_to@std@H@1@V?$allocator@std@U?$pair@std@HVlocale@1@@1@@1@@std@@AAEXABV12@@Z
              95DCFEFFFF648925........83:
                0. 23 035A 016A 0000:??$__put_float@std@V?$ostreambuf_iterator@std@_YV?$char_traits@std@_Y@1@@1@@std@@YA?AV?$ostreambuf_iterator@std@_YV?$char_traits@std@_Y@1@@1@PAD0V21@AAVios_base@1@_Y_Y_YABV?$basic_string@std@DV?$char_traits@std@D@1@V?$allocator@std@D@1@@1@@Z (0122: E9)
                1. 23 035A 0194 0000:??$__put_float@std@V?$ostreambuf_iterator@std@_YV?$char_traits@std@_Y@1@@1@@std@@YA?AV?$ostreambuf_iterator@std@_YV?$char_traits@std@_Y@1@@1@PAD0V21@AAVios_base@1@_Y_Y_YABV?$basic_string@std@DV?$char_traits@std@D@1@V?$allocator@std@D@1@@1@@Z (0122: 04)
                2. 23 96DE 0164 0000:??$__put_float@std@PA_Y@std@@YAPA_YPAD0PA_YAAVios_base@1@_Y_Y_YABV?$basic_string@std@DV?$char_traits@std@D@1@V?$allocator@std@D@1@@1@@Z (011C: E9)
                3. 23 96DE 018E 0000:??$__put_float@std@PA_Y@std@@YAPA_YPAD0PA_YAAVios_base@1@_Y_Y_YABV?$basic_string@std@DV?$char_traits@std@D@1@V?$allocator@std@D@1@@1@@Z (011C: 8B)
            BAFEFFFF:
              7F648925........83EC:
                0. 21 0634 012C 0000:?append@?$basic_string@std@_YV?$char_traits@std@_Y@1@V?$allocator@std@_Y@1@@std@@QAEAAV12@I_Y@Z (00E1: B8)
                1. 21 0634 0130 0000:?append@?$basic_string@std@_YV?$char_traits@std@_Y@1@V?$allocator@std@_Y@1@@std@@QAEAAV12@I_Y@Z (00E1: 5D)
              FF648925........83EC:
                0. 1A CC5B 0123 0000:?append@?$basic_string@std@DV?$char_traits@std@D@1@V?$allocator@std@D@1@@std@@QAEAAV12@ID@Z (00D9: 8B)
                1. 1A CC5B 0118 0000:?append@?$basic_string@std@DV?$char_traits@std@D@1@V?$allocator@std@D@1@@std@@QAEAAV12@ID@Z (00D9: E9)
          68........52648925........83EC:
            0. 15 04CF 00CD 0000:_wmainCRTStartup (0094: 8B)
            1. 15 04CF 00CB 0000:_wWinMainCRTStartup (0094: 5D)
            2. 15 04CF 00CA 0000:_WinMainCRTStartup (0094: C3)
            3. 15 04CF 00CC 0000:_mainCRTStartup (0094: E5)
        89C8:
          68........52648925........83EC08C701:
            0. 00 0000 003E 0000:??0exception@std@@QAE@ABV01@@Z (0012: 04)
            1. 00 0000 003C 0000:??0exception@std@@QAE@XZ (0012: B8)
          83C00468........52648925........83EC:
            0. 07 9724 0039 0000:?what@__Named_exception@std@@UBEPBDXZ
        8D:
          41:
            1868........52648925........83EC1453:
              0. 0B 4B18 00C9 0000:??0?$ctype_byname@std@D@std@@QAE@PBDI@Z
            2068........52648925........83EC1489:
              0. 0A 52B2 0067 0000:?imbue@ios_base@std@@QAE?AVlocale@2@ABV32@@Z
          4514:
            68........528D550C648925........83:
              0. 0E 9668 0C8A 0000:?do_get@?$money_get@std@_YV?$istreambuf_iterator@std@_YV?$char_traits@std@_Y@1@@1@@std@@MBE?AV?$istreambuf_iterator@std@_YV?$char_traits@std@_Y@1@@2@V32@0_NAAVios_base@2@AAHAAV?$basic_string@std@_YV?$char_traits@std@_Y@1@V?$allocator@std@_Y@1@@2@@Z (0B8A: 0C)
              1. 0E 9668 0BBD 0000:?do_get@?$money_get@std@DV?$istreambuf_iterator@std@DV?$char_traits@std@D@1@@1@@std@@MBE?AV?$istreambuf_iterator@std@DV?$char_traits@std@D@1@@2@V32@0_NAAVios_base@2@AAHAAV?$basic_string@std@DV?$char_traits@std@D@1@V?$allocator@std@D@1@@2@@Z (0B8A: E9)
            8D4D0C68........52648925........83:
              0. 0D 3B9D 1092 0000:?do_get@?$money_get@std@_YV?$istreambuf_iterator@std@_YV?$char_traits@std@_Y@1@@1@@std@@MBE?AV?$istreambuf_iterator@std@_YV?$char_traits@std@_Y@1@@2@V32@0_NAAVios_base@2@AAHAAV?$basic_string@std@_YV?$char_traits@std@_Y@1@V?$allocator@std@_Y@1@@2@@Z (0F90: 45)
              1. 0D 3B9D 0FC2 0000:?do_get@?$money_get@std@DV?$istreambuf_iterator@std@DV?$char_traits@std@D@1@@1@@std@@MBE?AV?$istreambuf_iterator@std@DV?$char_traits@std@D@1@@2@V32@0_NAAVios_base@2@AAHAAV?$basic_string@std@DV?$char_traits@std@D@1@V?$allocator@std@D@1@@2@@Z (0F90: E9)
          4D:
            D868........52648925........83EC2053:
              0. 06 C465 01B9 0000:?replace3@RegExp@@SAPADPAD0IPAUregmatch@@@Z
            DC68........52648925........83EC:
              1853:
                0. 02 26E3 00AE 0000:?do_get@?$num_get@std@_YPB_Y@std@@MBEPB_YPB_Y0AAVios_base@2@AAHAAM@Z (0087: E9) (REF 0010: ?do_get@?$num_get@std@_YPB_Y@std@@MBEPB_YPB_Y0AAVios_base@2@AAHAAM@Z)
                1. 02 26E3 00AE 0000:?do_get@?$num_get@std@_YPB_Y@std@@MBEPB_YPB_Y0AAVios_base@2@AAHAAN@Z (0087: E9) (REF 0010: ?do_get@?$num_get@std@_YPB_Y@std@@MBEPB_YPB_Y0AAVios_base@2@AAHAAN@Z)
                2. 02 26E3 00AE 0000:?do_get@?$num_get@std@DPBD@std@@MBEPBDPBD0AAVios_base@2@AAHAA_Z@Z (0087: E9) (REF 0010: ?do_get@?$num_get@std@DPBD@std@@MBEPBDPBD0AAVios_base@2@AAHAA_Z@Z)
                3. 02 26E3 00AE 0000:?do_get@?$num_get@std@DPBD@std@@MBEPBDPBD0AAVios_base@2@AAHAAN@Z (0087: E9) (REF 0010: ?do_get@?$num_get@std@DPBD@std@@MBEPBDPBD0AAVios_base@2@AAHAAN@Z)
                4. 02 26E3 00AE 0000:?do_get@?$num_get@std@DPBD@std@@MBEPBDPBD0AAVios_base@2@AAHAAM@Z (0087: E9) (REF 0010: ?do_get@?$num_get@std@DPBD@std@@MBEPBDPBD0AAVios_base@2@AAHAAM@Z)
                5. 02 26E3 00AE 0000:?do_get@?$num_get@std@_YPB_Y@std@@MBEPB_YPB_Y0AAVios_base@2@AAHAA_Z@Z (0087: E9) (REF 0010: ?do_get@?$num_get@std@_YPB_Y@std@@MBEPB_YPB_Y0AAVios_base@2@AAHAA_Z@Z)
                6. 02 26E3 00D8 0000:?do_get@?$num_get@std@DPBD@std@@MBEPBDPBD0AAVios_base@2@AAHAA_Z@Z (0087: FF) (REF 0010: ?do_get@?$num_get@std@DPBD@std@@MBEPBDPBD0AAVios_base@2@AAHAA_Z@Z)
                7. 02 26E3 00D8 0000:?do_get@?$num_get@std@_YPB_Y@std@@MBEPB_YPB_Y0AAVios_base@2@AAHAAM@Z (0087: FF) (REF 0010: ?do_get@?$num_get@std@_YPB_Y@std@@MBEPB_YPB_Y0AAVios_base@2@AAHAAM@Z)
                8. 02 26E3 00D8 0000:?do_get@?$num_get@std@_YPB_Y@std@@MBEPB_YPB_Y0AAVios_base@2@AAHAA_Z@Z (0087: FF) (REF 0010: ?do_get@?$num_get@std@_YPB_Y@std@@MBEPB_YPB_Y0AAVios_base@2@AAHAA_Z@Z)
                9. 02 26E3 00D8 0000:?do_get@?$num_get@std@_YPB_Y@std@@MBEPB_YPB_Y0AAVios_base@2@AAHAAN@Z (0087: FF) (REF 0010: ?do_get@?$num_get@std@_YPB_Y@std@@MBEPB_YPB_Y0AAVios_base@2@AAHAAN@Z)
                10. 02 26E3 00D8 0000:?do_get@?$num_get@std@DPBD@std@@MBEPBDPBD0AAVios_base@2@AAHAAN@Z (0087: FF) (REF 0010: ?do_get@?$num_get@std@DPBD@std@@MBEPBDPBD0AAVios_base@2@AAHAAN@Z)
                11. 02 26E3 00D8 0000:?do_get@?$num_get@std@DPBD@std@@MBEPBDPBD0AAVios_base@2@AAHAAM@Z (0087: FF) (REF 0010: ?do_get@?$num_get@std@DPBD@std@@MBEPBDPBD0AAVios_base@2@AAHAAM@Z)
                12. 03 4F66 00CA 0000:?do_get@?$num_get@std@_YV?$istreambuf_iterator@std@_YV?$char_traits@std@_Y@1@@1@@std@@MBE?AV?$istreambuf_iterator@std@_YV?$char_traits@std@_Y@1@@2@V32@0AAVios_base@2@AAHAAN@Z (REF 0010: ?do_get@?$num_get@std@_YV?$istreambuf_iterator@std@_YV?$char_traits@std@_Y@1@@1@@std@@MBE?AV?$istreambuf_iterator@std@_YV?$char_traits@std@_Y@1@@2@V32@0AAVios_base@2@AAHAAN@Z)
                13. 03 4F66 00CA 0000:?do_get@?$num_get@std@_YV?$istreambuf_iterator@std@_YV?$char_traits@std@_Y@1@@1@@std@@MBE?AV?$istreambuf_iterator@std@_YV?$char_traits@std@_Y@1@@2@V32@0AAVios_base@2@AAHAAM@Z (REF 0010: ?do_get@?$num_get@std@_YV?$istreambuf_iterator@std@_YV?$char_traits@std@_Y@1@@1@@std@@MBE?AV?$istreambuf_iterator@std@_YV?$char_traits@std@_Y@1@@2@V32@0AAVios_base@2@AAHAAM@Z)
                14. 03 4F66 00CA 0000:?do_get@?$num_get@std@DV?$istreambuf_iterator@std@DV?$char_traits@std@D@1@@1@@std@@MBE?AV?$istreambuf_iterator@std@DV?$char_traits@std@D@1@@2@V32@0AAVios_base@2@AAHAA_Z@Z (REF 0010: ?do_get@?$num_get@std@DV?$istreambuf_iterator@std@DV?$char_traits@std@D@1@@1@@std@@MBE?AV?$istreambuf_iterator@std@DV?$char_traits@std@D@1@@2@V32@0AAVios_base@2@AAHAA_Z@Z)
                15. 03 4F66 00CA 0000:?do_get@?$num_get@std@DV?$istreambuf_iterator@std@DV?$char_traits@std@D@1@@1@@std@@MBE?AV?$istreambuf_iterator@std@DV?$char_traits@std@D@1@@2@V32@0AAVios_base@2@AAHAAN@Z (REF 0010: ?do_get@?$num_get@std@DV?$istreambuf_iterator@std@DV?$char_traits@std@D@1@@1@@std@@MBE?AV?$istreambuf_iterator@std@DV?$char_traits@std@D@1@@2@V32@0AAVios_base@2@AAHAAN@Z)
                16. 03 4F66 00CA 0000:?do_get@?$num_get@std@DV?$istreambuf_iterator@std@DV?$char_traits@std@D@1@@1@@std@@MBE?AV?$istreambuf_iterator@std@DV?$char_traits@std@D@1@@2@V32@0AAVios_base@2@AAHAAM@Z (REF 0010: ?do_get@?$num_get@std@DV?$istreambuf_iterator@std@DV?$char_traits@std@D@1@@1@@std@@MBE?AV?$istreambuf_iterator@std@DV?$char_traits@std@D@1@@2@V32@0AAVios_base@2@AAHAAM@Z)
                17. 03 4F66 00CA 0000:?do_get@?$num_get@std@_YV?$istreambuf_iterator@std@_YV?$char_traits@std@_Y@1@@1@@std@@MBE?AV?$istreambuf_iterator@std@_YV?$char_traits@std@_Y@1@@2@V32@0AAVios_base@2@AAHAA_Z@Z (REF 0010: ?do_get@?$num_get@std@_YV?$istreambuf_iterator@std@_YV?$char_traits@std@_Y@1@@1@@std@@MBE?AV?$istreambuf_iterator@std@_YV?$char_traits@std@_Y@1@@2@V32@0AAVios_base@2@AAHAA_Z@Z)
              1C53:
                0. 02 26E3 00EE 0000:?do_get@?$num_get@std@DV?$istreambuf_iterator@std@DV?$char_traits@std@D@1@@1@@std@@MBE?AV?$istreambuf_iterator@std@DV?$char_traits@std@D@1@@2@V32@0AAVios_base@2@AAHAAN@Z (REF 0010: ?do_get@?$num_get@std@DV?$istreambuf_iterator@std@DV?$char_traits@std@D@1@@1@@std@@MBE?AV?$istreambuf_iterator@std@DV?$char_traits@std@D@1@@2@V32@0AAVios_base@2@AAHAAN@Z)
                1. 02 26E3 00EE 0000:?do_get@?$num_get@std@_YV?$istreambuf_iterator@std@_YV?$char_traits@std@_Y@1@@1@@std@@MBE?AV?$istreambuf_iterator@std@_YV?$char_traits@std@_Y@1@@2@V32@0AAVios_base@2@AAHAAN@Z (REF 0010: ?do_get@?$num_get@std@_YV?$istreambuf_iterator@std@_YV?$char_traits@std@_Y@1@@1@@std@@MBE?AV?$istreambuf_iterator@std@_YV?$char_traits@std@_Y@1@@2@V32@0AAVios_base@2@AAHAAN@Z)
                2. 02 26E3 00EE 0000:?do_get@?$num_get@std@_YV?$istreambuf_iterator@std@_YV?$char_traits@std@_Y@1@@1@@std@@MBE?AV?$istreambuf_iterator@std@_YV?$char_traits@std@_Y@1@@2@V32@0AAVios_base@2@AAHAAM@Z (REF 0010: ?do_get@?$num_get@std@_YV?$istreambuf_iterator@std@_YV?$char_traits@std@_Y@1@@1@@std@@MBE?AV?$istreambuf_iterator@std@_YV?$char_traits@std@_Y@1@@2@V32@0AAVios_base@2@AAHAAM@Z)
                3. 02 26E3 00EE 0000:?do_get@?$num_get@std@DV?$istreambuf_iterator@std@DV?$char_traits@std@D@1@@1@@std@@MBE?AV?$istreambuf_iterator@std@DV?$char_traits@std@D@1@@2@V32@0AAVios_base@2@AAHAA_Z@Z (REF 0010: ?do_get@?$num_get@std@DV?$istreambuf_iterator@std@DV?$char_traits@std@D@1@@1@@std@@MBE?AV?$istreambuf_iterator@std@DV?$char_traits@std@D@1@@2@V32@0AAVios_base@2@AAHAA_Z@Z)
                4. 02 26E3 00EE 0000:?do_get@?$num_get@std@_YV?$istreambuf_iterator@std@_YV?$char_traits@std@_Y@1@@1@@std@@MBE?AV?$istreambuf_iterator@std@_YV?$char_traits@std@_Y@1@@2@V32@0AAVios_base@2@AAHAA_Z@Z (REF 0010: ?do_get@?$num_get@std@_YV?$istreambuf_iterator@std@_YV?$char_traits@std@_Y@1@@1@@std@@MBE?AV?$istreambuf_iterator@std@_YV?$char_traits@std@_Y@1@@2@V32@0AAVios_base@2@AAHAA_Z@Z)
                5. 02 26E3 00EE 0000:?do_get@?$num_get@std@DV?$istreambuf_iterator@std@DV?$char_traits@std@D@1@@1@@std@@MBE?AV?$istreambuf_iterator@std@DV?$char_traits@std@D@1@@2@V32@0AAVios_base@2@AAHAAM@Z (REF 0010: ?do_get@?$num_get@std@DV?$istreambuf_iterator@std@DV?$char_traits@std@D@1@@1@@std@@MBE?AV?$istreambuf_iterator@std@DV?$char_traits@std@D@1@@2@V32@0AAVios_base@2@AAHAAM@Z)
                6. 01 3E9B 0085 0000:??$__get_decimal_integer@std@PBDH@std@@YA_NAAPBD0AAH@Z (005F: E9) (REF 0010: ??$__get_decimal_integer@std@PBDH@std@@YA_NAAPBD0AAH@Z)
                7. 01 3E9B 0085 0000:??$__get_decimal_integer@std@V?$istreambuf_iterator@std@_YV?$char_traits@std@_Y@1@@1@H@std@@YA_NAAV?$istreambuf_iterator@std@_YV?$char_traits@std@_Y@1@@1@0AAH@Z (005F: E9) (REF 0010: ??$__get_decimal_integer@std@V?$istreambuf_iterator@std@_YV?$char_traits@std@_Y@1@@1@H@std@@YA_NAAV?$istreambuf_iterator@std@_YV?$char_traits@std@_Y@1@@1@0AAH@Z)
                8. 01 3E9B 0085 0000:??$__get_decimal_integer@std@PAD_Z@std@@YA_NAAPAD0AA_Z@Z (005F: E9) (REF 0010: ??$__get_decimal_integer@std@PAD_Z@std@@YA_NAAPAD0AA_Z@Z)
                9. 01 3E9B 0085 0000:??$__get_decimal_integer@std@PA_Y_Z@std@@YA_NAAPA_Y0AA_Z@Z (005F: E9) (REF 0010: ??$__get_decimal_integer@std@PA_Y_Z@std@@YA_NAAPA_Y0AA_Z@Z)
                10. 01 3E9B 0085 0000:??$__get_decimal_integer@std@V?$istreambuf_iterator@std@DV?$char_traits@std@D@1@@1@H@std@@YA_NAAV?$istreambuf_iterator@std@DV?$char_traits@std@D@1@@1@0AAH@Z (005F: E9) (REF 0010: ??$__get_decimal_integer@std@V?$istreambuf_iterator@std@DV?$char_traits@std@D@1@@1@H@std@@YA_NAAV?$istreambuf_iterator@std@DV?$char_traits@std@D@1@@1@0AAH@Z)
                11. 01 3E9B 0085 0000:??$__get_decimal_integer@std@PB_YH@std@@YA_NAAPB_Y0AAH@Z (005F: E9) (REF 0010: ??$__get_decimal_integer@std@PB_YH@std@@YA_NAAPB_Y0AAH@Z)
                12. 01 3E9B 00AF 0000:??$__get_decimal_integer@std@PA_Y_Z@std@@YA_NAAPA_Y0AA_Z@Z (005F: FF) (REF 0010: ??$__get_decimal_integer@std@PA_Y_Z@std@@YA_NAAPA_Y0AA_Z@Z)
                13. 01 3E9B 00AF 0000:??$__get_decimal_integer@std@PAD_Z@std@@YA_NAAPAD0AA_Z@Z (005F: FF) (REF 0010: ??$__get_decimal_integer@std@PAD_Z@std@@YA_NAAPAD0AA_Z@Z)
                14. 01 3E9B 00AF 0000:??$__get_decimal_integer@std@V?$istreambuf_iterator@std@DV?$char_traits@std@D@1@@1@H@std@@YA_NAAV?$istreambuf_iterator@std@DV?$char_traits@std@D@1@@1@0AAH@Z (005F: FF) (REF 0010: ??$__get_decimal_integer@std@V?$istreambuf_iterator@std@DV?$char_traits@std@D@1@@1@H@std@@YA_NAAV?$istreambuf_iterator@std@DV?$char_traits@std@D@1@@1@0AAH@Z)
                15. 01 3E9B 00AF 0000:??$__get_decimal_integer@std@V?$istreambuf_iterator@std@_YV?$char_traits@std@_Y@1@@1@H@std@@YA_NAAV?$istreambuf_iterator@std@_YV?$char_traits@std@_Y@1@@1@0AAH@Z (005F: FF) (REF 0010: ??$__get_decimal_integer@std@V?$istreambuf_iterator@std@_YV?$char_traits@std@_Y@1@@1@H@std@@YA_NAAV?$istreambuf_iterator@std@_YV?$char_traits@std@_Y@1@@1@0AAH@Z)
                16. 01 3E9B 00AF 0000:??$__get_decimal_integer@std@PBDH@std@@YA_NAAPBD0AAH@Z (005F: FF) (REF 0010: ??$__get_decimal_integer@std@PBDH@std@@YA_NAAPBD0AAH@Z)
                17. 01 3E9B 00AF 0000:??$__get_decimal_integer@std@PB_YH@std@@YA_NAAPB_Y0AAH@Z (005F: FF) (REF 0010: ??$__get_decimal_integer@std@PB_YH@std@@YA_NAAPB_Y0AAH@Z)
            E868........52648925........83EC108B:
              0. 0B DF75 0071 0000:?_M_deallocate@?$__node_alloc@std@$0@$0@@std@@CAXPAXI@Z (REF 0010: ?_M_deallocate@?$__node_alloc@std@$0@$0@@std@@CAXPAXI@Z)
              1. 0B DF75 0071 0000:?_M_deallocate@?$__node_alloc@std@$00$0@@std@@CAXPAXI@Z (REF 0010: ?_M_deallocate@?$__node_alloc@std@$00$0@@std@@CAXPAXI@Z)
          8D:
            30FFFFFF68........52648925........83:
              0. 16 6DD4 0AD7 0000:?do_put@?$money_put@std@DPAD@std@@MBEPADPAD_NAAVios_base@2@DABV?$basic_string@std@DV?$char_traits@std@D@1@V?$allocator@std@D@1@@2@@Z
            3CFFFFFF68........52648925........83:
              0. 13 13B4 0B53 0000:?do_put@?$money_put@std@_YPA_Y@std@@MBEPA_YPA_Y_NAAVios_base@2@_YABV?$basic_string@std@_YV?$char_traits@std@_Y@1@V?$allocator@std@_Y@1@@2@@Z
            4CFFFFFF68........52648925........83:
              0. 13 F716 0885 0000:?do_put@?$money_put@std@_YPA_Y@std@@MBEPA_YPA_Y_NAAVios_base@2@_YABV?$basic_string@std@_YV?$char_traits@std@_Y@1@V?$allocator@std@_Y@1@@2@@Z
            50FFFFFF68........52648925........83:
              0. 13 8547 07EE 0000:?do_put@?$money_put@std@DPAD@std@@MBEPADPAD_NAAVios_base@2@DABV?$basic_string@std@DV?$char_traits@std@D@1@V?$allocator@std@D@1@@2@@Z
            CCFEFFFF68........52648925........83:
              0. 13 A6BE 0C28 0000:?do_put@?$money_put@std@_YV?$ostreambuf_iterator@std@_YV?$char_traits@std@_Y@1@@1@@std@@MBE?AV?$ostreambuf_iterator@std@_YV?$char_traits@std@_Y@1@@2@V32@_NAAVios_base@2@_YABV?$basic_string@std@_YV?$char_traits@std@_Y@1@V?$allocator@std@_Y@1@@2@@Z
            D0FEFFFF68........52648925........83:
              0. 13 A62B 0DE3 0000:?do_put@?$money_put@std@_YV?$ostreambuf_iterator@std@_YV?$char_traits@std@_Y@1@@1@@std@@MBE?AV?$ostreambuf_iterator@std@_YV?$char_traits@std@_Y@1@@2@V32@_NAAVios_base@2@_YABV?$basic_string@std@_YV?$char_traits@std@_Y@1@V?$allocator@std@_Y@1@@2@@Z
            D4FEFFFF68........52648925........83:
              0. 13 A62B 0A7A 0000:?do_put@?$money_put@std@DV?$ostreambuf_iterator@std@DV?$char_traits@std@D@1@@1@@std@@MBE?AV?$ostreambuf_iterator@std@DV?$char_traits@std@D@1@@2@V32@_NAAVios_base@2@DABV?$basic_string@std@DV?$char_traits@std@D@1@V?$allocator@std@D@1@@2@@Z
            DCFEFFFF68........52648925........83:
              0. 13 E995 0C73 0000:?do_put@?$money_put@std@DV?$ostreambuf_iterator@std@DV?$char_traits@std@D@1@@1@@std@@MBE?AV?$ostreambuf_iterator@std@DV?$char_traits@std@D@1@@2@V32@_NAAVios_base@2@DABV?$basic_string@std@DV?$char_traits@std@D@1@V?$allocator@std@D@1@@2@@Z
        B8........68........52648925........83EC:
          0. 08 05A1 0AA3 0000:?make_classic_locale@_Locale_impl@std@@SAPAV12@XZ
          1. 14 15DF 00D5 0000:?_M_throw_failure@ios_base@std@@IAEXXZ
          2. 07 9724 0039 0000:?what@bad_typeid@std@@UBEPBDXZ (REF 0012: ?what@bad_typeid@std@@UBEPBDXZ)
          3. 07 9724 0039 0000:?what@bad_alloc@std@@UBEPBDXZ (REF 0012: ?what@bad_alloc@std@@UBEPBDXZ)
          4. 07 9724 0039 0000:?what@bad_cast@std@@UBEPBDXZ (REF 0012: ?what@bad_cast@std@@UBEPBDXZ)
          5. 07 9724 0039 0000:?what@bad_exception@std@@UBEPBDXZ (REF 0012: ?what@bad_exception@std@@UBEPBDXZ)
          6. 07 9724 0039 0000:?what@exception@std@@UBEPBDXZ (REF 0012: ?what@exception@std@@UBEPBDXZ)
      668B45086683F80176116683F820770B668B4D0866890D........5DC3:
        0. 05 3E58 00C6 0000:_tab_sizeset 0020:_tab_sizeget 002B:_tab_sizegetenv 007F:_tab_sizeputenv (00A0: C3)
        1. 05 3E58 00CA 0000:_tab_sizeset 0020:_tab_sizeget 002B:_tab_sizegetenv 0081:_tab_sizeputenv (00A0: 83)
      68:
        FF3F000068000000806A00D9450883EC0CDB3C24E88700000083C418:
          0. A7 69BB 028C 0000:_atanf 0022:_atan 0044:_atanl 0066:_atan2f 0085:_atan2 00A4:_atan2l (01C4: C3)
          1. A7 69BB 028F 0000:_atanf 0022:_atan 0044:_atanl 0066:_atan2f 0085:_atan2 00A4:_atan2l (01C4: 20)
        ........:
          E8........83C4045DC3:
            0. 00 0000 0012 (!)0000:? (REF 0004: __iob)
            1. 00 0000 0012 0000:__purecall (REF 0009: ___faterr)
          FF:
            15........5DC3558BEC68........FF15........5DC3:
              0. 00 0000 0020 0000:__STI_critical 0010:__STD_critical
              1. 04 A2CD 0040 0000:__rtl_critical_enter 0010:__rtl_critical_exit 0020:__STI_critical 0030:__STD_critical
            35........:
              6A00E8........83C40C85C07407B8010000:
                0. 05 FEED 0147 00E4:__wfindfirst 0130:__wfindnext (0121: C3)
                1. 05 FEED 0148 00E5:__wfindfirst 0131:__wfindnext (0121: 5D)
              FF15........85C07407B8010000005DC3FF:
                0. 01 5696 013D 00DE:_findfirst 0126:_findnext
            7508E8........83C4085DC3:
              0. 00 0000 0015 (!)0000:?
      6A:
        00:
          6A00:
            8D45:
              0C50FF75086A02E8........83C4145DC3:
                0. 00 0000 001A 0000:__wexecl (REF 0011: ___wspawn)
                1. 00 0000 001A 0000:_execl (REF 0011: ___spawn)
              1050FF750CFF7508E8........83C4145DC3:
                0. 00 0000 001B 0000:__wspawnl (REF 0012: ___wspawn)
                1. 00 0000 001B 0000:_spawnl (REF 0012: ___spawn)
            FF75:
              0CFF75086A02E8........83C4145DC3:
                0. 00 0000 0019 0000:__wexecv (REF 0010: ___wspawn)
                1. 00 0000 0019 0000:_execv (REF 0010: ___spawn)
              10FF750CFF7508E8........83C4145DC3:
                0. 00 0000 001A 0000:__wspawnv (REF 0011: ___wspawn)
                1. 00 0000 001A 0000:_spawnv (REF 0011: ___spawn)
          8D45:
            0C50E8........83C404508D4D0C51FF75086A02E8:
              0. 05 3760 0025 0000:__wexecle (REF 000A: ___wseek_envp)
              1. 05 3760 0025 0000:_execle (REF 000A: ___seek_envp)
            1050E8........83C404508D4D1051FF750CFF7508E8:
              0. 00 0000 0026 0000:__wspawnle (REF 000A: ___wseek_envp)
              1. 00 0000 0026 0000:_spawnle (REF 000A: ___seek_envp)
          E8........83C06C50DD450883EC0CDB3C24FF7510FF7514FF7518:
            0. 01 3E9B 0027 0000:_ecvt
          FF:
            15........5DC3:
              0. 00 0000 000D 0000:_coreleft
            75:
              10FF750CFF75086A02E8........83C4145DC3:
                0. 00 0000 001A 0000:__wexecve (REF 0011: ___wspawn)
                1. 00 0000 001A 0000:_execve (REF 0011: ___spawn)
              14FF7510FF750C:
                8B4508FF3485........FF15........85C0:
                  0. 07 B2F1 0107 0000:__dos_read 002D:__dos_write 0078:__dos_creat 00A7:__dos_creatnew 00D8:__dos_open
                FF7508E8........83C4145DC3:
                  0. 00 0000 001B 0000:__wspawnve (REF 0012: ___wspawn)
                  1. 00 0000 001B 0000:_spawnve (REF 0012: ___spawn)
        01:
          6A00:
            8D45:
              0C50FF75086A02E8........83C4145DC3:
                0. 00 0000 001A 0000:__wexeclp (REF 0011: ___wspawn)
                1. 00 0000 001A 0000:_execlp (REF 0011: ___spawn)
              1050FF750CFF7508E8........83C4145DC3:
                0. 00 0000 001B 0000:__wspawnlp (REF 0012: ___wspawn)
                1. 00 0000 001B 0000:_spawnlp (REF 0012: ___spawn)
            FF75:
              0CFF75086A02E8........83C4145DC3:
                0. 00 0000 0019 0000:__wexecvp (REF 0010: ___wspawn)
                1. 00 0000 0019 0000:_execvp (REF 0010: ___spawn)
              10FF750CFF7508E8........83C4145DC3:
                0. 00 0000 001A 0000:__wspawnvp (REF 0011: ___wspawn)
                1. 00 0000 001A 0000:_spawnvp (REF 0011: ___spawn)
          8D450C50E8........83C404508D4D0C51FF75086A02E8:
            0. 05 3760 0025 0000:__wexeclpe (REF 000A: ___wseek_envp)
            1. 05 3760 0025 0000:_execlpe (REF 000A: ___seek_envp)
          E8........83C06C50DD450883EC0CDB3C24FF7510FF7514FF7518:
            0. 01 3E9B 0027 0000:_fcvt
          FF75:
            08E81700000083C4085DC3558BEC6A02FF7508E80500000083:
              0. 0B DCB6 017B 0000:?set_new_handler@@YAP6AXXZP6AXXZ@Z 0012:?_set_new_handler@@YAP6AHI@ZP6AHI@Z@Z 00AB:??1bad_alloc@std@@UAE@XZ 0101:?what@bad_alloc@std@@UBEPBDXZ 013E:?set_new_handler@std@@YAP6AXXZP6AXXZ@Z (0146: B8)
              1. 0B DCB6 017C 0000:?set_new_handler@@YAP6AXXZP6AXXZ@Z 0012:?_set_new_handler@@YAP6AHI@ZP6AHI@Z@Z 00AC:??1bad_alloc@std@@UAE@XZ 0102:?what@bad_alloc@std@@UBEPBDXZ 013F:?set_new_handler@std@@YAP6AXXZP6AXXZ@Z (0146: C3)
              2. 0B DCB6 00AC 0000:?set_new_handler@@YAP6AXXZP6AXXZ@Z 0012:?_set_new_handler@@YAP6AHI@ZP6AHI@Z@Z (007F: C9)
              3. 0B DCB6 00AB 0000:?set_new_handler@@YAP6AXXZP6AXXZ@Z 0012:?_set_new_handler@@YAP6AHI@ZP6AHI@Z@Z (007F: C3)
            10FF750CFF75086A02E8........83C4145DC3:
              0. 00 0000 001A 0000:__wexecvpe (REF 0011: ___wspawn)
              1. 00 0000 001A 0000:_execvpe (REF 0011: ___spawn)
            14FF7510FF750CFF7508E8........83C4145DC3:
              0. 00 0000 001B 0000:__wspawnvpe (REF 0012: ___wspawn)
              1. 00 0000 001B 0000:_spawnvpe (REF 0012: ___spawn)
        0AFF750CFF7508E8........83C40C5DC20800C8040000837D0C0074:
          0. 14 2A92 1653 0152:_unmangle_ident 0C85:_unmangle_pt 13FA:___unmangle_vc_exception_type
          1. 14 6E99 1663 0155:_unmangle_ident 0C8F:_unmangle_pt 140A:___unmangle_vc_exception_type
        10FF750CFF7508E8........83C40C5DC20800C8040000837D0C0074:
          0. 14 2A92 1653 0152:_unmangle_ident 0C85:_unmangle_pt 13FA:___unmangle_vc_exception_type
          1. 14 6E99 1663 0155:_unmangle_ident 0C8F:_unmangle_pt 140A:___unmangle_vc_exception_type
        F6FF15........A3........6AF5FF15........A3........6AF4FF:
          0. 01 54B7 03CE 0000:__STI_init_std_files 002C:__STD_init_std_files 0031:_open 0057:_sopen 024B:_creat 0263:_close 02BD:_rename 02E0:_remove 0300:__dos_sethandlecount 0323:_lseek 0351:_filesize 038A:_access
        FDE81101000083C4045DC3C804000053560FB6450C8945FC0FB64D10:
          0. 2D B2F3 0245 0111:__getmbcp 011B:__setmbcp
        FF:
          648B15........68........52648925........83EC08:
            538B4D08:
              0. 11 1D8E 0319 0000:??0Type_info@@AAA@ABV0@@Z 0055:??4Type_info@@AAAAAV0@ABV0@@Z 0068:??1Type_info@@UAA@XZ 007F:??8Type_info@@QBAHABV0@@Z 0093:??9Type_info@@QBAHABV0@@Z 00A7:?before@Type_info@@QBAHABV1@@Z 00CF:?name@Type_info@@QBAPBDXZ 0122:??0type_info@std@@IAE@XZ 0134:??0type_info@std@@AAA@ABV01@@Z 014B:??4type_info@std@@AAAAAV01@ABV01@@Z 015E:??1type_info@std@@UAA@XZ 016C:??8type_info@std@@QBA_NABV01@@Z 0180:??9type_info@std@@QBA_NABV01@@Z 0194:?before@type_info@std@@QBA_NABV12@@Z 01BC:?name@type_info@std@@QBAPBDXZ 020F:??1bad_cast@std@@UAE@XZ 0257:?what@bad_cast@std@@UBEPBDXZ 0294:??1bad_typeid@std@@UAE@XZ 02DC:?what@bad_typeid@std@@UBEPBDXZ
              1. 11 52D2 0370 0000:??0Type_info@@AAA@ABV0@@Z 0055:??4Type_info@@AAAAAV0@ABV0@@Z 0068:??1Type_info@@UAA@XZ 00BA:??8Type_info@@QBAHABV0@@Z 00CE:??9Type_info@@QBAHABV0@@Z 00E2:?before@Type_info@@QBAHABV1@@Z 010A:?name@Type_info@@QBAPBDXZ 015D:??0type_info@std@@IAE@XZ 016F:??0type_info@std@@AAA@ABV01@@Z 0186:??4type_info@std@@AAAAAV01@ABV01@@Z 0199:??1type_info@std@@UAA@XZ 01A7:??8type_info@std@@QBA_NABV01@@Z 01BB:??9type_info@std@@QBA_NABV01@@Z 01CF:?before@type_info@std@@QBA_NABV12@@Z 01F7:?name@type_info@std@@QBAPBDXZ 024A:??1bad_cast@std@@UAE@XZ 02A0:?what@bad_cast@std@@UBEPBDXZ 02DD:??1bad_typeid@std@@UAE@XZ 0333:?what@bad_typeid@std@@UBEPBDXZ
            83EC:
              04:
                53:
                  0. 10 B345 03F2 (!)0000:? (!)0085:? (!)011A:? (!)013A:? (!)01F9:? (!)024D:? (!)02C8:? (!)032B:? (!)03D6:? (!)04C4:? (!)0524:? (!)0606:? (!)06D9:? (!)07BB:? (!)08D5:? (!)0978:? (!)0A3A:? (!)0A68:? (!)0AD2:? (!)0BF2:? (!)0D09:? (!)0D96:? (!)0DBD:? (!)0DF5:? (!)0E18:? (!)0E27:?
                89:
                  0. 06 2AE9 0052 0000:??0bad_cast@std@@QAE@ABV01@@Z (0020: 04)
                  1. 06 2AE9 0050 0000:??0bad_cast@std@@QAE@XZ (0020: B8)
                  2. 07 EA3B 0041 0000:??0exception@std@@QAE@XZ
              08:
                53:
                  0. 08 5AA7 03F2 (!)0000:? (!)0073:? (!)00F0:? (!)01A7:? (!)027B:? (!)02E0:? (!)033D:? (!)036B:? (!)0387:? (!)040F:? (!)06ED:? (!)0807:? (!)0830:? (!)0ADF:? (!)0B8E:? (!)0C2C:? (!)0C54:? (!)0D23:? (!)0DE3:? (!)0E1B:? (!)0F16:? (!)0FCE:? (!)1006:? (!)10E4:? (!)11DD:? (!)121C:? (!)122B:?
                  1. 10 5C62 03F2 (!)0000:? (!)00D3:? (!)0181:? (!)01B9:? (!)025C:? (!)028A:? (!)02B6:? (!)02D9:? (!)055B:? (!)05B0:? (!)05E7:?
                6A:
                  0. 02 503F 0247 0000:_RTLPoolCreate 006E:_RTLPoolAlloc 007B:_RTLPoolFree 008B:_RTLPoolDestroy 009B:??0RTLPool@@QAE@II@Z 0121:?ThreadNewBlock@RTLPool@@AAEXXZ 01D5:?Alloc@RTLPool@@QAEPAXXZ 021C:?Free@RTLPool@@QAEXPAX@Z 0239:?DumpAllocs@RTLPool@@QAEXXZ 0242:?DumpPools@RTLPool@@SAXXZ
              0C53:
                0. 11 0624 01F1 (!)0000:? (!)00DF:? (!)01C6:? (!)01D5:?
                1. 08 5AA7 03F2 (!)0000:? (!)00BC:? (!)0176:? (!)01F2:? (!)0226:? (!)03D0:? (!)046F:? (!)04D1:? (!)055A:? (!)0616:? (!)0670:? (!)07E4:? (!)099F:? (!)0AFC:? (!)0BE4:? (!)0C8A:? (!)0D38:? (!)0DD9:? (!)0E80:? (!)0EA8:? (!)0F3A:? (!)0FA9:? (!)0FED:? (!)1039:? (!)10F7:? (!)11AF:? (!)1260:? (!)1317:? (!)134F:? (!)140D:? (!)14C5:? (!)1576:? (!)162D:? (!)1665:? (!)1737:? (!)17FA:? (!)18B7:? (!)197A:? (!)19B9:? (!)19C8:?
                2. 11 7D9F 01B7 (!)0000:? (!)00C7:? (!)018C:? (!)019B:?
              1C53:
                0. 04 04FD 021E (!)0000:? (!)01F3:? (!)0202:? (01F7: 04)
                1. 04 04FD 022A (!)0000:? (!)01FF:? (!)020E:? (01F7: 68)
              2453:
                0. 32 2556 039D (!)0000:? (!)0108:? (!)0111:? (!)019A:? (!)02F5:? (!)031C:? (!)0342:? (!)0373:? (!)038B:?
            8B45:
              0C8B:
                0. 05 FB91 0035 0000:??2@YAPAXIPAX@Z (000B: E9)
              F464:
                0. 01 E967 0031 0000:??3@YAXPAX0@Z (000B: E9)
            FF7508:
              E8:
                0. 00 0000 003C 0000:??_Q@YAXPAXABUnothrow_t@std@@@Z (0012: B8) (REF 0020: ??3@YAXPAX@Z)
                1. 00 0000 003C 0000:??3@YAXPAXABUnothrow_t@std@@@Z (0012: B8) (REF 0020: _free)
                2. 00 0000 003D 0000:??_P@YAPAXIABUnothrow_t@std@@@Z (0012: C3)
              FF:
                0. 01 54B7 003D 0000:??3@YAXPAXABUnothrow_t@std@@@Z
          68........648B15........68........52648925........83EC:
            0. 12 70D6 00C7 0000:_wmainCRTStartup (007A: 45)
            1. 12 70D6 00C1 0000:_wWinMainCRTStartup (007A: 6A)
            2. 12 70D6 00CD 0000:_wmainCRTStartup (007A: 04)
            3. 12 70D6 00CB 0000:_wWinMainCRTStartup (007A: 8B)
            4. 12 70D6 00CA 0000:_WinMainCRTStartup (007A: 65)
            5. 12 70D6 00C0 0000:_WinMainCRTStartup (007A: 01)
            6. 12 70D6 00CC 0000:_mainCRTStartup (007A: C3)
            7. 12 70D6 00C6 0000:_mainCRTStartup (007A: FC)
          E8........83C404A820740F6A00E8........E8........83C404:
            0. 02 5F98 0022 0000:___DumpMemLeaks
      80650F7F0FB74516B90080000023C16609450EDD45085DC3558BEC8065:
        0. 5A 7400 00B7 0000:_copysign 001B:_copysignf 0036:_copysignl 0051:_fabs 005D:_fabsf 0069:_fabsl 0075:_nan 0080:_nanf 008B:_nans 0096:_nansf 00A1:_nanl 00AC:_nansl
        1. 4E FDD0 00AB 0000:_copysign 001B:_copysignf 0036:_copysignl 0051:_fabs 005D:_fabsf 0069:_nan 0074:_nanf 007F:_nans 008A:_nansf 0095:_nanl 00A0:_nansl
      81:
        3D........A403000075:
          1C8B45083D9F82000072073DF18200007604:
            0. 0F 5392 002F 0000:__ismbchira
          238B45083D:
            40830000720E3D968300007707:
              0. 16 FD94 0036 0000:__ismbckata
            41810000720E3DAC8100007707:
              0. 16 4022 0036 0000:__ismbcsymbol
        7D088000000019C0F7D85DC3558BEC817D088000000019C0F7D85DC3:
          0. 00 0000 0020 0000:_isascii 0010:___isascii
        EC:
          1C08000053:
            56578D8DF4F7FFFF31DB:
              31FFC785E8F7FFFF1C080000:
                0. 29 EEB2 01B9 (l)0000:ID_EXPAND
              BE00080000C785E8F7FFFF1C:
                0. 2A ADDB 01AC (l)0000:ID_EXPAND
            8D8DF4F7FFFF31DB56BE0008000057C785E8F7FFFF1C:
              0. 2A 2C72 01A9 (l)0000:ID_EXPAND
          94000000538D45A08B4D105657C78574FFFFFF940000008945D0C7:
            0. 28 50F2 0A3D 0000:__pformat
          BC000000538D8D78FFFFFF8B55105657C7854CFFFFFFBC00000089:
            0. 64 F77A 0B7B 0000:__wpformat
      83:
        3D........:
          00:
            74:
              06FF15........5DC3:
                0. 00 0000 0014 0000:___callve (REF 0005: ___ve_debughook)
                1. 00 0000 0014 0000:__setenvp (REF 0005: ___init_environ_ptr)
                2. 00 0000 0014 0000:___initmbctype (REF 0005: ___init_mbctype_ptr)
              0B6A01FF15........83C4045DC3558BEC833D:
                0. 00 0000 0032 0000:___rtl_init_cppexceptions 0019:___rtl_clean_cppexceptions
              0FFF15........B8010000005DC2040031C05DC204:
                0. 07 30B6 0045 0000:__BreakHandler@4 0021:_controlc_open 0033:_controlc_close
              1C8B5508FF45080FB60A0FB681........A8047403:
                0. 0E 9D4E 002E 0000:__mbsinc
            75:
              0BE8........FF05........5DC3558BEC5DC3:
                0. 00 0000 001E 0000:__allocinit 0019:__allocwrap
              3E688C0000006AFF68........E8........6A10B8:
                0. 00 0000 01E0 0000:__InitSemaphoreSys 004C:__DestroySemaphore 00B4:__DestroyAllSemaphores 0156:__WaitSemaphore 0178:__ReleaseSemaphore 019C:__LockSemaphore 01BE:__UnlockSemaphore
          017504DEF9EB0AB80D000000E8........5DC3:
            558BEC83:
              0. 01 1E1A 0065 0000:__FDIVP 001C:_FDIV_DETECT
            ..:
              0. 00 0000 001C 0000:__FDIVP
        7D080074:
          13FF750CFF7508E8........03450883C4085DC331C05DC3:
            0. 00 0000 0020 0000:__mbsninc
          24FF7508E8........83C40485C07415FF750868:
            0. 01 361F 0051 0000:__wperror (REF 000D: _wcslen)
            1. 01 361F 0051 0000:_perror (REF 000D: _strlen)
          28FF7508E8........83C40485C07419FF750868:
            0. 01 3E9B 0059 0000:_perror
          29FF7508FF15........83C40485C07419FF750868:
            0. 00 0000 005A 0000:__wperror
        EC:
          04FF750CE8........FF7508E8........83C4048945FCE8:
            0. 00 0000 00FE 0000:_fputc 0028:__fputc_nlock 0088:_fgetc 00AA:__fgetc_nlock
          08:
            53:
              5657:
                31F631FF89FB3BF7752683C750565357E8........83C4:
                  0. 06 D4D5 007F (l)0000:_trace_readline
                8B4508F64020010F85F800000083C0215068........FF:
                  0. 01 5696 0115 (l)0000:_trace_place
                BA01000000F066FF0455........740952E8........83:
                  0. 07 BA06 0056 0000:_malloc
              8B5D0883FB3C733B8B4D100BC97430F683........10753C8B:
                0. 0F E8C5 01EC 0000:_read
            837D080074:
              27837D140074218B4510488945104074178965FC8B:
                0. 17 2B74 0037 0000:?__vec_dtor@@YAXPAXIHP6CHXZ@Z
              48837D1400742A8B45088B40FC8945F88B45F84889:
                0. 2D F196 0058 0000:?__vec_delete@@YAXPAXHIP6CHXZ@Z
            8945FCFF7514FF7510FF750CFF7508FF75FCE8........83C414:
              0. 04 A1B6 0024 0000:__cpp_framehandler
            8B4508:
              53565750E8........89C1582BC19981E21F00000003C2:
                0. 0A E04E 0087 0000:___fp_lock
              85C074:
                288B4D1485C974218B4510488945104074178965:
                  0. 19 9CBB 0039 0000:?__vec_dtor@@YAXPAXIHP6CHXZ@Z
                478B451485C0742A8B45088B40FC8945F88B45F8:
                  0. 2D CD45 0058 0000:?__vec_delete@@YAXPAXHIP6CHXZ@Z
            DB6D08D9E59BDFE08945FC8B45FC25004700003D00040000744E:
              0. 50 3A20 0111 0000:_log1pl
              1. 50 3CAA 011E 0000:_log1pl
              2. 50 7975 012E 0000:_log1pl
          0C:
            53:
              5657:
                837D08FF75136A09E8........B8FFFFFFFF5F5E5B8BE5:
                  0. 0C 16DB 00F8 0000:__open_osfhandle
                8B750CBF........8B1D........833D........00744B:
                  0. 0E 59E4 00B2 (l)0000:_trace_addsym
                C745F80C000000FF750CE8........83C4048D:
                  0C450A00:
                    0. 09 F1AC 00F4 (l)0000:_execute@16
                  48055189:
                    0. 05 AA1F 00E8 (l)0000:_execute@16
              8B:
                45082D........569981E21F0000005703C2C1F80583C00A:
                  0. 23 D090 007F 0000:___fp_unlock
                5D0C5657FF7514FF751053C745F80C000000FF7508E8:
                  0. 00 0000 0143 (l)0000:_execute_via_path@16
            8B:
              45148B4D10538B5D0C8B550856C745F80C0000005750515352:
                0. 01 3E9B 014F (l)0000:_execute_via_path@16
              4D0CC745F80C00000053565751:
                E8........83C4048D500589:
                  0. 06 0D19 00EE (l)0000:_execute@16
                FF15........83C4048D1445:
                  0. 0B FA31 00FB (l)0000:_execute@16
          10:
            5356:
              57:
                803D........000F84EE01000068........68:
                  0. 01 3E9B 020B (l)0000:_trace_merge (REF 0118: .)
                C745:
                  F000000000BA02000000F066FF0455........7409:
                    0. 02 4684 00D6 0000:__wgetenv
                  F403000000837DF43C75136A18E8........C745F4:
                    0. 0F B9F9 010F 0000:___nt_creat
                  FC00000000BA02000000F066FF0455........7409:
                    0. 02 4684 00DB 0000:_getenv
                FF15........8945F4BA03000000F066FF0455:
                  0. 04 68C3 00C1 0000:_dup
              8B7510578B7D0CC745:
                F010000000837D1800741A897DFC68:
                  0. 00 0000 0160 (l)0000:_do_exec@20
                F410000000837D1800741A897DFC68:
                  0. 00 0000 0151 (l)0000:_do_exec@20
              8D45F050FF15........8B45088038007406837D0C007506:
                0. 08 2A5B 00F3 (l)0000:_trace_pro
            8B45:
              0853565750E8........89C1582BC19981E21F00000003C2:
                0. 29 E375 0085 0000:___fp_unlock
              185356578B7510C745:
                F0100000008B7D0C85C0741B897DFC:
                  0. 01 361F 0172 (l)0000:_do_exec@20
                F4100000008B7D0C85C0741B897DFC:
                  0. 01 361F 0167 (l)0000:_do_exec@20
          14:
            53:
              56:
                578B7D08C745EC14000000:
                  A1........8B15........8945:
                    0. 06 B04D 0088 0000:_wcstod
                  C745F000000000C745F4000000:
                    0. 03 7533 0084 0000:_wcstod
                  DB2D........57DB7DF0E8:
                    0. 00 0000 0080 0000:_wcstold
                8B750C57FF7514FF751056C745F014000000FF7508E8:
                  0. 00 0000 014E (l)0000:_execute_via_path@16
              D9EE56578B7D08C745EC14000000DB7DF057E8........89C3:
                0. 0D FCF6 007B 0000:_wcstold
            568B45088B400C578945FC6AFF6A0068........64FF35:
              0. 00 0000 008D 0000:__local_unwind
            8B45148B4D1053568B750C8B5508C745F0140000005750515652:
              0. 01 3E9B 0158 (l)0000:_execute_via_path@16
          18:
            53:
              5657833D........000F858E000000C705........01000000:
                0. 01 FB44 00AB (l)0000:_trace_init
              8B:
                450C8B4D1056258FFF000081E170000000570BC189450CF7:
                  0. 6F 435F 020C 0000:_sopen (017C: C3)
                  1. 6F 435F 0210 0000:__wsopen (017C: 5B)
                5D0883FB3C735B8B4D100BC97450F683........1475688B:
                  0. 07 70C5 022A 0000:_write
            8B450C8B4D10258FFF000081E1700000000BC15389450C5657F6:
              0. 6F E3D6 020A 0000:__wsopen
            DB6D08D9E59BDFE0DDD825004500003D0004000074:
              1E3D004400:
                0. 26 4D5A 00C0 0000:_tanl
