03FFFF:
  0000000000........0400000003FFFF0000000000........08000000:
    0. 88 29AA 00A8 0000:?
    1. 48 FC85 0068 0000:?
  8000010000........0400000003FFFF8000010000........08000000:
    0. 08 A5AA 0A38 0000:? (0290: 00)
    1. 08 A5AA 02B8 0000:?
0AC97512D9FAC30AC9750BC3D9E49BDFE09B9E75EBC3E9:
  0. 00 0000 001B (l)0000:fFSQRT (l)0007:_rtforsqrtinf (l)000C:_rtforsqrtzero (l)0016:sqrtindfnpop
0C:
  00008000000000........010000000C01008000000000........02000000:
    0. 08 FF05 0FF8 0000:?
  FFA2........A2........A2........A2........A2........A2:
    0. 01 6076 002D 0000:___lconv_init (0009: 33)
    1. 01 6076 002B 0000:___lconv_init (0009: C3)
0F:
  B6:
    442404:
      5068........E8........C20400:
        0. 00 0000 0013 0000:_Dns_GetKeyProtocolString@4 (REF 0007: _KeyProtocolTable)
        1. 00 0000 0013 0000:_Dns_GetDnssecAlgorithmString@4 (REF 0007: _DnssecAlgorithmTable)
      8B0D........668B04412500800000C3:
        0. 00 0000 0015 0000:_isleadbyte
    4C24048B15........33C0668B044A2500800000C3:
      0. 00 0000 0017 0000:_isleadbyte
    81:
      A1000000C3:
        0. 00 0000 0008 0000:?IsFlushing@CBaseInputPin@@QAEHXZ
      A9000000C3:
        0. 00 0000 0008 0000:?IsFlushing@CBaseInputPin@@QAEHXZ
  B7:
    15........0FB705........2BC20FB7C9400FAFC10FB70D........2BCA:
      0. 0A 5450 002A 0000:@Arith_GetCount@4
    44240450E8........85C074:
      058B4008EB0233C0C20400:
        0. 00 0000 0019 0000:_Family_SockaddrLength@4
      06668B4002EB036633C0C20400:
        0. 00 0000 001B 0000:_Family_DnsType@4
    8140010000560FB7B13C0100000FB7893E0100002BC6400FB7D20FAFC248:
      0. 0C 0741 002C 0000:@Arith_GetCount@8
  BF:
    42040FBF4A020FBF1252E8........85C07D0483C8FFC30FBF0E8D04408D:
      0. 15 4C26 0035 (l)0000:_seconds_since_1970@8
    51020FBF41040FBF095251E8........85C07D0483C8FFC30FBF0E8D0440:
      0. 16 59F5 0036 (l)0000:_seconds_since_1970@8
257321536D62547261636544657265666572656E6365486561703A20436F756E:
  0. 50 98C1 014D 005C:_SmbTraceDereferenceHeap@4
2A2A2A20496E7465726E616C20636F6E73697374656E6379206572726F72202D:
  0. 81 CEFF 00E8 0096:_AcpisimDecrementIrpCount@4
  1. 8C D81D 00E4 0096:_AcpisimDecrementIrpCount@4
2B442404C20400:
  0. 00 0000 0007 (l)0000:_GetElapsedTime@8
33:
  C0:
    32C985C08BD0740BF6C2017402FEC1D1FA75F58B542404888C027D080000:
      0. 0B 4C56 002B 0000:_create_ones_table@4
    33C98A4C2404D17C240483E1010BC1D1E0FF4C2408837C2408007FE40FB7:
      0. 06 3F24 0026 (l)0000:_bi_reverse@8
    39:
      01:
        0F94C0C3:
          0. 00 0000 0008 (!)0000:?
        741D668B012B44240825FFFF00003B44240472056A5758EB0603C289:
          0. 06 8270 0026 (l)0000:_RxpSetPointer@16
      05........:
        0F9FC0C3:
          0. 00 0000 000C 0000:?IsLocked@CClassFactory@@SGHXZ
        74:
          26A3........A3........A3........A1........83F8:
            0. 05 4A55 0031 0000:?MSPLogDeRegister@@YGXXZ
          4C56FF35........BE........56E8........5668:
            0. 00 0000 0059 0000:_ReleaseStaticEntries@4
      41:
        100F95C0C3:
          0. 00 0000 0009 0000:?Valid@CUnicodeString@@QAEHXZ
        140F:
          94C0C3:
            0. 00 0000 0009 0000:?IsStopped@CBaseFilter@@QAEHXZ
          95C0C3:
            0. 00 0000 0009 0000:?ThreadExists@CAMThread@@QBEHXZ
        18:
          0F:
            94C0C3:
              0. 00 0000 0009 0000:?IsStopped@CBaseFilter@@QAEHXZ
            95C0C3:
              0. 00 0000 0009 0000:?IsConnected@CBasePin@@QAEHXZ
          750240C350FF7108894118FF15........33C0C3:
            0. 00 0000 0019 0000:?InactivateWindow@CBaseWindow@@UAEJXZ
        1C0F95C0C3:
          0. 00 0000 0009 0000:?IsConnected@CBasePin@@QAEHXZ
        280F95C0C3:
          0. 00 0000 0009 0000:?IsQueued@COutputQueue@@IAEHXZ
        340F95C0C3:
          0. 00 0000 0009 0000:?IsQueued@COutputQueue@@IAEHXZ
        387E153941407E103941447E0B33D239414C0F94C28BC2C3B8120204:
          0. 02 1C77 0022 0000:?Alloc@CBaseAllocator@@MAEJXZ
      4424:
        04740F8B4C2404234C24083B4C2404750140C20800:
          0. 00 0000 001A 0000:?IsValidSetOfMediaTypes@CMSPAddress@@UAEHKK@Z
        08:
          0F94C08D840001400080C20800:
            0. 00 0000 0013 0000:?get_PrerollTime@CSourcePosition@@UAGJPAN@Z
          568BF1740DC746:
            08........89866C020000508BCEE8:
              0. 01 361F 003E 0000:??0?$CComObject@VCVideoCaptureTerminal@@@ATL@@QAE@PAX@Z
            10........898684020000508BCEE8:
              0. 01 361F 0056 0000:??0?$CComObject@VCAudioRenderTerminal@@@ATL@@QAE@PAX@Z (REF 000E: ??_8?$CComObject@VCAudioRenderTerminal@@@ATL@@7B@)
              1. 01 361F 0056 0000:??0?$CComObject@VCAudioCaptureTerminal@@@ATL@@QAE@PAX@Z (REF 000E: ??_8?$CComObject@VCAudioCaptureTerminal@@@ATL@@7B@)
        0C7450578B7C240C568B74240C668B06663D5A007709663D41008D:
          0. 39 A215 0059 0000:__wcsnicmp
    40C2:
      0400:
        0. 00 0000 0006 (!)0000:?
      0C00:
        0. 00 0000 0006 0000:?ShouldDrawSampleNow@CBaseRenderer@@UAEJPAUIMediaSample@@PA_J1@Z
      1800:
        0. 00 0000 0006 0000:?AlterQuality@CTransformFilter@@UAEJUtagQuality@@@Z
    50:
      50:
        5050:
          68F7000000FF15........CC:
            0. 00 0000 0012 0000:___report_gsfailure
          6AFFFF74241CFF74241CE8........C20800:
            0. 00 0000 0018 0000:_DnsAddrArray_AppendArray@8
        68........50:
          50FF742418506800000600E8........C20400:
            0. 00 0000 001D 0000:_DnssrvClearStatistics@4 (REF 0005: ??_C@_0BA@OKMIKEII@ClearStatistics?$AA@)
            1. 00 0000 001D 0000:_DnssrvWriteDirtyZones@4 (REF 0005: ??_C@_0BA@IDFFFODA@WriteDirtyZones?$AA@)
          FF742418FF742418506800000600E8........C20800:
            0. 00 0000 0020 0000:_DnssrvIncrementZoneVersion@8 (REF 0005: ??_C@_0BB@OBCGIJJF@IncrementVersion?$AA@)
            1. 00 0000 0020 0000:_DnssrvDeleteZone@8 (REF 0005: ??_C@_0L@OMEABEAD@DeleteZone?$AA@)
            2. 00 0000 0020 0000:_DnssrvPauseZone@8 (REF 0005: ??_C@_09MEFFAGHK@PauseZone?$AA@)
            3. 00 0000 0020 0000:_DnssrvResumeZone@8 (REF 0005: ??_C@_0L@FHIHHPBN@ResumeZone?$AA@)
        FF7424:
          0C50FF35........E8........C20400:
            0. 00 0000 0017 0000:_Dns_DbgHeapAlloc@4
          10FF74241050FF35........E8........C20800:
            0. 00 0000 001B 0000:_Dns_DbgHeapRealloc@8
      FF74240C5050505050505068........FF74242C6A:
        1FE8........83C4:
          0. 04 CEC1 0024 0000:_RxNetMessageNameAdd@8
        20E8........83C4:
          0. 04 CEC1 0024 0000:_RxNetMessageNameDel@8
    568BF1:
      89068946043905........74135668........6802000800E8:
        0. 00 0000 0029 0000:??0AsyncEventStruct@CPTEventSink@@QAE@XZ
      8D4E1889461089460C894608894614894604E8........8BC65EC3:
        0. 00 0000 0020 (!)0000:?
    5789018941048941088D790CABABABAB8BC15FC3:
      0. 00 0000 0016 0000:??0CWiauFormatConverter@@QAE@XZ
    66:
      8B1141416685D274196683FA30720B6683FA39770533C040EBE56683FA:
        0. 06 D86E 0026 0000:@Dns_IsNameNumericW@4
      B80800663B41:
        561BC040C3:
          0. 00 0000 000E 0000:?IsPalettised@CImageDisplay@@QAEHXZ
        661BC040C3:
          0. 00 0000 000E 0000:?IsPalettised@CImageDisplay@@QAEHXZ
    81C1:
      90000000390174078B098B01FF60:
        4CC3:
          0. 00 0000 0014 0000:?EndOfStream@CTransformFilter@@UAEJXZ
        50C3:
          0. 00 0000 0014 0000:?BeginFlush@CTransformFilter@@UAEJXZ
      A8000000390174078B098B01FF60:
        4CC3:
          0. 00 0000 0014 0000:?EndOfStream@CTransformFilter@@UAEJXZ
        50C3:
          0. 00 0000 0014 0000:?BeginFlush@CTransformFilter@@UAEJXZ
    837C2404FF7507BA00000080EB25688096980050FF74240CFF15:
      0. 18 69DF 0038 0000:_NetpSecondsToDeltaTime@4
    84D279036A105853BB0002000085D35657740383C808F6C604740383C804:
      0. 77 6460 0097 (l)0000:___abstract_cw_sse2
    89:
      018941043905........74135168........6802000800E8........83:
        0. 03 00F2 0023 0000:??1AsyncEventStruct@CPTEventSink@@QAE@XZ
      81:
        A400000089819800000089819C0000008981A00000008981A8000000:
          0. 14 8422 0034 0000:?StartStreaming@CVideoTransformFilter@@MAEJXZ
        BC0000008981B00000008981B40000008981B80000008981C0000000:
          0. 14 0E5F 0034 0000:?StartStreaming@CVideoTransformFilter@@MAEJXZ
    8A:
      114184D2741680FA307C0A80FA397F0533C040EBEA80FA2E74E533C0C3:
        0. 00 0000 0020 (!)0000:?
      4424043C617C093C7A7F3783E847EB343C417C093C5A7F2A83E841EB27:
        0. 2A 3EA2 004A 0000:_Dns_SecurityBase64CharToBits@4
    8B0CC5........3B4C2404740E4083F87672EDB8E50000C0C204008B04C5:
      0. 00 0000 0026 0000:_NetpApiStatusToNtStatus@4
    B9:
      008000008B5424048B5218668324100040404975EFC20400:
        0. 00 0000 001B (l)0000:_lm_init_clear_tables@4
      ........:
        40F00FC101408B4C24048B114A23C28B4C81088B5424088902:
          0. 0B 712C 002B 0000:_rc4_safe_select@12
        870185C0740650E8........C20400:
          0. 00 0000 0016 0000:_ShutdownRNG@4
    BA........8B4C2404390A740F83C2084081FA........72F033C0C38B04:
      0. 01 D961 0027 (l)0000:__get_fname
    C2:
      0400:
        0. 00 0000 0005 (!)0000:?
      0800:
        0. 00 0000 0005 (!)0000:?
      0C00:
        0. 00 0000 0005 (!)0000:?
    EB:
      1080F9397F120FBEC98D04808D4441D0428A0A80F9307DE9C3:
        0. 00 0000 001C (l)0000:_atoui@4
      146683F93977170FB7C9428D04808D4441D04233C9668B0A6683F93073:
        0. 02 2138 0022 (l)0000:_atoui@4
    F6:
      C2107405B880000000F6C208535657BB0002000074020BC3F6C2047405:
        0. 80 D092 00A0 (l)0000:___hw_cw_sse2
      C310740140F6C308740383C804F6C304740383C808F6C302740383C810:
        0. 6E 9386 008E (l)0000:__hw_cw
      C5207406B800080000C3F6C5407406B8000B0000C3F6C5087406B8000D:
        0. 34 FA1C 0054 (l)0000:_SysnameTokenToSysnameType@4
    F7C10000200174046A1058C3F7C10000C00074046A2058C3F7C100001000:
      0. 12 D116 0032 (l)0000:_DeviceTokenToDeviceType@4
  C9:
    568B7424084181FE000000407E07B900800000EB453BF17E0B03C98BC10F:
      0. 42 7813 0062 0000:?isqrt@@YGHH@Z
    B8........8B103B542404740E83C008413D........7CED33C0C38B04CD:
      0. 00 0000 0025 (l)0000:__get_fname
  D2EB048BD08BC8E8........85C075F38BC2C3:
    0. 00 0000 0014 0000:@Dns_GetTldForNameA@4 (REF 0009: @Dns_GetDomainNameA@4)
    1. 00 0000 0014 0000:@Dns_GetTldForName@4 (REF 0009: @Dns_GetDomainName@4)
3B:
  0D........75:
    01C3E9:
      0. 00 0000 000E 0000:@__security_check_cookie@4 (REF 0002: ___security_cookie)
    09F7C10000FFFF7501C3E9:
      0. 00 0000 0016 0000:@__security_check_cookie@4
  C1568BF2741785F67413538D6424008A198A108818408811414E75F35B5EC3:
    0. 00 0000 0020 (l)0000:_swap
3D00100000730EF7D803C483C0048500948B0050C3518D4C240881E900100000:
  0. 1D 631E 003D 0000:__alloca_probe (l)0015:probesetup (l)001A:probepages (l)002E:lastpage
3E0FB60551F0DFFFC3:
  0. 00 0000 0009 0000:_KeGetCurrentProcessorNumber@0
41:
  43504953494D3A00CCCCCCCCCC8BFF558BEC81ECD4070000A1........8945:
    0. 10 C7B9 0063 000E:_AcpisimDbgPrint
  63706973696D437265617465436C6F7365202D20756E657870656374656420:
    0. 21 99FE 0093 0030:_AcpisimCreateClose@8
45:
  583A205061676561626C6520636F64652063616C6C6564206174204952514C:
    0. 78 0A28 011E 0090:_ArbAddAllocation@8
    1. E6 1915 0205 00F8:_ArbDumpArbitrationList@8
    2. 43 200C 0119 0058:_ArbpGetRegistryValue@12
    3. 41 2E70 00FD 0058:_ArbDeleteArbiterInstance@4
    4. A4 3098 015B 00BC:_ArbBacktrackAllocation@8
    5. FF 3102 0770 0240:_ArbBuildAssignmentOrdering@16
    6. FF 3F30 05ED 0366:_ArbArbiterHandler@12
    7. 6A 54AC 010F 0082:_ArbInitializeOrderingList@4
    8. BB 6C17 02E8 00D2:_ArbShareDriverExclusive@8
    9. 43 6DBD 015B 0058:_ArbOverrideConflict@8
    10. 78 727C 010A 0090:_ArbDumpArbiterInstance@8
    11. FF 82FB 0307 0168:_ArbRetestAllocation@8
    12. F7 8C30 0369 010E:_ArbPruneOrdering@20
    13. 58 9738 0104 0070:_ArbSortArbitrationList@4
    14. 94 9B33 01A3 00A8:_ArbDumpArbiterRange@12
    15. BB 9D6E 023E 00D0:_ArbTestAllocation@8
    16. FF 9F79 059B 016E:_ArbQueryConflict@20
    17. 74 A1C3 00FA 008C:_ArbpQueryConflictCallback@8
    18. FF A7AE 03BB 01E0:_ArbBootAllocation@8
    19. FF BA26 046B 01DC:_ArbInitializeArbiterInstance@24
    20. 82 BFFF 01B1 009A:_ArbAddOrdering@20
    21. C2 D1CA 01AF 00DA:_ArbCopyOrderingList@8
    22. 74 D25F 0105 008C:_ArbFreeOrderingList@4
    23. BA D8F5 027D 00D0:_ArbpUpdatePriority@8
    24. FF DB06 0421 019E:_ArbAllocateEntry@8
    25. 3D F1F8 0095 0058:_ArbPreprocessEntry@8 (0020: 09)
    26. 3D F1F8 0098 0058:_ArbAddReserved@12 (0020: 0E)
    27. 3D F1F8 0095 0058:_ArbStartArbiter@8 (0020: 0F)
    28. 82 F4A2 01E7 0094:_ArbpBuildAllocationStack@12
    29. 82 F6CF 01C0 0098:_ArbFindSuitableRange@8
    30. 40 FAF4 00B0 0058:_ArbCommitAllocation@4 (0043: 89)
    31. 40 FAF4 00A4 0058:_ArbRollbackAllocation@4 (0043: 00)
    32. 40 FAF4 00AF 0058:_ArbDereferenceArbiterInstance@4 (0043: 75)
    33. 83 FF63 0171 0098:_ArbpBuildAlternative@12
  6E746572696E6720:
    4163706973696D:
      4164644465766963652E0A0000000000:
        0. FF 5007 02E1 0122:_AcpisimAddDevice@8 (01C0: 08)
        1. FF 5007 02E0 0122:_AcpisimAddDevice@8 (01C0: 00)
      436F6D706C6574:
        65534972702E0A0000:
          0. 34 EDE5 00BA 0044:_AcpisimCompleteSIrp@20
        696F6E526F7574696E:
          0. 32 86CD 0083 004C:_AcpisimCompletionRoutine@12
      44:
        30436F6D706C6574696F6E2E0A0000:
          0. 79 5A52 0133 008C:_AcpisimD0Completion@12
        69737061746368:
          496F63746C0A0000:
            0. 2C 326F 00AF 0044:_AcpisimDispatchIoctl@8
          50:
            6E702E0A000000:
              0. 7E 4FE6 0136 008C:_AcpisimDispatchPnp@8
            6F7765722E0A00:
              0. 84 CEA8 013F 0092:_AcpisimDispatchPower@8
          53797374656D436F:
            0. 3B 3474 009B 0054:_AcpisimDispatchSystemControl@8
      466F7277617264497270416E64576169:
        0. B3 6B58 0180 00C4:_AcpisimForwardIrpAndWait@8
        1. 3B DA55 00EB 004C:_AcpisimForwardIrpAndWait@8
      47656E6572616C44697370617463680A:
        0. D1 13C3 01D3 00E4:_AcpisimGeneralDispatch@8
        1. D1 D0B0 01D3 00E4:_AcpisimGeneralDispatch@8
      4973737565506F776572444972702E0A:
        0. FF 9B30 041A 029E:_AcpisimIssuePowerDIrp@12
        1. FF C214 0622 0436:_AcpisimIssuePowerDIrp@12
      50:
        6E70:
          43616E63656C:
            52656D6F766544:
              0. BC 68FC 0153 00D4:_AcpisimPnpCancelRemoveDevice@8
              1. 6C A20F 00EC 0084:_AcpisimPnpCancelRemoveDevice@8
            53746F70446576:
              0. BA 0134 0151 00D2:_AcpisimPnpCancelStopDevice@8
              1. 6A 2964 00EA 0082:_AcpisimPnpCancelStopDevice@8
          5175657279:
            4361706162696C69:
              0. 95 4A03 0173 00A8:_AcpisimPnpQueryCapabilities@8
            52656D6F76654465:
              0. FF 585C 02B6 01A0:_AcpisimPnpQueryRemoveDevice@8
              1. 85 94C8 0162 0098:_AcpisimPnpQueryRemoveDevice@8
            53746F7044657669:
              0. 7F 4BA7 015C 0092:_AcpisimPnpQueryStopDevice@8
              1. FF 9FDE 022A 0132:_AcpisimPnpQueryStopDevice@8
          52656D6F76654465766963652E:
            0. FF 25E3 0353 0232:_AcpisimPnpRemoveDevice@8
            1. C7 7E21 0195 00DA:_AcpisimPnpRemoveDevice@8
          53:
            74:
              6172744465766963652E0A:
                0. FF 3DBB 0375 022A:_AcpisimPnpStartDevice@8
                1. FF 8A65 0231 013A:_AcpisimPnpStartDevice@8
              6F704465766963652E0A00:
                0. 9A 9560 0130 00B0:_AcpisimPnpStopDevice@8
                1. FF AD59 021C 0168:_AcpisimPnpStopDevice@8
            7572707269736552656D6F76:
              0. 3C 79E6 00A8 0052:_AcpisimPnpSurpriseRemoval@8
              1. 8C A548 0113 00A2:_AcpisimPnpSurpriseRemoval@8
        6F776572:
          5175657279506F7765722E:
            0. 68 6002 00F6 0076:_AcpisimPowerQueryPower@8
          53:
            4972702E0A00:
              45786974:
                0. 28 9CC5 00B0 003C:_AcpisimPowerSIrp@8
              643A5C78:
                0. A0 ECA8 0149 00B4:_AcpisimPowerSIrp@8
            6574506F7765722E0A00:
              0. 62 7789 00F0 0070:_AcpisimPowerSetPower@8
      5175657279506F776572444972702E0A:
        0. 82 12CC 0160 0096:_AcpisimQueryPowerDIrp@8
        1. FF 4B97 028E 0176:_AcpisimQueryPowerDIrp@8
      536574506F776572444972702E0A0000:
        0. 81 582A 0196 008C:_AcpisimSetPowerDIrp@8
        1. FF B66E 02FA 0190:_AcpisimSetPowerDIrp@8
    447269766572456E7472790A000000556E61626C652074:
      0. 56 0F31 0129 006E:_DriverEntry@8
4C6F77657374416C7465726E61746976653A205B25695D20307825493634782D:
  0. FF 1E8C 06B1 0298:_ArbGetNextAllocationRange@8
51:
  3D001000008D4C2408721481E9001000002D0010000085013D0010000073EC:
    0. 0F 17C4 002F (!)0000:? (l!)000C:? (l!)0020:?
  51:
    33C05733FF40397C241089442408897C24047470538B1D........555657:
      0. 01 169E 008C 0000:_MMCIsMTNodeValid@8
    53:
      555657FF15........8B3D........33ED55BB........535555894424:
        0. 11 6960 0070 0000:_MMCPropertyHelp@4
      8B1D........5556578BF18DBEA400000057FFD3EB3557FF15:
        0. 21 E101 0090 0000:?StartUsingOutputPin@CDynamicOutputPin@@UAEJXZ
  53:
    5556:
      33DB391D........578BF1741168........6802000800E8:
        0. 35 985E 0158 0000:?CreateFilters@CAudioCaptureTerminal@@QAEJXZ
      578BF98D47505089442414FF15........8B77088B4424188B5E0C8B:
        0. 1F AD80 00AB 0000:?Advise@CAMSchedule@@QAE_JAB_J@Z
      8B742414:
        668B5E7233C0668B4670578DBEBC0700008D8EB703000089:
          0. 82 F513 012B 0000:_SwitchToNewCab@4
        69F6E0000000578BBE........33DB885C2413FF15:
          0. 00 0000 009C 0000:_SmbTraceDisconnect@4
    568BF1578B3D........8D467C5089442410FFD78B46788B5C2414530598:
      0. 0F 7458 011C 0000:?PrepareReceive@CBaseRenderer@@UAEJPAUIMediaSample@@@Z
    8B:
      1D........:
        5556578BF18D7E4457FFD38D6E6455FFD36A0FFF15:
          0. 00 0000 0054 0000:?UnsetPalette@CBaseWindow@@QAEXXZ
        5657FF15........8B3D........8BF08974240C81E60000:
          0. 04 16C4 007E 0000:_Dns_GetCurrentTimeInSeconds@0
      5C2410558B6C2410565733FF897C2410E9DC01000083BDDC2E0000010F:
        0. 17 021C 022B 0000:_decode_data@8
  55:
    33ED837C240C09896C2404740F6A0DFF15........33C0E9F3000000568B:
      0. 1C BFD1 0116 0000:_Sig_RecordBuild@8
    565733ED8BF0396E246A02896C24105F0F840E02000053837E24027E3E0F:
      0. 74 0E16 025D (l)0000:_deflate@4
  56:
    578BF18D7E1857FF15........837E1400740433F6EB218D442408506A00:
      0. 02 2E67 0047 0000:?Create@CAMThread@@QAEHXZ
    8BF1:
      837E2800751B8D442404506A006A00C7465401000000E8........83:
        0. 08 45BC 0046 0000:?SendAnyway@COutputQueue@@QAEXXZ
      8B4610484875725355578B3D........33DB535353536AFFFF760C53:
        0. 04 85A8 0083 0000:?Ansi@CUnicodeString@@IAEPBDXZ
  813D........000100000F840C01000083242400535556B8........578BF8:
    0. 01 169E 0124 0000:_tkCreateOutlineFont@4 (002D: 03) (REF 0003: _outlineFont)
    1. 01 169E 0124 0000:_tkCreateStrokeFont@4 (002D: 03) (REF 0003: _strokeFont)
    2. 01 169E 0124 0000:_tkCreateFilledFont@4 (002D: 05)
  8324240053568BF085F6578BF90F8C2401000083FE63BBB20700007E083BF3:
    0. 4D B0F5 0142 (l)0000:_days_so_far@12
  8D4C240C2BC873048D44240C593D00100000730EF7D803C483C0048500948B:
    0. 2B F235 004B 0000:__alloca_probe (l)000D:error_continue (l)0023:probesetup (l)0028:probepages (l)003C:lastpage
  A1........:
    535556:
      5733ED6A04BA........598BFA8BF033DBF3A77431BB:
        0. 00 0000 0067 0000:_GetBitCount@4
      85C057C74424100100000075106851030000E8:
        0. 02 399C 010E (l)0000:__setlocale_get_all
    566A2889442408E8........8BF085F60F84:
      02010000538B5C24:
        0. 11 AF40 012C 0000:_Tkey_RecordRead@20
      EF000000538B5C24:
        0. 11 CBAF 0119 0000:_Tsig_RecordRead@20
    89042433C0F644240C1074278B4C2408668B51146683FA047406:
      0. 1D 05CA 0045 0000:_NetpValidateJoinStateAndActions@8
    8B54240857894424046A1033C0598BFAF3AB668B4424148B4C24:
      0. 1A 42FA 0042 0000:_DnsAddr_BuildFromIp4@12
  E8........C3:
    0. 00 0000 0007 0000:??1CMediaType@@QAE@XZ (REF 0002: ?FreeMediaType@@YGXAAU_AMMediaType@@@Z)
  FF15........:
    85C07D0650E8........C3:
      0. 00 0000 0012 0000:??1_variant_t@@QAE@XZ
    C3:
      0. 00 0000 0008 (!)0000:? (REF 0003: VariantClear)
52004F004F0054000000000052004F004F0054000000CCCCCCCCCCCC8BFF558B:
  0. 05 1009 01B8 001C:_ArbShareDriverExclusive@8
53:
  006300730069004D0069006E00690050006F00720074000000:
    558BEC515153:
      0. 26 7FE9 02F7 001A:_ScsiWmipProcessRequest@36
    CCCCCCCCCCCC:
      0. 2C 7385 02EC 0020:_ScsiWmipProcessRequest@36
      1. 2C C38E 0302 0020:_ScsiWmipProcessRequest@36
  0F:
    B75C240C560FB735........57668B3D........0FB7C72BF00FB7442412:
      0. 0A 464B 0125 0000:@Arith_Remove_Symbol@8
    BF5C240C568B74240C3B9E282500007D1E8A862E2500003C107D050FBEC0:
      0. 27 37FD 0064 (l)0000:_count_len@8
  33:
    C056B92100000057558B7C2414F3ABAA8B7424188A0684C0750733C0E9BE:
      0. 40 C829 00E6 0000:___lc_strtolc
    D28D5C2410563954241057557E398B3B83C304B9FFFFFFFF2BC0F2AEF7D1:
      0. 2E A02A 004E 0000:__strcats
    DB391D........740433C05BC35657BE........56891D........891D:
      0. 00 0000 004F 0000:_Dns_StartServerSecurity@0
  55:
    33:
      C0568B742410578B7E08B900000100F3AB8B46048B8E304300008B9634:
        0. D8 0F82 019B 0000:_init_compression_memory@4
      DB391D........568BF1BD02000800740D68........55E8........59:
        0. 0B CDD7 00D3 0000:?AddFiltersToGraph@CAudioRenderTerminal@@UAEJXZ (00A6: 5B)
        1. 0B CDD7 0103 0000:?AddFiltersToGraph@CAudioCaptureTerminal@@UAEJXZ (00A6: 68)
      ED392D........578B7C2410BB02000800740F5768........53E8:
        0. 00 0000 00C6 0000:?FreeEventItem@@YGHPAUMSPEVENTITEM@@@Z
    56:
      33DB391D........578B:
        F1BD02000800740D68........55E8:
          0. 08 2504 0089 0000:?InternalAddRef@CMSPStream@@IAEKXZ
        F9BD02000800740D68........55E8:
          0. 0E FDA0 0098 0000:?CreateFilters@CVideoCaptureTerminal@@AAEJXZ
      578B:
        7C2414:
          833D........017E0F0FB6076A0850E8........5959EB0F:
            0. 05 09B0 00AE 0000:__atoi64 (0065: 03)
            1. 05 09B0 008B 0000:_atol (0065: C3)
          8B472C5089442418FF15........33DB395F08752E8D77F4:
            0. 3A 8465 006B 0000:?Pause@CBaseFilter@@UAGJXZ
        F156FF15........33C08D7E18B919010000F3AB8B7C241433ED3B:
          0. 11 48E0 00BF 0000:?RefreshDisplayType@CImageDisplay@@QAEJPAD@Z
        F98B6F3C33DB85ED7E1A8B47388B3498FF7424148B068BCEFF5058:
          0. 0B 4BF6 0075 0000:?IsMonikerInTerminalList@CMSPAddress@@MAEJPAUIMoniker@@@Z
      8B:
        35........8BD98B43085733FF3BC7740650FFD6897B088B430C3BC7:
          0. 1E 16C6 007E 0000:?Set@CUnicodeString@@QAEPAU_UNICODE_STRING@@PAU2@@Z
        742410:
          33C08A865C02000033ED33DB455783E00F2BC3743D48742048:
            0. 0F 8C08 0088 0000:_MCIDestroyCompressionGlobal@4
          578D7E3C8BC72BC650566A00FF742424BD0000008055BB0008:
            0. 09 BF90 0061 0000:_Dns_WriteFormattedSystemTimeToBuffer@8
          69F6E000000033DB389E........570F85AF0000008B3D:
            0. 00 0000 00D4 0000:_SmbTraceInitialize@4
          8B5E045733FF6A045A897E0889BE3443000089BE3843000089:
            0. 2A EFB1 0166 0000:_comp_alloc_compress_memory@4
    578B7C24108D5F7053FF15........33ED396F08740B8B476C396818750C:
      0. 06 A22D 0095 0000:?Stop@CBaseRenderer@@UAGJXZ
    8B:
      2D........568B:
        742410:
          578BBECC00000083C77C57FFD58B9ECC000000:
            0. 0B B3BC 005F 0000:?BeginFlush@CRendererInputPin@@UAGJXZ
          8D46505089442414FFD533C039460874558B8E:
            0. 46 9CA5 0087 0000:?Stop@CTransformFilter@@UAGJXZ
        F1578D7E2457FF15........8D4E0CE8........8BD8:
          0. 11 0014 0051 0000:?GetThreadMsg@CMsgThread@@UAEXPAVCMsg@@@Z
      6C24:
        0C:
          33DB:
            391D........5774135568........6802000800E8:
              0. 00 0000 0168 0000:?FireEventCallBack@CPTEventSink@@CGKPAX@Z
            3BEB750433C0EB5F565755E8........8D7C000257E8:
              0. 00 0000 0074 0000:?ConvertBSTRToString@_com_util@@YGPADPAG@Z
          8BD9396B40741455FF15........85C08944240C750E3B6B4077:
            0. 31 1768 0066 0000:?ReallocFormatBuffer@CMediaType@@QAEPAEK@Z
        10568BF569F6E000000033DB389E........750AB8010000C0E96D:
          0. 0E 2484 0196 0000:_SmbTraceStop@8
  56:
    33DB:
      391D........578BF1BF02000800740D68........57E8........59:
        0. 2D 51EE 0064 0000:?FinalRelease@CMSPStream@@UAEXXZ
      578BF1438BCEE8........85C0741E68........536A10E8:
        0. 0B A8DE 0114 0000:?ThreadProc@CSourceStream@@MAEKXZ
    57:
      33DB:
        33FF395C241068........0F94C343FF15........8BF085F67437:
          0. 01 361F 007F 0000:_NetpUpdateAutoenrolConfig@4
        8B7C2418391F761D8B74241456FF742414FF54242883C40885C074:
          0. 14 162C 0034 0000:__lfind
      668B79040FBFF78BC66A04995BF7FB85D2752B8BC66A64995BF7FB85D2:
        0. 1B 27AE 0083 (l)0000:_advance_date@4
      68:
        96000000E8........8BD885DB741D83EC108BFC8D742420A5A5A553:
          0. 02 46B5 003C 0000:_Dns_Ip6AddressToReverseNameAlloc_W@16
        ........6A036A028BF1E8........8B462883C40C85C074068B0850:
          0. 09 2FA4 00E0 0000:??1COutputQueue@@QAE@XZ
      6A:
        01FF742418E8........8B74241085F68BF875038B77188D5E4C53FF:
          0. 01 54B7 0060 0000:_DbgHeapSetHeaderFree@8
        4BE8........8BD885DB741D83EC108BFC8D742420A5A5A553A5E8:
          0. 00 0000 0039 0000:_Dns_Ip6AddressToReverseNameAlloc_A@16
      8B:
        7C24:
          10:
            57E8........FF7424148BD8FF15........FF7424188D7443:
              0. 08 6843 003D 0000:_NetpAddTStrToTStrArray@8
            8B:
              1FEB588BF3837E14008B1B754E6A018D462050FF74241CE8:
                0. 00 0000 0080 0000:_NetpAddTlnFtinfoEntry@8
              774083C67456FF15........FF74241457E8........8BD8:
                0. 15 478E 0041 0000:?Receive@CTransformInputPin@@UAGJPAUIMediaSample@@@Z
              B7CC00000083C67456FF15........8D4FF48B01FF50388B:
                0. 15 7BEC 0041 0000:?EndOfStream@CTransformInputPin@@UAGJXZ
              D9EB18568BCFE8........508BCBE8........85C0741885:
                0. 1B 5A18 003B 0000:?AddHead@CBaseList@@QAEHPAV1@@Z
              F18B0657FF50288BD885DB8B068BCE7D08FF502CE9800000:
                0. 89 91F8 00A9 0000:?AttemptConnection@CBasePin@@IAEJPAUIPin@@PBVCMediaType@@@Z
            8D77F4F7DE8D47041BF623F056FF15........8B5C241485DB:
              0. 1B 6A0B 0047 0000:?SetNotify@CBaseAllocator@@UAGJPAUIMemAllocatorNotifyCallbackTemp@@@Z
          148BD9EB20568BCFE8........50FF7424148BCBE8........85:
            0. 23 4D1B 0043 0000:?AddAfter@CBaseList@@QAEHPAU__POSITION@@PAV1@@Z
            1. 23 74B7 0043 0000:?AddBefore@CBaseList@@QAEHPAU__POSITION@@PAV1@@Z
          1C85FF74038327008B5C241885DB746A8B74241483FE01740485:
            0. 6B 66CA 008B 0000:?Next@?$CComEnumImpl@UIEnumTerminalClass@@$1?IID_IEnumTerminalClass@@3U_GUID@@BU3@V?$_Copy@U_GUID@@@ATL@@@ATL@@UAGJKPAU_GUID@@PAK@Z
        C16A04BA........598BFA8BF033DBF3A7740E6A048D702C598BFA33:
          0. 0C 06F8 002C 0000:?IsPartiallySpecified@CMediaType@@QBEHXZ
        D16A04B8........598BF88BF233DBF3A7740E6A048BF8598D722C33:
          0. 0C 06F8 002C 0000:?IsPartiallySpecified@CMediaType@@QBEHXZ
        D9E8........33FF47837C2414000F84A90000008B50100FB7480C8D:
          0. D4 D65C 00F4 (l)0000:_copy_block@16
        F1:
          33FF:
            33DB397E0876398B0603C70FB70883E908741349740583E904:
              0. 19 AD80 0053 0000:??1CDispParams@@QAE@XZ
            39BED0000000BB........751068A51100005368........E8:
              0. 00 0000 012A 0000:?AssertValid@CDynamicOutputPin@@AAEXXZ
          8BFEF7DF8D46:
            101BFF23F857FF15........FF15........8BD82B:
              0. 0D 60E2 004F 0000:?GetPrivateTime@CBaseReferenceClock@@UAE_JXZ
            141BFF23F88BCFE8........FF15........8BD82B:
              0. 0D 688B 004F 0000:?GetPrivateTime@CBaseReferenceClock@@UAE_JXZ
          8D:
            7E:
              0857FF15........8B5C241085DB74068B0353FF50048B4660:
                0. 25 136D 0058 0000:?SetSyncSource@CCmdQueue@@UAEJPAUIReferenceClock@@@Z
              1857FF15........33DB395E147507BEFFFF0080EB0F8B4648:
                0. 0F B564 005A 0000:?PauseThread@CPullPin@@AAEJXZ
              5057FF15........8B46088B70088B580C57FF15........5F:
                0. 07 6439 0027 0000:?GetNextAdviseTime@CAMSchedule@@QAE_JXZ
            BE:
              9400000057FF15........33DB395E60753C8B467839581874:
                0. 29 E641 0060 0000:?SendRepaint@CBaseRenderer@@QAEXXZ
              A00000008B1F83C35853FF15........8B0FE8........85C0:
                0. 14 096C 0076 0000:?Active@CSourceStream@@MAEJXZ
              A400000057FF15........83BECC00000000570F97C3FF15:
                0. 00 0000 0029 0000:?StreamingThreadUsingOutputPin@CDynamicOutputPin@@UAE_NXZ
        F88B8298090000394424107F2A7D048B4424108BB2940900008BC88B:
          0. 52 B861 0072 (l)0000:_read_input_data@12
      BF........57FF15........83CBFF391D........BE........750839:
        0. 01 1C3B 006B 0000:_Dns_RefreshSSpiCredentialsHandle@8
      FF7424:
        108BF18D5E7C53FF742420FF742420E8........33FF578D4E54:
          0. 02 D3ED 00B9 0000:??0CBaseRenderer@@QAE@ABU_GUID@@PAGPAUIUnknown@@PAJ@Z
        148BD9FF742414E8........8B74241C:
          33C08943108943148943:
            0. 1A 1D53 003A 0000:??0CBaseMediaFilter@@QAE@PBGPAUIUnknown@@PAVCCritSec@@ABU_GUID@@@Z
          8B4C241833C089431489:
            0. 2A 0694 004A 0000:??0CBaseFilter@@QAE@PAGPAUIUnknown@@PAVCCritSec@@ABU_GUID@@PAJ@Z (REF 000E: ??0CUnknown@@QAE@PBGPAUIUnknown@@@Z)
            1. 2A 0694 004A 0000:??0CBaseFilter@@QAE@PADPAUIUnknown@@PAVCCritSec@@ABU_GUID@@PAJ@Z (REF 000E: ??0CUnknown@@QAE@PBDPAUIUnknown@@@Z)
            2. 2A 66F3 004A 0000:??0CBaseFilter@@QAE@PBDPAUIUnknown@@PAVCCritSec@@ABU_GUID@@@Z (REF 000E: ??0CUnknown@@QAE@PBDPAUIUnknown@@@Z)
            3. 2A 66F3 004A 0000:??0CBaseFilter@@QAE@PBGPAUIUnknown@@PAVCCritSec@@ABU_GUID@@@Z (REF 000E: ??0CUnknown@@QAE@PBGPAUIUnknown@@@Z)
        188BF18D7E5C57FF74241CFF74241CE8........33DB578B3D:
          0. 00 0000 0048 0000:??0CTransformFilter@@QAE@PAGPAUIUnknown@@ABU_GUID@@@Z (REF 0016: ??0CBaseFilter@@QAE@PBGPAUIUnknown@@PAVCCritSec@@ABU_GUID@@@Z)
          1. 00 0000 0048 0000:??0CTransformFilter@@QAE@PADPAUIUnknown@@ABU_GUID@@@Z (REF 0016: ??0CBaseFilter@@QAE@PBDPAUIUnknown@@PAVCCritSec@@ABU_GUID@@@Z)
        1C8BF1FF74241CE8........33DB538D7E146A018BCFE8:
          0. 00 0000 0078 0000:??0CBaseControlWindow@@QAE@PAVCBaseFilter@@PAVCCritSec@@PAGPAUIUnknown@@PAJ@Z
    6A006A006A006A008BD9FF15........8BF085F675075E5BE9........56:
      0. 03 C2A6 0081 0000:?SynchronousBlockOutputPin@CDynamicOutputPin@@IAEJXZ
    8B:
      4424180BC075188B4C24148B44241033D2F7F18BD88B44240CF7F18BD3:
        0. 48 D0A0 0068 0000:__aulldiv
      5C24:
        0C5783FBFF74628B7C24148D770C8B06A8017508A8807451A80275:
          0. 09 316F 0077 0000:_ungetc
        10578B7C24105585DB8D77047E3083C708BD003800006A038B0623:
          0. 07 19F9 0073 0000:__AdjustStack
      71045733FF85F67E198B19FF7424108BCBE8........85C075114783C3:
        0. 12 44B8 0032 0000:?Find@?$CMSPArray@U_THREADPOOLWAITBLOCK@CMSPCallMultiGraph@@$07$07@@QBEHAAU_THREADPOOLWAITBLOCK@CMSPCallMultiGraph@@@Z
      7424:
        0C:
          0FB746060FB74E0840410FAFC1C1E00250E8........598B4C24:
            0. 0C 2F0B 00B4 0000:_RawImageGetData@8
          33DB3BF3:
            7420395E087615578D7E0CFF37E8........4383C704:
              0. 08 344D 0031 0000:_DnssrvFreeDirectoryPartitionList@4
            750433C0EB3055FF36E8........8BE83BEB750433C0:
              0. 10 9AC6 0045 0000:_Ip6Array_CreateFromIp4Array@4 (REF 0014: _Ip6Array_Create@4)
              1. 10 9AC6 0045 0000:_DnsAddrArray_CreateFromIp4Array@4 (REF 0014: _DnsAddrArray_Create@4)
          57:
            33:
              DB33FF3BF374416A0256E8........50E8........8BF83B:
                0. 0E DFA9 0058 0000:_DnsAddrArray_CreateIp4Array@4
              FF:
                393D........74135668........6802000800E8:
                  0. 00 0000 01D9 0000:?Shutdown@CMSPAddress@@UAGJXZ
                8D9E340E00006A0356E8........88043B4783FF087CEF:
                  0. 17 5DBB 0047 0000:_read_aligned_offset_tree@4
            55833D........017E100FB6066A0850E8........83C408EB:
              0. 06 C0C2 0096 0000:_atol
            66833E008BC674288B7C2414668B:
              0F6685C98BDF7411668B10:
                0. 1F A6CC 003F 0000:_wcscspn
              17668B088BDF663BCA740E:
                0. 1F E9E3 003F 0000:_wcsspn
            6A018D860E430000508D9E1E430000538D86EE420000506A08:
              0. 02 26E3 0041 0000:_encode_aligned_tree@4
            85F675068B35........66833E008B7C2414742A668B076685:
              0. 65 E606 009C 0000:_wcstok
            8B:
              3D........6A105B0FB6441C134B8BC8C1E9045183E00F50:
                0. 01 361F 0045 0000:_Dns_Ip6AddressToReverseName_W@20
              7E:
                2457FF15........8B5C241485DB74068B0353FF50048B:
                  0. 12 FBD1 003E 0000:?SetSyncSource@CBaseMediaFilter@@UAGJPAUIReferenceClock@@@Z
                2C57FF15........8B5C241485DB74068B0353FF50048B:
                  0. 12 A6F2 003E 0000:?SetSyncSource@CBaseFilter@@UAGJPAUIReferenceClock@@@Z
            8D7EF433DBF7DF8D46041BFF23F857FF15........395E4475:
              0. 09 1081 0074 0000:?Decommit@CBaseAllocator@@UAGJXZ
            FFB6A80000008DBEE4070000FF7648FFB684000000FF561083:
              0. 66 0633 0137 0000:_FDIReadCFDATAEntry@8
          69F6E0000000:
            57:
              8B3D........8D9E........8BCBFFD78B8E:
                0. 00 0000 00A3 0000:_SmbTraceDereferenceHeap@4
              8DBE........8BCFB301FF15........83BE:
                0. 00 0000 004B 0000:_SmbTraceReferenceHeap@4
            8B86........8B58043B187444578BFBC1E70403:
              0. 01 8DAC 0064 0000:_SmbTraceFreeMemory@4
          6A016A00FFB688000000FF561C8BD883C40C83FBFF750F6A006A:
            0. 04 F5C1 00A9 0000:_FDICallEnumerate@4
          837E3400577E12837E38007E0C8B464085C0740D83F803740D33:
            0. 23 BF40 0073 0000:?CheckHeaderValidity@CImageDisplay@@SGHPBUtagVIDEOINFO@@@Z
          8B:
            460833DB3BC357740B50FF964843000059895E088DBE344300:
              0. 8D BB02 00BD 0000:_comp_free_compress_memory@4
            56:
              04576A04C686B52E0000045F8A86B52E00000FB6C88A89:
                0. 00 0000 0055 0000:_allocate_decompression_memory@4
              0C668B5E08578B7C24148B470C8BCAC1E903C1E80383E103:
                0. 4E F6FD 00A6 0000:_Dns_RecordCompare@8
          8D:
            4644833801750633DB2118EB0D50FF15........8BD885DB75:
              0. 2F FA2E 004F 0000:?Release@CMediaSample@@UAGKXZ
            86BC0700008D8EB70300008948048D8EB80400008948088D8E:
              0. 6F 236C 00A0 0000:_doCabinetInfoNotify@4
        1085F6:
          577D0DFF742410FF15........598BF08B7C241846578D04:
            0. 03 0A2E 0045 0000:_NetpDuplicateString@12
          742F8B5C240C85DB742753E8........85C0741D8BCBC1E1:
            0. 20 3FDD 0040 0000:_Ip6Array_CreateFromFlatArray@8
        1C2B74241856E8........8BD885DB74430FB7CE8B7424188BD157:
          0. 15 1005 005E 0000:_Wins_RecordRead@20
      F0578B7E0CF7C7000000040F84B70000008B5E04E8........85C07529:
        0. 15 4C9B 011A (l)0000:_TypeParseNoLeadSlashName@4
      F1:
        33DB:
          385E4075105353FF7634FF7608FF15........EB62395E0C57BF:
            0. 00 0000 0082 0000:?SetPalette@CBaseWindow@@QAEJXZ
          395E:
            08:
              577535395E0CBF........741068FA0100005768:
                0. 00 0000 00B6 0000:?UninitialiseWindow@CBaseWindow@@UAEJXZ
              763D5733FF8B0603C70FB70883E908741349740583E904:
                0. 19 AD80 0053 0000:??1CDispParams@@QAE@XZ
            28744156FF15........33C040395E588946447503894658:
              0. 0F 5B25 0074 0000:?BeginFlush@COutputQueue@@QAEXXZ
            347440E8........33C040395E648946507503894664395E:
              0. 0D CCD9 0072 0000:?BeginFlush@COutputQueue@@QAEXXZ
        56FF15........33DB385E4C7419395E487414395E28740F56895E44:
          0. 05 DF92 0064 0000:?EndFlush@COutputQueue@@QAEXXZ
        57:
          33FF397E64C706........C74610........C74614........BB:
            0. 00 0000 00CF 0000:??1CBaseRenderer@@UAE@XZ
          8D:
            4E58C706........E8........8B868000000033DB3BC3740F8B:
              0. 03 113E 009B 0000:??1CAMSchedule@@UAE@XZ
            7E:
              0868........8BCFE8........C706........8D4628890733:
                0. 20 1A8C 005F 0000:??0CAMSchedule@@QAE@PAX@Z
              588BCFE8........8B46108B70088B580C8BCFE8........5F:
                0. 07 6439 0027 0000:?GetNextAdviseTime@CAMSchedule@@QAE_JXZ
            9E9400000053FF15........8B467883781800750433FFEB3985:
              0. 1B FD57 0065 0000:?OnDisplayChange@CBaseRenderer@@QAEHXZ
            BE:
              A00000008BCFE8........33DB395E78751468A705000068:
                0. 00 0000 0089 0000:?SendRepaint@CBaseRenderer@@QAEXXZ
              A80000008B1F83C3588BCBE8........8B0FE8........85C0:
                0. 15 780C 008F 0000:?Active@CSourceStream@@MAEJXZ
              AC0000008B:
                0733DB3BC374088B0850FF5108891F8B46783958:
                  0. 1D C162 0068 0000:?BreakConnect@CBaseRenderer@@UAEJXZ
                CFE8........83BEE0000000008BCF0F97C3E8:
                  0. 00 0000 0029 0000:?StreamingThreadUsingOutputPin@CDynamicOutputPin@@UAE_NXZ
              C40000008B0733DB3BC374088B0850FF5108891F8B46783958:
                0. 1D E665 0068 0000:?BreakConnect@CBaseRenderer@@UAEJXZ
              E00000008B0733DB3998A80000007514682602000068:
                0. 00 0000 0084 0000:?CheckStreaming@CTransformInputPin@@UAEJXZ
        8B:
          46:
            1C85C05774068B0850FF5108837E34008B1D........744556FF:
              0. 01 54B7 0090 0000:??1COutputQueue@@QAE@XZ
            4C3B463CBB........741068861400005368........E8:
              0. 00 0000 006E 0000:?ReallyFree@CMemAllocator@@IAEXXZ
          4E5033C085C9577E168B7E548BD78B1A3B5C241074124083C2043B:
            0. 14 A7C3 005C 0000:?RemovePin@CSource@@QAEJPAVCSourceStream@@@Z
          86D000000085C0578B3D........C706........C74610:
            0. 03 4004 0085 0000:??1CDynamicOutputPin@@UAE@XZ
        8D:
          5E:
            18578BCBE8........33FF397E147507BEFFFF0080EB0F8B4660:
              0. 0F 6FA5 005D 0000:?PauseThread@CPullPin@@AAEJXZ
            1C53FF15........837E48017507BE05400080EB3A8B0657BF:
              0. 00 0000 0063 0000:?GetMediaTime@CRendererPosPassThru@@UAEJPA_J0@Z
            5053C706........FF15........8B466C85C07411578B3850E8:
              0. 00 0000 0067 0000:??1CAMSchedule@@UAE@XZ
            6453FF15........8B463C33C93BC1750B53FF15........33C0:
              0. 13 19F2 0073 0000:?DoRealisePalette@CBaseWindow@@UAEJH@Z
          9EA400000053FF15........83BEC400000000741CFF15:
            0. 19 100F 00A0 0000:?AsynchronousBlockOutputPin@CDynamicOutputPin@@IAEJPAX@Z
        E8........33DB395E507514680702000068........68........E8:
          0. 00 0000 007B 0000:?EndFlush@COutputQueue@@QAEXXZ
  57:
    33FF:
      393D........BB02000800740D68........53E8........5959568B:
        0. 65 8C8F 00A0 0000:?FreeEventInfo@@YGJPAU__MIDL___MIDL_itf_msp_0000_0005@@@Z
      8B4424100BC07D14478B54240CF7D8F7DA83D800894424108954240C:
        0. 92 771B 00B2 0000:__allrem
    8B7C24:
      0C0FB647180FB70F8D5C38198D5439183BD3730433C0EB730FB60B:
        0. 2A F09C 0095 0000:_MinfoRpcRecordConvert@8
      108D5F023B5C2414760F68EA000000FF15........33C0EB48568B:
        0. 0C 7B53 006B 0000:_Mx_RecordWrite@12
    BF........5733DBFF15........A1........85C07415568B30EB0B8BC6:
      0. 04 63F9 003E 0000:_Dns_FreeSecurityContextList@0
  668B5C240884FF7543833D........017E176A0433C0668BC325FF00000050:
    0. 01 3E9B 0064 (l)0000:__hextodec
  68........FF15........8BD885DB744B568B35........68........53FF:
    0. 02 E2EB 0063 (l)0000:_GetVersionProcs@12
  6A29E8........8BD885DB745C8B4424088A481880F90156884B1875368D50:
    0. 2B 3DEE 006E 0000:_AtmaRecordCopy@12
  8A5C2408F6C302568BF174245768........8D7EFCFF376A1056E8:
    0. 07 B312 004B 0000:??_ECComVariant@ATL@@QAEPAXI@Z
  8B:
    1D........:
      5556:
        578BF18D7E4457FFD38D6E6455FFD38B4424148B1D:
          0. 00 0000 0039 0000:?SetPalette@CBaseWindow@@UAEJPAUHPALETTE__@@@Z
        8B7424108D4650575089442418FFD38B460833FF4733ED:
          0. 35 CD80 009C 0000:?Pause@CTransformFilter@@UAGJXZ
      568B:
        74240C578D44241450FF3633FFFFD385C0753CFF15:
          0. 00 0000 0060 0000:_NetpGetComputerNameAllocIfReqd@8
        F18B460885C057742150FF15........8B7E088BC88BD1:
          0. 1D 0939 0061 0000:??1CUnicodeString@@QAE@XZ
    4424140BC075188B4C24108B44240C33D2F7F18B442408F7F18BC233D2EB:
      0. 55 27A6 0075 0000:__aullrem
    5C24:
      08:
        33C0:
          56F6C31074036A0158F6C30874020C04F6C30474020C08F6C3:
            0. 69 6B11 0089 (l)0000:__hw_cw
          85DB746C8B15........56BE00010000D1E0833D........00:
            0. 04 49E0 007B 0000:_Arith_Decode_Bits@4
        3B59407C07B8FFFF0080EB7A56578D793C8B078D34D86AFFFF36FF:
          0. 01 54B7 008F 0000:?UnregisterWaitEvent@CMSPCallMultiGraph@@IAEJH@Z
        55:
          33C05657F6C30174036A1058F6C30474020C08F6C30874020C04:
            0. 72 70DC 0092 (l)0000:__abstract_cw
          8B2D........568BB3CC0000005783C67C56FFD58BBBCC000000:
            0. 1F 3C87 005A 0000:?EndFlush@CRendererInputPin@@UAGJXZ
            1. 2A 9714 0065 0000:?EndOfStream@CRendererInputPin@@UAGJXZ
        56:
          578BF3833D........017E0F0FB6066A0850E8........5959EB:
            0. 06 A4EF 00A1 0000:_strtod
          6A60538BF1FF15........85C07421833D........00741168:
            0. 00 0000 0089 0000:?RegisterPnpNotification@CMSPThread@@QAEJPAVCMSPAddress@@@Z
          8B:
            35........576A105F0FB6443C134F8BC8C1E9045183E00F50:
              0. 01 361F 0043 0000:_Dns_Ip6AddressToReverseName_A@20
            742414576A075933C08BFB56F3ABE8........83F8FF740A6A:
              0. 35 1692 0055 0000:_Ip6_WriteSockaddr@16
        578B7C24103BDF750533C040EB3985DB743385FF742F8BC38D5001:
          0. 4A B847 0077 0000:_Dns_NameCompare_A@8
        83FBFF5674418B7424108B460CA8017508A8807432A802752E837E:
          0. 06 A182 006E 0000:_ungetc
        85DB750433C0EB:
          39837C241000568B742410740B5653E8:
            0. 2A 6819 004A 0000:_Ip6Array_AddIp@12
          7A565753FF15........8BF0468D043650E8:
            0. 00 0000 008B 0000:?ConvertStringToBSTR@_com_util@@YGPAGPBD@Z
        8B:
          43:
            04C1E80B83E0070344240C785B83F8087D568D0C8057D1E18B:
              0. 46 6F7C 0071 0000:__SetFpRegVal
            405583C01850FF15........8BE885ED7507B80E000780EB5F:
              0. 46 C3BE 0084 0000:_ConvertVideoInfoToVideoInfo2@4
          83900000008B10565783EC186A06598BFC8D742430F3A58BC8FF:
            0. 19 F705 0043 0000:?Notify@CTransformOutputPin@@UAGJPAUIBaseFilter@@UtagQuality@@@Z
      0C:
        56:
          578BFB83C9FF33C0F2AEF7D12BF98BC18BF78B7C2410C1E902F3:
            0. 12 D248 0067 0000:___lc_lctostr
          8B74240C8B86A40000000FAFC303462C576A0050FFB684000000:
            0. 69 347E 00EF 0000:_SeekFolder@8
        803B00568B74240C7424578BC38D78018A084084C975F9532BC756:
          0. 04 BB6E 003C 0000:_NetpCopyStrArrayToTStrArray@8
        85DB7507B803400080EB:
          20568B74240C57:
            8B7E:
              3457FF15:
                0. 08 A0D5 0034 0000:?GetRate@CSourceSeeking@@UAGJPAN@Z
              3857FF15:
                0. 08 48B6 0034 0000:?get_Rate@CSourcePosition@@UAGJPAN@Z
            8D7E9C57FF15:
              0. 08 70A4 0034 0000:?get_FramesDrawn@CBaseVideoRenderer@@UAGJPAH@Z
              1. 08 DCB4 0034 0000:?get_FramesDroppedInRenderer@CBaseVideoRenderer@@UAGJPAH@Z
          26568B74240C578B7E3857FF15:
            0. 06 2F4B 003A 0000:?get_Duration@CSourcePosition@@UAGJPAN@Z
            1. 06 DD07 003A 0000:?get_StopTime@CSourcePosition@@UAGJPAN@Z
          2F568B74240C578B7E:
            2457FF15:
              0. 17 C458 0043 0000:?GetSyncSource@CBaseMediaFilter@@UAGJPAPAUIReferenceClock@@@Z
            2C57FF15:
              0. 17 61BD 0043 0000:?GetSyncSource@CBaseFilter@@UAGJPAPAUIReferenceClock@@@Z
          3B568B74240C578D7EF4F7DF8D46041BFF:
            0. 05 D397 004F 0000:?GetProperties@CBaseAllocator@@UAGJPAU_AllocatorProperties@@@Z
          3E568B74240C8B869400000085C0740D83:
            0. 13 CC6D 0052 0000:?get_BackgroundPalette@CBaseControlWindow@@UAGJPAJ@Z
          4B568B74240C8B461885C0740D83781800:
            0. 10 6C53 005F 0000:?get_BitRate@CBaseControlVideo@@UAGJPAJ@Z (001B: 20)
            1. 10 6C53 005F 0000:?get_BitErrorRate@CBaseControlVideo@@UAGJPAJ@Z (001B: 24)
            2. 10 6C53 005F 0000:?get_VideoWidth@CBaseControlVideo@@UAGJPAJ@Z (001B: 34)
            3. 10 6C53 005F 0000:?get_VideoHeight@CBaseControlVideo@@UAGJPAJ@Z (001B: 38)
          51568B74240C8B461885C0740D83781800:
            0. 10 DD4E 0065 0000:?get_AvgTimePerFrame@CBaseControlVideo@@UAGJPAN@Z
        8BC34B565785C07E:
          268B7C241C8B7424100FBE065746FF74241C50:
            0. 01 3E9B 0038 (l)0000:_write_string
          278B7C241C8B742410668B0657FF74241C4646:
            0. 02 F6B7 0039 (l)0000:_write_string
      1085DB7507B803400080EB2E568B74240C8B46506A006A006A00FF74:
        0. 04 E699 0042 0000:?GetState@CBaseRenderer@@UAGJKPAW4_FilterState@@@Z
    D88B4B748D83B000000053E8........8B8B900000008D83A409000053E8:
      0. 00 0000 0054 (l)0000:_build_bl_tree@4
    D9FF15........837B2C00743C56578B732885F674098B461CFF4B2C8943:
      0. 09 3CF9 0051 0000:?Free@CImageAllocator@@MAEXXZ
  B8008000005633F68BD88B4F188D1431668B0A663BC872070FB7C92BC8EB02:
    0. 30 9350 0050 (l)0000:_lm_init_use_tables@4
  B9FFFFFFFF562BC057558B6C24188BFDF2AEF7D12BF98BC1C1E9028BF78B5C:
    0. 17 D593 0068 0000:___lc_lctostr
  FF7424:
    088BD857FF15........85C0595974358B062BD8D1FB83FB047707B8:
      0. 12 1707 0059 (l)0000:_FixupAPIListElement@16
    108B5C2418FF33FF15........85C07529568B74240C85F67410578D:
      0. 25 2BA6 0045 0000:?FindDeviceCallbackEx@@YGHPAU_GUID@@PAD1PAXPAUHMONITOR__@@@Z
      1. 25 4BC1 0045 0000:?FindDeviceCallback@@YGHPAU_GUID@@PAD1PAX@Z
55:
  33:
    C08BEC:
      83EC04568945FC8B75083BF07405394510745DFF750C85F67426E8:
        0. 00 0000 007A 0000:_wcstombs
      B90800000083EC2056578B750C8D7DE0F3AB8A16468AC28ACAC0E8:
        0. 1C C5F8 00CB 0000:_strtok
    C98BEC:
      390D........7520FF7514FF7510FF750C5151FF7510FF750CFF75:
        0. 04 AF1D 004C 0000:__handle_qnan1
      83EC04:
        538B450856578948048B45088948088B450889480C8B4D10:
          0. F4 3061 0311 0000:__raise_exc
        56578B750C85F6745E8B7D103BF97457380E750C8B45083B:
          0. 22 A6ED 0077 0000:_mbtowc
    ED392D........568B74240C74135668........6802000800E8:
      0. 0C 75C9 00DE 0000:?AllocateEventItem@@YGPAUMSPEVENTITEM@@K@Z
  56:
    33ED392D........578BF9741168........6802000800E8........5959:
      0. 0C BBB9 013E 0000:?CreateFilters@CAudioRenderTerminal@@QAEJXZ
    684B736563681805000033ED55FF15........8BF03BF5750433C0EB4253:
      0. 1C B225 0072 0000:_rc4_safe_startup@4
    8B74240C33ED3BF5745A8B46083BC5740650E8........8B460C3BC57406:
      0. 02 F6B7 006B 0000:_DnssrvFreeDirectoryPartitionInfo@4
  578B7C240C33ED3BFD7433396F08762853568D5F0C8B33FF7608E8:
    0. 04 1A5F 0044 0000:_DnssrvFreeZoneList@4
  668B:
    44240E8BEC6625F07F66C1E8040FBFC00345102DFE03000050FF750CFF:
      0. 03 2FDA 002B 0000:__add_exp
    4C240E8BEC6681E1F07F6681F9F07F7539FF750CFF7508E8........83:
      0. 83 7203 00A3 0000:__fpclass
  6E61626C6520746F2067657420647269766572206F626A6563742065787465:
    0. 39 2916 0073 004A:_AcpisimUnload@4
  8B:
    4424:
      088BEC:
        81EC9400000085C05356570F8C1602000083F8050F8F0D0200:
          0. 0F D792 0237 0000:_setlocale
        83EC:
          045356:
            5733F68A188D7801833D........017E100FB6C3:
              0. 04 E7C7 020A (l)0000:_strtoxl
            668B305733FF8D58026A0856E8........83C408:
              0. 0E 6BB2 01D1 (l)0000:_wcstoxl
          088945F88B450C:
            33451425FFFFFF7F3345148945FCDD45:
              0. 05 8E40 0025 0000:__copysign
            35000000808945FCDD45F88BE55DC3:
              0. 00 0000 001F 0000:__chgsign
          20:
            56:
              8B4D0C:
                C745EC420000008D55148945E8528945E089:
                  0. 0A 28D2 0058 0000:__snprintf
                FF7514FF7510C745EC420000008945E88945:
                  0. 09 ACBB 0057 0000:__vsnprintf
              8D4D10C745EC42000000518945E88945E08D45E0C7:
                0. 0B DEC2 0059 0000:_sprintf (002D: C3)
                1. 0B DEC2 0077 0000:_swprintf (002D: 45)
            C745EC:
              4200000056:
                8945E8FF75:
                  10FF750C8945E08D45:
                    0. 0A 64F7 0058 0000:_vsprintf (002D: C3)
                    1. 0A 64F7 0076 0000:_vswprintf (002D: 45)
                  14FF75108945E08B45:
                    0. 0B DC46 0077 0000:__vsnwprintf
                8D4D14518945E88945E08B450C03:
                  0. 0C 13FD 0078 0000:__snwprintf
              49000000508945E88945E0E8........83C404:
                0. 11 C47B 0039 0000:_swscanf
          50568945B08B450C8B5514C745B800000000C745BC:
            0. 00 0000 0070 0000:_RaiseException@16
      0C8BEC:
        25FFFFFF7F83EC080B450856750D33F68975F88975FCE99000:
          0. 66 3508 00BF 0000:__decomp
        81EC:
          A8000000568B4D108B5514898578FFFFFF8D8558FFFFFF:
            0. 36 10B6 0083 0000:_LsaCallAuthenticationPackage@28
          F800000083F8025356570F8227010000837D10000F841D:
            0. 28 921F 0147 0000:_qsort (l)0030:$recurse$212
        83EC088B4D088945FC8B4510894DF866:
          05FE0366C1E004668B:
            0. 15 9206 0035 0000:__set_exp
          C1E004668B4D0E6681:
            0. 11 A75E 0031 0000:__set_bexp
        85C05674128A008B750884C0740C880646C6063A46EB038B75:
          0. 1D 4B77 009E 0000:__makepath
      108BEC83:
        EC:
          0483F81F56570F87E70000000FB688........FF248D:
            0. 00 0000 014E 0000:__UpdateResult
          5C0FB70853894DFC56578B750C8B0683F801745483F802:
            0. 2E FB48 010C 0000:__87except
        F80A750A837D08007D046A01EB026A0050FF750CFF7508E8:
          0. 00 0000 002C 0000:__itoa
      148BEC81ECA8000000538B4D18568B551C578945848B450C894D8889:
        0. 6E 3A9F 00E0 0000:_LsaLogonUser@56
    4C24:
      08:
        668339008BEC7412668B450C663901740983C1026683390075EE66:
          0. 10 FC4A 0030 0000:_wcschr
        8BEC:
          83EC:
            0485C9750433C0EB2E6A028D450C508D55FC52A1:
              0. 00 0000 0044 0000:_wctomb
            0CF6C101740ADB2D........DB5DFC9BF6C10874109BDF:
              0. 03 198E 005A 0000:__set_statfp
          85C9:
            57740FFF7510FF750C51E8........83C40C8B7D0CB9FF:
              0. 0F 9475 002F 0000:_strxfrm
            740FFF7510FF750C51E8........83C40CFF750CE8:
              0. 00 0000 0026 0000:_wcsxfrm
          8BC183EC0899568B750CF7FE8945F88BC199F7FE8955FC85C9:
            0. 17 A606 0037 0000:_div
      0C8BEC535657837D1400740B8B7D08C6012DF7DF41EB038B7D088BF1:
        0. 3D 6ADB 005D (l)0000:_xtoa
      108BEC85C956750433C0EB27498B45088B750C7416668B106685D274:
        0. 1A 954B 003A 0000:_wcsncmp
    5424:
      0C8BEC8B4204:
        4889420478118B028A4D0888088B0A0FB60141890AEB:
          0. 06 A07C 0041 (l)0000:_write_char
        83E80289420478138B0A8D41028902668B5508668BC2:
          0. 0C A90E 0034 0000:_fputwc
      148BEC83EC108B4D10DD04D1DC4D084A85D27E19DD55F88D04D1EB02:
        0. 55 49E7 0075 (l)0000:_evaluate
    6C2408837D1400750433C0EB715657FF7424148B3D........FFD7FF7514:
      0. 0D 90ED 0084 0000:_DnssrvCreateDsZoneName@8
    EC:
      0F:
        B6450833D253562BC257743E48742683E8080F85B10000008B450C8B:
          0. BC 59BF 00DC 0000:_ScsiWmipPostProcess@24
        B7450883E80D742A83E806741C48740533C040EB2733C0406639450C:
          0. 24 D6F4 0044 0000:_Dns_IsStringCountValidForTextType@8
      33:
        C0:
          33C939452074036A10595050FF7530FF752CFF7528FF7524FF751C:
            0. 12 359F 003A 0000:_DnssrvCreateZone@44
          39450C7507B857000780EB:
            268B5508568B75108A0E84C97409880A:
              0. 1B CCD0 003B 0000:_StringCopyWorkerA@12
            2D8B5508568B7510668B0E6685C9740C:
              0. 22 012B 0042 0000:_StringCopyWorkerW@12
          505050FF7518FF7514FF7510FF750CFF7508E8........5DC21400:
            0. 00 0000 0020 0000:_Dns_StartDebug@20
          5339450C5657761A8B55088B3A8B75106A1033DB59F3A674124083:
            0. 28 C3DC 0048 0000:_ScsiWmipFindGuid@20
          837D:
            100A75083945087D036A015850FF7510FF750CFF7508E8:
              0. 00 0000 002A 0000:__ltoa
            140A750F39450C7F0A7C0539450873036A015850FF7514FF75:
              0. 08 2929 0031 0000:__i64toa
        C9:
          33C0394D2074036A1058FF7530FF752CFF7528FF7524516A01FF75:
            0. 13 9D87 003B 0000:_DnssrvCreateZoneInDirectoryPartition@44
          394D0874056A7C58EB448B45143BC1740289088B45183BC1740289:
            0. 37 09D3 0057 0000:_NetpReplDirStructureInfo@36
          41B8........854D08740B8B550C81CA00000080891083C004D1E1:
            0. 01 1E1A 002B 0000:?DbgSetModuleLevel@@YGXKK@Z
          568B75084181FE000000407E07B900800000EB453BF17E0B03C98B:
            0. 45 AA7F 0065 0000:?isqrt@@YGHH@Z
        D2:
          4239550C75228B451085C07414833800740F8B4D088951:
            28FF308B:
              0. 2A 6EE6 004A 0000:?SetObjects@CBasePropertyPage@@UAGJKPAPAUIUnknown@@@Z
            2CFF308B:
              0. 27 2B1C 005E 0000:?SetObjects@CBasePropertyPage@@UAGJKPAPAUIUnknown@@@Z
          817D0C0000F07F750939550875046A01EB3C817D0C0000F0FF7509:
            0. 3A 912F 005A 0000:__sptype
      51:
        33:
          C03945:
            0C:
              567513FF7514FF751050FF7508E8........8BF0EB3389:
                0. 0A 70B8 0059 0000:_CM_Locate_DevNode_ExA@16 (0026: 1E)
                1. 0A 70B8 0059 0000:_CM_Get_Device_ID_List_Size_ExA@16 (0026: 1F)
              578945FC0F84840000008B7D103BF8747D39450874148D:
                0. 07 D1E6 009F 0000:_CM_Get_Device_ID_List_ExA@20
            10578945FC0F848B0000008B7D143BF80F84800000003945:
              0. 0B A4CE 00A6 0000:_CM_Get_Device_Interface_List_ExA@24
          C9214DFC568B750885F675086A7B58E9810000008B450C83E80474:
            0. 1B 41C8 009F 0000:_Dns_ValidateName_UTF8@8
        3BC67D12833D........00742A565068........EB143BC17E24833D:
          0. 00 0000 0072 (l)0000:?RangeConvert@@YGJJJJPAJJJ@Z
        51:
          0FB745148945F88B45108945FC8D45F8506A0F68........6A00FF:
            0. 0D 9DAD 0035 0000:_DnssrvDeleteRecordSet@16
          33D26639931A0F00008953580F85B5010000568D8B801E000033C0:
            0. 01 8DAC 01CE (l)0000:_ct_init@4
          5051520F318945FC8955F85A59588B45088B4DFC89088B4DF88948:
            0. 05 9FF8 0025 0000:_X86_ReadRDTSC@4
          53:
            33DB391D........741168........6802000800E8........59:
              0. 08 8090 0213 0000:?EnumerateStaticTerminals@CMSPAddress@@UAGJPAPAUIEnumTerminal@@@Z
            56:
              33:
                C9F7451C00E0FFFF578B7D08894DFC8BF7894DF8740CC745:
                  0. 2E 68CB 01AF 0000:_StringVPrintfExWorkerW@32
                F6668BB02C25000066D1FEEB0756E8........4E6683FE01:
                  0. 58 D306 0107 (l)0000:_make_tree2@16
              57:
                33F668........33FF8975F88975FCE8........59837DFC:
                  0. 15 10EC 0079 0000:_NetpWaitForNetlogonSc@4
                8B:
                  7D088B470C8B771824182C08F6D88D5F1C1BC08365FC00:
                    0. 20 769E 00C1 0000:_TxtDnsRecordConvert@4
                  F1:
                    56FF15........33FF397E280F85CD000000397E5874:
                      0. FF FE71 015E 0000:?ReceiveMultiple@COutputQueue@@QAEJPAPAUIMediaSample@@JPAJ@Z
                    E8........33DB395E340F8585010000395E64745C39:
                      0. 0F 69E2 022C 0000:?ReceiveMultiple@COutputQueue@@QAEJPAPAUIMediaSample@@JPAJ@Z
                FF750C8BF1FF7508E8........8D4E14E8........8B4514:
                  0. 06 9421 0133 0000:??0CBaseReferenceClock@@QAE@PAGPAUIUnknown@@PAJPAVCAMSchedule@@@Z
              8B:
                35........576A01BF........57FFD633DB3BC37414EB0D:
                  0. 04 5467 00B1 0000:_w_GetComputerName@0
                75:
                  08:
                    0FB7:
                      1E0FB746028D4B023BC15773378D43020FB7C050:
                        0. 04 0E07 0086 0000:_NetpParmsQueryUserPropertyWithLength@16 (005D: 5B)
                        1. 04 0E07 008F 0000:_NetpParmsSetUserPropertyWithLength@28 (005D: 15)
                      8E5C0200008BC15733FF83E00F2BC78D9E500200:
                        0. 38 3FDA 00FA 0000:_MCICreateCompressionGlobal@4
                    57:
                      33:
                        DB:
                          33FF85F67448668B4608663D01007406663D1C:
                            0. 10 EF96 0124 0000:_NetpSrvProcessARecords@20
                          56895DFCC745F857250000FF15........3DFF:
                            0. 8C 7720 00AC 0000:_Dns_ValidateAndCategorizeDnsNameW@8
                        FF8D45F833DB3BF7897DF88945FC7437837D0C00:
                          0. 07 1F4F 0069 0000:_Dns_RecordListCopyEx@16
                      8BFE33DB668B066A0850E8........5985C0597409:
                        0. 0B 996D 00E4 0000:_wcstod
                      C6865C04000000C6865D04000001C6865E04000002:
                        0. 9C E246 00BC 0000:_create_slot_lookup_table@4
                    8B:
                      065733FF33DB3BC7897DF8897DFC7415FF7510FF75:
                        0. 04 BDDC 00AB 0000:_Hostent_Size@20
                      460C8D0C808D0CCD070000008D04850700000083E0:
                        0. 10 7245 00CD 0000:_NetpCopyFtinfoContext@4
                  108B0656894DF8FF501433DB3BC30F8C990000008B0657:
                    0. 25 96F1 00BC 0000:?TryMediaTypes@CBasePin@@IAEJPAUIPin@@PBVCMediaType@@PAUIEnumMediaTypes@@@Z
                  1457568D45F85033FF57FF7510897DF8FF750C897DFCFF:
                    0. 03 2FDA 00C6 0000:_HostentBlob_Query@20
                D98D430857508945F8FF15........8B75088D460C8B0850:
                  0. 1E AE66 0099 0000:?Insert@CCmdQueue@@UAEJPAVCDeferredCommand@@@Z
                F1:
                  33DB395E:
                    600F84AC00000057FF7650FF15........33FF:
                      0. 0E 7509 00C4 0000:?SetTimeAdvise@CCmdQueue@@IAEXXZ
                    780F84CC00000057FF7664FF15........33FF:
                      0. 0F 1A09 00E4 0000:?SetTimeAdvise@CCmdQueue@@IAEXXZ
                  578D9EAC00000053E8........85C07514686710000068:
                    0. 00 0000 00F4 0000:?StartUsingOutputPin@CDynamicOutputPin@@UAEJXZ
                  837E:
                    48017507BB05400080EB358B068D4DF85156FF502C:
                      0. 0D 0CF4 0051 0000:?EOS@CRendererPosPassThru@@QAEJXZ
                    58017507BB05400080EB358B068D4DF85156FF502C:
                      0. 0D AE9F 0051 0000:?EOS@CRendererPosPassThru@@QAEJXZ
                  8B0657FF50148D45FC508BCEE8........85C0752E8D:
                    5E:
                      0. 19 ACEA 0121 0000:?DoBufferProcessingLoop@CSourceStream@@MAEJXZ
                    7E:
                      0. 19 B73B 00D9 0000:?DoBufferProcessingLoop@CSourceStream@@MAEJXZ
                  8D5E44578BCBE8........8D4E70894DF8E8........6A:
                    0. 03 E734 007E 0000:?UnsetPalette@CBaseWindow@@QAEXXZ
              BEFFFF000056FF35........E8........DD4508598BD88B45:
                0. 12 51BB 00CC 0000:_floor (008B: 0B)
                1. 12 51BB 00CC 0000:_ceil (008B: 0C)
            578B7D108B0757894DF8FF501433DB3BC30F8CD50000008B0756:
              0. 28 BB11 00F8 0000:?TryMediaTypes@CBasePin@@IAEJPAUIPin@@PBVCMediaType@@PAUIEnumMediaTypes@@@Z
            8B:
              5D:
                08:
                  56:
                    33F63BDE578BF97514689C07000068........68:
                      0. 00 0000 00E8 0000:?AgreeMediaType@CBasePin@@IAEJPAUIPin@@PBVCMediaType@@@Z
                    576A006810270000FF73048BF9FF33E8........5068:
                      0. 00 0000 018B 0000:?Advise@CAMSchedule@@QAE_JAB_J@Z
                  83FB04578D7BFD897DF8730A6A0DFF15........EB148D:
                    0. 08 B411 00AD 0000:_Wins_RecordBuild@8
                  8B:
                    03568B732C5733FF397D148975FC8945087410FF750C:
                      0. 02 ABB7 00CC 0000:_HostentBlob_WriteNameOrAlias@16
                    43:
                      0C24182C08F6D86A001BC040894508580F94C06A02:
                        0. 0B 6B53 0095 0000:_NxtDnsRecordConvert@4
                      285633F63BC657C745FC0D0000008975F875053973:
                        0. 05 3AAE 01B0 0000:_Dns_ExtractGssTkeyFromMessage@16
                0C5633F63BDE578975FC8975F874778B7D103BFE7470568D:
                  0. 09 E261 0098 0000:_NetpGetJoinInformation@12
                148B4B04565733F6538975148975F88975FCE8........8B:
                  0. 0B CBBA 00F5 0000:_ScHelperVerifyCard@16
                205633C0394514578B7D088BF789038945F80F86B7000000:
                  0. 20 BB8F 00E5 0000:_RxpReceiveBufferConvert@28
              D80FB7434C8A4B4E56888C186C1F0000578D435C50E8:
                0. 00 0000 0157 (l)0000:_flush_block@16
              D9:
                568D4B0857894DF8E8........8B75088D46108B0850FF51:
                  0. 1D 55C6 0097 0000:?Insert@CCmdQueue@@UAEJPAVCDeferredCommand@@@Z
                8D:
                  435856508945F8FF15........8B43508D048504000000:
                    0. 02 F6B7 008B 0000:?AddPin@CSource@@QAEJPAVCSourceStream@@@Z
                  4B5856894DF8E8........8B43508D04850400000050E8:
                    0. 00 0000 0088 0000:?AddPin@CSource@@QAEJPAVCSourceStream@@@Z
            FF75086A006A0056E8........578BD856895DF8E8........6A:
              0. 06 76E8 00DF (l)0000:_do_block_output@12
          56:
            33F6:
              39:
                35........8975F88975FC751168........FF15:
                  0. 00 0000 0083 0000:_DnscmdWmi_ProcessDnssrvQuery@8
                71:
                  607440397510741139716474368B41680145088B416C:
                    0. 34 A246 0054 0000:?CheckTime@CCmdQueue@@QAEHVCRefTime@@H@Z
                  787446397510741739717C743C8B8180000000014508:
                    0. 3A 9ABE 005A 0000:?CheckTime@CCmdQueue@@QAEHVCRefTime@@H@Z
              5733FF3975108975FC7509397514741E6A03EB1739751474:
                0. 07 5976 00AF 0000:_CM_Query_And_Remove_SubTree_ExA@24 (REF 004B: _CM_Query_And_Remove_SubTree_ExW@24)
                1. 07 5976 00AF 0000:_CM_Request_Device_Eject_ExA@24 (REF 004B: _CM_Request_Device_Eject_ExW@24)
            57:
              8B7D106A018D75108D55FC8D4DF88BC7E8........33C93BC1:
                0. 26 EF05 0132 0000:_RxPrintJobSetInfo@24
              FF750C8BF1FF7508E8........8D461050FF15........8B45:
                0. 07 D480 010A 0000:??0CBaseReferenceClock@@QAE@PAGPAUIUnknown@@PAJPAVCAMSchedule@@@Z
            6A008D45F8508D45FC50FF7510E8........8BF085F67532FF75:
              0. 1A 1498 0057 0000:_NetpManageMachineAccount@28
            8B:
              75:
                08:
                  5733FF3BF7897DF8897DFC743BFF7604E8........3BC7:
                    0. 10 1B06 0066 0000:_Ip4Array_CreateFromIp6Array@8
                  832600578B7D0C8327008D45F850FF15........8B45F8:
                    0. 02 719F 0039 0000:_tkGetMouseLoc@8
                  8B46145733FF3B4618897DF8897DFC720AB803010000E9:
                    0. 34 7703 013F 0000:_NetpSrvNext@16
                10:
                  5733D26A0733C0395508598BFE8955FC8955F8F3AB7459:
                    0. 0D 79FC 007F 0000:_NetpCreateAuthIdentForCreds@12
                  F7C6FFFFFF7FC745FC........C745F80100000074086A:
                    0. 0F BEBD 01BC 0000:_NetpwNameValidate@12
                20:
                  33D23BF27507B803400080EB5D8B450C0345148B4D1013:
                    0. 38 D31C 0078 0000:?AdviseTime@CBaseReferenceClock@@UAGJ_J0KPAK@Z
                  5733FF3BF7750AB803400080E98200000057FF751C893E:
                    0. 02 ABB7 00A2 0000:?AdviseTime@CBaseReferenceClock@@UAGJ_J0KPAK@Z
              F1:
                33C9394E707470394E74756B398EC000000075638B46183B:
                  0. 31 7E24 0084 0000:?SendEndOfStream@CBaseRenderer@@UAEJXZ
                8B46588945F88B46548945FC8B06FF50485768102700006A:
                  0. 09 FA2B 0053 0000:?WaitForRenderTime@CBaseRenderer@@UAEJXZ (0029: C3)
                  1. 09 FA2B 005A 0000:?WaitForRenderTime@CBaseRenderer@@UAEJXZ (0029: 66)
                8D:
                  86C400000057508945F8FF15........8B465033FF3BC7:
                    0. 19 23F4 00B4 0000:?GetMediaPositionInterface@CBaseRenderer@@UAEJABU_GUID@@PAPAX@Z
                  8EDC000000894DF8E8........8B465085C07410FF750C:
                    0. 15 6903 00B5 0000:?GetMediaPositionInterface@CBaseRenderer@@UAEJABU_GUID@@PAPAX@Z
                EB0B8B45FCFF75FC8B00FF50088B46:
                  488B088D55F8528D55:
                    0. 11 AA9C 0031 0000:?CleanupCancelled@CPullPin@@AAEXXZ
                  608B088D55F8528D55:
                    0. 11 AA9C 0031 0000:?CleanupCancelled@CPullPin@@AAEXXZ
            8D45FC5068........33F668........5668........568975FC:
              0. 05 4ED2 005C 0000:_DNS_RPC_HANDLE_bind@4
            BEFFFF00005756683F130000E8........8BF88B450E6625F07F:
              0. 11 1345 00B5 0000:_fabs
          6A08680068C4616A00FF7508E8........FF750C8945F88D45F850:
            0. 05 7C3E 002D 0000:_Dns_SystemHourToSystemTime@8
          807D1000538B5D0C568B7508578B3D........740E6A015356FFD7:
            0. 5B 28AF 007B 0000:_NetpIsSubordinate@12
          83:
            3900894DFC7570535657FF7508E8........FF75088BF8E8:
              0. 00 0000 0086 0000:?CryptCtx@CSCLogonInit@@QAEKPAULogonInfo@@@Z
            4D:
              F8FF5356576A078BF10FB748025A33DB85C96A045F75086A03:
                0. 9E ECD9 00BE (l)0000:_scan_tree@12
              FCFF5657BE0A020000566A40FF15........8BF885FF75086A:
                0. 0B 0943 00C8 0000:_NlWriteBinaryLog@12
            65:
              F800:
                578B7D0885FF8D45F88945FC742A56FF750C8BF78B3F56:
                  0. 01 3E9B 0049 0000:_Dns_RecordListScreen@8
                8D45F8568B750C8945FCEB25F6460D08751D8B460CC1E8:
                  0. 08 9B02 0060 0000:_buildUnmatchedRecordSet@8
              FC00:
                56578D55F8528D55FC8BF18B46:
                  488B08526AFF50FF5114:
                    0. 27 2F26 0068 0000:?CollectAndDeliver@CPullPin@@AAEJ_J0@Z
                  608B08526AFF50FF5114:
                    0. 27 2F26 0068 0000:?CollectAndDeliver@CPullPin@@AAEJ_J0@Z
                8365F800568D45FC50FF750CE8........8BF085F6753D:
                  0. 17 A9D9 0064 0000:_NetpSetMachineAccountPassword@12
            7D:
              0800:
                7514688300000068........68........E8........83:
                  0. 07 0692 0086 0000:_GetBitCount@4
                7D17FF7510FF750CFF7508FF35........FF15:
                  0. 09 5419 0065 0000:?_MMCHookCBTProc@@YGJHIJ@Z
              10FF750432C0EB3A568D45F850FF15........8B75F82B7508:
                0. 2D 0AEE 004D 0000:_NetpLogonTimeHasElapsed@12
              1400750B8B4518832000E97A0A00008B450883F815538B5D0C:
                0. 0E 9949 0AEC 0000:_RxpConvertAuditEntryVariableData@20
          8A4D08F6C101740ADB2D........DB5D089BF6C10874109BDFE0DB:
            0. 01 9F0A 0056 0000:__set_statfp
          8B:
            45:
              08:
                535657C600005051535257565533C00FA28945FC5D5E5F5A:
                  0. 37 E6FA 0057 0000:_X86_GetCapabilities@4
                56:
                  5768000000F033F66A01568975F88BF86689B0F0000000:
                    0. 0A 9244 00A2 0000:_NetpGenerateRandomPassword@4
                  C745FCB004000033D28D88F8280000570FB7390FB6B410:
                    0. 28 28B8 00C1 0000:_estimate_compressed_block_size@4
                8365F80053568B308D45F8578945FCE995000000FF4D103B:
                  0. 2C 47EE 00CE 0000:_DnsConvertRpcBufferToRecords@20
                8945F88B45:
                  0C8BC8F7D133C125FFFFFF7F33C18945FCDD45:
                    0. 03 1F65 0023 0000:__chgsign
                  1433450C25FFFFFF7F3345148945FCDD45F8C9:
                    0. 01 EF04 0021 0000:__copysign
              0C:
                8365F8008365FC005356578B7D108D1C38EB55F647068074:
                  0. 07 2FB0 008A 0000:_DnsConvertRpcBuffer@16
                85C05356576A085F762A8B75108B5D142BDE8945FC8B0685:
                  0. 0C 731E 00E6 0000:_Dns_CreateSecurityDescriptor@16
              0E8B4D10DD450866250F80DD5DF8C1E1040BC1668945FEDD45:
                0. 03 1F65 0023 0000:__set_bexp
              10:
                53565733FF:
                  397D0889388B45146A025B897DFC897DF88938:
                    0. 07 7EE9 0097 0000:_NetpGetSeparatedSubstrings@16
                  89388B450C3BC7897DFC897DF8740566393875:
                    0. 09 6535 00AD 0000:_RxNetGetDCName@12
                668365FE00663D0900668945FC740A663D0D0074046A04EB:
                  0. 1D 0D80 0055 0000:?_com_dispatch_propput@@YAJPAUIDispatch@@JGZZ (0017: C3)
                  1. 1D 0D80 0057 0000:?_com_dispatch_raw_propput@@YAJPAUIDispatch@@JGZZ (0017: 5E)
                8B4D0EDD450805FE0300006681E10F80DD5DF8C1E0040BC8:
                  0. 09 7B2B 0029 0000:__set_exp
              148945F88B45108945FC8D45F8506A0F68........6A00FF75:
                0. 0C 909D 0034 0000:_DnssrvDeleteNode@16 (REF 0018: ??_C@_0L@HELHKAJH@DeleteNode?$AA@)
                1. 0C 909D 0034 0000:_DnssrvForceAging@16 (REF 0018: ??_C@_0BB@NEEIKMFC@ForceAgingOnNode?$AA@)
              18538B5D1C5733FF837D0C01893B89388B4510893876046A7C:
                0. 20 8909 00AE 0000:_RxNetGroupEnum@28
              208945F88B451C8945FC8D45F8506A0F68........FF7518FF:
                0. 0C DFB0 0034 0000:_DnssrvResetDwordPropertyEx@28
            4D:
              08:
                0FBFD15633F6668BB450AC090000668B902C25000003C966:
                  0. 91 1616 00B1 (l)0000:_downheap@8
                53:
                  560FB7318D59188BC35733FF03F033D23BC6897DFC731E:
                    0. 24 36D3 00A6 0000:_TxtRpcRecordConvert@8
                  8B59145633F683FB46577E4C8D43BAC74508B207000089:
                    0. 5F 26FF 00ED 0000:_makeGMT@4
              0C538B5D0833C03BC856578945FCC745F857250000750E8BCB:
                0. 94 075D 00B4 0000:_Dns_ValidateAndCategorizeDnsNameEx@12
            55:
              0C535633DBF7452000E0FFFF578B7D08895DF88BF7895DFC74:
                0. 30 6873 019D 0000:_StringCopyExWorkerW@28
              1083FA067F0E8B45080190C82E0000E98F0000008B4D0C5356:
                0. 8E B21B 00AE 0000:_decoder_translate_e8@12
          A1........:
            535633F685C057747F8D1C808D1C9D........EB038B:
              0. 14 20AA 0099 0000:_AMovieDllUnregisterServer@0
            57FF750C8945FC8D45F85033FFE8........85C0740E:
              0. 08 6062 0092 0000:_Dns_StringToDnsAddr_W@8 (REF 0018: _Dns_Ip4StringToAddress_W@8)
              1. 08 6062 0092 0000:_Dns_StringToDnsAddr_A@8 (REF 0018: _Dns_Ip4StringToAddress_A@8)
          DD45:
            08D9:
              FADD5DF8DD45F8C9C3:
                0. 00 0000 0012 0000:__fsqrt
              FCDD5DF8DD45F8C9C3:
                0. 00 0000 0012 0000:__frnd
            14DC450C833D........00DD5DF8752AFF751CDD45F85151DD:
              0. 18 8F16 005F 0000:__handle_qnan2
          FF75088D45F850FF15........A1........803800740C8D45F850:
            0. 02 ABB7 0035 0000:_NetpUnicodeToDBCSLen@4
        53:
          33:
            C03905........56578945FC7E:
              50BB........837D0C008B3374:
                0. 02 3AC3 006B 0000:_RegisterAllServers@8
              63BB........FF3368:
                0. 05 DB35 007E 0000:_RegisterAllServers@8
            DB:
              395D:
                08:
                  0F849D000000395D100F8494000000395D140F848B00:
                    0. 0A E678 00B5 0000:_CM_Get_Device_Interface_Alias_ExA@24
                  895DFC75046A03EB17395D1074158D45FC50FF7510E8:
                    0. 00 0000 00AD 0000:_CM_Get_Device_Interface_List_Size_ExA@20
                0C750AB803400080E9B30000006A04FF750CFF15:
                  0. 00 0000 00CE 0000:?ReleaseBuffer@CBaseAllocator@@UAGJPAUIMediaSample@@@Z
                107507B803400080EB5C568B75088B462C57508945FCFF:
                  0. 01 54B7 008C 0000:?FindPin@CBaseFilter@@UAGJPBGPAPAUIPin@@@Z
                14565775068D45FC8945148B7D0C3BFB8B451489187472:
                  0. 14 C5D5 00F9 0000:_RxNetUserModalsSet@16
              837D0804895DFC740C6A0DFF15........33C0EB7D578B7D0C:
                0. 18 DD4E 009E 0000:_Key_RecordBuild@8
          56:
            33:
              DB8BF1399EA4000000895DFC0F85B100000068E8000000E8:
                0. 00 0000 00ED 0000:?GetPin@CTransformFilter@@UAEPAVCBasePin@@H@Z
              F6397514578975FC75128B45108D50018A084084C975F92BC2:
                0. 08 2F36 0070 0000:_Dns_ValueForString@16
                1. 32 F368 00BD 0000:_Dns_FlagForString@16
            57:
              33FF:
                397D1875068D45FC8945188B451889388B450C3BC77448:
                  0. 0E 4ADE 00FC 0000:_RxNetGroupSetInfo@20
                8BF139BEA4000000897DFCBB........754C68F0000000:
                  0. 01 3E9B 0114 0000:?GetPin@CTransInPlaceFilter@@UAEPAVCBasePin@@H@Z
              68........6A036A02:
                8BF1E8........83C40C837E30007427:
                  0. 3C 1514 00A0 0000:?PassNotify@CBaseInputPin@@QAEJAAUtagQuality@@@Z
                E8........8B5D0883C40C85DB750833:
                  0. 08 7068 019A 0000:_AMovieSetupRegisterFilter@12
              6A0859FF750833C08DBA04250000F3AB5266ABE8........33:
                0. A6 99D0 00C6 (l)0000:_make_len@8
              8B:
                3D........:
                  6A105B536A40895DFCFFD78B750889068B45FC:
                    0. 1D 23E1 0083 0000:_ElfpGetComputerName@8
                  8BF1C745FC03000000FFD78BD88B461885C074:
                    0. 11 119D 007B 0000:?Lock@CCritSec@@QAEXXZ
                7D:
                  08:
                    8B4F28894DFCE8........33DB395F0875308D77F08B:
                      0. 39 0F76 006A 0000:?Pause@CBaseFilter@@UAGJXZ
                    8D4770508945FCFF15........8B470833DB433BC389:
                      0. 1A DE57 00AF 0000:?Pause@CBaseRenderer@@UAGJXZ
                  0C8B47048B0F33F63BC67C067F0A3BCE7706F7D913C6F7:
                    0. 11 79C4 0108 0000:?SetTimeDelta@CBaseReferenceClock@@QAGJAB_J@Z
                F1:
                  E8........33C08D7E28B919010000F3AB33FF397D088D:
                    0. 0F 5BEC 014C 0000:?RefreshDisplayType@CImageDisplay@@QAEJPAD@Z
                  FF7608FF15........33DB85C0:
                    0F84E300000053FF7608:
                      0. 02 ABB7 018A 0000:?DoneWithWindow@CBaseWindow@@UAEJXZ
                    745653FF7608FF15:
                      0. 00 0000 00E1 0000:?DoneWithWindow@CBaseWindow@@UAEJXZ
                F98D:
                  4708508945FCFF15........33F633DB3977407E0C8D:
                    0. 05 4CCF 00CB 0000:?GetCommandDueFor@CCmdQueue@@UAEJ_JPAPAVCDeferredCommand@@@Z
                  5F588BCBC745FC010000008D7710E8........8B0683:
                    0. 20 0DAE 0088 0000:?Unadvise@CAMSchedule@@QAEJK@Z
              8D791083C1588BDF894DFCE8........8B37817E0CFFFFFF7F:
                0. 10 E3BB 00A1 0000:?ShuntHead@CAMSchedule@@AAEXXZ
              E8........BB........538945FCFF15........8B35:
                0. 00 0000 00C1 0000:_Dns_DequeueSecurityContextByKey@80
              FF750C8BF1:
                68........E8........8B4508FF75108946148B:
                  0. 2D ACE1 00F1 0000:??0CDeferredCommand@@QAE@PAVCCmdQueue@@PAUIUnknown@@PAJ1NPAU_GUID@@JFJPAUtagVARIANT@@4PAFH@Z
                6A00E8........8B4508FF75108946108B4514FF:
                  0. 2A B144 0185 0000:??0CDeferredCommand@@QAE@PAVCCmdQueue@@PAUIUnknown@@PAJ1NPAU_GUID@@JFJPAUtagVARIANT@@4PAFH@Z
            8B:
              75:
                08:
                  33C085D2578955FC0F84FC000000668B19FF4DFC414166:
                    0. 1C 856F 0126 0000:@Dns_UnicodeToUtf8@16
                  57:
                    33DB8D7EF0F7DF8D46041BFF23F88BCF895DFCE8:
                      0. 00 0000 007E 0000:?Decommit@CBaseAllocator@@UAGJXZ
                    8D45FC508D450850FF762833DBFF7624889E7D090000:
                      0. 03 2A46 0113 0000:_output_block@4
                  85F68BD97514680A01000068........68........E8:
                    0. 00 0000 00A4 0000:?ReallocFormatBuffer@CMediaType@@QAEPAEK@Z
                  8B:
                    065733DB536A028D4D0A5156C745FC01000000FF500C:
                      0. 8C EE41 00AC 0000:_ReadInt@8
                    46:
                      0C24182C08F6D8576A001BC040894508580F94C06A:
                        0. 0C 5D2A 00B7 0000:_SigDnsRecordConvert@4 (0067: 0F)
                        1. 0C 5D2A 0094 0000:_MinfoDnsRecordConvert@4 (0067: 00)
                      2C508945FCFF15........8B450C8946148B451033:
                        0. 63 9CF5 0093 0000:?Run@CBaseFilter@@UAGJ_J@Z
                    4E28894DFCE8........8B450C8946108B451033DB89:
                      0. 60 48A6 0090 0000:?Run@CBaseFilter@@UAGJ_J@Z
                  8D:
                    467057508945FCFF15........8B46086A025F33DB3B:
                      0. 1F FFF4 00B2 0000:?Run@CBaseRenderer@@UAGJ_J@Z
                    4E:
                      4C:
                        57894DFCE8........8B460833FF33DB473BC789:
                          0. 28 EB39 00A0 0000:?Pause@CTransformFilter@@UAGJXZ
                        894DFCE8........33DB395E080F849C00000039:
                          0. 07 B8BD 00CB 0000:?Stop@CTransformFilter@@UAGJXZ
                      6C894DFCE8........8B46088945088B466880B8A9:
                        0. 0C 252C 017A 0000:?Pause@CBaseRenderer@@UAGJXZ
                0C:
                  578D7E1457E8........8B5D08598D44000250578B3D:
                    0. 00 0000 00E8 0000:_pSetComponentData@8
                  8B4E0433C085C9570F8CB900000083F9017E3983F9020F:
                    0. 0F 80AF 00D9 0000:_NetpAllocFtinfoEntry2@8
                14:
                  33DB5733FF3BF3895DFC7402891E568D45FC5053FF7510:
                    0. 07 527D 0118 0000:_SaBlob_Query@20
                  57FF751C8D45FC5033DB6A0153FF7508895DFCFF5624FF:
                    0. 51 6B88 009F 0000:_ReadPSZ@24
                2057BB0080000053FF560C33FF3BC7598945FC7508576A03:
                  0. D4 BE56 00FC 0000:_filecopy@32
              F1:
                578D5E:
                  0853FF15........8B7D088365FC008327006A50E8:
                    0. 00 0000 007E 0000:?New@CCmdQueue@@UAEJPAPAVCDeferredCommand@@PAUIUnknown@@NPAU_GUID@@JFJPAUtagVARIANT@@3PAFH@Z
                  5053C745FC010000008D7E08FF15........8B0783:
                    0. 20 D867 005D 0000:?Unadvise@CAMSchedule@@QAEJK@Z
                837E2C005774278B462885C074058D500CEB0233D28B462C:
                  0. 2B E4D0 008F 0000:?PassNotify@CBaseInputPin@@QAEJAAUtagQuality@@@Z
                8B:
                  8EA4000000E8........33DB39582074178B86A8000000:
                    0. 16 82F7 00F3 0000:?Receive@CTransformFilter@@UAEJPAUIMediaSample@@@Z
                  DEF7DB8D46:
                    101BDB23D853FF15........8BCEE8:
                      0. 00 0000 00E4 0000:?Alloc@CMemAllocator@@MAEJXZ
                    141BDB23D88BCB895DFCE8........8BCEE8:
                      0. 00 0000 0159 0000:?Alloc@CMemAllocator@@MAEJXZ
                8D:
                  463457508945FCFF15........8B4E1C8B45083B48048B:
                    0. 2B EFA9 0099 0000:?CheckSampleTimes@CBaseStreamControl@@AAE?AW4StreamControlState@1@PB_J0@Z
                  4E:
                    0857894DFCE8........33FF33DB397E547E0DFF764C:
                      0. 04 B2AF 00D0 0000:?GetCommandDueFor@CCmdQueue@@UAEJ_JPAPAVCDeferredCommand@@@Z
                    3457894DFCE8........837E2800741468EE00000068:
                      0. 00 0000 00CB 0000:?CheckSampleTimes@CBaseStreamControl@@AAE?AW4StreamControlState@1@PB_J0@Z
                  5E:
                    08578BCBE8........8B7D088365FC008327006A58E8:
                      0. 00 0000 007E 0000:?New@CCmdQueue@@UAEJPAPAVCDeferredCommand@@PAUIUnknown@@NPAU_GUID@@JFJPAUtagVARIANT@@3PAFH@Z
                    18578BCBE8........33FF397E14751B8D45FC505756:
                      0. 01 361F 0043 0000:?Create@CAMThread@@QAEHXZ
                    208B0385C0578945FC741A8D45FC508BCBE8:
                      0. 12 99BE 00AA 0000:??1CCmdQueue@@UAE@XZ
                    34578BCB895DFCE8........8B7D08397E6475078BCB:
                      0. 11 A3BE 00FB 0000:?NotifyFilterState@CBaseStreamControl@@QAEXW4_FilterState@@_J@Z
                  8EA0000000:
                    57894DFCE8........:
                      837E7400BF:
                        0. 09 E90A 00B3 0000:?NotifyEndOfStream@CBaseRenderer@@QAEJXZ
                      8B467833DB33FF3958:
                        0. 04 0AB6 0078 0000:?OnDisplayChange@CBaseRenderer@@QAEHXZ
                    894DFCE8........33DB43395E64750733F6:
                      0. 0C 0228 00B3 0000:?StartStreaming@CBaseRenderer@@UAEJXZ
          578B7D:
            1033DB3BFB75086A5758E98B0000008B073BC3568B35:
              0. 00 0000 00A8 0000:_RxNetShareAdd@16
            1433D233DB3B7D188BC77320660FB6080FB7C943837D0C01:
              0. 1D 5118 009A 0000:_Txt_RecordRead@20
          8B:
            1D........56:
              57FF7508FFD30FB6388D470150FF15........50:
                0. 04 F6A9 0070 0000:_NetpDomainIdToSid@12
              8BF1:
                8B460885C05774:
                  0E6AFF50FF15........FF:
                    0. 17 1398 006F 0000:??1CMsgThread@@QAE@XZ
                  266AFF50FF15........FF:
                    0. 0E CF93 00A3 0000:??1CMsgThread@@QAE@XZ
                8D4608578945FCFF75FCFF15........33FF:
                  0. 0B 2147 00BD 0000:?GetDueCommand@CCmdQueue@@UAEJPAPAVCDeferredCommand@@J@Z
            5D:
              08:
                3B5D0C750833C040E9BD00000085DB56BE........751068:
                  0. 06 1357 00D7 0000:?IsEqualObject@@YGHPAUIUnknown@@0@Z
                5657894DFC6A0459BF........8D732C33C0F3A7740768:
                  0. 00 0000 00B3 0000:?CheckMediaType@CImageDisplay@@QAEJPBVCMediaType@@@Z
                85DB:
                  5657750833C040E9270100008B338B450C8B0883EC10:
                    0. FF 023E 0144 0000:_AMovieSetupRegisterFilter@12
                  894DFC750AFF750CE8........EB7C3B59:
                    04750AFF75:
                      0. 02 A1CD 009A 0000:?AddBeforeI@CBaseList@@IAEPAU__POSITION@@PAU2@PAX@Z
                    08750AFF75:
                      0. 02 A1CD 009A 0000:?AddAfterI@CBaseList@@IAEPAU__POSITION@@PAU2@PAX@Z
                8D049B57D1E050E8........8BF885FF897DFC745B836508:
                  0. 12 943B 007E 0000:_Dns_CreateMultiTypeStringFromTypeArray@12
              10:
                33C93BD956894DFC750D394D1474086A0358E9B700000057:
                  0. 28 B72F 00DC 0000:_CM_Set_DevNode_Registry_Property_ExA@24 (REF 0048: _CM_Set_DevNode_Registry_Property_ExW@24)
                  1. 28 B72F 00DC 0000:_CM_Set_Class_Registry_PropertyA@24 (REF 0048: _CM_Set_Class_Registry_PropertyW@24)
                85DB750AB803400080E9BA00000056576A0453FF15:
                  0. 00 0000 00EA 0000:?FindPin@CBaseFilter@@UAGJPBGPAPAUIPin@@@Z
        56:
          0FB77048578B38880C3E66FF404885D2750C8D8C88B000000066FF:
            0. 92 CAA1 0118 (l)0000:_ct_tally@12
          33F639751076238B45102BC68945FC8D45FC508B450C03C650E8:
            0. 00 0000 003B 0000:_GenRandom@12
          57:
            33FF8BF139BE8C000000897DFC75:
              2F68E8000000E8........3B:
                0. 05 AF66 00B5 0000:?GetPin@CTransInPlaceFilter@@UAEPAVCBasePin@@H@Z
              7568E0000000E8........3B:
                0. 05 AF66 00AD 0000:?GetPin@CTransformFilter@@UAEPAVCBasePin@@H@Z
            8B:
              7D08:
                33C08A875C02000033F683E00F2BC6747B487441484874:
                  0. 29 A322 00E3 0000:_MCICompressGlobal@8
                85FF7514689D00000068........68........E8:
                  0. 00 0000 006C 0000:?LocateSubtype@@YGHPBU_GUID@@@Z
                8B378365080085F676368D44B704538D5F048945FCFF33:
                  0. 04 8F42 005A 0000:_Dns_CheckAndMakeIpArraySubset@8
              F05633FFFF15........85C074748D7DFC8975FCE8:
                0. 06 66E1 00B0 (l)0000:_ConvertDeviceName@4
              F18D7E3457897DFCFF15........8B4508394658750657E9AC:
                0. 7C 069A 00DB 0000:?NotifyFilterState@CBaseStreamControl@@QAEXW4_FilterState@@_J@Z
            8D45FC:
              33FF85C0750ABE03400080E9B50000008B45083938530F:
                0. 06 B907 00D6 0000:?GetIDsOfNames@CBaseDispatch@@QAGJABU_GUID@@PAPAGIKPAJ@Z
              506A0133FF5757FF7508897DFC57E8........8BF03BF7:
                0. 12 2F9F 008E 0000:_NetpCheckDomainNameIsValid@16
            FF7508FF15........8BF0598D45FC508D44360450E8:
              0. 0E BE3C 0062 0000:_NetpGetMachineAccountName@8
          68........6A056A028BF1E8........83C40C833E00743268:
            0. 00 0000 0171 0000:?LoadDirectDraw@CLoadDirectDraw@@QAEJPAD@Z
          6A00FF15........8BF085F67C3C8D45FC5068........6A036A00:
            0. 01 361F 0056 0000:_MMCPropertyChangeNotify@8
          8B:
            75:
              08:
                0FB64E2C0FB716578D44312D8D7C32183BF88945FC720B0F:
                  0. 29 A8D2 00A4 0000:_SoaRpcRecordConvert@8
                5733FF397E:
                  10897DFC7409C745FC05400080EB65397D0C74:
                    0. 04 BB5F 008A 0000:?Init@CSeekingPassThru@@UAGJHPAUIPin@@@Z
                  14897DFC7409C745FC05400080EB6D397D0C74:
                    0. 04 DF32 0092 0000:?Init@CSeekingPassThru@@UAGJHPAUIPin@@@Z
                668B166685D274748B46040FB7D2D1EA538D1C503BC38BC8:
                  0. 69 6BEE 0089 0000:_NetpConvertWorkstationList@4
                8326008B41:
                  188B088D55085250FF511885C07C228B45088B:
                    0. 07 D265 0051 0000:?GetPeer@CPosPassThru@@AAEJPAPAUIMediaPosition@@@Z (REF 0027: _IID_IMediaPosition)
                    1. 07 D265 0051 0000:?GetPeerSeeking@CPosPassThru@@AAEJPAPAUIMediaSeeking@@@Z (REF 0027: _IID_IMediaSeeking)
                  1C8B088D55085250FF511885C07C228B45088B:
                    0. 07 D265 0051 0000:?GetPeer@CPosPassThru@@AAEJPAPAUIMediaPosition@@@Z (REF 0027: _IID_IMediaPosition)
                    1. 07 D265 0051 0000:?GetPeerSeeking@CPosPassThru@@AAEJPAPAUIMediaSeeking@@@Z (REF 0027: _IID_IMediaSeeking)
                85F6:
                  7507B803400080EB3F8B018D55FC528D55085251FF90:
                    0. 37 7A3C 0057 0000:?CheckSourceRect@CBaseControlVideo@@UAEJPAUtagRECT@@@Z
                  C745FC1000000075056A5758EB41566A20E8:
                    0. 17 4483 005E 0000:_NetpGetComputerNameEx@8
                8D4E6C57894DFCE8........8B46086A025F3BC789450875:
                  0. 23 BBF0 0166 0000:?Run@CBaseRenderer@@UAGJ_J@Z
              0C33C03BF08945FC745C39460489450C7651538B5D08578D7E:
                0. 1B C9A7 0072 0000:_DnsAddrArray_AppendArrayEx@28
              105733FF3BF775056A5758EB73538D4508508D45FC5068FFFF:
                0. 07 5E2E 008D 0000:_RxNetConfigGetAll@12
            F1:
              578D7E588BCFE8........8365FC005668........6A016A01:
                0. 01 3E9B 006C 0000:?DumpLinkedList@CAMSchedule@@QAEXXZ
              837E:
                18007507B809020480EB658B46188365FC008B088D55FC:
                  0. 02 4E00 007E 0000:?ChangeMediaType@CDynamicOutputPin@@QAEJPBVCMediaType@@@Z
                3400751A8D45FC506A006A00C7466001000000E8:
                  0. 00 0000 0046 0000:?SendAnyway@COutputQueue@@QAEXXZ
                400074418B46408B088D55FC5268........50FF1185C0:
                  0. 38 7F9D 0058 0000:?ReconnectPin@CBaseFilter@@QAEJPAUIPin@@PBU_AMMediaType@@@Z
              8B:
                0657FF506484C0BF........7510681C1100005768:
                  0. 00 0000 00C5 0000:?ChangeMediaType@CDynamicOutputPin@@QAEJPBVCMediaType@@@Z
                463085C0578945FC741D8D7E2C8D45FC508BCFE8:
                  0. 13 6C89 00AD 0000:??1CCmdQueue@@UAE@XZ
                868C00000083B8C80000000074178B86900000008B809C00:
                  0. 17 0CA9 00AC 0000:?Receive@CTransformFilter@@UAEJPAUIMediaSample@@@Z
              8D:
                4E7C57894DFCE8........8B46788B7D085705A000000050:
                  0. 0B 91B8 01E8 0000:?PrepareReceive@CBaseRenderer@@UAEJPAUIMediaSample@@@Z
                86A4000000508945FCFF15........83BEC4000000007505:
                  0. 08 D749 006F 0000:?UnblockOutputPin@CDynamicOutputPin@@IAEJXZ
                8EAC000000894DFCE8........83BED800000000:
                  741CFF15:
                    0. 00 0000 00A4 0000:?AsynchronousBlockOutputPin@CDynamicOutputPin@@IAEJPAX@Z
                  750833F6:
                    0. 10 93B4 00B5 0000:?UnblockOutputPin@CDynamicOutputPin@@IAEJXZ
          8D:
            45FC508D452050FF751CFF7518FF7514FF7510FF750CFF7508E8:
              0. 00 0000 0038 0000:?_com_dispatch_method@@YAJPAUIDispatch@@JGGPAXPBGZZ (0017: C3)
              1. 00 0000 003A 0000:?_com_dispatch_raw_method@@YAJPAUIDispatch@@JGGPAXPBGZZ (0017: 5E)
            71085783C150518BFE894DFCFF15........8B0F8B068B510C3B:
              0. 2D 1092 0055 0000:?ShuntHead@CAMSchedule@@AAEXXZ
          9BD97DFCFF75FCE8........598B4D0C8BF1237508F7D123C80BF1:
            0. 02 26E3 0032 0000:__control87
          BEFFFF00005756683F130000E8........DD45088BF88B450E6625:
            0. 10 4BF6 01BA 0000:_ldexp
            1. 10 F539 00E9 0000:__logb
          FF75:
            08FF15........8D740002598D45FC5056E8........85C074:
              0. 25 8BDB 0045 0000:_NetpAllocWStrFromWStr@4
            0CE8........FF750C8BF046FF15........59D1E050FF750C:
              0. 0B F28A 003B 0000:_NetpCopyWStrToStrDBCS@8
        57:
          33FF39:
            3D........741168........6802000800E8........5959:
              0. 07 090D 01E4 0000:?EnumerateDynamicTerminalClasses@CMSPAddress@@UAGJPAPAUIEnumTerminalClass@@@Z
            7D:
              08742A68........FF7508E8........85C0595974178D:
                0. 05 4C3A 0077 0000:_EVENTLOG_HANDLE_W_bind@4
              10750AB803400080E9BA0000008B45143BC77438893856:
                0. 09 050A 00DC 0000:?Next@CEnumPins@@UAGJKPAPAUIPin@@PAK@Z
          8B7D08:
            85FF:
              743A837D0C0074348D4508508D45FC5068........E8:
                0. 00 0000 004E 0000:_DeInitRand@8
              750733C0E992000000668B4708538B5F0C568B3783E3:
                0. 39 814F 00AA 0000:_Dns_RecordSetDetach@4
            8B073D00A6CE127D2F8B4D0C33C04033D2C7411450000000:
              0. B3 26CB 0165 0000:_net_gmtime@8
          8D45FC50E8........8BF885FF7C1456FF750C8B75FC56FF55088B:
            0. 0F 1CF1 002F 0000:?GetSeekingLongLong@CPosPassThru@@AAEJP8IMediaSeeking@@AGJPA_J@Z0@Z
          FF35........E8........8BF885FF0F8499000000568B35:
            0. 00 0000 00B8 0000:_tkSetOneColor@16
        6A:
          016A:
            016A00FF750C8D45FC50FF7508C745FC00020000E8:
              0. 04 864F 0024 0000:_Dns_NameCopyStandard_W@8
            026A00FF750C8D45FC50FF7508C745FC00020000E8:
              0. 04 864F 0024 0000:_Dns_NameCopyWireToUnicode@8
          026A:
            016A00FF750C8D45FC50FF7508C745FC00010000E8:
              0. 04 864F 0024 0000:_Dns_NameCopyUnicodeToWire@8
            026A00FF750C8D45FC50FF7508C745FC00010000E8:
              0. 04 864F 0024 0000:_Dns_NameCopyStandard_A@8
        83:
          3D........00:
            741168........6802000800E8........59598B45:
              0. 17 2D90 00C0 (!)0000:?
              1. 17 3882 00CE (!)0000:?
            75278D45FC50E8........85C0741D8B4DFCBA:
              0. 00 0000 003B 0000:_InitializeRNG@4
          65FC00:
            53:
              56:
                578B7D08:
                  668B3783C7026A0856E8........5985C059:
                    0. 90 A7EA 01A4 (l)0000:_wcstoxl
                  85FF8BC7B9FFF7FFFF740C21480C8B00FF45:
                    0. 29 BEC1 00F1 0000:_Dns_RecordSetCompareEx@16
                8B75:
                  0885F674328B5D0C85DB742B837B040074255756:
                    0. 01 3E9B 004B 0000:_Dns_PrioritizeRecordList@8
                  1085F6577505BE........837D14008B7D0C8B5D:
                    0. 05 8F6C 0097 0000:_DnsPrint_StringArray@24
              8B5D:
                0856578BFB83C9FF33C0F2AEF7D14983F901722180:
                  0. 11 5F09 013F 0000:__splitpath
                0C:
                  568B750857FF75148B7D108D45FC50FFB6D40A00:
                    0. 4F F693 0081 0000:_ReadCFDATAEntry@16
                  83FB0456570F82270100008B7D1085FF747B8B07:
                    0. 85 2055 0147 0000:?SetProperties@CMediaSample@@UAGJKPBE@Z
                1085DB75086A5758E98B0000008B4D0C568B75088B:
                  0. 06 5559 00A8 0000:_Dns_UnionOfIpArrays@12
            56:
              578B7D0C6A11FF7514FF751057E8........8BF085F675:
                0. 09 676A 008D 0000:_NetpIsValidDomainName@16
              668B75086681FE0004770533C040EB2D8D45FC506A00FF:
                0. 03 4FBD 004B 0000:_CM_Is_Version_Available_Ex@8
              68B00000008BF1E8........85C0597419FF750C8D4DFC:
                0. 05 9CED 004F 0000:?CreateImageSample@CImageAllocator@@MAEPAVCImageSample@@PAEJ@Z
              8B:
                75:
                  08:
                    57FF75108B7D0C8D45FC506A108D86B809000050:
                      0. 2F 9756 0064 0000:_ReadCFFILEEntry@12
                    8B0E4978548B450C5383E0028D548E0457894508:
                      0. 4F A5A1 006F 0000:_Dns_CleanIpArray@8
                  14:
                    832600578B7D0C83FF57745383FF7C744E81FF61:
                      0. 17 A8A9 0076 0000:_NetpHandleConfigFailure@16
                    85F6750F68........FF750CFF55085959EB7753:
                      0. 05 9CBC 00A3 0000:_DnsPrint_RpcDpEnum@16
                F03B75080F83FC00000053578BF9C1E7028B5A3433C0:
                  0. F8 3E5E 0118 (l)0000:_tally_frequency@16
              8D45FC50:
                6A00FF7508E8........8BF085F67C468D4508:
                  0. 07 C1A9 007C 0000:_NetpGetLsaDcRole@8
                FF75:
                  08E8........85C07520FF7518FF7514FF:
                    0. 09 039C 0043 0000:_CM_Get_HW_Prof_Flags_ExA@20 (REF 0029: _CM_Get_HW_Prof_Flags_ExW@20)
                    1. 09 039C 0043 0000:_CM_Set_HW_Prof_Flags_ExA@20 (REF 0029: _CM_Set_HW_Prof_Flags_ExW@20)
                  0CE8........85C075:
                    1DFF7514FF7510FF:
                      0. 06 AE17 0040 0000:_CM_Add_ID_ExA@16
                    20FF7518FF7514FF:
                      0. 09 CD18 0043 0000:_CM_Create_DevNode_ExA@20
              E8........68........E8........837D0C005975056A:
                0. 11 6019 00B9 0000:_NetpDoDomainJoin@24
              FF7508E8........5068........E8........59598D45:
                0. 0D 0A15 0053 0000:_NetpForceMachinePasswordChange@4
            57:
              68B00000008BF9E8........85C0597416FF750C8D4DFC:
                0. 0A 5079 004C 0000:?CreateImageSample@CImageAllocator@@MAEPAVCImageSample@@PAEJ@Z
              8B7D0885FF0F8483000000568B35........57FFD6D1E0:
                0. 41 A573 009F 0000:_FindUserProperty@16
            6A048D45FC506A056AFEFF15........85C07D0950FF15:
              0. 00 0000 0029 0000:_NetpReleasePrivilege@0
            837D:
              08007432837D1000750433C0C9C3837D08007422FF75:
                0. 02 A1CD 0073 0000:_wcstombs
              0C0074158D45FC50FF750CE8........85C074056A1F:
                0. 1A 2A40 0055 0000:_CM_Open_Class_Key_ExA@28
              100053565776278B75088B7D0C2BFE8D043750FF36E8:
                0. 00 0000 0050 0000:_MyAllocUnicodeVector@12
              14005674248D45FC50FF7510E8........8BF085F675:
                0. 0D 866A 0056 0000:_NetpGeneratePassword@20
            8D45FC:
              50:
                6A00FF7508E8........83F87B75048365FC008B:
                  0. 06 B713 0026 0000:_Dns_NameLabelCountA@4
                FF7508E8........83F87B75048365FC008B45FC:
                  0. 04 26E6 0024 0000:_Dns_NameLabelCountW@4
              6800800000508D4508506AFFFF15........C9C204:
                0. 01 78F0 0021 0000:_LsaFreeReturnBuffer@4
            E8........8B451085C07505B8........538B5D0C565053:
              0. 0D 26E8 00F3 0000:_DnsPrint_RpcRecordsInBuffer@24
          7D:
            08:
              02740F6A0DFF15........33C0E9C400000053576A29E8:
                0. 00 0000 00E1 0000:_Atma_RecordBuild@8
              04740A6A0DFF15........EB0E6A0CE8........85C08945FC:
                0. 1D 0881 006B 0000:_Srv_RecordBuild@8 (REF 003D: strtoul)
                1. 1D 0881 006B 0000:_Srv_RecordBuildW@8 (REF 003D: wcstoul)
            1000:
              74086A7C58E9E600000053FF750C8B1D........FFD383F8:
                0. 5B 2AFA 0101 0000:_RxNetGroupSetUsers@20 (0065: 6C)
                1. 5B 2AFA 0101 0000:_RxNetUserSetGroups@20 (0065: 6D)
              750AB803400080E925010000568B750C57C1E60256FF7510:
                0. 02 ABB7 015E 0000:?Next@CEnumPins@@UAGJKPAPAUIPin@@PAK@Z
            1400:
              53568B751057:
                56752BFF15........3B450C59734C8D1400:
                  0. 1E 309E 00A7 0000:_Dns_NameAppend_W@16
                75308BC68D50018A084084C975F92BC23B45:
                  0. 99 21B3 00B9 0000:_Dns_NameAppend_A@16
              7507B803400080EB76837D0C0056741A8B7510576A0459BF:
                0. 00 0000 008B 0000:?CreateInstance@CClassFactory@@UAGJPAUIUnknown@@ABU_GUID@@PAPAX@Z
        8A4D085333DB5643D3E3576A0433F6895DFC33C05A8B88........33:
          0. 06 154D 01B0 0000:_Lz_Init@4
        8B:
          0185C075:
            02C9C38365FC008B08568D55FC5268........50FF118B:
              0. 18 CF52 0038 0000:?IsDirectDrawVersion1@CLoadDirectDraw@@QAEHXZ
            0433C0C9C38365FC008B08568D55FC5268........50FF:
              0. 16 35A3 005E 0000:?IsDirectDrawVersion1@CLoadDirectDraw@@QAEHXZ
          41485356578D78018B45088979488D71088978048B168B5A0C3B58:
            0. 3F D7F7 006C 0000:?AddAdvisePacket@CAMSchedule@@AAEKPAVCAdvisePacket@1@@Z
          45:
            08:
              33C93BC156894DFC742E3808742A8D4DFC5150E8........85:
                0. 0A 1F21 0051 0000:_CM_Connect_MachineA@8
              53:
                33C93BC15657894DFC0F84570100008B5D0C3BD90F844C01:
                  0. 4C 422D 0188 0000:_DnsRpc_ConvertToUnversioned@12
                5657894DFC6A04BA........598BFA8BF033DBF3A7740E8B:
                  0. 74 4DC8 0094 0000:?MatchesPartial@CMediaType@@QBEHPBV1@@Z
                578B3833DB3BFBC745FC0D000000750AB839230000E98701:
                  0. 18 67C2 01AF 0000:_Dns_WriteGssTkeyToMessage@20
              8B:
                08668B5108568B7518663BD6578B7D14894DFC74126685D2:
                  0. 88 B164 00A8 0000:_HostentBlob_WriteAddressArray@20
                108B4D10538B5D1456668B7208663BF3578B7830897DFC89:
                  0. 7A 5ECC 009A 0000:_HostentBlob_WriteAddress@16
                4E04538B9E6C08000057C6867D090000008B108BFB8BC22B:
                  0. 2B D2E6 00BC (l)0000:_redo_first_block@8
                550C8B4D14F775100BC9740289118945FC8B45FCC9C21000:
                  0. 00 0000 0020 0000:?EnlargedUnsignedDivide@@YGKT_ULARGE_INTEGER@@KPAK@Z
            0C:
              8365FC00:
                85C074438B088D550C5268........50FF1185C07C:
                  0. 26 DB0B 0061 0000:?_com_issue_errorex@@YGXJPAUIUnknown@@ABU_GUID@@@Z
                8D48018A104084D275F92BC1568BF08B450C8D4801:
                  0. 2D EB97 005C 0000:_WritePsz@20
                D1E8837D080074163DFFFFFF7F770F8D4DFC5150FF:
                  0. 03 2FDA 0044 0000:_StringCbLengthW@12
              8D551085C07E395756538945FC8B3A83C20483C9FF33C0F2AE:
                0. 29 8EA4 0049 0000:__strcats
            10:
              5333DB89188B450C3BC35657:
                0F84B50000006639180F84AC00:
                  0. 0C D6DF 00D8 0000:_NetpGetConfigValue@12
                747A66391874758B7D088D4508:
                  0. 04 F6B0 0099 0000:_NetpGetConfigTStrArray@12
              8B00538B5D0C568B75088B4E04894B048B0E890B8B4E08894B:
                0. 32 5F99 0111 0000:_NetpMarshalFtinfoEntry@12
            14:
              33D25332DB395508885DFF891076598B4D0C8B0C9181E92002:
                0. 5A 99AD 007A 0000:_NetpAliasMemberToPriv@16
              538B5D1C56578B7D20FF750C33F6893789338930FF15:
                0. 00 0000 0099 0000:_RxNetUserGetGroups@28
            20:
              5333DB3BC3895DFC7408391874046A57EB07395D0C74086A7C:
                0. 12 3AE2 00C4 0000:_RxNetServerDiskEnum@28
              8365FC0053568B75086683A6AE000000008946388B451857FF:
                0. 1F 5123 01E2 0000:_FDICopy
            2C8B0053568B750885F6578945FC0F843E01000066833E000F84:
              0. 06 D6C7 0164 0000:_RxpTransactSmb@44
          4D:
            08:
              53565733C08DB1EE4200008BFEABABABAB8B7D0C8B512C33DB:
                0. 59 F2A7 0079 0000:_get_aligned_stats@8
              568B7510568D45105068800200008D4508508D55FCE8:
                0. 00 0000 0064 0000:_LUI_ParseTimeSinceStartOfDay@16 (0043: 00)
                1. 00 0000 0067 0000:_LUI_ParseDateTime@16 (0043: C9)
              668B0153565733DB33FF663D5C006A2F895DFC5E7405663BC6:
                0. C3 992F 0169 (l)0000:_ConvertPathMacros@4
              8365FC0081394C44494374056A0258C9C3568B75188B063B41:
                0. 1B 4DDA 004E 0000:_LDIDecompress
              8B94884C1000008955FC8B504003C93BCA7F7D53567D358BB4:
                0. 88 4CC5 00A8 (l)0000:_pqdownheap@12
            1485C98B451089451075086A5758E9:
              0B010000578B7D0885FF89:
                0. 14 F286 0128 0000:_NetpGetConfigBool@16
              14010000538B5D0885DB89:
                0. 14 8106 0131 0000:_NetpGetConfigDword@16
        8D:
          45FC50:
            6A018D450850E8........C9C20400:
              0. 00 0000 0017 0000:?Receive@COutputQueue@@QAEJPAUIMediaSample@@@Z
            FF750CE8........8B4D088941048B45FC85C07C08FF750C:
              0. 09 7F37 0029 0000:?Load@CPersistStream@@UAGJPAUIStream@@@Z
          4DFC518D4D0C51FF750C33C06A:
            0168........50FF75088945FC50:
              0. 06 F9EC 0036 0000:_DnssrvEnumDirectoryPartitions@12 (REF 0014: ??_C@_0BI@DMDJIDPF@EnumDirectoryPartitions?$AA@)
              1. 06 F9EC 0036 0000:_DnssrvGetStatistics@12 (REF 0014: ??_C@_0L@HOODANMK@Statistics?$AA@)
            0268........50FF75088945FC50:
              0. 06 F9EC 0036 0000:_DnssrvDirectoryPartitionInfo@12
        9B:
          D97DFC8B450C8BC8234508F7D1234DFC0BC8894D0CD96D0C0FBF45:
            0. 03 7E06 0023 0000:__ctrlfp
          DD7D:
            FCFF75FCE8........59C9C3:
              0. 00 0000 0013 0000:__statusfp
            FE0FBF45FEC9C3:
              0. 00 0000 000E 0000:__statfp
        A1........53:
          5633D285C0577E1FC745FC........8B7D088B75FC6A:
            0. 1A 638C 005F 0000:??ACGuidNameList@@QAEPADABU_GUID@@@Z
          8B5D08568945FC8B432433F63BC65775078D7B2C3937:
            0. 04 EED0 0169 0000:_Dns_ExtractGssTsigFromMessage@12
        DD:
          4508568BF1578D7E04893EE8........8945FCDB45FCDC6D08DC0D:
            0. 00 0000 0044 0000:??0CDisp@@QAE@N@Z
          7D:
            FCDBE2FF75FCE8........59C9C3:
              0. 00 0000 0014 0000:__clearfp
            FEDBE20FBF45FEC9C3:
              0. 00 0000 000F 0000:__clrfp
        FF75088365FC008D45FC50FF750CFF15........85C075:
          0D8B45FC80:
            0. 0F FD5E 002F 0000:_Dns_Ip6StringToAddress_A@8
          0E8B45FC66:
            0. 10 ED73 0030 0000:_Dns_Ip6StringToAddress_W@8
      53:
        33DB391D........56:
          7514681F01000068........68........E8:
            0. 00 0000 009F 0000:?PerflogCallback@@YGKW4WMIDPREQUESTCODE@@PAXPAK1@Z
          8B750C74135668........6802000800E8:
            0. 00 0000 0143 0000:?ReceiveTSPData@CMSPAddress@@UAGJPAUIUnknown@@PAEK@Z
        56:
          57:
            33:
              F6:
                56FF75088BD9:
                  566A04566AFFFF15........8BF83BFE744D:
                    0. 14 40F8 007F 0000:?CreateDIB@CImageAllocator@@IAEJJAAUtagDIBDATA@@@Z
                  E8........8B451C8B7D0C8943208B45108D:
                    0. 25 4A66 00E5 0000:??0CBasePin@@QAE@PADPAVCBaseFilter@@PAVCCritSec@@PAJPBGW4_PinDirection@@@Z (0047: 33)
                    1. 25 4A66 00E5 0000:??0CBasePin@@QAE@PAGPAVCBaseFilter@@PAVCCritSec@@PAJPBGW4_PinDirection@@@Z (0047: 00)
                8B5D103933761BFF750CFF7508FF551883C40885C074248B:
                  0. 2B 58BD 004B 0000:__lsearch
              FF57FF75088BF1576A04576AFFFF15........8BD83BDF747D:
                0. 13 35F2 00AF 0000:?CreateDIB@CImageAllocator@@IAEJJAAUtagDIBDATA@@@Z
            556A006A0068........FF7508E8........5D5F5E5B8BE55DC3:
              0. 2D 1EFC 00EE (!)0000:? (l!)0018:? (l!)0020:? (l!)0041:? (!)0042:? (l!)005F:? (!)009A:? (l!)009C:? (!)00AA:? (l!)00CC:? (!)00CD:? (!)00D6:? (l!)00E0:? (!)00E9:?
              1. 47 7465 0115 0000:__global_unwind2 (l)0018:_gu_return (l)0020:__unwind_handler (l)005A:_uh_return 005B:__local_unwind2 (l)0079:_lu_top (l)0095:_continue_ 00BB:__NLG_Return2 (l)00BD:_lu_done 00CB:__abnormal_termination (l)00ED:_at_done 00EE:__NLG_Notify1 00F7:__NLG_Notify (l)0101:__NLG_Go 010D:__NLG_Dispatch2
            68........6A056A02:
              5B53E8........8B750C83C40C8D4610BF:
                0. 00 0000 02A0 0000:?DisplayType@@YGXPAGPBU_AMMediaType@@@Z
              E8........8B751083C40C85F67520683B:
                0. 04 B144 00D0 0000:?GetImageSize@CBaseControlVideo@@QAEJPAUtagVIDEOINFOHEADER@@PAJPAUtagRECT@@@Z
            6A:
              006A00E8........59BEFFFF0000598BD856FF35........E8:
                0. 00 0000 010F 0000:_modf
              016A01FF75108BF16A00FF750CE8........837D10008B7D08:
                0. 02 D3ED 0064 0000:??0CImageAllocator@@QAE@PAVCBaseFilter@@PAGPAJ@Z
              04FF750CFF15........83F801751468E403000068:
                0. 01 361F 008B 0000:?Notify@CTransformOutputPin@@UAGJPAUIBaseFilter@@UtagQuality@@@Z
            8B:
              3D........6A08FF750CFFD783F801BE9B0D0000BB:
                0. 05 0F28 00E1 0000:?GetTime@CMediaSample@@UAGJPA_J0@Z
              7D:
                08:
                  33C08A87B200000033DB83E00F2BC30F84A60000004874:
                    0. 2E 7B1D 010B 0000:_MDIDecompressGlobal@8
                  57:
                    8BF1FF15........85C0BB........75106821020000:
                      0. 02 9619 00B7 0000:?InitialiseWindow@CBaseWindow@@UAEJPAUHWND__@@@Z
                    E8........83F801BB........741068D90700005368:
                      0. 00 0000 00E8 0000:?MakePalette@CImagePalette@@SGPAUHPALETTE__@@PBUtagVIDEOINFOHEADER@@PAD@Z
                  817F04FFFFFF7F8BF17C187F05833FFF72116A5568:
                    0. 00 0000 009D 0000:?AddAdvisePacket@CAMSchedule@@QAEKAB_J0PAXH@Z
                  837F5C007514681613000068........68........E8:
                    0. 00 0000 0063 0000:?SetNotify@CBaseAllocator@@UAGJPAUIMemAllocatorNotifyCallbackTemp@@@Z
                  8B:
                    470CC1E80383E0037405894514EB0A837D14000F84C0:
                      0. 12 3B37 00F3 0000:_privateRecordCopy@20
                    5F188D049D0800000050E8........8BF085F6744B83:
                      0. 23 28F2 006E 0000:_TxtRecordCopy@12
                    77:
                      088BD9EB1E568BCFE8........508BCBE8:
                        0. 08 C43C 0040 0000:?AddHead@CBaseList@@QAEHPAV1@@Z
                      4081C6800000008BCEE8........837D0C00751468:
                        0. 05 71BD 005F 0000:?Receive@CTransformInputPin@@UAGJPAUIMediaSample@@@Z
                    B7D000000081C6800000008BCEE8........8D4FF08B:
                      0. 1A 1748 0047 0000:?EndOfStream@CTransformInputPin@@UAGJXZ
                  8D77:
                    0C56FF15........8BD885DB7D1468B900000068:
                      0. 00 0000 0067 0000:?NonDelegatingRelease@CUnknown@@UAGKXZ
                    6C8BCE897508E8........33DB395F08741C8B4768:
                      0. 06 E949 010A 0000:?Stop@CBaseRenderer@@UAGJXZ
                0C:
                  33C93BF90F84A700000066390F0F849E000000394D140F:
                    0. 12 40D5 00C4 0000:_NetpAllocConfigName@16
                  57FF15........5933DB53FF75108BF08D443602505757:
                    0. 02 9E9D 008F 0000:_NetpStringToNetBiosName@16
                  6868020000FFD78BF033DB3BF359750D536A03FF7508E8:
                    0. 00 0000 00B9 0000:_FolderInit@48
                  8B77:
                    048BD9EB24568BCFE8........50FF75088BCBE8:
                      0. 00 0000 0046 0000:?AddAfter@CBaseList@@QAEHPAU__POSITION@@PAV1@@Z
                    088BD9EB24568BCFE8........50FF75088BCBE8:
                      0. 00 0000 0046 0000:?AddBefore@CBaseList@@QAEHPAU__POSITION@@PAV1@@Z
                1033DB3BFB7505BF........8B75143BF375:
                  115768:
                    0. 00 0000 0077 0000:_DnsPrint_SearchList@16
                  1668:
                    0. 02 F67E 0095 0000:_DnsPrint_SaBlob@16
                1468E8110000FFD78BF033DB3BF3597510536A03FF750CE8:
                  0. 00 0000 00CD 0000:_CreateCab@52
              F1:
                33FF39BEA4000000BB........7510686D0100005368:
                  0. 00 0000 00D6 0000:?CompleteConnect@CTransInPlaceFilter@@UAEJW4_PinDirection@@PAUIPin@@@Z
                56FF15........8B45088B4D1833FF397D1C8D5E1C894618:
                  0. 1E E7AF 0149 0000:??0COutputQueue@@QAE@PAUIPin@@PAJHHJHJK_N@Z
                E8........:
                  8B45088B4D1833FF397D1C8D5E28894624893B:
                    0. 1C B087 0189 0000:??0COutputQueue@@QAE@PAUIPin@@PAJHHJHJK_N@Z
                  FF75148B7D10FF750C8D47585057FF75088D5E:
                    0. 04 3405 005E 0000:??0CSourceStream@@QAE@PADPAJPAVCSource@@PBG@Z (REF 0024: ??0CBaseOutputPin@@QAE@PADPAVCBaseFilter@@PAVCCritSec@@PAJPBG@Z)
                    1. 04 3405 005E 0000:??0CSourceStream@@QAE@PAGPAJPAVCSource@@PBG@Z (REF 0024: ??0CBaseOutputPin@@QAE@PAGPAVCBaseFilter@@PAVCCritSec@@PAJPBG@Z)
                    2. 04 BF6F 005E 0000:??0CSourceStream@@QAE@PADPAJPAVCSource@@PBG@Z (REF 0024: ??0CBaseOutputPin@@QAE@PADPAVCBaseFilter@@PAVCCritSec@@PAJPBG@Z)
                    3. 04 BF6F 005E 0000:??0CSourceStream@@QAE@PAGPAJPAVCSource@@PBG@Z (REF 0024: ??0CBaseOutputPin@@QAE@PAGPAVCBaseFilter@@PAVCCritSec@@PAJPBG@Z)
                FF7624E8........85C0751468FB06000068........68:
                  0. 00 0000 0130 0000:?AttemptConnection@CBasePin@@IAEJPAUIPin@@PBVCMediaType@@@Z
            E8........:
              837D10008B:
                5D0C7409FF751053FF55085959:
                  837D18:
                    0. 12 7E8C 00A7 0000:_DnsPrint_RpcStatRaw@20
                  8B4514:
                    0. 1F FD32 006B 0000:_DnsPrint_RpcStatsBuffer@16
                7D0C8B5D087408FF751057FFD359598B:
                  0. 07 10B4 0058 0000:_DnsPrint_RecordSet@16
              8B451085C0BF........75028BC78B5D0C5053FF55:
                0. 0B 7F9D 00A1 0000:_DnsPrint_Node@20
            FF75:
              088BF1:
                8D5E7C53FF7510FF750CE8........33FF578D4E54:
                  0. 02 D3ED 00BB 0000:??0CBaseRenderer@@QAE@ABU_GUID@@PAGPAUIUnknown@@PAJ@Z
                FF15........85C07514688902000068........68:
                  0. 00 0000 019F 0000:?OnReceiveMessage@CBaseWindow@@UAEJPAUHWND__@@IIJ@Z
              0C8BD9FF7508E8........8B7514:
                33C08943148943188943:
                  0. 1A 85D7 003A 0000:??0CBaseMediaFilter@@QAE@PBGPAUIUnknown@@PAVCCritSec@@ABU_GUID@@@Z
                8B4D1033C03BC8894318:
                  0. 2B 0AC3 0062 0000:??0CBaseFilter@@QAE@PAGPAUIUnknown@@PAVCCritSec@@ABU_GUID@@PAJ@Z
                  1. 2B 3D3C 0062 0000:??0CBaseFilter@@QAE@PADPAUIUnknown@@PAVCCritSec@@ABU_GUID@@PAJ@Z
                  2. 2B 88B9 0062 0000:??0CBaseFilter@@QAE@PBDPAUIUnknown@@PAVCCritSec@@ABU_GUID@@@Z
                  3. 2B E23B 0062 0000:??0CBaseFilter@@QAE@PBGPAUIUnknown@@PAVCCritSec@@ABU_GUID@@@Z
              10:
                68........FF750CFF55088B751483C40C33DBBF:
                  0. 00 0000 0071 0000:_printStatTypeArray@16
                8BF18D7E5C57FF750CFF7508E8........33DB8BCF895E:
                  0. 08 EB6A 004C 0000:??0CTransformFilter@@QAE@PAGPAUIUnknown@@ABU_GUID@@@Z (REF 0016: ??0CBaseFilter@@QAE@PBGPAUIUnknown@@PAVCCritSec@@ABU_GUID@@@Z)
                  1. 08 EB6A 004C 0000:??0CTransformFilter@@QAE@PADPAUIUnknown@@ABU_GUID@@@Z (REF 0016: ??0CBaseFilter@@QAE@PBDPAUIUnknown@@PAVCCritSec@@ABU_GUID@@@Z)
              148BF1FF7510E8........33DB538D7E186A018BCFE8:
                0. 00 0000 00B5 0000:??0CBaseControlWindow@@QAE@PAVCBaseFilter@@PAVCCritSec@@PAGPAUIUnknown@@PAJ@Z
              308D45245068FFFF00008D451050FF75208B7524FF751C33:
                0. 05 0824 00A3 0000:_RxNetAuditRead@44
          837D10017E1A8B45108B4D08D1E88B750C8A11418A1941881E4688:
            0. 09 AB88 0029 0000:__swab
          8B:
            35........5733FF397D0C7D09FF7508FFD65989450C397D147D:
              0. 30 0AA4 0099 0000:_NetpConcatStrings3@28
            75:
              08:
                33DB:
                  3BF3750433C0EB36395E0457762D8D7E20FF751057FF:
                    0. 03 4FBD 0053 0000:_DnsAddrArray_ContainsAddrEx@20
                  668B5E1833C0668B46085350E8........85C0750C6A:
                    0. 03 5F81 0077 0000:_Txt_RecordWrite@12
                57:
                  8B:
                    7E:
                      108BCFE8........8B5D0C85DB74226A0453FF15:
                        0. 00 0000 004F 0000:?SetSink@CBasePin@@UAGJPAUIQualityControl@@@Z
                      288BCFE8........8B5D0C85DB74068B0353FF5004:
                        0. 13 AD14 0040 0000:?SetSyncSource@CBaseMediaFilter@@UAGJPAUIReferenceClock@@@Z
                        1. 13 F133 0040 0000:?SetSyncSource@CBaseFilter@@UAGJPAUIReferenceClock@@@Z
                    BED000000083C77C8BCFE8........8B9ED000000081:
                      0. 08 2022 0064 0000:?BeginFlush@CRendererInputPin@@UAGJXZ (0037: 5B)
                      1. 08 2022 006E 0000:?EndOfStream@CRendererInputPin@@UAGJXZ (0037: E8)
                  8D7E:
                    44833F01750933DB895D08891FEB2457FF15:
                      0. 00 0000 009D 0000:?Release@CMediaSample@@UAGKXZ
                    F08B078BCFFF50388BD885DB75438D86D000000039:
                      0. 21 053B 0065 0000:?EndOfStream@CRenderedInputPin@@UAGJXZ
                    F48B078BCFFF50388BD885DB752E8D86CC00000039:
                      0. 23 9F8B 0050 0000:?EndOfStream@CRenderedInputPin@@UAGJXZ
                  FF7624E8........85C0BB........7510688308000053:
                    0. 01 361F 006C 0000:?DisconnectInternal@CBasePin@@IAGJXZ
                66837E0813576A025B750333DB438D7E18EB318B0781C3FF:
                  0. 1E 32F5 0068 0000:_Hinfo_RecordWrite@12
                837E3400570F8E8C000000837E38000F8E820000008B4640:
                  0. 0A 7F1C 00B9 0000:?CheckHeaderValidity@CImageDisplay@@SGHPBUtagVIDEOINFO@@@Z
                85F6578BD9751468:
                  1F05000068........68........E8:
                    0. 00 0000 0038 0000:?SetTargetRect@CDrawImage@@QAEXPAUtagRECT@@@Z
                  3505000068........68........E8:
                    0. 00 0000 0038 0000:?SetSourceRect@CDrawImage@@QAEXPAUtagRECT@@@Z
                  CB06000068........68........E8:
                    0. 00 0000 003C 0000:?SetDIBData@CImageSample@@QAEXPAUtagDIBDATA@@@Z
                8A865C02000057240F33FF3C03755A8B86540200003BC774:
                  0. 19 0815 0098 0000:_FolderFlush@12
                8B:
                  0683F828578D7830BB........731068DF0000005368:
                    0. 00 0000 0078 0000:_GetBitmapFormatSize@4
                  46:
                    0C:
                      24182C08F6D8576A001BC040894508580F94C06A02:
                        0. 0B 0DE4 0073 0000:_NbstatDnsRecordConvert@4
                        1. 0B EC47 0061 0000:_PtrDnsRecordConvert@4 (0035: 00)
                        2. 0B EC47 0069 0000:_MxDnsRecordConvert@4 (0035: 8B)
                        3. 0B EC47 0079 0000:_SrvDnsRecordConvert@4 (0035: 5F)
                      85C0578BF98B4E08BB........7C147F0485C9720E:
                        0. 15 6F82 00E0 0000:?AddAdvisePacket@CAMSchedule@@AAEKPAVCAdvisePacket@1@@Z
                      8B55108B4D0C24182C08F6D81BC0405033DB5353FF:
                        0. 03 DAA0 0098 0000:_Soa_RecordWrite@12
                    7485C0570F84A70000008B5E783B5E30894508730AC7:
                      0. 10 4B45 014F 0000:_FDIGetFile@4
                  5E:
                    14578BCBE8........8DBE99000000803F0075146862:
                      0. 04 A484 0049 0000:?EndFlush@CBaseInputPin@@UAGJXZ
                    2C5753FF15........8B450C85C0894634741C8B088D:
                      0. 04 0439 0095 0000:?JoinFilterGraph@CBaseFilter@@UAGJPAUIFilterGraph@@PBG@Z
                8D46345750894508FF15........8B450C33DB3BC3895E2C:
                  0. 1B D333 00CF 0000:?StopAt@CBaseStreamControl@@UAGJPB_JHK@Z
              0C33DB3BF3578BF97507B803400080EB608D477C5089450CFF:
                0. 01 54B7 007F 0000:?GetStdDev@CBaseVideoRenderer@@QAEJHPAH_J1@Z
              10:
                57:
                  33FF393E76188B5D0C53FF7508FF55185985C059740F03:
                    0. 12 1E1C 0032 0000:__lfind
                  6A016A00FFB688000000FF561C8B5D0C8B7D085357FFB6:
                    0. 55 3B3E 0087 0000:_FDIReadPSZ@12
                  8B3D........6A0456FFD785C075598B5D146A0453FFD7:
                    0. 35 11C5 007D 0000:?GetInterfaceSafetyOptions@CMSPObjectSafetyImpl@@UAGJABU_GUID@@PAK1@Z
                8B5E18578D7E1CE8........5368........FF750CFF5508:
                  0. 20 79E5 007A 0000:_TxtRecordPrint@12
              14:
                33DB3BF375056A5758EB7D578D450C5068FFFF000056FF75:
                  0. 02 15A3 0096 0000:_RxNetConfigGet@16
                578B3EE8........8B451085C07505B8........575068:
                  0. 00 0000 005A 0000:_DnsPrint_FdSet@16
                668B5E085733FF668B7E0A897D14E8........837D100074:
                  0. 43 2C3F 0127 0000:_DnsPrint_Record@20
                69F6E000000033DB389E........577427538D4514505353:
                  0. 04 5123 012B 0000:_SmbTraceToClient@16
            F1:
              33DB395E0857744E395D087449385E42741468F902000068:
                0. 00 0000 0096 0000:?OnPaletteChange@CBaseWindow@@MAEJPAUHWND__@@I@Z
              578D:
                5E:
                  088BCBE8........33FF397E387E0DFF76308D4E2CE8:
                    0. 00 0000 00BD 0000:?GetDueCommand@CCmdQueue@@UAEJPAPAVCDeferredCommand@@J@Z
                  1853FF15........8B7E6C83FF0175158B068BCEFF50:
                    0. 04 11C4 006B 0000:?Seek@CPullPin@@QAEJ_J0@Z
                7E:
                  088BCFE8........8B5D0885DB74068B0353FF50048B:
                    0. 27 481A 005B 0000:?SetSyncSource@CCmdQueue@@UAEJPAUIReferenceClock@@@Z
                  288BCFE8........8D4E0CE8........8BD885DB8BCF:
                    0. 06 D119 0053 0000:?GetThreadMsg@CMsgThread@@UAEXPAVCMsg@@@Z
                  448BCFE8........8D5E708BCBE8........837D0800:
                    0. 08 B18B 0058 0000:?SetPalette@CBaseWindow@@UAEJPAUHPALETTE__@@@Z
                  708BCFE8........33DB395E3C750E8BCFE8:
                    0. 12 6DEB 0114 0000:?DoRealisePalette@CBaseWindow@@UAEJH@Z
                9EC400000053FF15........33FF397D08740433F6EB49:
                  0. 0E C5C4 0079 0000:?GetPin@CBaseRenderer@@UAEPAVCBasePin@@H@Z
              83:
                66040083660800578B7D088D5E1868........8BCBC706:
                  0. 00 0000 00C6 0000:??0CEnumPins@@QAE@PAVCBaseFilter@@PAV0@@Z
                7E680057BB........741068340300005368........E8:
                  0. 00 0000 0082 0000:?GetSampleTimes@CBaseRenderer@@UAEJPAUIMediaSample@@PA_J1@Z
              8B565033C085D2577E158B7E548BCF8B193B5D0874134083C1:
                0. 17 04E8 005F 0000:?RemovePin@CSource@@QAEJPAVCSourceStream@@@Z
              8D:
                5E:
                  18578BCBE8........8BBE8400000083FF0175158B068B:
                    0. 07 CDFB 006E 0000:?Seek@CPullPin@@QAEJ_J0@Z
                  588BCBE8........8B450885C07C3E3B46507D39578BF8:
                    0. 12 0ACA 0067 0000:?GetPin@CSource@@UAEPAVCBasePin@@H@Z
                9EDC000000578BCBE8........33FF397D08741668540200:
                  0. 02 09E0 008F 0000:?GetPin@CBaseRenderer@@UAEPAVCBasePin@@H@Z
          E8........837D10008B5D0C7409FF751053FF550859598B751485:
            0. 04 D503 01AA 0000:_DnsPrint_RpcServerInfo_W2K@16
        57:
          33FF57FF75088BD9E8........8B451C89431C8B45108943208B45:
            0. 24 734B 00AC 0000:??0CBasePin@@QAE@PADPAVCBaseFilter@@PAVCCritSec@@PAJPBGW4_PinDirection@@@Z (REF 000E: ??0CUnknown@@QAE@PBDPAUIUnknown@@@Z)
            1. 24 734B 00AC 0000:??0CBasePin@@QAE@PAGPAVCBaseFilter@@PAVCCritSec@@PAJPBGW4_PinDirection@@@Z (REF 000E: ??0CUnknown@@QAE@PBGPAUIUnknown@@@Z)
          8B7D08:
            33DB3BFB750C6A57FF15........33C0EB60837D10015675:
              0. 0B 749F 0133 0000:_Dns_GetBufferLengthForStringCopy@16
            8B0785C0B90080000074043BC17602890F8B078B5D188B4D:
              0. 27 C811 0073 0000:_MDICreateDecompression
          E8........33FF397D147507C74514........8B45103BC77505B8:
            0. 00 0000 0083 0000:_DnsPrint_Ip4AddressArray@24
        668B5D0C568B75080FB7C35733FF83F80F741183F82174058D4618EB:
          0. 13 9A9D 0052 0000:_DnssrvFillOutSingleIndirectionRecord@12
        6A:
          14FF55108BD885DB597512506A03FF7508E8........33C0E91A01:
            0. 3B 3815 013F 0000:_FCICreate
          1CE8........8BD885DB744E8B450856576A0559FF75108D7020FF:
            0. 0D 583F 0071 0000:_SoaRecordCopy@12
        8B5D:
          08:
            3B5D0C57750533C040EB3585DB742F837D0C007429568B35:
              0. 00 0000 0076 0000:_Dns_NameCompare_W@8
            56:
              57:
                6A048D732C59BF........33C0F3A7741468680A000068:
                  0. 00 0000 00B0 0000:_ConvertVideoInfoToVideoInfo2@4
                8B3D........6A0053FFD78BF085F675:
                  30817D0C810000:
                    0. 0A 6613 009B 0000:?WndProc@@YGJPAUHWND__@@IIJ@Z
                  5E817D0C810000:
                    0. 0E 9F28 00E1 0000:?WndProc@@YGJPAUHWND__@@IIJ@Z
              8B:
                750C576A105933C08BFB56F3ABE8........83F820770E:
                  0. 3D 20FD 005D 0000:_DnsAddr_Build@20
                B3D000000083C67C578BCEE8........8BBBD000000081:
                  0. 08 9E53 0062 0000:?EndFlush@CRendererInputPin@@UAGJXZ
            5733FF397D0CC60300750433C0EB5B397D107E51568B35:
              0. 00 0000 0077 0000:_DnsStringPrint_RawOctets@20
            813B4D43494375108B4308394510770883C00C39451873056A:
              0. 48 EDED 0085 0000:_MCICompress
            837B:
              100075:
                116A6D68........68........E8........568B:
                  0. 07 6D76 004F 0000:?NonDelegatingQueryInterface@CAggDirectDraw@@UAGJABU_GUID@@PAPAX@Z
                14680F01000068........68........E8:
                  0. 00 0000 0052 0000:?NonDelegatingQueryInterface@CAggDrawSurface@@UAGJABU_GUID@@PAPAX@Z
              1400750733C0E9B8000000837D10007507C74510:
                0. 00 0000 00D1 0000:_DnssrvCreateDsNodeName@12
            85DB75:
              0433C0EB49837D1000568B750C74080FB7063B451075:
                0. 0D 8D2C 005D 0000:_DnsAddrArray_AddAddr@16
              0F:
                395D0C74:
                  1CFF750CE8........EB428B0303450C50:
                    0. 01 3E9B 0061 0000:_Dns_CopyAndExpandIpArray@12
                  1DFF750CE8........EB448B430403450C:
                    0. 02 F6B7 0063 0000:_Ip6Array_CopyAndExpand@12
                6A57FF15........33C0E981000000568B750C85F6:
                  0. 0B D37F 00A0 0000:_Dns_StringCopyAllocate@16
            8B:
              0385C0565775188B75108B063B450C762C83C0FE89066683:
                0. 0A 32BB 0068 0000:_NetpPackString@12
              4318578B7D0C3B4718740433C0EB0F83C71C85C0568D731C:
                0. 24 5B66 0098 0000:_TxtRecordCompare@8
            8D049D0400000050E8........85C0894508742E568D349883:
              0. 1B 51ED 004E 0000:_Argv_CopyEx@16
          0C:
            33C03BD87507B803400080EB2A394510568B751489067E1E57:
              0. 23 227F 0043 0000:?ReceiveMultiple@CBaseInputPin@@UAGJPAPAUIMediaSample@@JPAJ@Z
            56:
              33:
                C0578B7D0885FF0F95C033C985DB0F95C133C175146829:
                  0. 04 5D36 010F 0000:?DbgRegisterObjectCreation@@YGKPBDPBG@Z
                F63BDE7405397510750AB803400080E9D3000000578B7D:
                  0. 0A 95D9 00F6 0000:?ReceiveConnection@CBasePin@@UAGJPAUIPin@@PBU_AMMediaType@@@Z
              57:
                33FF3BDF8BF1750AB803400080E9830000008D4E7C894D:
                  0. 02 A1CD 00A5 0000:?GetStdDev@CBaseVideoRenderer@@QAEJHPAH_J1@Z
                6A0453FF15........83F801:
                  BE580E0000BF........75:
                    0. 04 614F 00B7 0000:?GetMediaType@CMediaSample@@UAGJPAPAU_AMMediaType@@@Z
                  BF810D0000BE........75:
                    0. 04 650C 006E 0000:?GetPointer@CMediaSample@@UAGJPAPAE@Z
                8B7D083BDF7514689501000068........68........E8:
                  0. 00 0000 0099 0000:?CopyMediaType@@YGJPAU_AMMediaType@@PBU1@@Z
                FF75:
                  148B7D108BF18B065753FF503085C00F85DC000000:
                    0. 0A 13FB 0146 0000:?OnReceiveMessage@CBaseWindow@@UAEJPAUHWND__@@IIJ@Z
                  188D7308FF7514FF751083EC108BFCFF7508A5A5A5:
                    0. 02 46B5 0037 0000:_Dns_CreateAAAARecordFromDnsAddr@20
            5733FF:
              3BDF0F84B4000000397D108B5508764A568D73020FB6:
                0. 0A 2B43 00CE 0000:_FillRgbPaletteEntries@12
              4785DB7E63568B750883C604FF751C83650C008D450C:
                0. 16 79AC 007A 0000:_NukeTempFiles@24
            85DB:
              568B35........577D08FF7508FFD6598BD8837D14007D:
                0. 19 74D8 006F 0000:_NetpConcatStrings@20
              578B7D08897D08744456F643060574058B430CEB116A10:
                0. 0B 30B2 005C 0000:_SmbTraceCopyMdlContiguous@12
              74:
                06837D1000750AB803400080E96B010000568B35:
                  0. 00 0000 018B 0000:?ReceiveConnection@CBasePin@@UAGJPAUIPin@@PBU_AMMediaType@@@Z
                4C568B7508578D7E04:
                  57FF15........8D4EF48B01FF:
                    0. 2F 2666 0066 0000:?GetTime@CBaseReferenceClock@@UAGJPA_J@Z
                  8BCFE8........8D4EF08B01FF:
                    0. 2F E096 0066 0000:?GetTime@CBaseReferenceClock@@UAGJPA_J@Z
              75:
                07B803400080EB:
                  1F568B7508578B7E3C8BCFE8:
                    0. 00 0000 0036 0000:?GetRate@CSourceSeeking@@UAGJPAN@Z
                  22568B7508578DBE7CFFFFFF8BCFE8:
                    0. 00 0000 0039 0000:?get_FramesDroppedInRenderer@CBaseVideoRenderer@@UAGJPAH@Z (0006: 40)
                    1. 00 0000 0039 0000:?get_FramesDrawn@CBaseVideoRenderer@@UAGJPAH@Z (0006: 44)
                  44568B75088B86B000000085C0753B:
                    0. 06 D605 0068 0000:?get_BackgroundPalette@CBaseControlWindow@@UAGJPAJ@Z
                  4C56576A0453FF15........83F801:
                    0. 06 DF74 0063 0000:?QueryDirection@CBasePin@@UAGJPAW4_PinDirection@@@Z
                  5956576A0453FF15........83F801:
                    0. 06 AA6F 0070 0000:?GetHResult@CDeferredCommand@@UAGJPAJ@Z
                  5B568B75088B4688575089450CFF15:
                    0. 00 0000 0072 0000:?GetAllocator@CTransInPlaceInputPin@@UAGJPAPAUIMemAllocator@@@Z
                  5D56576A0853FF15........83F801:
                    0. 06 A3EA 0074 0000:?get_Rate@CSourcePosition@@UAGJPAN@Z
                  5E568B75088B461C85C0753468:
                    7004:
                      0. 03 8229 0075 0000:?get_BitRate@CBaseControlVideo@@UAGJPAJ@Z
                    8004:
                      0. 03 8229 0075 0000:?get_BitErrorRate@CBaseControlVideo@@UAGJPAJ@Z
                    9004:
                      0. 03 8229 0075 0000:?get_VideoWidth@CBaseControlVideo@@UAGJPAJ@Z
                    A004:
                      0. 03 8229 0075 0000:?get_VideoHeight@CBaseControlVideo@@UAGJPAJ@Z
                  6356576A0853FF15........83F801:
                    0. 06 2190 007A 0000:?get_StopTime@CSourcePosition@@UAGJPAN@Z
                    1. 06 5CB7 007A 0000:?get_Duration@CSourcePosition@@UAGJPAN@Z
                  64568B75088B461C85C07534685E04:
                    0. 03 8229 007B 0000:?get_AvgTimePerFrame@CBaseControlVideo@@UAGJPAN@Z
                  6C56576A0453FF15........83F801:
                    0. 06 C668 0083 0000:?GetSyncSource@CBaseMediaFilter@@UAGJPAPAUIReferenceClock@@@Z
                    1. 06 F76D 0083 0000:?GetSyncSource@CBaseFilter@@UAGJPAPAUIReferenceClock@@@Z
                  7256576A0453FF15........83F801:
                    0. 06 7772 0089 0000:?EnumMediaTypes@CBasePin@@UAGJPAPAUIEnumMediaTypes@@@Z
                    1. 06 FB25 0089 0000:?EnumPins@CBaseFilter@@UAGJPAPAUIEnumPins@@@Z
                  7856576A:
                    1053FF15........83F801:
                      0. 06 BB45 008F 0000:?GetProperties@CBaseAllocator@@UAGJPAU_AllocatorProperties@@@Z
                    4853FF15........83F801:
                      0. 06 C2BD 008F 0000:?ConnectionMediaType@CBasePin@@UAGJPAU_AMMediaType@@@Z
                  7983650C00568B7508578D7EF4F7DF:
                    0. 0A 7B06 0090 0000:?ReleaseBuffer@CBaseAllocator@@UAGJPAUIMediaSample@@@Z
                0AB803400080E9:
                  00010000578B7D1085FF750AB80340:
                    0. 0D 055E 011A 0000:?SetProperties@CBaseAllocator@@UAGJPAU_AllocatorProperties@@0@Z
                  8700000056576A0453FF15:
                    0. 09 04DB 00A1 0000:?QueryId@CSourceStream@@MAGJPAPAG@Z
                  94000000578B7D1085FF750AB80340:
                    0. 1D 0C04 00AE 0000:?SetProperties@CBaseAllocator@@UAGJPAU_AllocatorProperties@@0@Z
                  D30000006A0453FF15........83F8:
                    0. 09 E822 00ED 0000:?Connect@CBasePin@@UAGJPAUIPin@@PBU_AMMediaType@@@Z
            8B0383F80A56577C7F83F8157F7A8B7D088B0785C0B9008000:
              0. 4C C37A 0097 0000:_QDICreateDecompression
            B8000100003BD8578B7D080F870F0100000F84490100008BC3:
              0. 28 3289 01DB 0000:_RealScreenSaverProc@16
          10:
            56:
              33F63933578B7D147617FF750CFF7508FF55185985C05974:
                0. 29 7796 0049 0000:__lsearch
              57:
                53E8........8B7D0801472C014734FF4738FF47408B75:
                  0. 21 2542 00A6 0000:_DbgHeapSetHeaderAlloc@20
                6A0453FF15........83F801BF:
                  1F060000BE........75:
                    0. 04 650C 0079 0000:?NonDelegatingQueryInterface@CBaseVideoWindow@@UAGJABU_GUID@@PAPAX@Z
                  87010000BE........75:
                    0. 04 650C 0079 0000:?NonDelegatingQueryInterface@CMediaPosition@@UAGJABU_GUID@@PAPAX@Z
                  B3000000BE........75:
                    0. 04 650C 0079 0000:?NonDelegatingQueryInterface@CMediaControl@@UAGJABU_GUID@@PAPAX@Z
                  BE050000BE........75:
                    0. 04 650C 0079 0000:?NonDelegatingQueryInterface@CBasicAudio@@UAGJABU_GUID@@PAPAX@Z
                  C2070000BE........75:
                    0. 04 650C 0081 0000:?NonDelegatingQueryInterface@CDeferredCommand@@UAGJABU_GUID@@PAPAX@Z
                BF........2B7D1485DB7505BB........8B751885F675:
                  0. 04 3F1B 0070 0000:_DnsPrint_SocketAddress@20 (0049: C2)
                  1. 04 3F1B 0079 0000:_DnsPrint_DnsAddr@20 (0049: E8)
                  2. 04 3F1B 0089 0000:_DnsPrint_CsAddr@20 (0049: 68)
              8B:
                35........C6030066833D........0057BF........75:
                  0. 02 791D 0097 0000:_LUI_GetMsgIns@24
                75:
                  0857FF7514FF761853FF750CE8........85C089450C:
                    0. 0D 3E95 0083 0000:_Soa_StringWrite@16
                  1857BF........2B7D1485DB7505BB........85F675:
                    0. 04 3F1B 007C 0000:_DnsPrint_AddrInfoListEx@24
            578B7D1833C083E70383E303394518740A394514740F3B7D18:
              0. 35 299C 00EB 0000:?SetPositions@CSourceSeeking@@UAGJPA_JK0K@Z
              1. 37 9B2E 00EE 0000:?SetPositions@CSourceSeeking@@UAGJPA_JK0K@Z
            85DB75:
              056A5758EB708B450C8B4004568B75080346045750E8:
                0. 00 0000 0085 0000:_DnsAddrArray_Union@12
              07B803400080EB:
                2C568B75088B464C6A006A006A00FF:
                  0. 04 DED5 0043 0000:?GetState@CBaseRenderer@@UAGJKPAW4_FilterState@@@Z
                4C56576A0453FF15........83F801:
                  0. 06 3DC0 0063 0000:?GetState@CBaseFilter@@UAGJKPAW4_FilterState@@@Z
                  1. 06 65E4 0063 0000:?GetState@CBaseMediaFilter@@UAGJKPAW4_FilterState@@@Z
                6856576A0453FF15........83F801:
                  0. 06 28B4 007F 0000:?NonDelegatingQueryInterface@CUnknown@@UAGJABU_GUID@@PAPAX@Z
                78566A0453FF15........83F801BE:
                  0. 00 0000 008F 0000:?QueryInterface@CClassFactory@@UAGJABU_GUID@@PAPAX@Z
            F7C3FCFFFFFF7407B805400080EB5083651000568B75088B06:
              0. 20 643F 006B 0000:?SetInterfaceSafetyOptions@CMSPObjectSafetyImpl@@UAGJABU_GUID@@KK@Z
          14:
            56:
              57:
                33FF3BDF740966393B740433F6EB0333F646F7451CFEFF:
                  0. 1E 6822 008E 0000:_NetpwPathCanonicalize@24
                BF........2BFB837D10007507C74510........8B7518:
                  0. 09 9DDF 00A7 0000:_DnsPrint_AddrInfoEx@24
                FF75188BF153FF7510FF750CFF7508E8........8D:
                  86A4:
                    0. 06 F896 0090 0000:??0CDynamicOutputPin@@QAE@PADPAVCBaseFilter@@PAVCCritSec@@PAJPBG@Z (REF 0019: ??0CBaseOutputPin@@QAE@PADPAVCBaseFilter@@PAVCCritSec@@PAJPBG@Z)
                    1. 06 F896 0090 0000:??0CDynamicOutputPin@@QAE@PAGPAVCBaseFilter@@PAVCCritSec@@PAJPBG@Z (REF 0019: ??0CBaseOutputPin@@QAE@PAGPAVCBaseFilter@@PAVCCritSec@@PAJPBG@Z)
                  8EAC:
                    0. 05 E32D 008E 0000:??0CDynamicOutputPin@@QAE@PADPAVCBaseFilter@@PAVCCritSec@@PAJPBG@Z (REF 0019: ??0CBaseOutputPin@@QAE@PADPAVCBaseFilter@@PAVCCritSec@@PAJPBG@Z)
                    1. 05 E32D 008E 0000:??0CDynamicOutputPin@@QAE@PAGPAVCBaseFilter@@PAVCCritSec@@PAJPBG@Z (REF 0019: ??0CBaseOutputPin@@QAE@PAGPAVCBaseFilter@@PAVCCritSec@@PAJPBG@Z)
              8B7508576A1933C0598BFEF3AB8D460433FF3BDF89400489:
                0. 09 79DD 00CF 0000:_Dns_HeapInitialize@40
            5733FF3BDF750AB803400080E9CC0000006A0453FF15:
              0. 00 0000 00EA 0000:?CreateInstance@CClassFactory@@UAGJPAUIUnknown@@ABU_GUID@@PAPAX@Z
          18:
            5633C0578B7D1466890766390389451474608B7508895D18EB:
              0. 12 5E7B 0083 0000:_ILUI_setup_list@24
            85DB750AB803400080E9E6000000566A0453FF15........83:
              0. 03 17C9 0100 0000:?GetTypeInfo@CBaseDispatch@@QAGJABU_GUID@@IKPAPAUITypeInfo@@@Z
          1C832300568B750C85F6750AB85C080000E9C20000006A05583B:
            0. 15 9D67 00E4 0000:_NetpHandleRpcFailure@24
          305657538D45245068FFFF00008D451050FF75208B7D24FF751C:
            0. 06 3986 00A7 0000:_RxNetErrorLogRead@44
        FF75108B5D14FF33FF15........85C07528568B750885F67410578D:
          0. 26 1E98 0046 0000:?FindDeviceCallbackEx@@YGHPAU_GUID@@PAD1PAXPAUHMONITOR__@@@Z
          1. 26 7EFF 0046 0000:?FindDeviceCallback@@YGHPAU_GUID@@PAD1PAX@Z
      56:
        33:
          C05050:
            5050505050508B550C:
              2E8BC08A020AC07407420FAB0424EB:
                0. 1E 4639 003E 0000:_strspn
                1. 1A 58D2 003A 0000:_strpbrk
                2. 1E 6115 003E 0000:_strcspn
              8D49008A020AC074:
                07420FAB0424EB:
                  0. 1E 4639 003E 0000:_strspn (l)0014:listnext (l)0021:listdone (l)0028:dstnext (l)0036:dstdone
                  1. 1A 58D2 003A 0000:_strpbrk (l)0014:listnext (l)0021:listdone (l)0024:dstnext (l)0034:dstdone
                  2. 1E 6115 003E 0000:_strcspn (l)0014:listnext (l)0021:listdone (l)0028:dstnext (l)0036:dstdone
                0983C2010FAB04:
                  0. 26 0313 0046 0000:_strspn (l)0014:listnext (l)0023:listdone (l)002C:dstnext (l)003E:dstdone
                  1. 26 243F 0046 0000:_strcspn (l)0014:listnext (l)0023:listdone (l)002C:dstnext (l)003E:dstdone
                  2. 20 C3EE 0040 0000:_strpbrk (l)0014:listnext (l)0023:listdone (l)0028:dstnext (l)003A:dstdone
            FF75088BF150FF15........89068BC65E5DC20400:
              0. 00 0000 001D 0000:??0CAMEvent@@QAE@H@Z
          F6:
            397510:
              742139751474046A7CEB758B451C8B003BC6740F39750C:
                0. 13 B0D2 008F 0000:_RxNetConfigSet@28
              76338B45148B551883C0048B4D0883E964740F49751F8B:
                0. 23 ED24 0043 0000:_ServerRelocationRoutine@20
              B8........7503894510837D180075038945188B451485:
                0. 04 A90A 006D 0000:_DnsPrint_RpcName@20
            807D0C01752B8B4508C6002B40397514766F83FE03740583FE06:
              0. 4E 4236 0093 0000:_Dns_AtmaAddressToString@16
        57:
          33FF:
            397D107507C74510........E8........FF75188B751456FF:
              0. 03 7605 005F 0000:_DnsPrint_AfProtocolsArray@20
            5768800000006A04576A036800000040FF7508FF15:
              0. 09 2038 008D 0000:_NetpLogonWriteMailslot@12
          6A:
            00FF75188BF1FF7514FF7510FF750CFF7508E8........83A6:
              9C:
                0. 27 3DAE 0047 0000:??0CBaseInputPin@@QAE@PADPAVCBaseFilter@@PAVCCritSec@@PAJPBG@Z (REF 0019: ??0CBasePin@@QAE@PADPAVCBaseFilter@@PAVCCritSec@@PAJPBGW4_PinDirection@@@Z)
                1. 27 3DAE 0047 0000:??0CBaseInputPin@@QAE@PAGPAVCBaseFilter@@PAVCCritSec@@PAJPBG@Z (REF 0019: ??0CBasePin@@QAE@PAGPAVCBaseFilter@@PAVCCritSec@@PAJPBGW4_PinDirection@@@Z)
              A4:
                0. 27 485C 0047 0000:??0CBaseInputPin@@QAE@PADPAVCBaseFilter@@PAVCCritSec@@PAJPBG@Z (REF 0019: ??0CBasePin@@QAE@PADPAVCBaseFilter@@PAVCCritSec@@PAJPBGW4_PinDirection@@@Z)
                1. 27 485C 0047 0000:??0CBaseInputPin@@QAE@PAGPAVCBaseFilter@@PAVCCritSec@@PAJPBG@Z (REF 0019: ??0CBasePin@@QAE@PAGPAVCBaseFilter@@PAVCCritSec@@PAJPBGW4_PinDirection@@@Z)
            03FF7510FF7518FF7514E8........6A008BF056FF750CFF7508:
              0. 01 3E9B 0035 0000:_Dns_ValueForStringEx@20
            04FF7510FF15........83F801BF:
              19010000BE........750C57:
                0. 02 2E67 0086 0000:?NonDelegatingQueryInterface@CMediaEvent@@UAGJABU_GUID@@PAPAX@Z
              81060000BE........750C57:
                0. 02 2E67 0086 0000:?NonDelegatingQueryInterface@CBaseBasicVideo@@UAGJABU_GUID@@PAPAX@Z
          8B:
            75:
              088BC68BCE83C6026683390075F583EE028B7D0C8B4D10FF4D:
                0. 23 09A5 0043 0000:_wcsncat
              0C8B45108B4E0481E100380000C1E90B03C1781683F8087D11:
                0. 12 3E91 0044 0000:__GetFpRegVal
            7D:
              08:
                578BF1E8........85C0:
                  0F84EF000000668B4E66668B473E:
                    0. 1B 168A 0112 0000:?CheckVideoType@CImageDisplay@@QAEJPBUtagVIDEOINFO@@@Z
                  7C178B0781C6A40000005668:
                    0. 00 0000 0031 0000:?CheckConnect@CBaseOutputPin@@UAEJPAUIPin@@@Z
                83:
                  65080085FF8BF7742D8A0FEB1A4684C9790E8D5508E8:
                    0. 00 0000 004C 0000:_Dns_ValidateDnsString_UTF8@4
                  7F5C007514682713000068........68........E8:
                    0. 00 0000 0052 0000:?GetFreeCount@CBaseAllocator@@UAGJPAJ@Z
                85FF:
                  0F84BF0000008A0784C00F84B50000003C2E750A807F:
                    0. 0B DD84 00D8 0000:_FindProtocolToUseNt4@4
                  74:
                    468BC78D50018A084084C975F98B75102BC23BC67D:
                      0. 1E ADF0 0061 0000:_truncateStringA@12
                    4857FF15........8B75103BC6597D0F578B7D0C57:
                      0. 02 ABB7 0063 0000:_truncateStringW@12
                  8BF1:
                    7406837E6400750533C040EB1D8B06578BCEFF50:
                      0. 1C 7864 003C 0000:?Render@CBaseRenderer@@UAEJPAUIMediaSample@@@Z
                    751468:
                      2905000068........68........E8:
                        0. 00 0000 002F 0000:?GetTargetRect@CDrawImage@@QAEXPAUtagRECT@@@Z
                      3F05000068........68........E8:
                        0. 00 0000 002F 0000:?GetSourceRect@CDrawImage@@QAEXPAUtagRECT@@@Z
                      5F05000068........68........E8:
                        0. 00 0000 0032 0000:?Add@CSampleList@CBaseAllocator@@QAEXPAVCMediaSample@@@Z
                      E500000068........68........E8:
                        0. 00 0000 0080 0000:?AllocFormatBuffer@CMediaType@@QAEPAEK@Z
                8B:
                  07578BF1FF500481C6A00000008B0685C074068B0850FF:
                    0. 0A DF6B 002A 0000:?SetAllocator@CTransInPlaceOutputPin@@QAEXPAUIMemAllocator@@@Z
                  C18B70046A045933C0F3A75F0F94C05E5DC20400:
                    0. 00 0000 001D 0000:?IsClassID@CFactoryTemplate@@QBEHABU_GUID@@@Z
                  F1836604006A0068........C706........897E08C746:
                    0. 06 3DD5 0076 0000:??0CEnumMediaTypes@@QAE@PAVCBasePin@@PAV0@@Z
                8D770C56FF15........85C0:
                  75298306018D77FC8B0633FF:
                    0. 31 9391 0051 0000:?NonDelegatingRelease@CBasePropertyPage@@UAGKXZ
                  7F1468AB00000068:
                    0. 01 361F 0051 0000:?NonDelegatingAddRef@CUnknown@@UAGKXZ
              0C85FF74068B0757FF50048B75088B0685C074068B0850FF51:
                0. 0B 3A2B 002B 0000:?QzAtlComPtrAssign@@YGPAUIUnknown@@PAPAU1@PAU1@@Z
              10:
                6A0459BE........33C0F3A77407B801000280EB3F8B7508:
                  0. 42 D331 0062 (!)0000:?
                85FF7505BF........8B751485F675:
                  115768........FF75:
                    0. 0A A069 0097 0000:_DnsPrint_WsaNsClassInfo@20
                  1668........5768:
                    0. 00 0000 0094 0000:_DnsPrint_HostentBlob@16 (0072: 10)
                    1. 00 0000 00A3 0000:_DnsPrint_SendBlob@16 (0072: E8)
                  1968........5768:
                    0. 00 0000 00DC 0000:_DnsPrint_UpdateBlob@16
            F1:
              68........8D4E08E8........C706........33FF8D463089:
                0. 1F 42F3 0063 0000:??0CAMSchedule@@QAE@PAX@Z
              8D4510508D7E5857FF750CFF7508E8........836650008366:
                0. 06 F0E8 0045 0000:??0CSource@@QAE@PAGPAUIUnknown@@U_GUID@@@Z (001D: 18) (REF 0016: ??0CBaseFilter@@QAE@PBGPAUIUnknown@@PAVCCritSec@@ABU_GUID@@@Z)
                1. 06 F0E8 0045 0000:??0CSource@@QAE@PADPAUIUnknown@@U_GUID@@@Z (001D: 18) (REF 0016: ??0CBaseFilter@@QAE@PBDPAUIUnknown@@PAVCCritSec@@ABU_GUID@@@Z)
                2. 06 F0E8 0045 0000:??0CSource@@QAE@PAGPAUIUnknown@@U_GUID@@PAJ@Z (001D: 1C) (REF 0016: ??0CBaseFilter@@QAE@PBGPAUIUnknown@@PAVCCritSec@@ABU_GUID@@@Z)
                3. 06 F0E8 0045 0000:??0CSource@@QAE@PADPAUIUnknown@@U_GUID@@PAJ@Z (001D: 1C) (REF 0016: ??0CBaseFilter@@QAE@PBDPAUIUnknown@@PAVCCritSec@@ABU_GUID@@@Z)
            F98BB7A800000083C6588BCEE8........837D08007D07BF5700:
              0. 1D D4E7 0049 0000:?GetMediaType@CSourceStream@@MAEJHPAVCMediaType@@@Z
          BF........57FF15........:
            8B35........33C085F674158B4E08:
              0. 18 A2D3 00AB 0000:?DbgRegisterObjectDestruction@@YGHK@Z
            E8........8B751485F6B8:
              0. 03 D238 006F 0000:_DnsPrint_SecurityContextList@16
          E8........:
            33:
              F6397510740BFF7510FF750CFF550859598B7D143B:
                0. 04 16AF 0068 0000:_DnsPrint_DwordArray@24
              FF397D107411FF751068........FF750CFF550883:
                0. 0A 2F17 0080 0000:_DnsPrint_RpcDpList@16
                1. 0A EFD9 0099 0000:_DnsPrint_RpcZoneList_W2K@16 (006E: 00)
                2. 0A EFD9 00A5 0000:_DnsPrint_RpcZoneList@16 (006E: 59)
            8B:
              4D088BF0E8........85F68BF87506FF15:
                0. 08 1786 0028 0000:?InitialThreadProc@COutputQueue@@KGKPAX@Z
              751033FF397E3C741C68........5757FF761C68:
                0. 00 0000 00D9 0000:_TkeyRecordPrint@12 (00B8: 00)
                1. 00 0000 00DE 0000:_TsigRecordPrint@12 (00B8: 5F)
              F085F67D1168........6A016A10E8........83C4:
                0. 10 6A19 003C 0000:?InitialThreadProc@CAMThread@@SGKPAX@Z
            FF750CFF750868........E8........83C40C6A0233:
              0. 0A 7EE0 0074 0000:_NetpJoinWorkgroup@8
          FF75:
            08:
              33F656FF15........8BF83BFE750AFF15........8BF0EB:
                0. 1A 94E0 0059 0000:_NetpWriteEventlogEx@32
              8BF1E8........8BF885FF7C3A8B462C8378180074318D86:
                0. 21 4BF7 0057 0000:?CompleteConnect@CDynamicOutputPin@@UAEJPAUIPin@@@Z
            0C:
              8BF1FF7508:
                8D:
                  4E04E8........33FF578D4E20897E18897E:
                    0. 02 3058 005D 0000:??0CSourceSeeking@@IAE@PBGPAUIUnknown@@PAJPAVCCritSec@@@Z
                  7E048BCFE8........8B451485C0C706:
                    0. 00 0000 0045 0000:??0CPosPassThru@@QAE@PBGPAUIUnknown@@PAJPAUIPin@@@Z
                E8........8D:
                  461050FF15........8B451833:
                    0. 3A BC5B 0076 0000:??0CBaseAllocator@@QAE@PADPAUIUnknown@@PAJHH@Z (REF 000E: ??0CUnknown@@QAE@PBDPAUIUnknown@@@Z)
                    1. 3A BC5B 0076 0000:??0CBaseAllocator@@QAE@PAGPAUIUnknown@@PAJHH@Z (REF 000E: ??0CUnknown@@QAE@PBGPAUIUnknown@@@Z)
                  4E14E8........8B451833FF39:
                    0. 38 6E67 0074 0000:??0CBaseAllocator@@QAE@PADPAUIUnknown@@PAJHH@Z (REF 000E: ??0CUnknown@@QAE@PBDPAUIUnknown@@@Z)
                    1. 38 6E67 0074 0000:??0CBaseAllocator@@QAE@PAGPAUIUnknown@@PAJHH@Z (REF 000E: ??0CUnknown@@QAE@PBGPAUIUnknown@@@Z)
              E8........8BF833F63BFE7430397508740EFF7508E8:
                0. 00 0000 005D 0000:_SaBlob_CreateFromIp4@12
            108B:
              7D08FF750C8D477C505768........8BF1E8........85:
                0. 03 ABE2 0063 0000:??0CRendererInputPin@@QAE@PAVCBaseRenderer@@PAJPBG@Z
              F1FF750C8D7E04FF75088BCFE8........83661400C707:
                0. 00 0000 0032 0000:??0CSeekingPassThru@@QAE@PAGPAUIUnknown@@PAJ@Z
            148B:
              7D:
                08FF7718FF7510FF750CE8........8BF085F6742B8B:
                  0. 0A 0D17 0052 0000:_Minfo_StringWrite@16
                0CFF7510:
                  8BF157FF7508E8........:
                    68........6A02:
                      0. 04 B8EE 004C 0000:??0CTransInPlaceOutputPin@@QAE@PAGPAVCTransInPlaceFilter@@PAJPBG@Z
                    83A6EC00000000:
                      0. 01 361F 005D 0000:??0CTransInPlaceInputPin@@QAE@PAGPAVCTransInPlaceFilter@@PAJPBG@Z
                  8D475C5057FF75088BF1E8........:
                    68:
                      0. 00 0000 005A 0000:??0CTransformInputPin@@QAE@PAGPAVCTransformFilter@@PAJPBG@Z (REF 0019: ??0CBaseInputPin@@QAE@PAGPAVCBaseFilter@@PAVCCritSec@@PAJPBG@Z)
                      1. 00 0000 005A 0000:??0CTransformInputPin@@QAE@PADPAVCTransformFilter@@PAJPBG@Z (REF 0019: ??0CBaseInputPin@@QAE@PADPAVCBaseFilter@@PAVCCritSec@@PAJPBG@Z)
                    83A6AC:
                      0. 05 3920 0057 0000:??0CTransformOutputPin@@QAE@PADPAVCTransformFilter@@PAJPBG@Z (REF 0019: ??0CBaseOutputPin@@QAE@PADPAVCBaseFilter@@PAVCCritSec@@PAJPBG@Z)
                      1. 05 3920 0057 0000:??0CTransformOutputPin@@QAE@PAGPAVCTransformFilter@@PAJPBG@Z (REF 0019: ??0CBaseOutputPin@@QAE@PAGPAVCBaseFilter@@PAVCCritSec@@PAJPBG@Z)
              F1FF7510E8........8B450883661C0085C08B4D0CC706:
                0. 00 0000 007C 0000:??0CBaseControlVideo@@QAE@PAVCBaseFilter@@PAVCCritSec@@PAGPAUIUnknown@@PAJ@Z
            188B:
              7D1457FF751068........FF750CFF550833F683C41439:
                0. 0A 4CB1 004F 0000:_DnsPrint_Utf8StringBytes@20
                1. 0A 6020 004F 0000:_DnsPrint_UnicodeStringBytes@20
              F1FF7514FF7510FF7508FF750CE8........83A6AC0000:
                0. 08 67E4 0061 0000:??0CImageSample@@QAE@PAVCBaseAllocator@@PAGPAJPAEJ@Z
        68........8BF1FF15........:
          6A00FF7508E8........89068BC65E:
            0. 04 057A 0024 0000:??0CBaseObject@@QAE@PBD@Z
          FF75086A00E8........89068BC65E:
            0. 04 057A 0024 0000:??0CBaseObject@@QAE@PBG@Z
        6A:
          00FF75:
            088BF16A03E8........8B8EA80000008B01FF504C8B4508:
              0. 05 765D 0025 0000:?AbortPlayback@CVideoTransformFilter@@IAEJJ@Z
            108BF1FF750CFF7508E8........C706........C74610:
              0. 00 0000 0038 0000:??0CSystemClock@@QAE@PAGPAUIUnknown@@PAJ@Z
          01:
            6A01FF75108BF1FF750CFF7508E8........83667000C706:
              0. 00 0000 0030 0000:??0CMemAllocator@@QAE@PADPAUIUnknown@@PAJ@Z (REF 0014: ??0CBaseAllocator@@QAE@PADPAUIUnknown@@PAJHH@Z)
              1. 00 0000 0030 0000:??0CMemAllocator@@QAE@PAGPAUIUnknown@@PAJ@Z (REF 0014: ??0CBaseAllocator@@QAE@PAGPAUIUnknown@@PAJHH@Z)
            FF75188BF1FF7514FF7510FF750CFF7508E8........:
              33C03945:
                0. 15 49F6 004A 0000:??0CBaseOutputPin@@QAE@PADPAVCBaseFilter@@PAVCCritSec@@PAJPBG@Z
                1. 15 C55F 004A 0000:??0CBaseOutputPin@@QAE@PAGPAVCBaseFilter@@PAVCCritSec@@PAJPBG@Z
              83A69800:
                0. 11 14FF 0031 0000:??0CBaseOutputPin@@QAE@PADPAVCBaseFilter@@PAVCCritSec@@PAJPBG@Z (REF 0018: ??0CBasePin@@QAE@PADPAVCBaseFilter@@PAVCCritSec@@PAJPBGW4_PinDirection@@@Z)
                1. 11 14FF 0031 0000:??0CBaseOutputPin@@QAE@PAGPAVCBaseFilter@@PAVCCritSec@@PAJPBG@Z (REF 0018: ??0CBasePin@@QAE@PAGPAVCBaseFilter@@PAVCCritSec@@PAJPBGW4_PinDirection@@@Z)
          08E8........8BF085F6744D57FF75108B7D08FF750C6A00FF7718:
            0. 01 3E9B 0063 0000:_MinfoRecordCopy@12
          10E8........8BF085F6590F84:
            CA000000DD45086A02DD1E56DD45:
              0. 07 9FFF 00E5 0000:_auxWireCylinder@16
            D5000000DD45086A02DD1E56DD45:
              0. 07 9FFF 00F0 0000:_auxSolidCylinder@16
          18E8........8BF085F6590F849A000000DD45086A03DD1E56DD45:
            0. 0D 3E4D 00B5 0000:_auxWireBox@24
            1. 0D E304 00B5 0000:_auxSolidBox@24
        83CEFF833D........00742B837D1000FF7508751BE8........85C0:
          0. 07 67F1 005F 0000:_RealizePaletteNow@12
        8B:
          35........57:
            6A08FF750CFFD683F801BF........751068D50D00:
              0. 03 7DB7 00BF 0000:?GetMediaTime@CMediaSample@@UAGJPA_J0@Z
            8B7D0C8BC7C1E00250FF7510FFD685C07510394514:
              0. 1F 10B7 0049 0000:?Next@?$CSafeComEnum@UIEnumTerminal@@$1?IID_IEnumTerminal@@3U_GUID@@BPAUITTerminal@@V?$_CopyInterface@UITTerminal@@@ATL@@VCComMultiThreadModel@6@@@EAGJKPAPAUITTerminal@@PAK@Z (REF 003F: ?Next@?$CComEnumImpl@UIEnumTerminal@@$1?IID_IEnumTerminal@@3U_GUID@@BPAUITTerminal@@V?$_CopyInterface@UITTerminal@@@ATL@@@ATL@@UAGJKPAPAUITTerminal@@PAK@Z)
              1. 1F 10B7 0049 0000:?Next@?$CSafeComEnum@UIEnumStream@@$1?IID_IEnumStream@@3U_GUID@@BPAUITStream@@V?$_CopyInterface@UITStream@@@ATL@@VCComMultiThreadModel@6@@@EAGJKPAPAUITStream@@PAK@Z (REF 003F: ?Next@?$CComEnumImpl@UIEnumStream@@$1?IID_IEnumStream@@3U_GUID@@BPAUITStream@@V?$_CopyInterface@UITStream@@@ATL@@@ATL@@UAGJKPAPAUITStream@@PAK@Z)
              2. 1F 10B7 0049 0000:?Next@?$CSafeComEnum@UIEnumPluggableSuperclassInfo@@$1?IID_IEnumPluggableSuperclassInfo@@3U_GUID@@BPAUITPluggableTerminalSuperclassInfo@@V?$_CopyInterface@UITPluggableTerminalSuperclassInfo@@@ATL@@VCComMultiThreadModel@6@@@EAGJKPAPAUITPluggableTerminalSuperclassInfo@@PAK@Z (REF 003F: ?Next@?$CComEnumImpl@UIEnumPluggableSuperclassInfo@@$1?IID_IEnumPluggableSuperclassInfo@@3U_GUID@@BPAUITPluggableTerminalSuperclassInfo@@V?$_CopyInterface@UITPluggableTerminalSuperclassInfo@@@ATL@@@ATL@@UAGJKPAPAUITPluggableTerminalSuperclassInfo@@PAK@Z)
              3. 1F 10B7 0049 0000:?Next@?$CSafeComEnum@UIEnumPluggableTerminalClassInfo@@$1?IID_IEnumPluggableTerminalClassInfo@@3U_GUID@@BPAUITPluggableTerminalClassInfo@@V?$_CopyInterface@UITPluggableTerminalClassInfo@@@ATL@@VCComMultiThreadModel@6@@@EAGJKPAPAUITPluggableTerminalClassInfo@@PAK@Z (REF 003F: ?Next@?$CComEnumImpl@UIEnumPluggableTerminalClassInfo@@$1?IID_IEnumPluggableTerminalClassInfo@@3U_GUID@@BPAUITPluggableTerminalClassInfo@@V?$_CopyInterface@UITPluggableTerminalClassInfo@@@ATL@@@ATL@@UAGJKPAPAUITPluggableTerminalClassInfo@@PAK@Z)
            FF7508FFD6FF750C8BF8FFD6FF751003F8FFD68D74:
              0. 0A 2A43 0055 0000:_MakeCredKeyFromStrings@12
          715033C085F67E1D8B49548B1185D2740583C270EB0233D23B5508:
            0. 12 A443 0032 0000:?FindPinNumber@CSource@@QAEHPAUIPin@@@Z
          75:
            08:
              0FBE4618576A0083E8105056E8........6A035F8D4E38538B:
                0. 58 3520 00AA 0000:_encode_uncompressed_block@12
              57:
                6A075933C08BFEF3AB8D450C50E8........85C0668B451C:
                  0. 28 9813 0048 0000:_Sockaddr_BuildFromIp6@24
                8B:
                  7D:
                    0C6A045933C0F3A75F0F:
                      94C05E5DC20800:
                        0. 00 0000 001B 0000:_IsEqualGUID@8
                      95C05E5DC20800:
                        0. 00 0000 001B 0000:?
                    1085F6740885FF750433C0EB5885F67445FF750CE8:
                      0. 00 0000 0073 0000:_mbstowcs
                  7E:
                    148BCFE8........:
                      81C699000000803E007414684B0C:
                        0. 03 8229 0043 0000:?BeginFlush@CBaseInputPin@@UAGJXZ
                      83:
                        A6D00000000083A6D400000000:
                          0. 02 26E3 0037 0000:?EndFlush@CRenderedInputPin@@UAGJXZ
                        C6F056E8........8BCF8BF0E8:
                          0. 00 0000 002C 0000:?Disconnect@CDynamicOutputPin@@UAGJXZ
                      8B461C837818007407BE24020480:
                        0. 07 C072 003C 0000:?Disconnect@CBasePin@@UAGJXZ
                    288BCFE8........:
                      836604008BCFE8........5F33C0:
                        0. 05 765D 0025 0000:?Stop@CBaseMediaFilter@@UAGJXZ
                      8B:
                        450C8946108B4510894614837E:
                          0. 1E B318 004A 0000:?Run@CBaseMediaFilter@@UAGJ_J@Z
                        CFC7460401000000E8:
                          0. 08 1EE7 0028 0000:?Pause@CBaseMediaFilter@@UAGJXZ
                    3C8BCFE8........DD450C8BCFDD5E30E8........8B:
                      0. 0C D5CA 002C 0000:?SetRate@CSourceSeeking@@UAGJN@Z
                  BED000000083C75C8BCFE8........8B86D000000083B8:
                    0. 0D 78BA 0082 0000:?EndFlush@CTransformInputPin@@UAGJXZ
                    1. 0D A035 0082 0000:?BeginFlush@CTransformInputPin@@UAGJXZ
                  D16A125933C08BFAF3AB408942288942208BFAA5A5A5A5:
                    0. 08 F361 0028 0000:??0CMediaType@@QAE@PBU_GUID@@@Z
                  F9A5A5A5A55F5E5DC20400:
                    0. 00 0000 0014 0000:?SetType@CMediaType@@QAEXPBU_GUID@@@Z
                8D:
                  46:
                    1050FF15........8BF885FF750D85F674098B066A01:
                      0. 0D 3C37 002D 0000:?Release@CEnumMediaTypes@@UAGKXZ
                    1450FF15........8BF885FF750D85F674098B066A01:
                      0. 0D 3C37 002D 0000:?Release@CEnumPins@@UAGKXZ
                  79:
                    10A5A5A5A55F5E5DC20400:
                      0. 00 0000 0015 0000:?SetSubtype@CMediaType@@QAEXPBU_GUID@@@Z
                    2CA5A5A5A55F5E5DC20400:
                      0. 00 0000 0015 0000:?SetFormatType@CMediaType@@QAEXPBU_GUID@@@Z
                  7EF0F7DF8D46041BFF23F88BCFE8........837E500075:
                    0. 1A 9359 0074 0000:?Commit@CBaseAllocator@@UAGJXZ
              668B46025733FF662500FF57663D00010FB74608570F85AA00:
                0. 17 AD02 0105 0000:_RawImageGetRow@16
              6804080000FFD65933C93BC1750F516A05FF7528E8:
                0. 70 5B06 0090 0000:_FDICreate
              81:
                3E4D44494374046A02EB368B46088D480C394D1076046A03:
                  0. 10 5193 004D 0000:_MDIDecompress
                FE0D0000C00F840401000081FE170000C00F84ED00000081:
                  0. 2F 6CB3 0127 0000:_ScNtStatusTranslation@8
              83:
                3E10740433C0EB698D4E0833D239115357740D8D460C3910:
                  0. 0E D7C6 007E 0000:_NewGenRandomEx@12
                7E:
                  0C01751A837E40007414684701000068........68:
                    0. 00 0000 0032 0000:?NonDelegatingRelease@CBaseFilter@@UAGKXZ
                  1400:
                    57751468AC01000068........68........E8:
                      0. 00 0000 003F 0000:?GetSurfaceDesc@CAggDrawSurface@@UAGJPAU_DDSURFACEDESC@@@Z
                    75:
                      116A7B68........68........E8........8B46:
                        0. 0C 6A6C 002C 0000:?Compact@CAggDirectDraw@@UAGJXZ
                      1468:
                        0001000068........68........E8:
                          0. 00 0000 0035 0000:?WaitForVerticalBlank@CAggDirectDraw@@UAGJKPAX@Z
                        0302000068........68........E8:
                          0. 00 0000 0041 0000:?UpdateOverlay@CAggDrawSurface@@UAGJPAUtagRECT@@PAUIDirectDrawSurface@@0KPAU_DDOVERLAYFX@@@Z
                        0A02000068........68........E8:
                          0. 00 0000 0035 0000:?UpdateOverlayDisplay@CAggDrawSurface@@UAGJK@Z
                        1102000068........68........E8:
                          0. 00 0000 0038 0000:?UpdateOverlayZOrder@CAggDrawSurface@@UAGJKPAUIDirectDrawSurface@@@Z
                        1D01000068........68........E8:
                          0. 00 0000 0032 0000:?AddAttachedSurface@CAggDrawSurface@@UAGJPAUIDirectDrawSurface@@@Z
                        2401000068........68........E8:
                          0. 00 0000 0032 0000:?AddOverlayDirtyRect@CAggDrawSurface@@UAGJPAUtagRECT@@@Z
                        2B01000068........68........E8:
                          0. 00 0000 003E 0000:?Blt@CAggDrawSurface@@UAGJPAUtagRECT@@PAUIDirectDrawSurface@@0KPAU_DDBLTFX@@@Z
                        3201000068........68........E8:
                          0. 00 0000 0038 0000:?BltBatch@CAggDrawSurface@@UAGJPAU_DDBLTBATCH@@KK@Z
                        3901000068........68........E8:
                          0. 00 0000 003E 0000:?BltFast@CAggDrawSurface@@UAGJKKPAUIDirectDrawSurface@@PAUtagRECT@@K@Z
                        4001000068........68........E8:
                          0. 00 0000 0035 0000:?DeleteAttachedSurface@CAggDrawSurface@@UAGJKPAUIDirectDrawSurface@@@Z
                        4701000068........68........E8:
                          0. 00 0000 0035 0000:?EnumAttachedSurfaces@CAggDrawSurface@@UAGJPAXP6GJPAUIDirectDrawSurface@@PAU_DDSURFACEDESC@@0@Z@Z
                        4E01000068........68........E8:
                          0. 00 0000 0038 0000:?EnumOverlayZOrders@CAggDrawSurface@@UAGJKPAXP6GJPAUIDirectDrawSurface@@PAU_DDSURFACEDESC@@0@Z@Z
                        5501000068........68........E8:
                          0. 00 0000 0035 0000:?Flip@CAggDrawSurface@@UAGJPAUIDirectDrawSurface@@K@Z
                        5C01000068........68........E8:
                          0. 00 0000 0035 0000:?GetAttachedSurface@CAggDrawSurface@@UAGJPAU_DDSCAPS@@PAPAUIDirectDrawSurface@@@Z
                        6301000068........68........E8:
                          0. 00 0000 0032 0000:?GetBltStatus@CAggDrawSurface@@UAGJK@Z
                        6A01000068........68........E8:
                          0. 00 0000 0032 0000:?GetCaps@CAggDrawSurface@@UAGJPAU_DDSCAPS@@@Z
                        7101000068........68........E8:
                          0. 00 0000 0032 0000:?GetClipper@CAggDrawSurface@@UAGJPAPAUIDirectDrawClipper@@@Z
                        7801000068........68........E8:
                          0. 00 0000 0035 0000:?GetColorKey@CAggDrawSurface@@UAGJKPAU_DDCOLORKEY@@@Z
                        7F01000068........68........E8:
                          0. 00 0000 0032 0000:?GetDC@CAggDrawSurface@@UAGJPAPAUHDC__@@@Z
                        8200000068........68........E8:
                          0. 00 0000 0038 0000:?CreateClipper@CAggDirectDraw@@UAGJKPAPAUIDirectDrawClipper@@PAUIUnknown@@@Z
                        8601000068........68........E8:
                          0. 00 0000 0032 0000:?GetFlipStatus@CAggDrawSurface@@UAGJK@Z
                        8900000068........68........E8:
                          0. 00 0000 003B 0000:?CreatePalette@CAggDirectDraw@@UAGJKPAUtagPALETTEENTRY@@PAPAUIDirectDrawPalette@@PAUIUnknown@@@Z
                        8D01000068........68........E8:
                          0. 00 0000 0035 0000:?GetOverlayPosition@CAggDrawSurface@@UAGJPAJ0@Z
                        9000000068........68........E8:
                          0. 00 0000 0038 0000:?CreateSurface@CAggDirectDraw@@UAGJPAU_DDSURFACEDESC@@PAPAUIDirectDrawSurface@@PAUIUnknown@@@Z
                        9401000068........68........E8:
                          0. 00 0000 0032 0000:?GetPalette@CAggDrawSurface@@UAGJPAPAUIDirectDrawPalette@@@Z
                        9700000068........68........E8:
                          0. 00 0000 0035 0000:?DuplicateSurface@CAggDirectDraw@@UAGJPAUIDirectDrawSurface@@PAPAU2@@Z
                        9B01000068........68........E8:
                          0. 00 0000 0032 0000:?GetPixelFormat@CAggDrawSurface@@UAGJPAU_DDPIXELFORMAT@@@Z
                        9E00000068........68........E8:
                          0. 00 0000 003B 0000:?EnumDisplayModes@CAggDirectDraw@@UAGJKPAU_DDSURFACEDESC@@PAXP6GJ01@Z@Z
                        A500000068........68........E8:
                          0. 00 0000 003B 0000:?EnumSurfaces@CAggDirectDraw@@UAGJKPAU_DDSURFACEDESC@@PAXP6GJPAUIDirectDrawSurface@@01@Z@Z
                        AC00000068........68........E8:
                          0. 00 0000 002F 0000:?FlipToGDISurface@CAggDirectDraw@@UAGJXZ
                        B300000068........68........E8:
                          0. 00 0000 0035 0000:?GetCaps@CAggDirectDraw@@UAGJPAU_DDCAPS_DX3@@0@Z
                        BA00000068........68........E8:
                          0. 00 0000 0032 0000:?GetDisplayMode@CAggDirectDraw@@UAGJPAU_DDSURFACEDESC@@@Z
                        BD01000068........68........E8:
                          0. 00 0000 0035 0000:?Initialize@CAggDrawSurface@@UAGJPAUIDirectDraw@@PAU_DDSURFACEDESC@@@Z
                        C100000068........68........E8:
                          0. 00 0000 0035 0000:?GetFourCCCodes@CAggDirectDraw@@UAGJPAK0@Z
                        C401000068........68........E8:
                          0. 00 0000 002F 0000:?IsLost@CAggDrawSurface@@UAGJXZ
                        C800000068........68........E8:
                          0. 00 0000 0032 0000:?GetGDISurface@CAggDirectDraw@@UAGJPAPAUIDirectDrawSurface@@@Z
                        CB01000068........68........E8:
                          0. 00 0000 003B 0000:?Lock@CAggDrawSurface@@UAGJPAUtagRECT@@PAU_DDSURFACEDESC@@KPAX@Z
                        CF00000068........68........E8:
                          0. 00 0000 0032 0000:?GetMonitorFrequency@CAggDirectDraw@@UAGJPAK@Z
                        D201000068........68........E8:
                          0. 00 0000 0032 0000:?ReleaseDC@CAggDrawSurface@@UAGJPAUHDC__@@@Z
                        D600000068........68........E8:
                          0. 00 0000 0032 0000:?GetScanLine@CAggDirectDraw@@UAGJPAK@Z
                        D901000068........68........E8:
                          0. 00 0000 002F 0000:?Restore@CAggDrawSurface@@UAGJXZ
                        DD00000068........68........E8:
                          0. 00 0000 0032 0000:?GetVerticalBlankStatus@CAggDirectDraw@@UAGJPAH@Z
                        E001000068........68........E8:
                          0. 00 0000 0032 0000:?SetClipper@CAggDrawSurface@@UAGJPAUIDirectDrawClipper@@@Z
                        E400000068........68........E8:
                          0. 00 0000 0032 0000:?Initialize@CAggDirectDraw@@UAGJPAU_GUID@@@Z
                        E701000068........68........E8:
                          0. 00 0000 0035 0000:?SetColorKey@CAggDrawSurface@@UAGJKPAU_DDCOLORKEY@@@Z
                        EB00000068........68........E8:
                          0. 00 0000 002F 0000:?RestoreDisplayMode@CAggDirectDraw@@UAGJXZ
                        EE01000068........68........E8:
                          0. 00 0000 0035 0000:?SetOverlayPosition@CAggDrawSurface@@UAGJJJ@Z
                        F200000068........68........E8:
                          0. 00 0000 0035 0000:?SetCooperativeLevel@CAggDirectDraw@@UAGJPAUHWND__@@K@Z
                        F501000068........68........E8:
                          0. 00 0000 0032 0000:?SetPalette@CAggDrawSurface@@UAGJPAUIDirectDrawPalette@@@Z
                        F900000068........68........E8:
                          0. 00 0000 0038 0000:?SetDisplayMode@CAggDirectDraw@@UAGJKKK@Z
                        FC01000068........68........E8:
                          0. 00 0000 0035 0000:?Unlock@CAggDrawSurface@@UAGJPAX@Z
                  2C007406837E14007507B8FFFF0080EB19837E20007504:
                    0. 18 00AC 0038 0000:?Apply@CBasePropertyPage@@UAGJXZ
                  40007411FF7644FF15........83664000836644008B46:
                    0. 14 CF23 0034 0000:?FreeMediaType@@YGXAAU_AMMediaType@@@Z
                BE5402000000750833C040E9C300000053FFB648020000FF:
                  0. 10 3736 00EB 0000:_WriteCFDATABlock@12
                C60C56FF15........85C07F116A3868........68:
                  0. 00 0000 0034 0000:?NonDelegatingAddRef@CBasePropertyPage@@UAGKXZ
              85F6:
                57750533C040EB198B55148B028B4D0C8B7D1C2BC14FF7:
                  0. 38 AD8B 0058 0000:_NetpCopyDataToBuffer@24
                74:
                  1E803E007419837D0C0074138D450889750850E8:
                    0. 00 0000 002E 0000:_mblen
                  5D53578BC633FF8B40:
                    044785C075F88B450C8B500885:
                      0. 50 0F01 0070 0000:?MoveToTail@CBaseList@@QAEHPAU__POSITION@@PAV1@@Z
                    084785C075F88B450C8B500485:
                      0. 50 63E9 0070 0000:?MoveToHead@CBaseList@@QAEHPAU__POSITION@@PAV1@@Z
                75:
                  1339750C740AFF750CE8........EB4433C0EB408B46:
                    0. 07 0F4B 0063 0000:_DnsAddrArray_CopyAndExpand@12
                  14688409000068........68........E8........57:
                    0. 02 458D 0075 0000:?UpdateFormat@CImageDisplay@@QAEJPAUtagVIDEOINFO@@@Z
              8B:
                06:
                  6A00FF750C8BCEFF505085C07C0433C0EB0FFF750C8BCE:
                    0. 01 361F 002F 0000:?GetCurrentPosition@CPosPassThru@@UAGJPA_J@Z
                  85C0578BF9894508741D8D4508508BCEE8........508B:
                    0. 02 632D 003D 0000:?AddTail@CBaseList@@QAEHPAV1@@Z
                  8BCEFF502050FF750CE8........85C07C19FF750C8B06:
                    0. 19 57E3 0039 0000:?Save@CPersistStream@@UAGJPAUIStream@@H@Z
                46:
                  04:
                    578B7D24663BB85C0200007424FF7610FF751CFF7518:
                      0. 06 E1C3 00C3 0000:_FCIAddFile
                    85C0578BF9894508741D8D4508508BCEE8........50:
                      0. 03 A2C1 003E 0000:?AddTail@CBaseList@@QAEHPAV1@@Z
                  1885C07507B8FFFF0080EB3A576AEC50FF15........8B:
                    0. 11 972A 0054 0000:?Deactivate@CBasePropertyPage@@UAGJXZ
                  1C85C075:
                    3A68:
                      0A07000068........68........E8:
                        0. 00 0000 0055 0000:?IsUsingDefaultDestination@CBaseControlVideo@@UAGJXZ
                      F206000068........68........E8:
                        0. 00 0000 0055 0000:?IsUsingDefaultSource@CBaseControlVideo@@UAGJXZ
                    4868:
                      E406000068........68........E8:
                        0. 00 0000 0063 0000:?SetDefaultSourcePosition@CBaseControlVideo@@UAGJXZ
                      FC06000068........68........E8:
                        0. 00 0000 0063 0000:?SetDefaultDestinationPosition@CBaseControlVideo@@UAGJXZ
                  3C85C0740A50E8........83663C00837D0C00750433C0:
                    0. 09 CFBF 006B 0000:?SetMediaType@CMediaSample@@UAGJPAU_AMMediaType@@@Z
                  4083F80375098B46308D443030EB3E85C0741468F20900:
                    0. 02 09E0 005B 0000:?GetBitMasks@CImageDisplay@@QAEPBKPBUtagVIDEOINFO@@@Z
                  480FB740060146306683BEB000000000750A56E8:
                    0. 00 0000 00A1 0000:_FDIGetDataBlock@4
                4E:
                  0485C97507B834020480EB138B018D56F052FF500C85C0:
                    0. 0D DCD2 002D 0000:?Cancel@CDeferredCommand@@UAGJXZ
                  08836604008B01FF501089460C33C05E5DC20400:
                    0. 00 0000 001D 0000:?Reset@CEnumMediaTypes@@UAGJXZ
                  0C8B01FF50148B4E0C8946108B01FF501883660400:
                    8946:
                      0. 08 9945 0028 0000:?Refresh@CEnumPins@@AAGJXZ
                    8D4E:
                      0. 05 3380 0030 0000:?Reset@CEnumPins@@UAGJXZ
                  1885C97507B8FFFF0080EB2F8B450C83F805741083F801:
                    0. 11 E685 0049 0000:?Show@CBasePropertyPage@@UAGJI@Z
                  2857894D08E8........8B450C85C089463074378B088D:
                    0. 04 A79C 00B0 0000:?JoinFilterGraph@CBaseFilter@@UAGJPAUIFilterGraph@@PBG@Z
                  38E8........:
                    8D450C508D4E:
                      20E8........8B4E38E8:
                        0. 00 0000 002F 0000:?put_CurrentPosition@CSourcePosition@@UAGJN@Z
                      28E8........8B4E38E8:
                        0. 00 0000 002F 0000:?put_StopTime@CSourcePosition@@UAGJN@Z
                    DD450C8B4E38DD5E30E8........8B068B:
                      0. 09 C0D4 0029 0000:?put_Rate@CSourcePosition@@UAGJN@Z
                  40FF750C8B01FF909C00000085C0894508:
                    0F8D98000000:
                      0. 0E 46E7 00C0 0000:?Receive@CRendererInputPin@@UAGJPAUIMediaSample@@@Z
                    7D72538B1D:
                      0. 00 0000 0096 0000:?Receive@CRendererInputPin@@UAGJPAUIMediaSample@@@Z
                86B0000000:
                  5733FF3BC77531686901000068........68:
                    0. 00 0000 0082 0000:?put_BackgroundPalette@CBaseControlWindow@@UAGJJ@Z
                  85C0:
                    57BF........0F858A0000006833030000:
                      0. 02 F67E 00B2 0000:?SetWindowPosition@CBaseControlWindow@@UAGJJJJJ@Z
                    75:
                      2468D302000068........68:
                        0. 01 3E9B 0042 0000:?put_MessageDrain@CBaseControlWindow@@UAGJJ@Z
                      26683201000068........68:
                        0. 01 3E9B 0044 0000:?put_WindowState@CBaseControlWindow@@UAGJJ@Z
                      2768:
                        2704000068........68:
                          0. 01 3E9B 005B 0000:?HideCursor@CBaseControlWindow@@UAGJJ@Z
                        9201000068........68:
                          0. 01 3E9B 005E 0000:?put_Visible@CBaseControlWindow@@UAGJJ@Z
                        D003000068........68:
                          0. 01 3E9B 005B 0000:?put_AutoShow@CBaseControlWindow@@UAGJJ@Z
                      2E68AD03000068........68:
                        0. 01 3E9B 004C 0000:?put_BorderColor@CBaseControlWindow@@UAGJJ@Z
                      3468A202000068........68:
                        0. 01 3E9B 0091 0000:?put_Owner@CBaseControlWindow@@UAGJJ@Z
                      5968:
                        A200000068........68:
                          0. 01 3E9B 0088 0000:?put_WindowStyleEx@CBaseControlWindow@@UAGJJ@Z
                        F102000068........68:
                          0. 01 3E9B 008D 0000:?NotifyOwnerMessage@CBaseControlWindow@@UAGJJJJJ@Z
                CEE8........83F8017507B803020480EB1B8B46048B5608:
                  0. 1A 44F4 003A 0000:?Skip@CEnumPins@@UAGJK@Z
              8D:
                46345750894508FF15........8B450C85C074688B3883FF:
                  0. 7F 47B8 00B4 0000:?StartAt@CBaseStreamControl@@UAGJPB_JK@Z
                4E3457894D08E8........8B7D0C:
                  33D23BFA89562C895630:
                    0. 19 CFBD 014E 0000:?StopAt@CBaseStreamControl@@UAGJPB_JHK@Z
                  85FF0F84CC0000008B07:
                    0. 11 980F 0129 0000:?StartAt@CBaseStreamControl@@UAGJPB_JK@Z
                869800000050FF15........85C0:
                  7D14687A06000068:
                    0. 00 0000 003D 0000:?NonDelegatingRelease@CBasePin@@UAGKXZ
                  7F14687006000068:
                    0. 00 0000 003D 0000:?NonDelegatingAddRef@CBasePin@@UAGKXZ
              FF76:
                0CFF7608FF7604FF36FF15........89461033C05E5DC2:
                  0. 02 2768 0022 0000:?MsgBoxThread@@YGKPAX@Z
                10FF7514FF7510FF750CFF7604FF36E8........85C074:
                  0. 28 251D 004F 0000:_FCIFlushCabinet
            0C:
              0FB70650E8........85C0750C6A0DFF15........33C0EB1F:
                0. 1B 996F 0044 0000:_Dns_CreateForwardRecordForSockaddr@20
              33:
                C93BF17413394D10740E380E750F8B45083BC17403668908:
                  0. 0D 0625 003E 0000:_mbtowc
                D23BF275086A5758E935030000578B7D183BFA75086A5758:
                  0. 49 FAFF 034F 0000:_NetpConvertServerInfo@36
              57:
                56E8........85C0FF7518FF7514FF7510740E8B460C50FF:
                  0. 03 2FDA 0040 0000:_Dns_CreateForwardRecordFromIp6@20
                6A04:
                  33C08B450859BF........F3A774248B750C6A0459BF:
                    0. 00 0000 0057 0000:?NonDelegatingQueryInterface@CBaseAllocator@@UAGJABU_GUID@@PAPAX@Z
                  59BF........33C0F3A7:
                    5F5E75:
                      13FF75108B450883C0:
                        0. 03 EA57 0031 0000:?NonDelegatingQueryInterface@CBasePropertyPage@@UAGJABU_GUID@@PAPAX@Z (REF 000C: _IID_IPropertyPage)
                        1. 03 EA57 0031 0000:?NonDelegatingQueryInterface@CMediaControl@@UAGJABU_GUID@@PAPAX@Z (REF 000C: _IID_IMediaControl)
                        2. 03 EA57 0031 0000:?NonDelegatingQueryInterface@CMediaPosition@@UAGJABU_GUID@@PAPAX@Z (REF 000C: _IID_IMediaPosition)
                        3. 03 EA57 0031 0000:?NonDelegatingQueryInterface@CBasicAudio@@UAGJABU_GUID@@PAPAX@Z (REF 000C: _IID_IBasicAudio)
                        4. 03 EA57 0031 0000:?NonDelegatingQueryInterface@CBaseVideoWindow@@UAGJABU_GUID@@PAPAX@Z (REF 000C: _IID_IVideoWindow)
                        5. 03 EA57 0031 0000:?NonDelegatingQueryInterface@CAggDrawSurface@@UAGJABU_GUID@@PAPAX@Z (REF 000C: _IID_IDirectDrawSurface)
                        6. 03 EA57 0031 0000:?NonDelegatingQueryInterface@CAggDirectDraw@@UAGJABU_GUID@@PAPAX@Z (REF 000C: _IID_IDirectDraw)
                      1B8B4508FF75108BC8:
                        0. 0B 32B7 0039 0000:?NonDelegatingQueryInterface@CBaseReferenceClock@@UAGJABU_GUID@@PAPAX@Z
                        1. 0B 8908 0039 0000:?NonDelegatingQueryInterface@CDeferredCommand@@UAGJABU_GUID@@PAPAX@Z (REF 000C: _IID_IDeferredCommand)
                        2. 0B 8908 0039 0000:?NonDelegatingQueryInterface@CBaseReferenceClock@@UAGJABU_GUID@@PAPAX@Z (REF 000C: _IID_IReferenceClock)
                      1D8B4508FF75108BC8:
                        0. 0D 398B 003B 0000:?NonDelegatingQueryInterface@CDynamicOutputPin@@UAGJABU_GUID@@PAPAX@Z
                        1. 0D 51B5 003B 0000:?NonDelegatingQueryInterface@CBaseInputPin@@UAGJABU_GUID@@PAPAX@Z
                        2. 0D D581 003B 0000:?NonDelegatingQueryInterface@CDynamicOutputPin@@UAGJABU_GUID@@PAPAX@Z (REF 000C: _IID_IPinFlowControl)
                        3. 0D D581 003B 0000:?NonDelegatingQueryInterface@CBaseInputPin@@UAGJABU_GUID@@PAPAX@Z (REF 000C: _IID_IMemInputPin)
                      1F3945107509B80340:
                        0. 11 3C3C 003D 0000:?NonDelegatingQueryInterface@CSourceSeeking@@UAGJABU_GUID@@PAPAX@Z
                    74:
                      188B750C6A0459BF:
                        0. 00 0000 0099 0000:_DllGetClassObject@12
                      198B750C6A0459BF:
                        0. 00 0000 0044 0000:?NonDelegatingQueryInterface@CMediaEvent@@UAGJABU_GUID@@PAPAX@Z (REF 000C: _IID_IMediaEvent)
                        1. 00 0000 0044 0000:?NonDelegatingQueryInterface@CBaseBasicVideo@@UAGJABU_GUID@@PAPAX@Z (REF 000C: _IID_IBasicVideo)
                      298B750C6A0459BF:
                        0. 00 0000 0050 0000:?QueryInterface@CMediaSample@@UAGJABU_GUID@@PAPAX@Z
                    75:
                      0C8B45088BC805:
                        00010000:
                          0. 09 2208 005A 0000:?NonDelegatingQueryInterface@CBaseVideoRenderer@@UAGJABU_GUID@@PAPAX@Z
                        E0000000:
                          0. 09 2208 005A 0000:?NonDelegatingQueryInterface@CBaseVideoRenderer@@UAGJABU_GUID@@PAPAX@Z
                      1D8B4508:
                        8BC883C0:
                          0CFF75:
                            0. 09 2496 0056 0000:?NonDelegatingQueryInterface@CBasePin@@UAGJABU_GUID@@PAPAX@Z
                          10FF75:
                            0. 09 2496 0056 0000:?NonDelegatingQueryInterface@CBasePin@@UAGJABU_GUID@@PAPAX@Z
                          5CFF75:
                            0. 09 2496 0056 0000:?NonDelegatingQueryInterface@CSystemClock@@UAGJABU_GUID@@PAPAX@Z
                          6CFF75:
                            0. 09 2496 0056 0000:?NonDelegatingQueryInterface@CSystemClock@@UAGJABU_GUID@@PAPAX@Z
                        FF75108BC883C0:
                          0. 09 2496 004C 0000:?NonDelegatingQueryInterface@CBaseMediaFilter@@UAGJABU_GUID@@PAPAX@Z
                          1. 09 9F29 004C 0000:?NonDelegatingQueryInterface@CBaseMediaFilter@@UAGJABU_GUID@@PAPAX@Z
                8B7D088D450C505657E8........85C07C:
                  11FF75108B450C:
                    0. 07 CB0C 0031 0000:_StringCatWorkerA@12 (REF 0012: _StringLengthWorkerA@12)
                    1. 07 CB0C 0031 0000:?StringCatWorkerA@@YGJPADIPBD@Z (REF 0012: ?StringLengthWorkerA@@YGJPBDIPAI@Z)
                  12FF75108B450C:
                    0. 08 2AEB 0032 0000:_StringCatWorkerW@12
              66837E0E105774116A3B68........68........E8:
                0. 1F EFDD 0076 0000:_GetTrueColorType@4
              837E200057BF........751068D80300005768........E8:
                0. 00 0000 0050 0000:?UpdateColourTable@CDrawImage@@IAEXPAUHDC__@@PAUtagBITMAPINFOHEADER@@@Z
              85F6:
                57751468EA03000068........68........E8:
                  0. 0F 1050 002F 0000:?ScaleSourceRect@CDrawImage@@UAE?AUtagRECT@@PBU2@@Z
                75:
                  07B803400080EB:
                    11576A045933C0BF........F3A70F:
                      0. 08 DA83 0028 (!)0000:?
                    17576A0433C059BF........F3A70F:
                      0. 0E 4A2D 002E 0000:?SetTimeFormat@CSourceSeeking@@UAGJPBU_GUID@@@Z
                    236A08FF15........85C089067507:
                      0. 08 6F46 003A 0000:?QueryId@CRendererInputPin@@UAGJPAPAG@Z
                    5D53576A0456FF15........83F801:
                      0. 06 34F3 0074 0000:?ConnectedTo@CBasePin@@UAGJPAPAUIPin@@@Z
                  27397510741468B90D000068........68........E8:
                    0. 00 0000 00EB 0000:?SetTime@CMediaSample@@UAGJPA_J0@Z
              8D46063B451089450C760F68EA000000FF15........33C0EB:
                0. 15 784F 007D 0000:_Srv_RecordWrite@12
            10:
              0FB646185068........FF750CFF55088D461983C40C85C074:
                0. 09 69B3 005D 0000:_AtmaRecordPrint@12
              85F675:
                07B803400080EB:
                  5468........FF750CFF15:
                    0. 24 84F4 006B 0000:?FindPin@CBaseRenderer@@UAGJPBGPAPAUIPin@@@Z
                  62578B3D........68........FF75:
                    0. 0B 43A7 0079 0000:?FindPin@CTransformFilter@@UAGJPBGPAPAUIPin@@@Z
                  7553576A0456FF15........83F801:
                    0. 06 D185 008C 0000:?FindPin@CSource@@UAGJPBGPAPAUIPin@@@Z
                0AB803400080E9A200000053576A0456FF15:
                  0. 09 73D8 00BC 0000:?FindPin@CTransformFilter@@UAGJPBGPAPAUIPin@@@Z
            14:
              5733FF397D10897D147507C74510........3BF77516FF7510:
                0. 01 361F 00F6 0000:_DnsPrint_IpAdapterAddress@24
              85F6:
                75208B451085C07505B8........5068........FF750C:
                  0. 0C 975F 00CB 0000:_DnsPrint_SecurityPacketInfo@16
                  1. 0D C8BD 00B4 0000:_DnsPrint_SecurityContext@16
                7D:
                  0B56FF7508E8........5959FF7510FF750CFF7508E8:
                    0. 00 0000 0039 0000:__UpdateFpCtxt
                  0C56FF7508E8........83C408FF7510FF750CFF7508:
                    0. 01 3E9B 003B 0000:__UpdateFpCtxt
              8B450CFF4D0C85C07E:
                1456FF7510FF7508E8........83C40C:
                  0. 08 BBD5 0028 (l)0000:_write_multi_char
                1B8B450856FF75100FBE0050FF4508E8:
                  0. 00 0000 002F (l)0000:_write_string
                1C8B450856FF7510668B008345080250:
                  0. 01 3E9B 0030 (l)0000:_write_string
            2033C03BF07507B803400080EB5839451089067C4C7F0539450C:
              0. 31 4591 0071 0000:?AdvisePeriodic@CBaseReferenceClock@@UAGJ_J0KPAK@Z
              1. 31 74AD 0071 0000:?AdvisePeriodic@CBaseReferenceClock@@UAGJ_J0KPAK@Z
          F1:
            397508741A56E8........FF750856E8........85C07D07B80E:
              0. 0C B7FE 002C 0000:?Set@CMediaType@@QAEJABU_AMMediaType@@@Z
            578D:
              7E:
                088BCFE8........8B45088986800000008B450C898684:
                  0. 0D 1DB0 0040 0000:?Run@CCmdQueue@@UAEJ_J@Z
                188BCFE8........837E14007507BE05400080EB1C8B45:
                  0. 08 BAD6 0049 0000:?CallWorker@CAMThread@@QAEKK@Z
                208BCFE8........8B4508836658008946488B450C8946:
                  0. 10 F06E 003C 0000:?RegisterMediaTime@CRendererPosPassThru@@QAEJ_J0@Z
                348BCFE8........8B:
                  45088D4E58894628E8........8B:
                    0. 02 632D 002C 0000:?Flushing@CBaseStreamControl@@QAEXH@Z
                  465C85C074068B0850FF51088B45:
                    0. 11 A466 003B 0000:?SetSyncSource@CBaseStreamControl@@QAEXPAUIReferenceClock@@@Z
              BEA00000008BCFE8........8B45088BCF8986C8000000E8:
                0. 00 0000 002A 0000:?SetRepaintStatus@CBaseRenderer@@QAEXH@Z
            68........8D4E04E8........8B450883660C00894608C706:
              0. 00 0000 002A 0000:??0CClassFactory@@QAE@PBVCFactoryTemplate@@@Z
            6A00FF7604FF15........85C0740433C0EB0F8B450885C07405:
              0. 0D C9BC 002D 0000:?CheckRequest@CAMThread@@QAEHPAK@Z
            83:
              7E:
                18007507B813020480EB208B46188B08578B7D085750FF51:
                  0. 18 BA6D 0038 0000:?StreamTime@CBaseMediaFilter@@UAEJAAVCRefTime@@@Z
                1C007507B813020480EB208B461C8B08578B7D085750FF51:
                  0. 18 BA6D 0038 0000:?StreamTime@CBaseFilter@@UAEJAAVCRefTime@@@Z
                200057BF........751068BA0400005768........E8:
                  0. 00 0000 0081 0000:?DrawImage@CDrawImage@@QAEHPAUIMediaSample@@@Z
                28007534837E58000F8583000000837E20007405E8:
                  0. 00 0000 009E 0000:?NewSegment@COutputQueue@@QAEX_J0N@Z
                34007534837E64000F8583000000837E2C007405E8:
                  0. 00 0000 009E 0000:?NewSegment@COutputQueue@@QAEX_J0N@Z
              BE8400000005720BFF7508E8........59EB28578D7E588BCF:
                0. 01 3E9B 0047 0000:?Delete@CAMSchedule@@AAEXPAVCAdvisePacket@1@@Z
            8B:
              06FF506484C0751468:
                6E04000068........68........E8:
                  0. 00 0000 0032 0000:?Deliver@CDynamicOutputPin@@UAEJPAUIMediaSample@@@Z
                80:
                  04000068........68........E8:
                    0. 00 0000 0043 0000:?DeliverNewSegment@CDynamicOutputPin@@UAEJ_J0N@Z
                  11000068........68........E8:
                    0. 00 0000 005B 0000:?DynamicReconnect@CDynamicOutputPin@@QAEJPBVCMediaType@@@Z
              46:
                0885C057744B837D08007445BF0F030000397D0C74053945:
                  0. 06 7285 0061 0000:?OnPaletteChange@CBaseWindow@@MAEJPAUHWND__@@I@Z
                7883781C007419837E700174138B06FF90A000000083F801:
                  0. 0C AD48 0045 0000:?CompleteStateChange@CBaseRenderer@@UAEJW4_FilterState@@@Z
              4D08890EE8........8BC65E5DC20400:
                0. 00 0000 0017 0000:??0CAutoLock@@QAE@PAVCCritSec@@@Z
              5604EB15528BCEE8........3B4508741352E8........8BD0:
                0. 0F BA20 002F 0000:?FindI@CBaseList@@IBEPAU__POSITION@@PAX@Z
              86:
                8C00000083B8C800000000740D8B8E900000008B015E5DFF:
                  0. 05 2914 00B9 0000:?Receive@CTransInPlaceFilter@@UAEJPAUIMediaSample@@@Z
                A800000083B8A400000000:
                  57BF........751068A5030000:
                    0. 02 F67E 00C0 0000:?SetMediaType@CTransformOutputPin@@UAEJPBVCMediaType@@@Z
                  751468:
                    6703000068........68:
                      0. 00 0000 0065 0000:?CheckConnect@CTransformOutputPin@@UAEJPAUIPin@@@Z
                    9303000068........68:
                      0. 00 0000 005F 0000:?CheckMediaType@CTransformOutputPin@@UAEJPBVCMediaType@@@Z
                    CF03000068........68:
                      0. 00 0000 0052 0000:?GetMediaType@CTransformOutputPin@@UAEJHPAVCMediaType@@@Z
              8E:
                A4000000E8........83782000740D8B8EA80000008B015E:
                  0. 07 84F6 00CF 0000:?Receive@CTransInPlaceFilter@@UAEJPAUIMediaSample@@@Z
                B0000000E8........85C074258B462C83781800741C8B4D:
                  0. 06 009D 0071 0000:?CheckMediaType@CTransInPlaceOutputPin@@UAEJPBVCMediaType@@@Z
            8D4E:
              10E8........85C07526576A10E8........8BF885FF5974:
                0. 02 9875 0062 0000:?AddHeadI@CBaseList@@IAEPAU__POSITION@@PAX@Z (003A: 04)
                1. 02 9875 0062 0000:?AddTailI@CBaseList@@IAEPAU__POSITION@@PAX@Z (003A: 08)
              20E8........8BCEF7D98D46041BC923C8E8........F645:
                0. 06 5E95 0032 0000:??_GCRendererPosPassThru@@UAEPAXI@Z
            E8........F6450801740756E8........598BC65E5DC20400:
              0. 00 0000 001F (!)0000:? (REF 0007: ??1CBaseInputPin@@UAE@XZ)
              1. 00 0000 001F 0000:??_GCDeferredCommand@@UAEPAXI@Z (REF 0007: ??1CDeferredCommand@@UAE@XZ)
              2. 00 0000 001F 0000:??_GCEnumPins@@UAEPAXI@Z (REF 0007: ??1CEnumPins@@UAE@XZ)
              3. 00 0000 001F 0000:??_GCEnumMediaTypes@@UAEPAXI@Z (REF 0007: ??1CEnumMediaTypes@@UAE@XZ)
              4. 00 0000 001F 0000:??_GCDynamicOutputPin@@UAEPAXI@Z (REF 0007: ??1CDynamicOutputPin@@UAE@XZ)
              5. 00 0000 001F 0000:??_GCMemAllocator@@UAEPAXI@Z (REF 0007: ??1CMemAllocator@@UAE@XZ)
              6. 00 0000 001F 0000:??_G?$CGenericList@UIMediaSample@@@@QAEPAXI@Z (REF 0007: ??1CBaseList@@QAE@XZ)
              7. 00 0000 001F 0000:??_GCPullPin@@UAEPAXI@Z (REF 0007: ??1CPullPin@@UAE@XZ)
              8. 00 0000 001F 0000:??_GCBaseRenderer@@UAEPAXI@Z (REF 0007: ??1CBaseRenderer@@UAE@XZ)
              9. 00 0000 001F 0000:??_GCBaseVideoRenderer@@UAEPAXI@Z (REF 0007: ??1CBaseVideoRenderer@@UAE@XZ)
              10. 00 0000 001F 0000:??_GCAMSchedule@@UAEPAXI@Z (REF 0007: ??1CAMSchedule@@UAE@XZ)
              11. 00 0000 001F 0000:??_GCSeekingPassThru@@UAEPAXI@Z (REF 0007: ??1CSeekingPassThru@@UAE@XZ)
              12. 00 0000 001F 0000:??_GCSource@@UAEPAXI@Z (REF 0007: ??1CSource@@UAE@XZ)
              13. 00 0000 001F 0000:??_GCSourceStream@@UAEPAXI@Z (REF 0007: ??1CSourceStream@@UAE@XZ)
              14. 00 0000 001F 0000:??_GCVideoTransformFilter@@UAEPAXI@Z (REF 0007: ??1CVideoTransformFilter@@UAE@XZ)
              15. 00 0000 001F 0000:??_GCBaseControlVideo@@UAEPAXI@Z (REF 0007: ??1CBaseBasicVideo@@UAE@XZ)
              16. 00 0000 001F 0000:??_GCImageAllocator@@UAEPAXI@Z (REF 0007: ??1CImageAllocator@@UAE@XZ)
              17. 00 0000 001F 0000:??_GCImagePalette@@UAEPAXI@Z (REF 0007: ??1CImagePalette@@UAE@XZ)
              18. 00 0000 001F 0000:??_GCNode@CBaseList@@QAEPAXI@Z (REF 0007: ??1CBaseObject@@QAE@XZ)
            F7D98D46:
              041BC923C8E8........F6450801740756E8:
                0. 08 EE6C 0028 0000:??_GCPosPassThru@@UAEPAXI@Z (REF 0010: ??1CMediaPosition@@UAE@XZ)
                1. 08 EE6C 0028 0000:??_GCClassFactory@@QAEPAXI@Z (REF 0010: ??1CBaseObject@@QAE@XZ)
              181BC923C8E8........8BCEE8........F645080174:
                0. 03 A8A6 002F 0000:??_GCBaseControlWindow@@UAEPAXI@Z
        8D45:
          08508B45086A036A05FF700833F6FF7004FF30FF15........85:
            0. 05 B7D7 0062 0000:_Dns_ImpersonateUser@4
          1850FF75186A00FF750CFF7508E8........8BF085F67C1DFF75:
            0. 22 580D 0042 0000:?GetIDsOfNames@CBaseDispatch@@QAGJABU_GUID@@PAPAGIKPAJ@Z
          24508D452050FF7524FF7520FF751CFF7518FF7514FF7510FF75:
            0. 0C 909D 006C 0000:_DnssrvEnumRecordsAndConvertNodes@40
        BEFFFF00005756683F130000E8........8BF88B450E6625F07F5966:
          0. 15 44BB 00B2 0000:_frexp
        E8........E8........8B4508DD401083EC18DD5C2410DD4008DD5C:
          0. 08 79F1 0115 0000:_dodecahedron@16
        FF:
          35........FF75:
            08FF15........8BF085F6741468BD03000068:
              0. 00 0000 003C 0000:?DbgWaitForSingleObject@@YGKPAX@Z
            10FF750CFF7508FF15........8BF083FE407214:
              0. 06 7E97 0043 0000:?DbgWaitForMultipleObjects@@YGKKPBQAXH@Z
          75:
            088BF1:
              56E8........85C07D098B4D0C85C9740289018BC65E5D:
                0. 03 2EB7 0023 (!)0000:?
              8B8E:
                A80000008B016A01FF505085C07C0AFF75088BCEE8:
                  0. 00 0000 0029 0000:?CompleteConnect@CTransformOutputPin@@UAEJPAUIPin@@@Z
                E00000008B01:
                  6A00FF50:
                    4885C07C0AFF75088BCEE8:
                      0. 00 0000 0029 0000:?CheckConnect@CTransformInputPin@@UAEJPAUIPin@@@Z
                    5085C07C0AFF75088BCEE8:
                      0. 00 0000 0029 0000:?CompleteConnect@CTransformInputPin@@UAEJPAUIPin@@@Z
                  FF:
                    502885C075328B86E00000008B80:
                      0. 2F 5CE4 004F 0000:?CheckMediaType@CTransformInputPin@@UAEJPBVCMediaType@@@Z
                    909400000085C07C0AFF75088BCE:
                      0. 01 3E9B 002A 0000:?CompleteConnect@CRendererInputPin@@UAEJPAUIPin@@@Z
                E80000008B01FF502885C075208B86E80000008B80:
                  0. 1D 650B 003D 0000:?CheckMediaType@CTransInPlaceInputPin@@UAEJPBVCMediaType@@@Z
              8D4E04E8........8B450C85C075028BC6894608C7460C:
                0. 0B 03BC 002B 0000:??0CUnknown@@QAE@PAGPAUIUnknown@@PAJ@Z (REF 000D: ??0CBaseObject@@QAE@PBG@Z)
                1. 0B 03BC 002B 0000:??0CUnknown@@QAE@PADPAUIUnknown@@PAJ@Z (REF 000D: ??0CBaseObject@@QAE@PBD@Z)
                2. 0B 63DB 002B 0000:??0CUnknown@@QAE@PBDPAUIUnknown@@@Z (REF 000D: ??0CBaseObject@@QAE@PBD@Z)
                3. 0B 63DB 002B 0000:??0CUnknown@@QAE@PBGPAUIUnknown@@@Z (REF 000D: ??0CBaseObject@@QAE@PBG@Z)
              E8........:
                33C089460489460889460C894614894618C7:
                  0. 0D 13CE 002D 0000:??0CBaseList@@QAE@PAG@Z (REF 000A: ??0CBaseObject@@QAE@PBG@Z)
                  1. 0D 13CE 002D 0000:??0CBaseList@@QAE@PAD@Z (REF 000A: ??0CBaseObject@@QAE@PBD@Z)
                85C0:
                  7508FF8640010000EB0333C0405E5DC2:
                    0. 02 2768 0022 0000:?ScheduleSample@CBaseVideoRenderer@@UAEHPAUIMediaSample@@@Z
                  7C:
                    10:
                      8B8EE00000008B015E5DFFA09000:
                        0. 07 711E 0027 0000:?SetMediaType@CRendererInputPin@@UAEJPBVCMediaType@@@Z
                      FF75088B8E:
                        A80000008B016A01FF:
                          0. 07 DF2C 0027 0000:?CompleteConnect@CTransInPlaceOutputPin@@UAEJPAUIPin@@@Z
                        E00000008B016A00FF:
                          0. 07 DF2C 0027 0000:?CompleteConnect@CTransInPlaceInputPin@@UAEJPAUIPin@@@Z
                    368B8EE0000000FF75088B01FF5028:
                      0. 0A AF57 004D 0000:?SetMediaType@CTransformInputPin@@UAEJPBVCMediaType@@@Z
                8B:
                  4D0C33C089460489460889460C89461489:
                    0. 0C 1DA8 002C 0000:??0CBaseList@@QAE@PAGH@Z (REF 000A: ??0CBaseObject@@QAE@PBG@Z)
                    1. 0C 1DA8 002C 0000:??0CBaseList@@QAE@PADH@Z (REF 000A: ??0CBaseObject@@QAE@PBD@Z)
                  C65E5DC20400:
                    0. 00 0000 0015 0000:??4CMediaType@@QAEAAV0@ABU_AMMediaType@@@Z (REF 000A: ?Set@CMediaType@@QAEJABU_AMMediaType@@@Z)
                    1. 00 0000 0015 (!)0000:? (REF 000A: ??0CBaseList@@QAE@PAG@Z)
                    2. 00 0000 0015 0000:??4CMediaType@@QAEAAV0@ABV0@@Z (REF 000A: ??4CMediaType@@QAEAAV0@ABU_AMMediaType@@@Z)
            0C:
              8BF1FF7508:
                8D4E04E8........:
                  836614008BC65E5DC2:
                    0800:
                      0. 00 0000 001F (!)0000:?
                    0C00:
                      0. 00 0000 001F 0000:??0CMediaPosition@@QAE@PBGPAUIUnknown@@PAJ@Z
                  8B4D1433C0894E248B4D1089:
                    0. 18 FFA4 0038 0000:??0CBasePropertyPage@@QAE@PADPAUIUnknown@@HH@Z (REF 0010: ??0CUnknown@@QAE@PBDPAUIUnknown@@@Z)
                    1. 18 FFA4 0038 0000:??0CBasePropertyPage@@QAE@PAGPAUIUnknown@@HH@Z (REF 0010: ??0CUnknown@@QAE@PBGPAUIUnknown@@@Z)
                E8........:
                  8BC65E5DC21000:
                    0. 00 0000 0018 0000:??0?$CGenericList@UIMediaSample@@@@QAE@PAGHHH@Z
                  D9E833C089461889461C89462033C9:
                    0. 24 7BB7 0044 0000:??0CSourcePosition@@QAE@PBGPAUIUnknown@@PAJPAVCCritSec@@@Z
              BE........FF7508FF751056E8........83C410E8:
                0. 01 FB44 0061 0000:_Dns_Assert@12
              FF7508E8........83C4088B40048B4D108D50FF83FAFF7C1B:
                0. 12 4A2C 009A 0000:__gcvt
            108BF1FF750CFF7508E8........:
              33C08986B00000008986B400:
                0. 1C 1515 005F 0000:??0CVideoTransformFilter@@QAE@PAGPAUIUnknown@@ABU_GUID@@@Z
              8A45188886B00000008BC65E:
                0. 04 94EF 0024 0000:??0CTransInPlaceFilter@@QAE@PAGPAUIUnknown@@ABU_GUID@@PAJ_N@Z (REF 0010: ??0CTransformFilter@@QAE@PAGPAUIUnknown@@ABU_GUID@@@Z)
                1. 04 94EF 0024 0000:??0CTransInPlaceFilter@@QAE@PADPAUIUnknown@@ABU_GUID@@PAJ_N@Z (REF 0010: ??0CTransformFilter@@QAE@PADPAUIUnknown@@ABU_GUID@@@Z)
            14:
              8BF1FF7510FF750CFF7508E8........:
                33C08BCEC706:
                  0. 00 0000 0061 0000:??0CBaseVideoRenderer@@QAE@ABU_GUID@@PAGPAUIUnknown@@PAJ@Z
                8D4E20C706:
                  0. 03 C114 004F 0000:??0CRendererPosPassThru@@QAE@PBGPAUIUnknown@@PAJPAUIPin@@@Z
              FF7510E8........8BF033C03BF0750A39451074056A0E58EB:
                0. 06 3E4F 004C 0000:_DnssrvResetZoneMasters@16
                1. 05 A3E9 0057 0000:_DnssrvResetZoneMastersEx@20
            18:
              8BF1FF7514FF7510FF75:
                08FF750CE8........83A6AC000000:
                  0. 03 5824 002E 0000:??0CImageSample@@QAE@PAVCBaseAllocator@@PAGPAJPAEJ@Z
                0CFF7508E8........83A6:
                  D8000000:
                    0. 0A D7B6 004D 0000:??0CRenderedInputPin@@QAE@PAGPAVCBaseFilter@@PAVCCritSec@@PAJPBG@Z (REF 0016: ??0CBaseInputPin@@QAE@PAGPAVCBaseFilter@@PAVCCritSec@@PAJPBG@Z)
                    1. 0A D7B6 004D 0000:??0CRenderedInputPin@@QAE@PADPAVCBaseFilter@@PAVCCritSec@@PAJPBG@Z (REF 0016: ??0CBaseInputPin@@QAE@PADPAVCBaseFilter@@PAVCCritSec@@PAJPBG@Z)
                  E0000000:
                    0. 0A 71BE 004D 0000:??0CRenderedInputPin@@QAE@PAGPAVCBaseFilter@@PAVCCritSec@@PAJPBG@Z (REF 0016: ??0CBaseInputPin@@QAE@PAGPAVCBaseFilter@@PAVCCritSec@@PAJPBG@Z)
                    1. 0A 71BE 004D 0000:??0CRenderedInputPin@@QAE@PADPAVCBaseFilter@@PAVCCritSec@@PAJPBG@Z (REF 0016: ??0CBaseInputPin@@QAE@PADPAVCBaseFilter@@PAVCCritSec@@PAJPBG@Z)
              E8........8BF085F6745E837D0C008B4508578B7D24741E85:
                0. 0B A0B4 0075 0000:_CreateRecordBasic@32
              FF75148B751056FF750CFF7508E8........83C40850E8:
                0. 00 0000 0032 0000:__ecvt
      57:
        33FF:
          2BCF0F8409010000490F84D3000000490F848D00000049745849:
            0. 24 1171 015D (l)0000:_RxpGetPrintQInfoDescs@32
          393D........7E2156BE........8B0685C07408FF76F8FF7508:
            0. 08 CA22 0034 0000:?DllInitClasses@@YGXH@Z
        538B7D088BD78B5D1033C08BCBE3:
          10F2AE7501412BD98BCB8BFA8A45:
            0. 09 3074 0029 (!)0000:? (l!)0018:? (l!)0023:?
          12F2AE750383C1012BD98BCB8BFA:
            0. 0B 5082 002B 0000:__strnset (l)001A:nonull (l)0025:done
        56:
          538B:
            4D10:
              0BC9:
                0F84:
                  850000008B75088B7D0C8D05........837808:
                    0. 52 663E 009D 0000:__memicmp (l)002C:lupe (l)0040:skip1 (l)004A:skip2 (l)004E:dolupe (l)0053:differ (l)005E:notclocale (l)0064:lupe2 (l)0088:dolupe2 (l)008D:differ2 (l)0096:toend2
                    1. 52 926B 009D 0000:__memicmp
                  950000008B75088B7D0C8D05........837808:
                    0. 5E 0980 00AD 0000:__strnicmp
                    1. 5E 1C0B 00AD 0000:__strnicmp (l)002C:lupe (l)0044:skip1 (l)004E:skip2 (l)0055:eject (l)005B:differ (l)0066:notclocale (l)006C:lupe2 (l)0097:eject2 (l)009D:differ2 (l)00A6:toend2
                74:
                  3F8B75088B7D0CB741B35AB6208D49008A26468A:
                    0. 33 6FB7 0053 0000:___ascii_memicmp (l)001C:lupe (l)0030:skip1 (l)003A:skip2 (l)003E:dolupe (l)0043:differ (l)004C:toend
                  458B75088B7D0CB741B35AB6208D49008A2683C6:
                    0. 39 3D90 0059 0000:___ascii_memicmp (l)001C:lupe (l)0034:skip1 (l)003E:skip2 (l)0042:dolupe (l)0049:differ (l)0052:toend
                  478B75088B7D0CB741B35AB6208D49008A260AE4:
                    0. 3B A099 005B 0000:___ascii_strnicmp (l)001C:lupe (l)0034:skip1 (l)003E:skip2 (l)0045:eject (l)004B:differ (l)0054:toend
                  4D8B75088B7D0CB741B35AB6208D49008A260AE4:
                    0. 41 27B8 0061 0000:___ascii_strnicmp (l)001C:lupe (l)0038:skip1 (l)0042:skip2 (l)004B:eject (l)0051:differ (l)005A:toend
              E3:
                268BD98B7D088BF733C0F2AEF7D903CB8BFE8B750CF3:
                  0. 18 B375 0038 (!)0000:? (l!)001A:? (l!)002D:? (l!)002F:? (l!)0031:?
                278BD98B7D088BF733C0F2AEF7D903CB8BFE8B750CF3:
                  0. 19 B4CD 0039 0000:_strncmp (l)001A:okay (l)002D:firstbig (l)0030:lastbig (l)0032:toend
            750C8B7D08:
              8D05........83780800753BB0FF8B:
                C00AC0742E:
                  0. 4D 3E3C 008C 0000:__strcmpi
                FF0AC0742E:
                  0. 4D 662A 008C 0000:__strcmpi (l)001C:chk_null (l)004E:done (l)0053:notclocale (l)005C:chk_null2 (l)0087:done2
              B0FF8BFF0AC074:
                2E8A06468A274738C474F22C41:
                  0. 2A 1813 004A 0000:___ascii_stricmp (l)0010:chk_null (l)0042:done
                328A0683C6018A2783C70138C4:
                  0. 2E D603 004E 0000:___ascii_stricmp (l)0010:chk_null (l)0046:done
          8B:
            750C8B:
              4D108B7D088BC18BD103C63BFE76083BF80F82:
                78010000:
                  0. 18 91E3 0335 (!)0000:? (l!)0020:? (l!)003C:? (l!)0054:? (l!)005C:? (l!)0070:? (l!)009C:? (l!)00C0:? (l!)00FC:? (l!)0104:? (l!)010C:? (l!)0114:? (l!)011C:? (l!)0124:? (l!)012C:? (l!)013F:? (l!)0158:? (l!)0160:? (l!)016C:? (l!)0180:? (l!)0198:? (l!)01C0:? (l!)01CC:? (l!)01E4:? (l!)01F8:? (l!)0218:? (l!)0240:? (l!)0294:? (l!)029C:? (l!)02A4:? (l!)02AC:? (l!)02B4:? (l!)02BC:? (l!)02C4:? (l!)02D7:? (l!)02F0:? (l!)02F8:? (l!)0308:? (l!)031C:?
                7C010000:
                  0. 18 91E3 033D (!)0000:? (l!)0020:? (l!)003C:? (l!)0054:? (l!)005C:? (l!)0070:? (l!)009C:? (l!)00C0:? (l!)0100:? (l!)0108:? (l!)0110:? (l!)0118:? (l!)0120:? (l!)0128:? (l!)0130:? (l!)0143:? (l!)015C:? (l!)0164:? (l!)0170:? (l!)0184:? (l!)019C:? (l!)01C4:? (l!)01D0:? (l!)01E8:? (l!)01FC:? (l!)0220:? (l!)0248:? (l!)029C:? (l!)02A4:? (l!)02AC:? (l!)02B4:? (l!)02BC:? (l!)02C4:? (l!)02CC:? (l!)02DF:? (l!)02F8:? (l!)0300:? (l!)0310:? (l!)0324:?
              7D088B4D103BFE760C8BC603C13BF80F828E000000F7C7:
                0. 13 9EC2 014E (!)0000:?
            7D088BD78BF733C083C9FFF2AE83F9FE74:
              124F4F3BF7730C8A26:
                0. 10 8C62 0030 (!)0000:? (l!)001A:? (l!)002A:?
              1783EF023BF773108A:
                0. 15 8268 0035 0000:__strrev (l)001B:lupe (l)002F:done
        68........FF15........33FF3BC7A3........0F84C9000000568B:
          0. 01 5696 00EE 0000:?PerflogInitialize@@YGHPAU_PERFLOG_LOGGING_PARAMS@@@Z
        8B7D:
          08:
            33C083C9FFF2AE:
              41F7D94F8A450CFDF2AE473807740433C0EB:
                0. 07 F928 0027 (!)0000:? (l!)0021:? (l!)0023:?
              83C101F7D983EF018A450CFDF2AE83C70138:
                0. 0D BFD6 002D 0000:_strrchr (l)0027:returndi (l)0029:toend
            57E8........5A4050E8........5A0BC074095750E8:
              0. 00 0000 0026 (!)0000:? (l!)001A:? (l!)0023:?
            85FF:
              740666833F00750AB880090000E9C3000000568B35:
                0. 00 0000 00E3 0000:_NetpAlertStructureInfo@12
              75098B450CF7D81BC0EB45837D0C00750533C040EB3A53:
                0. 03 BC9D 006D 0000:_NetpCompareSid@8
            8BD733C083C9FFF2AE:
              4141F7D98A450C8BFAF3AA8BC25FC9C3:
                0. 00 0000 0020 0000:__strset
              83C102F7D98A450C8BFAF3AA8BC25FC9:
                0. 01 EF04 0021 0000:__strset
          0C85FF75:
            0533C040EB65538B5D0853E8........85C0750A57E8:
              0. 00 0000 007A 0000:?ShouldUpdate@CImagePalette@@QAEHPBUtagVIDEOINFOHEADER@@0@Z
            07B803400080EB:
              0D56BE........A5A5A5A533C05E5F:
                0. 04 A5D3 0024 (!)0000:?
              2553568B75088B5E3C8BCBE8:
                0. 00 0000 003C 0000:?GetDuration@CSourceSeeking@@UAGJPA_J@Z (0008: 1C)
                1. 00 0000 003C 0000:?GetStopPosition@CSourceSeeking@@UAGJPA_J@Z (0008: 2C)
              2D568B75088B86B000000085C07524:
                0. 06 39E1 0051 0000:?get_Owner@CBaseControlWindow@@UAGJPAJ@Z
                1. 06 D119 0051 0000:?get_MessageDrain@CBaseControlWindow@@UAGJPAJ@Z
                2. 06 ED6C 0051 0000:?get_BorderColor@CBaseControlWindow@@UAGJPAJ@Z
              34568B75088B86B000000085C0752B:
                0. 06 9B8B 0058 0000:?get_AutoShow@CBaseControlWindow@@UAGJPAJ@Z
                1. 06 F95F 0058 0000:?IsCursorHidden@CBaseControlWindow@@UAGJPAJ@Z
              38568B75088B86B000000085C0752F:
                0. 06 3319 005C 0000:?get_Visible@CBaseControlWindow@@UAGJPAJ@Z
              3B53568B75088B46885089450CFF15:
                0. 00 0000 0052 0000:?NotifyAllocator@CBaseInputPin@@UAGJPAUIMemAllocator@@H@Z
              4453568B75088D9E7CFFFFFF8BCBE8:
                0. 00 0000 005B 0000:?get_AvgSyncOffset@CBaseVideoRenderer@@UAGJPAH@Z
              45566A0457FF15........83F801BE:
                0. 00 0000 005C 0000:?GetTypeInfoCount@CBaseDispatch@@QAGJPAI@Z
              48566A1057FF15........83F801BE:
                0. 00 0000 005F 0000:?GetClassID@CSystemClock@@UAGJPAU_GUID@@@Z
              4E53566A1057FF15........83F801:
                0. 06 080D 0065 0000:?GetClassID@CBaseMediaFilter@@UAGJPAU_GUID@@@Z
                1. 06 E5AC 0065 0000:?GetClassID@CBaseFilter@@UAGJPAU_GUID@@@Z
              5A6A0457FF15........83F8017514:
                0. 06 EE31 0071 0000:?NotifyAllocator@CBaseInputPin@@UAGJPAUIMemAllocator@@H@Z
              68568B75088D8E7CFFFFFF894D0CE8:
                0. 00 0000 007F 0000:?get_AvgFrameRate@CBaseVideoRenderer@@UAGJPAH@Z
              6C568B75088B86B000000085C07538:
                0. 06 F568 0083 0000:?get_WindowState@CBaseControlWindow@@UAGJPAJ@Z
              7A53566A0457FF15........83F801:
                0. 06 6DC5 0091 0000:_AMGetWideString@8
              7F5356BE040100005657FF15:
                0. 00 0000 0096 0000:?QueryFilterInfo@CBaseFilter@@UAGJPAU_FilterInfo@@@Z
            0AB803400080E9:
              1701000053568B75088D9E68FFFFFF:
                0. 16 E4A9 0131 0000:?Receive@CBaseInputPin@@UAGJPAUIMediaSample@@@Z
              390100006A0457FF15........83F8:
                0. 09 733B 0153 0000:?Receive@CBaseInputPin@@UAGJPAUIMediaSample@@@Z
              8400000053566A0457FF15:
                0. 09 7960 009E 0000:?Clone@CEnumMediaTypes@@UAGJPAPAUIEnumMediaTypes@@@Z
                1. 09 D251 009E 0000:?Clone@CEnumPins@@UAGJPAPAUIEnumPins@@@Z
              930000005356:
                6A0457FF15:
                  0. 09 4E6B 00AD 0000:?GetAllocator@CBaseInputPin@@UAGJPAPAUIMemAllocator@@@Z
                BE080100005657FF15:
                  0. 00 0000 00AD 0000:?QueryPinInfo@CBasePin@@UAGJPAU_PinInfo@@@Z
              9600000053566A0457FF15:
                0. 09 9586 00B0 0000:?GetAllocator@CTransInPlaceInputPin@@UAGJPAPAUIMemAllocator@@@Z
            0F6A0DFF15........33C0E994000000837D1C00568B:
              0. 07 2DEE 00B3 0000:_Dns_RecordBuild_W@28 (0031: 08)
              1. 07 2DEE 00B3 0000:_Dns_RecordBuild_A@28 (0031: 18)
            25397D10741468EA0D000068........68........E8:
              0. 00 0000 00BD 0000:?SetMediaTime@CMediaSample@@UAGJPA_J0@Z
          10:
            0FB7C73BC774086A5758E9D30000008B45148D50018A084084:
              0. CE 36CA 00EE 0000:_RxpStartBuildingTransaction@36
            33:
              C03BF875086A5758E95C030000538B5D083BD8750A6A5789:
                0. 0F D0F5 0376 0000:_NetpTranslateServiceName@12
              C93BF9750F6A57FF15........33C0E9EF000000538B5D14:
                0. 0D 3994 01CB 0000:_Dns_StringCopy@24
            85FF750AB803400080E9D6000000566A0457FF15........83:
              0. 0B 37C7 00F0 0000:?NonDelegatingQueryInterface@CTransformOutputPin@@UAGJABU_GUID@@PAPAX@Z
          1483:
            27008D45145068........6A01FF750868........FF15:
              0. 00 0000 0077 0000:_CreatePosPassThru@16
            3FFF7449538B5D10568B75088B45188B0085C075098B4704:
              0. 19 D5BC 005D 0000:_NetpMoveStrings@20
        FF750C8BF9E8........85C07436837F4400751468C000000068:
          0. 00 0000 004D 0000:?SetFormat@CMediaType@@QAEHPAEK@Z
      5D:
        B9........E9:
          0. 00 0000 000E 0000:?Invoke@?$IDispatchImpl@V?$ITTerminalVtblBase@VCBaseTerminal@@@@$1?IID_ITTerminal@@3U_GUID@@B$1?LIBID_TAPI3Lib@@3U3@B$00$0A@VCComTypeInfoHolder@ATL@@@ATL@@UAGJJABU_GUID@@KGPAUtagDISPPARAMS@@PAUtagVARIANT@@PAUtagEXCEPINFO@@PAI@Z (REF 0005: ?_tih@?$IDispatchImpl@V?$ITTerminalVtblBase@VCBaseTerminal@@@@$1?IID_ITTerminal@@3U_GUID@@B$1?LIBID_TAPI3Lib@@3U3@B$00$0A@VCComTypeInfoHolder@ATL@@@ATL@@1VCComTypeInfoHolder@2@A)
          1. 00 0000 000E 0000:?Invoke@?$IDispatchImpl@UITBasicAudioTerminal@@$1?IID_ITBasicAudioTerminal@@3U_GUID@@B$1?LIBID_TAPI3Lib@@3U3@B$00$0A@VCComTypeInfoHolder@ATL@@@ATL@@UAGJJABU_GUID@@KGPAUtagDISPPARAMS@@PAUtagVARIANT@@PAUtagEXCEPINFO@@PAI@Z (REF 0005: ?_tih@?$IDispatchImpl@UITBasicAudioTerminal@@$1?IID_ITBasicAudioTerminal@@3U_GUID@@B$1?LIBID_TAPI3Lib@@3U3@B$00$0A@VCComTypeInfoHolder@ATL@@@ATL@@1VCComTypeInfoHolder@2@A)
          2. 00 0000 000E 0000:?Invoke@?$IDispatchImpl@UITStaticAudioTerminal@@$1?IID_ITStaticAudioTerminal@@3U_GUID@@B$1?LIBID_TAPI3Lib@@3U3@B$00$0A@VCComTypeInfoHolder@ATL@@@ATL@@UAGJJABU_GUID@@KGPAUtagDISPPARAMS@@PAUtagVARIANT@@PAUtagEXCEPINFO@@PAI@Z (REF 0005: ?_tih@?$IDispatchImpl@UITStaticAudioTerminal@@$1?IID_ITStaticAudioTerminal@@3U_GUID@@B$1?LIBID_TAPI3Lib@@3U3@B$00$0A@VCComTypeInfoHolder@ATL@@@ATL@@1VCComTypeInfoHolder@2@A)
          3. 00 0000 000E 0000:?Invoke@?$IDispatchImpl@UITCollection@@$1?IID_ITCollection@@3U_GUID@@B$1?LIBID_TAPI3Lib@@3U3@B$00$0A@VCComTypeInfoHolder@ATL@@@ATL@@UAGJJABU_GUID@@KGPAUtagDISPPARAMS@@PAUtagVARIANT@@PAUtagEXCEPINFO@@PAI@Z (REF 0005: ?_tih@?$IDispatchImpl@UITCollection@@$1?IID_ITCollection@@3U_GUID@@B$1?LIBID_TAPI3Lib@@3U3@B$00$0A@VCComTypeInfoHolder@ATL@@@ATL@@1VCComTypeInfoHolder@2@A)
          4. 00 0000 000E 0000:?Invoke@?$IDispatchImpl@UITPluggableTerminalSuperclassInfo@@$1?IID_ITPluggableTerminalSuperclassInfo@@3U_GUID@@B$1?LIBID_TAPI3Lib@@3U3@B$00$0A@VCComTypeInfoHolder@ATL@@@ATL@@UAGJJABU_GUID@@KGPAUtagDISPPARAMS@@PAUtagVARIANT@@PAUtagEXCEPINFO@@PAI@Z (REF 0005: ?_tih@?$IDispatchImpl@UITPluggableTerminalSuperclassInfo@@$1?IID_ITPluggableTerminalSuperclassInfo@@3U_GUID@@B$1?LIBID_TAPI3Lib@@3U3@B$00$0A@VCComTypeInfoHolder@ATL@@@ATL@@1VCComTypeInfoHolder@2@A)
          5. 00 0000 000E 0000:?Invoke@?$IDispatchImpl@UITPluggableTerminalClassInfo@@$1?IID_ITPluggableTerminalClassInfo@@3U_GUID@@B$1?LIBID_TAPI3Lib@@3U3@B$00$0A@VCComTypeInfoHolder@ATL@@@ATL@@UAGJJABU_GUID@@KGPAUtagDISPPARAMS@@PAUtagVARIANT@@PAUtagEXCEPINFO@@PAI@Z (REF 0005: ?_tih@?$IDispatchImpl@UITPluggableTerminalClassInfo@@$1?IID_ITPluggableTerminalClassInfo@@3U_GUID@@B$1?LIBID_TAPI3Lib@@3U3@B$00$0A@VCComTypeInfoHolder@ATL@@@ATL@@1VCComTypeInfoHolder@2@A)
        E9:
          0. 00 0000 0009 0000:_GetSubtypeName@4 (REF 0005: _GetSubtypeNameA@4)
          1. 00 0000 0009 (!)0000:? (REF 0005: ?GetNextI@CBaseList@@IBEPAXAAPAU__POSITION@@@Z)
          2. 00 0000 0009 0000:?Get@?$CGenericList@VCDeferredCommand@@@@QBEPAVCDeferredCommand@@PAU__POSITION@@@Z (REF 0005: ?GetI@CBaseList@@IBEPAXPAU__POSITION@@@Z)
          3. 00 0000 0009 0000:?Remove@?$CGenericList@VCDeferredCommand@@@@QAEPAVCDeferredCommand@@PAU__POSITION@@@Z (REF 0005: ?RemoveI@CBaseList@@IAEPAXPAU__POSITION@@@Z)
          4. 00 0000 0009 0000:?AddBefore@?$CGenericList@VCDeferredCommand@@@@QAEPAU__POSITION@@PAU2@PAVCDeferredCommand@@@Z (REF 0005: ?AddBeforeI@CBaseList@@IAEPAU__POSITION@@PAU2@PAX@Z)
          5. 00 0000 0009 0000:?InitAllocator@CBaseOutputPin@@UAEJPAPAUIMemAllocator@@@Z (REF 0005: _CreateMemoryAllocator@4)
          6. 00 0000 0009 0000:?AddTail@?$CGenericList@VCBasePin@@@@QAEHPAV1@@Z (REF 0005: ?AddTail@CBaseList@@QAEHPAV1@@Z)
          7. 00 0000 0009 0000:?Find@?$CGenericList@VCBasePin@@@@QBEPAU__POSITION@@PAVCBasePin@@@Z (REF 0005: ?FindI@CBaseList@@IBEPAU__POSITION@@PAX@Z)
          8. 00 0000 0009 0000:?Set@CMediaType@@QAEJABV1@@Z (REF 0005: ?Set@CMediaType@@QAEJABU_AMMediaType@@@Z)
          9. 00 0000 0009 0000:?CheckRequest@CSourceStream@@IAEHPAW4Command@1@@Z (REF 0005: ?CheckRequest@CAMThread@@QAEHPAK@Z)
        FF25:
          0. 00 0000 000A 0000:?lstrcpyWInternal@@YGPAGPAGPBG@Z (REF 0006: lstrcpyW)
          1. 00 0000 000A 0000:?lstrcpynWInternal@@YGPAGPAGPBGH@Z (REF 0006: lstrcpynW)
          2. 00 0000 000A 0000:?lstrcmpWInternal@@YGHPBG0@Z (REF 0006: lstrcmpW)
          3. 00 0000 000A 0000:?lstrcmpiWInternal@@YGHPBG0@Z (REF 0006: lstrcmpiW)
          4. 00 0000 000A 0000:?lstrlenWInternal@@YGHPBG@Z (REF 0006: lstrlenW)
      66:
        837D:
          0800535657740F8B72348B5A3083622C00E9B50000008B7A288B:
            0. FF 7CF5 0132 (l)0000:_InflateStored@8
          0C2053565773076A02E91B0100008B4D088039FF74076A03E90C:
            0. FF BB5B 0137 0000:_NetpSmbCheck@20
        F7450E302956753C8B75088B86B000000085C0752268D100000068:
          0. 00 0000 0052 0000:?put_WindowStyle@CBaseControlWindow@@UAGJJ@Z
      68:
        00:
          000200FF15........FF35........FF15........837D0C007413:
            0. 0C 8BF4 005B 0000:_auxDrawStrAW@8
          010000FF7508FF750CFF35........FF15........85C0B8:
            0. 00 0000 002A 0000:?StringFromResource@@YGPAGPAGH@Z (REF 0016: LoadStringW)
            1. 00 0000 002A 0000:?StringFromResource@@YGPADPADH@Z (REF 0016: LoadStringA)
          400000FF751CFF7518FF7514FF7510FF750CFF7508E8........5D:
            0. 03 BF22 0023 0000:_NetpAllocateEnumBuffer@24
        FFFF0000683F130000E8........83C40850FF7518FF7514FF7510FF:
          0. 08 15D5 0030 (l)0000:_domain_err
        ........:
          E8........85C074035DFFE0:
            33C05DC2:
              1400:
                0. 00 0000 001A 0000:_SQLInstallDriver@20 (REF 0004: ??_C@_0BB@LMIMCDGA@SQLInstallDriver?$AA@)
                1. 00 0000 001A 0000:_SQLInstallDriverW@20 (REF 0004: ??_C@_0BC@LIPECGOI@SQLInstallDriverW?$AA@)
              1800:
                0. 00 0000 001A 0000:_SQLGetPrivateProfileString@24 (REF 0004: ??_C@_0BL@KBJJEPE@SQLGetPrivateProfileString?$AA@)
                1. 00 0000 001A 0000:_SQLReadFileDSN@24 (REF 0004: ??_C@_0P@CPNMPJKP@SQLReadFileDSN?$AA@)
                2. 00 0000 001A 0000:_SQLGetPrivateProfileStringW@24 (REF 0004: ??_C@_0BM@EPCAOEAC@SQLGetPrivateProfileStringW?$AA@)
                3. 00 0000 001A 0000:_SQLReadFileDSNW@24 (REF 0004: ??_C@_0BA@LDLMKJBD@SQLReadFileDSNW?$AA@)
              1C00:
                0. 00 0000 001A 0000:_SQLConfigDriver@28 (REF 0004: ??_C@_0BA@HPACMNBB@SQLConfigDriver?$AA@)
                1. 00 0000 001A 0000:_SQLInstallDriverEx@28 (REF 0004: ??_C@_0BD@FGCNBKIM@SQLInstallDriverEx?$AA@)
                2. 00 0000 001A 0000:_SQLInstallTranslatorEx@28 (REF 0004: ??_C@_0BH@JPJJPGMA@SQLInstallTranslatorEx?$AA@)
                3. 00 0000 001A 0000:_SQLConfigDriverW@28 (REF 0004: ??_C@_0BB@JPDFOJKM@SQLConfigDriverW?$AA@)
                4. 00 0000 001A 0000:_SQLInstallDriverExW@28 (REF 0004: ??_C@_0BE@BBKCCJIC@SQLInstallDriverExW?$AA@)
                5. 00 0000 001A 0000:_SQLInstallTranslatorExW@28 (REF 0004: ??_C@_0BI@GOABJANF@SQLInstallTranslatorExW?$AA@)
              2000:
                0. 00 0000 001A 0000:_SQLGetTranslator@32 (REF 0004: ??_C@_0BB@NONPILHB@SQLGetTranslator?$AA@)
                1. 00 0000 001A 0000:_SQLInstallTranslator@32 (REF 0004: ??_C@_0BF@MNODFPFH@SQLInstallTranslator?$AA@)
                2. 00 0000 001A 0000:_SQLGetTranslatorW@32 (REF 0004: ??_C@_0BC@NCCGFFLC@SQLGetTranslatorW?$AA@)
                3. 00 0000 001A 0000:_SQLInstallTranslatorW@32 (REF 0004: ??_C@_0BG@DIOMJL@SQLInstallTranslatorW?$AA@)
            6633C05DC21400:
              0. 00 0000 001B 0000:_SQLInstallerError@20 (REF 0004: ??_C@_0BC@DJAFKIEP@SQLInstallerError?$AA@)
              1. 00 0000 001B 0000:_SQLInstallerErrorW@20 (REF 0004: ??_C@_0BD@BDKAJCDK@SQLInstallerErrorW?$AA@)
          FF15........8B4508C705........01000000A3:
            0. 01 3E9B 005E 0000:?DbgInitialise@@YGXPAUHINSTANCE__@@@Z
      6A:
        00FF75:
          08FF712CFF7108FF15........5DC20400:
            0. 00 0000 0018 0000:?DoSetWindowForeground@CBaseWindow@@QAEXH@Z
          10FF750CFF7508E8........83C4108B450C5DC3:
            0. 00 0000 001B 0000:__ultoa
          14FF7510FF750CFF7508E8........8B45105DC3:
            0. 00 0000 001B 0000:__ui64toa
          18FF7514FF7510FF750CFF7508E8........5DC21400:
            0. 00 0000 001D 0000:_CM_Get_Next_Res_Des@20 (REF 0015: _CM_Get_Next_Res_Des_Ex@24)
            1. 00 0000 001D 0000:_CM_Get_Device_Interface_AliasW@20 (REF 0015: _CM_Get_Device_Interface_Alias_ExW@24)
            2. 00 0000 001D 0000:_CM_Get_Device_Interface_ListW@20 (REF 0015: _CM_Get_Device_Interface_List_ExW@24)
            3. 00 0000 001D 0000:_CM_Get_Device_Interface_AliasA@20 (REF 0015: _CM_Get_Device_Interface_Alias_ExA@24)
            4. 00 0000 001D 0000:_CM_Get_Device_Interface_ListA@20 (REF 0015: _CM_Get_Device_Interface_List_ExA@24)
            5. 00 0000 001D 0000:_CM_Set_DevNode_Registry_PropertyW@20 (REF 0015: _CM_Set_DevNode_Registry_Property_ExW@24)
            6. 00 0000 001D 0000:_CM_Set_DevNode_Registry_PropertyA@20 (REF 0015: _CM_Set_DevNode_Registry_Property_ExA@24)
            7. 00 0000 001D 0000:_CM_Query_Arbitrator_Free_Data@20 (REF 0015: _CM_Query_Arbitrator_Free_Data_Ex@24)
            8. 00 0000 001D 0000:_CM_Query_And_Remove_SubTreeW@20 (REF 0015: _CM_Query_And_Remove_SubTree_ExW@24)
            9. 00 0000 001D 0000:_CM_Request_Device_EjectW@20 (REF 0015: _CM_Request_Device_Eject_ExW@24)
            10. 00 0000 001D 0000:_CM_Query_And_Remove_SubTreeA@20 (REF 0015: _CM_Query_And_Remove_SubTree_ExA@24)
            11. 00 0000 001D 0000:_CM_Request_Device_EjectA@20 (REF 0015: _CM_Request_Device_Eject_ExA@24)
          1CFF7518FF7514FF7510FF750CFF7508E8........5DC21800:
            0. 00 0000 0020 0000:_CM_Detect_Resource_Conflict@24 (REF 0018: _CM_Detect_Resource_Conflict_Ex@28)
            1. 00 0000 0020 0000:_CM_Add_Res_Des@24 (REF 0018: _CM_Add_Res_Des_Ex@28)
            2. 00 0000 0020 0000:_CM_Modify_Res_Des@24 (REF 0018: _CM_Modify_Res_Des_Ex@28)
            3. 00 0000 0020 0000:_CM_Register_Device_InterfaceW@24 (REF 0018: _CM_Register_Device_Interface_ExW@28)
            4. 00 0000 0020 0000:_CM_Get_DevNode_Custom_PropertyW@24 (REF 0018: _CM_Get_DevNode_Custom_Property_ExW@28)
            5. 00 0000 0020 0000:_CM_Register_Device_InterfaceA@24 (REF 0018: _CM_Register_Device_Interface_ExA@28)
            6. 00 0000 0020 0000:_CM_Get_DevNode_Custom_PropertyA@24 (REF 0018: _CM_Get_DevNode_Custom_Property_ExA@28)
            7. 00 0000 0020 0000:_CM_Get_DevNode_Registry_PropertyW@24 (REF 0018: _CM_Get_DevNode_Registry_Property_ExW@28)
            8. 00 0000 0020 0000:_CM_Get_DevNode_Registry_PropertyA@24 (REF 0018: _CM_Get_DevNode_Registry_Property_ExA@28)
            9. 00 0000 0020 0000:_CM_Open_DevNode_Key@24 (REF 0018: _CM_Open_DevNode_Key_Ex@28)
            10. 00 0000 0020 0000:_CM_Open_Class_KeyW@24 (REF 0018: _CM_Open_Class_Key_ExW@28)
            11. 00 0000 0020 0000:_CM_Open_Class_KeyA@24 (REF 0018: _CM_Open_Class_Key_ExA@28)
        036A02E8........85C07454565768........6A036A02E8:
          0. 07 0C6F 0068 0000:?DisplayTypeInfo@CBasePin@@IAEXPAUIPin@@PBVCMediaType@@@Z
        08FF7508FF15........8378:
          14007413837D0C7C7513837D10EC750D:
            0. 10 C7BF 0034 0000:?OnReceiveMessage@CBasePropertyPage@@UAEHPAUHWND__@@IIJ@Z
          18007413837D0C7C7513837D10EC750D:
            0. 10 C7BF 0034 0000:?OnReceiveMessage@CBasePropertyPage@@UAEHPAUHWND__@@IIJ@Z
        11FF7514FF7510FF750CFF7508E8........8BE55DC3:
          0. 00 0000 001A 0000:__cabs
        18:
          E8........85C0:
            597414FF750C8BC8FF750868........E8:
              0. 00 0000 0032 0000:?CreateInstance@CSeekingPassThru@@SGPAVCUnknown@@PAUIUnknown@@PAJ@Z
            75056A0258EB:
              298B4D088B1189108B550C895008:
                0. 20 C010 0040 0000:_InsertRange@20
              2B8B4D0C8948048B4D108948088B:
                0. 22 6CA1 0042 0000:_CreateResDesHandle@24
          FF7514FF7510FF750CFF7508E8........8BE55DC3:
            0. 00 0000 001A 0000:__hypot
        70E8........85C0597414FF750C8BC8FF750868........E8:
          0. 00 0000 0029 0000:?CreateInstance@CSystemClock@@SGPAVCUnknown@@PAUIUnknown@@PAJ@Z
        74E8........85C0597414FF750C8BC8FF750868........E8:
          0. 00 0000 0029 0000:?CreateInstance@CMemAllocator@@SGPAVCUnknown@@PAUIUnknown@@PAJ@Z
        F0583B45081BC0F7D85DC20400:
          0. 00 0000 0011 0000:?IsSpecialSample@COutputQueue@@IAEHPAUIMediaSample@@@Z
        FF:
          68........68........64A1........50648925........515151:
            0. 3B 15D8 0066 0000:__rt_probe_read4@4
          FF7508FF15........85C0742783F8FF741B68D211000068:
            0. 00 0000 003F 0000:?WaitEvent@CDynamicOutputPin@@KGJPAX@Z
      80:
        387A7510FF7508FF15........598D440002EB0F6A028D4D08515089:
          0. 03 815C 002B (l)0000:_RxpGetFieldSize@8
        3D........00:
          7422FF15........8BC82B0D........81F9E8030000:
            0. 05 8E97 0070 0000:?DbgCheckModuleLevel@@YGHKK@Z
          7511E8........A2........C605........01803D:
            0. 00 0000 0031 0000:?CompatibleTimeSetEvent@@YGIIIP6GXIIKKK@ZKI@Z
      81:
        7C240C0000F07F750D837D08007507B801000000EB49817D0C0000F0:
          0. 45 F7FF 0065 0000:__sptype
        7D:
          08000000805657751133FF897D08C705........01000000EB0A83:
            0. 01 D786 0069 0000:_tkInitPosition@16
          0C:
            10010000568B7508578B7D147511576A0856FF15........85FF:
              0. 0A 0824 004C 0000:?DialogProc@CBasePropertyPage@@KGHPAUHWND__@@IIJ@Z
              1. 0A A434 004C 0000:?DialogProc@CBasePropertyPage@@KGHPAUHWND__@@IIJ@Z
            FFFFFF7F76:
              07B8570007805DC38D451450FF7510FF750CFF7508:
                0. 01 3E9B 0027 0000:?StringCchPrintfA@@YAJPADIPBDZZ (REF 0021: ?StringVPrintfWorkerA@@YGJPADIPBD0@Z)
                1. 01 3E9B 0027 0000:?StringCchPrintfW@@YAJPAGIPBGZZ (REF 0021: ?StringVPrintfWorkerW@@YGJPAGIPBGPAD@Z)
                2. 01 3E9B 0027 0000:_StringCchPrintfW (REF 0021: _StringVPrintfWorkerW@16)
              09B8570007805DC210005DE9:
                0. 00 0000 001B 0000:?StringCchVPrintfA@@YGJPADIPBD0@Z
        C460FDFFFF539BD9BD5CFFFFFF9B833D........007414E8:
          0. 02 90C6 024D (!)0000:? (l!)001B:? (l!)002F:? (!)003E:? (l!)0058:? (l!)006C:? (!)0074:? (l!)00AE:? (l!)00B5:? (l!)00E8:? (l!)010A:? (l!)0112:? (l!)0129:? (l!)0157:? (l!)0183:? (l!)01B5:? (l!)01DB:? (!)01E5:? (!)0211:? (l!)0247:? (l!)024A:? (022A: C3)
          1. 02 90C6 0262 (!)0000:? (l!)001B:? (l!)002F:? (!)003E:? (l!)0058:? (l!)006C:? (!)0074:? (l!)00AE:? (l!)00B5:? (l!)00E8:? (l!)010D:? (l!)0115:? (l!)012C:? (l!)013E:? (l!)016C:? (l!)0198:? (l!)01CA:? (l!)01F0:? (!)01FA:? (!)0226:? (l!)025C:? (l!)025F:? (022A: 08)
        EC:
          00:
            0100008D450C50FF75088D8500FFFFFF50E8........83C40C80:
              0. 01 1E1A 0045 0000:_PrintMessage
            020000:
              568B750C85F67507B803400080EB:
                62578B7D08FF77208D:
                  0. 07 40BF 007F 0000:?GetPageInfo@CBasePropertyPage@@UAGJPAUtagPROPPAGEINFO@@@Z
                7B578B7D08FF77248D:
                  0. 07 40BF 0098 0000:?GetPageInfo@CBasePropertyPage@@UAGJPAUtagPROPPAGEINFO@@@Z
              837D0C007507B803400080EB:
                3E8B4D088B819400000085:
                  0. 21 064A 0058 0000:?get_Caption@CBaseControlWindow@@UAGJPAPAG@Z
                47568B75088B86B0000000:
                  0. 0A D63A 006E 0000:?get_Caption@CBaseControlWindow@@UAGJPAPAG@Z
            080000:
              68000400008D8500F8FFFF50FF35........FF15:
                0. 00 0000 004E 0000:?DbgInitModuleName@@YGXXZ
              803D........007410FF7510FF750CFF7508E8:
                0. 12 926C 007A (!)0000:?
          04:
            010000:
              535657688C000000E8........8BF033DB3BF359752938:
                0. 01 1C3B 02DF 0000:_RawImageOpenAW@8
              A1........:
                53FF75188B5D14FF75108945FC8D4306506A:
                  0. 0D 552C 00C0 0000:_Srv_RecordRead@20
                56:
                  578945FC6A3F33C0C685FCFEFFFF00598D:
                    0. 32 4971 0064 0000:_DnssrvMatchDnsRpcName@8
                  8B75148945FC33C0668B065750FF15:
                    0. 00 0000 00A6 0000:_Mx_RecordRead@20
                  FF75188B7514FF75108945FC8D460C506A:
                    0. 0D 552C 00B9 0000:_Winsr_RecordRead@20
              FF7518A1........FF75108D5512FF75148D8DFCFEFFFF:
                0. 08 368D 008C 0000:_Ptr_RecordRead@20
            020000:
              837D:
                0C00A1........8945FC7427837D10007421837D18:
                  0. 16 CEF1 006D 0000:_Dns_CreatePtrRecordExEx@24
                1400A1........8945FC752B8B4D2085C9B8:
                  0. 00 0000 0099 0000:_DnsPrint_PacketName@28
              A1........:
                53568B75185756FF751033FFFF75148D551A:
                  0. 0C E816 00E3 0000:_Minfo_RecordRead@20
                5733FF397D108945FC0F8495000000397D08:
                  0. 0C A776 00C2 0000:_MakeKerberosName@16
              FF7510A1........FF750C8945FC8D85FCFDFFFF50E8:
                0. 00 0000 00C3 0000:_DnssrvSbsDeleteRecord@28
            040000A1........:
              538B5D0C578B7D083BFB8945FC750833C040:
                0. 10 5B62 00B5 0000:_Dns_NameCompare_UTF8@8
              568B75085733FF85F68945FC0F8495000000:
                0. 06 BC05 00E4 0000:_Dns_CreateStandardDnsNameCopy@12
              6683A5FCFBFFFF00568B750C578945FC33C0:
                0. 18 A7A5 007F 0000:_Dns_MakeCanonicalNameInPlaceW@8
            080000:
              535657BF........57FF15........A1........BE:
                0. 00 0000 00E2 0000:?DbgDumpObjectRegister@@YGXXZ
              56:
                68........FF35........8D85FCF7FFFF68:
                  0. 03 C3FD 0083 0000:?DbgInitModuleSettings@@YGX_N@Z
                FF35........8D85FCF7FFFFFF35........68:
                  0. 00 0000 007C 0000:?DbgInitGlobalSettings@@YGX_N@Z
              83:
                3D........FF74475657FF7508FF15........33F656:
                  0. 18 D613 0066 0000:?DbgOutString@@YGXPBG@Z
                7D0800A1........8945FC8D85FCF7FFFF7418FF7508:
                  0. 01 361F 00B6 (l)0000:?getEnumerator@@YGJPADPAPAUIEnumWbemClassObject@@@Z
          08:
            010000837D08:
              00A1........8945FCC785F8FEFFFF0001000074:
                0. 06 4483 0071 0000:_Dns_ValidateDnsString_W@4
              02A1........8945FC740F6A0DFF15........33:
                0. 0A 6A79 012C 0000:_Atma_RecordBuildW@8
            020000A1........:
              53568B75185756FF751033DBFF75148D551A:
                0. 0C CB4D 0114 0000:_Soa_RecordRead@20
              8945FC8B450833C93BC17405663908750433:
                0. 15 DA56 004A 0000:_NetpIsUserNameValid@4
                1. 15 EB42 004A 0000:_NetpIsGroupNameValid@4
            030000A1........:
              5356578945FC33FFFF15........FF750C8B:
                0. 01 5696 00B1 0000:_privateFormatAndPrintBuffer@8
              8945FC8D450C50FF75088D85F8FCFFFF6800:
                0. 06 FDC0 0048 0000:_DnsDbg_PrintfToDebugger
            040000A1........5333DB395D08568945FC570F847701000039:
              0. 2B A34A 01A8 0000:_Dns_NameCompareEx@16
            0600008B450C5333DB4383E80056881D........7463480F850E:
              0. 09 34EF 0140 0000:_DllEntryPoint@12
          0C:
            010000:
              53568B75088B8E480200008D9DF7FEFFFF83E3FC33C081:
                0. 45 5865 00B4 0000:_lzx_output_block_callback
              A1........:
                53565733DB5383EC4C6A13598BFC8D750889:
                  0. 05 4F11 010B 0000:_Dns_FindOrCreateSecurityContext@76
                6A026A036A00FF75088945FC8D85F4FEFFFF:
                  0. 13 92AA 005B 0000:_Dns_ValidateName_A@8
            020000A1........:
              538945FC8B45085633F63BC674:
                4B66393074:
                  0. 17 25B4 007A 0000:_RxNetAccessDel@8
                6266393074:
                  0. 28 5453 0091 0000:_RxNetAccessGetUserPerms@16
              8945FC8B450833C93BC1:
                560F849100000066:
                  0. 41 07BA 00C2 0000:_RxNetAccessSetInfo@20
                7405663908750433:
                  0. 15 7DD9 004A 0000:_NetpIsComputerNameValid@4
                  1. 15 CB2F 004A 0000:_NetpIsPrintQueueNameValid@4
              FF750C8945FCFF15........598B0D:
                0. 00 0000 0112 0000:_Dns_Ip6LiteralNameToAddress@8
            0400008B5514F7C2FEFFFF7FA1........8945FC5374086A5758:
              0. 19 0E72 01CD 0000:_NetpwNameCompare@16
          10:
            0100008365F80053568B7508578D866E05000050BB0001000053:
              0. 08 DF01 0523 0000:_FlushCab@20
            020000:
              53565733C033DB66899DF0FDFFFFB9810000008DBDF2FD:
                0. 17 024D 0177 0000:?DbgInitLogTo@@YGXPAUHKEY__@@@Z
              566A036A028BF1E8........85C00F84A5000000578D95:
                0. 12 8022 00C7 0000:?DisplayPinInfo@CBasePin@@IAEXPAUIPin@@@Z
              A1........538B5D1485DB8945FC568B75108D85F4FDFF:
                0. 1D A29A 0137 0000:_Dns_Utf8ToOrFromAnsi@24
            050000538B5E28578B7E246A055AEB2E8B46188B4E143BC1730D:
              0. F3 5427 045D (l)0000:_InflateDynamic@4
          14:
            0100008D85ECFEFFFF50C785ECFEFFFF14010000FF15:
              0. 1E E761 003E 0000:?TimeKillSynchronousFlagAvailable@@YG_NXZ
            020000A1........:
              53568B35........57FF75088945FCFFD6FF:
                0. 21 7B45 0107 0000:_CompareOemNames@12
              568B35........57FF750C33FFFF75088945:
                0. 29 19FE 00B7 0000:_RegDeleteNode@8
              83A5F0FDFFFF005356578B7D1485FF8945FC:
                0. 3B 94C9 013D 0000:_RxNetAccessAdd@16
            030000535657BF04010000578D85F4FEFFFF50FF35........33:
              0. 03 CD24 0117 0000:_AMovieDllRegisterServer@0
          18:
            020000:
              535633F63935........578B7D08BB010200000F860501:
                0. 04 CCE4 01C4 0000:?LogPrint@@YAXKPBDZZ
              568BF18D460489068B450885C05774368B088D95E8FDFF:
                0. 30 50FB 00B1 0000:??0CDisp@@QAE@PAUIPin@@@Z
              FF750CFF15........85C075:
                07B805400080EB71568D45:
                  0. 12 5CFF 0092 0000:_EliminateSubKey@8
                0AB805400080E9A2000000:
                  0. 15 6954 00C6 0000:_EliminateSubKey@8
            030000:
              53565768........6A025F5757E8........68:
                0. 03 933C 021E 0000:_AMovieDllRegisterServer2@4
              56BE04010000568D85F0FEFFFF50FF35........FF15:
                0. 00 0000 0149 0000:_AMovieDllRegisterServer2@4
            040000A1........538B1D........5633F6397508578B3D:
              0. 00 0000 013F 0000:_CanonicalizePathName@20
          1C:
            020000A1........8945FC8B45085333DB3BC30F84F800000066:
              0. 4E 8E1D 0129 0000:_RxNetAccessEnum@36
            040000A1........8945FC68050100008D85F0FDFFFF50FF15:
              0. 00 0000 0183 0000:_NetpOpenDebugFile@4
          200800008B4518568B751089308B451C85C074058B4D1489088BC6:
            0. B6 9726 021B 0000:_split_block@24
          24050000A1........85C07528E8........85C0A3........751A:
            0. 03 D319 00C0 0000:_ODBC___GetSetupProc@4
          34020000:
            A1........56FF75:
              1433F6568945FC568D85CCFDFFFF50:
                0. 01 3E9B 005D 0000:_DnssrvDeleteNsRecord@16 (000E: 02)
                1. 01 3E9B 005D 0000:_DnssrvDeleteCnameRecord@16 (000E: 05)
              1833F6568945FC568D85CCFDFFFF50:
                0. 01 3E9B 0068 0000:_DnssrvDeleteMxRecord@20
            FF75:
              14A1........33D2528945FC528D85CCFDFFFF50E8:
                0. 00 0000 0065 0000:_DnssrvDeleteARecord@16
              1CA1........FF75188945FCFF75148D85CCFDFFFF:
                0. 02 F6B7 0069 0000:_DnssrvAddARecord@24 (000E: C0)
                1. 02 F6B7 005F 0000:_DnssrvAddNsRecord@24 (000E: 02)
                2. 02 F6B7 005F 0000:_DnssrvAddCnameRecord@24 (000E: 05)
              20A1........FF751C8945FCFF75188D85CCFDFFFF:
                0. 02 F6B7 006A 0000:_DnssrvAddMxRecord@28
          40020000538B5D08568B750C57FF751C33FFFF7518897DFC56897D:
            0. 13 E70F 0848 0000:_AddFolderToCabinet@24
          4802000053568B750C5733FF8A1E4684DB897DF0897DEC89750C0F:
            0. 34 D1AE 07A3 0000:__output (l)01F4:$NORMAL_STATE$685 (l)0476:$COMMON_HEX$777 (l)04A5:$COMMON_INT$773
          500400008B4D0C535657668B196A025A33F603CA663BDE8975F489:
            0. 32 9ACB 07C6 0000:__woutput (l)01FE:$NORMAL_STATE$741 (l)0480:$COMMON_HEX$832 (l)04AF:$COMMON_INT$828
          54:
            010000A1........FF750C8945FC8D852CFFFFFF50E8:
              0. 13 36B0 0096 0000:_Ip6_McastCreate@8
            020000538B450C5633DB57895DE08A00895DC88845F7FF450C3A:
              0. 2A 8317 086E 0000:__output (l)01AE:$NORMAL_STATE$678 (l)0405:$COMMON_HEX$768 (l)0427:$COMMON_INT$764
          58:
            020000:
              56576A278D45B0508D450850FF15........85C0BF:
                0. 00 0000 0077 0000:_AMovieSetupUnregisterServer@16
              6A278D45B0508D450850FF15........8D45B0508D85A8:
                0. 04 07D6 0049 0000:_AMovieSetupUnregisterServer@16
            040000538B450C5633DB57895DE0668B00895DC483450C026689:
              0. 32 6EAE 07F6 0000:__woutput (l)019D:$NORMAL_STATE$725 (l)03A2:$COMMON_HEX$811 (l)03C7:$COMMON_INT$807
          60020000:
            53566A278D45A8508D450850FF15........8B35:
              0. 00 0000 0191 0000:_AMovieSetupRegisterServer@32
            6A278D45A8508D450850FF15........85C07D116A7F68:
              0. 00 0000 01A6 0000:_AMovieSetupRegisterServer@32
          64020000568B750885F60F84FD01000053578B7D0C5668:
            0. 06 CE47 0217 0000:?DumpGraph@@YGXPAUIFilterGraph@@K@Z
          6807000053565768050100008D85B0FCFFFF50FF15........FF35:
            0. 00 0000 0286 (l)0000:_LoadProperSetupDLL@0
          6C010000A1........5356578945FC8D459C898598FEFFFF6A1033:
            0. 1F ABF0 0185 0000:_NetpCheckNetBiosNameNotInUse@12
          7001000056578B7D088BF18D4D08518D460468........89068B07:
            0. 31 F42F 00B7 0000:??0CDisp@@QAE@PAUIUnknown@@@Z
          7C020000A1........53568B750C33C983FE018945FC57898DBCFD:
            0. 2D 050F 03EC 0000:_RxNetUserAdd@16
          84:
            000000:
              837D:
                1000A1........8945FC7507C74510........568B:
                  0. 07 49A2 007F 0000:_DnsPrint_ResultsBasic@16 (0057: 00)
                  1. 07 49A2 00A2 0000:_DnsPrint_ResultBlob@16 (0057: 11)
                1400A1........8945FC7507C74514........5657:
                  0. 08 3C71 00AC 0000:_DnsPrint_DnsAddrArray@20
              A1........:
                538945FC8B451033DB3BC35657895D94740C:
                  0. 01 E967 024A 0000:_Dns_StartDebugEx@32
                56:
                  578B7D1085FF8945FC7505BF........8B:
                    0. 08 9850 00F0 0000:_DnsPrint_AdapterInfo@16
                    1. 07 EF05 0077 0000:_DnsPrint_DnsAddrLine@20
                  8B750C8945FC568D857CFFFFFF50E8:
                    0. 00 0000 005C 0000:_DnsAddr_WriteStructString_A@8
            040000576A08586A70B9900000008DBD7CFBFFFFF3AB596A095A:
              0. 23 9B6F 00BC (l)0000:_InitFixed@0
            0C00008B827008000083C0208BC8C1E10381F920030000894DFC:
              0. FF 5696 0288 (l)0000:_return_difference@24
          88000000535657:
            33F668........4656568BD9E8........83C40C:
              0. 07 BDB6 0278 0000:?DisplayRendererState@CBaseRenderer@@QAEXXZ
            8B7D08:
              33D23BFA0F84D3000000803F4375323857:
                0. 33 D1E3 0181 0000:__expandlocale
              85FF750733C0E96F010000803F43753633:
                0. 36 B269 0190 0000:__expandlocale
          8C0000008B450853565733FF3BC70F8C2602000083F8050F8F1D02:
            0. 10 CADE 0246 0000:_setlocale
          94:
            000000817D088E0000C0535657742B817D088F0000C07422817D:
              0. 9F 76C7 067F 0000:__fpieee_flt
            010000A1........:
              538B5D1456578B7D1033C98945FC8B450C66:
                0. 1F 0B33 006A 0000:_SplitDeviceInstanceString@16
              5633F6837D08038945FC73046A0DEB54576A:
                0. 0F 92BA 008B 0000:_Wks_RecordBuildW@8
          98010000:
            837D0C00A1........8945FCC78568FEFFFFC800000074:
              0. 1F 3C4F 0073 0000:_CM_Enumerate_Enumerators_ExA@20
            A1........:
              5333DB837D08038945FC730F6A0DFF15:
                0. 00 0000 0142 0000:_Wks_RecordBuild@8
              83A568FEFFFF00837D0C00568945FC577465:
                0. 1E FA72 0096 0000:_CM_Get_Device_ID_ExA@20
          A0:
            00000053568B7508578D45E456508D45E8508D8560FFFFFF50FF:
              0. 03 4FBD 011B (l)0000:__setlocale_set_cat
            0F0000:
              8D451450FF75108D8560F0FFFF68D007000050FF15:
                0. 00 0000 004F 0000:?DbgBreakPoint@@YAXPBGH0ZZ
              FF750CFF7508E8........85C00F848C0000005668:
                0. 00 0000 00AA 0000:?DbgLogInfo@@YAXKKPBGZZ
          A8:
            000000:
              53568B750C668B06663D7F007607B8060100C0EB660FB7:
                0. 0C 66F9 008C 0000:_LsaLookupAuthenticationPackage@12
              568B750C668B06663D7F007607B8060100C0EB6D0FB7C0:
                0. 09 7DD4 008F 0000:_LsaLookupAuthenticationPackage@12
              66C78558FFFFFF0800568D8558FFFFFF5733F65089B55C:
                0. 1C A668 007B 0000:_LsaDeregisterLogonProcess@4
              8B45:
                0C83A55CFFFFFF00898578FFFFFF8B451089857CFF:
                  0. 37 0E51 008D 0000:_LsaCallAuthenticationPackage@28
                14568945848B45188945888B451C89458C8B450C8B:
                  0. 6C 0427 00E9 0000:_LsaLogonUser@56
              8D8558FFFFFF5683A55CFFFFFF00508D8558FFFFFFC785:
                0. 20 5EBB 007B 0000:_LsaDeregisterLogonProcess@4
              A1........8945FC8B450833C93BC17405663908750433:
                0. 15 8C64 004A 0000:_NetpIsShareNameValid@4
            010000A1........83A55CFEFFFF00568945FC57EB556683BD5C:
              0. 38 1777 00A1 (l)0000:_NetpIssueCallWithRetries@8
          B0:
            000000:
              538D4DDC568D55E8578D8550FFFFFFFF7508515250FF75:
                0. 02 A1CD 0134 (l)0000:__setlocale_set_cat
              A1........8945FC8D8550FFFFFF50FF15........85C0:
                0. 2D 2695 0055 0000:_NetpRotateLogonHoursPhase1@8
            010000DD05........53DD9550FEFFFF56D9EE57DD9D58FEFFFF:
              0. FF 6890 0273 0000:_drawbox@52
          B4:
            010000A1........535633F6578945FC89B554FEFFFF89B54CFE:
              0. 09 5010 0265 0000:_DnsPrint_RpcZoneInfo@16
            020000A1........53568945FC8D8588FDFFFF5068000000806A:
              0. 03 D3B8 0120 0000:_GetLanmanSessionKey@8
          B8010000A1........5333DB66395D148945FC895DDC74058B4510:
            0. 27 DE4C 022E 0000:_DosGetMessage@28
          C00F0000A1........8365E0008365E40053568B7508578945FCBF:
            0. 53 EADC 00E5 0000:_Dns_CreateIpArrayFromMultiIpString@8
          C4:
            000000:
              53:
                33DB53895DFC895DF4E8........3BC30F8580020000:
                  0. 20 A48D 02A5 0000:_Dns_DoSecureUpdate@36
                56576A0559BE........8D7DA0F3A566A56A0559BE:
                  0. 00 0000 01E9 0000:?MSPLogRegister@@YGHPBG@Z
              833D........00A1........8945FC75056A0458EB768B:
                0. 61 A069 00A1 0000:_SapRemoveAdvertise@8
            0100008065EA008365F8008365C80053568B750C578A0684C00F:
              0. 0A AD70 0A8B 0000:__input (l)0191:$DEFAULT_LABEL$692 (l)0271:$f_incwidth$832 (l)0398:$f_incwidth2$847 (l)0470:$x_incwidth$759 (l)0514:$scanit2$715 (l)06CB:$d_incwidth$774 (l)06ED:$getnum$770 (l)092E:$assign_num$821 (l)09F4:$error_return$735
          C8:
            000000:
              5356:
                578B750866833E7F760AB8060100C0E9ED00000068:
                  0. 00 0000 0115 0000:_LsaRegisterLogonProcess@12
                8B:
                  35........578D45C468........50FFD68D45C4:
                    0. 2B D351 00CF 0000:_LsaConnectUntrusted@4
                  75085766833E7F760AB8060100C0E9EF0000008B:
                    0. 01 1E1A 0115 0000:_LsaRegisterLogonProcess@12
              568D45C45733F668........50FF15........8D45C489:
                0. 28 9F52 00D7 0000:_LsaConnectUntrusted@4
              8B4508538B5D0C83230056578D70018A084084C975F92B:
                0. 09 73B8 00B4 0000:_Dns_CreateTypeArrayFromMultiTypeString@12
            010000C645FB00C745F000000000C745C0000000005356578B75:
              0. 10 B8EB 0AF4 0000:__input (l)011E:$DEFAULT_LABEL$678 (l)028A:$f_incwidth$818 (l)03B9:$f_incwidth2$833 (l)04C5:$scanit2$701 (l)06A6:$d_incwidth$760 (l)06D4:$x_incwidth$745 (l)0757:$getnum$756 (l)09E1:$assign_num$807 (l)0A89:$error_return$721
          D8:
            00000053:
              33DB391D........741168........6802000800E8:
                0. 00 0000 0318 0000:?get_DynamicTerminalClasses@CMSPAddress@@UAGJPAUtagVARIANT@@@Z
              5657FF750833FF897DFCC745C020020000C745C42102:
                0. 26 4427 027F 0000:_NetpManageLocalGroups@8
            070000A1........535633DB8945FC899D28F8FFFF8DB52CF8FF:
              0. 02 C19B 00E8 0000:_DnsPrint_RawOctets@24
          E4070000A1........535633F6578945FC89B520F8FFFFE8:
            0. 00 0000 01CD 0000:_DnsPrint_RawBinary@28
          F800000053568B750C5783FE02725F837D100074598365FC004E0F:
            0. 2F 1FE9 0148 0000:_qsort (l)0037:$recurse$219
      83:
        3900568BC174118B55088B303BF274218D461C83380075F268AF1300:
          0. 02 09E0 0043 0000:?Remove@CSampleList@CBaseAllocator@@QAEXPAVCMediaSample@@@Z
        3D........:
          00:
            538B5D0C56577419FF7514FF75105368........6802:
              0. 04 5A51 00A8 0000:?CreateStream@CMSPCallBase@@UAGJJW4TERMINAL_DIRECTION@@PAPAUITStream@@@Z
            74:
              116A008D450850FF75086A61FF15........5DC204:
                0. 01 78F0 0021 (l)0000:_HogMachine@4
              15FF7508FF35........FF35........FF15:
                0. 00 0000 0025 0000:?PerflogTraceEvent@@YGXPAU_EVENT_TRACE_HEADER@@@Z
              208B45083B05........7615FF750CFF35:
                0. 02 A996 0030 0000:?PerflogTraceEventLevel@@YGXKPAU_EVENT_TRACE_HEADER@@@Z
            75:
              1E68........68........E8........85C0740B83:
                0. 01 9D2B 003E 0000:_phoneGetDevCapsA@20 (0017: 90) (REF 0005: ?lpfn@?1??phoneGetDevCapsA@@9@9)
                1. 01 9D2B 003E 0000:_phoneSetDisplay@20 (0017: 90) (REF 0005: ?lpfn@?1??phoneSetDisplay@@9@9)
                2. 01 9D2B 003E 0000:_phoneGetDevCaps@20 (0017: 90) (REF 0005: ?lpfn@?1??phoneGetDevCaps@@9@9)
                3. 01 9D2B 003E 0000:_phoneGetDevCapsW@20 (0017: 90) (REF 0005: ?lpfn@?1??phoneGetDevCapsW@@9@9)
                4. 01 9D2B 003E 0000:_phoneInitialize@20 (0017: 90) (REF 0005: ?lpfn@?1??phoneInitialize@@9@9)
                5. 01 9D2B 003E 0000:_lineGetAddressIDW@20 (0017: 80) (REF 0005: ?lpfn@?1??lineGetAddressIDW@@9@9)
                6. 01 9D2B 003E 0000:_lineGetAddressIDA@20 (0017: 80) (REF 0005: ?lpfn@?1??lineGetAddressIDA@@9@9)
                7. 01 9D2B 003E 0000:_lineGetAddressID@20 (0017: 80) (REF 0005: ?lpfn@?1??lineGetAddressID@@9@9)
                8. 01 9D2B 003E 0000:_linePickupW@20 (0017: 80) (REF 0005: ?lpfn@?1??linePickupW@@9@9)
                9. 01 9D2B 003E 0000:_linePickupA@20 (0017: 80) (REF 0005: ?lpfn@?1??linePickupA@@9@9)
                10. 01 9D2B 003E 0000:_linePickup@20 (0017: 80) (REF 0005: ?lpfn@?1??linePickup@@9@9)
                11. 01 9D2B 003E 0000:_lineTranslateDialog@20 (0017: 80) (REF 0005: ?lpfn@?1??lineTranslateDialog@@9@9)
                12. 01 9D2B 003E 0000:_lineTranslateDialogA@20 (0017: 80) (REF 0005: ?lpfn@?1??lineTranslateDialogA@@9@9)
                13. 01 9D2B 003E 0000:_lineAgentSpecific@20 (0017: 80) (REF 0005: ?lpfn@?1??lineAgentSpecific@@9@9)
                14. 01 9D2B 003E 0000:_lineMakeCallW@20 (0017: 80) (REF 0005: ?lpfn@?1??lineMakeCallW@@9@9)
                15. 01 9D2B 003E 0000:_lineMakeCallA@20 (0017: 80) (REF 0005: ?lpfn@?1??lineMakeCallA@@9@9)
                16. 01 9D2B 003E 0000:_lineMakeCall@20 (0017: 80) (REF 0005: ?lpfn@?1??lineMakeCall@@9@9)
                17. 01 9D2B 003E 0000:_lineTranslateDialogW@20 (0017: 80) (REF 0005: ?lpfn@?1??lineTranslateDialogW@@9@9)
                18. 01 9D2B 003E 0000:_lineInitialize@20 (0017: 80) (REF 0005: ?lpfn@?1??lineInitialize@@9@9)
                19. 01 9D2B 003E 0000:_lineDevSpecific@20 (0017: 80) (REF 0005: ?lpfn@?1??lineDevSpecific@@9@9)
                20. 01 9D2B 003E 0000:_lineGetDevCaps@20 (0017: 80) (REF 0005: ?lpfn@?1??lineGetDevCaps@@9@9)
                21. 01 9D2B 003E 0000:_lineGetDevCapsA@20 (0017: 80) (REF 0005: ?lpfn@?1??lineGetDevCapsA@@9@9)
                22. 01 9D2B 003E 0000:_lineGetDevCapsW@20 (0017: 80) (REF 0005: ?lpfn@?1??lineGetDevCapsW@@9@9)
                23. 01 9D2B 003E 0000:_lineGetAgentCapsA@20 (0017: 80) (REF 0005: ?lpfn@?1??lineGetAgentCapsA@@9@9)
                24. 01 9D2B 003E 0000:_lineSetCallParams@20 (0017: 80) (REF 0005: ?lpfn@?1??lineSetCallParams@@9@9)
                25. 01 9D2B 003E 0000:_lineSetCallQualityOfService@20 (0017: 80) (REF 0005: ?lpfn@?1??lineSetCallQualityOfService@@9@9)
                26. 01 9D2B 003E 0000:_lineGetAgentCapsW@20 (0017: 80) (REF 0005: ?lpfn@?1??lineGetAgentCapsW@@9@9)
                27. 01 9D2B 003E 0000:_lineGenerateTone@20 (0017: 80) (REF 0005: ?lpfn@?1??lineGenerateTone@@9@9)
                28. 01 9D2B 003E 0000:_phoneNegotiateExtVersion@24 (0007: 18) (REF 0005: ?lpfn@?1??phoneNegotiateExtVersion@@9@9)
                29. 01 9D2B 003E 0000:_phoneNegotiateAPIVersion@24 (0007: 18) (REF 0005: ?lpfn@?1??phoneNegotiateAPIVersion@@9@9)
                30. 01 9D2B 003E 0000:_lineSetupConference@24 (0007: 18) (REF 0005: ?lpfn@?1??lineSetupConference@@9@9)
                31. 01 9D2B 003E 0000:_lineSetupConferenceA@24 (0007: 18) (REF 0005: ?lpfn@?1??lineSetupConferenceA@@9@9)
                32. 01 9D2B 003E 0000:_lineSetAppPriorityW@24 (0007: 18) (REF 0005: ?lpfn@?1??lineSetAppPriorityW@@9@9)
                33. 01 9D2B 003E 0000:_lineSetAppPriorityA@24 (0007: 18) (REF 0005: ?lpfn@?1??lineSetAppPriorityA@@9@9)
                34. 01 9D2B 003E 0000:_lineSetAppPriority@24 (0007: 18) (REF 0005: ?lpfn@?1??lineSetAppPriority@@9@9)
                35. 01 9D2B 003E 0000:_lineProxyMessage@24 (0007: 18) (REF 0005: ?lpfn@?1??lineProxyMessage@@9@9)
                36. 01 9D2B 003E 0000:_lineSetupConferenceW@24 (0007: 18) (REF 0005: ?lpfn@?1??lineSetupConferenceW@@9@9)
                37. 01 9D2B 003E 0000:_lineNegotiateExtVersion@24 (0007: 18) (REF 0005: ?lpfn@?1??lineNegotiateExtVersion@@9@9)
                38. 01 9D2B 003E 0000:_lineGetIDW@24 (0007: 18) (REF 0005: ?lpfn@?1??lineGetIDW@@9@9)
                39. 01 9D2B 003E 0000:_lineGetIDA@24 (0007: 18) (REF 0005: ?lpfn@?1??lineGetIDA@@9@9)
                40. 01 9D2B 003E 0000:_lineGetID@24 (0007: 18) (REF 0005: ?lpfn@?1??lineGetID@@9@9)
                41. 01 9D2B 003E 0000:_lineGetAppPriorityW@24 (0007: 18) (REF 0005: ?lpfn@?1??lineGetAppPriorityW@@9@9)
                42. 01 9D2B 003E 0000:_lineGetAppPriorityA@24 (0007: 18) (REF 0005: ?lpfn@?1??lineGetAppPriorityA@@9@9)
                43. 01 9D2B 003E 0000:_lineGetAppPriority@24 (0007: 18) (REF 0005: ?lpfn@?1??lineGetAppPriority@@9@9)
                44. 01 9D2B 003E 0000:_lineGetAddressCapsW@24 (0007: 18) (REF 0005: ?lpfn@?1??lineGetAddressCapsW@@9@9)
                45. 01 9D2B 003E 0000:_lineGetAddressCapsA@24 (0007: 18) (REF 0005: ?lpfn@?1??lineGetAddressCapsA@@9@9)
                46. 01 9D2B 003E 0000:_lineGetAddressCaps@24 (0007: 18) (REF 0005: ?lpfn@?1??lineGetAddressCaps@@9@9)
                47. 01 9D2B 003E 0000:_lineCreateAgentSessionW@24 (0007: 18) (REF 0005: ?lpfn@?1??lineCreateAgentSessionW@@9@9)
                48. 01 9D2B 003E 0000:_lineCreateAgentSessionA@24 (0007: 18) (REF 0005: ?lpfn@?1??lineCreateAgentSessionA@@9@9)
                49. 01 9D2B 003E 0000:_lineConfigDialogEditW@24 (0007: 18) (REF 0005: ?lpfn@?1??lineConfigDialogEditW@@9@9)
                50. 01 9D2B 003E 0000:_lineConfigDialogEditA@24 (0007: 18) (REF 0005: ?lpfn@?1??lineConfigDialogEditA@@9@9)
                51. 01 9D2B 003E 0000:_lineConfigDialogEdit@24 (0007: 18) (REF 0005: ?lpfn@?1??lineConfigDialogEdit@@9@9)
                52. 01 9D2B 003E 0000:_lineNegotiateAPIVersion@24 (0007: 18) (REF 0005: ?lpfn@?1??lineNegotiateAPIVersion@@9@9)
                53. 01 9D2B 003E 0000:_phoneInitializeExA@28 (0007: 1C) (REF 0005: ?lpfn@?1??phoneInitializeExA@@9@9)
                54. 01 9D2B 003E 0000:_phoneInitializeExW@28 (0007: 1C) (REF 0005: ?lpfn@?1??phoneInitializeExW@@9@9)
                55. 01 9D2B 003E 0000:_phoneOpen@28 (0007: 1C) (REF 0005: ?lpfn@?1??phoneOpen@@9@9)
                56. 01 9D2B 003E 0000:_lineTranslateAddressA@28 (0007: 1C) (REF 0005: ?lpfn@?1??lineTranslateAddressA@@9@9)
                57. 01 9D2B 003E 0000:_lineTranslateAddressW@28 (0007: 1C) (REF 0005: ?lpfn@?1??lineTranslateAddressW@@9@9)
                58. 01 9D2B 003E 0000:_lineForwardA@28 (0007: 1C) (REF 0005: ?lpfn@?1??lineForwardA@@9@9)
                59. 01 9D2B 003E 0000:_lineForwardW@28 (0007: 1C) (REF 0005: ?lpfn@?1??lineForwardW@@9@9)
                60. 01 9D2B 003E 0000:_lineInitializeExW@28 (0007: 1C) (REF 0005: ?lpfn@?1??lineInitializeExW@@9@9)
                61. 01 9D2B 003E 0000:_lineInitializeExA@28 (0007: 1C) (REF 0005: ?lpfn@?1??lineInitializeExA@@9@9)
                62. 01 9D2B 003E 0000:_lineGatherDigitsW@28 (0007: 1C) (REF 0005: ?lpfn@?1??lineGatherDigitsW@@9@9)
                63. 01 9D2B 003E 0000:_lineGatherDigitsA@28 (0007: 1C) (REF 0005: ?lpfn@?1??lineGatherDigitsA@@9@9)
                64. 01 9D2B 003E 0000:_lineGatherDigits@28 (0007: 1C) (REF 0005: ?lpfn@?1??lineGatherDigits@@9@9)
                65. 01 9D2B 003E 0000:_lineTranslateAddress@28 (0007: 1C) (REF 0005: ?lpfn@?1??lineTranslateAddress@@9@9)
                66. 01 9D2B 003E 0000:_lineForward@28 (0007: 1C) (REF 0005: ?lpfn@?1??lineForward@@9@9)
                67. 01 9D2B 003E 0000:_lineSetTerminal@28 (0007: 1C) (REF 0005: ?lpfn@?1??lineSetTerminal@@9@9)
                68. 01 9D2B 003E 0000:_lineOpenA@36 (0007: 24) (REF 0005: ?lpfn@?1??lineOpenA@@9@9)
                69. 01 9D2B 003E 0000:_lineOpenW@36 (0007: 24) (REF 0005: ?lpfn@?1??lineOpenW@@9@9)
                70. 01 9D2B 003E 0000:_lineOpen@36 (0007: 24) (REF 0005: ?lpfn@?1??lineOpen@@9@9)
                71. 01 9D2B 003C 0000:_tapiRequestMediaCallA@40 (0007: 28) (REF 0005: ?lpfn@?1??tapiRequestMediaCallA@@9@9)
                72. 01 9D2B 003C 0000:_tapiRequestMediaCall@40 (0007: 28) (REF 0005: ?lpfn@?1??tapiRequestMediaCall@@9@9)
                73. 01 9D2B 003C 0000:_tapiRequestMediaCallW@40 (0007: 28) (REF 0005: ?lpfn@?1??tapiRequestMediaCallW@@9@9)
                74. 01 9D2B 003E 0000:_lineSetMediaControl@48 (0007: 30)
              29FF7514DD450C5151DD1C245151D9EEDD1C24DD45:
                0. 0C 7ABA 0053 0000:__handle_qnan1
          017513578B7D0883C9FF33C0F2AEF7D1495F8BC15DC356:
            0. 0B DF44 003C 0000:__mbstrlen
        79:
          18007507B809020480EB1D8B4118DD45188B085151DD1C24FF7514:
            0. 11 AA3A 0031 0000:?DeliverNewSegment@CBaseOutputPin@@UAEJ_J0N@Z
          1C007507B809020480EB1D8B411CDD45188B085151DD1C24FF7514:
            0. 11 AA3A 0031 0000:?DeliverNewSegment@CBaseOutputPin@@UAEJ_J0N@Z
        7C24:
          100A750B837D0800B8010000007C0233C050FF7510FF750CFF75:
            0. 02 C1AA 002E 0000:__ltoa
          140A7515837D0C007F0F7C06837D08007307B801000000EB0233:
            0. 0F 5BA2 0038 0000:__i64toa
        7D:
          08:
            00:
              5356:
                578BF1BB........751068590400005368........E8:
                  0. 00 0000 0145 0000:?Receive@CBaseRenderer@@UAEJPAUIMediaSample@@@Z
                8BF17514680C04000068........68........E8:
                  0. 00 0000 007E 0000:?GetMediaTime@CRendererPosPassThru@@UAEJPA_J0@Z
              567468FF15........85C0755E8B750C83FE21743081FE9F00:
                0. 2D 2B07 0079 0000:?PossiblyEatMessage@@YGHPAUHWND__@@IIJ@Z
              74:
                0F:
                  817D0CFFFFFF7F77065DE9........B8570007805DC20C:
                    0. 01 78F0 0021 0000:_StringCchLengthW@12 (REF 0014: _StringLengthWorkerW@12)
                    1. 01 78F0 0021 0000:?StringCchLengthA@@YGJPBDIPAI@Z (REF 0014: ?StringLengthWorkerA@@YGJPBDIPAI@Z)
                  FF7508E8........5DFF25........5DC20400:
                    0. 00 0000 001C 0000:?DeleteMediaType@@YGXPAU_AMMediaType@@@Z
                11FF7510FF750CFF7508E8........83C40CFF750CE8:
                  0. 00 0000 0025 0000:_wcsxfrm
                51FF15........85C075478B450C83F821742A3D9F000000:
                  0. 31 01C7 0060 0000:?PossiblyEatMessage@@YGHPAUHWND__@@IIJ@Z
              75:
                0433C05DC38D450C6A02508D450850FF35........FF7508:
                  0. 01 3E9B 003C 0000:_wctomb
                0A:
                  33C039450C0F94C0EB33578B7D0C85FF750433C0EB2656:
                    0. 04 EF25 004A 0000:_MultiSz_Equal_A@8 (REF 0024: _MultiSz_Size_A@4)
                    1. 04 EF25 004A 0000:_MultiSz_Equal_W@8 (REF 0024: _MultiSz_Size_W@4)
                  FF750CE8........EB24837D0C00750AFF7508E8:
                    0. 00 0000 003B 0000:_NetpMemoryReallocate@8
                0B83650C00C74508........6A016A02FF750CFF7508E8:
                  0. 00 0000 0027 0000:_utf8ToUnicode@8
                0DFF750C6A:
                  00FF15........EB29837D0C00FF75087508FF:
                    0. 01 54B7 0043 0000:_MIDL_user_reallocate@8
                  40FF15........EB29837D0C00FF75087508FF:
                    0. 01 54B7 0043 0000:_MIDL_user_reallocate@8
                14687901000068........68........E8........566A48:
                  0. 02 ABB7 004B 0000:?CreateMediaType@@YGPAU_AMMediaType@@PBU1@@Z
            01750BFF7158FF15........EB0883C158E8........33C05DC2:
              0. 02 2768 0022 0000:?SourceThreadCanWait@CBaseRenderer@@UAEJH@Z
            02730C6A0DFF15........33C0EB558B4508568D44000450E8:
              0. 00 0000 006E 0000:_Nxt_RecordBuild@8
            0356763A837D080475348B750C8B068D0440C1E0028D48183B4D:
              0. 13 AD6C 004B 0000:_Convert32bitResDesTo64bitResDes@12
            04740C6A0DFF15........33C0EB46536A10E8........8BD885:
              0. 1A B625 005F 0000:_Winsr_RecordBuild@8 (REF 003A: strtoul)
              1. 1A B625 005F 0000:_Winsr_RecordBuildW@8 (REF 003A: wcstoul)
            07740C6A0DFF15........33C0EB4E576A1CE8........8BF885:
              0. 2A A11D 0067 0000:_Soa_RecordBuild@8 (REF 004A: strtoul)
              1. 2A A11D 0067 0000:_Soa_RecordBuildW@8 (REF 004A: wcstoul)
          0C:
            00:
              56:
                7E278B7510566A28FF750CFF7508FF15........39450C7F:
                  0. 18 DFB5 0038 0000:_IsPixelFormatValid@12
                8B7508752C837E:
                  300074268B068D4D085168........56FF:
                    0. 0C 5021 004A 0000:?JoinFilterGraph@CBaseVideoRenderer@@UAGJPAUIFilterGraph@@PBG@Z
                  340074268B068D4D085168........56FF:
                    0. 0C BC53 004A 0000:?JoinFilterGraph@CBaseVideoRenderer@@UAGJPAUIFilterGraph@@PBG@Z
              7408FF05........EB06FF0D........33C05DC20800:
                0. 00 0000 001D 0000:?LockServer@CClassFactory@@UAGJH@Z
              75:
                0633C05DC208005DFF6108:
                  0. 00 0000 0013 0000:?CreateInstance@CFactoryTemplate@@QBEPAVCUnknown@@PAUIUnknown@@PAJ@Z
                07B803400080EB:
                  2E568B75088B86B000000085C075246A78:
                    0. 01 361F 004F 0000:?put_Caption@CBaseControlWindow@@UAGJPAG@Z
                  2F568B75088B86B000000085C0752568:
                    BC:
                      0. 04 9013 0050 0000:?get_WindowStyleEx@CBaseControlWindow@@UAGJPAJ@Z
                    DB:
                      0. 04 9013 0050 0000:?get_WindowStyle@CBaseControlWindow@@UAGJPAJ@Z
                  39:
                    566A04FF750CFF15........83F801BE:
                      0. 00 0000 004D 0000:?Notify@CBaseInputPin@@UAGJPAUIBaseFilter@@UtagQuality@@@Z
                    6A48FF750CFF15........83F8017514:
                      0. 06 5FD5 004D 0000:?QueryAccept@CBasePin@@UAGJPBU_AMMediaType@@@Z
                  4B56576A08FF750CFF15........83F801:
                    0. 06 0575 005F 0000:?get_PrerollTime@CSourcePosition@@UAGJPAN@Z
                  58538B5D10568BC3C1E00250FF750CFF15:
                    0. 00 0000 006C 0000:?ReceiveMultiple@CBaseInputPin@@UAGJPAPAUIMediaSample@@JPAJ@Z
                  63568B75088B46145750894508FF15:
                    0. 00 0000 0077 0000:?Connect@CBasePin@@UAGJPAUIPin@@PBU_AMMediaType@@@Z
                  76538B5D1085DB7507B803400080EB6656:
                    0. 10 1CD8 008A 0000:?GetVideoSize@CBaseControlVideo@@UAGJPAJ0@Z
              8B45087406834804:
                01EB04836004FE33C05DC20800:
                  0. 00 0000 001C 0000:?SetSyncPoint@CMediaSample@@UAGJH@Z
                02EB04836004FD33C05DC20800:
                  0. 00 0000 001C 0000:?SetPreroll@CMediaSample@@UAGJH@Z
                04EB04836004FB33C05DC20800:
                  0. 00 0000 001C 0000:?SetDiscontinuity@CMediaSample@@UAGJH@Z
            015675566A00FF15........8B4514FF306AEBFF7508FF15:
              0. 00 0000 011A 0000:?NotifWndProc@CMSPThread@@SGJPAUHWND__@@IIJ@Z
            02:
              5356577651837D0C0A0F85BD0000008B7D108B75088B1D:
                0. 00 0000 00DA 0000:_RxpConvertSessionInfo@20
              75:
                10FF7514FF7510FF7508E8........EB2F837D0C017510FF:
                  0. 09 C552 004C (l)0000:_decode_block@16
                12FF75148B4510FF30FF7508E8........EB16837D0C1775:
                  0. 0D 6639 003C 0000:_DnsAddr_BuildFromFlatAddr@16
            107522A1........8B4D08C1E003FF05........8988:
              0. 05 F749 007D 0000:_auxMouseFunc@12
            FF:
              740D837D0C007407B857000780EB37568B75088B86B0000000:
                0. 0A 623C 005E 0000:?SetWindowForeground@CBaseControlWindow@@UAGJJ@Z
              7F0CB8009B32E27C1A3945087215837D0C007C0CB80065CD1D:
                0. 0E B62B 002E 0000:?TimeDiff@@YGH_J@Z
          10:
            00:
              53568B750C8B1E5774158B7D088BCB8BD1C1E90233C0F3AB8B:
                0. 0D B2B7 0098 0000:_Sockaddr_BuildFromFlatAddr@24
              75:
                0433C05DC3FF4D108B550C8B4D087416668B016685C0740E:
                  0. 18 5A10 0038 0000:_wcsncmp
                056A5758EB76538B5D0C8B4304568B75080346045750E8:
                  0. 00 0000 0088 0000:_Ip6Array_Union@12
                07:
                  B803400080EB58568B7508837E2C007507B8FFFF0080EB:
                    0. 0D 5DB7 006C 0000:?Activate@CBasePropertyPage@@UAGJPAUHWND__@@PBUtagRECT@@H@Z
                  C74510........:
                    568B751485F675:
                      16FF751068:
                        0. 11 C5C2 0192 0000:_DnsPrint_IpAdapterList@24
                      1868........FF7510:
                        0. 01 361F 00A2 0000:_DnsPrint_QueryBlob@16
                      1B68........FF7510:
                        0. 01 361F 00C5 0000:_DnsPrint_QueryResults@16 (0057: E8)
                        1. 01 361F 00D9 0000:_DnsPrint_ParsedMessage@16 (0057: FF)
                        2. 01 361F 00DE 0000:_DnsPrint_QueryInfo@16 (0057: 53)
                        3. 01 361F 00E0 0000:_DnsPrint_ExtraInfo@16 (0057: 6A)
                    E8........FF75:
                      1068........FF750C:
                        0. 17 B343 005A 0000:_DnsPrint_ValueTable@16
                      1CFF751CFF7518FF75:
                        0. 05 4F50 006E 0000:_DnsPrint_RpcIpArrayPlusParameters@40
              7F0433C0EB:
                3556FF7510E8........8B4D0C85C98B75087503:
                  0. 09 6027 0046 0000:_Dns_DbgHeapAllocEx@20
                5B53568B75088B8630430000FF751003450C8BD6:
                  0. 01 3E9B 006C 0000:_comp_read_input@12
            01FF750CFF75087507E8........EB12837D10037507E8:
              0. 00 0000 002C 0000:_Dns_NameComparePrivate@12
            0A750C837D08007D066A016A0AEB056A00FF7510FF750CFF7508:
              0. 01 3E9B 002D 0000:__itoa
          14:
            00:
              567413FF7510FF15........596A028D74000258EB148B4510:
                0. 1A 4D7C 005E 0000:_FlatBuf_Arg_WriteString@16
              7F0433C0EB43568B750857FF751056E8........FF75148BF8:
                0. 01 3E9B 0054 0000:_Dns_DbgHeapReallocEx@24
              8B4D0C535657740B8B7508C6012D41F7DEEB038B75088BF98B:
                0. 3C C07D 005C (l)0000:_xtoa
            035356578B:
              D9754F8B7D088B750C2BF7C1FE04C1E60456897508:
                0. 01 3E9B 008E 0000:?Init@?$CComEnumImpl@UIEnumTerminalClass@@$1?IID_IEnumTerminalClass@@3U_GUID@@BU3@V?$_Copy@U_GUID@@@ATL@@@ATL@@QAEJPAU_GUID@@0PAUIUnknown@@W4CComEnumFlags@2@@Z
              F1:
                0F85840000008B7D0C8B5D082BFBC1FF04C1E704:
                  0. 02 FEFA 00C7 0000:?Init@?$CComEnumImpl@UIEnumVARIANT@@$1?IID_IEnumVARIANT@@3U_GUID@@BUtagVARIANT@@V?$_Copy@UtagVARIANT@@@ATL@@@ATL@@QAEJPAUtagVARIANT@@0PAUIUnknown@@W4CComEnumFlags@2@@Z
                75758B7D0C8B5D082BFBC1FF02C1E70257E8:
                  0. 00 0000 00B4 0000:?Init@?$CComEnumImpl@UIEnumTerminal@@$1?IID_IEnumTerminal@@3U_GUID@@BPAUITTerminal@@V?$_CopyInterface@UITTerminal@@@ATL@@@ATL@@QAEJPAPAUITTerminal@@0PAUIUnknown@@W4CComEnumFlags@2@@Z (REF 0039: ?copy@?$_CopyInterface@UITTerminal@@@ATL@@SGJPAPAUITTerminal@@0@Z)
                  1. 00 0000 00B4 0000:?Init@?$CComEnumImpl@UIEnumStream@@$1?IID_IEnumStream@@3U_GUID@@BPAUITStream@@V?$_CopyInterface@UITStream@@@ATL@@@ATL@@QAEJPAPAUITStream@@0PAUIUnknown@@W4CComEnumFlags@2@@Z (REF 0039: ?copy@?$_CopyInterface@UITStream@@@ATL@@SGJPAPAUITStream@@0@Z)
                  2. 00 0000 00B4 0000:?Init@?$CComEnumImpl@UIEnumPluggableSuperclassInfo@@$1?IID_IEnumPluggableSuperclassInfo@@3U_GUID@@BPAUITPluggableTerminalSuperclassInfo@@V?$_CopyInterface@UITPluggableTerminalSuperclassInfo@@@ATL@@@ATL@@QAEJPAPAUITPluggableTerminalSuperclassInfo@@0PAUIUnknown@@W4CComEnumFlags@2@@Z (REF 0039: ?copy@?$_CopyInterface@UITPluggableTerminalSuperclassInfo@@@ATL@@SGJPAPAUITPluggableTerminalSuperclassInfo@@0@Z)
                  3. 00 0000 00B4 0000:?Init@?$CComEnumImpl@UIEnumPluggableTerminalClassInfo@@$1?IID_IEnumPluggableTerminalClassInfo@@3U_GUID@@BPAUITPluggableTerminalClassInfo@@V?$_CopyInterface@UITPluggableTerminalClassInfo@@@ATL@@@ATL@@QAEJPAPAUITPluggableTerminalClassInfo@@0PAUIUnknown@@W4CComEnumFlags@2@@Z (REF 0039: ?copy@?$_CopyInterface@UITPluggableTerminalClassInfo@@@ATL@@SGJPAPAUITPluggableTerminalClassInfo@@0@Z)
          18:
            00:
              53568B7510577404C6062D468B7D1489751033C05057FF750C:
                0. 04 EF25 0078 (l)0000:_x64toa@20
              5775086A0358E9B6000000568B750C83FE010F82A500000083:
                0. 0A 05CD 00CD 0000:_CM_Get_DevNode_Registry_Property_ExA@28 (REF 0051: _CM_Get_DevNode_Registry_Property_ExW@28)
                1. 0A 05CD 00CD 0000:_CM_Get_Class_Registry_PropertyA@28 (REF 0051: _CM_Get_Class_Registry_PropertyW@28)
            028B4D0C8B01751683F81073046A10EB1AFF7510FF7508E8:
              0. 00 0000 0047 0000:_Dns_AddressToString_A@20
        C4:
          E08945E08B45188945F08B451C8945F4EB09558BEC83C4E08945E0:
            0. 1C 592E 0053 0000:__startTwoArgErrorHandling 0017:__startOneArgErrorHandling (l)0020:_ContinueErrorHandling (l)0051:CW_is_restored
          F49BD97DFE9B668B45FE80CC0C668945FCD96DFCDF7DF4D96DFE8B:
            0. 07 F1BE 0027 0000:__ftol
        EC:
          04:
            5356578B75083B750C73428B451003C68945FC8BFE8B5DFC3B5D:
              0. 21 6CE8 005A (l)0000:_shortsort
            56:
              578B750885F67460837D1000750433C0EB6785F67452FF750C:
                0. 01 3E9B 0086 0000:_mbstowcs
              8B750885F6741E803E007419837D0C0074138D45FC8975FC50:
                0. 01 3E9B 0033 0000:_mblen
              9BD97DFCFF75FCE8........83C4048B750CF7D623F08B450C:
                0. 07 ABAB 003C 0000:__control87
            833D........015775138B7D08B9FFFFFFFF2BC0F2AEF7D18D41:
              0. 0E E872 0042 0000:__mbstrlen
            9BD97DFE668B450C8B5508668BC866F7D16623D066234DFE660B:
              0. 10 C44A 0030 0000:__ctrlfp
          08:
            5356578B75:
              088BDE833D........017E100FB6036A0850E8:
                0. 00 0000 00E7 0000:_strtod
              0C8B5D108D43FF0FAF451403C68945F83BC6724C8B:
                0. 70 0DD8 0090 0000:_bsearch
            56:
              576A006A00E8........83C4088BF0A1........68FFFF0000:
                0. 02 F6B7 0118 0000:_modf
              68FFFF0000683F130000E8........83C4088BF0668B450E66:
                0. 19 0E40 00CD 0000:_frexp
                1. 10 69EE 00C7 0000:_fabs
            833D........00DD4514DC450C7527DD5DF8FF751CFF75FCFF75:
              0. 13 3B6A 0060 0000:__handle_qnan2
            C745FC000000005356578B5D088B750C807B013A751985F67410:
              0. 05 FC9B 0137 0000:__splitpath
            DD4508D9E15633F6DD5DF8817D140000F07F755A3975107555D9:
              0. 0D FDC4 01DA 0000:__powhlp
            FF750CFF7508E8........83C408A8907546FF750CFF7508E8:
              0. 00 0000 0064 0000:__d_inttype
          0C:
            53:
              33DB:
                385D0C568B750857895DFC740933C08BFEABABABABAB8D:
                  0. 08 4DC1 0120 0000:_NetpHandleJoinedStateInfo@12
                391D........741168........6802000800E8:
                  0. 09 C8DB 023F 0000:?get_StaticTerminals@CMSPAddress@@UAGJPAUtagVARIANT@@@Z
                568B75:
                  0C3BF357895DF8895DFC895DF474048BFEEB128B:
                    0. 07 8B7F 00D0 0000:_ScHelperVerifyMessage@32
                  183BF3578B7D08895DF4895DFC895DF8740F57E8:
                    0. 00 0000 00F5 0000:_Ip6Array_Diff@20
              56:
                33DB:
                  391D........578BF9741168........6802000800E8:
                    0. 00 0000 0209 0000:?QueueWorkItem@CMSPThread@@QAEJP6GKPAX@Z0H@Z
                  578B7D103BFB895DFC895DF8895DF47505BF:
                    0. 16 2F5D 02A3 0000:_DnsPrint_RpcUnion@20
                57:
                  8B:
                    750883E61FF64508087418F645100174126A0183E6F7:
                      0. 01 3E9B 0229 0000:__handle_exc
                    7D0C33F6568D45F4508D450C5068000400008D45FC50:
                      0. 0D 6B4A 00AD 0000:_RxNetSessionDel@12
                    D9E8........8B75088B7D0C8B4D10B8FF0000008906:
                      0. 24 1324 00C7 0000:?GetColourMask@CImageDisplay@@QAEHPAK00@Z
                    F9:
                      57FF15........8B55088B750C8B5D10B8FF000000:
                        0. 20 3DC8 00AD 0000:?GetColourMask@CImageDisplay@@QAEHPAK00@Z
                      8D:
                        4708508945F4FF15........8B5D088365F80083:
                          0. 1A 9896 008F 0000:?Remove@CCmdQueue@@UAEJPAVCDeferredCommand@@@Z
                        4F08894DF4E8........8B5D088365F800837B38:
                          0. 19 5480 008D 0000:?Remove@CCmdQueue@@UAEJPAVCDeferredCommand@@@Z
                  8D45F85033F6568BF9FF15........8BD83BDE7D203935:
                    0. 00 0000 014D 0000:?CompareMoniker@CSingleFilterStaticTerminal@@UAEJPAUIMoniker@@@Z
                8B35........57FF751033FF897DFC897DF4897DF8FFD659:
                  0. 14 2226 00F3 0000:_NetpDeleteComputerObjectInOU@20
                8D45F850681900020033F65668........68020000808975:
                  0. 03 B757 0088 0000:_NetpGetNewMachineName@4
              57:
                33DB53538BF98B:
                  47708B08538D55FC5250FF511C3BC30F8C:
                    0. 18 A564 00B9 0000:?QueueSample@CPullPin@@AAEJAA_J_JH@Z
                  87880000008B08538D55FC5250FF511C3B:
                    0. 1B 8A6B 00BC 0000:?QueueSample@CPullPin@@AAEJAA_J_JH@Z
                8B7D088B:
                  47:
                    0833DB538D5508528D55FC528D55F852894DF4:
                      0. 0C 1BBB 016C 0000:?HandleGraphEvent@CMSPCallMultiGraph@@UAEXPAUMSPSTREAMCONTEXT@1@@Z
                    2C508945F4FF15........33DB395F08895DFC:
                      0. 4D C6D1 007A 0000:?Stop@CBaseFilter@@UAGJXZ
                  4F28894DF4E8........33DB395F08895DFC7443:
                    0. 4A A24D 0077 0000:?Stop@CBaseFilter@@UAGJXZ
              8365F80056578B7D088A1F8D77018975FC833D........017E:
                0. 08 3F9C 0206 (l)0000:_strtoxl
              894DF833C9568B750833C03BD157894DFC894DF40F842A0100:
                0. FF E712 0161 0000:@Dns_Utf8ToUnicode@16
              8B5D:
                08:
                  56:
                    33F6578B7D183BFE8975F48975FC8975F8740F53E8:
                      0. 00 0000 00FD 0000:_Dns_DiffOfIpArrays@20
                    8B751C5733FF3BF7897DF4897DFC897DF8740F53E8:
                      0. 00 0000 0104 0000:_DnsAddrArray_Diff@24
                  8B430C24182C08F6D86A001BC040894508580F94C06A:
                    0. 0C DA3E 00A8 0000:_SoaDnsRecordConvert@4
                0C5633F63BDE740F83FB01740A83FB0A74056A7C58EB58:
                  0. 26 D161 007E 0000:_RxpWkstaGetOldInfo@12
              FF35........E8........33DB3BC38945F80F84AC00000057:
                0. 06 E918 00CE 0000:_tkSetGreyRamp@0
            56:
              33F639:
                35........0F84900000003935........7405E8:
                  0. 00 0000 00A8 0000:_LoadPwdDLL@0
                750C578BF98975FC741B8B4D0CE8........85C0750F:
                  0. 09 6973 00B2 0000:?AgreeMediaType@CBasePin@@IAEJPAUIPin@@PBVCMediaType@@@Z
              57:
                33F65656568D45FC508D45F8508D45F4506A01566A02E8:
                  0. 00 0000 0086 0000:_RxNetServiceControl@20
                68FFFF0000683F130000E8........83C4088BF0668B450E:
                  0. 11 BB77 021C 0000:_ldexp
                6A5CFF750833FF897DFC897DF8FF15........8BF03BF759:
                  0. 22 BE60 00BB 0000:_NetpCrackDomainSpecifier@12
                8B7D088B45108D57108B0A80C90183F81F890A0F87570100:
                  0. 04 AF5C 01D2 0000:__FillOperand
                8D45F8508D45FC506A3FFF750833FF897DFC897DF8E8:
                  0. 00 0000 0106 0000:_NetpSetNetlogonDomainCache@4
              68FFFF0000683F130000E8........83C4088BF0668B450E:
                66:
                  0. 10 AE34 00F6 0000:__logb
                B9:
                  0. 72 708E 0283 0000:__nextafter
              8B4D10578B7D086A015E0977108B47106A085A3BCA7F350F84:
                0. 25 027F 015D 0000:__FillOperand
              8D45FC50683F000F0033F65668........68020000808975FC:
                0. 05 4ED2 007D 0000:_NetpAvoidNetlogonSpnSet@4
            5733FF:
              397D:
                08897DF4897DF8897DFC750433C0EB42568B35:
                  0. 00 0000 0062 0000:_Dns_GetKeyVersion@4
                0C0F86:
                  3003000053568B7508897D088B563433C08B:
                    0. FF C54C 0347 0000:_encode_verbatim_block@8
                  4604000053568B7508897DFC8B563433C08B:
                    0. FF 5522 045D 0000:_encode_aligned_block@8
                10744D397D1474488B450C56578D4DFC8D55F88D75:
                  0. 02 697F 0065 0000:_RxPrintDestEnum@24
              F74514FEFFFF7F897DF474086A5758E9E8000000F64514:
                0. 12 20C0 010A 0000:_NetpwPathCompare@16
            66837D18008B4D100FB70C4D........8B4224894DF88B4D140F:
              0. 03 CAF0 0355 (l)0000:_InflateCodes@24
            6A026A0C8D45F450FF7508FF15........85C07D088B45108320:
              0. 16 9C6C 0065 0000:_NetpGetAllowedAce@12
            83:
              65:
                F80053568B75088B5E0485DB76:
                  468D46088945FC8BC3C1E0:
                    0. 10 6AD4 006F 0000:_Ip6Array_CheckAndMakeIpArraySubset@8
                  498D46208945FC8BC3C1E0:
                    0. 12 57A9 0072 0000:_DnsAddrArray_CheckAndMakeSubset@8
                FC008365F800568B750885F6747C57FF750CE8........8B:
                  0. 12 DAAF 00A6 0000:_DnsAddrArray_NetworkMatchIp4@12
              7D0C0176086A7C58E991000000538B5D1085DB75086A5758E9:
                0. 0B 85AD 00A9 0000:_RxNetGroupAdd@16
            8B:
              45:
                08:
                  5356578BF86A0183E71F5BA8087414845D10740F53E8:
                    0. 00 0000 01E4 0000:__handle_exc
                  8B50048365F8004A78498BCA53C1E1048D5C0108568D42:
                    0. 47 8DFB 0067 0000:_Ip6Array_DeleteIp@8
                  FF4804568B30578D50080F859800000033C985F6C74004:
                    0. 9A 0CEA 00BA 0000:_Lz_Bump@4
                0C5333DB:
                  395D08568B7510891857895DFC891E740DFF7508:
                    0. 06 4C1E 00A3 0000:_NetpGetLsaPrimaryDomain@16
                  3BC356570F84D10000006639180F84C800000039:
                    0. 49 5644 00F1 0000:_RxNetShareSetInfo@20
                10565733FF578D:
                  4DFC8D55F88D75F4E8........3BC77550:
                    0. 1F 5034 0076 0000:_RxPrintDestGetInfo@24
                  75FC8D55F88D4DF4E8........3BC775:
                    3C:
                      0. 2B 867E 0062 0000:_RxPrintJobEnum@28
                    50:
                      0. 1F 5034 0076 0000:_RxPrintJobGetInfo@24
                185333DB3BC375086A5758E9B600000056578B7D283BFB89:
                  0. 0C 82EC 00D3 0000:_RxNetFileEnum@36
              4D105733C08D7DF4ABABAB894DFC8D4DF4516A:
                1268:
                  0. 1A D19D 0043 0000:_DnssrvExportZone@12
                2068:
                  0. 1A D19D 0043 0000:_DnssrvChangeZoneDirectoryPartition@12
              5508535633F639750C57BB080100007E108B4D0C8BC2834804:
                0. 8C ECA6 00EA 0000:_CrTempFiles@32
            8D45:
              F450FF15........8D45FC508D45F450FF15........84C0:
                0. 0B D6EF 002B 0000:_time_now@0
              FC506A02E8........85C0743E56FF750C8D45F4FF7508C7:
                0. 02 5E4C 0057 0000:_WriteSeed@8
            A1........:
              538B5D0883FB048945FC8D43FD8945F4730A6A0DFF:
                0. 01 54B7 00BA 0000:_Wins_RecordBuildW@8
              5633F63935........8945FC8975F88975F4751168:
                0. 00 0000 008C 0000:_DnscmdWmi_ProcessZoneInfo@4
            C745F4000000005356578B75086A088BC6668B0050E8:
              0. 11 6AE2 013B 0000:_wcstod
          10:
            33:
              C0:
                3941088945F08945F4C745F840010000C745FCF000000075:
                  0. 07 E86A 0049 0000:?GetDefaultRect@CBaseWindow@@UAE?AUtagRECT@@XZ
                56578D7DF0ABABABAB8B450885C0C745F01000000074278B:
                  0. 1B 95DD 005B 0000:_NewGenRandom@16
              C9:
                394D0C74:
                  05394D10750AB803400080E988000000538B5D14:
                    0. 2E 434A 00B4 0000:?GetWindowPosition@CBaseControlWindow@@UAGJPAJ000@Z
                  0A394D107405394D147507B803400080EB:
                    6C538B:
                      0. 2B 637A 008E 0000:?GetDestinationPosition@CBaseControlVideo@@UAGJPAJ000@Z (000E: AC)
                      1. 2B 637A 008E 0000:?GetSourcePosition@CBaseControlVideo@@UAGJPAJ000@Z (000E: BC)
                    74538B:
                      0. 1E 0CD8 00A2 0000:?GetDestinationPosition@CBaseControlVideo@@UAGJPAJ000@Z
                      1. 1E 1AD1 00A2 0000:?GetSourcePosition@CBaseControlVideo@@UAGJPAJ000@Z
                6639484857894DF8894DF0894DF4884DFF0F84DF00000053:
                  0. 56 6773 0119 (l)0000:_compress_block@12
            505152:
              33C90F338945FC8955F8B9010000000F338945F48955F0:
                0. 23 01B0 0043 0000:_X86_ReadRDPMC@8
              B9120000000F328945FC8955F8B9130000000F328945F4:
                0. 26 C4A0 0046 0000:_X86_ReadRDMSR@8
            53:
              33DB:
                391D........5657741168........6802000800E8:
                  0. 00 0000 011C 0000:?CreateTerminal@CMSPAddress@@UAGJPAGJW4TERMINAL_DIRECTION@@PAPAUITTerminal@@@Z
                568B75103BF3895DF0895DFC750CC745F857000000E93A:
                  0. 3B 11C2 0166 0000:_RxNetWkstaUserEnum@28
              56:
                57:
                  33FF57897DF0897DF4897DF8897DFCFF15........8B75:
                    0. 2D 5209 005A 0000:?DefaultThreadProc@CMsgThread@@CGKPAX@Z
                  8B:
                    7508833D........017E100FB6066A0850E8:
                      0. 0A 5FE4 00CA 0000:__atoi64
                    7D:
                      08:
                        85FF8BF1751468E403000068........68:
                          0. 00 0000 0090 0000:?RegisterMediaTime@CRendererPosPassThru@@QAEJPAUIMediaSample@@@Z
                        8B:
                          078BF18D4DF85157FF501C8BD885DB7D23833D:
                            0. 00 0000 0150 0000:?RegisterWaitEvent@CMSPCallMultiGraph@@IAEJPAUIMediaEvent@@PAUITStream@@@Z
                          4F:
                            8C8B01FF501833DB3BC38945F0895DFC0F8E:
                              0. 3E 9352 00C5 0000:?ReceiveCanBlock@CBaseInputPin@@UAGJXZ
                            908B01FF501833DB3BC38945F0895D087E70:
                              0. 3B 3DAB 00A3 0000:?ReceiveCanBlock@CBaseInputPin@@UAGJXZ
                      0C33F63BFE7407663937750233FF8B45103BC67408:
                        0. 3E 244C 00DE 0000:_RxNetSessionGetInfo@20
                68........6A036A02E8........8B750833DB83C40C3BF3:
                  0. 09 6B32 009F 0000:_AMovieSetupRegisterFilter2@12
                8B:
                  35........578B7D0C33DB536A0B57FFD6598D44000250:
                    0. 04 D6E3 00CD 0000:_MsgFmtNcbName@12
                  75:
                    08:
                      0FB78EB20000008BC15783E00F33FF2BC78D969400:
                        0. 47 36B4 01C1 0000:_MDICreateDecompressionGlobal@4
                      33DB3BF3750533C040EB5057FF368B7D0C8B075353:
                        0. 4C 8D5D 006C 0000:_AMovieSetupRegisterFilter2@12
                      8B06578B7D248945F48B4518894628578D4508508D:
                        0. 2E EFEA 0211 0000:_AddFileToFolder@32
                    0C8326005733C08D7DF0ABABAB8BD9AB8B7D088B078D:
                      0. 9E EA36 00BE 0000:?DecideAllocator@CBaseOutputPin@@UAEJPAUIMemInputPin@@PAPAUIMemAllocator@@@Z
                  F18B0657FF506484C0BB........751068401100005368:
                    0. 00 0000 0102 0000:?ChangeMediaTypeHelper@CDynamicOutputPin@@AAEJPBVCMediaType@@@Z
              6A0FFF15........68........6A1433DB5350FF15:
                0. 03 C97B 0149 0000:_UpdateStaticMapping@4
              8B:
                5D:
                  088B0356:
                    578BF18D4DF85153FF50348B45F833FF3BC774:
                      0. 1A C2E1 01EC 0000:?Receive@CVideoTransformFilter@@MAEJPAUIMediaSample@@@Z
                    8BF18D4DF8518D4DF05153FF501485C0740733:
                      0. D5 1DB8 0105 0000:?ShouldSkipFrame@CVideoTransformFilter@@IAEHPAUIMediaSample@@@Z
                      1. D5 B2DF 0105 0000:?ShouldSkipFrame@CVideoTransformFilter@@IAEHPAUIMediaSample@@@Z
                  0C:
                    83FB0176086A7C58E9A50000008B4510565733FF8938:
                      0. 27 9D6C 00C1 0000:_RxNetUserModalsGet@12
                    85DB7507B803400080EB:
                      41568B75088B461885C0740D:
                        0. 14 8B82 005B 0000:?get_DestinationLeft@CBaseControlVideo@@UAGJPAJ@Z (000E: AC)
                        1. 14 8B82 005B 0000:?get_DestinationTop@CBaseControlVideo@@UAGJPAJ@Z (000E: AC)
                        2. 14 8B82 005B 0000:?get_SourceLeft@CBaseControlVideo@@UAGJPAJ@Z (000E: BC)
                        3. 14 8B82 005B 0000:?get_SourceTop@CBaseControlVideo@@UAGJPAJ@Z (000E: BC)
                      44568B75088B461885C0740D:
                        0. 14 5B08 005E 0000:?get_DestinationWidth@CBaseControlVideo@@UAGJPAJ@Z (000E: AC)
                        1. 14 5B08 005E 0000:?get_DestinationHeight@CBaseControlVideo@@UAGJPAJ@Z (000E: AC)
                        2. 14 5B08 005E 0000:?get_SourceWidth@CBaseControlVideo@@UAGJPAJ@Z (000E: BC)
                        3. 14 5B08 005E 0000:?get_SourceHeight@CBaseControlVideo@@UAGJPAJ@Z (000E: BC)
                      48568B75088B461C85C07542:
                        0. 06 332C 006F 0000:?get_SourceLeft@CBaseControlVideo@@UAGJPAJ@Z
                        1. 06 4668 006F 0000:?get_DestinationTop@CBaseControlVideo@@UAGJPAJ@Z
                        2. 06 C0AD 006F 0000:?get_DestinationLeft@CBaseControlVideo@@UAGJPAJ@Z
                        3. 06 E938 006F 0000:?get_SourceTop@CBaseControlVideo@@UAGJPAJ@Z
                      4B568B75088B461C85C07545:
                        0. 06 1D31 0072 0000:?get_DestinationHeight@CBaseControlVideo@@UAGJPAJ@Z
                        1. 06 B0FA 0072 0000:?get_SourceWidth@CBaseControlVideo@@UAGJPAJ@Z
                        2. 06 BBAE 0072 0000:?get_SourceHeight@CBaseControlVideo@@UAGJPAJ@Z
                        3. 06 F981 0072 0000:?get_DestinationWidth@CBaseControlVideo@@UAGJPAJ@Z
                      4E568B75088B86B000000085:
                        0. 03 D51F 0075 0000:?get_Top@CBaseControlWindow@@UAGJPAJ@Z (0039: F4)
                        1. 03 D51F 0075 0000:?get_Left@CBaseControlWindow@@UAGJPAJ@Z (0039: F0)
                      51568B75088B86B000000085:
                        0. 03 D51F 0078 0000:?get_Width@CBaseControlWindow@@UAGJPAJ@Z (003C: F0)
                        1. 03 D51F 0078 0000:?get_Height@CBaseControlWindow@@UAGJPAJ@Z (003C: F4)
                  1083FB:
                    0176046A7CEB08837D140075086A5758E98F0000:
                      0. 2E 2F71 00B5 0000:_RxNetGroupGetInfo@16
                    02740D83FB0374086A7C58E98700000056578B7D:
                      0. 25 F5FD 00A8 0000:_RxNetFileGetInfo@16
                D883FB067F0B01999C090000E98C0000008D041A8945FC56:
                  0. 88 B265 00A8 (l)0000:_encoder_translate_e8@12
            56:
              57:
                8B:
                  7D:
                    0C85FF7C0F7F06837D080072078B45088BF7EB0C8B45:
                      0. 48 C829 01AC 0000:?Int64x32Div32@@YG_J_JJJJ@Z
                    1433F63BFE75086A5758E9AF000000538B5D1056568D:
                      0. 16 AD40 00CE 0000:_RxNetServiceGetInfo@16
                  F1:
                    83CFFF837E5C000F85CC000000535768........6A03:
                      0. 03 65C2 00E9 0000:?AdviseThread@CBaseReferenceClock@@AAEJXZ
                    8D7E1C57FF15........8B45088B088D55F0528D55F8:
                      0. 2E 5288 005A 0000:?RegisterMediaTime@CRendererPosPassThru@@QAEJPAUIMediaSample@@@Z
                    FF76:
                      1CFF15........8BF88D45F050FF761CFF15:
                        0. 00 0000 00DC 0000:?DoSetWindowStyle@CBaseControlWindow@@QAEJJJ@Z
                      20FF15........8BF88D45F050FF7620FF15:
                        0. 00 0000 00F4 0000:?DoSetWindowStyle@CBaseControlWindow@@QAEJJJ@Z
                FF75:
                  088BF18B46188B088D560C5250FF511033FF3BC70F8C:
                    0. 9F 93DF 00BF 0000:?ChangeMediaTypeHelper@CDynamicOutputPin@@AAEJPBVCMediaType@@@Z
                  1833FFFF7514C745F001000000897DF4E8........8B:
                    0. 1C 7C28 0065 0000:_DnssrvResetZoneType@20
              8B:
                35........57FF750C8D45F05033FFFFD685C07C23FF7510:
                  0. 18 DC85 0050 (l)0000:_NetpAddValueToTempEnvironment@12
                75:
                  088B:
                    06578BF98D4DF8518D4DF05156FF50148B45183945:
                      0. 4B 274E 006B 0000:?DeliverSample@CPullPin@@AAEJPAUIMediaSample@@_J1@Z
                    46:
                      1885C0740D837818007507B809020480EB:
                        5E578B:
                          0. 05 A358 0081 0000:?put_DestinationWidth@CBaseControlVideo@@UAGJJ@Z (001E: F8)
                          1. 05 A358 0081 0000:?put_DestinationHeight@CBaseControlVideo@@UAGJJ@Z (001E: FC)
                          2. 05 A358 0081 0000:?put_SourceWidth@CBaseControlVideo@@UAGJJ@Z (001E: F8)
                          3. 05 A358 0081 0000:?put_SourceHeight@CBaseControlVideo@@UAGJJ@Z (001E: FC)
                        61578B:
                          0. 05 A358 0084 0000:?put_DestinationLeft@CBaseControlVideo@@UAGJJ@Z (003C: A8)
                          1. 05 A358 0084 0000:?put_DestinationTop@CBaseControlVideo@@UAGJJ@Z (003C: A8)
                          2. 05 A358 0084 0000:?put_SourceLeft@CBaseControlVideo@@UAGJJ@Z (003C: B8)
                          3. 05 A358 0084 0000:?put_SourceTop@CBaseControlVideo@@UAGJJ@Z (003C: B8)
                          4. 05 A358 0084 0000:?SetSourcePosition@CBaseControlVideo@@UAGJJJJJ@Z (003C: B8)
                          5. 05 A358 0084 0000:?SetDestinationPosition@CBaseControlVideo@@UAGJJJJJ@Z (003C: A8)
                      1C85C075:
                        7768:
                          0A06000068........68:
                            0. 01 3E9B 0095 0000:?put_SourceHeight@CBaseControlVideo@@UAGJJ@Z
                          6206000068........68:
                            0. 01 3E9B 0095 0000:?put_DestinationWidth@CBaseControlVideo@@UAGJJ@Z
                          B205000068........68:
                            0. 01 3E9B 0095 0000:?put_SourceWidth@CBaseControlVideo@@UAGJJ@Z
                          BA06000068........68:
                            0. 01 3E9B 0095 0000:?put_DestinationHeight@CBaseControlVideo@@UAGJJ@Z
                        7A68:
                          0C05000068........68:
                            0. 01 3E9B 0098 0000:?SetSourcePosition@CBaseControlVideo@@UAGJJJJJ@Z
                          3706000068........68:
                            0. 01 3E9B 0098 0000:?put_DestinationLeft@CBaseControlVideo@@UAGJJ@Z
                          4805000068........68:
                            0. 01 3E9B 0098 0000:?SetDestinationPosition@CBaseControlVideo@@UAGJJJJJ@Z
                          8505000068........68:
                            0. 01 3E9B 0098 0000:?put_SourceLeft@CBaseControlVideo@@UAGJJ@Z
                          8F06000068........68:
                            0. 01 3E9B 0098 0000:?put_DestinationTop@CBaseControlVideo@@UAGJJ@Z
                          DF05000068........68:
                            0. 01 3E9B 0098 0000:?put_SourceTop@CBaseControlVideo@@UAGJJ@Z
                    86:
                      9400000085C0740D837818007507B809020480EB:
                        0. 0B 28A9 008A 0000:?put_Top@CBaseControlWindow@@UAGJJ@Z (003F: 51)
                        1. 0B 28A9 008A 0000:?put_Left@CBaseControlWindow@@UAGJJ@Z (003F: 0C)
                        2. 0B DCD3 0083 0000:?put_Height@CBaseControlWindow@@UAGJJ@Z (0038: 50)
                        3. 0B DCD3 0083 0000:?put_Width@CBaseControlWindow@@UAGJJ@Z (0038: F0)
                      B000000085C057BF........0F85:
                        8500000068:
                          64:
                            0. 05 4EA8 00B0 0000:?put_Height@CBaseControlWindow@@UAGJJ@Z
                          F3:
                            0. 05 82B5 00B0 0000:?put_Width@CBaseControlWindow@@UAGJJ@Z
                        8C00000068:
                          2C:
                            0. 05 4EA8 00BB 0000:?put_Top@CBaseControlWindow@@UAGJJ@Z
                          BB:
                            0. 05 82B5 00BB 0000:?put_Left@CBaseControlWindow@@UAGJJ@Z
                  0C85F6:
                    5775116A6468........68........E8:
                      0. 11 FE09 00A4 0000:_GetBitmapSubtype@4
                    7507B803400080EB:
                      2E8B4D088B819400000085C0:
                        0. 18 D2E1 0048 0000:?get_Left@CBaseControlWindow@@UAGJPAJ@Z (0006: F0)
                        1. 18 D2E1 0048 0000:?get_Top@CBaseControlWindow@@UAGJPAJ@Z (0006: F4)
                      318B4D088B819400000085C0:
                        0. 18 BB95 004B 0000:?get_Width@CBaseControlWindow@@UAGJPAJ@Z (0009: F0)
                        1. 18 BB95 004B 0000:?get_Height@CBaseControlWindow@@UAGJPAJ@Z (0009: F4)
                F1:
                  83C8FF837E4C00756A57BF1027000053508B4654FF7068:
                    0. 02 ABB7 0081 0000:?AdviseThread@CBaseReferenceClock@@AAEJXZ
                  8B4650578B78448B45088B088D5508525083C730FF510C:
                    0. 54 0F1F 00B5 0000:?SlowRender@CDrawImage@@IAEXPAUIMediaSample@@@Z
              FF75:
                088D45F050FF15........8365FC006A018D45F0508D45:
                  0. 04 2255 0043 0000:_EVENTLOG_HANDLE_A_bind@4
                0C8B7508668326008D45F050E8........568D45F850FF:
                  0. 01 54B7 0051 0000:_NetpCopyStrToWStr@8
                10FF750CFF15........500FB7450850FF35........FF:
                  0. 01 54B7 0059 0000:?GetDialogSize@@YGHHP6GHPAUHWND__@@IIJ@ZJPAUtagSIZE@@@Z
            5733FF:
              397D0C750AB803400080E9:
                9B000000568B75088B46183B:
                  0. 19 B1E8 00B8 0000:?GetCurrentImage@CBaseControlVideo@@UAGJPAJ0@Z
                AC000000568B75088B461C3B:
                  0. 09 4A04 00C9 0000:?GetCurrentImage@CBaseControlVideo@@UAGJPAJ0@Z
              57E8........84C00F8440010000568B75083BF7740956:
                0. 01 3E9B 015C 0000:_SmbTraceCompleteSrv@12
            83:
              4DF4FF:
                53560FB771025733DB85F66A075AC745F80400000075:
                  0. 55 9A24 012B (l)0000:_send_tree@12
                578D45FC506A0133FF6A08897DFCFF15........50FF:
                  0. 01 54B7 00EC 0000:_Dns_GetCurrentRid@0
              65:
                F0008365F4008B45085657C745F840010000C745FCF00000:
                  0. 10 D95A 0030 0000:?GetDefaultRect@CBaseWindow@@UAE?AUtagRECT@@XZ
                F40053568B75088B5E044B78528BC3C1E0068D4430208945:
                  0. 15 212C 0074 0000:_DnsAddrArray_DeleteAddr@12
                F800538B1D........56576A045F8B75F88D45F4508D45FC:
                  0. 0C 77B6 0117 0000:?DbgInitKeyLevels@@YGXPAUHKEY__@@_N@Z
                FC00:
                  538B5D18F7C3FEFFFF7F74086A5758E941010000568B:
                    0. 09 1470 0198 0000:_NetpwNameCanonicalize@20
                  568D45FC50FF75146A00E8........8BF085F67C3CFF:
                    0. 08 A8D9 0089 0000:_NetpSetLsaPrimaryDomain@16
                  837D18007504834D18FF538B1D........568B751057:
                    0. 25 61C6 0149 0000:_Dns_WritePacketNameToBuffer@20
              7D:
                0800568BF1:
                  74168B068D4DF0518D4DF851FF75088BCEFF50:
                    0. 13 F277 00F6 0000:?ScheduleSample@CBaseRenderer@@UAEHPAUIMediaSample@@@Z
                  750433C0EB528B068D4DF0518D4DF851FF7508:
                    0. 10 AEF1 006A 0000:?ScheduleSample@CBaseRenderer@@UAEHPAUIMediaSample@@@Z
                0C0075:
                  07B803400080EB:
                    6F538B5D1085DB7507B803400080:
                      0. 66 BB55 0086 (!)0000:?
                    74538B5D1085DB7507B803400080:
                      0. 43 DFA0 008B 0000:?GetWindowPosition@CBaseControlWindow@@UAGJPAJ000@Z
                  0AB803400080E983000000538B5D1085DB7507B803:
                    0. 19 05BA 009D 0000:?GetMinIdealImageSize@CBaseControlWindow@@UAGJPAJ0@Z
                    1. 19 1EF6 009D 0000:?GetMaxIdealImageSize@CBaseControlWindow@@UAGJPAJ0@Z
                18005356578B75107404C6062D468BFE8B45148945F8C745:
                  0. 12 F5E8 008E (l)0000:_x64toa@20
            85DB750733C0E9840000008365F400568B75088D45F0506A016A:
              0. 06 2C0D 0099 (l)0000:?createSafeArrayForIpList@@YGPAUtagSAFEARRAY@@KPAK@Z
            8B:
              45:
                08:
                  33C95389088B45103BC156BB0200008057895DFC0F84:
                    6C:
                      0. 13 5D94 0199 0000:_NetpOpenConfigDataWithPathEx@20
                    84:
                      0. 13 B259 01B1 0000:_NetpOpenConfigDataEx@20
                  50C600008D45F850E8........FF750CFF15........59:
                    0. 0E B529 0046 0000:_NetpCopyWStrToStr@8
                  53:
                    568B70045733DB508BCE895DF0895D08895DFCE8:
                      0. 00 0000 0113 0000:_ScHelperGetCertFromLogonInfo@12
                    8B5D0C5657BE........8BFBA5A5A5A5668B086681F9:
                      0. 11 FBC2 00C8 0000:_CreateAudioMediaType@12
                  5633F63BC6578BF9897DF089770C8977048947080F84:
                    25:
                      0. 08 A52D 0192 0000:??0CDispParams@@QAE@IPAUtagVARIANT@@PAJ@Z
                    41:
                      0. 08 A52D 01AE 0000:??0CDispParams@@QAE@IPAUtagVARIANT@@PAJ@Z
                  8365FC008945F48B450C8945F868........8D45F050C7:
                    0. 02 16C0 002C 0000:?_com_raise_error@@YGXJPAUIErrorInfo@@@Z
                1053568B7508578B7D0C33DB891F89188D45F05056E8:
                  0. 00 0000 0107 0000:_NetpEnumConfigSectionValues@16
                14:
                  53:
                    33DB3BC374038308FF395D1075056A5758EB518B450C:
                      0. 0F 09F9 0073 0000:_RxNetUseAdd@16
                    5633F689308B45102BC657741B4874056A7C58EB7AB8:
                      0. 00 0000 00A0 0000:_RxNetMessageNameGetInfo@16
                  56FF750C33F68930FF15........83F8085976086A5758:
                    0. 17 7797 00B7 0000:_RxNetCharDevGetInfo@16
                  5733FF837D1002893876086A7C58E991000000538B5D0C:
                    0. 1E 4079 00B2 0000:_RxNetShareGetInfo@16
                185633F6F74514FEFFFFFF893074086A5758E9C200000053:
                  0. 03 284B 00E6 0000:_RxNetStatisticsGet@20
                2453568B308B450C0FB7108D58020FB70333C9438945F08B:
                  0. 6C EB89 0290 0000:_RxpConvertBlock@52
              4D:
                0C:
                  83F907750C6A01FF7508E8........EB308B5510894DFC:
                    0. 07 07CA 004E 0000:_DnssrvEnlistDirectoryPartition@12
                  894DFC8D4DF0516A1F33C068........5050FF7508C745:
                    0. 12 FCDD 003A 0000:_DnssrvSetupDefaultDirectoryPartitions@8
                  8B411085C05657741383F803740E508D4DF0E8:
                    0. 2B 8A81 008F 0000:_GetBitmapSubtype@4
                10:
                  5733C08D7DF0ABABABAB894DF88B4D14894DFC8D4DF051:
                    0. 03 FCD3 004A 0000:_DnssrvRenameZone@16
                  894DF88B4D14894DFC8D4DF0516A1868........33C050:
                    0. 17 C70B 003F 0000:_DnssrvResetZoneDatabase@16
              55:
                08568B750C578D7DF0A5A58D45F0A5508D42:
                  F050A5E8:
                    0. 00 0000 0039 0000:?SetProperties@CImageAllocator@@UAGJPAU_AllocatorProperties@@0@Z
                  F450A5E8:
                    0. 00 0000 0039 0000:?SetProperties@CImageAllocator@@UAGJPAU_AllocatorProperties@@0@Z
                0C85D275172155F82155FCC745F003000000C745F4000001:
                  0. 1E 039A 003E 0000:?DecideAllocator@CPullPin@@UAEJPAUIMemAllocator@@PAU_AllocatorProperties@@@Z
                  1. 1B 30CF 003B 0000:?DecideAllocator@CPullPin@@UAEJPAUIMemAllocator@@PAU_AllocatorProperties@@@Z
            8D45:
              088945F88D45F850E8........8945F48D45F46A02508D45:
                0. 09 2EAD 0051 0000:_toupper
              F050FF15........85C07D0433C0EB32568B35........8D:
                0. 2E 32AD 004E 0000:_NetpGetElapsedSeconds@4
            A1........:
              538B5D0C85DB568B75088945FC75108BC68D50018A:
                0. 2E 22C8 00AF 0000:_Dns_RecordTypeForNameA@8
              85C074073D4EE640BB7573568D45F850FF15:
                0. 00 0000 008B 0000:___security_init_cookie
              8945FC8B450883E800743F48743548742B48742148:
                0. 0D 9D98 0075 0000:_zoneTypeString@12
            DD05........D9FADC05........DC3D........DD55F8DCC0D9:
              0. 09 9CEE 0216 0000:_initdodec@0
            FF75088D45F050FF15........:
              8365FC006A018D45F0508D45F8:
                0. 03 C3FD 003D 0000:_EVENTLOG_HANDLE_A_unbind@8
              85C07C4EA1........80380074:
                0. 07 C5A6 0070 0000:_NetpAllocAStrFromWStr@4
              A1........803800740C8D45F0:
                0. 03 C3FD 006B 0000:_NetpLogonOemToUnicode@4 (0021: 6A)
                1. 03 C3FD 006C 0000:_NetpLogonUnicodeToOem@4 (0021: 1C)
                2. 03 C3FD 006C 0000:_NetpAllocStrFromWStr@4 (0021: 75)
                3. 03 C3FD 0073 0000:_NetpAllocWStrFromStr@4 (0021: E8) (REF 0014: _NlsMbOemCodePageTag)
                4. 03 C3FD 0073 0000:_NetpAllocWStrFromAStr@4 (0021: E8) (REF 0014: _NlsMbCodePageTag)
          14:
            0FB745345733FF394534897DEC74046A7CEB0B0FB7452C39452C:
              0. 11 E047 0223 0000:_RxpSetField@48
            53:
              33DB:
                381D........7414FF7514FF7510FF750CFF7508FF15:
                  0. 00 0000 007B 0000:?MessageBoxOtherThread@@YGHPAUHWND__@@PAG1K@Z
                6A015353895DF8895DF0FF15........3BC38945EC751F:
                  0. 02 ABB7 0164 0000:_NetpQueryService@12
              56:
                57:
                  8B:
                    7D:
                      08FFB7A00000008BF18B4650FF76248B5844FF15:
                        0. 00 0000 00D6 0000:?FastRender@CDrawImage@@IAEXPAUIMediaSample@@@Z
                      10:
                        85FFC745FC0800000076608B750C83C6048BDF8B:
                          0. 0D A329 01CB 0000:_NlWriteFileForestTrustList@12
                        8D4510508D45FC508D45F85033F68D5DF48D55F0:
                          0. 07 E134 0139 0000:_RxPrintQSetInfo@24
                    F133DB8BCE895DF8E8........395E5C0F8507020000:
                      0. 08 8393 023C 0000:?ThreadProc@COutputQueue@@IAEKXZ
                  8D45F45068........6A0133FF5768........8BD9FF15:
                    0. 00 0000 0172 0000:?UpdateTerminalList@CMSPAddress@@MAEJXZ
                8BF18D:
                  461857508945FCFF15........8D7E4833DB391F74:
                    0. 12 F166 00BD 0000:?Connect@CPullPin@@QAEJPAUIUnknown@@PAUIMemAllocator@@H@Z
                  4E1857894DFCE8........8D7E6033DB391F740ABB:
                    0. 10 64F5 00BD 0000:?Connect@CPullPin@@QAEJPAUIUnknown@@PAUIMemAllocator@@H@Z
                BEFFFF00005756683F130000E8........8B7D0E598B5508:
                  0. 9F D6D0 028A 0000:__nextafter
              5733FF32DB397D0875086A5758E9BF0000008D45F8506A0157:
                0. 01 361F 00DE 0000:_NetpSetDnsComputerNameAsRequired@4
              8B5D:
                08:
                  5633F63935........578B3D........755D3935:
                    0. 00 0000 01EB 0000:_DefScreenSaverProc@16
                  833B0056577569837D0C0075358B45103B4514731DBE:
                    0. 0C A294 0144 0000:_NetpAllocateEnumBufferEx@28
                  8B0385C0751C8B451C8B08890B8320008B45208B4D0C:
                    0. 1D 7EF7 018C 0000:_AppendServerList@32
                0C5633F683FB648975FC742A83FB65742583FB66742081:
                  0. 38 EDCE 00DE 0000:_RxNetWkstaGetInfo@12
                105633F63BDE8975FC75086A5758E92201000056568D45:
                  0. 17 A86C 0144 0000:_RxNetServiceEnum@28
            56:
              33F63935........754B68........8D45F850C745EC0C0000:
                0. 12 A5FE 0061 0000:_SapLibInit@0
              57FF75:
                1033FFFF750CC745EC01000000897DF0E8........8B:
                  0. 22 230A 0069 0000:_DnssrvResetForwarders@20
                2033C0FF751C8D7DF0FF7518ABFF7514ABFF7510ABAB:
                  0. 1F 75B6 0075 0000:_ScHelperVerifyPkcsMessage@28
              8B:
                7508:
                  0FB706578B7D0C0FB70FD1E8D1E98945FC894D08EB3A:
                    0. 0E 2F0D 0066 0000:_NetpCompareDnsNameWithSortOrder@8
                  85F67D0FDD450CF7DED9E0DD5D0C89750885F6750FDD:
                    0. 08 C186 0146 0000:__jn
                F1837E5000577514686104000068........68........E8:
                  0. 00 0000 00D9 0000:?SlowRender@CDrawImage@@IAEXPAUIMediaSample@@@Z
            578B7D0C832700F74510FEFFFF7F74056A5758EB70568B750885:
              0. 06 4D26 0090 0000:_NetpwPathType@12
            66:
              8B563C8B46140FB7CA03C86681FAFA7E538B5D088D81020100:
                0. FF 0F50 014E (l)0000:_longest_match@8
              A1........5356668945F88B4DF857E8........33DB3905:
                0. 00 0000 0548 0000:_Lz_NextToken@0
            6A148D45ECFF750850E8........83C40C8D45EC50E8:
              0. 03 1430 0023 (!)0000:?
            83:
              4DF8FF568B75088B4E108B5604578B3E8363400033C085C989:
                0. 9A 3B30 01A0 (l)0000:_build_tree@8
              65FC00578B7D148D45EC508D45F050FF751CFF751857E8:
                0. 00 0000 014E 0000:_Hostent_Copy@32
              7D:
                0800A1........8945FC741D6A00FF75088D45EC50E8:
                  0. 00 0000 003F 0000:_Ip6_AddrStringForSockaddr@4
                0C00538B5D08568D7104578B3D........894DFC89317F20:
                  0. 11 5D2D 013C 0000:??0CDisp@@QAE@VCRefTime@@@Z
                1000A1........8945FC8B450C74236A036A03FF7510C745:
                  0. 0F A440 004F 0000:_Dns_Ip4StringToAddressEx_A@12
            8B:
              45:
                08:
                  8365FC0085C0560F84BE0300008B4D0C85C90F84B30300:
                    0. 28 D28C 040F 0000:_DnsRpc_ConvertToCurrent@8
                  8B108B4D0C0FB71411568B70088D34968B163B5510890E:
                    0. FF 8109 012D 0000:_quick_insert_bsearch_findmatch@12
                0C535633DB578B7D0833F6891866833F5C895DFC74308D45:
                  0. 05 FD45 011D 0000:_NetpGetNt4RefusePasswordChangeStatus@8
                105333DB3BC3895DFC75086A5758E9C7000000565789188B:
                  0. 0F 600E 00E7 0000:_RxNetUseEnum@28
                145633F63BC675076A57E9DC00000089308B45102BC60F84:
                  0. 0C 6A64 011C 0000:_RxNetConnectionEnum@32
              55088A82B42E00008B:
                4D1088450B8B82B02E00008945FC8B82:
                  0. FF BEA6 0398 0000:_fast_decode_aligned_offset_block@12
                8AB02E0000538B9A042B000088450B8B:
                  0. FF 4D0A 0310 0000:_fast_decode_verbatim_block@12
              8AB02E00008A82B42E0000894DF88B8A042B0000894DF48B8A:
                0. FF CEDF 0310 (l)0000:_special_decode_verbatim_block@12
            A1........:
              538B5D1056578B7D0C8945FC33C0ABAB8BF38D7DF4:
                0. 10 A60D 005D 0000:_NlComputeCredentials@12
              568BF166837E023A8945FC74115657FF15:
                0. 28 B852 00D3 (l)0000:_MapResourceName@8
              578B7D086A108945FC5933C0837D0C02F3AB5F7514:
                0. 0E F395 0068 0000:_DnsAddr_BuildMcast@12
              6A036A01FF750C8945FCFF75088D45EC508D45F050:
                0. 08 0E0F 004C 0000:_Dns_RecordTypeForNameW@8
              8945FC8B45:
                0885C074448B480485C9743D5333DB49:
                  0. 3D 60F2 0065 0000:_Ip6Array_Reverse@4
                0C0FB70849495657741983E9158D7DEC:
                  0. 3A B42F 0062 0000:_Sockaddr_GetIp6@4
              FF75108365EC008365F0008945FC8B450C8945F88D:
                0. 0E D395 003E 0000:_Ip6Array_AddIp4@12
            DD450CDC1D........5356DFE09E7322DD05........5151DD1C:
              0. 0C 1F1F 00CF 0000:__yn
            FF7510:
              8D:
                45EC50FF7508E8........83C40C8D45EC6A1450FF75:
                  0. 02 A1CD 002E 0000:__itow
                4DEC51FF7508E8........83C40C8D4DEC6A1451FF75:
                  0. 02 A1CD 0030 0000:__itow
              A1........FF750C8945FC8D45EC50E8........85C074:
                0. 0C 4F12 003C 0000:_Ip6Array_AddSockaddr@16
          18:
            53:
              33DB5633F6395D10895DFC761B8B4514FF34B0E8........8B:
                0. 1A 89C3 0183 0000:_RxNetServiceInstall@20
              56:
                578BF98B573C33DB33C93BD37E158B47388B04883BC3744A:
                  0. 10 EE83 0393 0000:?UpdateTerminalListForPnp@CMSPAddress@@MAEJH@Z
                8B:
                  75:
                    085733FF8D45FC50578D45E85068........575756C7:
                      0. 02 DF5C 0129 0000:_NetpGetNCRoot@12
                    145733FF66397D18740B0FB7451803C68945FCEB0AC7:
                      0. 0A 2E47 02E7 0000:_DnsPrint_MessageNoContext@20
                  F1837E500057751468FE03000068........68:
                    0. 01 3E9B 011A 0000:?FastRender@CDrawImage@@IAEXPAUIMediaSample@@@Z
                BEFFFF00005756683F130000E8........8B550E598B7D16:
                  0. 2C 94D3 0270 (l)0000:__hypothlp
              8B5D0833C03BD8568BF30F84F400000039030F84EC00000066:
                0. 36 DB54 0113 0000:_Dns_PrioritizeSingleRecordSet@8
            56:
              5733FF217DFC85C08BF1746085F6745C8B088D55FC52566A01:
                0. 23 59A0 007E (l)0000:?getNextObjectInEnum@@YGJPAUIEnumWbemClassObject@@PAPAUIWbemClassObject@@_N@Z
              68FFFF0000683F130000E8........83C4088BF0668B450EB9:
                0. 57 7EE2 0281 (l)0000:__hypothlp
              8D45F450FF750C33F6568975F48975F8E8........3BC68945:
                0. 08 632A 00F5 0000:_NetpReadCurrentSecret@8
              FF751833F6FF7514C745E8010000008975ECE8........3BC6:
                0. 17 E5BB 0088 0000:_DnssrvResetZoneSecondaries@32
            6A01C645FF00E8........84C00F84B301000056FF15:
              0. 14 65F0 01D0 0000:_SmbTraceCompleteRdr@12
            8A82B42E00008B4D088845FF8B82082B00008945F08B028945EC:
              0. FF 535E 03B8 (l)0000:_special_decode_aligned_block@12
            8B:
              45:
                08:
                  5333DB3BC3568B35........57895DF8895DEC895DF489:
                    0. 14 81C8 03ED 0000:_NetpGetDnsHostName@16
                  85C0747B837D0C007475668B0866894DE8668B48026689:
                    0. 3C AA67 008F 0000:_NetpSystemTimeToGmtTime@8
                  8945088B451C5333DB89188B45203BC3895DF074028918:
                    0. 16 F5B8 00FE 0000:_RxpCopyAndConvertSessions@28
                0C:
                  5356578B7D088D0C07894D0C8B4D1033F63BCE8975FC74:
                    0. 35 A613 015C 0000:_RxpConvertAuditArray@16
                  8B4D0833D283C018DD401842DC4910DD40E8DC09DEC1DD:
                    0. 25 A50C 0045 0000:_xformvec3@12
                10:
                  538945F88B4514568BD9578945FC8B83:
                    0C01000033FF3B:
                      0. 43 C3BF 0148 0000:?SendQuality@CBaseVideoRenderer@@UAEJ_J0@Z
                    2C01000033FF3B:
                      0. 43 D7E3 0160 0000:?SendQuality@CBaseVideoRenderer@@UAEJ_J0@Z
                  56578D7DFC8D4DF48D55F08D75ECE8........33F63BC6:
                    0. 0A 7E54 006D 0000:_RxNetUseGetInfo@16
                1457FF750C33FF8938FF15........83F8145976086A5758:
                  0. 56 6A21 015F 0000:_RxNetUserGetInfo@16
                185633F63BC68975FC75086A5758E9EB000000538B5D2457:
                  0. 21 E0ED 010B 0000:_RxNetSessionEnum@36
                1C53565783C0C033FF506A40897DFC897DE8897DF8897DF4:
                  0. 08 0DAC 0173 0000:_ScHelperDecryptCredentials@32
              4D:
                0C53568D45F0508D45EC508D45E85033F68D5DFC8D55F88D:
                  0. 04 9B12 0060 0000:_RxPrintQAdd@16
                1053568D45F0508D45EC508D45E8508D5DFC8D55F88D45F4:
                  0. 03 98EC 0093 0000:_RxPrintQGetInfo@24
            8D45E850FF750CFF7508E8........8D45E850E8........C9C2:
              0. 02 87C1 0022 0000:_dist3@8
            A1........:
              53:
                33DB381D........8945FC56895DEC895DE8885D:
                  0. 09 1E02 015C 0000:_NetpSrvOpen@12
                8945FC565733C08D7DECABABAB33DB33F6837D0C:
                  0. 48 ED74 00FF 0000:_HostentBlob_CreateLocal@20
              56:
                57BF........578945FCFF15........833D:
                  0. 00 0000 00FA 0000:_initializeSecurityPackage@4
                FF750C8945FC8D45E85033F6E8........85C074:
                  0. 09 DEBE 007F 0000:_Dns_ReverseNameToDnsAddr_A@8
              6A026A016A00FF750C8945FC8D45E8508D45EC50C7:
                0. 07 98C7 0047 0000:_Dns_Ip4StringToAddress_W@8
              8B4D0869C0C800000033D205........3915:
                0. 00 0000 0072 0000:_m_xformptonly@8
            D9EE56DD5DE86A08D9EEDD5DF0D9EEDD5DF8E8........8BF085:
              0. 0F 0677 007B 0000:_auxSolidTetrahedron@8
              1. 0F 3955 0081 0000:_auxSolidDodecahedron@8
              2. 0F 47B6 007B 0000:_auxWireTetrahedron@8
              3. 0F 8778 007B 0000:_auxSolidIcosahedron@8
              4. 0F 9FAF 007B 0000:_auxWireOctahedron@8
              5. 0F D83D 0081 0000:_auxWireDodecahedron@8
              6. 0F DE6E 007B 0000:_auxSolidOctahedron@8
              7. 0F F785 007B 0000:_auxWireIcosahedron@8
            DD4508DC15........DFE09E73:
              09D9C0D9E0DD5508DDD9DC15:
                0. 00 0000 00D4 0000:?
              20DD05........5151DD1C2451:
                0. 0B 01B3 0119 0000:?
                1. 0B BAAF 010F 0000:?
          1C:
            33D253568B75085733FF3BF28955FC8955E88955F88955F48955:
              0. 19 AAD2 0182 0000:_validateDnsNamePrivate@16
            53:
              33DB568B75103BF357895DF4895DEC895DF0885DFF742A56FF:
                0. 01 54B7 0121 0000:_NetpGetListOfJoinableOUs@20
              5657:
                33C039450C6A085B8945F08945E88BFB895DF48945EC89:
                  0. 11 0325 0256 0000:_NetpCreateSecurityDescriptor@20
                FF750833DB8D4DE4895DF8895DFCE8........8B75103B:
                  0. 15 EA32 0114 0000:_ScHelperSignMessage@32
              8B:
                1D........568B75085733FF397D10897DF00F8487000000:
                  0. 26 7BFE 01F7 0000:__SetupSetRegisteredOsComponentsOrder@12
                4508565733FF8A188D7001897DF8897DFC833D........01:
                  0. 09 7A71 0270 (l)0000:_strtoxq
                5D08565733FF3BDF897DF80F849A0100008B750C3BF70F84:
                  0. 14 DACA 01BD 0000:_PnPEnablePrivileges@8
            56:
              57:
                8BF933F6EB16565656568D45E450FF15........6A01FF15:
                  0. 00 0000 004F 0000:?WaitForReceiveToComplete@CBaseRenderer@@QAEXXZ
                8D45E4508D45EC508D45E850FF751433FFFF7518897DE4FF:
                  0. 15 BE1A 022B 0000:_ScHelperEncryptCredentials@36
              6A01:
                68........FF750833F6FF15........85C08945087517:
                  0. 02 ABB7 0092 0000:_IsRemoteServiceRunning@8
                6A006A00FF15........8BF085F6745B576A04FF750856:
                  0. 02 ABB7 0079 0000:_NetpIsServiceStarted@4
              8D45FC5033F656FF750C8975F86809800000FF75088975FCFF:
                0. 01 54B7 00DD 0000:_ScHelperCreateCredHMAC@24
              FF35........E8........33F63BC68945E40F84EB00000057:
                0. 06 6D44 010F 0000:_tkSetFogRamp@8
            6A006A0F6A0FFF75088D45E450FF15........85C0750B5050FF:
              0. 04 E2B6 002C 0000:_ForceRedraw@4
            817D0CA800000075188B451085C00F8497000000990F9CC133C2:
              0. 97 A62E 00B7 0000:_NetpRotateLogonHoursPhase2@12
            8365F400538365F80056578B7D088A1F8D77018975FC833D:
              0. 00 0000 0259 (l)0000:_strtoxq
            8B:
              45:
                08:
                  5333DB3BC3568BF174158B088D55E4528D55EC5250FF51:
                    0. 35 43CC 013D 0000:?CheckStreamState@CBaseStreamControl@@QAE?AW4StreamControlState@1@PAUIMediaSample@@@Z
                  565733FF3BC78BF174158B088D55E4528D55EC5250FF51:
                    0. 35 8FA3 0109 0000:?CheckStreamState@CBaseStreamControl@@QAE?AW4StreamControlState@1@PAUIMediaSample@@@Z
                105733FF89388B451889388B451C89388B45203BC7740839:
                  0. 27 6F2B 0104 0000:_RxNetShareEnum@28
                1453565733FF3BC774038308FF8B5D0CBEE80300003BDEB8:
                  0. 1A B337 016A 0000:_RxNetWkstaSetInfo@16
              4D:
                088B018B510856578B7D0C0FB704078D04828B3089388BC7:
                  0. FF C8EE 027E 0000:_binary_search_findmatch@8
                185333DB3BCB895DFC740289198B45083BC3741283F80174:
                  0. 3F 3ED7 0186 0000:_NetpTranslateNamesInServiceArray@20
            A1........8B4D14538B5D1856578945FC33C08B750C8BFBABAB:
              0. 25 D0E9 0077 0000:_NlMakeSessionKey@20
            DD4508DC15........C745FC01000000DFE09E730D834DFCFFD9:
              0. 0A 0B62 00E8 0000:?
            FF750C8D45E468........50FF15........8B45088B0883C40C:
              0. 10 DCB8 0030 0000:_WriteInt@8
          20:
            33:
              C08D4DF8894DE88D4D08515050508945E48945F08945F48D45:
                0. 08 A841 005C 0000:_AccessSeed@8
              D25333DB33C94257052C10000033FF668B386603F9D1E78BCF:
                0. 2E C035 0062 (l)0000:_gen_codes@12
            53:
              56:
                578D45F050FF751433DB53895DF0895DF8895DF4885DFFE8:
                  0. 00 0000 015E 0000:_NetpManageMachineSecret2@16
                8B:
                  750C57:
                    33FF3BF7897DF8897DFC740F8B45082BC7893E74:
                      0. 13 EAEB 012F 0000:_NetpGetLocalDomainId@8
                    6A0833C0598D7DE0F3AB6A075F8A16B3010FB6CA:
                      0. 1D 1758 009C 0000:_strtok
                  F1837E1801747EFF7608FF15........85C075718B0657:
                    0. 12 13D0 00AE 0000:?ActivateWindow@CBaseWindow@@UAEJXZ
                    1. 12 4177 00AE 0000:?ActivateWindow@CBaseWindow@@UAEJXZ
              8B5D0C5733FF85DB750AB803400080E9:
                6C010000568B75088B:
                  0. 08 5C3E 018D 0000:?NotifyAllocator@CTransInPlaceInputPin@@UAGJPAUIMemAllocator@@H@Z
                8B0100006A0453FF15:
                  0. 00 0000 01AC 0000:?NotifyAllocator@CTransInPlaceInputPin@@UAGJPAUIMemAllocator@@H@Z
            56:
              5733FF8D45E050897DF0897DF8897DFCFF15........8D45F0:
                0. 03 96B0 0177 0000:_DnscmdWmi_ProcessResetForwarders@16
              8D45F08BF150FF7608FF15........:
                837E1801741468130100:
                  0. 02 09E0 0089 0000:?PerformanceAlignWindow@CBaseWindow@@QAEJXZ
                FF7608FF15........85:
                  0. 0C 399A 006F 0000:?PerformanceAlignWindow@CBaseWindow@@QAEJXZ
            578B7D0883C9FF33C0897DE8897DE0F2AE8D4510C745EC490000:
              0. 10 35DD 003A 0000:_sscanf
            83E4F0D9C0D9542418DF7C2410DF6C24108B5424188B44241085:
              0. 55 DEB5 0075 0000:__ftol2 (l)0023:arg_is_not_integer_QnaN (l)0047:positive (l)005F:integer_QnaN_or_zero (l)0073:localexit
            8B:
              45:
                08:
                  53568B3033C9578B7D0C33DB41395F0C895DEC894DF075:
                    0. B6 79AA 0291 0000:_HostentBlob_Create@8
                  56:
                    8945E88945E0:
                      8B450CC745EC42000000:
                        03C08945E48D:
                          0. 0B C98A 0070 0000:__snwprintf
                        8945E48D4514:
                          0. 09 F590 0051 0000:__snprintf
                      8D4510C745EC42000000508D45E0FF75:
                        0. 0A E971 0052 0000:_sprintf (0027: C3)
                        1. 0A E971 006F 0000:_swprintf (0027: 4D)
                    FF75:
                      108945E88945E08D45E0FF750CC745EC42000000:
                        0. 09 C37A 0051 0000:_vsprintf (0027: C3)
                        1. 09 C37A 006E 0000:_vswprintf (0027: 4D)
                      148945E88945E08B450CFF7510:
                        03C08945E48D45:
                          0. 0A 042F 006F 0000:__vsnwprintf
                        8945E48D45E0C7:
                          0. 08 D750 0050 0000:__vsnprintf
                  5733FF3BC7897DFC750B578D45FC5057FF550CEB:
                    358945:
                      0. 06 45CE 005B 0000:_DirectDrawCreateFromDevice@12
                    378945:
                      0. 08 B069 005D 0000:_DirectDrawCreateFromDeviceEx@12
                  C745EC49000000508945E88945E0E8........D1E08945:
                    0. 0E 211A 0037 0000:_swscanf
                0C565733F633FF33C93BC6740D8B003BC674078B4D108901:
                  0. 10 E0C2 0084 0000:_NetpGetLsaHandle@12
                148365F00085C0C745EC01000000740A8B4D182BC883F905:
                  0. 06 D656 020E 0000:_Wks_RecordRead@20
                1C538B5D0C5633F689308B451889308B4510568930538D4D:
                  0. 0B 6499 01B6 0000:_RxNetUserEnum@28
              4D0C5356578D45E8508D45E4508D45E033FF508D5DF48D55F0:
                0. 0C 5529 018A 0000:_RxPrintQEnum@24
              81:
                8C0000005633F6468378180074168B809C0000008B088D55:
                  0. 70 9572 0090 0000:?DecideBufferSize@CTransInPlaceFilter@@UAEJPAUIMemAllocator@@PAU_AllocatorProperties@@@Z
                A40000005633F64683781C005774198B80A40000008B088D:
                  0. 20 C54B 00DD 0000:?DecideBufferSize@CTransInPlaceFilter@@UAEJPAUIMemAllocator@@PAU_AllocatorProperties@@@Z
            A1........:
              538B5D0C8945FC33C085DB0F84B400000056578B4B:
                0. 78 9105 00DD 0000:_HostentBlob_WriteRecords@12
              8B5508568B7510576A10598945FC6A0533C08BFAF3:
                0. 31 F724 0059 0000:_DnsAddr_BuildFromAtm@12
            B9FFFFFFFF2BC0C745EC49000000578B7D08897DE8897DE0F2AE:
              0. 12 7CB5 003E 0000:_sscanf
            FF750CE8........:
              83C4048945E485C0745A8B45088B4D108B55:
                0. 2B 785C 0094 0000:__umatherr
              85C0598945E474558B4510568945E88B4514:
                0. 2A 84B2 0088 0000:__umatherr
          24:
            33:
              C0:
                3905........8945FC8945F00F8EC30000008B4D10538B5D:
                  0. 25 92EB 00E4 0000:_MouseDown@12 (0067: 10)
                  1. 25 92EB 00E4 0000:_MouseUp@12 (0067: 20)
                  2. 25 92EB 00E4 0000:_MouseLoc@12 (0067: 40)
                538B5D1856578945F48945F88945FC8945EC8945F08945E8:
                  0. 10 1B17 050F 0000:_NetpModifyComputerObjectInDs@24
              D233C941668955DC668955DE05062500005633F6668B744DDC:
                0. 42 C256 0062 (l)0000:_make_code@16
            53:
              33DB578B7D083BFB895DF4895DFC75086A5758E90D02000056:
                0. 3F FAEC 0232 0000:_NetpGetDomainNameExExEx@20
              56:
                33F6578975F4E8........568945ECE8........6A045BFF:
                  0. 12 34F8 0129 0000:_DNSSRV_RPC_HANDLE_bind@4
                8B:
                  75:
                    08578B7D1033DB8B4D0C3BCB8B45148986A809000066:
                      0. AA D940 012F 0000:_make_tree@24
                    145733:
                      DB6A0633C0395D0C598D7DE0895DDC895DFCF3:
                        0. 13 9EB8 0112 0000:_NetpLdapBind@16
                      FF3BF77403830EFF8B450C3DE803000073078B:
                        0. 7E 9C6D 0279 0000:_RxNetServerSetInfo@16
                  D98D838000000057508945ECE8........85C0BE:
                    0. 00 0000 042D 0000:?Receive@CVideoTransformFilter@@MAEJPAUIMediaSample@@@Z
                  F1:
                    837E1C0057751468F208000068........68:
                      0. 01 3E9B 0375 0000:?ShouldDrawSampleNow@CBaseVideoRenderer@@UAEJPAUIMediaSample@@PA_J1@Z
                    8B46508B58448B450C8B088D550C52508975FC83C330:
                      0. 8A 0BAE 00BA 0000:?DrawVideoImageHere@CDrawImage@@QAEHPAUHDC__@@PAUIMediaSample@@PAUtagRECT@@2@Z
              8B:
                1D........568B750883FEFF57894DFC7405FFD38945F833:
                  0. 0C BE49 006B 0000:?WaitMsg@CAMMsgEvent@@QAEHK@Z
                5D:
                  0856578D83B905000050BE01010000568DBBBA06000057:
                    0. 01 3E9B 02A4 0000:_LoginCabinet@16
                  10:
                    56:
                      33F63BDE75086A5758E9130100008B450C83F86474:
                        0. 59 6E1A 0132 0000:_RxNetServerGetInfo@12
                      578B7D0C8B470485C08BF18B0FBA803801007C1A7F:
                        0. 51 B53B 035B 0000:?ShouldDrawSampleNow@CBaseVideoRenderer@@UAEJPAUIMediaSample@@PA_J1@Z
                    85DB750AB803400080E9B2000000568B75088D46F4F7:
                      0. 0F 993F 00CF 0000:?SetProperties@CMemAllocator@@UAGJPAU_AllocatorProperties@@0@Z
              8D45EC508D45F85033DB6A0153895DF8895DEC895DE8FF15:
                0. 00 0000 020C 0000:_DnssrvCreateAllDomainDirectoryPartitions@8
            568B:
              35........57FF75088D45DC50FFD6FF750C8D45E450FFD6:
                0. 0D 6A5C 008D 0000:_NetpAccessCheckAndAudit@20
              75086A248D45DC50FF750CFF561083C40C83F824751F817D:
                0. 19 70ED 008C 0000:_FDIIsCabinet
            578B7D1085FF750AB803400080E93C01000053566A1057FF15:
              0. 00 0000 0159 0000:?SetProperties@CMemAllocator@@UAGJPAU_AllocatorProperties@@0@Z
            8B450C53568B75088D0C06894DF88B4D1033DB3BCB57895DF474:
              0. 33 7CB9 01ED 0000:_RxpConvertErrorLogArray@16
            A1........:
              53:
                568B750C8BDE8945FC8D4B018A034384C075F92B:
                  0. 1D 7665 00CC 0000:_Dns_Ip4ReverseNameToAddress_A@8
                8B1D........568B75085768........568945FC:
                  0. 04 CD3F 00FB 0000:_NetpLogonCreateRandomMailslot@8
              8945FC:
                8B45:
                  0833C93BC17405663908750433C0EB15:
                    0. 0C 258E 0041 0000:_NetpIsDomainNameValid@4
                  0C56578BF1890633C08D7DE4ABAB66AB:
                    0. 1E F416 014E (l)0000:_WParseDate@24
                8D45DC50FF7508E8........8D45DC50FF75:
                  0. 03 83DB 003A 0000:_NetpIsDefaultPassword@8
            E8........837D10007411FF751068........FF750CFF550883:
              0. 3F B53A 0355 0000:_DnsPrint_Message@16
          28:
            53:
              56:
                33F633DB3935........8975F48975F08975FC751468:
                  0. 00 0000 0396 0000:_DnscmdWmi_ProcessEnumZones@4
                8B:
                  F08B450833DB89188BC6E8........6685C00F858D0000:
                    0. 02 0164 00C2 (l)0000:_convert_to_abs@12
                  F1837E50008975FC751468DA04000068........68:
                    0. 00 0000 00D4 0000:?DrawVideoImageHere@CDrawImage@@QAEHPAUHDC__@@PAUIMediaSample@@PAUtagRECT@@2@Z
              FF35........E8........8BD885DB74608D45D850FF35:
                0. 00 0000 007D 0000:_tkSetRGBMap@8
            56:
              33F639750875046A57EB338D45DC50FF7508FF15........8D:
                0. 11 57FC 0180 0000:_SetupUnRegisterOsComponent@4
              8B750885F67D0CDD450CD9E0F7DEDD5D0C85F67513FF7510FF:
                0. 03 4FBD 018F 0000:__jn
              FF750833F68D4DD88975FC8975F48975EC8975F08975F8E8:
                0. 00 0000 01E3 0000:_ScHelperCreateCredKeys@24
            83:
              3D........000F85A80000008D45D850FF7508E8........85:
                0. 27 912B 00C4 0000:_CreateRGBPalette@4
              65:
                D800576A0933C0598D7DDCF3AB8B450C85C08945DC5F7C50:
                  0. 44 04B8 0076 0000:_NetpAllocFtinfoEntry@20
                FC00538B5D0C85DB74048BD3EB128B45088B480450E8:
                  0. 00 0000 0093 0000:_ScHelperEncryptMessage@32
            8B:
              45:
                088B:
                  00538B5D0C568B7514578945FC6A0933C0598D7DD8F3:
                    0. 23 3E7A 00A6 0000:_HostentBlob_CreateFromIpArray@28
                  4D1C8365DC0053568B308B450C578B383BF98975D80F:
                    0. 45 6739 020A 0000:_RxpPackSendBuffer@36
                0C535633F63BC6577C0C7F0539750872058B5D08EB098B5D:
                  0. 86 59B9 02B8 0000:?llMulDiv@@YG_J_J000@Z
                10:
                  53565733FF68........897DF8C745D8........897DDC:
                    0. 09 E629 0233 0000:_NetpGetDefaultJoinableOu@12
                  565733FF3BC7BE02000080897DFC897DF08975EC8975F8:
                    0. 29 AD09 0290 0000:_NetpExpandConfigString@12
              48088365FC00894DE08B480C538B18894DEC8B48185657894D:
                0. FF 299F 01A4 (l)0000:_gen_bitlen@8
              4D0CF6C10266C745D8280066C745DA0100C745DC2400000074:
                0. 78 3EFC 00A2 0000:_FindBestPixelFormat@12
            A1........:
              53:
                568B750833DB3BF38945FC75046A57EB268D45D8:
                  0. 0F B119 018D 0000:_SetupQueryRegisteredOsComponentsOrder@8
                5733FF33DB393D........8945FC897DF0897DF8:
                  0. 0C 6D7E 01AA 0000:_DnscmdWmi_ResetProperty@16
                8945FC578D450850FF7508E8........33FF397D:
                  0. 19 DAC3 0138 0000:?LogEvent@@YGJJK@Z
              5633F683F80375118D45D850FF750CFF7508E8:
                0. 00 0000 008E 0000:_FindPixelFormat@8
              6A026A016A00FF750C8945FC8D45D8508D45DC50C7:
                0. 07 99D4 0047 0000:_Dns_Ip4ReverseNameToAddress_W@8
              8B4D088B55148365EC0083FA01538945FC8B450C56:
                0. 38 1FA2 00FE 0000:_Dns_WriteRecordToString@20
              FF75108945FC8D45D850FF7508FF15........83C4:
                0. 09 FA18 003C 0000:_ultow@12
            FF75108D:
              45D850FF7508E8........83C40C8D45D86A2850FF75:
                0. 02 A1CD 002E 0000:__ltow (REF 0011: __ltoa)
                1. 02 A1CD 002E 0000:__ultow (REF 0011: __ultoa)
              4DD851FF7508E8........83C40C8D4DD86A2851FF75:
                0. 02 A1CD 0030 0000:__ltow (REF 0011: __ltoa)
                1. 02 A1CD 0030 0000:__ultow (REF 0011: __ultoa)
          2C:
            53:
              33DB:
                395D080F8410010000391D........0F85040100008D45:
                  0. 06 B30E 012C 0000:_CreateCIPalette@4
                565768........C745D4........895DD8895DE4895DF0:
                  0. 0D 5934 024D 0000:_NetpGetListOfJoinableOUsNonPaged@16
                F7452400F0FF7F895DF874086A5758E9160300008B450C:
                  0. 17 8297 03A6 0000:_NetpwListCanonicalize@32
              56:
                33F63935........57741C8D45F050FF35........FF15:
                  0. 00 0000 00A8 0000:_tkExec@0
                57:
                  8B7D08FF771033DB895DE8FF15........8BF033C9413B:
                    0. 49 EE63 024C 0000:_NtProcessStartup@4
                  8D45D48BF150FF761CFF7604FF15........33FF397E68:
                    0. 22 DA86 00F7 0000:?DoCreateWindow@CBaseWindow@@QAEJXZ
                8B:
                  7508:
                    837E042C577508813E00000100720B6A07598D7DDC:
                      0. 17 E524 0070 0000:_MakeCredKey@4
                    8B06578BD98D4DEC518D4DE45156FF50148BF8F7DF:
                      0. 4D 7DDA 01AE 0000:?Copy@CTransInPlaceFilter@@IAEPAUIMediaSample@@PAU2@@Z
                  F133DB395E14750AB834020480E9850000008B46288D4D:
                    0. 0A 6ADD 00A4 0000:?Invoke@CDeferredCommand@@QAEJXZ
              8B5D148B430C5633F6578B7B043BFE8975F88975D88975F489:
                0. 1C 1F06 020B 0000:_SaBlob_CreateHostent@28
            56:
              33F639750C578B7D1075223935........741A3BFE75165668:
                0. 00 0000 005A 0000:_Dns_AcquireCredHandle@12
              578D45:
                D48BF150FF761CFF7604FF15........33FF397E5C74:
                  0. 21 7C20 00BE 0000:?DoCreateWindow@CBaseWindow@@QAEJXZ
                FC50FF750833F68975FC8975F48975F8E8........8B:
                  0. 1A A054 02B2 0000:_NetpManageMachineAccountWithSid@32
            57:
              33FF47:
                817D0C00010000897DFC7E14681108000068:
                  0. 01 361F 016C 0000:?MakeIdentityPalette@CImagePalette@@SGJPAUtagPALETTEENTRY@@HPAD@Z
                837D0C0A897DFC7D078BC7E9300100005333DB395D10:
                  0. 02 95D4 014F 0000:?MakeIdentityPalette@CImagePalette@@SGJPAUtagPALETTEENTRY@@HPAD@Z
              6A2CFF750833FFFF750C897DF4897DFC897DF8FF15:
                0. 09 5F16 01C3 0000:_NetpStopService@8
            8B450853568B751833DB837D0CFF57895DFC8945F08975F4740E:
              0. 07 D615 01B5 0000:?WaitDispatchingMessages@@YGKPAXKPAUHWND__@@I0@Z
            A1........:
              56578B7D0C4FC1EF0447C1E7046A008945FC5E0F84:
                0. 1B 072D 00D0 0000:_NetpHexDump@8
              8365DC00538945FCE8........8B5D1485DB8B4510:
                0. 07 3673 0149 0000:_DnsPrint_RpcZone@16
          30:
            53:
              33:
                D239550856570F848A0100008B5D183BDA0F847F0100008B:
                  0. 50 D6AA 01AA 0000:?CopyImage@CBaseControlVideo@@QAEJPAUIMediaSample@@PAUtagVIDEOINFOHEADER@@PAJPAEPAUtagRECT@@@Z
                DB391D........741168........6802000800E8:
                  0. 09 D489 0527 0000:?EnumeratePluggableSuperclasses@CMSPAddress@@UAGJPAPAUIEnumPluggableSuperclassInfo@@@Z
              56:
                5768........6A056A02E8........8B5D1833F683C40C3B:
                  0. 02 1087 01F2 0000:?CopyImage@CBaseControlVideo@@QAEJPAUIMediaSample@@PAUtagVIDEOINFOHEADER@@PAJPAEPAUtagRECT@@@Z
                8B75088B06578BD98D4DE8518D4DE05156FF50148BF8F7DF:
                  0. 4F 18E2 0212 0000:?Copy@CTransInPlaceFilter@@IAEPAUIMediaSample@@PAU2@@Z
              8B5D1033D23BDA568B75148955FC75273BF275238D45FC508D:
                0. 09 29B5 0094 0000:_DnssrvEnumZonesEx@24
            5633F639750C578975EC8975E08975DC8975F08975F88975E489:
              0. 19 6CA0 06DD 0000:_NetpGetComputerObjectDn@28
            5733FF8D45E050897DF8897DF0897DFCFF15........8D45F050:
              0. 04 EF25 01C9 0000:_DnscmdWmi_ProcessDnssrvOperation@16
            8365FC00568B7508576A006802800000FF750CFF560C8BF883C4:
              0. FF 3C5F 012F 0000:_FDITruncateCabinet
            8B45:
              0C:
                53568B75088B9E5804000003C38945EC8D868409000033:
                  0. 23 BAD7 07EF 0000:_opt_encode_top@8
                85C0570F84860000008B7D1085FF7507B803400080EB7A:
                  0. 7F 018B 009F 0000:?GetProperties@CMediaSample@@UAGJKPAE@Z
              108B550856578BF98B4D0C48488D770489378955F8894DFC:
                0. 05 C202 008C 0000:??0CDisp@@QAE@_JH@Z
            8D45D050FF7508FF750CE8........8D45E850FF7510FF750CE8:
              0. 00 0000 0040 0000:_perpnorm@16
            A1........:
              538B5D0C85DB8945FC75086A5758E9820000008323:
                0. 17 8767 00AD 0000:_NetpGetPrimaryGroupFromMacField@8
              56:
                33F68945FC8975E88975E0FF15........25FF03:
                  0. 82 FFF9 03CA 0000:_GetToken@16
                57FF75148945FCFF750C8D45D833FF68:
                  0. 09 7141 014E 0000:_NetpDsGetDcName@28
                8B750885F68945FC742266833E6D751C56FF15:
                  0. 00 0000 007E 0000:_NetpIsMacPrimaryGroupFieldValid@4
              69C0C800000033C95605........390D........57:
                0. 9F E8F0 00C9 0000:_m_xformpt@16
              8365D000:
                568945FC8D45D4506802000080FF7508FF:
                  0. 01 54B7 00B6 0000:_NetpGetDefaultLcidOnMachine@8
                8945FC568D45DC57C645DA00C645DB0089:
                  0. 03 1AAA 0348 0000:_NetpValidateName@20
          34:
            53:
              33DB391D........741168........6802000800E8:
                0. 09 C8DB 0596 0000:?get_PluggableSuperclasses@CMSPAddress@@UAGJPAUtagVARIANT@@@Z
              56:
                576A3033F68D45CC505656565668........68........68:
                  0. 00 0000 0124 0000:_RxNetRemoteTOD@8
                8B75088D04768D0485100000005033DB53FF15........3B:
                  0. 08 0C3B 01CA 0000:_NetpGetPrivilege@8
            56:
              578BF133FF397E10750AB834020480E9150100008B46208945:
                0. 1D 4F7F 0134 0000:?Invoke@CDeferredCommand@@QAEJXZ
              8B75088B065733FF3BC7897DFC89450875086A0E58E9510100:
                0. 22 133E 0178 0000:_Dns_ServerAcceptSecurityContext@8
            83:
              65F8008365F400538B5D0C5657C745FC010000008D45CC506A:
                0. 09 E364 011F 0000:_FindExactPixelFormat@12
              7D:
                1000A1........8945FC8B450C74236A036A03FF7510C745:
                  0. 0F 20E6 004F 0000:_Dns_Ip6StringToAddressEx_A@12
                1400A1........8945FC7507C74514........56578B7D10:
                  0. 05 052C 00A3 0000:_DnsPrint_Ip6Array@20
            A1........:
              538B5D:
                08565733FF3BDF8945FC8B4514897DD4897D:
                  0. 0B B496 01F7 0000:_RpcpBindRpc@16
                105657BF........2B7D1485DB8945FC7505:
                  0. 01 20FB 00F3 0000:_DnsPrint_Sockaddr@24
              56578B7D1085FF8945FC7505BF........8B75:
                1485:
                  0. 04 CDD4 0115 0000:_DnsPrint_Hostent@20
                1885:
                  0. 04 475B 006E 0000:_DnsPrint_Ip6Address@20
              8365CC0056578945FC6A0833C0598D7DD0F3AB8B45:
                0. 26 367F 00D7 0000:_Dns_ParseSigTime@8
              8945FC8B451083C018508D45CC50E8........8D45:
                0. 03 4C55 003C 0000:_AaaaRecordPrint@12
          38:
            5333DB68........895DF4895DF8895DFCFF15........3BC389:
              0. 1A 8C1D 01CC 0000:?printWmiObjectProperties@@YGJPAUIWbemClassObject@@@Z
            5733FF393D........897DF8897DD8897DE8897DE4897DDC897D:
              0. 07 8964 02A3 0000:_DnscmdWmi_ProcessResetZoneSecondaries@28
          3C:
            33C9394D0C74:
              05394D10750AB803400080E9B0000000538B5D14:
                0. 4A 9EFD 00D0 0000:?GetRestorePosition@CBaseControlWindow@@UAGJPAJ000@Z
              0A394D107405394D14750AB803400080E9CC0000:
                0. 21 F546 00F1 0000:?GetRestorePosition@CBaseControlWindow@@UAGJPAJ000@Z
            53:
              56:
                33:
                  C05733FF397D10897DD80F95C033C941897DD4897DD089:
                    0. 41 3002 0240 0000:_RxpConvertDataStructures@44
                  DB5733F668........C745C4........895DC8895DE489:
                    0. 0F 1CA3 02F5 0000:_NetpGetListOfJoinableOUsPaged@16
                5733F6568975FCFF15........68........8BD8C705:
                  0. 00 0000 028B 0000:_tkInitWindowAW@8
              578D45FC33DB50895DFC895DF8E8........8BF83BFB0F8C8F:
                0. 04 2B0F 01E1 0000:_KerbChangePasswordUser@16
            A1........8365E800538B5D0856576A098945FC5933C08D7DC4:
              0. 1A DFF7 00C7 0000:_HostentBlob_Localhost@4
          40:
            5356:
              57:
                33DB33C0895DD88D7DDCABAB8D45F8506A016A04895DF8:
                  0. 0E 7C03 0219 0000:_NetpSetDnsHostNameAndSpn@20
                FF750833DB8D4DC0895DF8895DF4895DFCE8........8B:
                  0. 2D 3EA6 0165 0000:_ScHelperDecryptMessage@32
              8B750C33DB33C03BF3895D0C0F8490000000578B7D088B4E:
                0. 3A 91A6 00B0 0000:_SaBlob_WriteRecords@12
            6A00:
              6A00FF75:
                0C8D45C050E8........6A038D45C050FF7508E8:
                  0. 00 0000 0028 0000:_DnsAddrArray_ContainsIp6@8 (REF 0020: _DnsAddrArray_ContainsAddr@12)
                  1. 00 0000 0028 0000:_DnsAddrArray_DeleteIp6@8 (REF 0020: _DnsAddrArray_DeleteAddr@12)
                108D45C0FF750C50E8........85C07411FF7514:
                  0. 0A F5EF 0032 0000:_DnsAddrArray_AddSockaddr@16
              FF75:
                088D45C050E8........FF751C8D45C0FF7518FF7514:
                  0. 08 5F0E 0030 0000:_Dns_ServerNegotiateTkey_Ip4@24
                0C8D45C050E8........:
                  6A038D45C050FF7508E8:
                    0. 00 0000 0026 0000:_DnsAddrArray_ContainsIp4@8 (REF 001E: _DnsAddrArray_ContainsAddr@12)
                    1. 00 0000 0026 0000:_DnsAddrArray_DeleteIp4@8 (REF 001E: _DnsAddrArray_DeleteAddr@12)
                  FF75:
                    108D45C06A0050FF7508:
                      0. 01 3E9B 0029 0000:_DnsAddrArray_AddIp4@12
                    148D45C0FF751050FF75:
                      0. 02 C1AA 002A 0000:_Dns_FindSecurityContextFromAndVerifySignature_Ip4@16
                108D45C0FF750C50E8........FF75148D45C06A0050:
                  0. 04 EF25 002C 0000:_DnsAddrArray_AddIp6@16
            837D0800750433C0EB6856578B7D0C6683FF0174056685FF755C:
              0. 08 3E22 00A0 0000:_Dns_CreateRecordForIpString_W@12
            8B4508:
              85C074508B480485C97449836508008D51FF85D2763E53:
                0. 41 00E2 0061 0000:_DnsAddrArray_Reverse@4
              8B108365EC008365FC0085D2538B581C8955F0750CC745:
                0. 27 F4B7 032A 0000:_Dns_VerifySignatureOnPacket@4
            A1........:
              538945FC8B45088B00568B750C33D233DB3BF25789:
                0. 1E A7DA 0194 0000:_HostentBlob_CreateFromRecords@20
              56578B7D1085FF8945FC7505BF........8B751485:
                0. 05 1EC8 00D4 0000:_DnsPrint_NetworkInfo@16
          44:
            53:
              33DB391D........5657741168........6802000800E8:
                0. 00 0000 067F 0000:?EnumeratePluggableTerminalClasses@CMSPAddress@@UAGJU_GUID@@JPAPAUIEnumPluggableTerminalClassInfo@@@Z
              5633DB33F646395D14895DF48975F0895DEC75086A5758E919:
                0. 48 BF0B 0354 0000:_RxNetServerEnumWorker@44
            56:
              57FF15........8B3D........8BF0:
                668B06663D2200751D56:
                  0. 4C 1361 0099 0000:_DummyEntry@0
                8A063C22751756FFD78B:
                  0. 3C D353 0089 0000:_DummyEntry@0
              8BF18B46:
                5C3B46547F167C088B46583B4650770C8B068BCEFF:
                  0. 39 BA02 02BF 0000:?Process@CPullPin@@AAEXXZ
                743B466C7F167C088B46703B4668770C8B068BCEFF:
                  0. 3C B542 02C8 0000:?Process@CPullPin@@AAEXXZ
            8365FC005356578B7D0833D285FF8BCF742D8B410C83E0037405:
              0. 0D 4637 00FE 0000:_SaBlob_CreateFromRecords@12
            A1........:
              568B7508578945FC6A1033C0598D7DBCF3AB8A450C:
                0. 13 A359 0058 0000:_NetpNetBiosDelName@8
                1. 13 B3D7 0064 0000:_NetpNetBiosAddName@12
              57:
                6A10596A038945FC33C06A0BFF750C8D7DBCF3AB:
                  0. 05 4425 0080 0000:_NetpNetBiosCall@16
                8945FC:
                  33C06A10598D7DBCF3AB8A45088845EC8A:
                    0. 1C 1A4F 0060 0000:_NetpNetBiosSend@16
                    1. 22 61CC 0070 0000:_NetpNetBiosReceive@24
                  6A1033C0598D7DBCF3AB:
                    32C08845BE8845:
                      0. 1B 8BA5 0052 0000:_NetpNetBiosReset@4
                    8A45088845EC8A:
                      0. 0E 3D13 0052 0000:_NetpNetBiosHangup@8
                    8B45088945C066:
                      0. 10 2FE4 0047 0000:_NetpNetBiosGetAdapterNumbers@8
              8945FC5356578B454433DB89188B454889188B453C:
                0. FF 7D75 0694 0000:_RxpConvertArgs@72
          48:
            538B5D145733FF3BDF750AB803400080E9:
              01010000568B75088B:
                0. 0C 71E4 0122 0000:?GetVideoPaletteEntries@CBaseControlVideo@@UAGJJJPAJ0@Z
              F0000000568B75088B:
                0. 1E F6A9 0111 0000:?GetVideoPaletteEntries@CBaseControlVideo@@UAGJJJPAJ0@Z
            56:
              33F6397510750AB803400080E9B5000000538B5D088BCBE8:
                0. 00 0000 00D2 0000:?Next@CEnumMediaTypes@@UAGJKPAPAU_AMMediaType@@PAK@Z
              578BF98BB7:
                A000000083C65856FF15........8D4DB8E8:
                  0. 00 0000 005D 0000:?CheckMediaType@CSourceStream@@MAEJPBVCMediaType@@@Z
                A800000083C6588BCEE8........8D4DB8E8:
                  0. 00 0000 005D 0000:?CheckMediaType@CSourceStream@@MAEJPBVCMediaType@@@Z
              6A00FF75088BF18D4DB8E8........8D45B8508BCEE8:
                0. 00 0000 0059 0000:?ChangeOutputFormat@CDynamicOutputPin@@QAEJPBU_AMMediaType@@_J1N@Z
              8BF18B0657FF506484C0BF........751068051100005768:
                0. 00 0000 008F 0000:?ChangeOutputFormat@CDynamicOutputPin@@QAEJPBU_AMMediaType@@_J1N@Z
            578B7D0C85FF750433C0EB46568B75088BCEE8........83F801:
              0. 10 761B 005D 0000:?Skip@CEnumMediaTypes@@UAGJK@Z
            837D:
              0C00A1........8945FCC745B8200000007437837D100074:
                0. 13 3611 0061 0000:_CM_Get_Class_Name_ExA@20
              1000750AB803400080E91D01000053568B750C57C1E60256:
                0. 05 4633 0137 0000:?Next@CEnumMediaTypes@@UAGJKPAPAU_AMMediaType@@PAK@Z
            A1........:
              53:
                33DB391D........8945FC895DF8895DD0895DD4:
                  0. 18 B0EA 0365 0000:_DnscmdWmi_ProcessRecordAdd@20
                568B7508578BF968........578945FC8BDAFF15:
                  0. 00 0000 02B5 (l)0000:_setup_data@28
              8945FC5356578D45DC8945D433C033DB895DB88D7D:
                0. 0A 0EF4 0120 0000:_NetpUpgradePreNT5JoinInfo@0
          4C:
            5356:
              33F63935........577509E8........85C0750BE8:
                0. 00 0000 00B3 0000:_Dns_FindSecurityContextFromAndVerifySignature@16
              578BF98B8FA4000000897DECE8........8BF033C0394754:
                0. 27 65E9 01B1 0000:?InitializeOutputSample@CTransformFilter@@QAEJPAUIMediaSample@@PAPAU2@@Z
              8B:
                35........5733DB395D186A0B895DFC895DF85F8D45DC:
                  0. 13 A992 0275 0000:_KerbSetPasswordUserEx@20
                B18C0000008B86B000000033D281C6A800000039515457:
                  0. 5E AD1B 0158 0000:?InitializeOutputSample@CTransformFilter@@QAEJPAUIMediaSample@@PAPAU2@@Z
            A1........:
              5333DB8945FC8B45205689188B451C5733FF33F639:
                0. 29 C42C 01FD 0000:_RxNetServerEnum@40
              568B7514568945FCE8........85C074155056FF75:
                0. 08 2929 08C8 0000:_DnsPrint_RpcSingleStat@16
              8365:
                B800538B5D1C5657FF75088945FCFF15:
                  0. 00 0000 0328 0000:_NetpEventlogWriteEx2@36
                C000538B5D0856578945FC33C08D7DC4ABABAB:
                  0. 15 7945 0147 0000:_NetpUnJoinDomain@16
          50:
            5356576A085933C08D7DD66A08F3AB8B4D0C5A0FB6018D4445D4:
              0. F3 F9C3 0113 0000:_make_table_8bit@12
            56:
              576A288D45B08BF150FF75088D7E04893EFF15........8D45:
                0. 03 3770 0039 0000:??0CDisp@@QAE@ABU_GUID@@@Z
              8D45FC506A0133F65668........68010000808975FCFF15:
                0. 00 0000 00B6 0000:_GetRegistrySysColors@8
            6A508D45B0FF750850E8........83C40C8D45B050E8:
              0. 03 1430 0023 0000:__wtoi64
            8B45088365B8008945B08B450C568B751483E0015785F68945B4:
              0. 03 6A07 005B 0000:_RaiseException@16
            A1........53568B750C8BDE8945FC8D4B018A034384C075F92B:
              0. 1D 1D2A 00E2 0000:_Dns_Ip6ReverseNameToAddress_A@8
            FF75148D:
              45B050FF750CFF7508E8........83C4108D45B06A50:
                0. 05 7538 0031 0000:__i64tow (REF 0014: __i64toa)
                1. 05 7538 0031 0000:__ui64tow (REF 0014: __ui64toa)
              4DB051FF750CFF7508E8........83C4108D4DB06A50:
                0. 05 3133 0033 0000:__i64tow (REF 0014: __i64toa)
                1. 05 3133 0033 0000:__ui64tow (REF 0014: __ui64toa)
          54:
            8B45:
              088B00565733F63BC66A0D5F8945FC750AB839230000E98D:
                0. 14 C3CD 03B6 0000:_Dns_SignMessageWithGssTsig@16
              24832000837D0800538B5D1C5657750AB803400080E96003:
                0. 12 8ACB 048A (l)0000:?_com_invoke_helper@@YGJPAUIDispatch@@JGGPAXPBGPADPAPAUIErrorInfo@@@Z
            A1........:
              5356578B7D1033DB3BFB8945FC7505BF........8B:
                0. 08 A1B4 00B6 0000:_DnsPrint_WsaServiceClassInfo@20
              568B751085F68945FC7505BE........837D140075:
                0. 03 62E4 005F 0000:_DnsPrint_Guid@16
              6A026A016A00FF750C8945FC8D45AC508D45B050C7:
                0. 07 B7D7 0047 0000:_Dns_Ip6ReverseNameToAddress_W@8
          58:
            33C053568B7510568945F08945F48945FC8945E08945DC8945F8:
              0. 08 DF5D 03C1 0000:_NetpSetMachineAccountPasswordAndTypeEx2@20 (0398: 00)
              1. 08 DF5D 03F1 0000:_NetpSetMachineAccountPasswordAndTypeEx@24 (0398: F4)
            5333DB391D........5657741168........6802000800E8:
              0. 00 0000 068B 0000:?get_PluggableTerminalClasses@CMSPAddress@@UAGJPAGJPAUtagVARIANT@@@Z
            837D0C00A1........8945FCC745A8270000007437837D100074:
              0. 13 5609 0061 0000:_CM_Get_Class_Key_Name_ExA@20
            8B451053568B750C0FB7088B065748894D10742B48742448741D:
              0. 2F 7B3A 00D1 0000:__87except
            A1........53565733F68945FC46568D45F433DB508D45A85088:
              0. 14 CD0C 0144 0000:_NetpAccountControlToFlags@8
            FF75:
              208D451850FF7508E8........83C40C85C075228D451883:
                0. 17 62F5 0097 0000:__except1
              288D452050FF7508E8........83C40C85C075308B45E00C:
                0. 25 A61A 00A6 0000:__except2
          5C5356576A1059FF750833DB33C0895DA48D7DA8F3AB8D4DE8E8:
            0. 00 0000 0111 0000:_ScHelperSignPkcsMessage@40
          64:
            5356:
              33DB578D4DB8895DFC895DF8895DF4E8........8D4DCCE8:
                0. 00 0000 01C3 0000:?BuildCertContext@@YGJKPAU_UNICODE_STRING@@PAEKPAPBU_CERT_CONTEXT@@@Z
              8BF1837E7400BB........751068110600005368:
                0. 01 3E9B 00D5 0000:?Alloc@CImageAllocator@@MAEJXZ
            568BF1E8........85C07C4BEB3F8D459C50FF76408BCEE8:
              0. 00 0000 0079 0000:?Alloc@CImageAllocator@@MAEJXZ
            A1........568B750C85F68945FC740A8B450883260085C07505:
              0. 3A 847C 0076 0000:_NetpNumberOfConfigKeywords@8
          68:
            5356578B7D0CB8000200003BF80F87B90200000F847602000083:
              0. 32 7D77 041B 0000:_tkWndProc@16
            A1........:
              53:
                568B750C578B3D........8945FC8D45A8508D5E:
                  0. 09 9440 016C 0000:_pGetComponentData@8
                8B5D0C5633F63975188945FC89759C7430397514:
                  0. 1B 4A1B 0136 0000:_Dns_StringToDnsAddrEx@20
              56FF750C8B35........8945FCFFD683F814590F87:
                0. 2B C3EB 01CE 0000:_RxNetUserPasswordSet@16
              8945FC8D4598508D45A8508D45B8508D4508508D45:
                0. 24 6D80 0076 0000:_NetpGetWinRegConfigMaxSizes@12
              8B4D14538B198B4D0C8945FC568B3133C039451C57:
                0. 26 D1AD 013C 0000:_Dns_StringToAddressEx@24
          6CA1........5333DB568B75083BF38945FC57895DC4895DCC895D:
            0. 1E DFE1 02A6 0000:_NetpRdrFsControlTree@40
          70:
            837D0810A1........53568945FC570F85E6030000837D0C080F:
              0. 12 254C 0415 0000:_SmbTraceStart@20
            A1........5657BE........8D7DACA5A5A5A566A58945FC6A0F:
              0. 1C CD7C 02E2 0000:_DnsPrint_RpcServerInfo@16
          74568BF18D86A000000050E8........85C0751468D704000068:
            0. 00 0000 0127 0000:?SendEndOfStream@CBaseRenderer@@UAEJXZ
          78:
            53:
              56576A64FF35........33DB895DA0FF15........6A048945:
                0. 07 3BB1 01FD (l)0000:_DoScreenSave@4
              8B5D08565733FF85DB897DF80F8E94010000C745F401000000:
                0. FF 9F4A 035B 0000:_subdivide@36
            A1........5633F63975108945FC570F8465010000FF75108B3D:
              0. 00 0000 0191 0000:_NetpValidateMachineAccount@16
          7C:
            566A056A028BF1E8........85C00F8412010000837D08007514:
              0. 06 E9D3 0131 0000:?DisplaySampleTimes@CDrawImage@@IAEXPAUIMediaSample@@@Z
            8B45085356:
              3D8E0000C057741C3D8F0000C074153D900000C074:
                0. 8B 55AA 052D 0000:__fpieee_flt
              578BF18B088D7E18578D5E105350FF51148D45E850:
                0. 08 5F80 00CC 0000:?DisplaySampleTimes@CDrawImage@@IAEXPAUIMediaSample@@@Z
      8A:
        013C7A74153C6374116A028D45085051894D08E8........EB09FF75:
          0. 02 C1AA 002B (l)0000:_RxpFieldSize@8
        4508:
          8841295DC20400:
            0. 00 0000 000D 0000:?SetReconnectWhenActive@CBasePin@@QAEX_N@Z
          A2........5DC20400:
            0. 00 0000 000F 0000:?DbgSetAutoRefreshLevels@@YGX_N@Z
      8B:
        118B4508891089015DC20400:
          0. 00 0000 0010 0000:?InsertAfter@CAdvisePacket@CAMSchedule@@QAEXPAV12@@Z
        41:
          043B017D118B51088B4508895008FF4104894108EB0E8B4D0885C9:
            0. 05 1CA4 002D 0000:?AddToCache@CNodeCache@CBaseList@@QAEXPAVCNode@2@@Z
          4485C0741D837D0801750583C110EB038B4D108B1051FF750CFF75:
            0. 10 3686 0030 0000:?NotifyEvent@CBaseFilter@@QAEJJJJ@Z
        45:
          08:
            0FB70883F9025657751B50E8........837D1801507507E8:
              0. 00 0000 0072 0000:_Dns_CreatePtrRecordEx@20
            484874584874086A7C58E98E0000008B4D1485C9B8........74:
              0. 0C 1C8F 00A7 0000:_NetpFileStructureInfo@36
            53:
              33DB3BC35657742C395D0C74273B450C742B8B70043BF3761B:
                0. 0B B431 0049 0000:_DnsAddrArray_IsIntersection@12
              56:
                33F62BC6570F84950000004874554874086A7C58E9FB0000:
                  0. 05 6E1B 0123 0000:_NetpServiceStructureInfo@36
                578B784485FF8B450C8B58448BF17514683207000068:
                  0. 00 0000 00EA 0000:?PreparePalette@CImagePalette@@QAEJPBVCMediaType@@0PAD@Z
                8BF1C706........8946085733FF3BC7897E10897E14897E:
                  0. 1B F3BD 006E 0000:??0CDrawImage@@QAE@PAVCBaseWindow@@@Z
                998BF1B910270000F7F957BBE80300008BF83BFBB818FCFF:
                  0. 9A F4BB 00E3 0000:?RecordFrameLateness@CBaseVideoRenderer@@UAEXHH@Z
            56:
              33F62BC6570F8456020000480F84D2010000480F8433010000:
                0. 3B 4297 02E1 0000:_NetpPrintQStructureInfo@56
              578D5508528BF18B0850FF5124837D0801BF........741683:
                0. 0C 6C4A 0068 0000:?CheckConnect@CBasePin@@UAEJPAUIPin@@@Z
              6A0099681027000052508BF1E8........89068956048BC65E:
                0. 04 057A 0024 0000:??0CRefTime@@QAE@J@Z
              8B:
                3085F6746C8B4D103B4E0C77108B450C72053B4608730689:
                  0. 40 1C3B 0080 0000:_JoinRange@20
                75:
                  0C3B70147E258B0850FF51103BF07E14684B0E000068:
                    0. 00 0000 003E 0000:?SetActualDataLength@CMediaSample@@UAGJJ@Z
                  108B0E3BC872318B550C578BF92BF83BD75F76242BC103:
                    0. 2D 3E2A 004D 0000:_NetpLogonGetOemString@20
                F1FF7604894610FF15........8D4E08E8........5E5DC2:
                  0. 02 2768 0022 0000:?Reply@CAMThread@@QAEXK@Z
              8D550852:
                68........8BF18B0850FF1185C07C198B45088B08:
                  0. 1E D3DD 0047 0000:?SendNotifyWindow@CBaseRenderer@@QAEXPAUIPin@@PAUHWND__@@@Z
                8BF18B0850FF51248B45083B461C5E7507B8080204:
                  0. 09 05FB 0029 0000:?CheckConnect@CBasePin@@UAEJPAUIPin@@@Z
              FF751C8B75100130836510008D4D105156FF750CFF7004FF55:
                0. 12 667D 0041 0000:_WriteCount@24
            57:
              33FF2BC70F8432030000480F84AB02000083E8630F842C0200:
                0. 3B 6772 03CF 0000:_RxGetServerInfoLevelEquivalent@56
              8B7D0C3B:
                C7750533C040EB388B08568D550852BE........56:
                  0. 30 187B 0050 0000:?IsEqualObject@@YGHPAUIUnknown@@0@Z
                F8763D8B4D105603C853894D0C8B5D088B750C3BF7:
                  0. 1A C50F 004E (l)0000:_shortsort
            66:
              83783E08760A83785000750433C0EB0333C0405DC20400:
                0. 00 0000 001E 0000:_ContainsPalette@4
              8B:
                483E6683F908760D83785000744368........EB2C837840:
                  0. 04 21BD 0060 0000:?CheckPaletteHeader@CImageDisplay@@SGHPBUtagVIDEOINFO@@@Z
                4D0CFF751C668948028A4D100A4D14C600:
                  008848018B4D18:
                    0. 0C 48FB 003B 0000:_NetpInitializeAllowedAce@24
                  018848018B4D18:
                    0. 0C 48FB 003B 0000:_NetpInitializeDeniedAce@24
                  028848018B4D18:
                    0. 0C 48FB 003B 0000:_NetpInitializeAuditAce@24
            6A006810270000FF7004FF30E8........5DC20400:
              0. 00 0000 001B 0000:?ConvertToMilliseconds@@YG_JAB_J@Z
            8138:
              4C43494375138B480C394D10770B81C100180000394D1873:
                0. 16 AA64 0052 0000:_LCICompress
              5144494374046A02EB118B4D18A3........8B093B480C76:
                0. 11 E797 003F 0000:_QDIDecompress
            83:
              78:
                18007E14FF7514FF701CFF7510FF750CE8........89450C:
                  0. 07 A369 0027 0000:_Txt_StringWrite@16
                40038B483075068D44013CEB048D4401305DC20400:
                  0. 00 0000 001D 0000:_GetBitmapPalette@4
              C0:
                1050FF15........5DC20400:
                  0. 00 0000 0014 0000:?AddRef@CEnumMediaTypes@@UAGKXZ
                1450FF15........5DC20400:
                  0. 00 0000 0014 0000:?AddRef@CEnumPins@@UAGKXZ
                1C5DC20400:
                  0. 00 0000 000D 0000:?NextSample@CBaseAllocator@@CGAAPAVCMediaSample@@PAV2@@Z
                4450FF15........5DC20400:
                  0. 00 0000 0014 0000:?AddRef@CMediaSample@@UAGKXZ
              E800:
                0F8402010000480F84B400000048745D83E80874086A7C:
                  0. 0C 1FCA 015E 0000:_NetpSessionStructureInfo@36
                560F84:
                  29010000480F84BD0000004874654874086A7C58:
                    0. 0B D7BA 0198 0000:_NetpPrintDestStructureInfo@44
                  3C010000480F84D100000048746C4874086A7C58:
                    0. 0E 9AE2 019C 0000:_NetpPrintJobStructureInfo@44
              F865:
                0F87B40100000F846A01000033D22BC20F840C01000048:
                  0. 26 2D6F 031C 0000:_NetpWkstaStructureInfo@36
                7727741D83E800743448743183E809742C83E85A75278B:
                  0. 59 DFEB 0079 0000:_RxpGetWkstaInfoLevelEquivalent@12
            85C0:
              568BF174538B480485C975088B4808894E04EB068B500889:
                0. 20 DA8B 0065 0000:?RemoveI@CBaseList@@IAEPAXPAU__POSITION@@@Z
              74:
                038B400C5DC20400:
                  0. 00 0000 0011 0000:?GetI@CBaseList@@IBEPAXPAU__POSITION@@@Z
                2F8B50048365080085D2535657761C83C0088B750C6A04:
                  0. 22 314F 0042 0000:_Ip6Array_ContainsIp@8
              75:
                05:
                  214120EB0AC74120010000008941285DC20400:
                    0. 00 0000 001D 0000:?SetSampleSize@CMediaType@@QAEXK@Z
                  8B41:
                    04EB038B40085DC20400:
                      0. 00 0000 0016 0000:?Next@CBaseList@@QBEPAU__POSITION@@PAU2@@Z
                    08EB038B40045DC20400:
                      0. 00 0000 0016 0000:?Prev@CBaseList@@QBEPAU__POSITION@@PAU2@@Z
                07B803400080EB4B8B500856578B383BFA7F398B70048B:
                  0. 15 A29D 0060 0000:?CheckTargetRect@CBaseControlVideo@@UAEJPAUtagRECT@@@Z
                0C64A1240100008B80C001000050E8........5964A124:
                  0. 0C 6158 002C 0000:__freeptd
            89:
              015DC20400:
                0. 00 0000 000C 0000:?SetFOURCC@FOURCCMap@@QAEXK@Z
              41:
                045DC20400:
                  0. 00 0000 000D 0000:?SetPrev@CNode@CBaseList@@QAEXPAV12@@Z
                085DC20400:
                  0. 00 0000 000D 0000:?SetNext@CNode@CBaseList@@QAEXPAV12@@Z
                0C:
                  5DC20400:
                    0. 00 0000 000D 0000:?SetData@CNode@CBaseList@@QAEXPAX@Z
                  8B450C89411489411033C05DC20800:
                    0. 00 0000 0018 0000:?SetPointer@CMediaSample@@QAEJPAEJ@Z
                108B450C89411433C0405DC20800:
                  0. 00 0000 0016 0000:?OnSize@CBaseWindow@@UAEHJJ@Z
                245DC20400:
                  0. 00 0000 000D 0000:?SetTemporalCompression@CMediaType@@QAEXH@Z
                4C5DC20400:
                  0. 00 0000 000D 0000:?NotifyAllocator@CDrawImage@@QAEXH@Z
                505DC20400:
                  0. 00 0000 000D 0000:?NotifyMediaType@CDrawImage@@QAEXPAVCMediaType@@@Z
                605DC20400:
                  0. 00 0000 000D 0000:?SetAbortSignal@CBaseRenderer@@QAEXH@Z
                685DC20400:
                  0. 00 0000 000D 0000:?SetPopEvent@COutputQueue@@QAEXPAX@Z
                745DC20400:
                  0. 00 0000 000D 0000:?NotifyMediaType@CImageAllocator@@QAEXPAVCMediaType@@@Z
              45088D450850FF15........85C05975088B450CC60000EB2A:
                0. 1A F297 0051 0000:_Dns_SigTimeString@8
              81:
                700100008B450C8981740100005DC20800:
                  0. 00 0000 0019 0000:?PreparePerformanceData@CBaseVideoRenderer@@QAEXHH@Z
                E80000008B450C8981E40000005DC20800:
                  0. 00 0000 0019 0000:?SetConfigInfo@CDynamicOutputPin@@QAEXPAUIGraphConfig@@PAX@Z
            8A4004F6D00FB6C0:
              83E0015DC20400:
                0. 00 0000 0015 0000:?IsSyncPoint@CMediaSample@@UAGJXZ
              C1E80283E0015DC20400:
                0. 00 0000 0018 0000:?IsDiscontinuity@CMediaSample@@UAGJXZ
              D1E883E0015DC20400:
                0. 00 0000 0017 0000:?IsPreroll@CMediaSample@@UAGJXZ
            8B:
              00:
                85C0:
                  742E8B480C3B4D18772672088B48083B4D14771C8B48:
                    0. 20 B0A6 0040 0000:_TestRange@24
                  750340EB0950FF15........33C05DC20400:
                    0. 00 0000 001C 0000:_FreeBSTR@4
                89015DC20400:
                  0. 00 0000 000E 0000:?SetFOURCC@FOURCCMap@@QAEXPBU_GUID@@@Z
                8B4D18050018000089018B451C85C075025DC38320005657:
                  0. 7E 729F 00BB 0000:_LDICreateDecompression
              10668B45108B4D18538D0C8D040000005683C20383E2FC8322:
                0. 49 8054 0069 0000:_Hostent_Init@20
              40:
                0C8B0850FF51:
                  045DC20400:
                    0. 00 0000 0013 (!)0000:?
                  085DC20400:
                    0. 00 0000 0013 (!)0000:?
                10:
                  5DC20400:
                    0. 00 0000 000D 0000:?GetActualDataLength@CMediaSample@@UAGJXZ
                  8B0850FF51:
                    045DC20400:
                      0. 00 0000 0013 0000:?AddRef@CPosPassThru@@UAGKXZ
                    085DC20400:
                      0. 00 0000 0013 0000:?Release@CPosPassThru@@UAGKXZ
                145DC20400:
                  0. 00 0000 000D 0000:?GetSize@CMediaSample@@UAGJXZ
                288B088B550C890A8B88102B00003B480473198B4D148321:
                  0. 3D 69E0 005D 0000:_LDIGetWindow
                488B80A800000083781C0074118B80A4000000FF750C8B08:
                  0. 0F 7533 002F 0000:?GetAllocatorRequirements@CTransInPlaceInputPin@@UAGJPAU_AllocatorProperties@@@Z
                7083C0108B0850FF51:
                  045DC20400:
                    0. 00 0000 0016 0000:?NonDelegatingAddRef@CImageAllocator@@UAGKXZ
                  085DC20400:
                    0. 00 0000 0016 0000:?NonDelegatingRelease@CImageAllocator@@UAGKXZ
                7485C07507B809020480EB208B40448B4D0C8B4044394104:
                  0. 18 ED37 0038 0000:?CheckSizes@CImageAllocator@@IAGJPAU_AllocatorProperties@@@Z
                F88B0850FF51:
                  045DC20400:
                    0. 00 0000 0013 (!)0000:?
                  085DC20400:
                    0. 00 0000 0013 (!)0000:?
              48:
                04F6C5017535F6C1107507B849020480EB478B50208B4D0C:
                  0. 45 F597 0065 0000:?GetTime@CMediaSample@@UAGJPA_J0@Z
                305356578D5C013033FF8B34BB56E8........83F8088945:
                  0. 09 C1E7 006E 0000:?CheckBitFields@CImageDisplay@@KGHPBUtagVIDEOINFO@@@Z
              4D0C8948C033C05DC20800:
                0. 00 0000 0012 0000:?SetSink@CBaseVideoRenderer@@UAGJPAUIQualityControl@@@Z
              80:
                A00000008B80A40000008B401C85C07507B809020480EB09:
                  0. 0D 2774 002D 0000:?EnumMediaTypes@CTransInPlaceOutputPin@@UAGJPAPAUIEnumMediaTypes@@@Z
                B000000085C0752768BB03000068........68........E8:
                  0. 00 0000 0044 0000:?get_FullScreenMode@CBaseControlWindow@@UAGJPAJ@Z
                D80000008B80A80000008B401C85C07507B809020480EB09:
                  0. 0D 2774 002D 0000:?EnumMediaTypes@CTransInPlaceInputPin@@UAGJPAPAUIEnumMediaTypes@@@Z
            99F77D0C8BC88B450899F77D0C837D08007D0885D27E04412B55:
              0. 05 6292 0025 0000:_div
            A3........5DC20400:
              0. 00 0000 000F 0000:?DbgSetWaitTimeout@@YGXK@Z
            DD:
              0056DC0D........8BF1E8........89068956048BC65E5DC2:
                0. 02 2768 0022 0000:??4COARefTime@@QAEAAV0@ABN@Z
              451C8B4D0C8948:
                708B4D108948748B4D148948788B4D188948:
                  0. 0D F3BE 002D 0000:?NewSegment@CBasePin@@UAGJ_J0N@Z
                748B4D108948788B4D1489487C8B4D188988:
                  0. 10 C5FD 0030 0000:?NewSegment@CBasePin@@UAGJ_J0N@Z
            FF:
              400C8B400C5DC20400:
                0. 00 0000 0010 0000:?AddRef@CClassFactory@@UAGKXZ
              70:
                4C8B4844FF704849FF7054FF7050FF750C518D8800FFFFFF:
                  0. 01 3E9B 0029 0000:?get_DevSyncOffset@CBaseVideoRenderer@@UAGJPAH@Z
                6C8B4844FF706849FF706449FF7060FF750C518D8800FFFF:
                  0. 02 C19B 002A 0000:?get_Jitter@CBaseVideoRenderer@@UAGJPAH@Z
              750C8B:
                400850E8........5DC20800:
                  0. 00 0000 0016 0000:?QueryId@CBasePin@@UAGJPAPAG@Z
                4854E8........5DC20800:
                  0. 00 0000 0015 0000:?Unadvise@CBaseReferenceClock@@UAGJK@Z
          0C:
            3945085657761F8B4D1003C139450873158B750C8B7D088B4D10:
              0. 2F 520E 004F 0000:_memmoveInternal@12
            3DFFFFFF7F7607B857000780:
              5DC38D4D2051FF751C8D0C00FF75:
                0. 0D D63E 0033 0000:_StringCchPrintfExW
              EB19FF751C8D0C00FF7518FF7514:
                0. 09 1E4F 0031 0000:_StringCchCopyExW@24
            535657:
              6A045A8BCABF........8BF033DBF3A775198B4508FF75:
                0. 0E 2AD1 007E 0000:?NonDelegatingQueryInterface@CBaseFilter@@UAGJABU_GUID@@PAPAX@Z
                1. 0E 916E 007E 0000:?NonDelegatingQueryInterface@CBaseFilter@@UAGJABU_GUID@@PAPAX@Z
              8B7D083BF874:
                4F85FF745085C0744C8B:
                  373B30754633DB:
                    0. 0D 790E 006D 0000:_Dns_AreIpArraysEqual@8
                  77043B70047544:
                    0. 0E 53C8 006D 0000:_Ip6Array_IsEqual@8
                5585FF745685C074528B77043B7004754A:
                  0. 11 63D0 0073 0000:_DnsAddrArray_IsEqual@12
            56:
              3C0957760E8B4D14B0048361100088410DEB478B4D208B551C:
                0. 26 A2B4 0070 0000:_ScsiPortWmiDispatchFunction@28
              57:
                33D233FF85C00F84AD0000008B4D086A3F5E89450C8B4510:
                  0. 19 8A37 00CA 0000:_Dns_SecurityKeyToBase64String@12
                6A0459BF........8BF033D2F3A7741E6A0459BF:
                  0. 10 2D27 0048 0000:?NonDelegatingQueryInterface@CBaseRenderer@@UAGJABU_GUID@@PAPAX@Z
              85C074128A0084C0740C8B7508880646C6063A46EB038B7508:
                0. 1D EE81 0091 0000:__makepath
              8B:
                35........C1E00450FF7510FFD685C0751039451474156A:
                  0. 17 2FA3 003B 0000:?Next@?$CSafeComEnum@UIEnumVARIANT@@$1?IID_IEnumVARIANT@@3U_GUID@@BUtagVARIANT@@V?$_Copy@UtagVARIANT@@@ATL@@VCComMultiThreadModel@6@@@EAGJKPAUtagVARIANT@@PAK@Z (REF 0037: ?Next@?$CComEnumImpl@UIEnumVARIANT@@$1?IID_IEnumVARIANT@@3U_GUID@@BUtagVARIANT@@V?$_Copy@UtagVARIANT@@@ATL@@@ATL@@UAGJKPAUtagVARIANT@@PAK@Z)
                  1. 17 2FA3 003B 0000:?Next@?$CSafeComEnum@UIEnumTerminalClass@@$1?IID_IEnumTerminalClass@@3U_GUID@@BU3@V?$_Copy@U_GUID@@@ATL@@VCComMultiThreadModel@5@@@EAGJKPAU_GUID@@PAK@Z (REF 0037: ?Next@?$CComEnumImpl@UIEnumTerminalClass@@$1?IID_IEnumTerminalClass@@3U_GUID@@BU3@V?$_Copy@U_GUID@@@ATL@@@ATL@@UAGJKPAU_GUID@@PAK@Z)
                7508:
                  2BC689450C8B4514FF700C8B008B400CC1E80383E003:
                    0. 0C 3C23 0041 0000:_WriteRecordDataNameToString@16
                  8986940900008B45108986980900008B451856898674:
                    0. 04 4072 004B 0000:_LZX_Encode@20
                F18B4D10836610008946048B450885C0C706........8946:
                  0. 0C 2D2A 0041 0000:??0CImagePalette@@QAE@PAVCBaseFilter@@PAVCBaseWindow@@PAVCDrawImage@@@Z
            578B:
              7844836750008367540066837F3E08761968........6A05:
                0. 03 0DE8 012C 0000:?CopyPalette@CImagePalette@@QAEJPBVCMediaType@@PAV2@@Z
              7D1085FF75168B55082BD08A08880C024084C975F633C0E9:
                0. 5A 2763 00D2 0000:_DnssrvConcatDnsNames@12
            803843753E8078014B75388D48028B45088948088B4D1083C1FE:
              0. 30 66D7 0050 0000:_NFM_Prepare@20
            83:
              200053568B7508578D7EF0F7DF8D46041BFF23F88BCFE8:
                0. 00 0000 00B8 0000:?GetBuffer@CBaseAllocator@@UAGJPAPAUIMediaSample@@PA_J1K@Z
              78100056577418817828007C0000751681782CE0030000750D:
                0. 07 4B4B 005E 0000:_GetTrueColorType@4
              E8000F8480000000487442488B45080F85AE0000008D0440C1:
                0. 04 C89D 00F0 0000:_drawtriangle@32
            85C0:
              5674148B4D088379140075158941148B0850FF5104EB1B8B:
                0. 21 F307 0041 0000:?SetPageSite@CBasePropertyPage@@UAGJPAUIPropertyPageSite@@@Z
              740783200083600400578B7D1085FF742353568B75088B5E:
                0. 04 1647 0043 0000:?GetAvailable@CSourceSeeking@@UAGJPA_J0@Z
              7507B803400080EB:
                058308FF33C05DC20800:
                  0. 00 0000 001A (!)0000:?
                098320008360040033C05DC20800:
                  0. 00 0000 001E 0000:?GetPreroll@CSourceSeeking@@UAGJPA_J@Z
                0A8B4D088B4938890833C05DC20800:
                  0. 00 0000 001F 0000:?GetCapabilities@CSourceSeeking@@UAGJPAK@Z
                338B4D08568B711885F67507B8FFFF00:
                  0. 1C 4AC6 0048 0000:?Move@CBasePropertyPage@@UAGJPBUtagRECT@@@Z
            8B4D088941205DC20800:
              0. 00 0000 0010 0000:?DbgLockTrace@@YGXPAVCCritSec@@H@Z
            8D48018A104084D275F9FF75182BC1FF751440FF751050FF750C:
              0. 04 EF25 002C 0000:_WritePszTmp@20
          0EB9F07F00008BD023D1663BD1752CDD45085151DD1C24E8:
            0. 00 0000 0092 0000:__fpclass
          10:
            2B450C83F8107D0433C0EB2B8B45080FB6481B510FB6481A510F:
              0. 0A C8F8 0041 0000:_A_StringWrite@16
            33C92BC174094874064874034874056A7C58EB5C394D1CB8:
              0. 00 0000 007A 0000:_RxPrintDestSetInfo@24
            48F7D09923450823550C5DC20C00:
              0. 00 0000 0014 0000:?AlignDown@CPullPin@@QAE_J_JJ@Z
            53:
              56578D78FF8B4D0C0FAF7D1403F9894D0C3BCF774B8BD8D1EB:
                0. 6C 8205 008C 0000:_bsearch
              668B580A6683FB04751AFF7018FF15........5068:
                0. 18 4A11 0079 0000:_ARecordPrint@12
            56:
              83F809577F72742585C00F8CD000000083F8070F8FC7000000:
                0. 08 120D 00EB 0000:__UpdateResult
              8B75:
                088986E02E00008B45148986E42E00008B45188986E82E:
                  0. 38 2E6A 0072 0000:_LZX_DecodeInit@36
                1485F6751D85C07505B8........5068........FF750C:
                  0. 10 C37C 00C0 0000:_DnsPrint_RpcZone_W2K@16
            578B7D0C2BC783F8:
              077D0433C0EB2A568B75080FB7461C5068:
                0. 00 0000 0044 0000:_Mx_StringWrite@16
              147D0433C0EB34568B75080FB74620500FB7:
                0. 09 52F8 004E 0000:_Srv_StringWrite@16
            668B086683F90256:
              57751CFF750C8B750833C9668B48025683C0:
                0. 05 C510 008A 0000:_Dns_DnsAddrToString_A@12
              751BFF750C33C9668B4802FF750883C00451:
                0. 03 C3FD 008C 0000:_Dns_DnsAddrToString_W@12
            85C0:
              5657746183F8FF745C3DFFFF00007451A803744D8B550866:
                0. 12 4F4F 0085 0000:_DnsAddr_IsEqual@12
              75:
                05B8........FF751CFF7518FF751450FF750CFF7508E8:
                  0. 00 0000 0028 0000:_DnsPrint_Argv@24
                07B803400080EB:
                  32832000568B750C576A0459BF:
                    0. 00 0000 0047 0000:?NonDelegatingQueryInterface@CPosPassThru@@UAGJABU_GUID@@PAPAX@Z
                  38568B750C576A0459BF........33D2:
                    0. 0B 1162 004D 0000:?QueryInterface@CEnumPins@@UAGJABU_GUID@@PAPAX@Z (REF 001A: _IID_IEnumPins)
                    1. 0B 1162 004D 0000:?QueryInterface@CEnumMediaTypes@@UAGJABU_GUID@@PAPAX@Z (REF 001A: _IID_IEnumMediaTypes)
                  7A832000568B750C576A0459BF:
                    0. 00 0000 008F 0000:?NonDelegatingQueryInterface@CTransformOutputPin@@UAGJABU_GUID@@PAPAX@Z
                108B450C8B480450E8........85C0742BFF7520FF751C:
                  0. 09 243D 005C 0000:_ScHelperGetProvParam@28
            8B:
              480CC1E90383E10383F9015657BA........75088B701C8975:
                0. 30 8462 0068 0000:_SoaRecordPrint@12
              4D:
                088B91042B000053568B750C578D3C063BF78BDE895D0C7D:
                  0. 6A 8070 008A 0000:_decode_uncompressed_block@12
                14:
                  568B75088986042B00008D4408048986082B00008B4518:
                    0. 08 0729 005C 0000:_LZX_Decode@28
                  DD04C8DC4D084985C97E128D14C8DD02D8C183EA0849DC:
                    0. 33 840A 0053 (l)0000:_evaluate
            DD4508DC088B4D14DD19DD4508DC4808DD5908DD4508DC4810DD:
              0. 06 F752 0026 0000:_scalarmult@16
          14:
            33C93BC1740289088B45183BC1740289088B451C3BC174028908:
              0. 65 07C1 0085 0000:_NetpReplImportDirStructureInfo@36
              1. 77 CED9 0097 0000:_NetpReplExportDirStructureInfo@36
            3DE80300007C098B450883600C00EB198D88A7000000B880D62D:
              0. 15 27CB 0035 0000:?Notify@CBaseVideoRenderer@@UAGJPAUIBaseFilter@@UtagQuality@@@Z
            538B5D1C5633F6397510578B7D2089378933893074046A7CEB7F:
              0. 30 A08F 00A7 0000:_RxNetGroupGetUsers@32
            568BF133C989460C8B45188946108946148B450C3BC1C706:
              0. 00 0000 0051 0000:??0CMediaSample@@QAE@PADPAVCBaseAllocator@@PAJPAEJ@Z (0018: 0D)
              1. 00 0000 0051 0000:??0CMediaSample@@QAE@PAGPAVCBaseAllocator@@PAJPAEJ@Z (0018: 0C)
            832000837D08038B45108B4D185689017659837D0804755383C0:
              0. 0C 4E43 0078 0000:_Get32bitResDesFrom64bitResDes@20
            85C0:
              53568B7510750E8BC68D50018A084084C975F92BC250568D:
                0. 03 6CD9 00AC 0000:_Dns_AtmaStringToAddress@16
              750BFF7510FF15........594039450C730C6A7AFF15:
                0. 00 0000 0041 0000:_Dns_MakeCanonicalNameW@16
          18:
            5633F63BC6750AB803400080E9A80000003975108930740AB82B:
              0. 12 8021 00C4 0000:?GetTypeInfo@CBaseDispatch@@QAGJABU_GUID@@IKPAPAUITypeInfo@@@Z
            832000538B5D088B0385C05657BF0080000074043BC77602893B:
              0. 14 3807 00D8 0000:_MCICreateCompression
            85C0751D8B451085C07505B8........5068........FF750CFF:
              0. 1A D64D 0042 0000:_DnsPrint_Ip4Array@20
          1C:
            538B5D105633F6893389308B451889308B45203BC67408393074:
              0. 15 A6CD 00B1 0000:_RxNetCharDevEnum@28
            5633F6578B7D10893789308B451889308B450C2BC674:
              14487405:
                0. 06 35AF 00A2 0000:_RxNetMessageNameEnum@28
              1A484874:
                0. 07 20FB 00AB 0000:_RxNetLogonEnum@28
            83200056578B7D106A18FFD78BF085F659741B6850430000C746:
              0. 2F 8175 0092 0000:_LCICreateCompression
          20:
            85C07405833800750233C0506A04FF751CFF7518FF7514FF7510:
              0. 07 527D 002F 0000:_DnssrvResetIPListPropertyEx@32
            8B4D18538B5D088943188B451C89431C8B4514568B750C894304:
              0. 30 2A7E 00ED 0000:_NFMcompress@36
          24568B7518578D78188B4D1CA5A5A5A583600C008948348B4D20C7:
            0. 32 6047 0075 0000:_ScsiPortWmiFireLogicalUnitEvent@32
        4934568B750856E8........85C0750B83FEF077068B0656FF50085E:
          0. 04 057A 0024 0000:?QueueSample@COutputQueue@@IAEXPAUIMediaSample@@@Z
        4D:
          08:
            0FB7410E0FAF41048B510883C01FC1E80325FCFFFF1F0FAFC285:
              0. 09 9C0D 0029 0000:_GetBitmapSize@4
            33C0:
              3941080F94C05DC20400:
                0. 00 0000 0012 0000:?IsDirty@CPersistStream@@UAGJXZ
              53568941048B4D08576A018941088B4D085B89410C8A4D10:
                0. D7 8829 02B2 0000:__raise_exc
              564033F684C87524463D000000807408D1E085C174F2EB14:
                0. 06 362A 003B 0000:?CountPrefixBits@CImageDisplay@@KGKK@Z
              85C9744739450C74420FBF510A395510753939451474090F:
                0. 39 2FEF 0059 0000:_Hostent_IsAddressInHostent@16
              EB068D51FF23CA4085C975F65DC20400:
                0. 00 0000 0018 0000:?CountSetBits@CImageDisplay@@KGKK@Z
            5356578B7D1433D233DB85FF894D08746A8B751033C08A064F50:
              0. 01 3E9B 008D 0000:_Dns_SecurityBase64StringToKey@16
            56:
              85C95775068B0D........668B016685C0742F8B550C668B3A:
                0. 73 C027 00A1 0000:_wcstok
              8B75:
                0C8B0683F8028D4C08FF76698A1180FAFF75623851FF75:
                  0. 6B 25D9 008B 0000:_NetpLogonGetMessageVersion@12
                108B06:
                  4083E0FE3BC1890672328B550C578BF82BF93BD7:
                    0. 36 E8C8 0056 0000:_NetpLogonGetUnicodeString@20
                  83C00383E0FC3BC18906722D8BD02BD139550C76:
                    0. 0E A056 004C 0000:_NetpLogonGetDomainSID@20
            83C1:
              EC8B01:
                56FF50208BF085F6750340EB5E6A00FF15:
                  0. 0A 696C 007B 0000:?Register@CBaseFilter@@UAGJXZ
                57FF50208BF885FF750340EB6F6A00FF15:
                  0. 0A 0466 008C 0000:?Unregister@CBaseFilter@@UAGJXZ
              F08B01:
                56FF50208BF085F6750340EB466A00FF15:
                  0. 05 CDBB 0063 0000:?Register@CBaseFilter@@UAGJXZ
                57FF50208BF885FF750340EB57566A00FF15:
                  0. 00 0000 0074 0000:?Unregister@CBaseFilter@@UAGJXZ
            8B:
              01:
                85C074088B500889118B400C5DC20400:
                  0. 00 0000 0018 0000:?GetNextI@CBaseList@@IBEPAXAAPAU__POSITION@@@Z
                FF50248BC88B450C8360040083C118890833C05DC20800:
                  0. 00 0000 001F 0000:?GetSizeMax@CPersistStream@@UAGJPAT_ULARGE_INTEGER@@@Z
              51048B81580400002BC23BC28B550C730F8322008B55108902:
                0. 23 4F44 0043 0000:_LZX_GetInputData@12
              819400000085C0740D837818007507B809020480EB276A34FF:
                0. 12 00FD 0048 0000:?SetWindowPosition@CBaseControlWindow@@UAGJJJJJ@Z
            8D450850:
              83C1FCE8........85C07C:
                1A568B75088B0657FF750C:
                  0. 14 1CB7 0034 0000:?get_CurrentPosition@CPosPassThru@@UAGJPAN@Z
                  1. 14 472E 0034 0000:?get_Duration@CPosPassThru@@UAGJPAN@Z
                  2. 14 5877 0034 0000:?get_StopTime@CPosPassThru@@UAGJPAN@Z
                  3. 14 5A85 0034 0000:?CanSeekBackward@CPosPassThru@@UAGJPAJ@Z
                  4. 14 66C5 0034 0000:?CanSeekForward@CPosPassThru@@UAGJPAJ@Z
                  5. 14 853F 0034 0000:?get_Rate@CPosPassThru@@UAGJPAN@Z
                  6. 14 C1FF 0034 0000:?get_PrerollTime@CPosPassThru@@UAGJPAN@Z
                1FDD450C568B75088B0657:
                  0. 19 4712 0039 0000:?put_PrerollTime@CPosPassThru@@UAGJN@Z
                  1. 19 9A5A 0039 0000:?put_CurrentPosition@CPosPassThru@@UAGJN@Z
                  2. 19 DE9A 0039 0000:?put_StopTime@CPosPassThru@@UAGJN@Z
              E8........85C07C:
                1A568B75088B0657FF750C56FF50:
                  0. 11 041F 0031 0000:?IsUsingTimeFormat@CPosPassThru@@UAGJPBU_GUID@@@Z
                  1. 11 1B46 0031 0000:?IsFormatSupported@CPosPassThru@@UAGJPBU_GUID@@@Z
                  2. 11 2706 0031 0000:?CheckCapabilities@CPosPassThru@@UAGJPAK@Z
                  3. 11 385F 0031 0000:?SetTimeFormat@CPosPassThru@@UAGJPBU_GUID@@@Z
                  4. 11 3AAD 0031 0000:?GetRate@CPosPassThru@@UAGJPAN@Z
                  5. 11 5F86 0031 0000:?QueryPreferredFormat@CPosPassThru@@UAGJPAU_GUID@@@Z
                  6. 11 63C6 0031 0000:?GetTimeFormatW@CPosPassThru@@UAGJPAU_GUID@@@Z
                  7. 11 82CE 0031 0000:?GetCapabilities@CPosPassThru@@UAGJPAK@Z
                1D568B75088B0657FF7510FF750C:
                  0. 14 06A2 0034 0000:?GetAvailable@CPosPassThru@@UAGJPA_J0@Z
                  1. 14 E558 0034 0000:?GetPositions@CPosPassThru@@UAGJPA_J0@Z
                23568B75088B0657FF7518FF7514:
                  0. 1A 7CE3 003A 0000:?SetPositions@CPosPassThru@@UAGJPA_JK0K@Z
                26568B75088B0657FF751CFF7518:
                  0. 1D EF48 003D 0000:?ConvertTimeFormat@CPosPassThru@@UAGJPA_JPBU_GUID@@_J1@Z
            E8........5DC20400:
              0. 00 0000 000F 0000:?AdviseThreadFunction@CBaseReferenceClock@@CGKPAX@Z
            FF490C8B410C75096A01E8........33C05DC20400:
              0. 00 0000 001B 0000:?Release@CClassFactory@@UAGKXZ
          0C:
            0FB7015633F639751074053B4510752F83F817750E578B7D088D:
              0. 2C 1DFC 004C 0000:_Ip6_CopyFromSockaddr@12
            538BD9568B75108B5620C1E902578B7D0833C0F3AB8BCB83E103:
              0. 26 D69F 0046 0000:_DnsAddr_WriteSockaddr@12
            568B75:
              108D0431394508762C837D08FF74268B450833D22BC6F7:
                0. 39 94A5 0059 0000:_NetpAdjustPreferedMaximum@20
              148B06BAFFFFFF7F2BD18D14503B55107237578D3C092B:
                0. 17 5D56 005F 0000:_NetpCopyStringToBuffer@20
            85C9:
              75:
                07B803400080EB:
                  0D8B450889018B0850FF510433C05DC2:
                    0. 02 87C1 0022 0000:_GetInterface@8
                  108B45088B4038F7D02301F7D81BC0F7:
                    0. 05 1B45 0025 0000:?CheckCapabilities@CSourceSeeking@@UAGJPAK@Z
                0AB803400080E9950000008B45088B501089118B501489:
                  0. 71 7325 00AD 0000:?GetInfo@CBaseStreamControl@@UAGJPAU__MIDL___MIDL_itf_strmif_0160_0002@@@Z
              8B4508:
                740B8B502089118B50248951048B4D1085C9740B8B:
                  0. 10 7CE2 0030 0000:?GetPositions@CSourceSeeking@@UAGJPA_J0@Z
                750866816004EFFEEB418B551085D2751C8B118950:
                  0. 3C 9F30 005C 0000:?SetTime@CMediaSample@@UAGJPA_J0@Z
            FF4904780E8B118A45088802FF010FB6C0EB0B51FF7508E8:
              0. 00 0000 0035 (l)0000:_write_char
          10:
            49568BC1998BF0037508578BC18BFA137D0CF7D09923F023FA8B:
              0. 09 C9B9 0029 0000:?AlignUp@CPullPin@@QAE_J_JJ@Z
            66:
              8B01663D0200752866837D0C00740766837D0C017542FF751C:
                0. 08 8875 0065 0000:_Dns_CreateForwardRecord@24
              F7C1FF7F8B45208B550C568B75088986404300008956047406:
                0. 38 F231 0072 0000:_LZX_EncodeInit@28
            833900538B5D14568B750C578B7D08752B833B007526FF75246A:
              0. 08 BAE3 00F4 0000:_NetpMergeFtinfoHelper@32
            85C97505B9........8B451485C0751668........5168:
              0. 00 0000 005C 0000:_DnsPrint_ParsedRecord@16
            8B:
              015356578B7D083BC7724E8B5D0C8BD02BD73BDA76438BD72B:
                0. 12 52F7 0069 0000:_NetpLogonGetDBInfo@16
              118B45083BD056722D8BF22BF039750C76248B75142BC20345:
                0. 24 2468 0044 0000:_NetpLogonGetBytes@20
              410CC1E80383E00383F8015657BA........75088B711C8975:
                0. 2A DBC9 005D 0000:_MinfoRecordPrint@12
          2885C98B451C53568B75185774048B09EB068D0C06034D208B7D0C:
            0. 02 47AC 01B5 0000:_NetpConvertWkstaInfo@36
        51:
          208B450889108B49248948045DC20400:
            0. 00 0000 0015 0000:?GetTime@CDeferredCommand@@QAE?AVCRefTime@@XZ
          788B450889108B497C89480433C05DC20400:
            0. 00 0000 0017 0000:?Duration@CPullPin@@QAEJPA_J@Z
        55:
          08:
            53:
              56:
                578B:
                  7D0C33C033C9C1EF0374168B72340FB61C0E0FB69C13:
                    0. 3D 06F9 005D 0000:_get_distances_from_literals@8
                  C16A04598BFA8BF033DBF3A7753B6A04598D7A108D70:
                    0. 3C ED12 005C 0000:??8CMediaType@@QBEHABV0@@Z
                8B750C576A225933C08BFAF3AB8A0684C074303C2E753380:
                  0. 37 2160 00D9 0000:___lc_strtolc
              576A0581C2FFFEFFFF5FE8........8B5D0C4B8BD3E8:
                0. 00 0000 0078 (l)0000:_send_all_trees@16
            568B750CB8010100003BF07D:
              292BC63B45107C038B45105056E8:
                0. 00 0000 004B 0000:_decode_verbatim_block@12
              3C2BC63B45107C038B45105056E8:
                0. 00 0000 005E 0000:_decode_aligned_offset_block@12
            8B4D:
              0C8B520C538B5D10578B7D1433C085FF742B395D1873038B:
                0. 2E 7F73 004E 0000:_Hostent_WriteIp4Addrs@24
              10538B5D0C568B710C578D7A0185DBC602308BC77E1E895D:
                0. 61 D6B3 0081 0000:__fptostr
          0C:
            56576A0433C08B450859BF........8BF2F3A7750EFF751083C0:
              0. 03 EA57 0072 0000:?NonDelegatingQueryInterface@CSeekingPassThru@@UAGJABU_GUID@@PAPAX@Z
            85D27507B803400080EB43568B751085F657B8........740D53:
              0. 38 ECF6 0058 0000:?ConvertTimeFormat@CSourceSeeking@@UAGJPA_JPBU_GUID@@_J1@Z
          10:
            5333DB395A04565776418B450883C0048945088B028945108B7D:
              0. 3B D5BF 005B 0000:_pComponentListValidator@12
            85D2B8........75028BD08B4D1C85C975028BC8837D14005175:
              0. 03 8C16 0055 0000:_DnsPrint_String@24
          1433C93BD17402890A394D105356570F84:
            9B0000008B7D0C33DB43:
              0. 52 2D24 00C1 0000:?Next@?$CComEnumImpl@UIEnumTerminal@@$1?IID_IEnumTerminal@@3U_GUID@@BPAUITTerminal@@V?$_CopyInterface@UITTerminal@@@ATL@@@ATL@@UAGJKPAPAUITTerminal@@PAK@Z (REF 0072: ?copy@?$_CopyInterface@UITTerminal@@@ATL@@SGJPAPAUITTerminal@@0@Z)
              1. 52 2D24 00C1 0000:?Next@?$CComEnumImpl@UIEnumStream@@$1?IID_IEnumStream@@3U_GUID@@BPAUITStream@@V?$_CopyInterface@UITStream@@@ATL@@@ATL@@UAGJKPAPAUITStream@@PAK@Z (REF 0072: ?copy@?$_CopyInterface@UITStream@@@ATL@@SGJPAPAUITStream@@0@Z)
              2. 52 2D24 00C1 0000:?Next@?$CComEnumImpl@UIEnumPluggableSuperclassInfo@@$1?IID_IEnumPluggableSuperclassInfo@@3U_GUID@@BPAUITPluggableTerminalSuperclassInfo@@V?$_CopyInterface@UITPluggableTerminalSuperclassInfo@@@ATL@@@ATL@@UAGJKPAPAUITPluggableTerminalSuperclassInfo@@PAK@Z (REF 0072: ?copy@?$_CopyInterface@UITPluggableTerminalSuperclassInfo@@@ATL@@SGJPAPAUITPluggableTerminalSuperclassInfo@@0@Z)
              3. 52 2D24 00C1 0000:?Next@?$CComEnumImpl@UIEnumPluggableTerminalClassInfo@@$1?IID_IEnumPluggableTerminalClassInfo@@3U_GUID@@BPAUITPluggableTerminalClassInfo@@V?$_CopyInterface@UITPluggableTerminalClassInfo@@@ATL@@@ATL@@UAGJKPAPAUITPluggableTerminalClassInfo@@PAK@Z (REF 0072: ?copy@?$_CopyInterface@UITPluggableTerminalClassInfo@@@ATL@@SGJPAPAUITPluggableTerminalClassInfo@@0@Z)
            9D0000008B7D0C33DB43:
              0. 53 F301 00C3 0000:?Next@?$CComEnumImpl@UIEnumVARIANT@@$1?IID_IEnumVARIANT@@3U_GUID@@BUtagVARIANT@@V?$_Copy@UtagVARIANT@@@ATL@@@ATL@@UAGJKPAUtagVARIANT@@PAK@Z
        89:
          A80000008B015DFF6030:
            0. 00 0000 000F 0000:?DecideBufferSize@CTransformOutputPin@@UAEJPAUIMemAllocator@@PAU_AllocatorProperties@@@Z
          E00000008B015DFFA0B0000000:
            0. 00 0000 0012 0000:?CheckMediaType@CRendererInputPin@@UAEJPBVCMediaType@@@Z
        C18B4D08:
          668360040066C740061000C74008800000AAC7400C00389B:
            0. 07 C3FE 0027 0000:??0FOURCCMap@@QAE@K@Z
          836004008360080089085DC20400:
            0. 00 0000 0016 0000:??0CNodeCache@CBaseList@@QAE@H@Z
          89088B4D0C8948:
            045DC20800:
              0. 00 0000 0014 (!)0000:?
            088B4D1089480C5DC20C00:
              0. 00 0000 001A 0000:??0CAdvisePacket@CAMSchedule@@QAE@PAV01@_J@Z
          8B11:
            01108B49041148045DC20400:
              0. 00 0000 0016 0000:??YCRefTime@@QAEAAV0@ABV0@@Z
            29108B49041948045DC20400:
              0. 00 0000 0016 0000:??ZCRefTime@@QAEAAV0@ABV0@@Z
            89108B49048948045DC20400:
              0. 00 0000 0016 (!)0000:?
      8D:
        45:
          0850:
            68........68........FF7508E8........85C07425836508:
              0. 1E 5499 0049 0000:_PNP_HANDLE_bind@4
            FF7508E8........85C0750BFF7508FF750CE8........5DC2:
              0. 02 87C1 0022 0000:_NetpVerifyStrOemCompatibleOnMachine@8
          0B5033C0505050FF7508E8........5DC20400:
            0. 00 0000 0018 0000:_NetpGetDomainName@4
          0C508B450883C09850E8........5DC20C00:
            0. 00 0000 0017 0000:?SetClockDelta@CSystemClock@@UAGJ_J@Z
          1050FF75:
            0CFF7508FF15........5DC3:
              0. 00 0000 0015 0000:?wsprintfWInternal@@YAHPAGPBGZZ
            10E8........84C0740EFF7510FF750CFF7508E8:
              0. 00 0000 0025 0000:_NetpRotateLogonHours@12
          1450FF7514FF7510FF750CFF7508E8........85C07C41568D4510:
            0. 07 7531 0061 0000:_NetpCreateSecurityObject@24
        81:
          90000000833800741FDD45188B008B105151DD1C24FF75148BC8FF:
            0. 13 3E70 0033 0000:?NewSegment@CTransformFilter@@UAEJ_J0N@Z
          A00000008338007416FF75148B00FF75108B08FF750CFF750850FF:
            0. 0D 150B 002D 0000:?GetDeliveryBuffer@CBaseOutputPin@@UAEJPAPAUIMediaSample@@PA_J1K@Z
          A40000008338007507B809020480EB0B8B00FF75088B0850FF5118:
            0. 04 057A 0024 0000:?Deliver@CBaseOutputPin@@UAEJPAUIMediaSample@@@Z
          A8000000833800741FDD45188B008B105151DD1C24FF75148BC8FF:
            0. 13 3E70 0033 0000:?NewSegment@CTransformFilter@@UAEJ_J0N@Z
          BC000000B900A3E11139087F038B4D108908B8054000805DC21800:
            0. 00 0000 0020 0000:?AlterQuality@CVideoTransformFilter@@MAEJUtagQuality@@@Z
      A1........:
        568BF189460433C08D4E4489460889460C89461889461C89:
          0. 1E 29C8 005D 0000:??0CBaseWindow@@QAE@H_N@Z
        69C0C800000005........8325........006A038D48405A:
          0. 5C 7D15 007C 0000:_m_scale@24
      B8:
        08230000E8........8065EF0053568B5DE8578B7D0C33F6668B0789:
          0. 16 F451 0B19 0000:__winput (l)019D:$DEFAULT_LABEL$758 (l)0282:$f_incwidthw$897 (l)03F6:$f_incwidth2w$912 (l)0505:$x_incwidth$824 (l)05A7:$scanit2$781 (l)074F:$d_incwidth$839 (l)076F:$getnum$835 (l)0A08:$assign_num$886 (l)0A84:$error_return$801
        0C100000E8........8B450885C0750750FF15........6800040000:
          0. 0A C702 00C3 0000:?PerflogReadModuleLevel@@YGXPAUHINSTANCE__@@@Z
        10270000E8........FF750CFF7508E8........85C00F84C8000000:
          0. 03 47E2 00EA 0000:?DbgLogInfo@@YAXKKPBDZZ
        5B0100005639450C577F038B450C8B7D08BE........575056E8:
          0. 00 0000 0040 (l)0000:__fpcvt
        A0150000E8........A1........8945FCE8........8B451085C075:
          0. 02 3C48 0713 0000:_DnsPrint_RpcRecord@20
      DD45:
        08:
          5151DD1C24E8........59A890597540DD45085151DD1C24E8:
            0. 00 0000 005A 0000:__d_inttype
          56:
            5151:
              8BF1DD1C248D460468........508906FF15........83:
                0. 09 7923 0029 0000:??0CDisp@@QAE@N@Z
              DD1C24E8........59598B48048B45108D51FF83FAFF7C:
                0. 13 D4BE 008E 0000:__gcvt
            DC0D........8BF1E8........89068956048BC65E5DC20800:
              0. 00 0000 0020 0000:??0COARefTime@@QAE@N@Z
          DC:
            15........5633F6DFE09E7302D9E0B80000F07F3945147521:
              0. 07 56DB 011D 0000:__powhlp
            1D........56DFE09E7509D9EE33F6E99000000033C966F745:
              0. 18 489F 00B3 0000:__decomp
        0C:
          53DC0D........56E8........8B7508FF76:
            248B4E048BD85253:
              0. 04 5A6C 005D 0000:?Postpone@CDeferredCommand@@UAGJN@Z
            288B4E048BD85253:
              0. 04 5A6C 005D 0000:?Postpone@CDeferredCommand@@UAGJN@Z
          DD05........DAE9DFE0F6C4447A07B857000780EB:
            2F8B4D088D:
              0. 04 4DFA 004F 0000:?SetRate@CPosPassThru@@UAGJN@Z
            328B4D088D:
              0. 07 E409 0052 0000:?put_Rate@CPosPassThru@@UAGJN@Z
        1C568B75085151DD1C24FF7518FF7514FF7510FF750C56E8:
          0. 00 0000 0045 0000:?NewSegment@CTransformInputPin@@UAGJ_J0N@Z
      E8........8B451085C07505B8........:
        5350FF750CFF55088B5D1453:
          0. 01 361F 0062 0000:_DnsPrint_RpcZoneInfoList@20
        5650FF750CFF55088B751485:
          0. 06 46F2 0055 0000:_DnsPrint_NodeList@20
      F64508047407B8........EB37F64508087407B8........EB2AF64508:
        0. 11 7D5F 005A 0000:_partitionDisplayName@20
      F7450CFEFFFFFF7407B857000780EB:
        61568B7510578B7D0C83E7017416:
          0. 07 750D 0078 0000:?Block@CDynamicOutputPin@@UAGJKPAX@Z
        79538B5D10578B7D0C83E7017416:
          0. 07 7784 0090 0000:?Block@CDynamicOutputPin@@UAGJKPAX@Z
      FF:
        15........8B:
          4D082B4118F7D81BC0405DC20400:
            0. 00 0000 0018 (!)0000:?
          550833C93B42180F95C18BC15DC20400:
            0. 00 0000 001A (!)0000:?
        74240CFF7508E8........83C408:
          663DFFFF8B45107508C700FFFFFF:
            0. 07 A1E9 0027 (l)0000:_write_char
          8B4804034D10FF7518FF75145150:
            0. 01 3E9B 0029 0000:__fcvt
        75:
          08:
            68........:
              6A:
                016A0068........FF15........5DC20400:
                  0. 00 0000 001E 0000:_CreateMemoryAllocator@4
                056A02E8........8B4D1083C410E8........5D:
                  0. 03 1F8B 0023 0000:?EndOfStreamTimer@@YGXIIKKK@Z
              FF750CFF15........83C40C5DC20800:
                0. 00 0000 001B 0000:?IntToWstr@@YGXHPAG@Z
            6A00FF7108FF15........5DC20400:
              0. 00 0000 0015 0000:?PaintWindow@CBaseWindow@@QAEXH@Z
            83C138E8........85C07C0233C05DC20400:
              0. 00 0000 0018 0000:?SetMediaType@CBasePin@@UAEJPBVCMediaType@@@Z
            E8........:
              833D........00740AFF750CE8........EB0233C0:
                0. 04 A5D3 0024 0000:?PerflogInitIfEnabled@@YGHPAUHINSTANCE__@@PAU_PERFLOG_LOGGING_PARAMS@@@Z
              C1E0048B80........5DC20400:
                0. 00 0000 0018 (!)0000:?
              F7D81BC0405DC20400:
                0. 00 0000 0014 0000:??9CMediaType@@QBEHABV0@@Z
            FF:
              31FF15........F7D81BC0405DC20400:
                0. 00 0000 0017 0000:?Wait@CAMEvent@@QAEHK@Z
              7108FF15........33C05DC20400:
                0. 00 0000 0015 0000:?DoShowWindow@CBaseWindow@@QAEJJ@Z
          0C:
            68........E8........5DC20800:
              0. 00 0000 0014 0000:?QueryId@CTransformInputPin@@UAGJPAPAG@Z (REF 0007: ??_C@_15LNJDIFMI@?$AAI?$AAn?$AA?$AA@)
              1. 00 0000 0014 0000:?QueryId@CTransformOutputPin@@UAGJPAPAG@Z (REF 0007: ??_C@_17NFNCFLGO@?$AAO?$AAu?$AAt?$AA?$AA@)
            8B:
              450883C01450E8........5DC20800:
                0. 00 0000 0016 (!)0000:?
              4D0868........E8........5DC20800:
                0. 00 0000 0017 0000:?GetDuration@CPosPassThru@@UAGJPA_J@Z (REF 000A: ??_9@$BCI@AG)
                1. 00 0000 0017 0000:?GetStopPosition@CPosPassThru@@UAGJPA_J@Z (REF 000A: ??_9@$BCM@AG)
                2. 00 0000 0017 0000:?GetPreroll@CPosPassThru@@UAGJPA_J@Z (REF 000A: ??_9@$BEM@AG)
            8D450C5068........6A00FF75086A006800000600E8:
              0. 04 A5D3 0024 0000:_DnssrvGetServerInfo@8
            FF:
              15........8B4D088901F7D81BC025F2FFF87F050E0007805D:
                0. 03 2EB7 0023 0000:_WriteBSTR@8
              7120FF15........8B4D08890133C05DC20800:
                0. 00 0000 001A 0000:?DoGetWindowStyle@CBaseControlWindow@@QAEJPAJJ@Z
              7510FF750868........6A006A10E8........83C418FF15:
                0. 00 0000 0027 0000:?DbgKernelAssert@@YGXPBG0H@Z (REF 000D: ??_C@_1FI@KNEJJFOG@?$AAA?$AAs?$AAs?$AAe?$AAr?$AAt?$AAi?$AAo?$AAn?$AA?5?$AAF?$AAA?$AAI?$AAL?$AAE?$AAD?$AA?5?$AA?$CI?$AA?$CF?$AAs@)
                1. 00 0000 0027 0000:?DbgKernelAssert@@YGXPBD0H@Z (REF 000D: ??_C@_1FM@JPLHBDJK@?$AAA?$AAs?$AAs?$AAe?$AAr?$AAt?$AAi?$AAo?$AAn?$AA?5?$AAF?$AAA?$AAI?$AAL?$AAE?$AAD?$AA?5?$AA?$CI?$AA?$CF?$AAh@)
          10:
            8B45088B40:
              0CFF750C8B0850FF115DC20C00:
                0. 00 0000 0018 (!)0000:?
              10FF750C8B0850FF115DC20C00:
                0. 00 0000 0018 0000:?QueryInterface@CPosPassThru@@UAGJABU_GUID@@PAPAX@Z
              F8FF750C8B0850FF115DC20C00:
                0. 00 0000 0018 (!)0000:?
            8D45105068........FF750CFF75086A006800000600E8:
              0. 00 0000 0025 0000:_DnssrvGetZoneInfo@12
            FF750CFF7508FFB1AC000000E8........5DC20C00:
              0. 00 0000 001B 0000:?PossiblyEatMessage@CBaseControlWindow@@UAEHIIJ@Z
          14:
            8B4508FF751083C014FF750C68........50E8........5DC210:
              0. 01 78F0 0021 0000:?GetTypeInfo@CMediaControl@@UAGJIKPAPAUITypeInfo@@@Z (REF 0013: _IID_IMediaControl)
              1. 01 78F0 0021 0000:?GetTypeInfo@CMediaEvent@@UAGJIKPAPAUITypeInfo@@@Z (REF 0013: _IID_IMediaEvent)
              2. 01 78F0 0021 0000:?GetTypeInfo@CMediaPosition@@UAGJIKPAPAUITypeInfo@@@Z (REF 0013: _IID_IMediaPosition)
              3. 01 78F0 0021 0000:?GetTypeInfo@CBasicAudio@@UAGJIKPAPAUITypeInfo@@@Z (REF 0013: _IID_IBasicAudio)
              4. 01 78F0 0021 0000:?GetTypeInfo@CBaseVideoWindow@@UAGJIKPAPAUITypeInfo@@@Z (REF 0013: _IID_IVideoWindow)
              5. 01 78F0 0021 0000:?GetTypeInfo@CBaseBasicVideo@@UAGJIKPAPAUITypeInfo@@@Z (REF 0013: _IID_IBasicVideo)
            8D451450FF7510FF750CFF75086A006800000600E8........5D:
              0. 03 7FEC 0023 0000:_DnssrvQueryZoneDwordProperty@16
            FF75:
              10FF750CFF7508E8........85C07C065DE9........5DC2:
                0. 02 742C 0022 0000:_ScHelperVerifyCardAndCreds@32
              1CFF75186AFFFF7520FF750C6A00FF7510FF7508E8:
                0. 00 0000 0025 0000:_NetpEventlogWrite@28
          18:
            33C0FF7514FF7510FF750C5050505050505068........FF7508:
              0. 06 01CC 0031 0000:_RxNetpNameCompare@20
              1. 06 DDFC 0031 0000:_RxNetpPathCompare@20
            8B4508FF75148B4010FF75108B08FF750C50FF51:
              145DC21400:
                0. 00 0000 001F 0000:?CreatePalette@CAggDirectDraw@@UAGJKPAUtagPALETTEENTRY@@PAPAUIDirectDrawPalette@@PAUIUnknown@@@Z
              205DC21400:
                0. 00 0000 001F 0000:?EnumDisplayModes@CAggDirectDraw@@UAGJKPAU_DDSURFACEDESC@@PAXP6GJ01@Z@Z
              245DC21400:
                0. 00 0000 001F 0000:?EnumSurfaces@CAggDirectDraw@@UAGJKPAU_DDSURFACEDESC@@PAXP6GJPAUIDirectDrawSurface@@01@Z@Z
              645DC21400:
                0. 00 0000 001F 0000:?Lock@CAggDrawSurface@@UAGJPAUtagRECT@@PAU_DDSURFACEDESC@@KPAX@Z
            FF7514FF75:
              0CFF7508E8........85C0741A8B4D14568B75108B:
                0. 16 A08B 0036 0000:_FlatBuf_Arg_CopyMemory@20
              106A046A046A016A01FF7508E8........85C07406:
                0. 0A 9A15 002A 0000:_Dns_CreateARecord@20
          1C:
            33C0:
              837D18010F94C050FF7514FF7510FF750CFF7508E8:
                0. 00 0000 0025 0000:_DnsPrint_StringCharSet@24
              FF7518FF7514FF7510FF750C5050505050505068:
                0. 09 E8FC 0034 0000:_RxNetpNameCanonicalize@24
            8B4508FF7518:
              83C0:
                10FF7514FF751068........50E8:
                  0. 04 3446 0024 0000:?GetIDsOfNames@CMediaControl@@UAGJABU_GUID@@PAPAGIKPAJ@Z (REF 0016: _IID_IMediaControl)
                  1. 04 3446 0024 0000:?GetIDsOfNames@CMediaEvent@@UAGJABU_GUID@@PAPAGIKPAJ@Z (REF 0016: _IID_IMediaEvent)
                  2. 04 3446 0024 0000:?GetIDsOfNames@CMediaPosition@@UAGJABU_GUID@@PAPAGIKPAJ@Z (REF 0016: _IID_IMediaPosition)
                  3. 04 3446 0024 0000:?GetIDsOfNames@CBasicAudio@@UAGJABU_GUID@@PAPAGIKPAJ@Z (REF 0016: _IID_IBasicAudio)
                  4. 04 3446 0024 0000:?GetIDsOfNames@CBaseVideoWindow@@UAGJABU_GUID@@PAPAGIKPAJ@Z (REF 0016: _IID_IVideoWindow)
                  5. 04 3446 0024 0000:?GetIDsOfNames@CBaseBasicVideo@@UAGJABU_GUID@@PAPAGIKPAJ@Z (REF 0016: _IID_IBasicVideo)
                14FF7514FF751068........50E8:
                  0. 04 3446 0024 0000:?GetIDsOfNames@CMediaControl@@UAGJABU_GUID@@PAPAGIKPAJ@Z (REF 0016: _IID_IMediaControl)
                  1. 04 3446 0024 0000:?GetIDsOfNames@CMediaEvent@@UAGJABU_GUID@@PAPAGIKPAJ@Z (REF 0016: _IID_IMediaEvent)
                  2. 04 3446 0024 0000:?GetIDsOfNames@CMediaPosition@@UAGJABU_GUID@@PAPAGIKPAJ@Z (REF 0016: _IID_IMediaPosition)
                  3. 04 3446 0024 0000:?GetIDsOfNames@CBasicAudio@@UAGJABU_GUID@@PAPAGIKPAJ@Z (REF 0016: _IID_IBasicAudio)
                  4. 04 3446 0024 0000:?GetIDsOfNames@CBaseVideoWindow@@UAGJABU_GUID@@PAPAGIKPAJ@Z (REF 0016: _IID_IVideoWindow)
                  5. 04 3446 0024 0000:?GetIDsOfNames@CBaseBasicVideo@@UAGJABU_GUID@@PAPAGIKPAJ@Z (REF 0016: _IID_IBasicVideo)
              8B4010FF75148B08FF7510FF750C50FF:
                51:
                  145DC2:
                    0. 02 1654 0022 0000:?Blt@CAggDrawSurface@@UAGJPAUtagRECT@@PAUIDirectDrawSurface@@0KPAU_DDBLTFX@@@Z
                  1C5DC2:
                    0. 02 1654 0022 0000:?BltFast@CAggDrawSurface@@UAGJKKPAUIDirectDrawSurface@@PAUtagRECT@@K@Z
                91840000:
                  0. 05 9D75 0025 0000:?UpdateOverlay@CAggDrawSurface@@UAGJPAUtagRECT@@PAUIDirectDrawSurface@@0KPAU_DDOVERLAYFX@@@Z
            8D451C50FF75186A0268........FF7514FF7510FF750CFF7508:
              0. 01 3E9B 0029 0000:_DnssrvQueryDwordPropertyEx@24
            B9........FF7518FF7514FF7510FF750CE8........5DC21800:
              0. 00 0000 0020 0000:?GetIDsOfNames@?$IDispatchImpl@V?$ITTerminalVtblBase@VCBaseTerminal@@@@$1?IID_ITTerminal@@3U_GUID@@B$1?LIBID_TAPI3Lib@@3U3@B$00$0A@VCComTypeInfoHolder@ATL@@@ATL@@UAGJABU_GUID@@PAPAGIKPAJ@Z (REF 0007: ?_tih@?$IDispatchImpl@V?$ITTerminalVtblBase@VCBaseTerminal@@@@$1?IID_ITTerminal@@3U_GUID@@B$1?LIBID_TAPI3Lib@@3U3@B$00$0A@VCComTypeInfoHolder@ATL@@@ATL@@1VCComTypeInfoHolder@2@A)
              1. 00 0000 0020 0000:?GetIDsOfNames@?$IDispatchImpl@UITBasicAudioTerminal@@$1?IID_ITBasicAudioTerminal@@3U_GUID@@B$1?LIBID_TAPI3Lib@@3U3@B$00$0A@VCComTypeInfoHolder@ATL@@@ATL@@UAGJABU_GUID@@PAPAGIKPAJ@Z (REF 0007: ?_tih@?$IDispatchImpl@UITBasicAudioTerminal@@$1?IID_ITBasicAudioTerminal@@3U_GUID@@B$1?LIBID_TAPI3Lib@@3U3@B$00$0A@VCComTypeInfoHolder@ATL@@@ATL@@1VCComTypeInfoHolder@2@A)
              2. 00 0000 0020 0000:?GetIDsOfNames@?$IDispatchImpl@UITStaticAudioTerminal@@$1?IID_ITStaticAudioTerminal@@3U_GUID@@B$1?LIBID_TAPI3Lib@@3U3@B$00$0A@VCComTypeInfoHolder@ATL@@@ATL@@UAGJABU_GUID@@PAPAGIKPAJ@Z (REF 0007: ?_tih@?$IDispatchImpl@UITStaticAudioTerminal@@$1?IID_ITStaticAudioTerminal@@3U_GUID@@B$1?LIBID_TAPI3Lib@@3U3@B$00$0A@VCComTypeInfoHolder@ATL@@@ATL@@1VCComTypeInfoHolder@2@A)
              3. 00 0000 0020 0000:?GetIDsOfNames@?$IDispatchImpl@UITCollection@@$1?IID_ITCollection@@3U_GUID@@B$1?LIBID_TAPI3Lib@@3U3@B$00$0A@VCComTypeInfoHolder@ATL@@@ATL@@UAGJABU_GUID@@PAPAGIKPAJ@Z (REF 0007: ?_tih@?$IDispatchImpl@UITCollection@@$1?IID_ITCollection@@3U_GUID@@B$1?LIBID_TAPI3Lib@@3U3@B$00$0A@VCComTypeInfoHolder@ATL@@@ATL@@1VCComTypeInfoHolder@2@A)
              4. 00 0000 0020 0000:?GetIDsOfNames@?$IDispatchImpl@UITPluggableTerminalSuperclassInfo@@$1?IID_ITPluggableTerminalSuperclassInfo@@3U_GUID@@B$1?LIBID_TAPI3Lib@@3U3@B$00$0A@VCComTypeInfoHolder@ATL@@@ATL@@UAGJABU_GUID@@PAPAGIKPAJ@Z (REF 0007: ?_tih@?$IDispatchImpl@UITPluggableTerminalSuperclassInfo@@$1?IID_ITPluggableTerminalSuperclassInfo@@3U_GUID@@B$1?LIBID_TAPI3Lib@@3U3@B$00$0A@VCComTypeInfoHolder@ATL@@@ATL@@1VCComTypeInfoHolder@2@A)
              5. 00 0000 0020 0000:?GetIDsOfNames@?$IDispatchImpl@UITPluggableTerminalClassInfo@@$1?IID_ITPluggableTerminalClassInfo@@3U_GUID@@B$1?LIBID_TAPI3Lib@@3U3@B$00$0A@VCComTypeInfoHolder@ATL@@@ATL@@UAGJABU_GUID@@PAPAGIKPAJ@Z (REF 0007: ?_tih@?$IDispatchImpl@UITPluggableTerminalClassInfo@@$1?IID_ITPluggableTerminalClassInfo@@3U_GUID@@B$1?LIBID_TAPI3Lib@@3U3@B$00$0A@VCComTypeInfoHolder@ATL@@@ATL@@1VCComTypeInfoHolder@2@A)
          20:
            6A03FF751CFF7518FF7514FF7510FF750CFF7508E8........5D:
              0. 03 DD5A 0023 0000:_DnssrvResetStringPropertyEx@32
            8B451CFF3050FF751833C0FF7514FF7510FF750C505050505050:
              0. 02 FE33 003A 0000:_RxNetpPathCanonicalize@28
            FF751C:
              6A00FF7510E8........85C0744056FF752083C004FF75:
                0. 11 BF84 005B 0000:_Dns_CreatePtrTypeRecord@28
              FF7518FF7514:
                6A00FF7510FF750CFF7508E8........5D:
                  0. 03 DF45 0023 0000:_NetpWriteEventlog@28
                FF7514FF750C6A01FF7508E8........85:
                  0. 22 1576 0042 0000:_Dns_CreateFlatRecord@28
          24FF7520FF751C6A:
            106A106A1C6A01FF7508E8........85C0740E:
              0. 12 F2FD 0032 0000:_Dns_CreateAAAARecord@32
            FFFF7518FF7514FF7510FF750CFF7508E8:
              0. 00 0000 0026 0000:_NetpEventlogWriteEx@32
  8D:
    4424088BEC83EC0C8945F48D45F450E8........668945FC6A028D45FC8D:
      0. 0B 8C87 0055 0000:_toupper
    4C24:
      188BEC83EC58568B7508FF75205156E8........83C40C85C075228D:
        0. 1A 0796 0098 0000:__except1
      208BEC83EC58568B7508FF75285156E8........83C40C85C0753880:
        0. 30 ABED 00B1 0000:__except2
    6C24:
      8881ECB0000000A1........8945748D45C850FF15........83E800:
        0. 25 E659 004E 0000:_NetpLocalTimeZoneOffset@0
      8C81ECC4000000A1........568B35........5789457068:
        0. 3D 353D 0104 0000:_NetpBrowserCheckDomain@4
      9081EC:
        54050000A1........565733FF397D7889456C89BD38FBFFFF:
          0. 0C 048F 0230 0000:_SetupEnumerateRegisteredOsComponents@8
        E0000000A1........53565789456CE8........33DB395D7C:
          0. 08 28F3 01C6 0000:_privateDnsDebugPrint@8
      9481EC:
        40050000A1........53565733FF397D748945680F84230100:
          0. 45 B625 0162 0000:_SetupQueryRegisteredOsComponent@12
        88000000A1........538B5D748945688B457C568B75785789:
          0. 2F 43D7 00BF 0000:_Dns_CopyAndCanonicalizeWireName@12
        8C000000A1........8365E400538B5D7C8945688B45785657:
          0. 0C 246E 0087 0000:_NetpRaiseAlert@12
        90000000A1........8B4D74538945688B0185C056570F8484:
          0. 40 3846 01BD (l)0000:_read_format@12
        A0000000A1........8365D8008945688B45780FB70853BA02:
          0. 4F 402D 0D6A 0000:?valueToString@@YGPAGJPAUtagVARIANT@@PAPAG@Z
        B8000000A1........538B5D7C85DB894568560F843F020000:
          0. 25 9D5F 0272 0000:_VeryLargeHashUpdate@12
        C4000000833D........00A1........89456875046A04EB16:
          0. 60 1C8B 00AE 0000:_SapGetObjectID@12
        E8000000A1........568B757485F68945680F84DA00000081:
          0. 2E E331 010B 0000:_UpdateCircularHash@12
      9881EC:
        880000008B5578A1........8365E00053568B757483657400:
          0. 26 A510 0158 0000:_Dns_DowncaseNameLabel@16
        8C0000008B457C83200033C05356578D7D30ABABABAB8B7578:
          0. 02 47AC 0529 0000:_NetpMergeFtinfo@16
        B0:
          000000:
            538B5D74565733C06A18598D7DE8F3AB8B4D7C8D34:
              0. 63 4EA1 01ED (l)0000:_WriteRepTree@16
            A1........8365B800568B757485F689456475046A:
              0. 11 914D 008C 0000:_CM_Get_Hardware_Profile_Info_ExA@16
          010000A1........5357684B736563BB000E0000536A0189:
            0. 04 FE5A 034B 0000:_GatherRandomKey@16
        C4000000833D........00A1........89456475:
          046A04EB16:
            0. 6C D38E 00BB 0000:_SapAddAdvertise@16
          056A0458EB:
            0. 19 9B82 00A0 0000:_SapGetObjectName@16
            1. 20 F7C3 00A0 0000:_SapScanObject@16
        CC0000008B557C56576A335933C081CA001000008D7D9CF3AB:
          0. 21 6BFD 008C 0000:_DnssrvCreateZoneForDcPromoEx@16
        DC02000056578B7D7033F66A0457E8........884435484683:
          0. 2A 4ABA 02B2 (l)0000:_ReadRepTree@16
      9C81EC:
        B4000000A1........8365BC0056894560E8........8B7578:
          0. 0C C5D4 019B 0000:_DnsPrint_RpcDpInfo@20
        B8000000837D7400A1........8945607507C74574:
          0. 0C 961E 01E7 0000:_DnsPrint_WsaQuerySet@20
      A081EC:
        A000000056576A1033C0598D7DC4F3AB33F633C939756C7613:
          0. FF B6DD 01FD 0000:_make_table@24
        A80000008B456C5356578D34408B45688D3C408D4530508D34:
          0. 01 5A50 0100 0000:_pentagon@24
        AC000000535633F63935........5789755C89755875086A05:
          0. 21 4634 01D4 0000:_Dns_ServerNegotiateTkey@24
        F0000000A1........538B1D........56578B7D7489455C33:
          0. 0F 51EB 0935 0000:_DnsPrint_PacketRecord@24
      A481EC:
        04010000A1........53565733F66A168945585933C08D7DA4:
          0. 15 88B5 04A2 0000:_Dns_NegotiateTkeyWithServer@28
        0C01000083655800837D78000F8E2E020000DB457853568B35:
          0. 00 0000 024E 0000:_doughnut@28
        8C0000005333DB568B75643BF357895D54895D50895D58895D:
          0. 0A 57D6 02F1 0000:_NetpCreateComputerObjectInDs@28
      A881ECC0000000538B5D68568B7560578B7D648D45402BF02BF833C0:
        0. 4A 348F 0163 0000:_recorditem@32
      AC81EC8805000083651C0053568B756081FE200100008BD876086A02:
        0. FF 897C 035A (l)0000:_HuftBuild@40
      B081ECCC0000005356576A3333DB33C0598D7D8433F6395D64F3ABC7:
        0. 12 20A5 00A0 0000:_DnssrvResetZoneTypeEx@40
      C081ECCC0000005356576A3333C0598DBD74FFFFFFF3AB33FF33DB47:
        0. 1F F54B 00D3 0000:_DnssrvCreateZoneEx@56
    AC24:
      08F8FFFF81EC78080000A1........5356578985F407000033DB8D45:
        0. 02 61FB 02B3 0000:_DnscmdWmi_GetStatistics@4
      0CFEFFFF81EC74020000A1........8985F00100005333DB33C05657:
        0. 2B 8A87 0969 0000:_NetpApplyJoinState@24
      34FEFFFF81EC4C020000A1........5633F6578BBDE40100003BFE89:
        0. 1C 628C 03BE 0000:_NetpChangeMachineName@24
      3CFEFFFF81EC44020000A1........53568BB5CC0100008B1E5733FF:
        0. 5B 7D72 01D5 0000:_Dns_InitClientSecurityContext@12
      48:
        FEFFFF81EC38020000A1........53568985B401000033F68D8594:
          0. 11 D88B 0213 0000:_NetpSetComputerAccountPassword@20
        FFFFFF81EC38010000A1........5356576A07596A0233DB6A0189:
          0. 27 620C 0152 0000:_makeSpn@24
      4CFEFFFF81EC:
        30020000A1........53568985B00100008D459C33DB:
          0. 18 B81D 01C9 0000:_NetpManageMachineSecret@20
        34020000A1........538B9DBC010000565733FF3BDF:
          0. 2A 6042 0293 0000:_FindProtocolToUse@4
      50F8FFFF81EC30080000A1........5333DB391D........8985AC07:
        0. 11 4F55 01FF 0000:_DnscmdWmi_ProcessEnumRecords@16
      58:
        FDFFFF81EC28030000:
          8B15........85D2A1........8985A40200:
            0. 3C 2738 007A 0000:___report_gsfailure
          A1........578985A402000033C02145D86A:
            0. 2A AF48 006F 0000:___report_gsfailure
        FEFFFF81EC28020000A1........538985A40100008B85B0010000:
          0. 5F 6017 014B 0000:_RxNetAccessGetInfo@16
        FFFFFF81EC2801000083BDB400000001A1........8985A4000000:
          0. 0F C006 0110 0000:_NetpMachineValidToJoin@8
      60FFFFFF81EC20010000A1........89859C0000008D458050C74580:
        0. 06 6337 005A 0000:_IsAppServer@0
      64FCFFFF81EC1C040000A1........565789859803000033C033F639:
        0. 1A 4C4C 014E 0000:_NetpDebugDumpRoutine@16
      68:
        FEFFFF81EC18020000A1........568B35........898594010000:
          0. 0F 511E 00FB 0000:_pGetExceptionData@8
        FFFFFF81EC18010000A1........:
          5356898594000000E8:
            0. 01 FB44 00E8 0000:_DnsDbg_WrapLogFile@0
          8985940000008D458050C74580:
            0. 06 3B16 0078 0000:_NetpLogBuildInformation@0
      6C:
        F8FFFF81EC14080000A1........5633F63935........89859007:
          0. 11 1307 01A3 0000:_DnscmdWmi_Initialize@4
        FFFFFF81EC14010000A1........:
          568BB5A000000057FF36BF:
            0. 00 0000 00ED 0000:_RandomFillBuffer@8
          8985900000008D458C506A01E8:
            0. 00 0000 00AC 0000:_ReadSeed@8
      74:
        FDFFFF81EC0C030000FFB59C020000A1........FFB59802000083:
          0. 15 0323 01BC 0000:_DnssrvSbsAddClientToIspZone@24
        FFFFFF81EC0C010000A1........576A405989858800000033C0C6:
          0. 27 4C54 0079 0000:_Dns_ValidateName_W@8
      78:
        FEFFFF81EC08020000A1........83658C006A00898584010000FF:
          0. 01 54B7 00B8 0000:_NetpAccessCheck@12
        FFFFFF81EC08010000A1........538B9D9000000056578B35:
          0. 00 0000 012B 0000:_GetInternationalInfo@4
      ACFDFFFF81ECD4020000A1........538B9D5C020000565733F65389:
        0. 0D 1527 024C 0000:_NetpManageIPCConnect@16
      B4F9FFFF81ECCC060000A1........53568985480600008B85540600:
        0. 59 FD3D 0390 0000:_SetupRegisterOsComponent@8
      BCFDFFFF81ECAC020000A1........5333DB56578985400200006689:
        0. 09 04E5 0D78 0000:_NetpJoinDomain@24
      E8FEFFFF81EC98010000A1........8985140100000FB78520010000:
        0. 1D 9289 0224 0000:_RxRemoteApi
      ECFDFFFF81EC94020000A1........8985100200008B852C02000057:
        0. 25 6DD2 0532 0000:_RxNetUserSetInfo@20
  A1........8BEC83EC085668FFFF000050E8........83C4088BF0FF750C66:
    0. 11 35BA 00E4 0000:_floor (00A3: 0B)
    1. 11 35BA 00E4 0000:_ceil (00A3: 0C)
  B8:
    141000008DAC246CF0FFFFE8........A1........53568BB59C0F000089:
      0. 0F AF66 0142 0000:_DnssrvGetWksServicesInRecord@4
    5B0100008BEC56578B7508568B4D0C3BC87C028BC851BF........57E8:
      0. 00 0000 0045 (l)0000:__fpcvt
    A83A00008DAC24D8C5FFFFE8........A1........578BBD303A000085FF:
      0. 48 4C9E 00F9 0000:_Dns_CreateMultiIpStringFromIpArray@8
    F82200008BECE8........5356668B5DF257C645FA00C745F400000000C7:
      0. 19 89D1 0BF8 0000:__winput (l)012A:$DEFAULT_LABEL$735 (l)02BA:$f_incwidthw$874 (l)0455:$f_incwidth2w$889 (l)05C8:$scanit2$758 (l)077D:$d_incwidth$816 (l)07AD:$x_incwidth$801 (l)0835:$getnum$812 (l)0B0D:$assign_num$863
  BA030000008BEC8B44240C03C08AC88B4508D3E2D365108BCA235510F7D123:
    0. 07 1C2D 0027 0000:__SetTag
56:
  33:
    C0:
      5050FF7424108BF150FF15........89068BC65EC20400:
        0. 00 0000 001A 0000:??0CAMEvent@@QAE@H@Z
      668B74240866F7C601007405B81000000066F7C6040074020C0866F7C6:
        0. 84 21C4 00A4 (l)0000:__abstract_cw
      8B742410573BF074498B44240C8B4C2410668B106683FA5A770A6683FA:
        0. 38 D4FB 0058 0000:__wcsnicmp
    F6:
      39:
        35........:
          74:
            2A:
              A1........3BC6742150FF15........3935:
                0. 00 0000 0037 0000:_UnloadPwdDLL@0
              FF35........FF35........FF15........8935:
                0. 00 0000 0037 0000:?PerflogShutdown@@YGXXZ
            463935........74186A016A0FFF15........50FF35:
              0. 00 0000 00D2 0000:_CleanUp@0
          75566A02FF74240CFF15........83F801754E56FF15:
            0. 00 0000 0079 0000:_GrabStaticEntries@4
        742408:
          7415FF742408FF15........50FF15........59598BF05668:
            0. 00 0000 0031 0000:_NetpLdapUnbind@4
          75083935........752F68........C705........01000000:
            0. 02 ABB7 004E 0000:_Dns_StartSecurity@4
      56FF15........3BC6750433C0EB1DFF742410FF742410FF74241050FF:
        0. 01 54B7 0033 0000:_Dns_GetResourceString@12
      5733FF46397C24147E288B4C24108B54240C85F6741CDD0183C108DD02:
        0. 1C 0B27 003C 0000:_compareParams@12
      DD44240C6A00FF7424185151DD1C24FF7424186A016A:
        0056E8:
          0. 0A 7947 002A 0000:_icosahedron@16
        0156E8:
          0. 0A 2A43 002A 0000:_octahedron@16
        0256E8:
          0. 0A B0F2 002A 0000:_tetrahedron@16
      EB048BF08BC8E8........85C075F38BC65EC3:
        0. 00 0000 0016 0000:@Dns_GetTldForNameW@4
  43:
    313058433030558BEC83EC0853565755FC8B5D0C8B4508F7400406000000:
      0. 3F 02EF 00B6 (!)0008:? (l!)0037:? (l!)0080:? (l!)008B:? (l!)0092:? (l!)0099:? (l!)00AE:?
    323058433030558BEC83EC0853565755FC8B5D0C8B4508F7400406000000:
      0. 43 384E 00E0 (!)0008:? (l!)003B:? (l!)008F:? (l!)009A:? (l!)00A1:? (l!)00A8:? (l!)00BD:? (!)00C5:?
      1. 1D 7C50 0109 0008:__except_handler3 (l)0048:_lh_top (l)00B1:_lh_continue (l)00BC:_lh_dismiss (l)00C3:_lh_abort (l)00CA:_lh_bagit (l)00D1:_lh_unwinding (l)00E6:_lh_return 00EE:__seh_longjmp_unwind@4
  57:
    33:
      F66A018D86........508DBE........FF37E8........85C07C498B07:
        0. 06 A0A2 006E 0000:_NetpCreateWellKnownSids@4
      FF:
        397C240C8BF1740DC74608........89BE:
          64020000578BCEE8:
            0. 00 0000 0041 0000:??0CSingleFilterTerminal@@QAE@XZ
          6C020000578BCEE8:
            0. 00 0000 003B 0000:??0CVideoCaptureTerminal@@QAE@XZ
        57:
          576A0157FF15........3BC78B74240C8906741F575757FF15:
            0. 00 0000 003F 0000:_InitPrivateResource@4
          68FFFFFF7F57578BF1FF15........3BC78946:
            3C750433C0EB1F8D:
              0. 06 2D72 0041 0000:?CreateThread@CMsgThread@@QAEHXZ
            4C750433C0EB1F8D:
              0. 06 2D72 0041 0000:?CreateThread@CMsgThread@@QAEHXZ
        8DB7........8B068B0085C0740B50E8........8B0683200083C710:
          0. 0C 8982 004E 0000:_NetpFreeWellKnownSids@0
    668B7C24106683FF038BF174166683FF0A74166683FF0B740A6857000780:
      0. 01 3E9B 005C 0000:??0_variant_t@@QAE@JG@Z
    68........:
      33FFFF15........8BF085F6742FFF74240C56FF15:
        0. 0A 4C9C 0078 0000:_NetpUpdateW32timeConfig@4
      FF15........8BF885FF7441837C240C00741668........57:
        0. 02 ABB7 0060 0000:_NetpUpdateDnsRegistrations@4
    6A:
      006A006A006A008BF9FF15........8BF085F675075F5EE9........56:
        0. 03 A2C1 0051 0000:?SynchronousBlockOutputPin@CDynamicOutputPin@@IAEJXZ
      016A00FF742414FF15........BE........568BF8FF15........FF0D:
        0. 00 0000 0047 0000:_RpcpStopRpcServer@4 (REF 000C: RpcServerUnregisterIf)
        1. 00 0000 0047 0000:_RpcpStopRpcServerEx@4 (REF 000C: RpcServerUnregisterIfEx)
      048BF15933C0BF........F3A75F0F95C05EC3:
        0. 00 0000 0016 0000:?IsValid@CMediaType@@QBEHXZ
    8B:
      3D........8BF156FFD78D461850FFD78D465450FFD78D463489463889:
        0. 14 4337 0034 0000:??0CMSPThread@@QAE@XZ
      74240C:
        833D........017E100FB6066A0850E8........83C408EB120F:
          0. 04 8BE9 005A 0000:_atof
        8B:
          7C24148BC68BCF4F85C97418668B54241066833E00740D6689:
            0. 0E 3FF1 002E 0000:__wcsnset
          C68BFE8BCE83C6026683390075F583EE043BFE7316668B0F66:
            0. 15 EE0E 0035 0000:__wcsrev
      7C24:
        0C:
          57:
            8BF1E8........85C0:
              744C668B4E56668B473E663BC8750966:
                0. 13 6BD5 0068 0000:?CheckVideoType@CImageDisplay@@QAEJPBUtagVIDEOINFO@@@Z
              7C178B0781C69C0000005668:
                0. 0E 262C 002E 0000:?CheckConnect@CBaseOutputPin@@UAEJPAUIPin@@@Z
            FF15........8D7718EB118B088B5004890A50895104FF15:
              0. 00 0000 0035 0000:_NetpEventlogClearList@4
          6808040000E8........8BF085F659747766C7060003668B4750:
            0. 17 1B23 0093 0000:?MakePalette@CImagePalette@@SGPAUHPALETTE__@@PBUtagVIDEOINFOHEADER@@PAD@Z
          6A60578BF1FF15........85C07421833D........00741168:
            0. 00 0000 00A0 0000:?UnregisterPnpNotification@CMSPThread@@QAEJPAVCMSPAddress@@@Z
          85FF8BF1:
            7406837E6400750533C040EB1D8B06578BCEFF50388B:
              0. 19 20CF 0039 0000:?Render@CBaseRenderer@@UAEJPAUIMediaSample@@@Z
            750BFF742410E8........EB:
              473B3E750DFF7424108B:
                0. 02 BB34 0063 0000:?AddBeforeI@CBaseList@@IAEPAU__POSITION@@PAU2@PAX@Z
              493B7E04750DFF742410:
                0. 03 7AD8 0065 0000:?AddAfterI@CBaseList@@IAEPAU__POSITION@@PAU2@PAX@Z
          8B:
            07578BF1FF500481C6980000008B0685C074068B0850FF5108:
              0. 07 AE09 0027 0000:?SetAllocator@CTransInPlaceOutputPin@@QAEXPAUIMemAllocator@@@Z
            770485F674198BCEE8........8BCEE8........56E8:
              0. 00 0000 002B 0000:_ScHelperRelease@4
            C18B70046A045933C0F3A75F0F94C05EC20400:
              0. 00 0000 001A 0000:?IsClassID@CFactoryTemplate@@QBEHABU_GUID@@@Z
            F1397E4075058B4644EB345357FF15........8BD885DB750E:
              0. 19 8DA2 004B 0000:?AllocFormatBuffer@CMediaType@@QAEPAEK@Z
          8D:
            71:
              28A5A5A5A55F5EC20400:
                0. 00 0000 0012 0000:?GetTargetRect@CDrawImage@@QAEXPAUtagRECT@@@Z
              38A5A5A5A55F5EC20400:
                0. 00 0000 0012 0000:?GetSourceRect@CDrawImage@@QAEXPAUtagRECT@@@Z
            77:
              0856FF15........85C075:
                0F4001068B17508BCFFF520C33:
                  0. 13 1469 0033 0000:?NonDelegatingRelease@CUnknown@@UAGKXZ
                298306018D77FC8B0633FF5756:
                  0. 2E DAA3 004E 0000:?NonDelegatingRelease@CBasePropertyPage@@UAGKXZ
              F4F7DE8D47041BF623F056FF15........8B472C2B47308B:
                0. 0B FAB4 0036 0000:?GetFreeCount@CBaseAllocator@@UAGJPAJ@Z
          FF742410FF07E8........:
            668BF083C40456E8........83C404:
              0. 0A 5F23 002A (l)0000:__whiteout
            83C4048BF056E8........83C40485:
              0. 08 4F8B 0028 (l)0000:__whiteout
        10:
          85FF74:
            068B0757FF50048B74240C8B0685C074068B0850FF5108:
              0. 09 9764 0029 0000:?QzAtlComPtrAssign@@YGPAUIUnknown@@PAPAU1@PAU1@@Z
            1F8B3785F6741966833E0074136A0056FF15........40:
              0. 10 DD6C 0030 0000:_NetpwListTraverse@12
          8BC74F85C07E218B74241856FF742418FF742414E8........83:
            0. 11 2519 0031 (l)0000:_write_multi_char
      F033FFF6460C027416E8........85C0753B836610FE5F8BC65EE9:
        0. 00 0000 0053 (l)0000:_TypeParseLeadSlashName@4
      F1:
        56FF15........:
          33FF397E28:
            7405397E407408397E3C750333FF4756:
              0. 02 ABB7 002B 0000:?IsIdle@COutputQueue@@QAEHXZ
            751F397E2074078BCEE8........397E:
              0. 1E 8EE4 0053 0000:?EOS@COutputQueue@@QAEXXZ
          837E2800744F538B1D........8B4E28E8:
            0. 26 51DB 0087 0000:?FreeSamples@COutputQueue@@IAEXXZ
        6A018D4E04E8........6A008D4E08E8........8B3D........8D46:
          0. 13 71E9 0033 0000:??0CAMThread@@QAE@XZ
        8B:
          7E3857FF15........8B761483FE01740983FE02740433F6EB0333:
            0. 05 6E81 002E 0000:?IsActive@CBaseFilter@@QAEHXZ
          BEA000000083C75857FF15........837E180074398BCEE8:
            0. 00 0000 0061 0000:?Inactive@CSourceStream@@MAEJXZ
          CEE8........85C08BCE740C68FFFF0080E8........EBE78B06FF:
            0. 13 A494 0097 0000:?ThreadProc@CSourceStream@@MAEKXZ
        8D:
          442414508D7E5857FF742418FF742418E8........836650008366:
            0. 05 777A 0044 0000:??0CSource@@QAE@PAGPAUIUnknown@@U_GUID@@@Z (001D: 18) (REF 0016: ??0CBaseFilter@@QAE@PBGPAUIUnknown@@PAVCCritSec@@ABU_GUID@@@Z)
            1. 05 777A 0044 0000:??0CSource@@QAE@PADPAUIUnknown@@U_GUID@@@Z (001D: 18) (REF 0016: ??0CBaseFilter@@QAE@PBDPAUIUnknown@@PAVCCritSec@@ABU_GUID@@@Z)
            2. 05 777A 0044 0000:??0CSource@@QAE@PAGPAUIUnknown@@U_GUID@@PAJ@Z (001D: 1C) (REF 0016: ??0CBaseFilter@@QAE@PBGPAUIUnknown@@PAVCCritSec@@ABU_GUID@@@Z)
            3. 05 777A 0044 0000:??0CSource@@QAE@PADPAUIUnknown@@U_GUID@@PAJ@Z (001D: 1C) (REF 0016: ??0CBaseFilter@@QAE@PBDPAUIUnknown@@PAVCCritSec@@ABU_GUID@@@Z)
          7E:
            0857FF15........:
              836664008BCEE8........57FF15:
                0. 05 3C0E 0025 0000:?EndRun@CCmdQueue@@UAEJXZ
              8B44240C8946688B44241089466C8BCEC746:
                0. 06 9000 0038 0000:?Run@CCmdQueue@@UAEJ_J@Z
            1857FF15........:
              837E140075:
                0533F646EB3E8B46488B0850FF:
                  0. 14 F017 0063 0000:?StopThread@CPullPin@@AAEJXZ
                07BE05400080EB1E8B44240CFF:
                  0. 07 0E4E 0047 0000:?CallWorker@CAMThread@@QAEKK@Z
              8B:
                467085C0743C837E48007436837E140075:
                  0. 12 7C51 0062 0000:?StartThread@CPullPin@@AAEJXZ
                CEE8........8B464885C0740A8B0850FF:
                  0. 1A 4761 0043 0000:?Disconnect@CPullPin@@QAEJXZ
            1C57FF15........:
              33C05789463889463C894640894644C74648:
                0. 06 484B 002F 0000:?ResetMediaTime@CRendererPosPassThru@@QAEJXZ
              837E10007507BEFFFF0080EB1F8B4C240C8D:
                0. 14 6B9C 0048 0000:?PostEvent@CMSPAddress@@UAEJPAUMSPEVENTITEM@@@Z
              8B44240C836648008946388B44241089463C:
                0. 11 B018 003C 0000:?RegisterMediaTime@CRendererPosPassThru@@QAEJ_J0@Z
            3457FF15........8B:
              44240CFF764C894628FF15........57FF:
                0. 01 54B7 002A 0000:?Flushing@CBaseStreamControl@@QAEXH@Z
              465085C074068B0850FF51088B44240C85:
                0. 0F D42F 0038 0000:?SetSyncSource@CBaseStreamControl@@QAEXPAUIReferenceClock@@@Z
            5057FF15........8B466C85C0740A8B08FF4E70894E6CEB086A:
              0. 02 3247 0073 0000:?AddAdvisePacket@CAMSchedule@@QAEKAB_J0PAXH@Z
            5857FF15........8B:
              44240C85C07C1A3B46507D158B4E548B04:
                0. 15 0A18 0040 0000:?GetPin@CSource@@UAEPAVCBasePin@@H@Z
              765057FF15........5F8BC65EC3:
                0. 00 0000 001D 0000:?GetPinCount@CSource@@UAEHXZ
            7457FF15........8BCEE8........57FF15........5F8BCE5E:
              0. 01 B78A 0025 0000:?EndFlush@CVideoTransformFilter@@UAEJXZ
          BE:
            9400000057FF15........:
              33C0:
                39466C570F95C08BF0FF15:
                  0. 00 0000 0027 0000:?HaveCurrentSample@CBaseRenderer@@UAEHXZ
                40394664743650894664FF15:
                  0. 00 0000 005D 0000:?StartStreaming@CBaseRenderer@@UAEJXZ
              83:
                667400837E640175138B06836664:
                  0. 0A F015 003A 0000:?StopStreaming@CBaseRenderer@@UAEJXZ
                7E:
                  6400750433F6EB298B4E5083A6:
                    0. 0A 0908 0050 0000:?NotifyEndOfStream@CBaseRenderer@@QAEJXZ
                  6C0074098B466C8B0850FF5104:
                    0. 06 B948 002F 0000:?GetCurrentSample@CBaseRenderer@@UAEPAUIMediaSample@@XZ
              8B:
                44240C578986B0000000FF15:
                  0. 00 0000 0027 0000:?SetRepaintStatus@CBaseRenderer@@QAEXH@Z
                466C85C0740A8B0850FF51088366:
                  0. 05 FEAE 002E 0000:?ClearPendingSample@CBaseRenderer@@UAEJXZ
              8D86C0000000833800740A8320008B:
                0. 09 EA18 0030 0000:?TimerCallback@CBaseRenderer@@QAEXXZ
            A400000057FF15........FF8ECC000000751083BEC400000000:
              0. 05 03BE 0033 0000:?StopUsingOutputPin@CDynamicOutputPin@@UAEXXZ
        E8........:
          33FF397E347545397E2C74078BCEE8........397E6475:
            0. 02 CF0F 0076 0000:?EOS@COutputQueue@@QAEXXZ
          837E34007467538B1D........8B4E34E8........8BF8:
            0. 24 2D8C 009C 0000:?FreeSamples@COutputQueue@@IAEXXZ
          8B:
            3D........8D46:
              3050FFD78D461850FFD78D4E08E8:
                0. 00 0000 002D 0000:??1CAMThread@@UAE@XZ
              3C50FFD78D461850FFD78D4E08E8:
                0. 00 0000 002D 0000:??1CAMThread@@UAE@XZ
            463433C93BC17405394E4C7405394E48740433FFEB20:
              0. 0F A87F 004C 0000:?IsIdle@COutputQueue@@QAEHXZ
          8DBE:
            9400000057FF15........33C05789467089467489:
              0. 0D B87C 0036 0000:?ResetEndOfStream@CBaseRenderer@@UAEJXZ
            A00000008BCFE8........33C08BCF894670894674:
              0. 0D C7C5 0036 0000:?ResetEndOfStream@CBaseRenderer@@UAEJXZ
      F9:
        33F6E8........85C07401468BCFE8........85C0740583CE10EB06:
          0. 0B 41A8 002B 0000:@Dns_GetNameAttributesA@4 (REF 0007: @Dns_IsNameFQDN_A@4)
          1. 0B 41A8 002B 0000:@Dns_GetNameAttributesW@4 (REF 0007: @Dns_IsNameFQDN_W@4)
        8B:
          37EB0C8BC68B760450E8........5985F675F02177082177042137:
            0. 03 98B2 0023 0000:?RemoveAll@CBaseList@@QAEXXZ
          7704EB0C8BCE8B76086A01E8........85F675F021770C21770821:
            0. 05 E0EC 0025 0000:?RemoveAll@CBaseList@@QAEXXZ
          B7A000000083C65856FF15........837C240C007D07BF57000780:
            0. 1C D9F0 0047 0000:?GetMediaType@CSourceStream@@MAEJHPAVCMediaType@@@Z
        8DB7:
          9C0000008B0685C074098B0850FF51088326008BCF5F5EE9:
            0. 00 0000 0022 0000:??1CBaseInputPin@@UAE@XZ
          A40000008B0685C074098B0850FF51088326008BCF5F5EE9:
            0. 00 0000 0022 0000:??1CBaseInputPin@@UAE@XZ
        FFB7BC000000FF15........8DB7C0000000FF36FF15........FF36:
          0. 02 ABB7 0036 0000:?BlockOutputPin@CDynamicOutputPin@@IAEXXZ
    BE........56FF15........FF742410FF742410E8........8BF885FF75:
      0. 03 E01E 005E 0000:_RpcpStartRpcServer@8
    E8........8B:
      4C240C8BF0:
        8B01FF1085F68BF87C06FF15........8BC75F:
          0. 04 C85F 0024 0000:?InitialThreadProc@CAMThread@@SGKPAX@Z
        E8........85F68BF87506FF15........8BC7:
          0. 05 FF73 0025 0000:?InitialThreadProc@COutputQueue@@KGKPAX@Z
      74240C837E7C00750389467C8D8E8400000083390075088D:
        0. 0D 5ED5 0069 0000:_Dns_EnlistSecurityContext@4
    FF:
      15........8B74240C8BF8397E047508FF460833C040EB2A8B44241085:
        0. 12 70B8 004A 0000:_TimedLock_Enter@8
      7424:
        10:
          8BF1FF7424108D7E048BCFE8........8B44241885C0C706:
            0. 00 0000 0045 0000:??0CPosPassThru@@QAE@PBGPAUIUnknown@@PAJPAUIPin@@@Z
          FF7424106A006A00FF15........8B35........6801170000FF:
            0. 03 181D 006B 0000:_DefaultHandleReshape@8
        148B:
          7C2410FF7424148D477C50576A008BF1E8........89BED800:
            0. 05 C7E4 0047 0000:??0CRendererInputPin@@QAE@PAVCBaseRenderer@@PAJPBG@Z
          F1FF7424148D7E04FF7424148BCFE8........83661000C707:
            0. 00 0000 0031 0000:??0CSeekingPassThru@@QAE@PAGPAUIUnknown@@PAJ@Z
        188B7C2414FF742418:
          8BF157FF742418E8........:
            83A6E4000000:
              0. 0A D78A 004C 0000:??0CTransInPlaceInputPin@@QAE@PAGPAVCTransInPlaceFilter@@PAJPBG@Z
            89BEA8000000:
              0. 03 7CED 003B 0000:??0CTransInPlaceOutputPin@@QAE@PAGPAVCTransInPlaceFilter@@PAJPBG@Z
          8D475C5057FF74241C8BF1E8........:
            83A6:
              0. 0E 1B57 0046 0000:??0CTransformOutputPin@@QAE@PADPAVCTransformFilter@@PAJPBG@Z (REF 001A: ??0CBaseOutputPin@@QAE@PADPAVCBaseFilter@@PAVCCritSec@@PAJPBG@Z)
              1. 0E 1B57 0046 0000:??0CTransformOutputPin@@QAE@PAGPAVCTransformFilter@@PAJPBG@Z (REF 001A: ??0CBaseOutputPin@@QAE@PAGPAVCBaseFilter@@PAVCCritSec@@PAJPBG@Z)
            89BE:
              0. 07 FE8D 0049 0000:??0CTransformInputPin@@QAE@PAGPAVCTransformFilter@@PAJPBG@Z (REF 001A: ??0CBaseInputPin@@QAE@PAGPAVCBaseFilter@@PAVCCritSec@@PAJPBG@Z)
              1. 07 FE8D 0049 0000:??0CTransformInputPin@@QAE@PADPAVCTransformFilter@@PAJPBG@Z (REF 001A: ??0CBaseInputPin@@QAE@PADPAVCBaseFilter@@PAVCCritSec@@PAJPBG@Z)
  668B7424080FB7C683C01850E8........8BD085D2750C6A0EFF15:
    0. 19 5C58 0039 0000:_Dns_AllocateRecord@4
  68:
    6C2F0000FF54240C8BD033F63BD6590F84B10000005733C0B9DB0B00008B:
      0. 39 C447 00CE 0000:_NFMcomp_create@4
    96000000E8........8BF085F67414FF74240856E8........85C0750A56:
      0. 01 3E9B 002F 0000:_Dns_Ip4AddressToReverseNameAlloc_W@4
    B4220000FF54240C8BF085F65974245733C03905........B9AD0800008B:
      0. 07 F2CA 003B 0000:_NFMdeco_create@4
    ........:
      6A056A028BF1E8........83C40C833E00:
        5E751568........6A:
          0. 04 48BC 0032 0000:?IsDirectDrawLoaded@CLoadDirectDraw@@QAEJXZ
        741C68........6A05:
          0. 03 0DE8 0037 0000:?ReleaseDirectDraw@CLoadDirectDraw@@QAEXXZ
        751568........6A05:
          0. 03 0DE8 004B 0000:?GetDirectDraw@CLoadDirectDraw@@QAEPAUIDirectDraw@@XZ
      8BF1:
        6A026A02C706........C74610........C74614:
          0. 01 3E9B 0040 0000:??1CTransformOutputPin@@UAE@XZ
        E8........8BC65EC3:
          0. 00 0000 0011 0000:??0CNode@CBaseList@@QAE@XZ
        FF15........:
          85C07517A1........85C0740E50FF15:
            0. 00 0000 0032 0000:??1CBaseObject@@QAE@XZ
          8BC65EC20400:
            0. 00 0000 0014 (!)0000:?
      BE05400080FF15........85C074:
        1868........50FF15:
          0. 00 0000 0031 0000:?CoInitializeHelper@CAMThread@@SGJXZ
        1A68........50FF15:
          0. 00 0000 0047 0000:?CoInitializeHelper@CAMThread@@SGJXZ
      FF15........:
        6A008BF05668........FF15........85C07407:
          0. 03 1A2B 0034 0000:?FLoadXoleHlp@@YGHXZ
        85C0A3........0F84AA0000008B35........68:
          0. 00 0000 00D1 0000:_Initialize
        8BF085F674:
          1068........56FF15........85C0:
            0. 1D E063 0046 0000:_DtcInstallClient
          2668........56FF15........85C0:
            0. 0B 59DD 003C 0000:_ScreenSaverChangePassword@4
  6A:
    00:
      6A016A016A008BF1FF15........85C08986:
        BC00000075065EE9:
          0. 00 0000 0029 0000:?Initialize@CDynamicOutputPin@@AAEJXZ
        D000000075065EE9:
          0. 00 0000 0029 0000:?Initialize@CDynamicOutputPin@@AAEJXZ
      83C11451FF15........8BF085F674106AFF56FF15........56FF15:
        0. 00 0000 0025 0000:?Close@CAMThread@@QAEXXZ
      FF7424:
        0C8BF16A03E8........8B8E900000008B01FF504C8B4424085E:
          0. 03 8E1E 0023 0000:?AbortPlayback@CVideoTransformFilter@@IAEJJ@Z
        148BF1FF742414FF742414E8........C706........C7460C:
          0. 00 0000 0037 0000:??0CSystemClock@@QAE@PAGPAUIUnknown@@PAJ@Z
    01:
      668B74240C56E8........83C40885C0668BC674038D46205EC3:
        0. 00 0000 001D 0000:_towlower
      6A01FF7424188BF1:
        6A00FF74241CE8........8B442408894660C706:
          0. 00 0000 0030 0000:??0CImageAllocator@@QAE@PAVCBaseFilter@@PAGPAJ@Z
        FF742418FF742418E8........83666000C706:
          0. 00 0000 002F 0000:??0CMemAllocator@@QAE@PADPAUIUnknown@@PAJ@Z (REF 0014: ??0CBaseAllocator@@QAE@PADPAUIUnknown@@PAJHH@Z)
          1. 00 0000 002F 0000:??0CMemAllocator@@QAE@PAGPAUIUnknown@@PAJ@Z (REF 0014: ??0CBaseAllocator@@QAE@PAGPAUIUnknown@@PAJHH@Z)
    04E8........8BF085F67423FF7424108B44240CFF7424106A00FF7018E8:
      0. 00 0000 003F 0000:_PtrRecordCopy@12
    08E8........8BF085F6:
      5974:
        64DD4424086A0156DD1E6A00E8........85:
          0. 0D 8DF1 0077 0000:_auxWireSphere@8
        70DD4424086A0156DD1E6A0AE8........85:
          0. 0E 45E4 0083 0000:_auxSolidSphere@8
        7DDD4424086A0156DD1E6A:
          01E8........85:
            0. 0E 1695 0090 0000:_auxWireCube@8
          0BE8........85:
            0. 0E 6668 0090 0000:_auxSolidCube@8
      7428FF7424108B44240CFF742410668B481C6A00:
        0. 08 F907 0047 0000:_MxRecordCopy@12
    0CE8........8BF085F674:
      26837C2410008B442408FF74240C89067407E8:
        0. 00 0000 0038 0000:_Dns_CreateAPIContext@12
      388B442408668B481CFF74241066894E1C668B:
        0. 18 D602 0057 0000:_SrvRecordCopy@12
      3D578B7C240CFF37E8........85C0741D8906:
        0. 04 F739 004F 0000:_Dns_CopyCredentials@4
    10E8........8BF085F6:
      59:
        0F8486000000DD4424086A02DD1E56DD442418:
          0. 06 DD4D 009D 0000:_auxSolidCone@16
        74:
          2C6A01FF15........89068B442410894608:
            0. 0E 3E69 003F 0000:_makeModelPtr@12
          64DD4424086A02DD1E56DD4424186A:
            03DD5E:
              0. 02 C1AA 0077 0000:_auxWireTorus@16
            0DDD5E:
              0. 02 C1AA 0077 0000:_auxSolidTorus@16
          7BDD4424086A02DD1E56DD4424186A09DD5E:
            0. 02 C1AA 008E 0000:_auxWireCone@16
      744157FF7424148B7C2410FF7424146A00FF7724:
        0. 01 3E9B 0053 0000:_WinsrRecordCopy@12
    1CE8........8BF085F60F84A2000000535557FF742414FF15........8B:
      0. 08 4050 00B8 0000:_Dns_AllocateCredentials@12
    34E8........8BF085F67414837C2408007422FF742408E8........85C0:
      0. 04 8014 003D 0000:_SaBlob_Create@4
    48FF15........8BF085F67415FF74240856E8........85C07D0B56FF15:
      0. 00 0000 002E 0000:?CreateMediaType@@YGPAU_AMMediaType@@PBU1@@Z
    4BE8........8BF085F67414FF74240856E8........85C0750A56E8:
      0. 00 0000 002C 0000:_Dns_Ip4AddressToReverseNameAlloc_A@4
  8B:
    31EB1052E8........3B442408741585D275048BD6EB038B520485D275E5:
      0. 0A 6507 002A 0000:?FindI@CBaseList@@IBEPAU__POSITION@@PAX@Z
    35........:
      85F67419566A0068........FF15........3BF0750756FF15:
        0. 00 0000 0026 0000:_FreeDtcHelper
      DBE3E8........:
        33C985F674188B4604F70008000100740D89:
          0. 0E 5A08 002E 0000:__fpreset
        85F674168B4604F70008000100740B836020:
          0. 0A 2A74 002A 0000:__fpreset
    37668B06663D5C007406663D2F00754E6A03464668........56FF15:
      0. 00 0000 0064 (l)0000:_ParseLocalDevicePrefix@4
    4424140BC075288B4C24108B44240C33D2F7F18BD88B442408F7F18BF08B:
      0. 75 26D8 0095 0000:__aulldvrm
    70108D48088B11D1EE89500483E6015683C00C505152E8........5EC3:
      0. 00 0000 001F (l)0000:_TokenAdvance@4
    71:
      08:
        85F6741C8B4608FF4904894108792B689D00000068........68:
          0. 00 0000 0042 0000:?RemoveFromCache@CNodeCache@CBaseList@@QAEPAVCNode@2@XZ
        EB0C8B:
          C68B760450E8........5985F675F05EC3:
            0. 00 0000 0018 0000:??1CNodeCache@CBaseList@@QAE@XZ
          CE8B76086A01E8........85F675F05EC3:
            0. 00 0000 0018 0000:??1CNodeCache@CBaseList@@QAE@XZ
      5033C085F67E1E8B49548B1185D2740583C254EB0233D23B542408740B:
        0. 0F 09B2 002F 0000:?FindPinNumber@CSource@@QAEHPAUIPin@@@Z
    7424:
      08:
        0FB646:
          180FB70E8D4C31188D5430193BCA730433C0EB3E837C240C:
            0. 10 9AD8 005E 0000:_PtrRpcRecordConvert@8
          1A0FB70E8D4C31188D54301B3BCA730433C0EB46837C240C:
            0. 10 397D 0066 0000:_MxRpcRecordConvert@8
          1E0FB70E8D4C31188D54301F3BCA730433C0EB56837C240C:
            0. 10 581E 0076 0000:_SrvRpcRecordConvert@8
          240FB70E8D4C31188D5430253BCA730433C0EB50837C240C:
            0. 10 6E3E 0070 0000:_NbstatRpcRecordConvert@8
        33C0:
          668B460A50E8........85C0741A0FB74E0A8BD157C1E90283:
            0. 13 2D6C 0033 0000:_FlatRecordCopy@12
          85F6741C538BCE8D51018A194184DB75F92BCA4103C183F901:
            0. 0B 6A41 002B 0000:_MultiSz_Size_A@4
          8A86:
            5C02000083E00F83E80074394874234848741583E80C74:
              0. 09 3344 0055 0000:_MCIResetCompressionGlobal@4
            B20000005733FF83E00F2BC7744248742D487420487413:
              0. 0B 2F87 0061 0000:_MDIResetDecompressionGlobal@4
              1. 0B AECE 006F 0000:_MDIDestroyDecompressionGlobal@4
        56:
          6A0FE8........8B464C85C0740550FF5604598B464485C07405:
            0. 3B 507A 005B 0000:_FDIDestroy
          E8........:
            33C039461C5E0F94C0C20400:
              0. 00 0000 0017 0000:_LZX_EncodeFlush@4
            56:
              E8........56E8........83A6CC2E0000005EC2:
                0. 02 2768 0022 0000:_LZX_DecodeNewGroup@4
              FF15........56FF15........5EC20400:
                0. 00 0000 001D 0000:_NetpEventlogClose@4
            85C074058B460CEB0383C8FF5EC20400:
              0. 00 0000 001B 0000:_IP6_GET_V4_ADDR_IF_MAPPED@4
          FF15........598D48FFD1E8741E53578D0C4E8BD68BF8668B19:
            0. 18 EE8A 0038 0000:_ReverseString@4
        57:
          0FB77E0A57E8........85C074168BCF8BD1C1E90283C6188D78:
            0. 0F 5526 002F 0000:_FlatDnsRecordConvert@4
          33:
            C08BFEABABABAB33FF576A015757FF15........3BC77508FF:
              0. 01 54B7 0037 0000:_TimedLock_Initialize@8
            FF:
              668B:
                3E57E8........85C074170FB7CF8BD1C1E90283C618:
                  0. 11 68C0 0031 0000:_FlatRpcRecordConvert@8
                7E0857E8........6685C0740E0FB7C08B0485:
                  0. 00 0000 0040 0000:_DnsConvertRecordToRpcBuffer@4
              EB:
                0D5647FF15........598D74460266833E0075ED8BC75F:
                  0. 04 C85F 0024 0000:_NetpTStrArrayEntryCount@4
                1056FF15........8D44000203F85903F066833E0075EA:
                  0. 08 8C46 0028 0000:_NetpTStrArraySize@4
                1356FF15........4003F883F8015974078D344685F675:
                  0. 09 C50E 0029 0000:_MultiSz_Size_W@4
          56:
            6A0FE8........FF7424108D4630FF762CFF7624FF761C6A02:
              0. 02 F6B7 0034 0000:_FolderDestroy@8
            E8........FF74241056FF15........5959568BF8E8:
              0. 00 0000 0033 0000:_strtail@8
          6A0056E8........56E8........568BF8E8........8BC75F5E:
            0. 03 8E1E 0023 0000:_estimate_buffer_contents@4
          833D........017E0F0FB6066A0850E8........5959EB0F0FB6:
            0. 03 94A3 0054 0000:_atof
          8B:
            3D........56FFD78D461050FFD7668B463E663D0800771083:
              0. 2C 6432 005A 0000:?UpdateFormat@CImageDisplay@@QAEJPAUtagVIDEOINFO@@@Z
            7C2410:
              6A045933C0F3A75F0F:
                94C05EC20800:
                  0. 00 0000 0019 0000:_IsEqualGUID@8
                95C05EC20800:
                  0. 00 0000 0019 0000:?
              EB088B3685F68B3F74186A00FF7614FF7610FF760CFF:
                0. 04 7ADE 0031 0000:_CopyRanges@8
            7E:
              1057FF15........8B4424105789461CFF15........5F33:
                0. 05 B68E 0025 0000:?SetSink@CBasePin@@UAGJPAUIQualityControl@@@Z
              1457FF15........:
                57C68695000000:
                  00C6461800FF15:
                    0. 00 0000 0029 0000:?EndFlush@CBaseInputPin@@UAGJXZ
                  01FF15........5F33:
                    0. 05 1627 0025 0000:?BeginFlush@CBaseInputPin@@UAGJXZ
                83:
                  A6CC0000000083A6D00000000056E8:
                    0. 00 0000 0034 0000:?EndFlush@CRenderedInputPin@@UAGJXZ
                  C6F456E8........578BF0FF15:
                    0. 00 0000 0029 0000:?Disconnect@CDynamicOutputPin@@UAGJXZ
                8B461C837814007407BE24020480EB0B:
                  0. 05 992B 0039 0000:?Disconnect@CBasePin@@UAGJXZ
              2457FF15........:
                57C7460401000000FF15........5F33:
                  0. 05 1627 0025 0000:?Pause@CBaseMediaFilter@@UAGJXZ
                8366040057FF15........5F33C05EC2:
                  0. 02 2768 0022 0000:?Stop@CBaseMediaFilter@@UAGJXZ
                8B44241089460C8B442414894610837E:
                  0. 1E D7A8 0049 0000:?Run@CBaseMediaFilter@@UAGJ_J@Z
              3457FF15........DD44241057DD5E28FF15........8B06:
                0. 0A 38B6 002A 0000:?SetRate@CSourceSeeking@@UAGJN@Z
            BECC00000083C75C57FF15........837E0C00742D8B86CC00:
              0. 10 11BD 005C 0000:?BeginFlush@CTransformInputPin@@UAGJXZ
              1. 23 7A34 005C 0000:?EndFlush@CTransformInputPin@@UAGJXZ
            C16A19598D7848F3A55FC780AC000000010000005EC20400:
              0. 00 0000 001F 0000:?SetDIBData@CImageSample@@QAEXPAUtagDIBDATA@@@Z
            D16A125933C08BFAF3AB408942288942208BFAA5A5A5A55F8B:
              0. 05 9E31 0025 0000:??0CMediaType@@QAE@PBU_GUID@@@Z
            F9A5A5A5A55F5EC20400:
              0. 00 0000 0011 0000:?SetType@CMediaType@@QAEXPBU_GUID@@@Z
            FEF7DF8D46101BFF23F857FF15........8B4424108B08014E:
              0. 1B 7F28 005D 0000:?SetTimeDelta@CBaseReferenceClock@@QAGJAB_J@Z
          8D:
            46:
              0450FF15........8BF885FF751285F6740E8BCEE8:
                0. 00 0000 002F 0000:?Release@?$CComObject@VCPTEventSink@@@ATL@@UAGKXZ (REF 001D: ??1?$CComObject@VCPTEventSink@@@ATL@@QAE@XZ)
                1. 00 0000 002F 0000:?Release@?$CComObject@V?$CTapiIfCollection@PAUITTerminal@@@@@ATL@@UAGKXZ (REF 001D: ??1?$CComObject@V?$CTapiIfCollection@PAUITTerminal@@@@@ATL@@QAE@XZ)
                2. 00 0000 002F 0000:?Release@?$CComObject@V?$CTapiIfCollection@PAUITStream@@@@@ATL@@UAGKXZ (REF 001D: ??1?$CComObject@V?$CTapiIfCollection@PAUITStream@@@@@ATL@@QAE@XZ)
                3. 00 0000 002F 0000:?Release@?$CComObject@V?$CTapiIfCollection@PAUITPluggableTerminalSuperclassInfo@@@@@ATL@@UAGKXZ (REF 001D: ??1?$CComObject@V?$CTapiIfCollection@PAUITPluggableTerminalSuperclassInfo@@@@@ATL@@QAE@XZ)
                4. 00 0000 002F 0000:?Release@?$CComObject@V?$CTapiIfCollection@PAUITPluggableTerminalClassInfo@@@@@ATL@@UAGKXZ (REF 001D: ??1?$CComObject@V?$CTapiIfCollection@PAUITPluggableTerminalClassInfo@@@@@ATL@@QAE@XZ)
              0C50FF15........8BF885FF751285F6740E8BCEE8:
                0. 00 0000 002F 0000:?Release@?$CComObject@VCPlugTerminalClassInfo@@@ATL@@UAGKXZ (REF 001D: ??1?$CComObject@VCPlugTerminalClassInfo@@@ATL@@QAE@XZ)
                1. 00 0000 002F 0000:?Release@?$CComObject@VCPlugTerminalSuperclassInfo@@@ATL@@UAGKXZ (REF 001D: ??1?$CComObject@VCPlugTerminalSuperclassInfo@@@ATL@@QAE@XZ)
                2. 00 0000 002F 0000:?Release@?$CComObject@VCTapiBstrCollection@@@ATL@@UAGKXZ (REF 001D: ??1?$CComObject@VCTapiBstrCollection@@@ATL@@QAE@XZ)
              1050FF15........8BF885FF750D85F674098B066A018BCE:
                0. 0A 966D 002A 0000:?Release@CEnumMediaTypes@@UAGKXZ
              1450FF15........8BF885FF750D85F674098B066A018BCE:
                0. 0A 966D 002A 0000:?Release@CEnumPins@@UAGKXZ
              1850FF15........8BF885FF751285F6740E8BCEE8:
                0. 00 0000 002F 0000:?Release@?$CComObject@V?$CSafeComEnum@UIEnumTerminal@@$1?IID_IEnumTerminal@@3U_GUID@@BPAUITTerminal@@V?$_CopyInterface@UITTerminal@@@ATL@@VCComMultiThreadModel@6@@@@ATL@@UAGKXZ (REF 001D: ??1?$CComObject@V?$CSafeComEnum@UIEnumTerminal@@$1?IID_IEnumTerminal@@3U_GUID@@BPAUITTerminal@@V?$_CopyInterface@UITTerminal@@@ATL@@VCComMultiThreadModel@6@@@@ATL@@QAE@XZ)
                1. 00 0000 002F 0000:?Release@?$CComObject@V?$CSafeComEnum@UIEnumVARIANT@@$1?IID_IEnumVARIANT@@3U_GUID@@BUtagVARIANT@@V?$_Copy@UtagVARIANT@@@ATL@@VCComMultiThreadModel@6@@@@ATL@@UAGKXZ (REF 001D: ??1?$CComObject@V?$CSafeComEnum@UIEnumVARIANT@@$1?IID_IEnumVARIANT@@3U_GUID@@BUtagVARIANT@@V?$_Copy@UtagVARIANT@@@ATL@@VCComMultiThreadModel@6@@@@ATL@@QAE@XZ)
                2. 00 0000 002F 0000:?Release@?$CComObject@V?$CComEnum@UIEnumVARIANT@@$1?IID_IEnumVARIANT@@3U_GUID@@BUtagVARIANT@@V?$_Copy@UtagVARIANT@@@ATL@@VCComMultiThreadModel@6@@ATL@@@ATL@@UAGKXZ (REF 001D: ??1?$CComObject@V?$CComEnum@UIEnumVARIANT@@$1?IID_IEnumVARIANT@@3U_GUID@@BUtagVARIANT@@V?$_Copy@UtagVARIANT@@@ATL@@VCComMultiThreadModel@6@@ATL@@@ATL@@QAE@XZ)
                3. 00 0000 002F 0000:?Release@?$CComObject@V?$CComEnum@UIEnumTerminal@@$1?IID_IEnumTerminal@@3U_GUID@@BPAUITTerminal@@V?$_CopyInterface@UITTerminal@@@ATL@@VCComMultiThreadModel@6@@ATL@@@ATL@@UAGKXZ (REF 001D: ??1?$CComObject@V?$CComEnum@UIEnumTerminal@@$1?IID_IEnumTerminal@@3U_GUID@@BPAUITTerminal@@V?$_CopyInterface@UITTerminal@@@ATL@@VCComMultiThreadModel@6@@ATL@@@ATL@@QAE@XZ)
                4. 00 0000 002F 0000:?Release@?$CComObject@V?$CSafeComEnum@UIEnumStream@@$1?IID_IEnumStream@@3U_GUID@@BPAUITStream@@V?$_CopyInterface@UITStream@@@ATL@@VCComMultiThreadModel@6@@@@ATL@@UAGKXZ (REF 001D: ??1?$CComObject@V?$CSafeComEnum@UIEnumStream@@$1?IID_IEnumStream@@3U_GUID@@BPAUITStream@@V?$_CopyInterface@UITStream@@@ATL@@VCComMultiThreadModel@6@@@@ATL@@QAE@XZ)
                5. 00 0000 002F 0000:?Release@?$CComObject@V?$CComEnum@UIEnumStream@@$1?IID_IEnumStream@@3U_GUID@@BPAUITStream@@V?$_CopyInterface@UITStream@@@ATL@@VCComMultiThreadModel@6@@ATL@@@ATL@@UAGKXZ (REF 001D: ??1?$CComObject@V?$CComEnum@UIEnumStream@@$1?IID_IEnumStream@@3U_GUID@@BPAUITStream@@V?$_CopyInterface@UITStream@@@ATL@@VCComMultiThreadModel@6@@ATL@@@ATL@@QAE@XZ)
                6. 00 0000 002F 0000:?Release@?$CComObject@V?$CSafeComEnum@UIEnumPluggableSuperclassInfo@@$1?IID_IEnumPluggableSuperclassInfo@@3U_GUID@@BPAUITPluggableTerminalSuperclassInfo@@V?$_CopyInterface@UITPluggableTerminalSuperclassInfo@@@ATL@@VCComMultiThreadModel@6@@@@ATL@@UAGKXZ (REF 001D: ??1?$CComObject@V?$CSafeComEnum@UIEnumPluggableSuperclassInfo@@$1?IID_IEnumPluggableSuperclassInfo@@3U_GUID@@BPAUITPluggableTerminalSuperclassInfo@@V?$_CopyInterface@UITPluggableTerminalSuperclassInfo@@@ATL@@VCComMultiThreadModel@6@@@@ATL@@QAE@XZ)
                7. 00 0000 002F 0000:?Release@?$CComObject@V?$CSafeComEnum@UIEnumPluggableTerminalClassInfo@@$1?IID_IEnumPluggableTerminalClassInfo@@3U_GUID@@BPAUITPluggableTerminalClassInfo@@V?$_CopyInterface@UITPluggableTerminalClassInfo@@@ATL@@VCComMultiThreadModel@6@@@@ATL@@UAGKXZ (REF 001D: ??1?$CComObject@V?$CSafeComEnum@UIEnumPluggableTerminalClassInfo@@$1?IID_IEnumPluggableTerminalClassInfo@@3U_GUID@@BPAUITPluggableTerminalClassInfo@@V?$_CopyInterface@UITPluggableTerminalClassInfo@@@ATL@@VCComMultiThreadModel@6@@@@ATL@@QAE@XZ)
                8. 00 0000 002F 0000:?Release@?$CComObject@V?$CSafeComEnum@UIEnumTerminalClass@@$1?IID_IEnumTerminalClass@@3U_GUID@@BU3@V?$_Copy@U_GUID@@@ATL@@VCComMultiThreadModel@5@@@@ATL@@UAGKXZ (REF 001D: ??1?$CComObject@V?$CSafeComEnum@UIEnumTerminalClass@@$1?IID_IEnumTerminalClass@@3U_GUID@@BU3@V?$_Copy@U_GUID@@@ATL@@VCComMultiThreadModel@5@@@@ATL@@QAE@XZ)
                9. 00 0000 002F 0000:?Release@?$CComObject@V?$CComEnum@UIEnumPluggableSuperclassInfo@@$1?IID_IEnumPluggableSuperclassInfo@@3U_GUID@@BPAUITPluggableTerminalSuperclassInfo@@V?$_CopyInterface@UITPluggableTerminalSuperclassInfo@@@ATL@@VCComMultiThreadModel@6@@ATL@@@ATL@@UAGKXZ (REF 001D: ??1?$CComObject@V?$CComEnum@UIEnumPluggableSuperclassInfo@@$1?IID_IEnumPluggableSuperclassInfo@@3U_GUID@@BPAUITPluggableTerminalSuperclassInfo@@V?$_CopyInterface@UITPluggableTerminalSuperclassInfo@@@ATL@@VCComMultiThreadModel@6@@ATL@@@ATL@@QAE@XZ)
                10. 00 0000 002F 0000:?Release@?$CComObject@V?$CComEnum@UIEnumPluggableTerminalClassInfo@@$1?IID_IEnumPluggableTerminalClassInfo@@3U_GUID@@BPAUITPluggableTerminalClassInfo@@V?$_CopyInterface@UITPluggableTerminalClassInfo@@@ATL@@VCComMultiThreadModel@6@@ATL@@@ATL@@UAGKXZ (REF 001D: ??1?$CComObject@V?$CComEnum@UIEnumPluggableTerminalClassInfo@@$1?IID_IEnumPluggableTerminalClassInfo@@3U_GUID@@BPAUITPluggableTerminalClassInfo@@V?$_CopyInterface@UITPluggableTerminalClassInfo@@@ATL@@VCComMultiThreadModel@6@@ATL@@@ATL@@QAE@XZ)
                11. 00 0000 002F 0000:?Release@?$CComObject@V?$CComEnum@UIEnumTerminalClass@@$1?IID_IEnumTerminalClass@@3U_GUID@@BU3@V?$_Copy@U_GUID@@@ATL@@VCComMultiThreadModel@5@@ATL@@@ATL@@UAGKXZ (REF 001D: ??1?$CComObject@V?$CComEnum@UIEnumTerminalClass@@$1?IID_IEnumTerminalClass@@3U_GUID@@BU3@V?$_Copy@U_GUID@@@ATL@@VCComMultiThreadModel@5@@ATL@@@ATL@@QAE@XZ)
            79:
              10A5A5A5A55F5EC20400:
                0. 00 0000 0012 0000:?SetSubtype@CMediaType@@QAEXPBU_GUID@@@Z
              28A5A5A5A5E8........5F5EC20400:
                0. 00 0000 0017 0000:?SetTargetRect@CDrawImage@@QAEXPAUtagRECT@@@Z
              2CA5A5A5A55F5EC20400:
                0. 00 0000 0012 0000:?SetFormatType@CMediaType@@QAEXPBU_GUID@@@Z
              38A5A5A5A5E8........5F5EC20400:
                0. 00 0000 0017 0000:?SetSourceRect@CDrawImage@@QAEXPAUtagRECT@@@Z
            7EF4F7DF8D46041BFF23F857FF15........837E4400752D83:
              0. 31 E043 005C 0000:?Commit@CBaseAllocator@@UAGJXZ
            BE180A0000578D86142B000050680001000056E8........85:
              0. 25 569F 00C2 0000:_read_main_and_secondary_trees@4
          FF742410:
            56E8........56FF15........596A2D6A3A568BF8E8:
              0. 00 0000 003A 0000:_Dns_Ip6AddressToLiteralName@8
            8D4634FF762CFF7628FF76206A0350E8........568B:
              0. 0C 9785 002C 0000:_CabDestroy@8
            FF06E8........598BF857E8........85C05975E7:
              66:
                0. 05 621A 0025 (l)0000:__whiteout
              8B:
                0. 04 72E4 0024 (l)0000:__whiteout
        66F7C600FF7538833D........017E138BC66A0425FF00000050E8:
          0. 00 0000 005A (l)0000:__hextodec
        6800:
          0100008D8660390000508D86402500005056E8........8B86:
            0. 23 1DB9 0064 0000:_encode_trees@4
          980000FF964443000085C05989865C08000074148986600800:
            0. 13 D26D 0033 0000:_init_compressed_output_buffer@4
        69F6E000000080BE........00743953558B2D........578DBE:
          0. 00 0000 0051 0000:_SmbTraceTerminate@4
        6A:
          0156E8........5985C0590FB7C6740383C0205EC3:
            0. 00 0000 001B 0000:_towlower
          108D467450FFB688000000FF561083C40C83F810751B56680001:
            0. 0A F8A6 0048 0000:_FDIReadCFFILEEntry@4
        81:
          3E:
            4C:
              43494374056A02585EC3FF7614E8........FF7614FF5608:
                0. 0D 1C9E 002D 0000:_LCIDestroyCompression
              44494374056A02585EC3FF7628E8........FF7628832600:
                0. 0D 43FC 002D 0000:_LDIDestroyDecompression
            4D:
              43494374056A02585EC38B460C83260085C0578B7E047404:
                0. 35 6810 0062 0000:_MCIDestroyCompression
              44494374056A02585EC3FF7604832600FF760CE8:
                0. 09 5B3E 0029 0000:_MDIDestroyDecompression
            5144494374056A02585EC38935........E8........832600:
              0. 09 AF0F 0029 0000:_QDIDestroyDecompression
          FEFFFF000077158D461850E8........85C0750C6A08FF15:
            0. 00 0000 002D 0000:_Rpc_AllocateRecord@4
        83:
          3E00740A56E8........85C074F633C05EC20400:
            0. 00 0000 001A 0000:_ClearRanges@4
          7E:
            100074:
              20578D7E4C57FF15........8D4E048B01EB028B003B:
                0. 06 FFDB 002F 0000:_Dns_DbgHeapDumpAllocList@4
              2B53578D5E4C53FF15........8D7E048B37EB0B8D46:
                0. 03 49F2 003A 0000:_Dns_DbgHeapValidateAllocList@4
            1800741C8B068BCEFF502C85C07C148B46188B0850FF510883:
              0. 0E 6D45 002E 0000:?DisconnectInternal@CBasePin@@IAGJXZ
            28007406837E10007507B8FFFF0080EB19837E1C00750433C0:
              0. 15 EB79 0035 0000:?Apply@CBasePropertyPage@@UAGJXZ
            40007411FF7644FF15........83664000836644008B463C85:
              0. 11 1D54 0031 0000:?FreeMediaType@@YGXAAU_AMMediaType@@@Z
          BE6808000000762F56E8........8B8E5C0800008B8660080000:
            0. 3C 87E2 005C 0000:_perform_flush_output_callback@4
          C6:
            0856FF15........:
              33C040390676028B065EC20400:
                0. 00 0000 001C 0000:?NonDelegatingAddRef@CBasePropertyPage@@UAGKXZ
              8B3633C0403BF076028BC65EC20400:
                0. 00 0000 001E 0000:?NonDelegatingAddRef@CUnknown@@UAGKXZ
            CC837C240C00752AB900800000813EDDDDDDDD75118B46303D:
              0. 1B 403C 0045 0000:_Dns_DbgHeapValidateMemory@8
          EE0074734E74544E743083EE08741C4E74056A7C58EB71C700:
            0. 00 0000 0092 (l)0000:_GetUserDescriptors@20
          FE:
            01730A6A0DFF15........EB118D04B50400000050E8:
              0. 00 0000 004A 0000:_Txt_RecordBuild@8 (0029: 00)
            FF7414566A00FF15........85F6740756FF15........5EC2:
              0. 02 2768 0022 0000:_PnPRestorePrivileges@4
        85F6:
          0F84:
            950000008B461085C0740650E8........8B461885C074:
              0. 03 A4A8 00A6 0000:_DnssrvFreeServerInfo@4
            C8000000F6460D207408FF7604E8........F6460D100F:
              0. 80 F971 00D9 0000:_Dns_RecordFree@4
          74:
            0C83FEFF7407E8........2BF08B44240C89305EC20800:
              0. 00 0000 001F 0000:_NetpGmtTimeToLocalTime@8
            0D56E8........56FF15........5EC20400:
              0. 00 0000 001A 0000:?DeleteMediaType@@YGXPAU_AMMediaType@@@Z
            0E56FF15........56FF15........5EC20400:
              0. 00 0000 001B 0000:_NetpCloseDebugFile@4
            0FFF36E8........FF7608E8........5EC20400:
              0. 00 0000 001C 0000:_NetpFreeAuthIdentForCreds@4
            116A01FF7604E8........56FF15........5EC20400:
              0. 00 0000 001E 0000:_NetpSrvClose@4
            138B460885C0740650E8........56E8........5EC20400:
              0. 00 0000 0020 0000:_DnssrvFreeDirectoryPartitionEnum@4
            1483FEFF740FE8........8B4C240C03C68901EB068B4424:
              0. 07 5CC3 0027 0000:_NetpLocalTimeToGmtTime@8
            178B46048366080085C0740650E8........56E8:
              0. 04 C85F 0024 0000:_FreeConfListHandle@4
            208B460885C0740650E8........8B461885C0740650E8:
              0. 00 0000 002D 0000:_DnssrvFreeZone@4
            2156E8........598D44000250E8........85C059740B56:
              0. 02 F6B7 002E 0000:__wcsdup
            22837E08007410FF760CE8........83660C008366080083:
              0. 07 A019 002F 0000:_HostentBlob_Free@4
            238B460885C074086A0150E8........F6460D207408FF76:
              0. 02 6103 0030 0000:_DnssrvFreeNode@8
            248B460485C0740650E8........8B460885C0740A50E8:
              0. 00 0000 0031 0000:_Dns_FreeAPIContext@4
            2956E8........83C4048D04450200000050E8........83:
              0. 09 F989 0036 0000:__wcsdup
            2C:
              5357FF36E8........6A088D7E145BFF37E8........83:
                0. 09 F211 0039 0000:_SaBlob_Free@4
              8B0685C0740650E8........8B46:
                0485C0740650E8:
                  0. 00 0000 0039 0000:_Dns_FreeCredentials@4
                1085C0740650E8:
                  0. 00 0000 0039 0000:_Dns_FreeAuthIdentityCredentials@4
            2E817E14AAAAAAAA7525837E0C007408FF36FF15:
              0. 0C 0E8B 003B 0000:_Dns_HeapCleanup@4
            37E8........837E04007427A1........8B500457B8:
              0. 00 0000 0049 0000:_Dns_SetDebugGlobals@4
            48FF766CFF15........8B467085C0740750E8........59:
              0. 09 C89C 0055 0000:_RawImageClose@4
            54:
              53578BC633FF8B004785C075F98B4424148B500485D274:
                0. 44 EA5B 0064 0000:?MoveToTail@CBaseList@@QAEHPAU__POSITION@@PAV1@@Z
              8B460885C0740650E8........8B462885C0740650E8:
                0. 00 0000 0061 0000:_DnssrvFreeZoneInfo@4
            57:
              53578BC633FF8B40044785C075F88B4424148B1085D274:
                0. 47 A4A0 0067 0000:?MoveToHead@CBaseList@@QAEHPAU__POSITION@@PAV1@@Z
              8B464C85C0740650E8........8B465085C0740650E8:
                0. 00 0000 0064 0000:_Dns_FreeSecurityContext@4
          75:
            0433C0EB:
              1A56FF15........85C05974F08D444602668B08:
                0. 0B AAE5 002B 0000:_MultiSz_NextString_W@4
              6F578B3D........56FFD783F80559725C56FFD7:
                0. 3B 97E7 0080 0000:_NetpIsRemoteNameValid@4
            056A5758EB10FF36FF15........56E8........33C05EC2:
              0. 02 2768 0022 0000:_NetpCloseConfigData@4
            07:
              33C0E9:
                11020000B8DC0000C03BF00F8F0B0100000F84DD:
                  0. FF F1DE 0225 0000:_NetpNtStatusToApiStatus@4
                A9000000576A1CE8........8BF885FF0F849600:
                  0. 0F A819 00BD 0000:_Dns_AllocateAndInitializeCredentialsW@4
                B1000000576A1CE8........8BF885FF750733C0:
                  0. 17 3B12 00C5 0000:_Dns_AllocateAndInitializeCredentialsA@4
              B803400080EB2D832600576A38BF0E000780E8:
                0. 0A 6919 0041 0000:?CreateInstance@?$CComObject@V?$CSafeComEnum@UIEnumTerminal@@$1?IID_IEnumTerminal@@3U_GUID@@BPAUITTerminal@@V?$_CopyInterface@UITTerminal@@@ATL@@VCComMultiThreadModel@6@@@@ATL@@SGJPAPAV12@@Z (REF 002A: ??0?$CComObject@V?$CSafeComEnum@UIEnumTerminal@@$1?IID_IEnumTerminal@@3U_GUID@@BPAUITTerminal@@V?$_CopyInterface@UITTerminal@@@ATL@@VCComMultiThreadModel@6@@@@ATL@@QAE@PAX@Z)
                1. 0A 6919 0041 0000:?CreateInstance@?$CComObject@V?$CSafeComEnum@UIEnumStream@@$1?IID_IEnumStream@@3U_GUID@@BPAUITStream@@V?$_CopyInterface@UITStream@@@ATL@@VCComMultiThreadModel@6@@@@ATL@@SGJPAPAV12@@Z (REF 002A: ??0?$CComObject@V?$CSafeComEnum@UIEnumStream@@$1?IID_IEnumStream@@3U_GUID@@BPAUITStream@@V?$_CopyInterface@UITStream@@@ATL@@VCComMultiThreadModel@6@@@@ATL@@QAE@PAX@Z)
                2. 0A 6919 0041 0000:?CreateInstance@?$CComObject@V?$CSafeComEnum@UIEnumPluggableSuperclassInfo@@$1?IID_IEnumPluggableSuperclassInfo@@3U_GUID@@BPAUITPluggableTerminalSuperclassInfo@@V?$_CopyInterface@UITPluggableTerminalSuperclassInfo@@@ATL@@VCComMultiThreadModel@6@@@@ATL@@SGJPAPAV12@@Z (REF 002A: ??0?$CComObject@V?$CSafeComEnum@UIEnumPluggableSuperclassInfo@@$1?IID_IEnumPluggableSuperclassInfo@@3U_GUID@@BPAUITPluggableTerminalSuperclassInfo@@V?$_CopyInterface@UITPluggableTerminalSuperclassInfo@@@ATL@@VCComMultiThreadModel@6@@@@ATL@@QAE@PAX@Z)
                3. 0A 6919 0041 0000:?CreateInstance@?$CComObject@V?$CSafeComEnum@UIEnumPluggableTerminalClassInfo@@$1?IID_IEnumPluggableTerminalClassInfo@@3U_GUID@@BPAUITPluggableTerminalClassInfo@@V?$_CopyInterface@UITPluggableTerminalClassInfo@@@ATL@@VCComMultiThreadModel@6@@@@ATL@@SGJPAPAV12@@Z (REF 002A: ??0?$CComObject@V?$CSafeComEnum@UIEnumPluggableTerminalClassInfo@@$1?IID_IEnumPluggableTerminalClassInfo@@3U_GUID@@BPAUITPluggableTerminalClassInfo@@V?$_CopyInterface@UITPluggableTerminalClassInfo@@@ATL@@VCComMultiThreadModel@6@@@@ATL@@QAE@PAX@Z)
                4. 0A 6919 0041 0000:?CreateInstance@?$CComObject@V?$CSafeComEnum@UIEnumTerminalClass@@$1?IID_IEnumTerminalClass@@3U_GUID@@BU3@V?$_Copy@U_GUID@@@ATL@@VCComMultiThreadModel@5@@@@ATL@@SGJPAPAV12@@Z (REF 002A: ??0?$CComObject@V?$CSafeComEnum@UIEnumTerminalClass@@$1?IID_IEnumTerminalClass@@3U_GUID@@BU3@V?$_Copy@U_GUID@@@ATL@@VCComMultiThreadModel@5@@@@ATL@@QAE@PAX@Z)
            0C6A57FF15........33C0EB:
              325756E8........8BF857E8:
                0. 00 0000 004B 0000:_MultiSz_Copy_A@4 (REF 0018: _MultiSz_Size_A@4)
                1. 00 0000 004B 0000:_MultiSz_Copy_W@4 (REF 0018: _MultiSz_Size_W@4)
              365756FF15........598D7C:
                0. 04 DFBC 004F 0000:_Dns_CreateStringCopy_W@4
              3B8BC68D48018A104084D275:
                0. 09 CEFB 0054 0000:_Dns_CreateStringCopy_A@4
              4B538B5C241085DB75108BC6:
                0. 13 A7D0 0064 0000:_Dns_CreateStringCopy@8
              588B065333DB4385C0577415:
                0. 08 009E 0071 0000:_Dns_CreateConcatenatedString_W@4
        8B:
          06:
            668B4E0E83C0306683F9087606837E2000741133D242D3E28B:
              0. 18 39CE 0038 0000:_GetBitmapFormatSize@4
            6A00FF7424108BCEFF505085C07C0433C0EB10FF74240C8BCE:
              0. 01 361F 002E 0000:?GetCurrentPosition@CPosPassThru@@UAGJPA_J@Z
            85C074:
              0A50FF15........8326005EC20400:
                0. 00 0000 0019 0000:_TimedLock_Cleanup@4
              0B50FF96E42E0000832600595EC20400:
                0. 00 0000 001A 0000:_free_decompression_memory@4
            8BCEFF502050FF742410E8........85C07C1BFF74240C8B06:
              0. 19 9979 0039 0000:?Save@CPersistStream@@UAGJPAUIStream@@H@Z
          46:
            04:
              5733FF4785C0740EFF761050E8........8BF883E7018B06:
                0. 09 8523 0039 0000:_FCIDestroy
              85C075136A01E8........85C075056A0E58EB1F8946046A:
                0. 09 0622 003F 0000:_SaBlob_WriteAddress@8
            088B4004578D44300850FF15........8BF885FF75098B066A:
              0. 0D 8751 002D 0000:?Release@?$CComObject@VCVideoCaptureTerminal@@@ATL@@UAGKXZ
            0C:
              578B7C2410C1E80383E00350FF7718FF7618E8........85:
                0. 14 CF33 003D 0000:_MinfoRecordCompare@8
              8B5424108B4C240C24182C08F6D81BC040506A006A00FF76:
                0. 02 503F 0060 0000:_Minfo_RecordWrite@12
            108B:
              08578B7C24105750FF515885C07C068B4E10894F245F5E:
                0. 03 2EB7 0023 0000:?GetSurfaceDesc@CAggDrawSurface@@UAGJPAU_DDSURFACEDESC@@@Z
              4004578D44301050FF15........8BF885FF750A8D4E08:
                0. 0E 92C9 002E (!)0000:?
            1485C07507B8FFFF0080EB3A576AEC50FF15........8B7E14:
              0. 0F 6BCE 0051 0000:?Deactivate@CBasePropertyPage@@UAGJXZ
            1885C0740D837818007507B809020480EB:
              21578B7E1C57FF15:
                0. 00 0000 003E 0000:?IsUsingDefaultDestination@CBaseControlVideo@@UAGJXZ (000A: A0)
                1. 00 0000 003E 0000:?IsUsingDefaultSource@CBaseControlVideo@@UAGJXZ (000A: B0)
              2F578B7E1C57FF15:
                0. 00 0000 004C 0000:?SetDefaultDestinationPosition@CBaseControlVideo@@UAGJXZ (000A: A4)
                1. 00 0000 004C 0000:?SetDefaultSourcePosition@CBaseControlVideo@@UAGJXZ (000A: B4)
            3C85C0740A50E8........83663C00837C240C00750433C0EB:
              0. 06 F7DE 0046 0000:?SetMediaType@CMediaSample@@UAGJPAU_AMMediaType@@@Z
          4E:
            0485C97507B834020480EB138B018D56F452FF500C85C07C06:
              0. 0A B035 002A 0000:?Cancel@CDeferredCommand@@UAGJXZ
            08836604008B01FF501089460C33C05EC20400:
              0. 00 0000 001A 0000:?Reset@CEnumMediaTypes@@UAGJXZ
            0C8B01FF50148B4E0C8946108B01FF501883660400:
              89460833:
                0. 05 1627 0025 0000:?Refresh@CEnumPins@@AAGJXZ
              8D4E1889:
                0. 03 E5B3 002D 0000:?Reset@CEnumPins@@UAGJXZ
            1485C97507B8FFFF0080EB308B44240C83F805741083F80174:
              0. 10 C898 0047 0000:?Show@CBasePropertyPage@@UAGJI@Z
          86:
            580400002B8630430000680080000003065056E8........85:
              0. 06 14BC 002E 0000:_encoder_start@4
            94000000:
              5733FF3BC7740C3978187507B809020480EB4B538D:
                0. 05 083F 006E 0000:?put_BackgroundPalette@CBaseControlWindow@@UAGJJ@Z
              85C0740D837818007507B809020480EB:
                49578B7C24:
                  0. 0E CB79 0069 0000:?put_Owner@CBaseControlWindow@@UAGJJ@Z
                5253576AEC:
                  0. 05 28B3 0072 0000:?put_WindowStyleEx@CBaseControlWindow@@UAGJJ@Z
          C6C1E0:
            0483C00850E8........85C0740289305EC20400:
              0. 00 0000 001D 0000:_Ip6Array_Create@4
            0683C02050E8........85C0740289305EC20400:
              0. 00 0000 001D 0000:_DnsAddrArray_Create@4
          CEE8........83F8017507B803020480EB1C8B46048B56088B4C:
            0. 18 0275 0038 0000:?Skip@CEnumPins@@UAGJK@Z
        8D:
          04B50400000050E8........85C0740289305EC20400:
            0. 00 0000 001C 0000:_Dns_CreateIpArray@4
          4610508A460CFF742410FF742418FF7604FF760850E8:
            0. 07 08DF 0027 0000:_ScsiPortWmiPostProcess@12
        DD4610DD4608DD06D9C0D8C9D9C2D8CBDEC1D9C3D8CCDEC1D9FADD:
          0. 07 FF59 0064 0000:_normalize@4
        EB:
          05E8........837E24005677F4E8........5EC20400:
            0. 00 0000 001C 0000:_flush_all_pending_blocks@4
          0883C604E8........8B0685C05075F1E8........5EC20400:
            0. 00 0000 001F 0000:_Argv_Free@4
          278B068B08890E897104FF4E0C8B4808294E085064A118000000:
            0. 0A 53CE 0036 0000:_NetpCleanFtinfoContext@4
        FF:
          15........3946047511FF4E08750CFF3683660400FF15:
            0. 00 0000 0025 0000:_TimedLock_Leave@4
          36E8........6A0156E8........5EC20400:
            0. 00 0000 0018 0000:_Dns_CleanupSessionAndEnlistContext@4
          76:
            108B0EFF760C8B01FF7608FF7604FF50548B0E8B01FF50388B:
              0. 2D A738 0058 0000:?AsyncMultiGraphEvent@@YGKPAX@Z
            38FF15........DD44240C:
              DC0D........E8........8946:
                20:
                  0. 08 5947 0037 0000:?put_CurrentPosition@CSourcePosition@@UAGJN@Z
                28:
                  0. 08 0166 0037 0000:?put_StopTime@CSourcePosition@@UAGJN@Z
              FF7638DD5E30FF15........8B06:
                0. 09 9394 0029 0000:?put_Rate@CSourcePosition@@UAGJN@Z
      0C:
        33:
          C0:
            3BF08BCE74:
              108B54240838027404424E75F83BF07507B85700:
                0. 14 439A 0034 (!)0000:?
              128B542408663902740542424E75F63BF07507B8:
                0. 16 D424 0036 0000:_StringLengthWorkerW@12
            578B7C240C4085F68BD7750433C0EB33538D5F7EEB13464666:
              0. 33 42A2 0053 0000:_Dns_CopyNameLabelW@8
          D24266F7C61101578B7C240C8BC2742C8B4F0C83E1033BCA7504:
            0. 32 30EE 005B 0000:_Dns_ScreenRecord@8
        56:
          6A40FF15........85C08B542410894204750AB89A0000C0E9A0:
            0. A7 B721 00C7 0000:_UserPropertyAllocBlock@12
          FF15........83F8FF7514576A1059BF........33D2F3A65F74:
            0. 12 E116 0032 0000:_Dns_Ip4StringToAddress_A@8
        57:
          668B7C240C663BBEB2000000750533C040EB2B56E8........85:
            0. 09 F6BF 0049 0000:_SetDecompressionType@8
          8B:
            4604C1E80B83E00703442414781183F8087D0C8D0480D1E02B:
              0. 07 C9C0 0038 0000:__GetFpRegVal
            7C240CA5A5A5A55F:
              33C05EC20800:
                0. 00 0000 0015 0000:?copy@?$_Copy@U_GUID@@@ATL@@SGJPAU_GUID@@0@Z
              5EC20800:
                0. 00 0000 0013 0000:_IP6_ADDR_COPY@8
          8D7E0457E8........598D44000250578B3D........6A026A00:
            0. 01 361F 0068 0000:_pSetExceptionData@8
        6A0EFF74240C56FF15........6683661C0056FF15........83C4:
          0. 05 8171 0025 0000:_NetpGenerateDefaultPassword@8
        833E007545538B1D........57BF........57FF15........83F8:
          0. 0A 7EA0 0053 0000:_InitializeCriticalSectionProtected@8
        85F6:
          75:
            07B8:
              03400080EB:
                11576A045933C0BF........F3A70F95C0:
                  0. 05 5FDA 0025 (!)0000:?
                17576A0433C059BF........F3A70F94C0:
                  0. 0B 1E2C 002B 0000:?SetTimeFormat@CSourceSeeking@@UAGJPBU_GUID@@@Z
                236A08FF15........85C089067507B80E:
                  0. 06 64BF 0037 0000:?QueryId@CRendererInputPin@@UAGJPAPAG@Z
                308B4C24088B819400000085C0740D8378:
                  0. 10 970D 0044 0000:?get_Visible@CBaseControlWindow@@UAGJPAJ@Z
                316A:
                  14E8........85C05974138B4C2408:
                    0. 09 C859 0045 0000:?EnumMediaTypes@CBasePin@@UAGJPAPAUIEnumMediaTypes@@@Z
                  30E8........85C05974138B4C2408:
                    0. 09 C859 0045 0000:?EnumPins@CBaseFilter@@UAGJPAPAUIEnumPins@@@Z
              57000780EB278B4424088B500C8B4810578BFA2BF9C1:
                0. 1B EE79 003B (!)0000:?
            1C660DFFFF5EC20C0050FF74240CFF15........595985C0:
              0. 1D D66D 003D 0000:_ILUI_traverse_slist@12
          76168B4424108B4C2408538A198B10881AFF00414E75F45B5E:
            0. 03 4ED0 0023 0000:_NetpLogonPutBytes@12
        8BC68D48018A104084D275F92BC13DFF000000760433C0EB1C8B54:
          0. 1E D3D7 003E 0000:_DnssrvWriteNameToFlatBuffer@8
      10:
        85F67507B803400080EB:
          35FF74240CFF15........598B4C240848:
            0. 29 9355 0049 0000:?FindPin@CSource@@UAGJPBGPAPAUIPin@@@Z
          3E68........FF742410FF15........85:
            0. 32 A8C3 0052 0000:?FindPin@CBaseRenderer@@UAGJPBGPAPAUIPin@@@Z
        FF742418DD44240CFF742418565151DD1C24E8........595950E8:
          0. 00 0000 0034 0000:__ecvt
      182B74241456E8........85C0741A0FB7CE8B7424148BD157C1E902:
        0. 11 59FC 0031 0000:_Flat_RecordRead@20
    F0:
      8B:
        0680480140F6460C0274168BC6E8........85C07513836610FEE8:
          0. 00 0000 002F (l)0000:_TypeParseDevPath@4
        4E0C5733FFF7C100D8030074258B16E8........09028BC6E8:
          0. 00 0000 00AE (l)0000:_TypeParseOneLeadSlashName@4
      F646:
        0C0274:
          15E8........85C07514836610FE8BC65EE9........8B36:
            0. 08 8C39 0028 (l)0000:_TypeParseSysPath@4
          19E8........85C07517836610FE80660EFB8BC65EE9:
            0. 00 0000 002B (l)0000:_TypeParseUNCPath@4
          31E8........85C0752F836610FEF6460D2075056A7B585E:
            0. 0A 490F 0043 (l)0000:_TypeParseMailslotPath@4
        0F:
          107436E8........85C00F85BB000000F6460C02741E8B066681:
            0. 0E 3B07 00D3 (l)0000:_TypeParseUNCName@4
          8074278B0680480120F6460F4074058B068308018BC6E8:
            0. 00 0000 0043 (l)0000:_TypeParseRelPath@4
    F1:
      33C038464075105050FF7634FF7608FF15........EB3553578D7E6457:
        0. 02 ABB7 0053 0000:?SetPalette@CBaseWindow@@QAEJXZ
      39742408741B56E8........FF74240856E8........85C07D07B80E00:
        0. 0A A2C8 002A 0000:?Set@CMediaType@@QAEJABU_AMMediaType@@@Z
      56FF15........:
        33C089461C8946188946208BC65EC3:
          0. 00 0000 0019 0000:??0CCritSec@@QAE@XZ
        6A008BCEE8........8BC65EC3:
          0. 00 0000 0017 0000:??0CImageDisplay@@QAE@XZ
        85C05975025EC333C966837C46FE2E5E0F94C18BC1C3:
          0. 00 0000 0020 0000:@Dns_IsNameFQDN_W@4
        8BC65EC3:
          0. 00 0000 000E (!)0000:? (REF 0006: InitializeCriticalSection)
          1. 00 0000 000E 0000:??0CComVariant@ATL@@QAE@XZ (REF 0006: VariantInit)
      57:
        33FF8D4E18897E10897E0C897E08897E14897E04E8........897E34:
          0. 05 A15C 0025 (!)0000:?
        8B:
          3D........8D46:
            5450FFD78D461850FFD756FFD75F5EC3:
              0. 00 0000 001C 0000:??1CMSPThread@@QAE@XZ
            6450FFD783C64456FFD75F5EC3:
              0. 00 0000 0019 0000:??1CBaseWindow@@QAE@XZ
          7E:
            388BCFE8........8B761883FE01740983FE02740433F6EB0333:
              0. 05 0A31 002E 0000:?IsActive@CBaseFilter@@QAEHXZ
            6885FF740E8B46188B085750FF511883666800FF7654FF15:
              0. 00 0000 002C 0000:?CancelNotification@CBaseRenderer@@UAEJXZ
          BEA800000083C7588BCFE8........837E1C0074398BCEE8:
            0. 00 0000 0061 0000:?Inactive@CSourceStream@@MAEJXZ
        8D:
          460850FF15........33FF578D4E20E8........578D4E38E8:
            0. 00 0000 0046 0000:??0CCmdQueue@@QAE@XZ
          7E:
            046A008BCFE8........8B44240C8366080089075FC706:
              0. 00 0000 0027 0000:??0CClassFactory@@QAE@PBVCFactoryTemplate@@@Z
            088BCFE8........83667C008BCEE8........8BCFE8:
              0. 05 3C0E 0025 0000:?EndRun@CCmdQueue@@UAEJXZ
            188BCFE8........:
              837E1400750533F646EB448B46608B0850FF:
                0. 17 19E9 0069 0000:?StopThread@CPullPin@@AAEJXZ
              8B:
                868800000085C0743F837E60007439837E:
                  0. 15 9F95 0068 0000:?StartThread@CPullPin@@AAEJXZ
                CEE8........8B466085C0740A8B0850FF:
                  0. 1E 6ECA 0047 0000:?Disconnect@CPullPin@@QAEJXZ
            208BCFE8........33C08BCF89464889464C894650894654C746:
              0. 06 B4F6 002F 0000:?ResetMediaTime@CRendererPosPassThru@@QAEJXZ
            588BCFE8........8B76508BCFE8........5F8BC65EC3:
              0. 00 0000 001D 0000:?GetPinCount@CSource@@UAEHXZ
          86AC00000050E8........85C0BF........751068321000005768:
            0. 00 0000 00B8 0000:?BlockOutputPin@CDynamicOutputPin@@IAEXXZ
          BE:
            800000008BCFE8........8BCEE8........8BCFE8........5F:
              0. 04 0C38 0028 0000:?EndFlush@CVideoTransformFilter@@UAEJXZ
            A00000008BCFE8........:
              33C039466C8BCF0F95C08BF0E8:
                0. 00 0000 0027 0000:?HaveCurrentSample@CBaseRenderer@@UAEHXZ
              83:
                667400837E640175138B06836664:
                  0. 0A F015 003A 0000:?StopStreaming@CBaseRenderer@@UAEJXZ
                7E6C0074098B466C8B0850FF5104:
                  0. 06 DDF8 002F 0000:?GetCurrentSample@CBaseRenderer@@UAEPAUIMediaSample@@XZ
              8B466C85C0740A8B0850FF51088366:
                0. 05 9A1E 002E 0000:?ClearPendingSample@CBaseRenderer@@UAEJXZ
              8D86D8000000833800740A8320008B:
                0. 0B B605 002F 0000:?TimerCallback@CBaseRenderer@@QAEXXZ
            AC0000008BCFE8........8BCEE8........FF8EE00000007510:
              0. 0C 7B38 0040 0000:?StopUsingOutputPin@CDynamicOutputPin@@UAEXXZ
        B9........E8........8D4E0CE8........8D462833FF50C74604:
          0. 00 0000 004D 0000:??0CPlugTerminalClassInfo@@QAE@XZ
        C706........C7460C........C74610........E8........8BCEE8:
          0. 00 0000 008A 0000:??1CBaseRenderer@@UAE@XZ
        FF74240C8D7E048BCFE8........8B44241085C075028BC689075FC7:
          0. 0C 07DE 002C 0000:??0CUnknown@@QAE@PBDPAUIUnknown@@@Z (REF 000E: ??0CBaseObject@@QAE@PBD@Z)
          1. 0C 07DE 002C 0000:??0CUnknown@@QAE@PBGPAUIUnknown@@@Z (REF 000E: ??0CBaseObject@@QAE@PBG@Z)
          2. 0C 67B9 002C 0000:??0CUnknown@@QAE@PADPAUIUnknown@@PAJ@Z (REF 000E: ??0CBaseObject@@QAE@PBD@Z)
          3. 0C 67B9 002C 0000:??0CUnknown@@QAE@PAGPAUIUnknown@@PAJ@Z (REF 000E: ??0CBaseObject@@QAE@PBG@Z)
      68........C706........C746:
        04:
          01000000FF15........8BCE5EE9:
            0. 00 0000 0023 0000:??1?$CComObject@VCPTEventSink@@@ATL@@QAE@XZ
          ........C7460C01000000FF15:
            0. 00 0000 002A 0000:??1?$CComObject@VCPlugTerminalSuperclassInfo@@@ATL@@QAE@XZ (REF 000A: ??_7?$CComObject@VCPlugTerminalSuperclassInfo@@@ATL@@6B?$IDispatchImpl@UITPluggableTerminalSuperclassInfo@@$1?IID_ITPluggableTerminalSuperclassInfo@@3U_GUID@@B$1?LIBID_TAPI3Lib@@3U3@B$00$0A@VCComTypeInfoHolder@ATL@@@1@@)
            1. 00 0000 002A 0000:??1?$CComObject@VCPlugTerminalClassInfo@@@ATL@@QAE@XZ (REF 000A: ??_7?$CComObject@VCPlugTerminalClassInfo@@@ATL@@6B?$IDispatchImpl@UITPluggableTerminalClassInfo@@$1?IID_ITPluggableTerminalClassInfo@@3U_GUID@@B$1?LIBID_TAPI3Lib@@3U3@B$00$0A@VCComTypeInfoHolder@ATL@@@1@@)
        1801000000FF15........8D461C50FF:
          0. 01 54B7 002D 0000:??1?$CComObject@V?$CComEnum@UIEnumVARIANT@@$1?IID_IEnumVARIANT@@3U_GUID@@BUtagVARIANT@@V?$_Copy@UtagVARIANT@@@ATL@@VCComMultiThreadModel@6@@ATL@@@ATL@@QAE@XZ (REF 000A: ??_7?$CComObject@V?$CComEnum@UIEnumVARIANT@@$1?IID_IEnumVARIANT@@3U_GUID@@BUtagVARIANT@@V?$_Copy@UtagVARIANT@@@ATL@@VCComMultiThreadModel@6@@ATL@@@ATL@@6B@)
          1. 01 54B7 002D 0000:??1?$CComObject@V?$CComEnum@UIEnumTerminal@@$1?IID_IEnumTerminal@@3U_GUID@@BPAUITTerminal@@V?$_CopyInterface@UITTerminal@@@ATL@@VCComMultiThreadModel@6@@ATL@@@ATL@@QAE@XZ (REF 000A: ??_7?$CComObject@V?$CComEnum@UIEnumTerminal@@$1?IID_IEnumTerminal@@3U_GUID@@BPAUITTerminal@@V?$_CopyInterface@UITTerminal@@@ATL@@VCComMultiThreadModel@6@@ATL@@@ATL@@6B@)
          2. 01 54B7 002D 0000:??1?$CComObject@V?$CComEnum@UIEnumStream@@$1?IID_IEnumStream@@3U_GUID@@BPAUITStream@@V?$_CopyInterface@UITStream@@@ATL@@VCComMultiThreadModel@6@@ATL@@@ATL@@QAE@XZ (REF 000A: ??_7?$CComObject@V?$CComEnum@UIEnumStream@@$1?IID_IEnumStream@@3U_GUID@@BPAUITStream@@V?$_CopyInterface@UITStream@@@ATL@@VCComMultiThreadModel@6@@ATL@@@ATL@@6B@)
          3. 01 54B7 002D 0000:??1?$CComObject@V?$CComEnum@UIEnumPluggableSuperclassInfo@@$1?IID_IEnumPluggableSuperclassInfo@@3U_GUID@@BPAUITPluggableTerminalSuperclassInfo@@V?$_CopyInterface@UITPluggableTerminalSuperclassInfo@@@ATL@@VCComMultiThreadModel@6@@ATL@@@ATL@@QAE@XZ (REF 000A: ??_7?$CComObject@V?$CComEnum@UIEnumPluggableSuperclassInfo@@$1?IID_IEnumPluggableSuperclassInfo@@3U_GUID@@BPAUITPluggableTerminalSuperclassInfo@@V?$_CopyInterface@UITPluggableTerminalSuperclassInfo@@@ATL@@VCComMultiThreadModel@6@@ATL@@@ATL@@6B@)
          4. 01 54B7 002D 0000:??1?$CComObject@V?$CComEnum@UIEnumPluggableTerminalClassInfo@@$1?IID_IEnumPluggableTerminalClassInfo@@3U_GUID@@BPAUITPluggableTerminalClassInfo@@V?$_CopyInterface@UITPluggableTerminalClassInfo@@@ATL@@VCComMultiThreadModel@6@@ATL@@@ATL@@QAE@XZ (REF 000A: ??_7?$CComObject@V?$CComEnum@UIEnumPluggableTerminalClassInfo@@$1?IID_IEnumPluggableTerminalClassInfo@@3U_GUID@@BPAUITPluggableTerminalClassInfo@@V?$_CopyInterface@UITPluggableTerminalClassInfo@@@ATL@@VCComMultiThreadModel@6@@ATL@@@ATL@@6B@)
          5. 01 54B7 002D 0000:??1?$CComObject@V?$CComEnum@UIEnumTerminalClass@@$1?IID_IEnumTerminalClass@@3U_GUID@@BU3@V?$_Copy@U_GUID@@@ATL@@VCComMultiThreadModel@5@@ATL@@@ATL@@QAE@XZ (REF 000A: ??_7?$CComObject@V?$CComEnum@UIEnumTerminalClass@@$1?IID_IEnumTerminalClass@@3U_GUID@@BU3@V?$_Copy@U_GUID@@@ATL@@VCComMultiThreadModel@5@@ATL@@@ATL@@6B@)
      6A:
        00:
          C706........E8........8D4E:
            4CE8........83C63456FF15:
              0. 00 0000 0024 0000:??1CBaseStreamControl@@QAE@XZ
            58E8........8D4E345EE9:
              0. 00 0000 0021 0000:??1CBaseStreamControl@@QAE@XZ
          FF7604FF15........85C0740433C0EB108B44240885C074058B4E:
            0. 0A F27A 002A 0000:?CheckRequest@CAMThread@@QAEHPAK@Z
        018D4E04E8........6A008D4E08E8........8D4E18E8........8D:
          0. 03 E5A4 002F 0000:??0CAMThread@@QAE@XZ
        FFFF7604FF15........8B460C5EC3:
          0. 00 0000 0013 0000:?GetRequest@CAMThread@@QAEKXZ
      83:
        26008D460450FF15........8BC65EC3:
          0. 00 0000 0014 0000:??0?$CComObjectRootEx@VCComMultiThreadModel@ATL@@@ATL@@QAE@XZ
        3E00:
          74:
            0733C0E99B0000008B460485C05357752E8B3D........6800:
              0. 06 A3C9 00AE 0000:?LoadDirectDraw@CLoadDirectDraw@@QAEJPAD@Z
            14680302000068........68........E8........8BC65EC3:
              0. 00 0000 0020 0000:??I?$QzCComPtr@UIPinConnection@@@@QAEPAPAUIPinConnection@@XZ
          7514680402000068........68........E8........8B065EC3:
            0. 00 0000 0020 0000:??C?$QzCComPtr@UIPinConnection@@@@QAEPAUIPinConnection@@XZ
        4E10FF834E18FFB800100000:
          5733FF894604894608B8FFFFFF7F897E:
            0. 06 381A 0052 0000:??0CBaseStreamControl@@QAE@XZ
          894604894608B8FFFFFF7F5733FF8946:
            0. 0D 7CC6 0054 0000:??0CBaseStreamControl@@QAE@XZ
        66:
          0C00B9........E8........83660800C74604........83661400:
            0. 06 96A0 0035 0000:??0CTapiBstrCollection@@QAE@XZ
          6000837E1402750F8B06FF507C85C07C0F6A008BCEEB026A01E8:
            0. 00 0000 0029 0000:?CompleteConnect@CBaseRenderer@@UAEJPAUIPin@@@Z
        7E:
          0800:
            57:
              75056A085FEB068B7E0483C7088BC7C1E0:
                0250FF36FF15:
                  0. 00 0000 0034 (!)0000:?
                0350FF36FF15:
                  0. 00 0000 0034 0000:?Grow@?$CMSPArray@U_THREADPOOLWAITBLOCK@CMSPCallMultiGraph@@$07$07@@QAEHXZ
              BF........:
                740D6A675768........E8........837E0C00:
                  0. 06 22A9 0041 0000:??1CBaseWindow@@UAE@XZ
                751068:
                  4F0300005768........E8........83:
                    0. 0C D377 003B 0000:?GetWindowHDC@CBaseWindow@@QAEPAUHDC__@@XZ
                  590300005768........E8........83:
                    0. 0C 4793 003B 0000:?GetMemoryHDC@CBaseWindow@@QAEPAUHDC__@@XZ
            74:
              0433C05EC3:
                837E0C0074116A3A68........68........E8:
                  0. 00 0000 0098 0000:?PrepareWindow@CBaseWindow@@UAEJXZ
                8B068D4E28518D4E24518D4E20518BCEFF5038:
                  0. 11 870E 0081 0000:?PrepareWindow@CBaseWindow@@UAEJXZ
              31FF15........8B460C85C0740E50FF7608FF15:
                0. 0E C5E7 003E 0000:?UninitialiseWindow@CBaseWindow@@UAEJXZ
            751468:
              3103000068........68........E8........8B4610:
                0. 02 37B2 0022 0000:?GetWindowWidth@CBaseWindow@@QAEJXZ
              3B03000068........68........E8........8B4614:
                0. 02 37B2 0022 0000:?GetWindowHeight@CBaseWindow@@QAEJXZ
              4503000068........68........E8........8B4608:
                0. 02 37B2 0022 0000:?GetWindowHWND@CBaseWindow@@QAEPAUHWND__@@XZ
            7E14FF36FF15........8326008366040083660800595EC3:
              0. 00 0000 001F (!)0000:?
          14:
            00:
              74:
                1468B900000068........68........E8........8BCE5E:
                  0. 01 B78A 0025 0000:?Active@CPullPin@@QAEJXZ
                23837E6C00C74670010000007516FF765CFF15........83:
                  0. 10 1C23 0030 0000:?EndOfStream@CBaseRenderer@@UAEJXZ
              7507B813020480EB218B46148B08578B7C240C5750FF510C85:
                0. 15 F922 0035 0000:?StreamTime@CBaseMediaFilter@@UAEJAAVCRefTime@@@Z
            017509FF765CFF15........8B066A008BCEFF50288B068BCEFF:
              0. 0C B093 0034 0000:?BeginFlush@CBaseRenderer@@UAEJXZ
          18:
            00:
              7422837E6C00C746700100000075158D4E5CE8........837E:
                0. 0F 24A0 002F 0000:?EndOfStream@CBaseRenderer@@UAEJXZ
              7507B813020480EB218B46188B08578B7C240C5750FF510C85:
                0. 15 D1B7 0035 0000:?StreamTime@CBaseFilter@@UAEJAAVCRefTime@@@Z
            017509FF765CFF15........8B066A008BCEFF50288B068BCEFF:
              0. 0C B093 0034 0000:?BeginFlush@CBaseRenderer@@UAEJXZ
          1C00:
            57BF........741068510600005768........E8........FF:
              0. 03 DAA0 0053 0000:??1CBasePin@@UAE@XZ
            7514689C0C000068........68........E8........8B462C:
              0. 29 56A0 0049 0000:?CheckStreaming@CBaseInputPin@@UAEJXZ
          28007509C74658000000005EC356FF15........6AFC8BCEE8:
            0. 00 0000 003D 0000:?Reset@COutputQueue@@QAEXXZ
          340075:
            09C74664000000005EC38BCEE8........6AFC8BCEE8:
              0. 00 0000 003C 0000:?Reset@COutputQueue@@QAEXXZ
            1468F202000068........68........E8........8B464C:
              0. 0C 01D8 0036 0000:?NotifyThread@COutputQueue@@IAEXXZ
          4000:
            7409FF7644FF15........83664000836644005EC3:
              0. 00 0000 001C 0000:?ResetFormatBuffer@CMediaType@@QAEXXZ
            7507B85F020480EB6F837C240801751F8B868C000000837818:
              0. 30 3395 0083 0000:?CompleteConnect@CTransInPlaceFilter@@UAEJW4_PinDirection@@PAUIPin@@@Z
          4400742C837E40007514683113000068........68........E8:
            0. 00 0000 0037 0000:?NotifySample@CBaseAllocator@@QAEXXZ
          48007E32837E50007E2C837E54007E268B463C3B464C7414689413:
            0. 03 8229 0042 0000:?Alloc@CBaseAllocator@@MAEJXZ
          6000:
            57BF........741068391200005768........E8........8B:
              0. 09 FFE7 006A 0000:??1CBaseAllocator@@UAE@XZ
            C706........C74610........741468B105000068:
              0. 01 361F 0032 0000:??1CImageAllocator@@UAE@XZ
          6800:
            57741A837E1C007514686F03000068........68........E8:
              0. 00 0000 004C 0000:?CancelNotification@CBaseRenderer@@UAEJXZ
            C706........C74610........C74614........C786000100:
              0. 01 78F0 004D 0000:??1CBaseVideoRenderer@@UAE@XZ
          7005720CFF742408E8........59EB22578D7E5057FF15:
            0. 12 E591 003B 0000:?Delete@CAMSchedule@@AAEXPAVCAdvisePacket@1@@Z
        8E:
          3C010000FFC7863801000018FCFFFFFF15........838E0C010000:
            0. 99 F10C 00B9 0000:?ResetStreamingTimes@CBaseVideoRenderer@@UAEJXZ
          5C010000FFC7865801000018FCFFFFFF15........838E2C010000:
            0. 99 3C55 00B9 0000:?ResetStreamingTimes@CBaseVideoRenderer@@UAEJXZ
        BE:
          AC00000001741468D506000068........68........E8:
            0. 05 BF19 0025 0000:?GetDIBData@CImageSample@@QAEPAUtagDIBDATA@@XZ
          E00000000075116A6968........68........E8........8D86E4:
            0. 20 03EA 0046 0000:?DoCompleteHandling@CRenderedInputPin@@AAEXXZ
      8B:
        06:
          85C0:
            74:
              098B0850FF51088326005EC3:
                0. 00 0000 0014 0000:?ReleaseDirectDraw@CLoadDirectDraw@@QAEXXZ
              0A83C06450FF15........837E0C0074188B0E85C97405E8:
                0. 00 0000 0045 0000:?RemovePalette@CImagePalette@@QAEJXZ
              0C6A0050FF15........8326005EC3:
                0. 00 0000 0017 0000:?Release@CSCLogonInit@@QAEXXZ
            75025EC38B0850FF51048B065EC3:
              0. 00 0000 0015 0000:?GetDirectDraw@CLoadDirectDraw@@QAEPAUIDirectDraw@@XZ
          FF:
            50:
              1C8D4E345150FF15........85C07C17FF7424148BCEFF7424:
                0. 0A D759 0032 0000:?Init@?$CSafeComEnum@UIEnumTerminal@@$1?IID_IEnumTerminal@@3U_GUID@@BPAUITTerminal@@V?$_CopyInterface@UITTerminal@@@ATL@@VCComMultiThreadModel@6@@@QAEJPAPAUITTerminal@@0PAUIUnknown@@W4CComEnumFlags@ATL@@@Z (REF 002A: ?Init@?$CComEnumImpl@UIEnumTerminal@@$1?IID_IEnumTerminal@@3U_GUID@@BPAUITTerminal@@V?$_CopyInterface@UITTerminal@@@ATL@@@ATL@@QAEJPAPAUITTerminal@@0PAUIUnknown@@W4CComEnumFlags@2@@Z)
                1. 0A D759 0032 0000:?Init@?$CSafeComEnum@UIEnumStream@@$1?IID_IEnumStream@@3U_GUID@@BPAUITStream@@V?$_CopyInterface@UITStream@@@ATL@@VCComMultiThreadModel@6@@@QAEJPAPAUITStream@@0PAUIUnknown@@W4CComEnumFlags@ATL@@@Z (REF 002A: ?Init@?$CComEnumImpl@UIEnumStream@@$1?IID_IEnumStream@@3U_GUID@@BPAUITStream@@V?$_CopyInterface@UITStream@@@ATL@@@ATL@@QAEJPAPAUITStream@@0PAUIUnknown@@W4CComEnumFlags@2@@Z)
                2. 0A D759 0032 0000:?Init@?$CSafeComEnum@UIEnumPluggableSuperclassInfo@@$1?IID_IEnumPluggableSuperclassInfo@@3U_GUID@@BPAUITPluggableTerminalSuperclassInfo@@V?$_CopyInterface@UITPluggableTerminalSuperclassInfo@@@ATL@@VCComMultiThreadModel@6@@@QAEJPAPAUITPluggableTerminalSuperclassInfo@@0PAUIUnknown@@W4CComEnumFlags@ATL@@@Z (REF 002A: ?Init@?$CComEnumImpl@UIEnumPluggableSuperclassInfo@@$1?IID_IEnumPluggableSuperclassInfo@@3U_GUID@@BPAUITPluggableTerminalSuperclassInfo@@V?$_CopyInterface@UITPluggableTerminalSuperclassInfo@@@ATL@@@ATL@@QAEJPAPAUITPluggableTerminalSuperclassInfo@@0PAUIUnknown@@W4CComEnumFlags@2@@Z)
                3. 0A D759 0032 0000:?Init@?$CSafeComEnum@UIEnumPluggableTerminalClassInfo@@$1?IID_IEnumPluggableTerminalClassInfo@@3U_GUID@@BPAUITPluggableTerminalClassInfo@@V?$_CopyInterface@UITPluggableTerminalClassInfo@@@ATL@@VCComMultiThreadModel@6@@@QAEJPAPAUITPluggableTerminalClassInfo@@0PAUIUnknown@@W4CComEnumFlags@ATL@@@Z (REF 002A: ?Init@?$CComEnumImpl@UIEnumPluggableTerminalClassInfo@@$1?IID_IEnumPluggableTerminalClassInfo@@3U_GUID@@BPAUITPluggableTerminalClassInfo@@V?$_CopyInterface@UITPluggableTerminalClassInfo@@@ATL@@@ATL@@QAEJPAPAUITPluggableTerminalClassInfo@@0PAUIUnknown@@W4CComEnumFlags@2@@Z)
                4. 0A D759 0032 0000:?Init@?$CSafeComEnum@UIEnumTerminalClass@@$1?IID_IEnumTerminalClass@@3U_GUID@@BU3@V?$_Copy@U_GUID@@@ATL@@VCComMultiThreadModel@5@@@QAEJPAU_GUID@@0PAUIUnknown@@W4CComEnumFlags@ATL@@@Z (REF 002A: ?Init@?$CComEnumImpl@UIEnumTerminalClass@@$1?IID_IEnumTerminalClass@@3U_GUID@@BU3@V?$_Copy@U_GUID@@@ATL@@@ATL@@QAEJPAU_GUID@@0PAUIUnknown@@W4CComEnumFlags@2@@Z)
              6484C07514687704000068........68........E8:
                0. 04 0C38 0028 0000:?DeliverEndOfStream@CDynamicOutputPin@@UAEJXZ
            90C400000085C07507B80E0007805EC3668B4834668B40380FB7:
              0. 12 5532 0038 0000:?OnVideoSizeChange@CBaseControlVideo@@UAEJXZ
              1. 12 6545 0038 0000:?OnVideoSizeChange@CBaseControlVideo@@UAEJXZ
        46:
          04:
            3B46087509E8........85C074:
              15FF46048B5424088B46048B0E:
                0. 0D 909F 002D 0000:?Add@?$CMSPArray@PAUITTerminal@@$07$07@@QAEHAAPAUITTerminal@@@Z (REF 000C: ?Grow@?$CMSPArray@PAUITTerminal@@$07$07@@QAEHXZ)
                1. 0D 909F 002D 0000:?Add@?$CMSPArray@PAUITStream@@$07$07@@QAEHAAPAUITStream@@@Z (REF 000C: ?Grow@?$CMSPArray@PAUITStream@@$07$07@@QAEHXZ)
              1CFF46048B46048B168B4C2408:
                0. 14 9A5B 0034 0000:?Add@?$CMSPArray@U_THREADPOOLWAITBLOCK@CMSPCallMultiGraph@@$07$07@@QAEHAAU_THREADPOOLWAITBLOCK@CMSPCallMultiGraph@@@Z
            85C074088D4870E8........837E100074518B4E0485C957BF:
              0. 00 0000 007C 0000:?RemovePalette@CImagePalette@@QAEJXZ
          08:
            85C0:
              578B3D........740750FFD7836608008B460C85C0740350:
                0. 0C 4FA9 005E 0000:?Set@CUnicodeString@@QAEPBGPBG@Z
              C706........74068B0850FF51088B760C85F6740756FF15:
                0. 00 0000 0026 0000:??1_com_error@@UAE@XZ
            C706........C74604........8B400468........C744300801:
              0. 05 9B77 0031 0000:??1?$CComObject@VCVideoCaptureTerminal@@@ATL@@UAE@XZ
          0C:
            83C0:
              0CC706........8B0850FF51088D4E185EE9:
                0. 00 0000 001E 0000:??1CEnumPins@@UAE@XZ
              10C706........8B0850FF5108FF7634E8........8D4E18:
                0. 02 6F3C 0026 0000:??1CEnumPins@@UAE@XZ
            85C0578B3D........740750FFD783660C008B460885C0740350:
              0. 0C 4FA9 005B 0000:?Set@CUnicodeString@@QAEPBDPBD@Z
          10:
            48756D5355578B3D........6A006A006AFFFF76086A01FFD78B:
              0. 01 1C3B 007B 0000:?Unicode@CUnicodeString@@IAEPBGXZ
            C706........C74604........C74608........C7460C:
              0. 00 0000 0049 0000:??1?$CComObject@VCAudioRenderTerminal@@@ATL@@UAE@XZ (REF 0008: ??_7?$CComObject@VCAudioRenderTerminal@@@ATL@@6B?$IDispatchImpl@UITBasicAudioTerminal@@$1?IID_ITBasicAudioTerminal@@3U_GUID@@B$1?LIBID_TAPI3Lib@@3U3@B$00$0A@VCComTypeInfoHolder@ATL@@@1@@)
              1. 00 0000 0049 0000:??1?$CComObject@VCAudioCaptureTerminal@@@ATL@@UAE@XZ (REF 0008: ??_7?$CComObject@VCAudioCaptureTerminal@@@ATL@@6B?$IDispatchImpl@UITBasicAudioTerminal@@$1?IID_ITBasicAudioTerminal@@3U_GUID@@B$1?LIBID_TAPI3Lib@@3U3@B$00$0A@VCComTypeInfoHolder@ATL@@@1@@)
          1485C074:
            0A8B0850FF5108836614008D4E045EE9:
              0. 00 0000 001D 0000:??1CBaseMediaFilter@@UAE@XZ
            0D8B4804FF4E1085C0894E14750C6A0CE8........85C0:
              0. 28 3489 0048 0000:?AddHeadI@CBaseList@@IAEPAU__POSITION@@PAX@Z
              1. 2B C102 004B 0000:?AddTailI@CBaseList@@IAEPAU__POSITION@@PAX@Z
          1885C0740A8B0850FF5108836618008D4E045EE9:
            0. 00 0000 001D 0000:??1CBaseMediaFilter@@UAE@XZ
          2C83781800741468:
            6F02000068........68........E8:
              0. 11 AA2B 0035 0000:?BreakConnect@CTransformInputPin@@UAEJXZ
            7A03000068........68........E8:
              0. 11 D560 0035 0000:?BreakConnect@CTransformOutputPin@@UAEJXZ
          3085C0740750FF15........837E580074098B46588B0850FF5108:
            0. 06 E6C5 0033 0000:??1CBaseAllocator@@UAE@XZ
          3485C074106A0050FF7630FF15........836634005EC3:
            0. 00 0000 001C 0000:?NotifySample@CBaseAllocator@@QAEXXZ
          4085C074106A0050FF762CFF15........836640005EC3:
            0. 00 0000 001C 0000:?NotifyThread@COutputQueue@@IAEXXZ
          4885C0C706........C7460C........740750FF15........837E:
            0. 14 0A88 007B 0000:??1CBaseReferenceClock@@MAE@XZ
          4C3B463C741468BD05000068........68........E8........FF:
            0. 01 54B7 00BB 0000:?Free@CImageAllocator@@MAEXXZ
          5885C0C706........C74610........740750FF15........8B4E:
            0. 02 3466 00A6 0000:??1CBaseReferenceClock@@MAE@XZ
          7883781800741A837E700174148B06FF90A000000083F801751483:
            0. 0B CEE1 0043 0000:?CompleteStateChange@CBaseRenderer@@UAEJW4_FilterState@@@Z
        4E:
          08:
            8B01FF501033C93B460C5E0F95C18BC1C3:
              0. 00 0000 0017 0000:?AreWeOutOfSync@CEnumMediaTypes@@AAEHXZ
            E8........8B4E08894624E8........8946205EC3:
              0. 00 0000 001B 0000:?SetDrawContext@CDrawImage@@QAEXXZ
          0C8B01FF501433C93B46105E0F95C18BC1C3:
            0. 00 0000 0017 0000:?AreWeOutOfSync@CEnumPins@@AAEHXZ
          2085C9C7460400100000740D8B46548B1051566A1B50FF520C834E:
            0. 0F F235 002F 0000:?ExecuteStart@CBaseStreamControl@@AAEXXZ
          2485C98B460889460474118B465485C0740A8B1051566A1A50FF52:
            0. 05 957C 0029 0000:?ExecuteStop@CBaseStreamControl@@AAEXXZ
          2885C974128B411CFF4E2C8946288B016A01FF5054EBE78B466083:
            0. 11 2199 003B 0000:?ReallyFree@CMemAllocator@@IAEXXZ
          5085C97405E8........8B06:
            6A018BCEFF502833C05EC3:
              0. 00 0000 001C 0000:?EndFlush@CBaseRenderer@@UAEJXZ
            8BCEFF50:
              6C83F801741468C6020000:
                0. 01 361F 003C 0000:?EndFlush@CBaseRenderer@@UAEJXZ
              7033C05EC3:
                0. 00 0000 001A 0000:?Inactive@CBaseRenderer@@UAEJXZ
        86:
          9800000085C0741D8B0850FF511885C07C2A8B86980000008B0850:
            0. 23 AAC2 0043 0000:?BreakConnect@CBaseOutputPin@@UAEJXZ
          9C00000085C0741D8B0850FF511885C07C158B869C0000008B0850:
            0. 0E 1799 002E 0000:?BreakConnect@CBaseInputPin@@UAEJXZ
          A000000085C0741D8B0850FF511885C07C2A8B86A00000008B0850:
            0. 23 20EE 0043 0000:?BreakConnect@CBaseOutputPin@@UAEJXZ
          A400000085C0:
            741D8B0850FF511885C07C158B86A40000008B0850:
              0. 0E 70EE 002E 0000:?BreakConnect@CBaseInputPin@@UAEJXZ
            C706........C7460C........C74610........74:
              0. 0B 4B50 002F 0000:??1CTransformOutputPin@@UAE@XZ
          BC00000085C0578B3D........C706........C7460C........C7:
            0. 02 700D 0058 0000:??1CDynamicOutputPin@@UAE@XZ
          D000000085C0741883BED400000000740F50FF15........8BCE5E:
            0. 01 B78A 002C 0000:?Active@CDynamicOutputPin@@UAEJXZ
          E000000083C07C50E8........85C0751468BB06000068:
            0. 01 361F 003A 0000:?Inactive@CRendererInputPin@@UAEJXZ
          E400000085C0743083BEE800000000742750FF15........85C075:
            0. 07 7635 0058 0000:?Active@CDynamicOutputPin@@UAEJXZ
        8E:
          08010000578D7E6056C706........C707........C74670:
            0. 00 0000 003D 0000:??1CSourceStream@@UAE@XZ
          8C00000085C95774078B016A01FF500C8B8E9000000085C974078B:
            0. 08 D84C 0041 0000:??1CTransformFilter@@UAE@XZ
          A00000008B016A01FF504C8BCE5EE9:
            0. 00 0000 0018 0000:?BreakConnect@CTransformOutputPin@@UAEJXZ
          A400000085C974078B016A01FF500C8B8EA800000085C974078B01:
            0. 0C AA36 0040 0000:??1CTransformFilter@@UAE@XZ
          A8000000E8........85C074268B462883781400741D8B4C240883:
            0. 04 3385 0070 0000:?CheckMediaType@CTransInPlaceOutputPin@@UAEJPBVCMediaType@@@Z
          D80000008B01:
            6A00FF504C8BCE5EE9:
              0. 00 0000 0018 0000:?BreakConnect@CTransformInputPin@@UAEJXZ
            FF908C00000085C07C088BCE5EE9........5EC3:
              0. 00 0000 001F 0000:?BreakConnect@CRendererInputPin@@UAEJXZ
          E00000008B01FF908C00000085C07C088BCE5EE9........5EC3:
            0. 00 0000 001F 0000:?BreakConnect@CRendererInputPin@@UAEJXZ
          E8000000578D7E4856C706........C707........C74654:
            0. 00 0000 003D 0000:??1CSourceStream@@UAE@XZ
        C6:
          8D50018A084084C975F92BC2750433C05EC333C9807C30FF2E5E0F:
            0. 05 BFF9 0025 0000:@Dns_IsNameFQDN_A@4
          F7D81BC08D4E1823C183C00450FF15........8BCE5EE9:
            0. 00 0000 0020 0000:??1?$CSafeComEnum@UIEnumTerminal@@$1?IID_IEnumTerminal@@3U_GUID@@BPAUITTerminal@@V?$_CopyInterface@UITTerminal@@@ATL@@VCComMultiThreadModel@6@@@QAE@XZ (REF 001C: ??1?$CComEnumImpl@UIEnumTerminal@@$1?IID_IEnumTerminal@@3U_GUID@@BPAUITTerminal@@V?$_CopyInterface@UITTerminal@@@ATL@@@ATL@@QAE@XZ)
            1. 00 0000 0020 0000:??1?$CSafeComEnum@UIEnumVARIANT@@$1?IID_IEnumVARIANT@@3U_GUID@@BUtagVARIANT@@V?$_Copy@UtagVARIANT@@@ATL@@VCComMultiThreadModel@6@@@QAE@XZ (REF 001C: ??1?$CComEnumImpl@UIEnumVARIANT@@$1?IID_IEnumVARIANT@@3U_GUID@@BUtagVARIANT@@V?$_Copy@UtagVARIANT@@@ATL@@@ATL@@QAE@XZ)
            2. 00 0000 0020 0000:??1?$CSafeComEnum@UIEnumStream@@$1?IID_IEnumStream@@3U_GUID@@BPAUITStream@@V?$_CopyInterface@UITStream@@@ATL@@VCComMultiThreadModel@6@@@QAE@XZ (REF 001C: ??1?$CComEnumImpl@UIEnumStream@@$1?IID_IEnumStream@@3U_GUID@@BPAUITStream@@V?$_CopyInterface@UITStream@@@ATL@@@ATL@@QAE@XZ)
            3. 00 0000 0020 0000:??1?$CSafeComEnum@UIEnumPluggableSuperclassInfo@@$1?IID_IEnumPluggableSuperclassInfo@@3U_GUID@@BPAUITPluggableTerminalSuperclassInfo@@V?$_CopyInterface@UITPluggableTerminalSuperclassInfo@@@ATL@@VCComMultiThreadModel@6@@@QAE@XZ (REF 001C: ??1?$CComEnumImpl@UIEnumPluggableSuperclassInfo@@$1?IID_IEnumPluggableSuperclassInfo@@3U_GUID@@BPAUITPluggableTerminalSuperclassInfo@@V?$_CopyInterface@UITPluggableTerminalSuperclassInfo@@@ATL@@@ATL@@QAE@XZ)
            4. 00 0000 0020 0000:??1?$CSafeComEnum@UIEnumPluggableTerminalClassInfo@@$1?IID_IEnumPluggableTerminalClassInfo@@3U_GUID@@BPAUITPluggableTerminalClassInfo@@V?$_CopyInterface@UITPluggableTerminalClassInfo@@@ATL@@VCComMultiThreadModel@6@@@QAE@XZ (REF 001C: ??1?$CComEnumImpl@UIEnumPluggableTerminalClassInfo@@$1?IID_IEnumPluggableTerminalClassInfo@@3U_GUID@@BPAUITPluggableTerminalClassInfo@@V?$_CopyInterface@UITPluggableTerminalClassInfo@@@ATL@@@ATL@@QAE@XZ)
            5. 00 0000 0020 0000:??1?$CSafeComEnum@UIEnumTerminalClass@@$1?IID_IEnumTerminalClass@@3U_GUID@@BU3@V?$_Copy@U_GUID@@@ATL@@VCComMultiThreadModel@5@@@QAE@XZ (REF 001C: ??1?$CComEnumImpl@UIEnumTerminalClass@@$1?IID_IEnumTerminalClass@@3U_GUID@@BU3@V?$_Copy@U_GUID@@@ATL@@@ATL@@QAE@XZ)
        CEE8........83E80074254874104875286A008BCEE8........33C0:
          0. 07 3D80 0058 0000:?ThreadProc@CPullPin@@EAEKXZ
      8D:
        46:
          0C50C706........C700........E8........8BCEE8........8B:
            0. 03 65EF 0027 0000:??1CMemAllocator@@UAE@XZ
          1050C706........C700........E8........8BCEE8........8B:
            0. 03 65EF 0027 0000:??1CMemAllocator@@UAE@XZ
          1C50FF15........8BCEF7D98D46041BC923C8E8........F64424:
            0. 06 5E95 0031 0000:??_GCRendererPosPassThru@@UAEPAXI@Z
          3450E8........85C0751468:
            9600000068........68........E8:
              0. 00 0000 0060 0000:?ExecuteStop@CBaseStreamControl@@AAEXXZ
            A200000068........68........E8:
              0. 00 0000 005B 0000:?ExecuteStart@CBaseStreamControl@@AAEXXZ
            AE00000068........68........E8:
              0. 00 0000 003C 0000:?CancelStop@CBaseStreamControl@@AAEXXZ
            B600000068........68........E8:
              0. 00 0000 0035 0000:?CancelStart@CBaseStreamControl@@AAEXXZ
          7050E8........85C07514686403000068........68........E8:
            0. 00 0000 0029 0000:?GetPalette@CBaseWindow@@QAEPAUHPALETTE__@@XZ
          7C50E8........85C0751468D202000068........68........E8:
            0. 00 0000 004C 0000:?CompleteConnect@CBaseRenderer@@UAEJPAUIPin@@@Z
        4E:
          08E8........68........8D4E2CE8........68........8D4E48:
            0. 01 3E9B 0050 0000:??0CCmdQueue@@QAE@XZ
          10E8........8BCE83C604F7D91BC923CE8D4104F7D91BC923C85E:
            0. 01 B78A 0025 (!)0000:?
          14E8........8BCE83C604F7D91BC923CE8D4104F7D91BC923C85E:
            0. 01 B78A 0025 (!)0000:?
          48E8........8D4E34E8........8BCE83C604F7D91BC923CE5EE9:
            0. 00 0000 0024 0000:??1CDeferredCommand@@UAE@XZ
          50E8........8D4E3CE8........8BCE83C604F7D91BC923CE5EE9:
            0. 00 0000 0024 0000:??1CDeferredCommand@@UAE@XZ
        86A0000000:
          50E8........85C07514683905000068........68:
            0. 00 0000 003F 0000:?ResetEndOfStreamTimer@CBaseRenderer@@QAEXXZ
          8B088B898C000000837918007507B8FFFF0080EB1CFF74:
            0. 16 FAF2 003E 0000:?CheckConnect@CTransformOutputPin@@UAEJPAUIPin@@@Z
      B9........:
        C706........E8........8BC65EC3:
          0. 00 0000 0017 0000:??0?$IDispatchImpl@V?$ITTerminalVtblBase@VCBaseTerminal@@@@$1?IID_ITTerminal@@3U_GUID@@B$1?LIBID_TAPI3Lib@@3U3@B$00$0A@VCComTypeInfoHolder@ATL@@@ATL@@QAE@XZ
        E8........:
          33C089460489460C894610C706........8BC6:
            0. 02 37B2 0022 0000:??0?$CTapiIfCollection@PAUITTerminal@@@@QAE@XZ (REF 001A: ??_7?$CTapiIfCollection@PAUITTerminal@@@@6B@)
            1. 02 37B2 0022 0000:??0?$CTapiIfCollection@PAUITStream@@@@QAE@XZ (REF 001A: ??_7?$CTapiIfCollection@PAUITStream@@@@6B@)
            2. 02 37B2 0022 0000:??0?$CTapiIfCollection@PAUITPluggableTerminalSuperclassInfo@@@@QAE@XZ (REF 001A: ??_7?$CTapiIfCollection@PAUITPluggableTerminalSuperclassInfo@@@@6B@)
            3. 02 37B2 0022 0000:??0?$CTapiIfCollection@PAUITPluggableTerminalClassInfo@@@@QAE@XZ (REF 001A: ??_7?$CTapiIfCollection@PAUITPluggableTerminalClassInfo@@@@6B@)
          8BC65EC3:
