03FFFF:
  000000000000000000................0400000003FFFF0000000000:
    0. 04 DEFC 00FC 0000:? (0078: 00)
    1. 04 DEFC 009C 0000:?
  800001000000000000................0400000003FFFF8000010000:
    0. 04 DEFC 0F54 0000:? (03F0: 00)
    1. 04 DEFC 0414 0000:?
0C0000800000000000000000................010000000C01008000000000:
  0. 04 DEFC 17F4 0000:?
0F:
  28C8:
    448BC28BC2992BC2D1F8442BC08D487F4183C07FC1E11741C1E017894C:
      0. 18 4EA4 0038 (l)0000:scaleFloat_2
    8D427FC1E01789442408F30F10442408F30F59C1C3:
      0. 00 0000 0018 (l)0000:scaleFloat_1
  AE5C2408:
    33C08B4C2408F6C13F7433F6C101BA100000000F45C2F6C1047403:
      0. 26 4B06 0046 0000:_statusfp
    8B442408C3:
      0. 00 0000 000A (l)0000:get_fpsw_inline
  B6:
    0184C074:
      0D48FFC13C2E74098A0184C075F333C0C333C03801480F45C1C3:
        0. 00 0000 0020 0000:Dns_GetDomainNameA
      0E3AC2740E8A410148FFC184C075F238117504488BC1C333C0C3:
        0. 00 0000 0020 0000:strchr
    11:
      33C04C8BC980FA307C2466669080FA397F1C0FBED249FFC1488D0C8083:
        0. 14 2D86 0034 (l)0000:atoui
      488BC184D2742166669066669048FFC080FA2E74098A1084D275F233C0:
        0. 13 44B3 0033 0000:Dns_SplitHostFromDomainNameA
    41:
      08F6D00FB6C0:
        83E001C3:
          0. 00 0000 000D 0000:?IsSyncPoint@CMediaSample@@UEAAJXZ
        C1E80283E001C3:
          0. 00 0000 0010 0000:?IsDiscontinuity@CMediaSample@@UEAAJXZ
        D1E883E001C3:
          0. 00 0000 000F 0000:?IsPreroll@CMediaSample@@UEAAJXZ
      183C01740C3C0274083C0374043C097511488B4910F6412C8075078B41:
        0. 08 BC72 0028 0000:ScsiPortWmiGetInstanceName
    511C85D2742D83EA66742181EA8C0000007412FFCA7407B8FFFFFFFFEB17:
      0. 24 9CB1 004C (l)0000:getSIMDinstform
    81:
      7C05000083C0123B81A00800004C63C0732C8D14C5000100004E8D84C1:
        0. 24 8948 0044 0000:prevent_far_matches
      E9000000C3:
        0. 00 0000 0008 0000:?IsFlushing@CBaseInputPin@@QEAAHXZ
    C14C0F22C0C3:
      0. 00 0000 0008 0000:KeLowerIrql
    D1488D0D........E9:
      0. 00 0000 000F 0000:Dns_GetKeyProtocolString (REF 0006: KeyProtocolTable)
      1. 00 0000 000F 0000:Dns_GetDnssecAlgorithmString (REF 0006: DnssecAlgorithmTable)
  B7:
    01:
      33D24C8BC16685C07426666690663D3000721D663D390077170FB7C049:
        0. 16 14AC 0036 0000:wtol
      4533D24533C9663D5C004C8BC17406663D2F0075640FB749026683F95C:
        0. FF 2A7E 01B4 (l)0000:ConvertPathMacros
      4C8B:
        D16685C074794C8B41080FB7C048D1E8498BD04D8BC84D8D1C4032:
          0. 67 E51B 0087 0000:NetpConvertWorkstationList
        D26685C00F889E000000440FB74102664585C00F888F000000440F:
          0. 92 52D1 00B2 (l)0000:convert_to_secs
      6685C0:
        7412663BC27412668B41024883C1026685C075EE663911750448:
          0. 06 D8D6 0026 0000:wcschr
        787C0FB751026685D27873440FB74104664585C078686683FA3B:
          0. 69 14FE 0089 (l)0000:convert_to_24hr
      83F802750B488D05........8B4008C383F817750B488D05........8B:
        0. 0B 9155 0036 0000:Sockaddr_Length
    0283F802742583F817740D33C048890148894108488BC1C3488B42084889:
      0. 25 22A9 0045 0000:Sockaddr_GetIp6
    09E9:
      0. 00 0000 0008 0000:DnsAddr_DnsType (REF 0004: Family_DnsType)
    11:
      33C04C8BC96683FA30722766906683FA39771F0FB7D24983C102488D0C:
        0. 18 8385 0038 (l)0000:atoui
      83FA17752183791400751883791000751283790C00750C837908007506:
        0. 1D C409 003D 0000:DnsAddr_IsClear
    422866394128740333C0C3448B4114488B5220488B492041C1E8034183E0:
      0. 02 E05F 0026 0000:MxRecordCompare
    51020FB701C1E2100BD083FA0C74150FB741220FB75120C1E0100BC2752D:
      0. 30 62B8 0050 0000:DibNumColors
    C183F80275:
      0B488D05........8B4008C383F817750B488D05........8B:
        0. 0B 9155 0036 0000:Family_SockaddrLength
      0C488D05........668B4002C383F817750C488D05:
        0. 0D 351B 003A 0000:Family_DnsType
  BA:
    E21B723C0FBAE21D72360FBAE21872300FBAE214722A0FBAE2157224488B:
      0. 1E 79A2 0048 0000:?put_WindowStyle@CBaseControlWindow@@UEAAJJ@Z
    F213E9:
      0. 00 0000 0009 0000:_controlfp (REF 0005: _control87)
2A2A2A20496E7465726E616C20636F6E73697374656E6379206572726F72202D:
  0. 41 D0CA 0061 0000:??_C@_0GG@EGCFMGEI@?4text?$CK?$CK?$CK?5Internal?5consistency?5er@
2BD18BC2C3:
  0. 00 0000 0005 (l)0000:GetElapsedTime
33:
  C0:
    0FBAE10D7306B800080000C30FBAE10E7306B8000B0000C30FBAE10B7306:
      0. 37 9C33 0057 (l)0000:SysnameTokenToSysnameType
    39:
      05........0F9FC0C3:
        0. 00 0000 000C 0000:?IsLocked@CClassFactory@@SAHXZ
      41:
        0C0F94C0C3:
          0. 00 0000 0009 0000:?IsDirty@CPersistStream@@UEAAJXZ
        200F95C0C3:
          0. 00 0000 0009 0000:?Valid@CUnicodeString@@QEAAHXZ
        280F94C0C3:
          0. 00 0000 0009 0000:?IsStopped@CBaseFilter@@QEAAHXZ
    45:
      0FB7D84C8BCA4889014889410848894110894118817A080000FFFF4C8D:
        0. 53 ACC8 0073 0000:Ip6_WriteDnsAddr
      33C0488901488941080FB60284C0740F0FBEC048FFC24403C08A0284C0:
        0. 06 0DAB 0026 0000:Dns_Md5Hash
    48:
      39:
        010F94C0C3:
          0. 00 0000 0009 (!)0000:?
        41:
          200F95C0C3:
            0. 00 0000 000A 0000:?ThreadExists@CAMThread@@QEBAHXZ
          300F95C0C3:
            0. 00 0000 000A 0000:?IsConnected@CBasePin@@QEAAHXZ
          400F95C0C3:
            0. 00 0000 000A 0000:?IsQueued@COutputQueue@@IEAAHXZ
      83FAF00F97C0C3:
        0. 00 0000 000A 0000:?IsSpecialSample@COutputQueue@@IEAAHPEAUIMediaSample@@@Z
      85:
        C9:
          448BD24C8BC9742B448B014585C074214883C10466669066666690:
            0. 26 EA8E 0046 0000:Dns_AddIpToIpArray
          74:
            098139:
              016215080F94C0C20000:
                0. 00 0000 0013 0000:ValidateLogConfHandle
              026215080F94C0C20000:
                0. 00 0000 0013 0000:ValidateResDesHandle
            0A817910036215080F94C0C20000:
              0. 00 0000 0014 0000:ValidateConfListHandle
            110FBA61140B7202FFC0488B094885C975EFC20000:
              0. 00 0000 001B 0000:isUnmatchedRecordInSet
            14666690666690666690034128488B094885C975F5C20000:
              0. 00 0000 001E 0000:SmbTraceMdlLength
            176639511074076681FAFF007502FFC0488B094885C975E9C200:
              0. 01 78F0 0021 0000:Dns_RecordListCount
        D24C8BCA74:
          196666906666903801740A48FFC148FFCA75F4EB054885:
            0. 22 8102 0042 0000:StringLengthWorkerA
            1. 22 9866 0042 0000:RtlStringLengthWorkerA
          1B666690666690663901740B4883C10248FFCA75F2EB05:
            0. 24 C92D 0044 0000:StringLengthWorkerW
            1. 24 D049 0044 0000:RtlStringLengthWorkerW
      89:
        01:
          48894108:
            48:
              894110:
                48894118488941204889412848894130488941:
                  0. 26 293D 0046 0000:DnsAddr_BuildFromIp6
                  1. 16 E282 0036 0000:DnsAddr_BuildFromIp4
                C3:
                  0. 00 0000 000E 0000:PropVariantInit
              8BC1C3:
                0. 00 0000 000D 0000:??0CLoadDirectDraw@@QEAA@XZ
            89411089411C48894120:
              44894118488BC1C3:
                0. 00 0000 001B (!)0000:?
              C741180A000000488BC1C3:
                0. 00 0000 001E (!)0000:?
            C3:
              0. 00 0000 000A 0000:IP6_SET_ADDR_ANY
          894108:
            48:
              89411089411889411C894120894124488BC1C3:
                0. 00 0000 001C 0000:??0CWiauFormatConverter@@QEAA@XZ
              8BC1C3:
                0. 00 0000 000C 0000:??0CSampleList@CBaseAllocator@@QEAA@XZ
            89410C488BC1C3:
              0. 00 0000 000F (!)0000:?
        41:
          08894110488941184889412048894128488BC1C3:
            0. 00 0000 0019 0000:??0MULTI_GRAPH_EVENT_DATA@@QEAA@XZ
          1048894908488909C3:
            0. 00 0000 000E 0000:NetpInitFtinfoContext
          20488941184889411089412848894108488BC1C3:
            0. 00 0000 0019 (!)0000:?
    4C8BDA4C8BD14889014889410848894110894118418178080000FFFF7523:
      0. 52 0DDF 0072 0000:Ip6_WriteSockaddr
    66:
      81F980000F92C0C3:
        0. 00 0000 000B 0000:iswascii
      837966080F96C0C3:
        0. 00 0000 000B 0000:?IsPalettised@CImageDisplay@@QEAAHXZ
    81:
      394D444943BA020000000F45C2C3:
        0. 00 0000 0011 0000:MDIResetDecompression
      7A080000FFFF4889014889410848894110894118751A39420475153902:
        0. 2D 6347 004D 0000:Sockaddr_BuildFromIp6
      F9800000000F92C0C3:
        0. 00 0000 000C 0000:__isascii
    85C974098D51FFFFC023CA75F7C20000:
      0. 00 0000 0012 0000:?CountSetBits@CImageDisplay@@KAKK@Z
    89:
      01:
        48894108894104894110894114C3:
          0. 00 0000 0012 0000:PpRegStateInitEmptyCreationSettings
        894104488941084889411048:
          8941184889412048894128488BC1C3:
            0. 00 0000 001F 0000:??0CWiauPropertyList@@QEAA@XZ
          8BC1C3:
            0. 00 0000 0013 0000:??0CMsg@@QEAA@XZ
      1189410448894108488BC1C3:
        0. 00 0000 000F 0000:??0CNodeCache@CBaseList@@QEAA@H@Z
      41048901488BC1C3:
        0. 00 0000 000B 0000:??0SizeF@Gdiplus@@QEAA@XZ
      8130010000898134010000E9:
        0. 00 0000 0013 0000:?Active@CRenderedInputPin@@UEAAJXZ
    B9034000804885D20F44C1C3:
      0. 00 0000 000E 0000:?Notify@CBaseInputPin@@UEAAJPEAUIBaseFilter@@UtagQuality@@@Z
    C7:
      012143414266C7411803018941048941086689411A6689411C6689411E:
        0. 0A 23EF 002A 0000:InitCFHEADER
      41:
        080000FFFF89510C8901894104C3:
          0. 00 0000 0012 0000:IP6_SET_ADDR_V4MAPPED
        0C000000018901894104894108C3:
          0. 00 0000 0012 0000:IP6_SET_ADDR_LOOPBACK
        1001000000C7411401000000C7411801000000C781EC2E0000010000:
          0. 30 84A2 0050 0000:decoder_misc_init
        20030000004889411048894118488BC1C3:
          0. 00 0000 0015 0000:??0CUnicodeString@@QEAA@XZ
      420840010000C7420CF00000008902894204488BC2C3:
        0. 00 0000 0019 0000:?GetDefaultRect@CBaseWindow@@UEAA?AUtagRECT@@XZ
      81FC000000E09304008981F40000008981E80000008981EC0000008981:
        0. 14 95F1 0034 0000:?StartStreaming@CVideoTransformFilter@@MEAAJXZ
    F30F114424088B4C24080FBAF11F81F90000807F0F97C0C3:
      0. 00 0000 001A 0000:_isnanf
    F6C1:
      10BA800000000F45C2F6C10874040FBAE809F6C10474040FBAE80AF6:
        0. 7D F203 009D (l)0000:_hw_cw
      3F7433F6C101BA100000000F45C2F6C104740383C808F6C108740383:
        0. 1D BD4B 003D (l)0000:_abstract_sw
      80BA100000000F45C20FBAE109730383C8080FBAE10A730383C8040F:
        0. 78 1E02 0098 (l)0000:_abstract_cw
    F7C1000020017406B810000000C3F7C10000C0007406B820000000C30FBA:
      0. 17 0FCA 0037 (l)0000:DeviceTokenToDeviceType
  C9E9:
    0. 00 0000 0007 0000:CM_Get_Version (REF 0003: CM_Get_Version_Ex)
    1. 00 0000 0007 0000:CM_Request_Eject_PC (REF 0003: CM_Request_Eject_PC_Ex)
  D2:
    41:
      39500876554D8B1066906666904C8B49048BC24803C04D3B0CC2750F4C:
        0. 43 706B 0063 0000:pComponentListValidator
      B8008000006666669066666690488B41284883C20249FFC866C74402FE:
        0. 05 BCC2 0025 (l)0000:lm_init_clear_tables
    448D4A01448D4202E9:
      0. 00 0000 000F 0000:getUnicodeForUtf8
    48:
      3915........741B4C8D05........498BC03B48F8740F4883C010FFC2:
        0. 14 20D8 0034 0000:Dns_GetRnrLupFlagString (REF 0005: RnrLupFlagTable)
        1. 14 20D8 0034 0000:Dns_GetRnrNameSpaceIdString (REF 0005: RnrNameSpaceMappingTable)
      8BC10FB60984C9741948FFC080F92E74048A08EBF08038007408488BC8:
        0. 09 CF47 0029 0000:Dns_GetTldForNameA
      8D05........4C894120488901488B442428895108488941108B442430:
        0. 17 EC6F 0037 (!)0000:?
      FF25:
        0. 00 0000 0009 0000:?GetDataWindowData@@YAPEAUDataWindowData@@PEAUHWND__@@@Z (REF 0005: __imp_GetWindowLongPtrW)
        1. 00 0000 0009 0000:rc4_safe_shutdown_np (REF 0005: __imp_ExFreePoolWithTag)
    4C8D81AD0800006666906666669032C985D28BC2740AA8017402FEC1D1F8:
      0. 13 752F 0033 0000:create_ones_table
    4D85C97403498911488B4424284885C07403488910488B4424304885C074:
      0. 78 C202 0098 0000:NetpReplImportDirStructureInfo
      1. 8D F1B5 00AD 0000:NetpReplExportDirStructureInfo
    83F9027508488D05........C383F9177508488D05........C3488D05:
      0. 00 0000 002B 0000:FamilyInfo_GetForFamily
    B82A0000004C8D05........66903BC17414418B40044983C004FFC285C0:
      0. 0B 8675 002B (l)0000:getOpCodeEncode
    E9:
      0. 00 0000 0007 0000:CM_Run_Detection (REF 0003: CM_Run_Detection_Ex)
      1. 00 0000 0007 0000:CM_Is_Dock_Station_Present (REF 0003: CM_Is_Dock_Station_Present_Ex)
      2. 00 0000 0007 0000:tkInitWindow (REF 0003: tkInitWindowAW)
      3. 00 0000 0007 (!)0000:? (REF 0003: tkRGBImageLoadAW)
      4. 00 0000 0007 0000:auxInitWindowA (REF 0003: auxInitWindowAW)
      5. 00 0000 0007 0000:?Init@CSourceStream@@QEAAJXZ (REF 0003: ?CallWorker@CAMThread@@QEAAKK@Z)
      6. 00 0000 0007 0000:?_com_issue_error@@YAXJ@Z (REF 0003: ?_com_raise_error@@YAXJPEAUIErrorInfo@@@Z)
3B511C7E06B80D020480C389511833C0C3:
  0. 00 0000 0011 0000:?SetActualDataLength@CMediaSample@@UEAAJJ@Z
41:
  006C006C006F0063006100740069006F006E004F0072006400650072000000:
    0. 00 0000 0020 0000:??_C@_1CE@NNEEHMDM@APEG?$AAA?$AAl?$AAl?$AAo?$AAc?$AAa?$AAt?$AAi?$AAo?$AAn?$AAO?$AAr?$AAd?$AAe?$AAr?$AA?$AA@
  0FBAE1084C8BD273114885C9488D05........480F45C1488BC84885D27416:
    0. 39 2CF3 0059 0000:RtlUnicodeStringLengthHelper
  63706973696D:
    437265617465436C6F7365202D20756E657870656374656420:
      0. 0B 5E96 002B 0000:??_C@_0DA@IENNIFA@?4textAcpisimCreateClose?5?9?5unexpe@
    4430436F6D706C6574696F6E3A20204C6F776572204646444F:
      0. 27 4EC0 0047 0000:??_C@_0EM@DLFCIHAO@?4textAcpisimD0Completion?3?5?5Lower@
    4973737565506F776572444972703A2020:
      4C6F776572204646:
        0. 29 0405 0049 0000:??_C@_0EO@IPEGKBIN@?4textAcpisimIssuePowerDIrp?3?5?5Low@
      506F526571756573:
        0. 19 62AE 0039 0000:??_C@_0DO@LPKMDJFG@?4textAcpisimIssuePowerDIrp?3?5?5PoR@
      536F6D657468696E:
        0. 38 CF27 0058 0000:??_C@_0FN@HIJHNFJN@?4textAcpisimIssuePowerDIrp?3?5?5Som@
    5175657279506F776572444972703A20496C6C6567616C206F:
      0. 27 89E7 0047 0000:??_C@_0EM@LNJJOPKB@?4textAcpisimQueryPowerDIrp?3?5Ille@
    536574506F776572444972703A20496C6C6567616C206F7220:
      0. 25 1DF6 0045 0000:??_C@_0EK@DOKBDNFO@?4textAcpisimSetPowerDIrp?3?5Illega@
  6464446576696365202D2061736B656420746F20646F206C65676163792064:
    0. 2A ED2F 004A 0000:??_C@_0EP@HIFHPJFM@?4textAddDevice?5?9?5asked?5to?5do?5leg@
  6C6C204952507320636C6561726564202D2072656D6F7665206576656E7420:
    0. 0C 63C8 002C 0000:??_C@_0DB@BMKMPOC@?4textAll?5IRPs?5cleared?5?9?5remove?5e@
  83:
    3800741766418B00412BC10FB7C83BCA7206B857000000C341890833C0C3:
      0. 00 0000 0020 (l)0000:RxpSetPointer
    F8:
      017E26458D48FE41D1E941FFC10FB64101440FB6014883C2028842FE44:
        0. 0F 59C9 002F 0000:_swab
      0A458BD84C8BD2:
        488BC1750B4885C97906418D48F7EB0233C985C94C8B:
          0. 62 7CF4 0082 0000:_i64tow
          1. 5E FD10 007E 0000:_i64toa
        75:
          6285C9795E4C8D4201C6022DF7D94D8BC866666690:
            0. 9E A40F 00BE 0000:_itoa
          7685C979724C8D420266C7022D00F7D94D8BC86690:
            0. C2 DDB6 00E2 0000:_itow
        8BC1750A85C97906418D48F7EB0233C985C94C8BC274:
          0. 62 BE86 0082 0000:_ltow
          1. 50 E5DB 0070 0000:_ltoa
  8B008902418B4004894204418B4008894208418B400C89420C488BC2C3:
    0. 00 0000 001E 0000:?ScaleSourceRect@CDrawImage@@UEAA?AUtagRECT@@PEBU2@@Z
  8D40FFF7D048984823C2C3:
    0. 00 0000 000C 0000:?AlignDown@CPullPin@@QEAA_J_JJ@Z
  B8:
    000100004C8BC9488D8188250000498BD08038007503C6000B48FFC048FF:
      0. A6 62AB 00C6 0000:fix_tree_cost_estimates
    01000000E9:
      0. 00 0000 000B 0000:SetupSetRegisteredOsComponentsOrder (REF 0007: _SetupSetRegisteredOsComponentsOrder)
  B9:
    01000000:
      E9:
        0. 00 0000 000B 0000:strtoul (REF 0007: strtoxl)
        1. 00 0000 000B 0000:_strtoui64 (REF 0007: strtoxq)
        2. 00 0000 000B 0000:wcstoul (REF 0007: wcstoxl)
        3. 00 0000 000B 0000:_wcstoui64 (REF 0007: wcstoxq)
      F0440FC10D........8B0141FFC1FFC84423C84A8B4CC9084489:
        0. 07 8D28 0027 0000:rc4_safe_select
    08000000E9:
      0. 00 0000 000B 0000:FlatBuf_Arg_ReserveAlignPointer (REF 0007: FlatBuf_Arg_Reserve)
  FFC84963C041F7D04963C84803C24823C1C3:
    0. 00 0000 0013 0000:?AlignUp@CPullPin@@QEAA_J_JJ@Z
428D0402448BD23BC8762D83F9FF7428412BC833D28BC141F7F24D85C9740C8B:
  0. 33 E0FD 0053 0000:NetpAdjustPreferedMaximum
43:
  616E2774206372656174652046444F2E2020537461747573203D20256C782E:
    0. 02 37F2 0022 0000:??_C@_0CH@POEGMCHM@?4textCan?8t?5create?5FDO?4?5?5Status?5?$DN@
  6F756C646E2774207265676973746572206F7020726567696F6E2068616E64:
    0. 1D B4D0 003D 0000:??_C@_0EC@HCGBGADJ@?4textCouldn?8t?5register?5op?5region@
44:
  0F:
    B6:
      09:
        33C04584C9741B6690666690443ACA7505448801FFC0448A490148FF:
          0. 09 F403 0029 0000:String_ReplaceCharA
        4584C97424666690666666908BC283C2FF85C07414498B0048FFC144:
          0. 17 DEA9 0037 0000:NetpLogonPutOemString
      492C4C8BD1418AC1442ACA2BC245884A2C0FB6C841D3E0450942284180:
        0. 74 6B58 0094 0000:output_bits
    B7:
      020FB701412BC0752066666690664585C07416440FB742020FB7410248:
        0. 21 CD44 0041 0000:wcscmp
      09:
        33C0664585C9741F6666669066443BCA750666448901FFC066448B49:
          0. 0E 5B24 002E 0000:String_ReplaceCharW
        664585C97439440FB7126690664585D24C8BC2741B410FB7C2666690:
          0. 2A B1C4 004A 0000:wcspbrk
      114C8BC1664585D27436440FB71A66453BDA4C8BCA741A410FB7C36690:
        0. 2D 18DD 004D 0000:wcsspn
      814C0100000FB781500100000FB7894E010000412BC00FB7D2412BC8FF:
        0. 0E BFF4 002E 0000:Arith_GetCount
      C14183E80D742A4183E806741A41FFC8750F6683FA0174096683FA0274:
        0. 1E 15C3 003E 0000:Dns_IsStringCountValidForTextType
    BF49044C8BC1418BC1458BD19983E20303C283E0033BC27550B81F85EB51:
      0. 3C FCEC 00B7 (l)0000:advance_date
  6576696365206D617070696E67733A0A00:
    0. 00 0000 0012 0000:??_C@_0BH@NJLCGBHB@?4textDevice?5mappings?3?6?$AA@
  69646E2774207265636965766520616E205320497270207768656E20776520:
    0. 37 874A 0057 0000:??_C@_0FM@HLEJDPIG@?4textDidn?8t?5recieve?5an?5S?5Irp?5whe@
  88:
    4424188954241048894C2408534883EC20488B05........488B5C243048:
      0. 39 BB58 008B 0000:??0CBaseWindow@@QEAA@H_N@Z
    4C242048894C2408488BC44881EC98000000488958F8488968F0488970E8:
      0. 80 622A 02CD 0000:DnsConvertRpcBuffer
  89:
    442418:
      48:
        83EC:
          4883391848896C24404889742438488BF1488BEA741133C0:
            0. 36 3878 00F1 0000:NewGenRandomEx
          5848895C2450488974244848897C2440418BF9488BDA488B:
            0. 3D 7968 00E9 0000:CM_Get_Device_ID_List_ExW (l)008F:$LN15 (l)00A5:$Clean0$54792 (l)00A7:$LN11 (l)00D0:CM_Get_Device_ID_List_ExW$filt$0 (l)00D9:$LN14 (l)00E3:$LN16
        89:
          4C2408488BC44883EC780F57C0488958F8488968F0488970E8:
            0. 70 490D 056D 0000:?ConvertToBmp@CWiauFormatConverter@@QEAAJPEAEHPEAPEAEPEAHPEAU_BMP_IMAGE_INFO@@W4SKIP_AMOUNT@@@Z (l)016C:$Cleanup$72050
          542410:
            48894C2408:
              48:
                81ECE8000000BA030000004C8D05:
                  0. 00 0000 0349 0000:AMovieSetupRegisterFilter
                83EC:
                  28:
                    448B442440488B542438488B4C:
                      0. 09 B1C1 002D 0000:?lstrcpynWInternal@@YAPEAGPEAGPEBGH@Z
                    488B4C24308B542440488B4940:
                      0. 02 ABB7 0034 0000:?DoGetWindowStyle@CBaseControlWindow@@QEAAJPEAJJ@Z
                  3848:
                    895C2430488B5C244048897C:
                      0. 1C 0567 00E3 0000:?OnPaletteChange@CBaseWindow@@MEAA_JPEAUHWND__@@I@Z
                    8B4424484C8B4C244033D248:
                      0. 0B 3A74 0046 0000:?DbgKernelAssert@@YAXPEBG0H@Z (REF 002B: ??_C@_1FI@KNEJJFOG@?$AAA?$AAs?$AAs?$AAe?$AAr?$AAt?$AAi?$AAo?$AAn?$AA?5?$AAF?$AAA?$AAI?$AAL?$AAE?$AAD?$AA?5?$AA?$CI?$AA?$CF?$AAs?$AA?$CJ?$AA?5?$AAa?$AAt?$AA?5?$AAl?$AAi?$AAn?$AAe?$AA?5?$AA?$CF?$AAd@)
                      1. 0B 3A74 0046 0000:?DbgKernelAssert@@YAXPEBD0H@Z (REF 002B: ??_C@_1FM@JPLHBDJK@?$AAA?$AAs?$AAs?$AAe?$AAr?$AAt?$AAi?$AAo?$AAn?$AA?5?$AAF?$AAA?$AAI?$AAL?$AAE?$AAD?$AA?5?$AA?$CI?$AA?$CF?$AAh?$AAs?$AA?$CJ?$AA?5?$AAa?$AAt?$AA?5?$AAl?$AAi?$AAn?$AAe?$AA?5?$AA?$CF@)
                  4848:
                    89:
                      5C244048896C2438488974:
                        0. 11 56A1 01B1 0000:?StartAt@CBaseStreamControl@@UEAAJPEB_JK@Z
                      7C2428488B7C24584885FF:
                        0. 1B 8254 00CA 0000:?NotifyAllocator@CBaseInputPin@@UEAAJPEAUIMemAllocator@@H@Z
                    8B4C24504883B9B800000000:
                      0. 76 BCD6 0096 0000:?CheckTime@CCmdQueue@@QEAAHVCRefTime@@H@Z
                    8D15........48895C244048:
                      0. 06 BAAA 0184 0000:CreateAudioMediaType
                  58B9F000000048897C2448C74424:
                    0. 06 195B 00EF 0000:?CreateImageSample@CImageAllocator@@MEAAPEAVCImageSample@@PEAEJ@Z
                  68488B05........48894424:
                    4048:
                      0. 1F E25B 00A9 0000:?Save@CPersistStream@@UEAAJPEAUIStream@@H@Z
                    4883:
                      0. 25 6FA1 00F1 0000:??0CDisp@@QEAA@_JH@Z
                  78BA030000004C8D05........48:
                    0. 08 93E0 00FD 0000:AMovieSetupRegisterFilter2
                8B:
                  4C2408488B442410488941108B4424:
                    0. 0A C755 002A 0000:?SetPointer@CMediaSample@@QEAAJPEAEJ@Z
                  C44883EC68488970E8488B70084889:
                    0. 25 ACCA 0152 0000:?GetDueCommand@CCmdQueue@@UEAAJPEAPEAVCDeferredCommand@@J@Z
              4C8BDC4883EC78498973E8498B73104989:
                0. 25 D28A 025B 0000:?NotifyAllocator@CTransInPlaceInputPin@@UEAAJPEAUIMemAllocator@@H@Z
              53:
                4883EC20488B5C2430:
                  48:
                    837B28007519:
                      0. 03 E07D 0053 0000:?Flip@CAggDrawSurface@@UEAAJPEAUIDirectDrawSurface@@K@Z (002F: 58)
                      1. 03 E07D 0056 0000:?SetCooperativeLevel@CAggDirectDraw@@UEAAJPEAUHWND__@@K@Z (002F: A0)
                    8B542438488B:
                      0. 02 034A 004D 0000:??0CBaseList@@QEAA@PEAGH@Z (REF 0022: ??0CBaseObject@@QEAA@PEBG@Z)
                      1. 02 034A 004D 0000:??0CBaseList@@QEAA@PEADH@Z (REF 0022: ??0CBaseObject@@QEAA@PEBD@Z)
                  8B542440488BCB:
                    0. 01 3E9B 006E 0000:?SetFormat@CMediaType@@QEAAHPEAEK@Z
                4C8BDC4881EC70080000488B05:
                  0. 00 0000 0161 (!)0000:?
              8B442418FFC8:
                4863D0F7D0480354241048:
                  0. 05 FFB9 0025 0000:?AlignUp@CPullPin@@QEAA_J_JJ@Z
                F7D048984823442410C3:
                  0. 00 0000 001F 0000:?AlignDown@CPullPin@@QEAA_J_JJ@Z
            894C24084C8BDC4881ECB8080000488B05........48:
              0. 32 84AB 01FC 0000:?DbgWaitForMultipleObjects@@YAKKPEBQEAXH@Z
        8BC448:
          81EC:
            68020000488958F8488970F0488978E84C8960E04C:
              0. 0E 7548 0299 0000:CM_Get_Res_Des_Data_Ex (l)01CE:$LN24 (l)0221:$Clean0$54759 (l)0223:$LN20 (l)0280:CM_Get_Res_Des_Data_Ex$filt$0 (l)0289:$LN23 (l)0293:$LN25
            78020000488958F8488970F0488978E84C8960E04C:
              0. 0E 7548 02B9 0000:CM_Get_Next_Res_Des_Ex (l)01BD:$LN23 (l)0239:$Clean0$54708 (l)023B:$LN19 (l)02A0:CM_Get_Next_Res_Des_Ex$filt$0 (l)02A9:$LN22 (l)02B3:$LN24
            B8000000488958F8488970E8488978E04C8960D84C:
              0. 63 F29A 01DD 0000:RxpCopyAndConvertSessions
          83EC78488958F8488970F0488978E84C8960E04C8968D8:
            0. 28 62F4 025C 0000:CM_Find_Range (l)020B:$Clean0$54705 (l)020D:$LN23
      4C8BDC4881EC:
        7802000049895BF8498973F049897BE84D8963E04D:
          0. 0E 0D47 0379 0000:CM_Modify_Res_Des_Ex (l)0275:$LN28 (l)02E7:$Clean0$54860 (l)02E9:$LN24 (l)0360:CM_Modify_Res_Des_Ex$filt$0 (l)0369:$LN27 (l)0373:$LN29 (033A: EA)
          1. 0E 0D47 0369 0000:CM_Add_Res_Des_Ex (l)0263:$LN29 (l)02DA:$Clean0$54604 (l)02DC:$LN25 (l)0350:CM_Add_Res_Des_Ex$filt$0 (l)0359:$LN28 (l)0363:$LN30 (033A: C3)
        8802000049895BF8498973F049897BE84D8963E04D:
          0. 0A 4278 0549 0000:CM_Query_Resource_Conflict_List (l)02D1:$LN41 (l)0392:$LN45 (l)046F:$Clean0$54607 (l)0471:$LN37 (l)0510:CM_Query_Resource_Conflict_List$filt$0 (l)0519:$LN40 (l)0523:$LN42 (l)0530:CM_Query_Resource_Conflict_List$filt$1 (l)0539:$LN44 (l)0543:$LN46
      8954241048:
        894C2408:
          48:
            83EC:
              38B8AD8BDB6841B9E803000048895C:
                0. 9B 6ADE 00F0 0000:?RecordFrameLateness@CBaseVideoRenderer@@UEAAXHH@Z
              7848895C247048896C2468488BAC24:
                0. 0A 1C0C 01A4 0000:?DoSetWindowStyle@CBaseControlWindow@@QEAAJJJ@Z
            8B4C24088B44241089:
              41208B4424188941:
                0. 07 7C9C 0027 0000:?OnSize@CBaseWindow@@UEAAHJJ@Z
              81080200008B4424:
                0. 08 CB89 0028 0000:?PreparePerformanceData@CBaseVideoRenderer@@QEAAXHH@Z
          534883EC20488B5C243048837B2800751948:
            0. 02 DF74 0054 0000:?SetOverlayPosition@CAggDrawSurface@@UEAAJJJ@Z
        8BC44881EC18020000488958F8488970F0488978E848:
          0. 02 8E30 0199 0000:CM_Get_First_Log_Conf_Ex (l)00F1:$LN18 (l)013C:$Clean0$54614 (l)013E:$LN14 (l)0180:CM_Get_First_Log_Conf_Ex$filt$0 (l)0189:$LN17 (l)0193:$LN19
    4C2420:
      4489442418:
        488954241048894C2408:
          4883EC:
            28448B442440488B54:
              0. 08 F6F9 0036 0000:??0?$CGenericList@UIMediaSample@@@@QEAA@PEAGHHH@Z
            5848895C245048:
              896C:
                0. 1B 98E4 01EC 0000:?StopAt@CBaseStreamControl@@UEAAJPEB_JHK@Z
              8B9C:
                0. 23 876A 01AD 0000:?GetTypeInfo@CBaseDispatch@@QEAAJAEBU_GUID@@IKPEAPEAUITypeInfo@@@Z
          534883EC20488B5C24304883:
            0. 08 40A3 005D 0000:?BltBatch@CAggDrawSurface@@UEAAJPEAU_DDBLTBATCH@@KK@Z
        4C8BDC4881EC7806000049895BF8498973F049897BE8:
          0. 13 96C1 06F9 0000:GetDevNodeKeyPath (l)00D5:$LN33 (l)0149:$LN37 (l)0668:$Clean0$48343 (l)06C0:GetDevNodeKeyPath$filt$0 (l)06C9:$LN32 (l)06D3:$LN34 (l)06E0:GetDevNodeKeyPath$filt$1 (l)06E9:$LN36 (l)06F3:$LN38
        8954241048894C2408:
          4883EC:
            28488B4424304885C078:
              0. FF 18D8 0205 0000:?Int64x32Div32@@YA_J_JJJJ@Z
            4848897C2430488B7C24:
              0. 11 3D8C 0114 0000:?SetSourcePosition@CBaseControlVideo@@UEAAJJJJJ@Z (00AD: 70)
              1. 11 3D8C 0114 0000:?SetDestinationPosition@CBaseControlVideo@@UEAAJJJJJ@Z (00AD: 50)
          534883EC:
            20488B5C243048837B:
              0. 07 5683 005E 0000:?SetDisplayMode@CAggDirectDraw@@UEAAJKKK@Z
            40488B5C2450488B83:
              0. 10 5BB1 00FF 0000:?SetWindowPosition@CBaseControlWindow@@UEAAJJJJJ@Z
      48:
        81EC8800000048897424704C896C24584863F18D0CF508000000:
          0. 11 DD97 0182 0000:Argv_CopyEx
        83EC6848895C2460488974245848897C24504C89642448498BD8:
          0. 49 89FF 00F9 0000:CM_Get_Device_Interface_List_ExW (l)00A6:$LN15 (l)00BC:$Clean0$55387 (l)00BE:$LN11 (l)00E0:CM_Get_Device_Interface_List_ExW$filt$0 (l)00E9:$LN14 (l)00F3:$LN16
        894C2408488BC44881ECE8000000488958F8488968F0488970E8:
          0. 65 7D9A 036C 0000:RxPrintQEnum (l)0160:$RetryTheApi$26617 (l)031F:$Cleanup$26620
        8BC448:
          81ECB8000000488970E8488978E04C8960D84C8970C84C:
            0. A2 34DA 02B0 0000:NetpTranslateNamesInServiceArray (l)0258:$Cleanup$5715
          83EC68488958F8488968F0488970E8488978E04C8960D8:
            0. A3 7BF6 01C1 0000:RxpReceiveBufferConvert (l)0194:$Cleanup$12218
      4C:
        89442418:
          48:
            8954241048:
              81EC9800000048897C24784C897C2458:
                0. 78 63CB 0289 0000:AppendServerList
              894C2408:
                4883EC:
                  38488B442468488B4C:
                    0. 18 FEC1 004E 0000:?GetIDsOfNames@CMediaControl@@UEAAJAEBU_GUID@@PEAPEAGIKPEAJ@Z (REF 0038: IID_IMediaControl)
                    1. 18 FEC1 004E 0000:?GetIDsOfNames@CMediaEvent@@UEAAJAEBU_GUID@@PEAPEAGIKPEAJ@Z (REF 0038: IID_IMediaEvent)
                    2. 18 FEC1 004E 0000:?GetIDsOfNames@CMediaPosition@@UEAAJAEBU_GUID@@PEAPEAGIKPEAJ@Z (REF 0038: IID_IMediaPosition)
                    3. 18 FEC1 004E 0000:?GetIDsOfNames@CBasicAudio@@UEAAJAEBU_GUID@@PEAPEAGIKPEAJ@Z (REF 0038: IID_IBasicAudio)
                    4. 18 FEC1 004E 0000:?GetIDsOfNames@CBaseVideoWindow@@UEAAJAEBU_GUID@@PEAPEAGIKPEAJ@Z (REF 0038: IID_IVideoWindow)
                    5. 18 FEC1 004E 0000:?GetIDsOfNames@CBaseBasicVideo@@UEAAJAEBU_GUID@@PEAPEAGIKPEAJ@Z (REF 0038: IID_IBasicVideo)
                  5848:
                    895C2450488974:
                      0. 11 D9FE 0195 0000:?Connect@CPullPin@@QEAAJPEAUIUnknown@@PEAUIMemAllocator@@H@Z
                    8D4C2430BA0800:
                      0. 04 3244 01B2 0000:?GetIDsOfNames@CBaseDispatch@@QEAAJAEBU_GUID@@PEAPEAGIKPEAJ@Z
                  684889:
                    5C2460488B5C:
                      0. 15 196E 0261 0000:??0COutputQueue@@QEAA@PEAUIPin@@PEAJHHJHJK_N@Z
                    7C2458488B7C:
                      0. FF C854 0148 0000:?QueueSample@CPullPin@@AEAAJAEA_J_JH@Z
                5348:
                  83EC:
                    20488B5C24304C8B:
                      0. 0D 1A79 005F 0000:??0CBasePropertyPage@@QEAA@PEADPEAUIUnknown@@HH@Z (REF 002D: ??0CUnknown@@QEAA@PEBDPEAUIUnknown@@@Z)
                      1. 0D 1A79 005F 0000:??0CBasePropertyPage@@QEAA@PEAGPEAUIUnknown@@HH@Z (REF 002D: ??0CUnknown@@QEAA@PEBGPEAUIUnknown@@@Z)
                    3048:
                      837C24500075:
                        0. 35 E7B7 00AE 0000:?Activate@CBasePropertyPage@@UEAAJPEAUHWND__@@PEBUtagRECT@@H@Z
                      8B5C24404883:
                        0. 08 40A3 006B 0000:?Lock@CAggDrawSurface@@UEAAJPEAUtagRECT@@PEAU_DDSURFACEDESC@@KPEAX@Z
                  8BC44883EC60803D:
                    0. 00 0000 00C9 0000:?MessageBoxOtherThread@@YAHPEAUHWND__@@PEAG1K@Z
              8BC44881ECA8000000488958F8488968:
                0. FF 1A32 06B4 0000:NetpwListCanonicalize (l)0590:$INLC_RestoreEndChar$27824
            8BC44881EC88010000488958F8488968F0488970E8:
              0. 15 8B38 0855 0000:Dns_DoSecureUpdate (l)05DC:$Cleanup$56077
          8954241048894C2408:
            4C8BDC4881ECC8000000498B43:
              0. 34 C28F 02E6 0000:?WaitDispatchingMessages@@YAKPEAXKPEAUHWND__@@I0@Z
            534883EC50488B4C2470488D05:
              0. 00 0000 00D2 (!)0000:?
        8BDC4881EC:
          3801000049895BF8498973F049897BE84D8963E04D:
            0. 0E 0D47 0499 0000:CM_Set_Class_Registry_PropertyW (l)03D6:$LN42 (l)03F8:$Clean0$54833 (l)03FA:$LN38 (l)0480:CM_Set_Class_Registry_PropertyW$filt$0 (l)0489:$LN41 (l)0493:$LN43
          8802000049895BF8498973F049897BE84D8963E04D:
            0. 0E 0D47 04D9 0000:CM_Set_DevNode_Registry_Property_ExW (l)040A:$LN43 (l)0437:$Clean0$54652 (l)0439:$LN39 (l)04C0:CM_Set_DevNode_Registry_Property_ExW$filt$0 (l)04C9:$LN42 (l)04D3:$LN44
      89542410488BC44881EC28020000488958F8488970F0488978E84C:
        0. 06 1A3D 01C9 0000:CM_Add_Empty_Log_Conf_Ex (l)0121:$LN19 (l)0167:$Clean0$54554 (l)0169:$LN15 (l)01B0:CM_Add_Empty_Log_Conf_Ex$filt$0 (l)01B9:$LN18 (l)01C3:$LN20
  8B:
    01:
      4883C10433D249C1E002E9:
        0. 00 0000 0012 0000:Dns_ClearIpArray
      8B02443BC0410F47C0C3:
        0. 00 0000 000D (l)0000:??$ourmax@K@@YAKAEBK0@Z
    0A4183F9020F868E000000410FB64409FF3CFF0F858000000041384409FE:
      0. 81 B4B6 00A1 0000:NetpLogonGetMessageVersion
    41:
      04:
        33C04585C07E14488B49089039117410FFC04883C104413BC07CF1B8:
          0. 07 5570 0027 0000:?LookupPropId@CWiauPropertyList@@QEAAHK@Z
        4883C1:
          0833D249C1E004E9:
            0. 00 0000 0013 0000:Ip6Array_Clear
          2033D249C1E006E9:
            0. 00 0000 0013 0000:DnsAddrArray_Clear
      0833C04585C07E16488B12488B094839117410FFC04883C108413BC07C:
        0. 09 0D6C 0029 (!)0000:?
      14488B5220488B492041C1E8034183E003E9:
        0. 00 0000 0019 0000:PtrRecordCompare
    49:
      08:
        4533C04585C97E214C8B12488B094C3911750A488B42084839410874:
          0. 17 0F44 0037 0000:?Find@?$CMSPArray@U_THREADPOOLWAITBLOCK@CMSPCallMultiGraph@@$07$07@@QEBAHAEAU_THREADPOOLWAITBLOCK@CMSPCallMultiGraph@@@Z
        4C8B59104533C04585C94C8BD2744290666666906666669066666690:
          0. 3E 1728 005E 0000:?IsFormatSupported@CWiauFormatConverter@@QEAAHPEBU_GUID@@@Z
      1C488B4110488D511041D1E94C8D411848894108488BC84183E101E9:
        0. 00 0000 0023 (l)0000:TokenAdvance
      28443B4A28751066448B492C66443B4A2C750433C0EB051BC083D8FF85:
        0. 1B A161 003F 0000:SrvRecordCompare
      784533C04585C97E2C488B818000000048833800740C488B084881C190:
        0. 22 B075 0042 0000:?FindPinNumber@CSource@@QEAAHPEAUIPin@@@Z
    590448895C2408488974241848897C242033FF41FFCB488BF2488BD9458B:
      0. A4 C4DF 00C4 0000:Ip6Array_DeleteIp
    C1:
      4433C2418BD0418BC0C1E81081E20000FF000BD0418BC041C1E0102500:
        0. 41 7F7F 0061 0000:Ip4_NetworkClassMatchLevel
      B9010000004181F8000000407E06B800800000C3443BC17E1066666690:
        0. 46 2BFF 0066 0000:?isqrt@@YAHH@Z
    C28BC19941F7F885C9894424188954241C791185D27E0DFFC0412BD08954:
      0. 0C 206D 002C 0000:div
    C9418BC841D3F9FFCA7435FFCA741CFFCA740332C0C3418AC1488D0D:
      0. 00 0000 0057 0000:ComponentFromIndex
    CA:
      4C8BC1488D15........488D0D........E9:
        0. 00 0000 0019 0000:PNP_RunDetection
      F20F10C8B856555555F7EA418BC1448BC241C1E81F4403C2412BC04963:
        0. 58 1F4D 0078 (l)0000:scaleDouble_3
45:
  33:
    C0:
      0F:
        B61148FFC184D274178D42D03C09770841B801000000EBE780FA2E74:
          0. 08 68AE 0028 0000:Dns_IsNameNumericA
        B7114883C1026685D2741A8D42D0663D0900770841B801000000EBE3:
          0. 0D C77B 002D 0000:Dns_IsNameNumericW
      418D5002E9:
        0. 00 0000 000C 0000:OpenStream
      E9:
        0. 00 0000 0008 0000:CM_Delete_Class_Key (REF 0004: CM_Delete_Class_Key_Ex)
        1. 00 0000 0008 0000:CM_Unregister_Device_InterfaceW (REF 0004: CM_Unregister_Device_Interface_ExW)
        2. 00 0000 0008 0000:CM_Unregister_Device_InterfaceA (REF 0004: CM_Unregister_Device_Interface_ExA)
        3. 00 0000 0008 0000:CM_Get_Global_State (REF 0004: CM_Get_Global_State_Ex)
        4. 00 0000 0008 0000:CM_Free_Log_Conf (REF 0004: CM_Free_Log_Conf_Ex)
        5. 00 0000 0008 0000:CM_Set_HW_Prof (REF 0004: CM_Set_HW_Prof_Ex)
        6. 00 0000 0008 0000:CM_Setup_DevNode (REF 0004: CM_Setup_DevNode_Ex)
        7. 00 0000 0008 0000:CM_Disable_DevNode (REF 0004: CM_Disable_DevNode_Ex)
        8. 00 0000 0008 0000:CM_Enable_DevNode (REF 0004: CM_Enable_DevNode_Ex)
        9. 00 0000 0008 0000:CM_Reenumerate_DevNode (REF 0004: CM_Reenumerate_DevNode_Ex)
        10. 00 0000 0008 0000:CM_Uninstall_DevNode (REF 0004: CM_Uninstall_DevNode_Ex)
        11. 00 0000 0008 0000:CM_Register_Device_Driver (REF 0004: CM_Register_Device_Driver_Ex)
    C9:
      48:
        85D27508B8:
          0D0000C0C36690410F:
            B60084C0741C880148FFC149FFC0:
              0. 29 2A5E 0049 0000:RtlStringCopyWorkerA
            B7006685C074216689014883C102:
              0. 32 7F8E 0052 0000:RtlStringCopyWorkerW
          57000780C36690410F:
            B60084C0741C880148FFC149FFC0:
              0. 29 37C2 0049 0000:StringCopyWorkerA
            B7006685C074216689014883C102:
              0. 32 1E3E 0052 0000:StringCopyWorkerW
        895C240848896C24108BDAC1EA03488974241883FA024C8BD1458BC1:
          0. B4 B48C 00D4 0000:get_distances_from_literals
      4C394908741D4C8BC1488BC190413B1074144883C01041FFC148837808:
        0. 15 13F6 0035 0000:Dns_GetStringForValue
      4D85C04C8BD9458BD1744D4C2BDA410FB604130FB60A49FFC83AC17433:
        0. 42 D785 0062 0000:_memicmp
      85D24C8BC17432666690666690418B4020FFCA4503C985C07423FFC841:
        0. 55 60B2 0075 0000:Arith_Decode_Bits
      E9:
        0. 00 0000 0008 0000:CM_Get_Parent (REF 0004: CM_Get_Parent_Ex)
        1. 00 0000 0008 0000:CM_Get_Child (REF 0004: CM_Get_Child_Ex)
        2. 00 0000 0008 0000:CM_Get_Sibling (REF 0004: CM_Get_Sibling_Ex)
        3. 00 0000 0008 0000:CM_Get_Device_ID_Size (REF 0004: CM_Get_Device_ID_Size_Ex)
        4. 00 0000 0008 0000:CM_Get_Device_ID_List_SizeW (REF 0004: CM_Get_Device_ID_List_Size_ExW)
        5. 00 0000 0008 0000:CM_Get_Depth (REF 0004: CM_Get_Depth_Ex)
        6. 00 0000 0008 0000:CM_Locate_DevNodeW (REF 0004: CM_Locate_DevNode_ExW)
        7. 00 0000 0008 0000:CM_Free_Res_Des (REF 0004: CM_Free_Res_Des_Ex)
        8. 00 0000 0008 0000:CM_Get_Res_Des_Data_Size (REF 0004: CM_Get_Res_Des_Data_Size_Ex)
        9. 00 0000 0008 0000:CM_Delete_DevNode_Key (REF 0004: CM_Delete_DevNode_Key_Ex)
        10. 00 0000 0008 0000:CM_Enumerate_Classes (REF 0004: CM_Enumerate_Classes_Ex)
        11. 00 0000 0008 0000:CM_Get_First_Log_Conf (REF 0004: CM_Get_First_Log_Conf_Ex)
        12. 00 0000 0008 0000:CM_Get_Next_Log_Conf (REF 0004: CM_Get_Next_Log_Conf_Ex)
        13. 00 0000 0008 0000:CM_Get_Log_Conf_Priority (REF 0004: CM_Get_Log_Conf_Priority_Ex)
        14. 00 0000 0008 0000:CM_Get_Hardware_Profile_InfoW (REF 0004: CM_Get_Hardware_Profile_Info_ExW)
        15. 00 0000 0008 0000:CM_Set_DevNode_Problem (REF 0004: CM_Set_DevNode_Problem_Ex)
        16. 00 0000 0008 0000:CM_Add_IDW (REF 0004: CM_Add_ID_ExW)
        17. 00 0000 0008 0000:WdmlibIoCsqInsertIrp (REF 0004: WdmlibIoCsqInsertIrpEx)
        18. 00 0000 0008 0000:DnssrvCreateZoneForDcPromo (REF 0004: DnssrvCreateZoneForDcPromoEx)
        19. 00 0000 0008 0000:strtol (REF 0004: strtoxl)
        20. 00 0000 0008 0000:_strtoi64 (REF 0004: strtoxq)
        21. 00 0000 0008 0000:wcstol (REF 0004: wcstoxl)
        22. 00 0000 0008 0000:_wcstoi64 (REF 0004: wcstoxq)
    D2:
      0FBA642428114D8BD8498BC273604885D2750A4D8910B80D0000C0C390:
        0. 93 6D9D 00B3 0000:RtlUnicodeStringCopyStringWorker
      4183F80441B9010000007C54904585C97477660F1201660F2E027A7175:
        0. 73 2462 0093 0000:compareParams
      4585C048897424184C63DA8BF10F88D80100004183F8637E0D4181F8B2:
        0. 6E 7AC7 01FB (l)0000:days_so_far
      4885:
        C974:
          534881FAFFFFFF7F774A4885D24C8BCA418BC2741766666690:
            0. 42 4A3B 0062 0000:StringCchLengthA
            1. 42 FC82 0062 0000:RtlStringCchLengthA
          554881FAFFFFFF7F774C4885D24C8BCA418BC2741966666690:
            0. 44 6F81 0064 0000:RtlStringCchLengthW
            1. 44 D938 0064 0000:StringCchLengthW
        D27508B8:
          0D0000C0C366904D85C974:
            27410FB60084C0741F880148:
              0. 31 0DEC 0051 0000:RtlStringCopyNWorkerA
            2D410FB7006685C074246689:
              0. 3A 6F04 005A 0000:RtlStringCopyNWorkerW
          57000780C366904D85C974:
            27410FB60084C0741F880148:
              0. 31 1070 0051 0000:StringCopyNWorkerA
            2D410FB7006685C074246689:
              0. 3A 0EB4 005A 0000:StringCopyNWorkerW
      4D85C0458BDA745466906666900FB601440FB60A49FFC8413AC174353C:
        0. 46 B74C 0066 0000:__ascii_memicmp
    DB:
      4885C94D8BD374224881FAFFFFFF7F77194885D2488BC2458BCB740E90:
        0. 35 2CD9 0055 0000:RtlStringCbLengthA
        1. 35 A4E5 0055 0000:StringCbLengthA
      4D85C94C8BD174034589194D85C00F849000000083FA0174094D85C90F:
        0. 8D A3E2 00AD 0000:?Next@?$CComEnumImpl@UIEnumTerminalClass@@$1?IID_IEnumTerminalClass@@3U_GUID@@BU3@V?$_Copy@U_GUID@@@ATL@@@ATL@@UEAAJKPEAU_GUID@@PEAK@Z
      80FA014C8BD1754649FFC24585C9C6012B0F8498000000666690666690:
        0. 3F 6EC0 00BD 0000:Dns_AtmaAddressToString
  6E746572696E6720:
    4163706973696D:
      4164644465766963652E0A00:
        0. 00 0000 001C 0000:??_C@_0CB@FPFHFEAH@?4textEntering?5AcpisimAddDevice?4?6@
      436F6D706C6574:
        65534972702E0A00:
          0. 00 0000 001F 0000:??_C@_0CE@MBEEEIIF@?4textEntering?5AcpisimCompleteSIr@
        696F6E526F7574696E:
          0. 04 3DE5 0024 0000:??_C@_0CJ@ODOIANHA@?4textEntering?5AcpisimCompletionR@
      44:
        30436F6D706C6574696F6E2E0A00:
          0. 00 0000 001F 0000:??_C@_0CE@CONPAJIC@?4textEntering?5AcpisimD0Completio@
        69737061746368:
          496F63746C0A00:
            0. 00 0000 001F 0000:??_C@_0CE@PJNGOJL@?4textEntering?5AcpisimDispatchIoc@
          50:
            6E702E0A00:
              0. 00 0000 001E 0000:??_C@_0CD@HENLKDIC@?4textEntering?5AcpisimDispatchPnp@
            6F7765722E0A00:
              0. 00 0000 0020 0000:??_C@_0CF@LEIMCFAH@?4textEntering?5AcpisimDispatchPow@
          53797374656D436F:
            0. 07 810E 0027 0000:??_C@_0CM@DFDMGEAI@?4textEntering?5AcpisimDispatchSys@
      466F7277617264497270416E64576169:
        0. 04 273A 0024 0000:??_C@_0CJ@HOIOKNIF@?4textEntering?5AcpisimForwardIrpA@
      47656E6572616C44697370617463680A:
        0. 01 78F0 0021 0000:??_C@_0CG@MLMIMFBJ@?4textEntering?5AcpisimGeneralDisp@
      4973737565506F776572444972702E0A:
        0. 01 78F0 0021 0000:??_C@_0CG@JJOMDHDK@?4textEntering?5AcpisimIssuePowerD@
      50:
        6E70:
          43616E63656C:
            52656D6F766544:
              0. 08 CC89 0028 0000:??_C@_0CN@PDAIKICN@?4textEntering?5AcpisimPnpCancelRe@
            53746F70446576:
              0. 06 D1F0 0026 0000:??_C@_0CL@PKLAHCKJ@?4textEntering?5AcpisimPnpCancelSt@
          5175657279:
            4361706162696C69:
              0. 07 B746 0027 0000:??_C@_0CM@PCNFCHPM@?4textEntering?5AcpisimPnpQueryCap@
            52656D6F76654465:
              0. 07 AFC2 0027 0000:??_C@_0CM@LMCHHAD@?4textEntering?5AcpisimPnpQueryRem@
            53746F7044657669:
              0. 05 EB6A 0025 0000:??_C@_0CK@OMCIPKAE@?4textEntering?5AcpisimPnpQuerySto@
          52656D6F76654465766963652E:
            0. 02 37F2 0022 0000:??_C@_0CH@FPDOFEFD@?4textEntering?5AcpisimPnpRemoveDe@
          53:
            74:
              6172744465766963652E0A:
                0. 01 78F0 0021 0000:??_C@_0CG@KNBGDOLB@?4textEntering?5AcpisimPnpStartDev@
              6F704465766963652E0A00:
                0. 00 0000 0020 0000:??_C@_0CF@JKEHLFLC@?4textEntering?5AcpisimPnpStopDevi@
            7572707269736552656D6F76:
              0. 05 0085 0025 0000:??_C@_0CK@LEEEMMBD@?4textEntering?5AcpisimPnpSurprise@
        6F776572:
          5175657279506F7765722E:
            0. 02 37F2 0022 0000:??_C@_0CH@GDHFGMPM@?4textEntering?5AcpisimPowerQueryP@
          53:
            4972702E0A00:
              0. 00 0000 001C 0000:??_C@_0CB@GEMIOMHL@?4textEntering?5AcpisimPowerSIrp?4?6@
            6574506F7765722E0A00:
              0. 00 0000 0020 0000:??_C@_0CF@IHCPHNEE@?4textEntering?5AcpisimPowerSetPow@
      5175657279506F776572444972702E0A:
        0. 01 78F0 0021 0000:??_C@_0CG@BGNEHGGB@?4textEntering?5AcpisimQueryPowerD@
      536574506F776572444972702E0A00:
        0. 00 0000 001F 0000:??_C@_0CE@KJLHIBAP@?4textEntering?5AcpisimSetPowerDIr@
    447269766572456E7472790A00:
      0. 00 0000 0016 0000:??_C@_0BK@EIADGMAJ@INITEntering?5DriverEntry?6?$AA@
  72726F7220:
    617474616368696E6720746F2064657669636520737461636B2E:
      0. 15 8CC2 0035 0000:??_C@_0DK@OKDILBKE@?4textError?5attaching?5to?5device?5s@
    656E61626C696E672064657669636520696E746572666163652E:
      0. 21 3B44 0041 0000:??_C@_0EG@DPFPEKPG@?4textError?5enabling?5device?5inter@
    70726F63657373696E672C206F72206C6F776572206472697665:
      0. 45 2A12 0065 0000:??_C@_0GK@GFHCJCEK@?4textError?5processing?0?5or?5lower?5@
    7265676973746572696E672064657669636520696E7465726661:
      0. 14 5414 0034 0000:??_C@_0DJ@CEDJFNEF@?4textError?5registering?5device?5in@
  786974696E6720:
    4163706973696D:
      4164644465766963652028256C78292E0A:
        0. 01 78F0 0021 0000:??_C@_0CG@BBNIOPBL@?4textExiting?5AcpisimAddDevice?5?$CI?$CF@
      436F6D706C6574:
        65534972702E0A00:
          0. 00 0000 001E 0000:??_C@_0CD@NIMGBJJE@?4textExiting?5AcpisimCompleteSIrp@
        696F6E526F7574696E65:
          0. 03 9C28 0023 0000:??_C@_0CI@LEGILNHD@?4textExiting?5AcpisimCompletionRo@
      44:
        30436F6D706C6574696F6E2E0A00:
          0. 00 0000 001E 0000:??_C@_0CD@DHFNFIJD@?4textExiting?5AcpisimD0Completion@
        69737061746368:
          496F63746C0A00:
            0. 00 0000 001E 0000:??_C@_0CD@BGBPDPIK@?4textExiting?5AcpisimDispatchIoct@
          50:
            6E702E0A00:
              0. 00 0000 001D 0000:??_C@_0CC@JKLMMDBE@?4textExiting?5AcpisimDispatchPnp?4@
            6F7765722E0A00:
              0. 00 0000 001F 0000:??_C@_0CE@NOCFIHKE@?4textExiting?5AcpisimDispatchPowe@
          53797374656D436F6E:
            0. 06 DA57 0026 0000:??_C@_0CL@DOAHPHJO@?4textExiting?5AcpisimDispatchSyst@
      466F7277617264497270416E6457616974:
        0. 03 9C28 0023 0000:??_C@_0CI@CJAOBNIG@?4textExiting?5AcpisimForwardIrpAn@
      47656E6572616C44697370617463680A00:
        0. 00 0000 0020 0000:??_C@_0CF@IEHNJOOJ@?4textExiting?5AcpisimGeneralDispa@
      4973737565506F776572444972702E0A00:
        0. 00 0000 0020 0000:??_C@_0CF@NGFJGMMK@?4textExiting?5AcpisimIssuePowerDI@
      50:
        6E70:
          43616E63656C:
            52656D6F76654465:
              0. 07 AFC2 0027 0000:??_C@_0CM@OKGPKFMP@?4textExiting?5AcpisimPnpCancelRem@
            53746F7044657669:
              0. 05 EB6A 0025 0000:??_C@_0CK@BKPMMFGG@?4textExiting?5AcpisimPnpCancelSto@
          5175657279:
            4361706162696C6974:
              0. 06 7243 0026 0000:??_C@_0CL@PJOOLEGK@?4textExiting?5AcpisimPnpQueryCapa@
            52656D6F7665446576:
              0. 06 D1F0 0026 0000:??_C@_0CL@PJOEJF@?4textExiting?5AcpisimPnpQueryRemo@
            53746F704465766963:
              0. 04 3DE5 0024 0000:??_C@_0CJ@HFHGCLAO@?4textExiting?5AcpisimPnpQueryStop@
          52656D6F76654465766963652E0A:
            0. 01 78F0 0021 0000:??_C@_0CG@OCMMBDBE@?4textExiting?5AcpisimPnpRemoveDev@
          53:
            74:
              6172744465766963652E0A00:
                0. 00 0000 0020 0000:??_C@_0CF@OCKDGFEB@?4textExiting?5AcpisimPnpStartDevi@
              6F704465766963652E0A00:
                0. 00 0000 001F 0000:??_C@_0CE@PAOOBHBB@?4textExiting?5AcpisimPnpStopDevic@
            7572707269736552656D6F7661:
              0. 04 5E1C 0024 0000:??_C@_0CJ@CNBKBNBJ@?4textExiting?5AcpisimPnpSurpriseR@
        6F776572:
          5175657279506F7765722E0A:
            0. 01 78F0 0021 0000:??_C@_0CG@NOIHCLLL@?4textExiting?5AcpisimPowerQueryPo@
          53:
            4972702E0A00:
              0. 00 0000 001B 0000:??_C@_0CA@GDLABAOI@?4textExiting?5AcpisimPowerSIrp?4?6?$AA@
            6574506F7765722E0A00:
              0. 00 0000 001F 0000:??_C@_0CE@ONIGNPOH@?4textExiting?5AcpisimPowerSetPowe@
    447269766572456E7472790A00:
      0. 00 0000 0015 0000:??_C@_0BJ@FHBKGEIL@INITExiting?5DriverEntry?6?$AA@
  85:
    C0:
      440FB70A7408453BC8740333C0C34183F9177513488B4208488901488B:
        0. 35 D2D8 0055 0000:Ip6_CopyFromSockaddr
      74:
        1F41FFC8741541FFC87406B857000780C38B41182BC289411CEB0801:
          0. 1B E822 003B 0000:?Seek@CImageStream@@UEAAJT_LARGE_INTEGER@@KPEAT_ULARGE_INTEGER@@@Z (l)0038:$Cleanup$72103
        3D4183F820773733CA8BD18BC1C1E81081E20000FF000BD08BC1C1E1:
          0. 25 D1F2 0045 0000:Ip4_IsSubnetMatch
    C9:
      458BD84C8BD2:
        488BC174:
          0949FFC2C6022D48F7D84D8BC2498BCB666690:
            0. 4B 0618 006B (l)0000:x64toa
          0C4983C20266C7022D0048F7D84D8BC2498BCB:
            0. 4F 84EC 006F (l)0000:x64tow
        8BC174:
          0849FFC2C6022DF7D84D8BC26666669066666690:
            0. 3D 02DF 005D (l)0000:xtoa
          0B4983C20266C7022D00F7D84D8BC26690666690:
            0. 4F 4D96 006F (l)0000:xtow
      4889742418418BC148897C2420488BF24C8BD9751548C7C1FFFFFFFF49:
        0. 3B 454D 019A 0000:Dns_AtmaStringToAddress
      4C8B1148895C241848897C2420418BF8448B02498BDA74104183C1FF41:
        0. 31 63B2 0051 0000:FlatBuf_Arg_Reserve
      89510C44894110C74104000000007407C7410400000100C20000:
        0. 00 0000 001D 0000:DnssrvFillRecordHeader
48:
  2BD10F:
    B6013A0411750A48FFC184C075F133C0C31BC083D8FFC3:
      0. 00 0000 001B 0000:strcoll
    B701663B0411750C4883C1026685C075EE33C0C31BC083D8FFC3:
      0. 00 0000 001E 0000:wcscoll
  3911740D488B094885C9740B48391175F3B801000000C333C0C3:
    0. 00 0000 001B 0000:?IsNodeOnList@@YAHPEAU_LIST_ENTRY@@0@Z
  3BCA:
    4889:
      5C241848897C2420488BF9488BDA0F84A10000004885C974414885:
        0. AA E887 00CA 0000:Dns_AreIpArraysEqual
      74241848897C2420488BF9488BF27510B801000000488B7C242048:
        0. FF 2804 014E 0000:Ip6Array_IsEqual
    74234D85C0741E6666906666900FB602440FB60948FFC2880144884AFF:
      0. 0B 2F8D 002B (l)0000:swap
  53:
    0FB74202440FB7994C010000440FB74204440FB7894E0100004C8BD233D2:
      0. FF 7027 0140 0000:Arith_Remove_Symbol
    32DB4532DB85C941C70100000000745A448BD18B022D200200007428FFC8:
      0. 55 1B20 0075 0000:NetpAliasMemberToPriv
    33C08BDA4C8D913643000033D285DB498902498942084C8B4940448BC244:
      0. 64 1D83 0084 0000:get_aligned_stats
    41:
      8BD84C8BC14863CA498B00440FB70C01498B4010423914884E8D148875:
        0. 76 9349 0096 0000:binary_search_remove_node
      BB100000004C8BC98B4948418BC3418BD8448BD2412BC03BC80F8EAB00:
        0. C0 8638 00E0 (l)0000:send_bits
    44:
      8B:
        1D........4533C94C8BD24585DB458BC1488D1D........7E3E6690:
          0. 0B F740 00A2 0000:??ACGuidNameList@@QEAAPEADAEBU_GUID@@@Z
        4920443B4A200F85830000004585C94C8D5928488D5A28746F448B51:
          0. 77 2C37 0097 0000:TxtRecordCompare
      8D52FF4532C0488BD94585D24D63CA7832488B41404E8D1C8866666690:
        0. 81 DB79 00A1 0000:get_final_repeated_offset_states
    4533:
      C94533D285D24C8BD90F84E8000000488D1D........666690666690:
        0. E0 733D 0100 0000:Dns_SecurityKeyToBase64String
      D2:
        45:
          33DB4585C9488BD90F84C3000000410FB6004183C1FF3C617C08:
            0. BF 405F 00DF 0000:Dns_SecurityBase64StringToKey
          85C0498BD94C63D94D63C87E2D4885D2468B0493741C33C94D85:
            0. 2B 9D46 004B 0000:?wiauPropsInPropSpec@@YAHJPEBUtagPROPSPEC@@HPEAK@Z
        4885D2488BD9488BC14C8BCA458BDA74:
          14443810740A48FFC049FF:
            0. 75 197D 0095 0000:StringCatWorkerA
            1. 75 5E99 0095 0000:RtlStringCatWorkerA
          1666443910740B4883C002:
            0. 76 6C0A 0096 0000:StringCatWorkerW
            1. 76 88E7 0096 0000:RtlStringCatWorkerW
      DB0FBA64243811498BD8:
        498BC373644885D2750E41BB0D0000C04989:
          0. B3 BC09 00D3 0000:RtlUnicodeStringCopyStringNWorker
        4D8BD373694885D2750A4D8918B80D0000C0:
          0. A4 BA5C 00C4 0000:RtlUnicodeStringCopyWorker
    48:
      81EC:
        30020000488B05........48898424200200004885D2488BDA751B:
          0. 0E 132D 00A1 0000:?get_Caption@CBaseControlWindow@@UEAAJPEAPEAG@Z
        50020000488B05........48898424400200004885C974:
          06668339:
            0. 0E E973 007B 0000:NetpIsUserNameValid (0027: 01)
            1. 0E E973 007B 0000:NetpIsGroupNameValid (0027: 03)
            2. 0E E973 007B 0000:NetpIsComputerNameValid (0027: 04)
            3. 0E E973 007B 0000:NetpIsPrintQueueNameValid (0027: 09)
          1F0FB701:
            0. 27 7C83 009F 0000:NetpIsUncComputerNameValid
        60010000488B05........48898424500100008BDA4C8BC1488D54:
          0. 23 3B4C 0088 0000:Dns_ValidateName_A
        70010000488B05........488984246001000083FA01488BD97548:
          0. 0F D7E0 0131 0000:NetpMachineValidToJoin
        80000000:
          4585C04D8BD14C8B:
            D9418BC00F84:
              C3000000FFC80F84A8:
                0. 16 B6E6 0123 0000:RxPrintDestGetInfo
              DF000000FFC80F84BD:
                0. 16 9E24 013E 0000:RxPrintJobGetInfo
            DA488BD9418BC00F84BA000000FFC8:
              0. 1D F19D 00EA 0000:RxPrintJobEnum
          48:
            B8FFFFFFFFFFFFFF7FF30F5AD8660F7F742470F20F11:
              0. 64 C7B8 0521 0000:sinf
            BAFFFFFFFFFFFFFF7FF20F11842490000000F20F10C8:
              0. 2A DA94 0454 0000:cosh
          4D85C0458BD1448BDA488BD90F84D20000004585C90F84:
            0. 25 608B 00FB 0000:RxPrintDestEnum
        90:
          000000:
            488B05........488984248000000033D20FB6D9488D4C:
              0. 07 EBF2 01D0 0000:NetpNetBiosReset (l)0097:$LN11 (l)00B2:$LN10 (l)00CD:$LN9 (l)00E8:$LN8 (l)0103:$LN7 (l)011E:$LN6 (l)0139:$LN5 (l)0154:$LN4 (l)016F:$LN3
            660F57C9F20F10E0BB01000000660F2FC87611660F1225:
              0. 00 0000 035F (l)0000:$LN70
          010000488B05........4889842480010000488BD9488D8C2480:
            0. 04 9897 00DE 0000:Ip6_McastCreate
        A0000000488B05........4889842490000000488BD94C8BC2488D:
          0. 24 698A 0085 0000:Dns_Ip6ReverseNameToAddress_W
        B0070000488B05........48898424A0070000498BC08BD948C744:
          0. 49 EC8D 0189 0000:CM_Uninstall_DevNode_Ex (l)00C7:$LN17 (l)014F:$Clean0$54850 (l)0151:$LN13 (l)0170:CM_Uninstall_DevNode_Ex$filt$0 (l)0179:$LN16 (l)0183:$LN18
        E0000000488B05........48898424D00000004885D2488BDA740B:
          0. 19 00DF 00DC 0000:NetpNumberOfConfigKeywords
        F0000000488B05........48898424:
          E00000004885:
            C97406668339:
              0. 0E 5BA0 007B 0000:NetpIsShareNameValid
            D2488BDA7519:
              0. 0C 5341 00D0 0000:CM_Get_Hardware_Profile_InfoA (00A0: 00)
              1. 0C 5341 00CD 0000:CM_Get_Hardware_Profile_Info_ExA (00A0: C3)
          E8000000488BD1488D8C24A8:
            0. 05 9B77 0164 0000:s_open
      83:
        792800:
          458BD9418BD84C8BD174124883791800740B3B117C0EB88505:
            0. 66 5A1C 0086 0000:?SetValidValues@CWiauPropertyList@@QEAAJHJJHPEAJ@Z
            1. 72 897D 0092 0000:?SetValidValues@CWiauPropertyList@@QEAAJHJJJJJ@Z
            2. 58 C2D2 0078 0000:?SetValidValues@CWiauPropertyList@@QEAAJHJJJ@Z
          4D8BD9498BD84C8BD174124883791800740B3B117C0EB88505:
            0. 66 BAA6 0086 0000:?SetValidValues@CWiauPropertyList@@QEAAJHPEAG0HPEAPEAG@Z
        EC:
          10488B05........48894424084183F8064C8BC97F17440181D82E:
            0. 08 1C29 012D 0000:decoder_translate_e8
          20:
            0F:
              B60133DB488BD13C307C3D3C397F1A0FBEC048FFC283E83048:
                0. 1A 94DA 005C (l)0000:DoSaverPreview
              B7:
                0133DB488BD1663D30007243663D3900771E0FB7C04883C2:
                  0. 22 CCB1 0064 (l)0000:DoSaverPreview
                02488BD9663D020075278B4A04FF15........488D15:
                  0. 00 0000 0065 0000:DnsAddr_WriteIpString_A
                442450488BD94C898980010000C781880100000000000048:
                  0. 16 1144 008C 0000:DComp_DecompressBlock
                D9:
                  488D0D........E8........4885C0740B0FB7CB4883C4:
                    0. 0D F02A 002D 0000:SQLSetConfigMode
                  8D4B20E8........4885C075118D480EFF15........33:
                    0. 22 72FE 0042 0000:Dns_AllocateRecord
              BA61181F4C8D4118488BD97347488B01810800200000410FBA:
                0. 22 25AB 0072 (l)0000:TypeParseRelPath
            33:
              C0:
                3905........7546488D0D........8905........8905:
                  0. 00 0000 005C 0000:Dns_StartServerSecurity
                488BD948:
                  83C138488941E8488941E0488941D88941F04889:
                    0. 07 47B2 0034 (!)0000:? (000C: C3)
                    1. 07 47B2 0045 0000:??0?$CComObject@V?$CComEnum@UIEnumVARIANT@@$1?IID_IEnumVARIANT@@3U_GUID@@BUtagVARIANT@@V?$_Copy@UtagVARIANT@@@ATL@@VCComMultiThreadModel@6@@ATL@@@ATL@@QEAA@PEAX@Z (000C: 89) (REF 002E: ??_7?$CComObject@V?$CComEnum@UIEnumVARIANT@@$1?IID_IEnumVARIANT@@3U_GUID@@BUtagVARIANT@@V?$_Copy@UtagVARIANT@@@ATL@@VCComMultiThreadModel@6@@ATL@@@ATL@@6B@)
                    2. 07 47B2 0045 0000:??0?$CComObject@V?$CComEnum@UIEnumTerminal@@$1?IID_IEnumTerminal@@3U_GUID@@BPEAUITTerminal@@V?$_CopyInterface@UITTerminal@@@ATL@@VCComMultiThreadModel@6@@ATL@@@ATL@@QEAA@PEAX@Z (000C: 89) (REF 002E: ??_7?$CComObject@V?$CComEnum@UIEnumTerminal@@$1?IID_IEnumTerminal@@3U_GUID@@BPEAUITTerminal@@V?$_CopyInterface@UITTerminal@@@ATL@@VCComMultiThreadModel@6@@ATL@@@ATL@@6B@)
                    3. 07 47B2 0045 0000:??0?$CComObject@V?$CComEnum@UIEnumPluggableSuperclassInfo@@$1?IID_IEnumPluggableSuperclassInfo@@3U_GUID@@BPEAUITPluggableTerminalSuperclassInfo@@V?$_CopyInterface@UITPluggableTerminalSuperclassInfo@@@ATL@@VCComMultiThreadModel@6@@ATL@@@ATL@@QEAA@PEAX@Z (000C: 89) (REF 002E: ??_7?$CComObject@V?$CComEnum@UIEnumPluggableSuperclassInfo@@$1?IID_IEnumPluggableSuperclassInfo@@3U_GUID@@BPEAUITPluggableTerminalSuperclassInfo@@V?$_CopyInterface@UITPluggableTerminalSuperclassInfo@@@ATL@@VCComMultiThreadModel@6@@ATL@@@ATL@@6B@)
                    4. 07 47B2 0045 0000:??0?$CComObject@V?$CComEnum@UIEnumPluggableTerminalClassInfo@@$1?IID_IEnumPluggableTerminalClassInfo@@3U_GUID@@BPEAUITPluggableTerminalClassInfo@@V?$_CopyInterface@UITPluggableTerminalClassInfo@@@ATL@@VCComMultiThreadModel@6@@ATL@@@ATL@@QEAA@PEAX@Z (000C: 89) (REF 002E: ??_7?$CComObject@V?$CComEnum@UIEnumPluggableTerminalClassInfo@@$1?IID_IEnumPluggableTerminalClassInfo@@3U_GUID@@BPEAUITPluggableTerminalClassInfo@@V?$_CopyInterface@UITPluggableTerminalClassInfo@@@ATL@@VCComMultiThreadModel@6@@ATL@@@ATL@@6B@)
                    5. 07 47B2 0045 0000:??0?$CComObject@V?$CComEnum@UIEnumTerminalClass@@$1?IID_IEnumTerminalClass@@3U_GUID@@BU3@V?$_Copy@U_GUID@@@ATL@@VCComMultiThreadModel@5@@ATL@@@ATL@@QEAA@PEAX@Z (000C: 89) (REF 002E: ??_7?$CComObject@V?$CComEnum@UIEnumTerminalClass@@$1?IID_IEnumTerminalClass@@3U_GUID@@BU3@V?$_Copy@U_GUID@@@ATL@@VCComMultiThreadModel@5@@ATL@@@ATL@@6B@)
                    6. 07 47B2 0045 0000:??0?$CComObject@V?$CComEnum@UIEnumStream@@$1?IID_IEnumStream@@3U_GUID@@BPEAUITStream@@V?$_CopyInterface@UITStream@@@ATL@@VCComMultiThreadModel@6@@ATL@@@ATL@@QEAA@PEAX@Z (000C: 89) (REF 002E: ??_7?$CComObject@V?$CComEnum@UIEnumStream@@$1?IID_IEnumStream@@3U_GUID@@BPEAUITStream@@V?$_CopyInterface@UITStream@@@ATL@@VCComMultiThreadModel@6@@ATL@@@ATL@@6B@)
                  8901488941083905........74144C8BC1488D15:
                    0. 00 0000 0037 0000:??0AsyncEventStruct@CPTEventSink@@QEAA@XZ
              D2:
                448D4201FF15........488D0D........8BD8FF15:
                  0. 00 0000 0053 0000:RpcpStopRpcServer (REF 000E: __imp_RpcServerUnregisterIf)
                  1. 00 0000 0053 0000:RpcpStopRpcServerEx (REF 000E: __imp_RpcServerUnregisterIfEx)
                488BD9448D4258E8........C7432801000000C743200100:
                  0. 0B 502E 002B 0000:??0CMediaType@@QEAA@XZ
                  1. 08 A5BE 0028 0000:?InitMediaType@CMediaType@@QEAAXXZ
              DB48:
                85C97410FF15........8BC8FF15........8BD8488D0D:
                  0. 00 0000 0033 0000:NetpLdapUnbind
                8759204885DB7417BAFFFFFFFF488BCBFF15........48:
                  0. 04 758A 002E 0000:?Close@CAMThread@@QEAAXXZ
            41:
              B901000000458D4101E8........4885C0750BB80800000048:
                0. 16 E3A2 0042 (l)0000:RxpIsFieldSettable
              F7C0FF7F0000488B442460488BD94889819843000089510874:
                0. 3F 3FBB 0082 0000:LZX_EncodeInit
            44:
              0F:
                B74912488BC2498D1C11493BD87613B9EA000000FF15:
                  0. 00 0000 0042 0000:Flat_RecordWrite
                BF4104488BDA0FBF51020FBF09E8........4885C0790D48:
                  0. 36 ED13 0056 (l)0000:seconds_since_1970
              8B:
                094C8D41044D03C84D3BC173266666669066669066666690:
                  0. 27 C4FD 0058 0000:DnssrvFindStatisticsInBuffer
                41084533C9488BD94585C07E2A4C8B11488B0A498BC26690:
                  0. 50 E259 0082 (!)0000:?
                49:
                  08:
                    33C041B804000000488BD94C8D15........48894110:
                      0. FF 6148 01A0 0000:comp_alloc_compress_memory
                    488BD9C681C52E00000441B8040000004C8D15:
                      0. 00 0000 0064 0000:allocate_decompression_memory
                  38488BD94585C9745783B9B00900000074164533C033D2:
                    0. 01 3E9B 006F (l)0000:update_tree_estimates
                51084533C9488BD94585D27E2E4C8B19488B0A4D8BC36690:
                  0. 5A 9433 008C 0000:?Remove@?$CMSPArray@U_THREADPOOLWAITBLOCK@CMSPCallMultiGraph@@$07$07@@QEAAHAEAU_THREADPOOLWAITBLOCK@CMSPCallMultiGraph@@@Z
                819C000000488D91F0000000488BD9E8........448B81C4:
                  0. 0B 2138 007C (l)0000:build_bl_tree
            45:
              33C9488BD94533C0418D510133C9FF15........:
                4533C94533:
                  0. 0B 08CE 0058 0000:??0CAMThread@@QEAA@XZ
                4885C04889:
                  0. 0C 1262 005C 0000:InitPrivateResource
              85C0488BD9488BC2488D0D........488D530848890B48C702:
                0. 0A FF57 004B 0000:??0Image@Gdiplus@@QEAA@PEAUIStream@@H@Z
              8B5014498BC04C8BDA41C1EA03488BD94C8D05........4183:
                0. 1E FC2C 0050 0000:PtrRecordPrint
            48:
              3909488BD9743866904C8B0333D2498B004889034889580883:
                0. 1D AF87 004C 0000:NetpCleanFtinfoContext
              3BCA488BDA750BB8010000004883C4205BC3488B014C8D4424:
                0. 04 D8EE 006A 0000:?IsEqualObject@@YAHPEAUIUnknown@@0@Z
              631D........83FB097D3F488D15........488BCB488BC341:
                0. 1F 8983 0062 0000:m_pushmatrix
              83:
                3900488BD9741690488B0B4885C9740D488B01488903E8:
                  0. 00 0000 002D 0000:ClearRanges
                3D........007560488D0D........4533C033D2FF15:
                  0. 00 0000 0078 0000:Dns_LoadNtdsapiProcs
                79:
                  1000488BD974:
                    0833C04883C4205BC3488B014C8D49404C:
                      0. 21 4446 00A8 0000:?PrepareWindow@CBaseWindow@@UEAAJXZ
                    40FF15........488B53184885D2741248:
                      0. 05 15E9 0058 0000:?UninitialiseWindow@CBaseWindow@@UEAAJXZ
                  3000488BD97424488B01FF505885C0781F488B4B30488B:
                    0. 1F CC04 003F 0000:?DisconnectInternal@CBasePin@@IEAAJXZ
                  4000488BD9:
                    746BFF15........8B8384000000C7437001:
                      0. 23 F2F6 00B8 0000:?BeginFlush@COutputQueue@@QEAAXXZ
                    75:
                      10C78184000000000000004883C4205BC3:
                        0. 02 ABB7 006F 0000:?Reset@COutputQueue@@QEAAXXZ
                      294C8D4C24304533C033D2C78180000000:
                        0. 05 75AF 0079 0000:?SendAnyway@COutputQueue@@QEAAXXZ
                  6000488BD9750BB85F0204804883C4205BC383FA017547:
                    0. 2C 132D 00C1 0000:?CompleteConnect@CTransInPlaceFilter@@UEAAJW4_PinDirection@@PEAUIPin@@@Z
              85:
                C9:
                  488B:
                    D9:
                      74:
                        064883C130EB0233C94883C108FF15:
                          0. 0B CB6C 0046 (!)0000:?
                        2780390074224885D2741D48894C2430488D4C:
                          0. 03 727B 003D 0000:mblen
                        340FBF4112443BC0752B488B4118488B084885:
                          0. 07 057B 004A 0000:Hostent_SetToSingleAddress
                      75:
                        0833C04883C4205BC3FF15........84C07438:
                          0. 05 DE22 0063 0000:DDKExtCheckNonPaged
                        098D41574883C4205BC3488B09FF15:
                          0. 04 BF6F 0030 0000:NetpCloseConfigData
                    DA:
                      48C744243000000000743F803900743A488D5424:
                        0. 02 A3D2 0063 0000:CM_Connect_MachineA
                      75:
                        0C4883C4205B48FF25........4885D2750EFF:
                          0. 01 54B7 0050 0000:MIDL_user_reallocate
                        11B9400000004883C4205B48FF25........48:
                          0. 06 F093 0055 0000:MIDL_user_reallocate
                  740D48890D........4883C4205BC348833D........00:
                    0. 05 345F 003F 0000:DnsPrint_InitLocking
                D2488B:
                  D9:
                    4889117409488B02488BCAFF5008488BC34883C4:
                      0. 03 3F06 0023 0000:??0?$CComPtr@UIMoniker@@@ATL@@QEAA@PEAUIMoniker@@@Z
                    741C4883792000751E48895120488B02488BCAFF:
                      0. 34 7908 0054 0000:?SetPageSite@CBasePropertyPage@@UEAAJPEAUIPropertyPageSite@@@Z
                  DA750BB8034000804883C4205BC3:
                    488B:
                      014C8D4424:
                        0. 49 119B 0069 0000:?CheckSourceRect@CBaseControlVideo@@UEAAJPEAUtagRECT@@@Z
                      81F0000000:
                        0. 22 866A 0050 0000:?get_WindowStyle@CBaseControlWindow@@UEAAJPEAJ@Z
                        1. 22 C219 0050 0000:?get_WindowStyleEx@CBaseControlWindow@@UEAAJPEAJ@Z
                        2. 1D E5A8 0055 0000:?get_Visible@CBaseControlWindow@@UEAAJPEAJ@Z
                    B908000000FF15:
                      0. 00 0000 004F 0000:?QueryId@CRendererInputPin@@UEAAJPEAPEAG@Z
              8B:
                01:
                  448B81D40100008B91D0010000488BD9:
                    C7817401000000:
                      0. 39 1401 006B 0000:?OnDirectRender@CBaseVideoRenderer@@UEAAXPEAUIMediaSample@@@Z
                    FF9068010000FF:
                      0. 01 54B7 0031 0000:?OnRenderStart@CBaseVideoRenderer@@UEAAXPEAUIMediaSample@@@Z
                  488B:
                    D9FF90880100004885C0750BB80E0007804883C420:
                      0. 23 2B6B 0047 0000:?OnVideoSizeChange@CBaseControlVideo@@UEAAJXZ
                    DAFF50484863C84883C11833C048890B4883C4205B:
                      0. 01 EF04 0021 0000:?GetSizeMax@CPersistStream@@UEAAJPEAT_ULARGE_INTEGER@@@Z
                  8BDAFF90A000000085DB74188D4BFF85CB751123C33BC3:
                    0. 15 FB18 0035 0000:?MediaTypeSupported@CBaseTerminal@@QEAAHJ@Z
                024C8BC2488BD9488D542430498BC8FF50488B4B3833C039:
                  0. 11 823D 0031 0000:?CheckConnect@CBasePin@@UEAAJPEAUIPin@@@Z
                05........:
                  488BD94885C074084883C4205B48FFE0803D:
                    0. 00 0000 004D 0000:error
                  8BD94885C0756A488B05........4885C07526:
                    0. 03 29E1 008E 0000:lineClose (006A: E0) (REF 0009: ?lpfn@?1??lineClose@@9@9)
                    1. 03 29E1 008E 0000:lineDeallocateCall (006A: E0) (REF 0009: ?lpfn@?1??lineDeallocateCall@@9@9)
                    2. 03 29E1 008E 0000:lineHold (006A: E0) (REF 0009: ?lpfn@?1??lineHold@@9@9)
                    3. 03 29E1 008E 0000:lineReleaseUserUserInfo (006A: E0) (REF 0009: ?lpfn@?1??lineReleaseUserUserInfo@@9@9)
                    4. 03 29E1 008E 0000:lineRemoveFromConference (006A: E0) (REF 0009: ?lpfn@?1??lineRemoveFromConference@@9@9)
                    5. 03 29E1 008E 0000:lineSecureCall (006A: E0) (REF 0009: ?lpfn@?1??lineSecureCall@@9@9)
                    6. 03 29E1 008E 0000:lineShutdown (006A: E0) (REF 0009: ?lpfn@?1??lineShutdown@@9@9)
                    7. 03 29E1 008E 0000:lineUnhold (006A: E0) (REF 0009: ?lpfn@?1??lineUnhold@@9@9)
                    8. 03 29E1 0099 0000:phoneClose (006A: 5B) (REF 0009: ?lpfn@?1??phoneClose@@9@9)
                    9. 03 29E1 0099 0000:phoneShutdown (006A: 5B) (REF 0009: ?lpfn@?1??phoneShutdown@@9@9)
                19488BC1488B490833D248891048895008FF15........48:
                  0. 04 758A 0037 0000:DestroyPrivateResource
                1D........:
                  488BD1488BCBE8........4885DB7504488B58:
                    0. 12 7F69 0036 0000:Dns_DbgHeapFree
                  4C:
                    63:
                      C18B5334488B0BFF15........4885C074:
                        0. 0D B257 002D 0000:Dns_HeapAlloc
                      CA4C8BC18B5334488B0BFF15........48:
                        0. 10 98BD 0030 0000:Dns_HeapRealloc
                    8BC18B5334488B0BFF15........FF434883:
                      0. 09 636C 0029 0000:Dns_HeapFree
                41:
                  10BBFFFFFFFF48635004F00FC15C0A10FFCB750A4C8B01:
                    0. 0F 50F6 002F 0000:?Release@?$CComObject@VCVideoCaptureTerminal@@@ATL@@UEAAKXZ
                  20BBFFFFFFFF48635004F00FC15C0A20FFCB750F4C8B41:
                    0. 14 F5AF 0034 (!)0000:?
                442450:
                  488BD94C8981F02E0000488981002F0000488B4424:
                    0. 41 CC23 009E 0000:LZX_DecodeInit
                  498BD9492BC14883F8047413B90D000000FF15:
                    0. 00 0000 004A 0000:A_RecordRead
                49:
                  38488BDA418BD0FF15........890333C04883C4205BC3:
                    0. 00 0000 0020 0000:?DoGetWindowStyle@CBaseControlWindow@@QEAAJPEAJJ@Z
                  40488BDAE8........4885C0750F4883FBF07709488B03:
                    0. 0C 3A09 002C 0000:?QueueSample@COutputQueue@@IEAAXPEAUIMediaSample@@@Z
                59:
                  084885DB741290488BCB488B5B08E8........4885DB75:
                    0. 07 CA8A 0027 0000:??1CNodeCache@CBaseList@@QEAA@XZ
                  40837B14007511488D15........B901000000E8:
                    0. 00 0000 004D 0000:AcpisimDecrementIrpCount
                8188000000488BD90FB7500601515C6683B9080100000075:
                  0. 02 79D4 00D4 0000:FDIGetDataBlock
                C1:
                  33DB669066669066BA2E00488BC8FF15........4885C0:
                    0. 1A 83F9 003A 0000:Dns_GetTldForNameW
                  B9:
                    38450000FFD04885C0488BD8742B33D241B838450000:
                      0. 04 D745 0049 0000:NFMdeco_create
                    B02F0000FFD04885C0488BD80F84ED00000033D241B8:
                      0. 08 6766 010F 0000:NFMcomp_create
                CA488BDAFF15........488D4B10FF15........668B4B3E:
                  0. 30 FC5C 005F 0000:?UpdateFormat@CImageDisplay@@QEAAJPEAUtagVIDEOINFO@@@Z
                D9:
                  41B8880000004883C160E8........C783E80000000100:
                    0. 08 A5BE 0028 0000:?SetDIBData@CImageSample@@QEAAXPEAUtagDIBDATA@@@Z
                  4533C94533C033C9FF15........488903488BC34883C4:
                    0. 03 3F06 0023 0000:??0CAMEvent@@QEAA@H@Z
                  48:
                    81C198000000FF15........488D4B:
                      28FF15:
                        0. 0B 1C07 002F 0000:??1CMSPThread@@QEAA@XZ
                      684883C4205B48:
                        0. 02 2886 0026 0000:??1CBaseWindow@@QEAA@XZ
                    83C1:
                      08:
                        E8........:
                          33C04889432048894328488B4424:
                            0. 35 E433 0055 0000:??0CSourceSeeking@@IEAA@PEBGPEAUIUnknown@@PEAJPEAVCCritSec@@@Z
                          48:
                            8B4424504533DB4C895B204C89:
                              0. 2F CB05 004F 0000:??0CSourcePosition@@QEAA@PEBGPEAUIUnknown@@PEAJPEAVCCritSec@@@Z
                            C7432000000000488BC34883C4:
                              0. 03 3F06 0023 (!)0000:?
                        FF15........488D4B3033D2E8........488D:
                          0. 05 7017 0069 0000:??0CCmdQueue@@QEAA@XZ
                      20E8........4885DB7417488D4B084885C9740E:
                        0. 0A 340B 003A (!)0000:?
                    8911488BCAFF15........488BC34883C4205BC3:
                      0. 00 0000 001E (!)0000:?
                    8B:
                      094885C9:
                        74:
                          0D:
                            488B01FF501048C7030000000048:
                              83:
                                0. 04 1875 0024 0000:?ReleaseDirectDraw@CLoadDirectDraw@@QEAAXXZ
                              8B:
                                0. 09 B587 0033 0000:??1CLoadDirectDraw@@QEAA@XZ
                            FF:
                              15........48C703000000004883:
                                0. 04 1875 0024 0000:TimedLock_Cleanup
                              93F82E000048C703000000004883:
                                0. 04 1875 0024 0000:free_decompression_memory
                          0F33D2FF15........48C70300000000:
                            0. 06 59CA 0026 (!)0000:?
                          114883C308E8........488B0B4885C9:
                            0. 08 8914 002C 0000:Argv_Free
                        750833C04883C4205BC3488B01FF500848:
                          0. 08 457A 0028 0000:?GetDirectDraw@CLoadDirectDraw@@QEAAPEAUIDirectDraw@@XZ
                      49:
                        08:
                          48:
                            85C9:
                              74:
                                05E8........488B4B104885C97405:
                                  0. 01 3E9B 0055 0000:??1CWiauPropertyList@@QEAA@XZ
                                0833D2FF15........:
                                  488B4B204885:
                                    0. 04 D23A 00AF 0000:ArbDeleteArbiterInstance
                                  66C703000066:
                                    0. 13 D73A 0033 0000:ArbFreeOrderingList
                              750BB8340204804883C4205BC3488B01:
                                0. 1B D428 003B 0000:?Cancel@CDeferredCommand@@UEAAJXZ
                            8D542430:
                              48C744243000000000E8:
                                0. 0D 2959 005D 0000:?Clone@Image@Gdiplus@@UEAAPEAV12@XZ
                              E8........85C074038943108B44:
                                0. 08 C1C8 0028 0000:?GetPixelFormat@Image@Gdiplus@@QEAAHXZ
                          BAFFFFFFFFFF15........8B43184883C4205B:
                            0. 01 EF04 0021 0000:?GetRequest@CAMThread@@QEAAKXZ
                          E8........85C074098943104883C4205BC333:
                            0. 07 BDF0 0027 0000:?Save@Image@Gdiplus@@QEAA?AW4Status@2@PEAUIStream@@PEBU_GUID@@PEBVEncoderParameters@2@@Z
                        1048:
                          85C974:
                            0DE8........48C743100000000048:
                              0. 08 12F5 0039 0000:??1CWiauFormatConverter@@QEAA@XZ
                            1EFF15........488B4B1033D24C63:
                              0. 02 ABAE 0060 0000:??1CUnicodeString@@QEAA@XZ
                          8B01FF50:
                            2033D23B43180F95C28BC24883C4:
                              0. 03 3F06 0023 0000:?AreWeOutOfSync@CEnumMediaTypes@@AEAAHXZ
                            28:
                              33D23B43180F95C28BC24883C4:
                                0. 03 3F06 0023 0000:?AreWeOutOfSync@CEnumPins@@AEAAHXZ
                              488B4B10894318488B01FF5030:
                                0. 0F 0423 003B 0000:?Reset@CEnumPins@@UEAAJXZ
                                1. 12 13D8 0032 0000:?Refresh@CEnumPins@@AEAAJXZ
                        20:
                          4885C97406488B01FF50104885DB7417488D4B:
                            0. 10 F9FE 0040 0000:??1CMediaPosition@@UEAA@XZ
                          E8........488B43284C8B5B20488943204C89:
                            0. 0A 776E 002A 0000:ArbCommitAllocation
                        28:
                          4885C9:
                            740E488B01FF501048C7432800000000:
                              0. 0A D03D 002E 0000:??1CBaseMediaFilter@@UEAA@XZ
                            750BB8FFFF00804883C4205BC383FA05:
                              0. 18 44F0 0054 0000:?Show@CBasePropertyPage@@UEAAJI@Z
                          E8........488D4B68E8........488D4B0848:
                            0. 05 705F 0029 (!)0000:?
                        58:
                          4885C97406FF15........4883BB8800000000:
                            0. 15 7454 0047 0000:??1CBaseAllocator@@UEAA@XZ
                          E8........488B4B304885C9740E488B01FF50:
                            0. 13 6C91 0037 0000:??1CBaseFilter@@UEAA@XZ
                        78:
                          4885C97405E8........488B03:
                            488BCBFF90E0:
                              0. 0B 4114 002B 0000:?Inactive@CBaseRenderer@@UEAAJXZ
                            BA0100000048:
                              0. 0D A20F 002D 0000:?EndFlush@CBaseRenderer@@UEAAJXZ
                          4C8D4C2438488B014C8D44243033D2FF50284C:
                            0. 3F 592C 005F 0000:?CleanupCancelled@CPullPin@@AEAAXXZ
                      89:
                        18010000FF15........488B8B20010000FF15:
                          0. 00 0000 004B 0000:?BlockOutputPin@CDynamicOutputPin@@IEAAXXZ
                        30010000:
                          33D2488B01FF9098000000488BCB4883:
                            0. 04 40FB 0028 0000:?BreakConnect@CTransformInputPin@@UEAAJXZ
                          488B01FF901801000085C07808488BCB:
                            0. 01 3E9B 002B 0000:?BreakConnect@CRendererInputPin@@UEAAJXZ
                        38010000:
                          4885C974384883BB4001000000742EFF:
                            0. 01 54B7 0058 0000:?Active@CDynamicOutputPin@@UEAAJXZ
                          FF15........48:
                            837B3000750BB80902:
                              0. 1B E841 003B 0000:?DeliverEndFlush@CDynamicOutputPin@@UEAAJXZ
                              1. 18 F515 0038 0000:?DeliverBeginFlush@CDynamicOutputPin@@UEAAJXZ
                            8B8BD8000000C64348:
                              0. 1D 96D5 003D 0000:?Inactive@CDynamicOutputPin@@UEAAJXZ
                        800800004885C97411FF93A843000048C7838008:
                          0. 0C 085D 002C 0000:free_compressed_output_buffer
                        D80000004885C974:
                          0B488B01BA01000000FF5018:
                            0. 20 F77C 005E 0000:??1CTransformFilter@@UEAA@XZ
                          22488B01FF503085C0783748:
                            0. 3C 8F4D 005C 0000:?BreakConnect@CBaseOutputPin@@UEAAJXZ
                        E00000004885C974:
                          11488B01FF501048C783E000:
                            0. 0B C8D0 0046 0000:??1CBaseInputPin@@UEAA@XZ
                          22488B01FF503085C0781A48:
                            0. 1F EFB5 003F 0000:?BreakConnect@CBaseInputPin@@UEAAJXZ
                        E8000000BA01000000488B01FF9098000000488B:
                          0. 07 6708 002B 0000:?BreakConnect@CTransformOutputPin@@UEAAJXZ
                      CAFF15........33C9BA0E0007804885C04889030F:
                        0. 0A 8DCB 002A 0000:WriteBSTR
                      D166B90F00E8........488B8B900000004885C974:
                        0. 53 ACA0 0073 0000:FDIDestroy
                    8D:
                      05........488901488B4910488B41184883C118FF:
                        0. 0C E4B0 0030 0000:??1CEnumPins@@UEAA@XZ
                      0D........E8........:
                        4533DB488D05........44:
                          0. 17 ADE0 0037 0000:??0?$CTapiIfCollection@PEAUITTerminal@@@@QEAA@XZ (REF 001B: ??_7?$CTapiIfCollection@PEAUITTerminal@@@@6B@)
                          1. 17 ADE0 0037 0000:??0?$CTapiIfCollection@PEAUITPluggableTerminalClassInfo@@@@QEAA@XZ (REF 001B: ??_7?$CTapiIfCollection@PEAUITPluggableTerminalClassInfo@@@@6B@)
                          2. 17 ADE0 0037 0000:??0?$CTapiIfCollection@PEAUITStream@@@@QEAA@XZ (REF 001B: ??_7?$CTapiIfCollection@PEAUITStream@@@@6B@)
                          3. 17 ADE0 0037 0000:??0?$CTapiIfCollection@PEAUITPluggableTerminalSuperclassInfo@@@@QEAA@XZ (REF 001B: ??_7?$CTapiIfCollection@PEAUITPluggableTerminalSuperclassInfo@@@@6B@)
                          4. 11 F1D3 003E 0000:??0?$CComObject@V?$CTapiIfCollection@PEAUITStream@@@@@ATL@@QEAA@PEAX@Z (REF 001B: ??_7?$CComObject@V?$CTapiIfCollection@PEAUITStream@@@@@ATL@@6B@)
                          5. 11 F1D3 003E 0000:??0?$CComObject@V?$CTapiIfCollection@PEAUITTerminal@@@@@ATL@@QEAA@PEAX@Z (REF 001B: ??_7?$CComObject@V?$CTapiIfCollection@PEAUITTerminal@@@@@ATL@@6B@)
                          6. 11 F1D3 003E 0000:??0?$CComObject@V?$CTapiIfCollection@PEAUITPluggableTerminalSuperclassInfo@@@@@ATL@@QEAA@PEAX@Z (REF 001B: ??_7?$CComObject@V?$CTapiIfCollection@PEAUITPluggableTerminalSuperclassInfo@@@@@ATL@@6B@)
                          7. 11 F1D3 003E 0000:??0?$CComObject@V?$CTapiIfCollection@PEAUITPluggableTerminalClassInfo@@@@@ATL@@QEAA@PEAX@Z (REF 001B: ??_7?$CComObject@V?$CTapiIfCollection@PEAUITPluggableTerminalClassInfo@@@@@ATL@@6B@)
                        48:
                          85C0740B488BCB4883C4:
                            0. 0D F02A 002D 0000:SQLRemoveDSNFromIni (REF 000C: ??_C@_0BE@IIEGFOOO@SQLRemoveDSNFromIni?$AA@)
                            1. 0D F02A 002D 0000:SQLManageDataSources (REF 000C: ??_C@_0BF@MJGFEIGA@SQLManageDataSources?$AA@)
                            2. 0D F02A 002D 0000:SQLValidDSN (REF 000C: ??_C@_0M@PEFJFIPJ@SQLValidDSN?$AA@)
                            3. 0D F02A 002D 0000:SQLRemoveDriverManager (REF 000C: ??_C@_0BH@GKJNDOJI@SQLRemoveDriverManager?$AA@)
                            4. 0D F02A 002D 0000:SQLGetConfigMode (REF 000C: ??_C@_0BB@KEIIMOKK@SQLGetConfigMode?$AA@)
                            5. 0D F02A 002D 0000:SQLRemoveDSNFromIniW (REF 000C: ??_C@_0BF@LCMAECLC@SQLRemoveDSNFromIniW?$AA@)
                            6. 0D F02A 002D 0000:SQLValidDSNW (REF 000C: ??_C@_0N@DBGPNIHD@SQLValidDSNW?$AA@)
                          8BC34883C4205BC3:
                            0. 00 0000 001E 0000:??0?$IDispatchImpl@UITBasicAudioTerminal@@$1?IID_ITBasicAudioTerminal@@3U_GUID@@B$1?LIBID_TAPI3Lib@@3U3@B$00$0A@VCComTypeInfoHolder@ATL@@@ATL@@QEAA@XZ (REF 000C: ?_tih@?$IDispatchImpl@UITBasicAudioTerminal@@$1?IID_ITBasicAudioTerminal@@3U_GUID@@B$1?LIBID_TAPI3Lib@@3U3@B$00$0A@VCComTypeInfoHolder@ATL@@@ATL@@1VCComTypeInfoHolder@2@A)
                            1. 00 0000 001E 0000:??0?$IDispatchImpl@UITStaticAudioTerminal@@$1?IID_ITStaticAudioTerminal@@3U_GUID@@B$1?LIBID_TAPI3Lib@@3U3@B$00$0A@VCComTypeInfoHolder@ATL@@@ATL@@QEAA@XZ (REF 000C: ?_tih@?$IDispatchImpl@UITStaticAudioTerminal@@$1?IID_ITStaticAudioTerminal@@3U_GUID@@B$1?LIBID_TAPI3Lib@@3U3@B$00$0A@VCComTypeInfoHolder@ATL@@@ATL@@1VCComTypeInfoHolder@2@A)
                            2. 00 0000 001E 0000:??0?$IDispatchImpl@UITStream@@$1?IID_ITStream@@3U_GUID@@B$1?LIBID_TAPI3Lib@@3U3@B$00$0A@VCComTypeInfoHolder@ATL@@@ATL@@QEAA@XZ (REF 000C: ?_tih@?$IDispatchImpl@UITStream@@$1?IID_ITStream@@3U_GUID@@B$1?LIBID_TAPI3Lib@@3U3@B$00$0A@VCComTypeInfoHolder@ATL@@@ATL@@1VCComTypeInfoHolder@2@A)
                            3. 00 0000 001E 0000:??0?$IDispatchImpl@UITCollection@@$1?IID_ITCollection@@3U_GUID@@B$1?LIBID_TAPI3Lib@@3U3@B$00$0A@VCComTypeInfoHolder@ATL@@@ATL@@QEAA@XZ (REF 000C: ?_tih@?$IDispatchImpl@UITCollection@@$1?IID_ITCollection@@3U_GUID@@B$1?LIBID_TAPI3Lib@@3U3@B$00$0A@VCComTypeInfoHolder@ATL@@@ATL@@1VCComTypeInfoHolder@2@A)
                            4. 00 0000 001E 0000:??0?$IDispatchImpl@UITStreamControl@@$1?IID_ITStreamControl@@3U_GUID@@B$1?LIBID_TAPI3Lib@@3U3@B$00$0A@VCComTypeInfoHolder@ATL@@@ATL@@QEAA@XZ (REF 000C: ?_tih@?$IDispatchImpl@UITStreamControl@@$1?IID_ITStreamControl@@3U_GUID@@B$1?LIBID_TAPI3Lib@@3U3@B$00$0A@VCComTypeInfoHolder@ATL@@@ATL@@1VCComTypeInfoHolder@2@A)
                            5. 00 0000 001E 0000:??0?$IDispatchImpl@UITPluggableTerminalClassInfo@@$1?IID_ITPluggableTerminalClassInfo@@3U_GUID@@B$1?LIBID_TAPI3Lib@@3U3@B$00$0A@VCComTypeInfoHolder@ATL@@@ATL@@QEAA@XZ (REF 000C: ?_tih@?$IDispatchImpl@UITPluggableTerminalClassInfo@@$1?IID_ITPluggableTerminalClassInfo@@3U_GUID@@B$1?LIBID_TAPI3Lib@@3U3@B$00$0A@VCComTypeInfoHolder@ATL@@@ATL@@1VCComTypeInfoHolder@2@A)
                            6. 00 0000 001E 0000:??0?$IDispatchImpl@UITPluggableTerminalSuperclassInfo@@$1?IID_ITPluggableTerminalSuperclassInfo@@3U_GUID@@B$1?LIBID_TAPI3Lib@@3U3@B$00$0A@VCComTypeInfoHolder@ATL@@@ATL@@QEAA@XZ (REF 000C: ?_tih@?$IDispatchImpl@UITPluggableTerminalSuperclassInfo@@$1?IID_ITPluggableTerminalSuperclassInfo@@3U_GUID@@B$1?LIBID_TAPI3Lib@@3U3@B$00$0A@VCComTypeInfoHolder@ATL@@@ATL@@1VCComTypeInfoHolder@2@A)
                            7. 00 0000 001E 0000:??0?$IDispatchImpl@UITTerminalSupport2@@$1?IID_ITTerminalSupport2@@3U_GUID@@B$1?LIBID_TAPI3Lib@@3U3@B$00$0A@VCComTypeInfoHolder@ATL@@@ATL@@QEAA@XZ (REF 000C: ?_tih@?$IDispatchImpl@UITTerminalSupport2@@$1?IID_ITTerminalSupport2@@3U_GUID@@B$1?LIBID_TAPI3Lib@@3U3@B$00$0A@VCComTypeInfoHolder@ATL@@@ATL@@1VCComTypeInfoHolder@2@A)
                      4C2448FF15........85C07832488D542438488D4C:
                        0. 04 3979 005A 0000:NetpGetElapsedSeconds
                      542438488D4C2430FF15........483B5C24307607:
                        0. 09 8AC6 0074 0000:DDKExtCheckOnStack
                    C781B801000018FCFFFFFF15........8983D8010000:
                      0. 87 E6D9 00A7 0000:?ResetStreamingTimes@CBaseVideoRenderer@@UEAAJXZ
                  4C:
                    0F20C03C01770D488D0D........FF15........4C0F:
                      0. 2F FF72 004F 0000:AcquireLListLock
                    8BC1488B0D........41B900010000FF15........85:
                      0. 04 AA6C 0033 0000:?StringFromResource@@YAPEAGPEAGH@Z (REF 001B: __imp_LoadStringW)
                      1. 04 AA6C 0033 0000:?StringFromResource@@YAPEADPEADH@Z (REF 001B: __imp_LoadStringA)
                  66:
                    669066666690488B:
                      4B484885C9741B488B4128FF4B50:
                        0. 31 DA96 0066 0000:?ReallyFree@CMemAllocator@@IEAAXXZ
                      CBE8........85C0742EFFC87416:
                        0. 0A 9166 00B8 0000:?ThreadProc@CPullPin@@EEAAKXZ
                    B90400E8........4885C04C8BD875064883C4205BC3:
                      0. 10 D513 0030 0000:ARecordCopy
                      1. 10 DE8F 0030 0000:ARpcRecordConvert
                  89511C488B4908FF15........488B4B104883C4205B48:
                    0. 02 2886 0026 0000:?Reply@CAMThread@@QEAAXK@Z
                  8B:
                    49:
                      084C63D28D41FF443BD074:
                        234C8B0B412BCA418D42:
                          0. 16 72F5 0048 (!)0000:?
                        2C4C8B0B412BCA418D42:
                          0. 1F A026 0051 0000:?RemoveAt@?$CMSPArray@U_THREADPOOLWAITBLOCK@CMSPCallMultiGraph@@$07$07@@QEAAHH@Z
                      784533C085C97E1E4C8B8B80000000498BC1666690:
                        0. 25 45A8 0099 0000:?RemovePin@CSource@@QEAAJPEAVCSourceStream@@@Z
                    892801000085C97410FF15........C7832801000000:
                      0. 09 318C 0029 0000:?ResetEndOfStreamTimer@CBaseRenderer@@QEAAXXZ
                  B9:
                    00980000FF93A04300004885C0488983800800007506:
                      0. 25 7882 0045 0000:init_compressed_output_buffer
                    1C000000E8........4885C04C8BD875118D4808FF15:
                      0. 00 0000 0041 0000:ADnsRecordConvert
                  BA0001000041B84172624CB901000000FF15........66:
                    0. 2A 4FCC 004A 0000:ArbInitializeOrderingList
                  C701000000004883C108FF15........488BC34883C420:
                    0. 02 8FCC 0022 0000:??0?$CComObjectRootEx@VCComMultiThreadModel@ATL@@@ATL@@QEAA@XZ
                  E8........:
                    33:
                      C0:
                        3943300F94C04883C4205BC3:
                          0. 00 0000 001C 0000:LZX_EncodeFlush
                        4C8D1D........48894378488983A000:
                          0. 18 E350 0038 0000:??0CPullPin@@QEAA@XZ
                      D2488BCB4883C4205B48FF25:
                        0. 00 0000 001F 0000:DDK_ExFreePool
                    440FB65C245844889BE8000000488BC34883:
                      0. 04 1875 0024 0000:??0CTransInPlaceFilter@@QEAA@PEAGPEAUIUnknown@@AEBU_GUID@@PEAJ_N@Z (REF 000A: ??0CTransformFilter@@QEAA@PEAGPEAUIUnknown@@AEBU_GUID@@@Z)
                      1. 04 1875 0024 0000:??0CTransInPlaceFilter@@QEAA@PEADPEAUIUnknown@@AEBU_GUID@@PEAJ_N@Z (REF 000A: ??0CTransformFilter@@QEAA@PEADPEAUIUnknown@@AEBU_GUID@@@Z)
                    48:
                      8B:
                        83580100000FB6938C0100004533DB48:
                          0. 1D 5A20 0041 0000:DComp_Reset
                        C34883C4205BC3:
                          0. 00 0000 0017 0000:??0?$CGenericList@UIMediaSample@@@@QEAA@PEAGHHH@Z (REF 000A: ??0CBaseList@@QEAA@PEAGH@Z)
                          1. 00 0000 0017 0000:memmoveInternal (REF 000A: memmove)
                          2. 00 0000 0017 (!)0000:? (REF 000A: ??0CBaseList@@QEAA@PEAG@Z)
                        CB:
                          4883C4205BE9:
                            0. 00 0000 001B 0000:auxReshapeFunc
                          E8........488BCBE8........C783:
                            0. 0E 261E 002E 0000:LZX_DecodeNewGroup
                      8D05........48894318488D05:
                        0. 03 C992 0067 0000:??0CVideoTransformFilter@@QEAA@PEAGPEAUIUnknown@@AEBU_GUID@@@Z
                      C703000000004883C4205BC3:
                        0. 00 0000 001B 0000:?RelinquishCryptCtx@CSCLogonInit@@QEAA_KPEAULogonInfo@@@Z
                    4C8D1D........4C891BF0FF05........48:
                      0. 08 5E3B 0028 0000:??0?$CComObject@VCPTEventSink@@@ATL@@QEAA@PEAX@Z
                    803B5AB9040000000F4FC14883C4205BC3:
                      0. 00 0000 001F 0000:RxpGetFieldSizeDl
                    83:
                      BB9C00000000750689839C00000083BBA4:
                        0. 1A 6F36 0083 0000:Dns_EnlistSecurityContext
                      E33F0BC38BC84883C4205BE9:
                        0. 00 0000 001F 0000:_set_statfp
                  FF15........:
                    2B83D80100008983D801000033C04883C4:
                      0. 03 3F06 0023 0000:?OnStopStreaming@CBaseVideoRenderer@@UEAAJXZ
                    33D2488BCBE8........488BC34883C420:
                      0. 02 8FCC 0022 0000:??0CImageDisplay@@QEAA@XZ
                    3943087515FF4B0C7510488B0BC7430800:
                      0. 05 9B77 002F 0000:TimedLock_Leave
                    48:
                      837B4000:
                        7406837B6C007406837B6800:
                          0. 07 7859 0047 0000:?IsIdle@COutputQueue@@QEAAHXZ
                        7552837B380074264C8D4C24:
                          0. 14 F65A 00AF 0000:?EOS@COutputQueue@@QEAAXXZ
                      8BC34883C4205BC3:
                        0. 00 0000 0018 (!)0000:? (REF 000B: __imp_InitializeCriticalSection)
                        1. 00 0000 0018 0000:??0CComVariant@ATL@@QEAA@XZ (REF 000B: __imp_VariantInit)
                      8D4B28FF15........488D8B98000000:
                        0. 02 ABB7 004E 0000:??0CMSPThread@@QEAA@XZ
                    807B7800742D837B7400742748837B4000:
                      0. 1E 2724 0096 0000:?EndFlush@COutputQueue@@QEAAXXZ
                    8B8B74010000448BD88D1409442B9B7C01:
                      0. 5A 4C1E 008C 0000:?OnRenderEnd@CBaseVideoRenderer@@UEAAXPEAUIMediaSample@@@Z
                DA:
                  488BD141B80E000000488BCBFF15........488BCB66C7:
                    0. 0C 426E 0030 0000:NetpGenerateDefaultPassword
                  E8........833D........00740D488BCB4883C4205BE9:
                    0. 00 0000 002C 0000:?PerflogInitIfEnabled@@YAHPEAUHINSTANCE__@@PEAU_PERFLOG_LOGGING_PARAMS@@@Z
              8D:
                05........48:
                  8BD9488901:
                    48:
                      8B49104885C97406488B01FF:
                        0. 0D 8140 0037 0000:??1_com_error@@UEAA@XZ
                      8D:
                        05........48894118:
                          488D:
                            0. 01 D5A7 0048 0000:??1CTransformOutputPin@@UEAA@XZ (0022: E9)
                            1. 01 D5A7 0088 0000:??1CDynamicOutputPin@@UEAA@XZ (0022: FF)
                          8B49:
                            0. 07 B3BB 00A7 0000:??1CBaseReferenceClock@@MEAA@XZ
                        0D........E8........48:
                          0. 08 5E3B 0028 0000:??0?$IDispatchImpl@V?$ITTerminalVtblBase@VCBaseTerminal@@@@$1?IID_ITTerminal@@3U_GUID@@B$1?LIBID_TAPI3Lib@@3U3@B$00$0A@VCComTypeInfoHolder@ATL@@@ATL@@QEAA@XZ
                    8B4208894108488B421048C741:
                      0. 20 1DA4 0040 0000:??0_com_error@@QEAA@AEBV0@@Z
                  8D5908488901488B4920488D05........48:
                    0. 26 62F6 0056 0000:??1CSeekingPassThru@@UEAA@XZ
                0D........FF15........4885C0488BD80F842E01000048:
                  0. 02 DF74 0167 0000:?InitializeSwitch@@YAHXZ
                15........B904000000498BD8E8........4533C033D248:
                  0. 04 758A 0044 0000:AcpisimCompletionRoutine
              FF4168488B5968488B42104C8D590848895A084C8BD14D8B03:
                0. 37 623F 0064 0000:?AddAdvisePacket@CAMSchedule@@AEAA_KPEAVCAdvisePacket@1@@Z
            4C:
              8BC94C8BDA488BD94C2BCA4C8BC26666669066669066666690:
                0. 1C 5EF6 0071 0000:__lc_lctostr
              8D81A8390000488D918825000041B900010000488BD9E8:
                0. 00 0000 0071 0000:encode_trees
            4D85C0:
              48:
                8BD9743B6690440FB70A4883C1024883C202664585C9:
                  0. 25 FD7C 0052 0000:wcsncpy
                8D05........488BD98951084C89411048C741180000:
                  0. 1E 4769 003E 0000:??0_com_error@@QEAA@JPEAUIErrorInfo@@_N@Z
              4C8BD1750BB8034000804883C4205BC333C9488D1D:
                0. 00 0000 009E 0000:?NonDelegatingQueryInterface@CPosPassThru@@UEAAJAEBU_GUID@@PEAPEAX@Z
              4D8BD0750BB8034000804883C4205BC34533C0488D1D:
                0. 00 0000 008F 0000:?QueryInterface@CClassFactory@@UEAAJAEBU_GUID@@PEAPEAX@Z
            66:
              BA:
                01000FB7D9E8........85C00FB7C3740383C0204883C420:
                  0. 02 8FCC 0022 0000:towlower
                2E00488BD9FF15........4885C0740F4883C00266833800:
                  0. 1B F888 003B 0000:Dns_SplitHostFromDomainNameW
              F7C100FF0FB7D97545833D........017E0F0FB6CBBA040000:
                0. 02 0164 007A (l)0000:_hextodec
            803D........00743D488D0D........FF15........84C0752C:
              0. 03 29E1 0052 0000:DDKExtPoolClearList
            81:
              39:
                4C:
                  434943488BD9740BB8020000004883C4205BC3488B4920:
                    0. 01 3E9B 0040 0000:LCIDestroyCompression
                  444943488BD9740BB8020000004883C4205BC3488B4948:
                    0. 01 3E9B 0040 0000:LDIDestroyDecompression
                4D444943488BD9740BB8020000004883C4205BC3488B5108:
                  0. 0B 0D00 003D 0000:MDIDestroyDecompression
                51444943488BD9740BB8020000004883C4205BC3E8:
                  0. 00 0000 0035 0000:QDIDestroyDecompression
              F9FFFF00008BD9771683C118E8........4885C075118D4808:
                0. 02 ABB7 0037 0000:Rpc_AllocateRecord
            83:
              3D........:
                00:
                  488BD9:
                    74:
                      11488D15........B902000800E8:
                        0. 00 0000 00D8 0000:?FreeEventInfo@@YAJPEAU__MIDL___MIDL_itf_msp_0000_0005@@@Z (l)003F:$LN16 (l)004E:$LN15 (l)0054:$LN10 (l)0084:$LN3 (l)0093:$LN2 (0037: 10)
                        1. 00 0000 0076 0000:?FinalRelease@CMSPStream@@UEAAXXZ (000C: 4B)
                        2. 00 0000 006D (!)0000:? (0006: 20)
                        3. 00 0000 006D 0000:?FinalRelease@CTapiBstrCollection@@QEAAXXZ (0006: 30)
                        4. 00 0000 0058 0000:?StartStream@CMSPStream@@UEAAJXZ (000C: 38)
                        5. 00 0000 0058 0000:?PauseStream@CMSPStream@@UEAAJXZ (000C: 40)
                        6. 00 0000 0058 0000:?StopStream@CMSPStream@@UEAAJXZ (0037: C3)
                      18440FB6CA4C8BC1488D15:
                        0. 06 D5E8 003F 0000:?DispatchGraphEvent@CMSPCallMultiGraph@@SAXPEAXE@Z
                      648B15........488D0D........E8:
                        0. 00 0000 007E 0000:ReleaseStaticEntries
                    75:
                      11E8........85C0740833C04883C4:
                        0. 06 59E5 0039 0000:GetDTCStatusW (REF 0026: ??_C@_1M@MLKMMDOA@?$AAM?$AAS?$AAD?$AAT?$AAC?$AA?$AA@)
                        1. 06 59E5 0039 0000:GetDTCStatusA (REF 0026: ??_C@_05CGNPKHDF@MSDTC?$AA@)
                      14E8........85C0740BB805400080:
                        0. 09 C755 003C 0000:StartDTCW (REF 0038: ?pfnMtxCluBringOnlineDTCW@@3P6AJPEAG0@ZEA)
                        1. 09 C755 003C 0000:StartDTCA (REF 0038: ?pfnMtxCluBringOnlineDTCA@@3P6AJPEAD0@ZEA)
                        2. 09 C755 003C 0000:StopDTCW (REF 0038: ?pfnMtxCluTakeOfflineDTCW@@3P6AJPEAG0@ZEA)
                        3. 09 C755 003C 0000:StopDTCA (REF 0038: ?pfnMtxCluTakeOfflineDTCA@@3P6AJPEAD0@ZEA)
                  498BD87411488D15........B902000800E8:
                    0. 00 0000 004B 0000:?GetNumExposedPins@CSingleFilterTerminal@@UEAAJPEAUIGraphBuilder@@PEAK@Z
                  7450488D0D........FF15........8305:
                    0. 00 0000 0065 0000:NetSetuppCloseLog
                018BD97E0CBA:
                  01000000E8........EB1D83F9FF:
                    0. 10 D67B 0049 0000:tolower
                  03010000E8........EB2083F9FF:
                    0. 10 D67B 0057 0000:__iscsymf
                  04000000E8........EB1D83F9FF:
                    0. 10 D67B 0052 (l)0000:_hextodec
                  07010000E8........EB2083F9FF:
                    0. 10 D67B 0057 0000:__iscsym
              4110FF488BD975194883C108E8........488BCBE8:
                0. 11 187C 0031 0000:?Release@CClassFactory@@UEAAKXZ
              79:
                0C00488BD97E17488B09FF15........4533DB4C891B4489:
                  0. 0C 6011 002C (!)0000:?
                2800488BD974364883B9A800000000C781B0000000010000:
                  0. 0C D60C 004D 0000:?EndOfStream@CBaseRenderer@@UEAAJXZ
                3800488BD9760F90488BCBE8........837B380077F2488B:
                  0. 07 6708 002B 0000:flush_all_pending_blocks
                4400488BD9750BB8FFFF00804883C4205BC3488379200074:
                  0. 29 A558 0049 0000:?Apply@CBasePropertyPage@@UEAAJXZ
                4800488BD974:
                  19488B4950FF15........C7434800000000:
                    0. 25 705D 0045 (!)0000:?
                  1B488B4950FF15........4533DB4C895B50:
                    0. 1B A55F 003B 0000:?ResetFormatBuffer@CMediaType@@QEAAXXZ
                7800488D05........488BD9488901488D05........4889:
                  0. 05 C588 0070 0000:??1CSource@@UEAA@XZ
              B9:
                9000000000488BD9488951107438488BCAFF15........48:
                  0. 08 7340 0056 0000:?InitialiseWindow@CBaseWindow@@UEAAJPEAUHWND__@@@Z
                9808000000488BD97633E8........448B8388080000442B:
                  0. 48 0648 0068 0000:perform_flush_output_callback
              F9:
                01488BDA7413B90D000000FF15........33C04883C4205B:
                  0. 06 D153 0042 0000:Ptr_RecordBuildW (001B: C3)
                02488BDA:
                  7313B90D000000FF15........33C04883C4205B:
                    0. 09 EDF0 0045 0000:Nxt_RecordBuildW
                  7413B90D000000FF15........33C04883C4205B:
                    0. 06 8610 004A 0000:Minfo_RecordBuildW (0023: C3)
                03488BDA763783F90475328B028D0C40C1E1028D4118413B:
                  0. 1A 9A1E 004D 0000:Convert32bitResDesTo64bitResDes
              FAFF458BD0750B658A0425840100000FB6D08BC24D8BC1418B:
                0. 0B 29AC 003B 0000:rc4_safe_key_np
            85:
              C98BD9:
                741681F9230000C07F21741481F9250000800F856001:
                  0. 3B B45E 02FD 0000:NetpNtStatusToApiStatus (l)0075:$LN28 (l)0080:$LN27 (l)008B:$LN26 (l)0096:$LN25 (l)00A1:$LN24 (l)00AC:$LN22 (l)00B7:$LN21 (l)00C2:$LN20 (l)00CD:$LN19 (l)00D8:$LN17 (l)00E3:$LN16 (l)00EE:$LN15 (l)00F9:$LN14 (l)0104:$LN13 (l)010F:$LN12 (l)011A:$LN11 (l)0125:$LN10 (l)0130:$LN9 (l)013B:$LN8 (l)0146:$LN7 (l)0151:$LN6 (l)015C:$LN4 (l)0167:$LN18 (l)0182:$LN2
                7508390D........753B488D0D........C705:
                  0. 00 0000 0063 0000:Dns_StartSecurity
              D2488BD9:
                7415488D05........48894110C781980200000000:
                  0. 05 70A1 005D 0000:??0CSingleFilterTerminal@@QEAA@XZ
                75038B5134488B09:
                  4D63:
                    C0FF15........4885C074:
                      0. 0D B257 002D 0000:Dns_HeapAllocEx
                    C9FF15........4885C074:
                      0. 0D C438 002D 0000:Dns_HeapReallocEx
                  FF15........FF434883434CFF:
                    0. 06 59CA 0026 0000:Dns_HeapFreeEx
            8A91:
              0A010000488BD983E20F7462FFCA7453FFCA7444FFCA741C:
                0. 10 D970 008F 0000:MDIDestroyDecompressionGlobal
                1. 10 F87D 0081 0000:MDIResetDecompressionGlobal
              A4020000488BD983E20F7470FFCA744783EA02741D83FA0C:
                0. 0E E439 008F 0000:MCIResetCompressionGlobal
            8B:
              05........488BD985C07417488D15........B902000800E8:
                0. 00 0000 00AF 0000:?RemoveFiltersFromGraph@CSingleFilterTerminal@@UEAAJXZ
              41184C8D4118488BD9A90000F801746533C9A9000020017407:
                0. 4A D351 009F (l)0000:TypeParseDeviceName
              51:
                20488BD9C741080010000085D27415488B49704C8BCA4C8B:
                  0. 27 2DCB 0047 0000:?ExecuteStart@CBaseStreamControl@@AEAAXXZ
                248B410C488BD985D2894108741A488B49704885C9741148:
                  0. 32 2D85 0052 0000:?ExecuteStop@CBaseStreamControl@@AEAAXXZ
                60488BD985D27414488B49584533C0FF15........C74360:
                  0. 0A AE5E 002A 0000:?NotifySample@CBaseAllocator@@QEAAXXZ
                6C488BD985D27414488B49484533C0FF15........C7436C:
                  0. 0A AE5E 002A 0000:?NotifyThread@COutputQueue@@IEAAXXZ
              917804000041B800800000488BD92B91784300000311E8:
                0. 00 0000 0036 0000:encoder_start
              D9:
                488D0D........FF15........48833D........FF751348:
                  0. 02 8543 004C 0000:getDefaultCredentialsHandle
                8D0C8D04000000E8........4885C075064883C4205BC389:
                  0. 07 83DA 0027 0000:Dns_CreateIpArray
                C1E1:
                  0483C108E8........4885C075064883C4205BC38918:
                    0. 06 59CA 0026 0000:Ip6Array_Create
                  0683C120E8........4885C075064883C4205BC38918:
                    0. 06 59CA 0026 0000:DnsAddrArray_Create
            8D42020FB7D2488BD966C70100006689410241B850705563B901:
              0. 09 0C0A 0046 0000:CmpRegUtilAllocateUnicodeString
            BA01000000488BD94533C9448BC233C9FF15........4885C048:
              0. 0E 0C79 003E 0000:?Initialize@CDynamicOutputPin@@AEAAJXZ
            BBFFFFFFFFF00FC159:
              08FFCB75144885C9740F488D05:
                0. 04 DDED 0030 0000:?Release@CImageStream@@UEAAKXZ
              18FFCB750D4885C974088D5301E8:
                0. 00 0000 0029 0000:?Release@?$CComObject@VCPlugTerminalClassInfo@@@ATL@@UEAAKXZ
              1CFFCB750F4885C9740A4C8B018D530141:
                0. 0B 2A93 002B (!)0000:?
            C741:
              0800000000488BD9488B4910488B01FF502089431833C048:
                0. 05 28D1 0025 0000:?Reset@CEnumMediaTypes@@UEAAJXZ
              3001000000488D05........488BD9488901F0FF0D:
                0. 00 0000 004F 0000:??1?$CComObject@V?$CComEnum@UIEnumTerminalClass@@$1?IID_IEnumTerminalClass@@3U_GUID@@BU3@V?$_Copy@U_GUID@@@ATL@@VCComMultiThreadModel@5@@ATL@@@ATL@@QEAA@XZ
            E8........:
              488D0D........8BD08BD8E8........8BC34883C4:
                0. 03 3F06 0023 0000:NetpLsaOpenSecret (REF 000E: ??_C@_0CC@JDMPCOAA@NetpLsaOpenSecret?3?5status?3?50x?$CFlx@)
                1. 03 3F06 0023 0000:NetpLsaOpenSecret2 (REF 000E: ??_C@_0CD@LHAKMOLD@NetpLsaOpenSecret2?3?5status?3?50x?$CFl@)
              8BD8:
                83E33FE8........8BC34883C4205BC3:
                  0. 00 0000 001D 0000:_clrfp
                E8........33C0F6C33F7433F6C301B9100000:
                  0. 32 D1C3 0052 0000:_clearfp
            F0FF49:
              10753FFF4110488B41F8488D59F833D2488BCBFF50184C:
                0. 4B 7D00 006B 0000:?NonDelegatingRelease@CBasePropertyPage@@UEAAKXZ
              5083795000488BD90F85A0000000488B49084885C97408:
                0. 04 BA17 00BD 0000:ArbDereferenceArbiterInstance
            F2440F2CC1488BD94883C108488D15........48890BF2410F2A:
              0. 09 0179 0041 0000:??0CDisp@@QEAA@N@Z
            F6:
              41:
                0808488BDA750E33C948890A8D41014883C4205BC3488B49:
                  0. 02 F6B7 003E 0000:?GetMediaType@CMediaSample@@UEAAJPEAPEAU_AMMediaType@@@Z
                18:
                  024C8D4118488BD9742C488B01488D5110810802200000:
                    0. 13 B0DC 0047 (l)0000:TypeParseOptSlash
                  044C8D4118488BD97424448B4B1C488D5110488B491041:
                    0. 0B BBF8 003F (l)0000:TypeParseOptColon
                2802488BD97409488B4910E8........48837B0800740A48:
                  0. 0F A023 002F 0000:??1?$CComEnumImpl@UIEnumTerminalClass@@$1?IID_IEnumTerminalClass@@3U_GUID@@BU3@V?$_Copy@U_GUID@@@ATL@@@ATL@@QEAA@XZ
              421840498BD8741048837A1000750941FF004883C4205BC3:
                E8:
                  0. 00 0000 003E (l)0000:write_char
                FF:
                  0. 15 396E 004E (l)0000:write_char
              C201488D05........488BD948890174:
                05E8........488BC3:
                  0. 06 59CA 0026 0000:??_GCImageStream@@QEAAPEAXI@Z
                06FF15........488B:
                  0. 07 D358 0027 0000:??_GCUnknown@@UEAAPEAXI@Z
            FF4114488BD9FF15........4885C075108B532C448B43288B4B:
              0. 0D 7A48 002D (!)0000:?
          30:
            32DB4885C94C8BD2751CBA0100000044894C24204D8BC8498BCA:
              0. 06 5C3D 009D 0000:DDKExtVCurrentIrpStack
            33DB4885C9:
              740D8BC38139:
                016215080F94C0EB028BC385C0750B:
                  0. 0E 4AD0 0045 0000:CM_Free_Log_Conf_Handle (l)0032:$Clean0$54668 (l)0034:$LN7
                026215080F94C0EB028BC385C0750B:
                  0. 0E E7D5 0045 0000:CM_Free_Res_Des_Handle (l)0032:$Clean0$54935 (l)0034:$LN7
              75048BC3EB0C8BC3817910036215080F94C085C075:
                0. 0D B0CA 0044 0000:CM_Free_Resource_Conflict_Handle (l)0031:$Clean0$54673 (l)0033:$LN7
            418B41084D85C04C8BDA89442428418B4104458B09488BD94C8D:
              0. 01 54B7 0042 0000:DnsPrint_EnvarInfo
            44:
              0101488B442468488B49084D8BD14C8D4C2450488944242041:
                0. 21 E874 0058 0000:WriteCount
              8B:
                02488BD9418BC0458BD0C1E81041C1EA180FB6D0418BC044:
                  0. 0E A857 004D 0000:Dns_Ip4AddressToString_W (001C: 30)
                  1. 0E A857 004B 0000:Dns_Ip4AddressToString_A (001C: C3)
                41348B51304C8BD14183F80173488B592066669066666690:
                  0. D8 1A55 013C (l)0000:InflateBlock
                493C448B4138488D4424484889442428488D44244033D248:
                  0. 0F AEAD 0150 0000:output_block
                4C24608B02488BD94183F902755783F810730FB810000000:
                  0. 31 20B3 0099 0000:Dns_AddressToString_A (l)0020:$Failed$51989
            458B50144C8BDA488BD941C1EA034C8D0D........4183E20341:
              0. 20 7011 0054 0000:MxRecordPrint
            48:
              85:
                C9:
                  0F84B50000004885D20F84AC0000004183F8010F8CA200:
                    0. 20 4467 0122 0000:?wiauStrC2W@@YAJPEADPEAGH@Z (l)011C:$Cleanup$72377
                  488BDA0F84910000004885D20F84880000000FB701488D:
                    0. 4E 2875 00AE 0000:NetpSystemTimeToGmtTime
                D2488B:
                  D9:
                    745C488B014C8D4C24504C8D442448FF90B00000:
                      0. 10 7715 0078 0000:?ScheduleSample@CBaseVideoRenderer@@UEAAHPEAUIMediaSample@@@Z
                    750833C04883C4305BC3488B014C8D4C24504C8D:
                      0. 18 810D 007D 0000:?ScheduleSample@CBaseRenderer@@UEAAHPEAUIMediaSample@@@Z
                  DA750BB8034000804883C4305BC3488B81F0000000:
                    0. 22 E8BC 0056 0000:?get_Left@CBaseControlWindow@@UEAAJPEAJ@Z (0008: 20)
                    1. 22 E8BC 0056 0000:?get_Top@CBaseControlWindow@@UEAAJPEAJ@Z (0008: 24)
                    2. 22 E8BC 005B 0000:?get_Width@CBaseControlWindow@@UEAAJPEAJ@Z (0008: 28)
                    3. 22 E8BC 005B 0000:?get_Height@CBaseControlWindow@@UEAAJPEAJ@Z (0008: 2C)
              89542448488B4240488BD94C8D842448100000488D54242048:
                0. 10 31FB 00EC 0000:DpcStackRoutine
              8B:
                05........48894424:
                  2033DB4C8BD24C8BD948891C244889:
                    0. 3A 8E89 0111 0000:strtok
                  284D8BD94863DA66C7042400004C8D:
                    0. 97 9296 00C1 (l)0000:make_code
                41E04883C1E0FF50404885C0488BD875098D43014883C430:
                  0. 06 278B 0084 0000:?Register@CBaseFilter@@UEAAJXZ
                442468488BD94889442428488B4424604889442420E8:
                  0. 00 0000 0067 0000:??0CRenderedInputPin@@QEAA@PEAGPEAVCBaseFilter@@PEAVCCritSec@@PEAJPEBG@Z (REF 001E: ??0CBaseInputPin@@QEAA@PEAGPEAVCBaseFilter@@PEAVCCritSec@@PEAJPEBG@Z)
                  1. 00 0000 0067 0000:??0CRenderedInputPin@@QEAA@PEADPEAVCBaseFilter@@PEAVCCritSec@@PEAJPEBG@Z (REF 001E: ??0CBaseInputPin@@QEAA@PEADPEAVCBaseFilter@@PEAVCCritSec@@PEAJPEBG@Z)
                C2488BD933C948894C24504885DB750BB803000000894424:
                  0. 10 5B9D 0099 0000:CM_Is_Dock_Station_Present_Ex (l)0056:$LN13 (l)0061:$Clean0$54534 (l)0063:$LN9 (l)0080:CM_Is_Dock_Station_Present_Ex$filt$0 (l)0089:$LN12 (l)0093:$LN14
                D948:
                  8911FF15........4C8B03894424284C8D0D:
                    0. 03 E07D 0041 0000:??0CWiauDbgFn@@QEAA@PEBD@Z
                  8B:
                    09488B43204C8B114C8B4B18448B4310488B530848:
                      0. 4E C95E 007A 0000:?AsyncMultiGraphEvent@@YAKPEAX@Z
                    0D........E8........85C075064883C4305BC348:
                      0. 02 C6BC 004A (l)0000:DoConfigBox
                    4948660F7F742420F20F10F1FF15........:
                      488B4B:
                        0. 08 4B28 0044 0000:?put_Rate@CSourcePosition@@UEAAJN@Z
                      F20F59:
                        0. 01 5696 0050 0000:?put_CurrentPosition@CSourcePosition@@UEAAJN@Z (002B: 90)
                        1. 01 5696 0050 0000:?put_StopTime@CSourcePosition@@UEAAJN@Z (002B: 98)
                  C744242000000000E8........488D05........4C8D:
                    0. 01 1C3B 0051 0000:??0CSystemClock@@QEAA@PEAGPEAUIUnknown@@PEAJ@Z
                DA488BD14C2BC34983F8107D0833C04883C4305BC30FB641:
                  0. 1A 20E6 0052 0000:A_StringWrite
              8D:
                411C458BC8448B4108488944242888542420488B5110488B:
                  0. 06 BA7D 0033 0000:ScsiPortWmiPostProcess
                44244833DB4C8D0D........4889442428488D05:
                  0. 03 E07D 008D 0000:DNS_RPC_HANDLE_bind
            498B:
              012BD1488BD9895424408B5014418B4114C1EA0389442428:
                0. 10 8027 004D 0000:WriteRecordDataNameToString
              C0488BD948C7442458000000004885C9750BB80300000089:
                0. 1F C38C 00A9 0000:CM_Get_Global_State_Ex (l)0068:$LN14 (l)0073:$Clean0$54664 (l)0075:$LN10 (l)0090:CM_Get_Global_State_Ex$filt$0 (l)0099:$LN13 (l)00A3:$LN15 (REF 005E: PNP_GetGlobalState)
                1. 1F C38C 00A9 0000:CM_Unregister_Device_Interface_ExW (l)0068:$LN14 (l)0073:$Clean0$55479 (l)0075:$LN10 (l)0090:CM_Unregister_Device_Interface_ExW$filt$0 (l)0099:$LN13 (l)00A3:$LN15 (REF 005E: PNP_UnregisterDeviceClassAssociation)
                2. 1F C38C 00A9 0000:CMP_GetServerSideDeviceInstallFlags (l)0068:$LN14 (l)0073:$Clean0$54880 (l)0075:$LN10 (l)0090:CMP_GetServerSideDeviceInstallFlags$filt$0 (l)0099:$LN13 (l)00A3:$LN15 (REF 005E: PNP_GetServerSideDeviceInstallFlags)
            4C8B:
              1133C0488BD94C3B12750E4C8B51084C3B520875048BC8EB:
                0. 6E 1CD0 00A9 0000:??9CMediaType@@QEBAHAEBV0@@Z
              4110488B5108488B09488D44244033DB4889442428448D4B:
                0. 0B D29D 007D 0000:Dns_ImpersonateUser
              5120498B01442BC244894424408B4814418B4114C1E90348:
                0. 1C 6F02 0059 0000:Ptr_StringWrite
              542460410FB6D84C8B442478418B02440FB6DA488BD14189:
                0. 68 BDBA 00A9 0000:ScsiPortWmiFireLogicalUnitEvent
              D24C8BD933C949390B7513498BCBE8........8BC8894424:
                0. 2C 59D5 016E 0000:AddRange (l)015E:$Clean0$55053 (l)0160:$LN24
            4D:
              85C0418BD94D8BD0488BC27511488B4A08E8........4885C0:
                0. 1E CE40 007A 0000:ScHelperGetProvParam
              8BD04C8B4424604C8BDA4D85C0488BD975234D85D24C8D05:
                0. 00 0000 005A 0000:DnsPrint_Ip4Array
            660F124908660F1201660F125110660F7F742420488BD9F20F59:
              0. 12 9A09 00D8 0000:normalize
            803D........00488BD974:
              27833D........00741E458BC8488D:
                0. 01 D5A7 004A 0000:DDK_IoGetNextIrpStackLocation (0021: E8)
                1. 01 D5A7 004A 0000:DDK_IoMarkIrpPending (0022: 01)
                2. 01 D5A7 004A 0000:DDK_IoSkipCurrentIrpStackLocation (0021: 00)
                3. 01 D5A7 004A 0000:DDK_IoSetNextIrpStackLocation (0022: B8)
              34833D........00742B458BC8488D:
                0. 01 D5A7 0053 0000:DDK_IoGetCurrentIrpStackLocation
            81394D444943488BD9740BB8020000004883C4305BC38B49108D:
              0. 1B B03F 0066 0000:MDIDecompress
            8B:
              41144533C94D8BD04C8B41204C8BDA24183C08498BD2498BCB:
                0. 14 5A9E 0054 0000:Ptr_RecordWrite
              4424684D8BD04C8BC289442428488B442460498BD248894424:
                0. 05 A69A 0046 0000:??0CImageSample@@QEAA@PEAVCBaseAllocator@@PEAGPEAJPEAEJ@Z
              C244:
                0FB6D2488BD9C1E8084489542428440FB6C08BC2C1EA18:
                  0. 0E 1C7C 0049 0000:Dns_Ip4AddressToReverseName_W (0018: 30)
                  1. 0E 1C7C 0047 0000:Dns_Ip4AddressToReverseName_A (0018: C3)
                8BDA440FB6C2C1E81041C1EB18488BD9440FB6D08BC244:
                  0. 0A 73EC 0049 0000:Dns_SafeInetNtoa
            BB3200000048C7442450000000004C8D44245033D2E8:
              0. 2A A089 00B9 0000:CMP_WaitServicesAvailable (l)0056:$LN19 (l)007F:$Clean0$54804 (l)008E:$LN15 (l)00A0:CMP_WaitServicesAvailable$filt$0 (l)00A9:$LN18 (l)00B3:$LN20
          40:
            33DB4885C90F84B40000004885D20F84AB0000004183F8010F8C:
              0. 25 F239 011B 0000:?wiauStrW2C@@YAJPEAGPEADH@Z (l)00BF:$Cleanup$72353
            48:
              63C1488D4C2458488BDA4889442458FF15........4885C04C:
                0. 24 5F7F 0078 0000:Dns_SigTimeString (l)0029:$Cleanup$52219
              81FAFFFFFF7F498BD948C744245800000000760BB8:
                0D0000C0:
                  0. 36 F048 0078 0000:RtlStringCbVPrintfExA
                57000780:
                  0. 36 F048 0078 0000:StringCbVPrintfExA
              8B:
                05........4889442430:
                  33C083FA02488BD9488901488941:
                    0. 61 E893 00DE 0000:DnsAddr_BuildMcast
                  4885C90F84A00000000FB70183F8:
                    0. 35 FF2C 00CD 0000:Ip6_AddrStringForSockaddr
                DA48:
                  8BD1488D4C2430FF15........488D542430488D4C24:
                    0. 0F AADA 0050 0000:EVENTLOG_HANDLE_A_unbind
                  D1EA48C7442458000000004881FAFFFFFF7F760BB8:
                    0D:
                      0. 37 414F 008D 0000:RtlStringCbCopyNExW (REF 0057: RtlStringCopyNExWorkerW)
                      1. 37 414F 008D 0000:RtlStringCbCatNExW (REF 0057: RtlStringCatNExWorkerW)
                      2. 27 F19A 007D 0000:RtlStringCbCatExW (REF 0047: RtlStringCatExWorkerW)
                      3. 27 F19A 007D 0000:RtlStringCbCopyExW (REF 0047: RtlStringCopyExWorkerW)
                    57:
                      0. 37 2F6A 008D 0000:StringCbCopyNExW (REF 0057: StringCopyNExWorkerW)
                      1. 37 2F6A 008D 0000:StringCbCatNExW (REF 0057: StringCatNExWorkerW)
                      2. 27 A53B 007D 0000:StringCbCatExW (REF 0047: StringCatExWorkerW)
                      3. 27 A53B 007D 0000:StringCbCopyExW (REF 0047: StringCopyExWorkerW)
              8D4424304889442420E8........85C0785F4C8D442438BA08:
                0. 0C 19A6 007E 0000:NetpCreateSecurityObject
              C7442430FEFFFFFF488BD9833D........007411488D15:
                0. 00 0000 0138 0000:?Start@CMSPThread@@QEAAJXZ (l)0120:?dtor$0@?0??Start@CMSPThread@@QEAAJXZ@4HA
            660F124A10660F122A660F7F742430660F7F7C2420498BD9660F:
              0. 84 C78F 0150 0000:perpnorm
            803D........00488BD974:
              35833D........00742C488D05:
                0. 00 0000 0053 0000:DDK_IsListEmpty (002E: 83)
                1. 00 0000 005A 0000:DDK_RemoveHeadList (002E: 89)
                2. 00 0000 005C 0000:DDK_RemoveTailList (002E: 08)
                3. 00 0000 0056 0000:DDK_KeAcquireSpinLockAtDpcLevel (001A: 0A) (REF 0014: ?testControl@?1??DDK_KeAcquireSpinLockAtDpcLevel@@9@4KA)
                4. 00 0000 0056 0000:DDK_KeReleaseSpinLockFromDpcLevel (001A: 0A) (REF 0014: ?testControl@?1??DDK_KeReleaseSpinLockFromDpcLevel@@9@4KA)
                5. 00 0000 0056 0000:DDK_ExDeleteNPagedLookasideList (001A: 0B) (REF 0014: ?testControl@?1??DDK_ExDeleteNPagedLookasideList@@9@4KA)
                6. 00 0000 0056 0000:DDK_ExDeletePagedLookasideList (001A: 0B) (REF 0014: ?testControl@?1??DDK_ExDeletePagedLookasideList@@9@4KA)
                7. 00 0000 006E 0000:DDK_ExAllocateFromNPagedLookasideList (002E: 15) (REF 0014: ?testControl@?1??DDK_ExAllocateFromNPagedLookasideList@@9@4KA)
                8. 00 0000 006E 0000:DDK_ExAllocateFromPagedLookasideList (002E: 15) (REF 0014: ?testControl@?1??DDK_ExAllocateFromPagedLookasideList@@9@4KA)
                9. 00 0000 0056 0000:DDK_ExQueryDepthSList (001A: 14) (REF 0014: ?testControl@?1??DDK_ExQueryDepthSList@@9@4KA)
                10. 00 0000 0056 0000:DDK_ExInterlockedFlushSList (001A: 14) (REF 0014: ?testControl@?1??DDK_ExInterlockedFlushSList@@9@4KA)
              3A833D........007431488D05:
                0. 00 0000 005B 0000:DDK_ExInitializeSListHead
              47833D........00743E488D05:
                0. 00 0000 0066 0000:DDK_InitializeListHead (003F: 08)
                1. 00 0000 0066 0000:DDK_KeInitializeSpinLock (003F: 00)
            81394C444943488BC2C744245000000000740BB8020000004883:
              0. 39 F89C 0070 0000:LDIDecompress
          50:
            418BC04533C048894C24284D89014C894424404C894424484889:
              0. 24 80EC 005A 0000:CmRegUtilOpenExistingUcKey
            48:
              81FAFFFFFF7F498BD948C744244000000000760BB8:
                0D0000C0:
                  0. 3C D97F 007E 0000:RtlStringCbPrintfExA
                57000780:
                  0. 3C D97F 007E 0000:StringCbPrintfExA
              894C243048894C2420488D4C2420C744243842000000C74424:
                0. 06 86BD 007F 0000:vswprintf
              8B05........48894424:
                40488B:
                  D9448BC2488D15........48:
                    0. 06 8837 0050 0000:WriteInt
                  DA488BD1488D4C242041B80E:
                    0. 05 9B77 006D 0000:NetpIsDefaultPassword
                48488BDA488D542420FF15:
                  0. 09 F422 0040 0000:ultow
              8D4424708BD9488D15........41B93F000F004533C048C7C1:
                0. 1D A924 00C5 0000:NetpAvoidNetlogonSpnSet
              C7442430FEFFFFFF48C744246000000000488B01488D542460:
                0. 08 81DA 0198 (l)0000:?TerminalAllowed@@YAJPEAUIMoniker@@@Z (l)0180:?dtor$0@?0??TerminalAllowed@@YAJPEAUIMoniker@@@Z@4HA
            4D8BD08D041248894C243048894C2420488D4C24204D8BC1498B:
              0. 0E 026C 0087 0000:_vsnwprintf
            660F:
              12842480000000660F128C24880000008BD9894C2420488B:
                0. 23 1D48 0068 (l)0000:_call_matherr
              7F742440F20F10F0F20F5905........660F7F7C2430488B:
                0. 09 C5E0 00DF 0000:_exphlp
            803D........00488BD9743F833D........007436488D05:
              0. 00 0000 0060 0000:DDK_ExInterlockedPopEntrySList
            85:
              C9660F7F7C2430F20F10F9790E660F123D........F7D9F20F:
                0. 16 5FB8 01AC 0000:_jn
              D24D8BD9418BD80F84A7000000FFCA7457FFCA0F85E7000000:
                0. 03 4882 0150 0000:drawtriangle
            8BD9660F7F742440BAC0FF0000B9801F0000660F7F7C2430F20F:
              0. 07 588F 0056 (l)0000:domain_err
            F20F114424:
              6048B80000000000000080F20F10C84C8B4424604D:
                0. 74 43FB 022A 0000:_scalb
              6848B8FFFFFFFFFFFFFF7F488B542468F20F114C24:
                0. B1 FB4E 0291 0000:_hypot
            F6C202488BD9B824000000B92500000066C7442420280066C744:
              0. 82 3CDA 00BA 0000:FindBestPixelFormat
          60:
            488B:
              05........48894424:
                504885C9740666833900751233C048:
                  0. 05 A65B 0067 0000:NetpIsDomainNameValid
                58488BD94C8BC2488D542430488D4C:
                  0. 1E 2898 0073 0000:Dns_Ip4ReverseNameToAddress_W
              D9:
                41B90F000000488BD1488D4C2430458BC1C74424200000:
                  0. 04 3244 0040 0000:ForceRedraw
                488B4910488D542440FF15........488B4B10FF15:
                  0. 00 0000 009D 0000:?PerformanceAlignWindow@CBaseWindow@@QEAAJXZ
            4C89442430448B818C0100004C8BCA4585C0488BD9790AC74424:
              0. F9 CB8A 017E 0000:?SendQuality@CBaseVideoRenderer@@UEAAJ_J0@Z
            4D85C04C8D15........4C8BDA4D0F45D04D85C9488BD94D8BC2:
              0. 05 C1EC 0091 0000:DnsPrint_ParsedRecord
            833D........00488BD90F85FE000000833D........000F85F1:
              0. 06 F97B 011C (l)0000:DoPasswordCheck (l)0108:$_didcheck$26534 (REF 0093: __imp_PeekMessageA)
              1. 06 F97B 011C (l)0000:DoPasswordCheck (l)0108:$_didcheck$26535 (REF 0093: __imp_PeekMessageW)
          70:
            48:
              833D........007420488B0D........488D542430FF15:
                0. 00 0000 00FB 0000:tkExec
              B8FFFFFFFFFFFFFF7F:
                F20F118424:
                  88000000660F7F7424604C:
                    0. 53 844D 0416 0000:sin
                  98000000660F7F74246048:
                    0. 4F 06E8 039C 0000:tan
                F30F5AD8660F7F742460F20F119C2490:
                  0. 5E 3F4D 0498 0000:tanf
            83FA05458BD9488BD9777C488D0D........8BC2448B9481:
              0. 00 0000 00B0 0000:RxPrintQAdd (l)0028:$LN42 (l)0081:$LN55 (l)008D:$LN12
      85C94C8BDA74414885D2743C483BCA743B8B1933D285DB742F458B0B4C:
        0. 36 5839 0056 0000:Dns_IsIntersectionOfIpArrays
      8B:
        15........4533D24C8BD94C8B0A4C3B09750E4C8B4A084C3B490875:
          0. 11 341A 008E 0000:?LocateSubtype@@YAHPEBU_GUID@@@Z
        C44881EC:
          A0000000660F7F70F0660F7F78E08BD9488B0D........66:
            0. 10 0E73 0145 0000:tkSetOneColor
          D0000000660F7F70F0660F7F78E066440F7F40D0488D1D:
            0. 00 0000 070C (l)0000:emulate_op (l)0122:$LN62 (l)0135:$LN61 (l)0149:$LN58 (l)015D:$LN55 (l)0174:$LN53 (l)01A2:$LN49 (l)01D0:$LN45 (l)0207:$LN41 (l)021E:$LN40 (l)0235:$LN39 (l)024C:$LN38 (l)0263:$LN37 (l)027A:$LN36 (l)0291:$LN35 (l)02A8:$LN34 (l)02C5:$LN31 (l)02DD:$LN30 (l)02F5:$LN29 (l)030D:$LN28 (l)0325:$LN27 (l)033D:$LN26 (l)0355:$LN25 (l)036D:$LN24 (l)03AA:$LN19 (l)03B8:$LN18 (l)03C8:$LN17 (l)03D8:$LN16 (l)03E8:$LN15 (l)03F8:$LN14 (l)0408:$LN13 (l)0418:$LN12 (l)0435:$LN9 (l)0443:$LN8 (l)0451:$LN7 (l)045F:$LN6 (l)046D:$LN5 (l)047B:$LN4 (l)0489:$LN3 (l)0497:$LN2 (l)04A8:$LN10
    4C:
      8B:
        094C8BC24C8BD14981F900A6CE127D2D33C9C7421450000000C7420C:
          0. FF 38AD 021E 0000:net_gmtime
        D2498BD94D8BD849D1EA48D1EB488BD14981FAFFFFFF7F7607B8:
          0D00:
            0. AB 9639 00CB 0000:RtlStringCbCatNW
          5700:
            0. AB F82C 00CB 0000:StringCbCatNW
        DA498BD94D8BD04981FBFFFFFF7F488BD17607B8:
          0D0000C05BC34533:
            0. A3 DC14 00C3 0000:RtlStringCchCatNW
          570007805BC34533:
            0. A3 DA56 00C3 0000:StringCchCatNW
        DC48:
          81EC80000000:
            488BC233DBC744245030000000488D15:
              0. 4C DE56 0080 0000:AccessSeed
            498D43E8498943D8498D43E0498943D0488B8424:
              0. 42 6D7A 00C4 0000:DnssrvEnumRecordsAndConvertNodes
          83EC:
            50:
              33C0498BD84C8BC1:
                49894320894424688BC2498D532045:
                  0. 1A 5E5D 005F 0000:DnssrvEnumDirectoryPartitions
                894424:
                  68498943208BC2498D532045:
                    0. 1A 5E5D 005F 0000:DnssrvGetStatistics
                  7049894328498D4328498943:
                    0. 13 41A0 005D 0000:DnssrvDirectoryPartitionInfo
              498D43F04D8D5340498943E8498B43384D8953E0498943:
                0. 0E 00B5 004C 0000:?_com_dispatch_method@@YAJPEAUIDispatch@@JGGPEAXPEBGZZ (001D: C3)
                1. 0E 00B5 004D 0000:?_com_dispatch_raw_method@@YAJPEAUIDispatch@@JGGPEAXPEBGZZ (001D: 5B)
            60:
              33C048:
                85C9488BD9498943C0498943C8498943D0498943:
                  0. 35 74B7 00D0 0000:DnsAddrArray_AddIp4
                8BD9498D4BC84885DB498943D8498943C0498943:
                  0. 4D F4EC 00E8 0000:DnsAddrArray_AddIp6
              C744244808000000498D432041895324498943E0498D43:
                0. 32 D88A 00AA (l)0000:s_unlink
            70488B8424A0000000C74424403000000049894BD8C74424:
              0. 36 8567 0097 0000:CmRegUtilCreateUcKey
      8D1D........4863C1458BD04D8B1CC3488BDA4D85DB0F84A500000090:
        0. AD BDED 00CD 0000:findList
    4D8B104C8BD949FFC24983E2FE4C3BD14D8910724F418BC22BC13BD07646:
      0. 54 1681 0074 0000:NetpLogonGetUnicodeString
    807918008BDA75:
      5A4C8B511041F6422C80754F488B4C24308B01448D5801:
        0. 48 7BF9 0068 0000:ScsiPortWmiSetInstanceName
      614C8B511041F6422C807556488B4C24308B01448D5807:
        0. 4F 74D8 006F 0000:ScsiPortWmiSetData
    8B0133DB448BDAFFC8:
      448BD34C63C8782B4E8D4489044A8D548904666690:
        0. 23 BD4A 0043 0000:Dns_ClearIpFromIpArray
      4C8BD1448BC34C63C8782E4A8D4489044A8D548904:
        0. 2B DAD0 004B 0000:Dns_DeleteIpFromIpArray
  554881EC20010000488D6C245048899DC80000004889B5C00000004889BDB8:
    0. 22 7A95 0688 (l)0000:?_com_invoke_helper@@YAJPEAUIDispatch@@JGGPEAXPEBGPEADPEAPEAUIErrorInfo@@@Z (l)016D:$LN69 (l)017F:$LN67 (l)018A:$LN64 (l)019E:$LN61 (l)01AE:$LN60 (l)01C6:$LN59 (l)01E6:$LN57 (l)0204:$LN56 (l)0232:$LN41 (l)023E:$LN39 (l)0521:$LN16 (l)0531:$LN8 (l)0542:$LN6 (l)0568:$LN4 (l)0586:$LN3 (l)0598:$LN2 (l)05A4:$LN5
  57:
    0F:
      B6114C8BC1488BC184D2740F9048FFC080FA2E74348A1084D275F233C0:
        0. 35 B984 0055 0000:Dns_IsNameShortA
      B7C24C8BC1C60100662500C0488BF948C7C1FFFFFFFF663D00C0752433:
        0. 05 58EA 0222 0000:Dns_KeyFlagString
    33:
      C04885C9488BD174:
        2448C7C1FFFFFFFF488BFAF2AE48F7D148FFC985C9:
          0. 12 F873 0032 0000:MultiSz_NextString_A
        2848C7C1FFFFFFFF488BFA66F2AF48F7D148FFC985:
          0. 16 B173 0036 0000:MultiSz_NextString_W
      D24C8BC1:
        38117425669066669033C0498BF848C7C1FFFFFFFFF2AE48F7:
          0. 15 2DE1 0035 0000:NetpStrArraySize
        66391174:
          226666669033C0498BF848C7C1FFFFFFFF66F2AFFF:
            0. 12 EFD2 0032 0000:NetpTStrArrayEntryCount
          256666669033C0498BF848C7C1FFFFFFFF66F2AF48:
            0. 16 4B15 0036 0000:NetpTStrArraySize
    4533:
      C04885C9488BD174:
        2366669033C048C7C1FFFFFFFF488BFAF2AE48F7:
          0. 15 D975 0035 0000:MultiSz_Size_A
        2866669033C048C7C1FFFFFFFF488BFA66F2AF48:
          0. 1D 9363 003D 0000:MultiSz_Size_W
      C9:
        4885C94C8BC1742666669033C048C7C1FFFFFFFF498BF8F2AE48F7:
          0. 18 8461 0038 0000:MultiSz_Count_A
        4C8BC24C8BD166443909488BD1742D666666906666669066666690:
          0. 66 8613 0086 0000:NetpAddTStrToTStrArray
    48:
      81EC:
        10010000488B05........4889842400010000833D........004C:
          0. 12 47F1 0110 0000:SapRemoveAdvertise
        80040000488B05........4889842470040000488D4C247133D241:
          0. 0B 81A1 0112 0000:?PrintBanner@@YAXXZ
        900000004D85C04D8BD0488BC24C8BD9743A4585C9740EB87C0000:
          0. 72 BC87 0101 0000:RxNetConfigSet (l)00F0:$Cleanup$5148
        D0:
          010000488B05........48898424C00100004533C083F9037322:
            0. 06 A8B3 00DA 0000:Wks_RecordBuildW
          04000049B80800000008000000488D442450B909000000666690:
            0. 82 DD8E 01A2 (l)0000:InitFixed
      83EC:
        20:
          33C04885C9488BD10F848400000048C7C1FFFFFFFF488BFA66F2:
            0. 50 68A3 009E 0000:NetpIsRemoteNameValid
          4885C9488BFA7405E8........33C048C7C1FFFFFFFF:
            66F2AF48:
              0. 0C 4E9F 002C 0000:wcsxfrm
            F2AE48F7:
              0. 0B 14B5 002B 0000:strxfrm
          4C8B:
            C933C0488BFA48C7C1FFFFFFFFF2AE48F7D148FFC981F9FF:
              0. 13 1992 0040 0000:DnssrvWriteNameToFlatBuffer
            D133C0488BFA48C7C1FFFFFFFF4C8BCA66F2AF498BFA48F7:
              0. 4F 97F9 0084 0000:Dns_IsNameInDomainW
          803A7A488BC2488BF9751B33C048C7C1FFFFFFFF66F2AF48F7D1:
            0. 20 D2DB 004A (l)0000:RxpGetFieldSize
          83:
            3D........01488BF9751A33C048C7C1FFFFFFFFF2AE48F7D1:
              0. 17 558F 004E 0000:_mbstrlen
            F9087413B90D000000FF15........33C04883C4205FC3488B:
              0. 16 E4CD 004B 0000:Sig_RecordBuildW
          85D24D8B48108BFAC601304C8BD1488D41017E26666690666690:
            0. 74 0DEA 0098 0000:_fptostr
          8B442450450AC1C601:
            006689510244884101488D790889410448:
              0. 06 6869 0040 0000:NetpInitializeAllowedAce
            016689510244884101488D790889410448:
              0. 06 6869 0040 0000:NetpInitializeDeniedAce
            026689510244884101488D790889410448:
              0. 06 6869 0040 0000:NetpInitializeAuditAce
        30:
          41:
            83F8014C8BD10F85A1000000483BCA0F84A70000004885C974:
              0. 80 0702 0176 0000:Dns_NameComparePrivate
            8BC14C8BC985C0751248C7C1FFFFFFFF498BF866F2AF48F7D1:
              0. 0D C60A 005B 0000:Dns_MakeCanonicalNameW
          48:
            3BCA4C8BC24C8BD1750BB8010000004883C4305FC34885C974:
              0. 7A 9333 00AE 0000:Dns_NameCompare_W
              1. 76 D919 00AA 0000:Dns_NameCompare_A
            85C94D8BD04C8BD948C744244000000000740D4D85C0750833:
              0. 3A F09F 009D 0000:wcstombs
        404885C98BFA4C8BD17512418D4A57FF15........33C04883C440:
          0. 4A 8DB8 01B7 0000:Dns_GetBufferLengthForStringCopy (l)01A4:$Failed$51890
        604C8BD133C0488BFA48C7C1FFFFFFFF66F2AF48F7D148FFC983F9:
          0. 32 4711 006D 0000:RxNetUserDel
          1. 37 E79D 0072 0000:RxNetCharDevControl
      85D24C8BC1743E33C048C7C1FFFFFFFF488BFA66F2AF48F7D148FFC948:
        0. 3F 8662 005F 0000:WdmlibRtlInitUnicodeStringEx
      8B:
        394C8BD24C8BC94885FF751F498B00483BC2763F4883C0FE49890066:
          0. 6E CB07 008E 0000:NetpPackString
        D133C048C7C1FFFFFFFF488BFA:
          66F2AF48F7D148FFC985C9740B83C1:
            0. 0B 11C4 002B 0000:Dns_IsNameFQDN_W
          F2AE48F7D148FFC985C9740A83C1FF:
            0. 09 E96D 0029 0000:Dns_IsNameFQDN_A
        F933C048C7C1FFFFFFFFF2AE4885D248F7D14C8D4902741848C7C1FF:
          0. 1D 73EE 003D 0000:RxpComputeRequestBufferSize
    4C8B:
      C1488BF933C0488BCAF3AA498BC05FC3:
        0. 00 0000 0014 0000:RtlSecureZeroMemory
      C933C048C7C1FFFFFFFF498BF9:
        4533C0F2AE48F7D148FFC985C9488B:
          0. 5B 9F14 007B 0000:Dns_GetNameAttributesA
        66F2AF48F7D14C8D41FF8D41FE41D1:
          0. 30 B908 0050 0000:ReverseString
      D133C048C7C1FFFFFFFF498BFA4533C033D2:
        66F2AF41B95725000048:
          0. 8E 3E14 00AE 0000:Dns_NameLabelCountW
        F2AE41B95725000048F7:
          0. 88 74F0 00A8 0000:Dns_NameLabelCountA
    4D85C04C8B:
      C97407B8570000005FC333C0488BFA48890148894108488941:
        0. 43 5170 0063 0000:BuildCredsForPackage
      CA4C8BD175174C2BD2410FB60149FFC184C04388440AFF75F0:
        0. 7B 3AF6 00F8 0000:DnssrvConcatDnsNames
    6683FA207307B8020000005FC38039FF7407B8030000005FC3807901530F:
      0. FF 579E 0124 0000:NetpSmbCheck
    8B:
      B9C02E00004C8BC1B920000000412890C42E0000450FB690C42E00002B:
        0. BA AD4E 00DA 0000:getbits
      C24533:
        C0488BD185C0751348C7C1FFFFFFFF488BFAF2AE48F7D1488D41:
          0. 3C 8295 008C 0000:Dns_AtmaAddressLengthForAddressString
        C933D285C04C8BD941BA57250000751348C7C1FFFFFFFF498BFB:
          0. 9A F97D 00BA 0000:Dns_ValidateAndCategorizeDnsNameEx (l)00A7:$InvalidName$52372
  63:
    5118488BC2:
      48034110FFC28951188A00C3:
        0. 00 0000 0013 (l)0000:getNextByte
      83C20248034110895118668B00C3:
        0. 00 0000 0015 (l)0000:getNextWord
    C1488D0D........8B0481C3:
      0. 00 0000 000E (l)0000:isInteger (REF 0006: ?integerop@?1??isInteger@@9@9)
      1. 00 0000 000E (l)0000:isScalar (REF 0006: ?scalarop@?1??isScalar@@9@9)
      2. 00 0000 000E (l)0000:isDouble (REF 0006: ?doubleop@?1??isDouble@@9@9)
    C248:
      0FAFC1C3:
        0. 00 0000 0008 0000:RtlExtendedIntegerMultiply
      69C010270000488901488BC1C3:
        0. 00 0000 0011 0000:??0CRefTime@@QEAA@J@Z
      8D15........83BC82........0074374963D049B8000000000000F0:
        0. 2E A9CD 0074 (l)0000:Denormal2Zero
      C1E004480301C3:
        0. 00 0000 000B 0000:??A?$CMSPArray@U_THREADPOOLWAITBLOCK@CMSPCallMultiGraph@@$07$07@@QEBAAEAU_THREADPOOLWAITBLOCK@CMSPCallMultiGraph@@H@Z
  81:
    C19800000048FF25:
      0. 00 0000 000E 0000:?LockPaletteLock@CBaseWindow@@QEAAXXZ (REF 000A: __imp_EnterCriticalSection)
      1. 00 0000 000E 0000:?UnlockPaletteLock@CBaseWindow@@QEAAXXZ (REF 000A: __imp_LeaveCriticalSection)
    E9:
      40010000E9:
        0. 00 0000 000C 0000:?AddRef@CBaseVideoRenderer@@WBEA@EAAKXZ (REF 0008: ?AddRef@CBaseVideoRenderer@@UEAAKXZ)
        1. 00 0000 000C 0000:?QueryInterface@CBaseVideoRenderer@@WBEA@EAAJAEBU_GUID@@PEAPEAX@Z (REF 0008: ?QueryInterface@CBaseVideoRenderer@@UEAAJAEBU_GUID@@PEAPEAX@Z)
        2. 00 0000 000C 0000:?Release@CBaseVideoRenderer@@WBEA@EAAKXZ (REF 0008: ?Release@CBaseVideoRenderer@@UEAAKXZ)
      48010000E9:
        0. 00 0000 000C 0000:?AddRef@CBaseVideoRenderer@@WBEI@EAAKXZ (REF 0008: ?AddRef@CBaseVideoRenderer@@UEAAKXZ)
        1. 00 0000 000C 0000:?QueryInterface@CBaseVideoRenderer@@WBEI@EAAJAEBU_GUID@@PEAPEAX@Z (REF 0008: ?QueryInterface@CBaseVideoRenderer@@UEAAJAEBU_GUID@@PEAPEAX@Z)
        2. 00 0000 000C 0000:?Release@CBaseVideoRenderer@@WBEI@EAAKXZ (REF 0008: ?Release@CBaseVideoRenderer@@UEAAKXZ)
      70010000E9:
        0. 00 0000 000C 0000:?AddRef@CBaseVideoRenderer@@WBHA@EAAKXZ (REF 0008: ?AddRef@CBaseVideoRenderer@@UEAAKXZ)
        1. 00 0000 000C 0000:?QueryInterface@CBaseVideoRenderer@@WBHA@EAAJAEBU_GUID@@PEAPEAX@Z (REF 0008: ?QueryInterface@CBaseVideoRenderer@@UEAAJAEBU_GUID@@PEAPEAX@Z)
        2. 00 0000 000C 0000:?Release@CBaseVideoRenderer@@WBHA@EAAKXZ (REF 0008: ?Release@CBaseVideoRenderer@@UEAAKXZ)
      78010000E9:
        0. 00 0000 000C 0000:?AddRef@CBaseVideoRenderer@@WBHI@EAAKXZ (REF 0008: ?AddRef@CBaseVideoRenderer@@UEAAKXZ)
        1. 00 0000 000C 0000:?QueryInterface@CBaseVideoRenderer@@WBHI@EAAJAEBU_GUID@@PEAPEAX@Z (REF 0008: ?QueryInterface@CBaseVideoRenderer@@UEAAJAEBU_GUID@@PEAPEAX@Z)
        2. 00 0000 000C 0000:?Release@CBaseVideoRenderer@@WBHI@EAAKXZ (REF 0008: ?Release@CBaseVideoRenderer@@UEAAKXZ)
      80000000E9:
        0. 00 0000 000C 0000:?AddRef@CSystemClock@@WIA@EAAKXZ (REF 0008: ?AddRef@CSystemClock@@UEAAKXZ)
        1. 00 0000 000C 0000:?QueryInterface@CSystemClock@@WIA@EAAJAEBU_GUID@@PEAPEAX@Z (REF 0008: ?QueryInterface@CSystemClock@@UEAAJAEBU_GUID@@PEAPEAX@Z)
        2. 00 0000 000C 0000:?Release@CSystemClock@@WIA@EAAKXZ (REF 0008: ?Release@CSystemClock@@UEAAKXZ)
      98000000E9:
        0. 00 0000 000C 0000:??_ECSourceStream@@WJI@EAAPEAXI@Z
      B8020000E9:
        0. 00 0000 000C 0000:?QueryInterface@?$CComObject@VCAudioRenderTerminal@@@ATL@@WCLI@EAAJAEBU_GUID@@PEAPEAX@Z (REF 0008: ?QueryInterface@?$CComObject@VCAudioRenderTerminal@@@ATL@@UEAAJAEBU_GUID@@PEAPEAX@Z)
        1. 00 0000 000C 0000:?AddRef@?$CComObject@VCAudioRenderTerminal@@@ATL@@WCLI@EAAKXZ (REF 0008: ?AddRef@?$CComObject@VCAudioRenderTerminal@@@ATL@@UEAAKXZ)
        2. 00 0000 000C 0000:?Release@?$CComObject@VCAudioRenderTerminal@@@ATL@@WCLI@EAAKXZ (REF 0008: ?Release@?$CComObject@VCAudioRenderTerminal@@@ATL@@UEAAKXZ)
        3. 00 0000 000C 0000:?QueryInterface@?$CComObject@VCAudioCaptureTerminal@@@ATL@@WCLI@EAAJAEBU_GUID@@PEAPEAX@Z (REF 0008: ?QueryInterface@?$CComObject@VCAudioCaptureTerminal@@@ATL@@UEAAJAEBU_GUID@@PEAPEAX@Z)
        4. 00 0000 000C 0000:?AddRef@?$CComObject@VCAudioCaptureTerminal@@@ATL@@WCLI@EAAKXZ (REF 0008: ?AddRef@?$CComObject@VCAudioCaptureTerminal@@@ATL@@UEAAKXZ)
        5. 00 0000 000C 0000:?Release@?$CComObject@VCAudioCaptureTerminal@@@ATL@@WCLI@EAAKXZ (REF 0008: ?Release@?$CComObject@VCAudioCaptureTerminal@@@ATL@@UEAAKXZ)
      C0000000E9:
        0. 00 0000 000C 0000:?AddRef@CBaseInputPin@@WMA@EAAKXZ (REF 0008: ?AddRef@CBaseInputPin@@UEAAKXZ)
        1. 00 0000 000C 0000:?QueryInterface@CBaseInputPin@@WMA@EAAJAEBU_GUID@@PEAPEAX@Z (REF 0008: ?QueryInterface@CBaseInputPin@@UEAAJAEBU_GUID@@PEAPEAX@Z)
        2. 00 0000 000C 0000:?Release@CBaseInputPin@@WMA@EAAKXZ (REF 0008: ?Release@CBaseInputPin@@UEAAKXZ)
      C8000000E9:
        0. 00 0000 000C 0000:?AddRef@CBaseInputPin@@WMI@EAAKXZ (REF 0008: ?AddRef@CBaseInputPin@@UEAAKXZ)
        1. 00 0000 000C 0000:?QueryInterface@CBaseInputPin@@WMI@EAAJAEBU_GUID@@PEAPEAX@Z (REF 0008: ?QueryInterface@CBaseInputPin@@UEAAJAEBU_GUID@@PEAPEAX@Z)
        2. 00 0000 000C 0000:?Release@CBaseInputPin@@WMI@EAAKXZ (REF 0008: ?Release@CBaseInputPin@@UEAAKXZ)
      D0000000E9:
        0. 00 0000 000C 0000:?AddRef@CDynamicOutputPin@@WNA@EAAKXZ (REF 0008: ?AddRef@CDynamicOutputPin@@UEAAKXZ)
        1. 00 0000 000C 0000:?QueryInterface@CDynamicOutputPin@@WNA@EAAJAEBU_GUID@@PEAPEAX@Z (REF 0008: ?QueryInterface@CDynamicOutputPin@@UEAAJAEBU_GUID@@PEAPEAX@Z)
        2. 00 0000 000C 0000:?Release@CDynamicOutputPin@@WNA@EAAKXZ (REF 0008: ?Release@CDynamicOutputPin@@UEAAKXZ)
      D8000000E9:
        0. 00 0000 000C 0000:?AddRef@CDynamicOutputPin@@WNI@EAAKXZ (REF 0008: ?AddRef@CDynamicOutputPin@@UEAAKXZ)
        1. 00 0000 000C 0000:?QueryInterface@CDynamicOutputPin@@WNI@EAAJAEBU_GUID@@PEAPEAX@Z (REF 0008: ?QueryInterface@CDynamicOutputPin@@UEAAJAEBU_GUID@@PEAPEAX@Z)
        2. 00 0000 000C 0000:?Release@CDynamicOutputPin@@WNI@EAAKXZ (REF 0008: ?Release@CDynamicOutputPin@@UEAAKXZ)
    EC:
      18010000488B05........4889842400010000833D........0048899C:
        0. A3 D864 0119 0000:SapGetObjectID
      28:
        010000488B05........4889842400010000833D........0048899C:
          0. BD 4889 013B 0000:SapAddAdvertise
        020000488B05........48898424:
          00020000488D15........488D4C:
            0. 04 B6BA 0377 0000:DDKPlusInitialize
          E0010000488BC248899C24400200:
            0. 1B A2BD 032B (l)0000:_setlocale_set_cat
      38080000488B05........4889842420080000488B0D........488D54:
        0. 0A 6177 0072 0000:?DbgInitModuleName@@YAXXZ
      48010000488B05........48898424300100004889B42460010000488B:
        0. 14 D185 01C8 0000:GetInternationalInfo
      58:
        010000488B05........4889842440010000:
          41B003BA0200000033C9:
            0. 24 4AE6 0097 0000:CanUseIoGetStackLimits
          48:
            85C94C8BC1C7442434:
              0. 12 0458 011C 0000:Dns_ValidateDnsString_W
            8D4C2420C7442420:
              14:
                0. 05 DF7C 006D 0000:?TimeKillSynchronousFlagAvailable@@YA_NXZ (0047: C3)
                1. 05 DF7C 0080 0000:NetpLogBuildInformation (0047: 8B)
              1C:
                0. 05 DF7C 0074 0000:IsAppServer
        020000488B05........48898424400200004885D2488D410848899C:
          0. 4D 9191 01B2 0000:??0CDisp@@QEAA@PEAUIPin@@@Z
        080000488B05........4889842440080000488D0D........FF15:
          0. 00 0000 013D 0000:?DbgDumpObjectRegister@@YAXXZ
      68010000488B05........488984244001000083F9024889BC24580100:
        0. 0D 09E3 01D1 0000:Atma_RecordBuildW
      78:
        010000488B05........488984243001000081F9900000C04C89A424:
          0. 98 92F9 0A30 0000:_fpieee_flt (l)08F0:$LN130 (l)090C:$LN129 (l)0925:$LN128
        040000488B05........488984246004000048899C2488040000488B:
          0. 0D 385B 024C 0000:NetpOpenDebugFile (l)00E2:$ErrorReturn$37660
        050000488B05........4889842460050000488B05........4889BC:
          0. 0E 7A0E 011F 0000:ODBC___GetSetupProc
      88:
        000000:
          448B11488B8424B000000048896C2478488974247048897C24:
            0. F4 1C8D 014E 0000:LDICreateDecompression
          4585C0740F41FFC8740A41FFC8740541FFC8740DB87C000000:
            0. 4A 7409 00F2 0000:RxPrintDestSetInfo
          48:
            6305........4C8D15........4869C0C80000004903C283:
              0. 01 1E1A 01F4 0000:m_xformpt
            896C24784889742470:
              488BB424B00000004885F648897C24:
                0. 49 607D 01C3 0000:CM_Get_DevNode_Registry_Property_ExA (l)0081:$LN13 (l)00AC:$LN5
                1. 49 8AE7 01C3 0000:CM_Get_Class_Registry_PropertyA (l)0081:$LN13 (l)00AC:$LN5
              4D85C048897C2468488D35:
                0. 1A F7D7 0160 0000:DnsPrint_Protoent
            8B8424F8000000440FB79424E8000000440FB79C24B80000:
              0. 82 9472 00BA 0000:ElfrReportEventW (0017: C3)
          4C6349704C896424704C897424604533F64D85C94C8BE1498B:
            0. 29 BC34 0769 0000:?UpdateTerminalListForPnp@CMSPAddress@@MEAAJH@Z
          4D85C04C8BD9750C418D40574881C488000000C348899C2480:
            0. A1 774F 0125 0000:RxNetShareAdd
          660F57C948B8000000000000008049B9FFFFFFFFFFFFFF7FF2:
            0. 7E 9DF2 0392 0000:asin
          83:
            3D........0048899C24900000004C897424704C8BF2488B:
              0. 06 EACB 066C 0000:?EnumeratePluggableSuperclasses@CMSPAddress@@UEAAJPEAPEAUIEnumPluggableSuperclassInfo@@@Z
            79044848899C2498000000488BD975088139000001007238:
              0. 59 71D4 00DF 0000:MakeCredKey
        020000488B05........4889842470020000:
          4533DB4585C941BA0000:
            0. 4C 2FC9 0085 0000:DnssrvDeleteARecord
          8B8424B002000044894C:
            0. 56 C9D5 008F 0000:DnssrvAddARecord
        030000488B05........4889842470030000488B0D........488D54:
          0. 14 B0BC 01BB 0000:AMovieDllRegisterServer
      98:
        000000:
          48:
            899C24B0000000FF15........488BD80F:
              B6003C22752790:
                0. 05 DE22 00DC 0000:DummyEntry
              B700663D220075:
                0. 06 B2AE 00E8 0000:DummyEntry
            8B842410010000440FB7942400010000440FB79C24D00000:
              0. 92 0494 00CA 0000:ElfrReportEventAndSourceW
            BAFFFFFFFFFFFFFF7FF20F118424A0000000660F7FB42480:
              0. 35 544E 03C3 0000:tanh
              1. 35 669F 0508 0000:sinh
          660F57C9F20F10E0660F2FC8760C660F1225........F20F5C:
            0. 05 A48D 0348 (l)0000:$LN71
          83FA01448BD24C8BD9760DB87C0000004881C498000000C34D:
            0. 95 CBB9 0137 0000:RxNetGroupAdd
        020000488B05........4889842480020000488D54242041B8270000:
          0. 03 207E 0066 0000:AMovieSetupUnregisterServer
        030000488B05........48898424700300004C89A42490030000448B:
          0. 04 DA27 027B 0000:AMovieDllRegisterServer2
      A8030000488B05........4889842470030000488B0D........488D54:
        0. 14 3851 01BB 0000:AMovieDllRegisterServer
      B8:
        000000:
          488B513048899C24D0000000488BD9488B49084C8D442460FF:
            0. 01 54B7 0152 0000:?DoCreateWindow@CBaseWindow@@QEAAJXZ
          660F57C9660F7FB424A000000066440F7F6C2430660F2FC8F2:
            0. 0A FBD2 03DB (l)0000:$LN76 (03B0: C3)
            1. 0A FBD2 03E3 (l)0000:$LN75 (03B0: 00)
        010000488B05........48898424A00100004889B424D0010000488B:
          0. 10 28AE 01FA 0000:Dns_FindOrCreateSecurityContext (l)015C:$Failed$55257
      C800000083E201488D05........894C242033C94D85C9488944243089:
        0. 2D 804C 0079 0000:RaiseException
      D800000048899C24E8000000488BD9E8........85C00F88470100008B:
        0. 3B 1353 0199 0000:?Alloc@CImageAllocator@@MEAAJXZ
      E8000000488B:
        05........48898424D0000000488D4C2420FF15:
          0. 00 0000 00A7 0000:NetpLocalTimeZoneOffset
        81800000004889BC2408010000488BF948398188000000:
          0. FF AA45 066E 0000:?Process@CPullPin@@AEAAXXZ
      F800000048899C24F00000004889B424E80000004889BC24E0000000F2:
        0. FF 5F87 0E88 0000:pow (l)0126:np_special1 (l)016F:np_special2 (l)01B4:np_special3 (l)024B:np_special4 (l)02A3:np_special5 (l)02A8:np_special6 (l)02B2:npx61 (l)02F9:npx62 (l)0319:npx63 (l)0323:nps6 (l)0374:npx64 (l)039D:np_special_x1 (l)03B0:nsx11 (l)03CB:nsx12 (l)03DE:np_special_x2 (l)0405:nsx21 (l)0420:nsx22 (l)0441:np_special_x3 (l)0452:np_special_x4 (l)0480:class_y (l)04E2:save_inty (l)04EB:more_x (l)053E:pow_log2 (l)057D:pl21 (l)0584:pl22 (l)0839:pl23 (l)0842:pl231 (l)08B1:np_special_lx2 (l)08D2:np_special_lx1 (l)08F3:np_special_lx3 (l)0920:ylogx (l)0B32:n_shift (l)0B93:shift_done (l)0B98:denorm_result (l)0BF6:dr_p (l)0C05:dr_1 (l)0C16:smallw (l)0D29:sw1 (l)0D6F:n_shift2 (l)0DA8:shift_done2 (l)0DB5:fc_1 (l)0E20:pow_cleanup (l)0E4C:pow_cleanup2 (l)0E68:pow_cleanup1
    F9009B32E27D06B8009B32E2C3B80065CD1D483BC80F4FC88BC1C3:
      0. 00 0000 001D 0000:?TimeDiff@@YAH_J@Z
    FAFFFFFF7F:
      4D8BC8:
        4C8BD97606B8:
          0D0000C0C34533C04885D2488BC1488B:
            0. 8F B40B 00AF 0000:RtlStringCchCatW
            1. 87 D770 00A7 0000:RtlStringCchCatA
          57000780C34533C04885D2488BC1488B:
            0. 87 22D6 00A7 0000:StringCchCatA
            1. 8F E780 00AF 0000:StringCchCatW
        7606B8:
          0D0000C0C34533C04885D2750A41B80D0000C0:
            0. 3E 8A75 005E 0000:RtlStringCchCopyA
            1. 4F F744 006F 0000:RtlStringCchCopyW
          57000780C34533C04885D2750A41B857000780:
            0. 4F 96F4 006F 0000:StringCchCopyW
            1. 3E 97E9 005E 0000:StringCchCopyA
      7606B8:
        0D0000C0C3E9:
          0. 00 0000 0014 0000:RtlStringCchCatNA
        57000780C3E9:
          0. 00 0000 0014 0000:StringCchCatNA
      77:
        604981F9FFFFFF7F77574533D24885D2750A41BA:
          0D0000C0:
            0. 4F 0CF6 006F 0000:RtlStringCchCopyNW
          57000780:
            0. 4F 6653 006F 0000:StringCchCopyNW
        674981F9FFFFFF7F775E4533D24885D2750A41BA:
          0D0000C0:
            0. 56 2772 0076 0000:RtlStringCchCopyNA
          57000780:
            0. 56 C4BF 0076 0000:StringCchCopyNA
  83:
    0108488B01:
      488B40F8C3:
        0. 00 0000 000C (l)0000:get_int64_arg
      668B40F8C3:
        0. 00 0000 000C (l)0000:get_short_arg
      8B40F8C3:
        0. 00 0000 000B (l)0000:get_int_arg
    39004C8BC1742D66669066666690498B00483BC2740C48837828004C8D40:
      0. 19 9FD9 0039 0000:?Remove@CSampleList@CBaseAllocator@@QEAAXPEAVCMediaSample@@@Z
    79:
      2800:
        458BC8488BC174114883791800740A3B117C0CB885050780C3B803:
          0. 31 BB0B 0051 0000:?SetCurrentValue@CWiauPropertyList@@QEAAJHJ@Z
        488BC174114883791800740A3B117C0CB885050780C3B803400080:
          0. 30 8F60 0050 0000:?SetCurrentValue@CWiauPropertyList@@QEAAJHM@Z
        4C8B:
          C974114883791800740A3B117C0CB885050780C3B803400080:
            0. 74 E1ED 0094 0000:?SetValidValues@CWiauPropertyList@@QEAAJHMMMMM@Z
          D174114883791800740A3B117C0CB885050780C3B803400080:
            0. 62 25D4 0082 0000:?SetValidValues@CWiauPropertyList@@QEAAJHMMHPEAM@Z
        4D8B:
          C8488BC174114883791800740A3B117C0CB885050780C3B803:
            0. 31 553C 0051 0000:?SetCurrentValue@CWiauPropertyList@@QEAAJHPEAU_GUID@@@Z
            1. 31 EB69 0051 0000:?SetCurrentValue@CWiauPropertyList@@QEAAJHPEAG@Z
          D0488BC174114883791800740A3B117C0CB885050780C3B803:
            0. 48 8C08 0068 0000:?SetCurrentValue@CWiauPropertyList@@QEAAJHPEAU_SYSTEMTIME@@@Z
            1. 3A 99D9 005A 0000:?SetCurrentValue@CWiauPropertyList@@QEAAJHPEAEH@Z
      30007506B809020480C3488B4930488B0148FF:
        60:
          70:
            0. 00 0000 0018 0000:?DeliverEndOfStream@CBaseOutputPin@@UEAAJXZ
          78:
            0. 00 0000 0018 0000:?DeliverBeginFlush@CBaseOutputPin@@UEAAJXZ
        A0:
          80000000:
            0. 00 0000 001B 0000:?DeliverEndFlush@CBaseOutputPin@@UEAAJXZ
          88000000:
            0. 00 0000 001B 0000:?DeliverNewSegment@CBaseOutputPin@@UEAAJ_J0N@Z
    81082B0000FE488B91082B00004C8BC1488D4204483B81102B0000720333:
      0. 94 E488 00B4 0000:handle_beginning_of_uncompressed_block
    B9:
      A0020000007505E9........33C0C3:
        0. 00 0000 0012 0000:?CreateFiltersIfRequired@CAudioCaptureTerminal@@QEAAJXZ
      D8000000007506B80A020480C3488B89D8000000488B0148FF6028:
        0. 00 0000 001E 0000:?Active@CBaseOutputPin@@UEAAJXZ
      E000000000:
        7411488B89E0000000488B0148FFA0:
          9800000033C0C3:
            0. 00 0000 001E 0000:?EndOfStream@CTransformFilter@@UEAAJXZ
          A000000033C0C3:
            0. 00 0000 001E 0000:?BeginFlush@CTransformFilter@@UEAAJXZ
          B000000033C0C3:
            0. 00 0000 001E 0000:?NewSegment@CTransformFilter@@UEAAJ_J0N@Z
        7506B809020480C3488B89E0000000488B0148FF6030:
          0. 00 0000 001E 0000:?Deliver@CBaseOutputPin@@UEAAJPEAUIMediaSample@@@Z
    C10848FF25:
      0. 00 0000 000B 0000:?Lock@?$CComObjectRootEx@VCComMultiThreadModel@ATL@@@ATL@@QEAAXXZ (REF 0007: __imp_EnterCriticalSection)
      1. 00 0000 000B 0000:??1?$CComObjectRootEx@VCComMultiThreadModel@ATL@@@ATL@@QEAA@XZ (REF 0007: __imp_DeleteCriticalSection)
      2. 00 0000 000B 0000:?Unlock@?$CComObjectRootEx@VCComMultiThreadModel@ATL@@@ATL@@QEAAXXZ (REF 0007: __imp_LeaveCriticalSection)
    E9:
      08E9:
        0. 00 0000 0009 0000:?QueryInterface@?$CComObject@VCVideoCaptureTerminal@@@ATL@@W7EAAJAEBU_GUID@@PEAPEAX@Z (REF 0005: ?QueryInterface@?$CComObject@VCVideoCaptureTerminal@@@ATL@@UEAAJAEBU_GUID@@PEAPEAX@Z)
        1. 00 0000 0009 0000:?AddRef@?$CComObject@VCVideoCaptureTerminal@@@ATL@@W7EAAKXZ (REF 0005: ?AddRef@?$CComObject@VCVideoCaptureTerminal@@@ATL@@UEAAKXZ)
        2. 00 0000 0009 0000:?Release@?$CComObject@VCVideoCaptureTerminal@@@ATL@@W7EAAKXZ (REF 0005: ?Release@?$CComObject@VCVideoCaptureTerminal@@@ATL@@UEAAKXZ)
        3. 00 0000 0009 0000:?QueryInterface@?$CComObject@VCAudioRenderTerminal@@@ATL@@W7EAAJAEBU_GUID@@PEAPEAX@Z (REF 0005: ?QueryInterface@?$CComObject@VCAudioRenderTerminal@@@ATL@@UEAAJAEBU_GUID@@PEAPEAX@Z)
        4. 00 0000 0009 0000:?AddRef@?$CComObject@VCAudioRenderTerminal@@@ATL@@W7EAAKXZ (REF 0005: ?AddRef@?$CComObject@VCAudioRenderTerminal@@@ATL@@UEAAKXZ)
        5. 00 0000 0009 0000:?Release@?$CComObject@VCAudioRenderTerminal@@@ATL@@W7EAAKXZ (REF 0005: ?Release@?$CComObject@VCAudioRenderTerminal@@@ATL@@UEAAKXZ)
        6. 00 0000 0009 0000:?QueryInterface@?$CComObject@VCAudioCaptureTerminal@@@ATL@@W7EAAJAEBU_GUID@@PEAPEAX@Z (REF 0005: ?QueryInterface@?$CComObject@VCAudioCaptureTerminal@@@ATL@@UEAAJAEBU_GUID@@PEAPEAX@Z)
        7. 00 0000 0009 0000:?AddRef@?$CComObject@VCAudioCaptureTerminal@@@ATL@@W7EAAKXZ (REF 0005: ?AddRef@?$CComObject@VCAudioCaptureTerminal@@@ATL@@UEAAKXZ)
        8. 00 0000 0009 0000:?Release@?$CComObject@VCAudioCaptureTerminal@@@ATL@@W7EAAKXZ (REF 0005: ?Release@?$CComObject@VCAudioCaptureTerminal@@@ATL@@UEAAKXZ)
        9. 00 0000 0009 0000:?QueryInterface@?$CComObject@VCPlugTerminalSuperclassInfo@@@ATL@@W7EAAJAEBU_GUID@@PEAPEAX@Z (REF 0005: ?QueryInterface@?$CComObject@VCPlugTerminalSuperclassInfo@@@ATL@@UEAAJAEBU_GUID@@PEAPEAX@Z)
        10. 00 0000 0009 0000:?AddRef@?$CComObject@VCPlugTerminalSuperclassInfo@@@ATL@@W7EAAKXZ (REF 0005: ?AddRef@?$CComObject@VCPlugTerminalSuperclassInfo@@@ATL@@UEAAKXZ)
        11. 00 0000 0009 0000:?QueryInterface@?$CComObject@VCPlugTerminalClassInfo@@@ATL@@W7EAAJAEBU_GUID@@PEAPEAX@Z (REF 0005: ?QueryInterface@?$CComObject@VCPlugTerminalClassInfo@@@ATL@@UEAAJAEBU_GUID@@PEAPEAX@Z)
        12. 00 0000 0009 0000:?AddRef@?$CComObject@VCPlugTerminalClassInfo@@@ATL@@W7EAAKXZ (REF 0005: ?AddRef@?$CComObject@VCPlugTerminalClassInfo@@@ATL@@UEAAKXZ)
        13. 00 0000 0009 0000:?QueryInterface@?$CComObject@VCTapiBstrCollection@@@ATL@@W7EAAJAEBU_GUID@@PEAPEAX@Z (REF 0005: ?QueryInterface@?$CComObject@VCTapiBstrCollection@@@ATL@@UEAAJAEBU_GUID@@PEAPEAX@Z)
        14. 00 0000 0009 0000:?AddRef@?$CComObject@VCTapiBstrCollection@@@ATL@@W7EAAKXZ (REF 0005: ?AddRef@?$CComObject@VCTapiBstrCollection@@@ATL@@UEAAKXZ)
        15. 00 0000 0009 0000:?Release@?$CComObject@VCPlugTerminalSuperclassInfo@@@ATL@@W7EAAKXZ (REF 0005: ?Release@?$CComObject@VCPlugTerminalSuperclassInfo@@@ATL@@UEAAKXZ)
        16. 00 0000 0009 0000:?Release@?$CComObject@VCPlugTerminalClassInfo@@@ATL@@W7EAAKXZ (REF 0005: ?Release@?$CComObject@VCPlugTerminalClassInfo@@@ATL@@UEAAKXZ)
        17. 00 0000 0009 0000:?Release@?$CComObject@VCTapiBstrCollection@@@ATL@@W7EAAKXZ (REF 0005: ?Release@?$CComObject@VCTapiBstrCollection@@@ATL@@UEAAKXZ)
        18. 00 0000 0009 0000:??_ECBaseControlWindow@@W7EAAPEAXI@Z (REF 0005: ??_ECBaseControlWindow@@UEAAPEAXI@Z)
        19. 00 0000 0009 0000:??_ECBaseControlVideo@@W7EAAPEAXI@Z (REF 0005: ??_ECBaseControlVideo@@UEAAPEAXI@Z)
        20. 00 0000 0009 0000:?QueryInterface@CBaseFilter@@W7EAAJAEBU_GUID@@PEAPEAX@Z (REF 0005: ?QueryInterface@CBaseFilter@@UEAAJAEBU_GUID@@PEAPEAX@Z)
        21. 00 0000 0009 0000:?AddRef@CBaseFilter@@W7EAAKXZ (REF 0005: ?AddRef@CBaseFilter@@UEAAKXZ)
        22. 00 0000 0009 0000:?Release@CBaseFilter@@W7EAAKXZ (REF 0005: ?Release@CBaseFilter@@UEAAKXZ)
        23. 00 0000 0009 0000:?QueryInterface@CBasePin@@W7EAAJAEBU_GUID@@PEAPEAX@Z (REF 0005: ?QueryInterface@CBasePin@@UEAAJAEBU_GUID@@PEAPEAX@Z)
        24. 00 0000 0009 0000:?AddRef@CBasePin@@W7EAAKXZ (REF 0005: ?AddRef@CBasePin@@UEAAKXZ)
        25. 00 0000 0009 0000:?Release@CBasePin@@W7EAAKXZ (REF 0005: ?Release@CBasePin@@UEAAKXZ)
        26. 00 0000 0009 0000:?QueryInterface@CBaseInputPin@@W7EAAJAEBU_GUID@@PEAPEAX@Z (REF 0005: ?QueryInterface@CBaseInputPin@@UEAAJAEBU_GUID@@PEAPEAX@Z)
        27. 00 0000 0009 0000:?AddRef@CBaseInputPin@@W7EAAKXZ (REF 0005: ?AddRef@CBaseInputPin@@UEAAKXZ)
        28. 00 0000 0009 0000:?Release@CBaseInputPin@@W7EAAKXZ (REF 0005: ?Release@CBaseInputPin@@UEAAKXZ)
        29. 00 0000 0009 0000:??_ECSeekingPassThru@@W7EAAPEAXI@Z (REF 0005: ??_ECSeekingPassThru@@UEAAPEAXI@Z)
        30. 00 0000 0009 0000:?QueryInterface@CBaseVideoRenderer@@W7EAAJAEBU_GUID@@PEAPEAX@Z (REF 0005: ?QueryInterface@CBaseVideoRenderer@@UEAAJAEBU_GUID@@PEAPEAX@Z)
        31. 00 0000 0009 0000:?AddRef@CBaseVideoRenderer@@W7EAAKXZ (REF 0005: ?AddRef@CBaseVideoRenderer@@UEAAKXZ)
        32. 00 0000 0009 0000:?Release@CBaseVideoRenderer@@W7EAAKXZ (REF 0005: ?Release@CBaseVideoRenderer@@UEAAKXZ)
        33. 00 0000 0009 0000:?QueryInterface@CDynamicOutputPin@@W7EAAJAEBU_GUID@@PEAPEAX@Z (REF 0005: ?QueryInterface@CDynamicOutputPin@@UEAAJAEBU_GUID@@PEAPEAX@Z)
        34. 00 0000 0009 0000:?AddRef@CDynamicOutputPin@@W7EAAKXZ (REF 0005: ?AddRef@CDynamicOutputPin@@UEAAKXZ)
        35. 00 0000 0009 0000:?Release@CDynamicOutputPin@@W7EAAKXZ (REF 0005: ?Release@CDynamicOutputPin@@UEAAKXZ)
        36. 00 0000 0009 0000:?QueryInterface@CPosPassThru@@W7EAAJAEBU_GUID@@PEAPEAX@Z (REF 0005: ?QueryInterface@CPosPassThru@@UEAAJAEBU_GUID@@PEAPEAX@Z)
        37. 00 0000 0009 0000:?AddRef@CPosPassThru@@W7EAAKXZ (REF 0005: ?AddRef@CPosPassThru@@UEAAKXZ)
        38. 00 0000 0009 0000:?Release@CPosPassThru@@W7EAAKXZ (REF 0005: ?Release@CPosPassThru@@UEAAKXZ)
      10E9:
        0. 00 0000 0009 0000:??_ECAudioRenderTerminal@@WBA@EAAPEAXI@Z (REF 0005: ??_ECAudioRenderTerminal@@UEAAPEAXI@Z)
        1. 00 0000 0009 0000:??_E?$CComObject@VCAudioRenderTerminal@@@ATL@@WBA@EAAPEAXI@Z (REF 0005: ??_E?$CComObject@VCAudioRenderTerminal@@@ATL@@UEAAPEAXI@Z)
        2. 00 0000 0009 0000:?QueryInterface@?$CComObject@VCAudioRenderTerminal@@@ATL@@WBA@EAAJAEBU_GUID@@PEAPEAX@Z (REF 0005: ?QueryInterface@?$CComObject@VCAudioRenderTerminal@@@ATL@@UEAAJAEBU_GUID@@PEAPEAX@Z)
        3. 00 0000 0009 0000:?AddRef@?$CComObject@VCAudioRenderTerminal@@@ATL@@WBA@EAAKXZ (REF 0005: ?AddRef@?$CComObject@VCAudioRenderTerminal@@@ATL@@UEAAKXZ)
        4. 00 0000 0009 0000:?Release@?$CComObject@VCAudioRenderTerminal@@@ATL@@WBA@EAAKXZ (REF 0005: ?Release@?$CComObject@VCAudioRenderTerminal@@@ATL@@UEAAKXZ)
        5. 00 0000 0009 0000:??_ECAudioCaptureTerminal@@WBA@EAAPEAXI@Z (REF 0005: ??_ECAudioCaptureTerminal@@UEAAPEAXI@Z)
        6. 00 0000 0009 0000:??_E?$CComObject@VCAudioCaptureTerminal@@@ATL@@WBA@EAAPEAXI@Z (REF 0005: ??_E?$CComObject@VCAudioCaptureTerminal@@@ATL@@UEAAPEAXI@Z)
        7. 00 0000 0009 0000:?QueryInterface@?$CComObject@VCAudioCaptureTerminal@@@ATL@@WBA@EAAJAEBU_GUID@@PEAPEAX@Z (REF 0005: ?QueryInterface@?$CComObject@VCAudioCaptureTerminal@@@ATL@@UEAAJAEBU_GUID@@PEAPEAX@Z)
        8. 00 0000 0009 0000:?AddRef@?$CComObject@VCAudioCaptureTerminal@@@ATL@@WBA@EAAKXZ (REF 0005: ?AddRef@?$CComObject@VCAudioCaptureTerminal@@@ATL@@UEAAKXZ)
        9. 00 0000 0009 0000:?Release@?$CComObject@VCAudioCaptureTerminal@@@ATL@@WBA@EAAKXZ (REF 0005: ?Release@?$CComObject@VCAudioCaptureTerminal@@@ATL@@UEAAKXZ)
        10. 00 0000 0009 0000:??_ECPosPassThru@@WBA@EAAPEAXI@Z (REF 0005: ??_ECPosPassThru@@UEAAPEAXI@Z)
        11. 00 0000 0009 0000:??_ECRendererPosPassThru@@WBA@EAAPEAXI@Z (REF 0005: ??_ECRendererPosPassThru@@UEAAPEAXI@Z)
      18E9:
        0. 00 0000 0009 0000:?QueryInterface@?$CComObject@VCAudioRenderTerminal@@@ATL@@WBI@EAAJAEBU_GUID@@PEAPEAX@Z (REF 0005: ?QueryInterface@?$CComObject@VCAudioRenderTerminal@@@ATL@@UEAAJAEBU_GUID@@PEAPEAX@Z)
        1. 00 0000 0009 0000:?AddRef@?$CComObject@VCAudioRenderTerminal@@@ATL@@WBI@EAAKXZ (REF 0005: ?AddRef@?$CComObject@VCAudioRenderTerminal@@@ATL@@UEAAKXZ)
        2. 00 0000 0009 0000:?Release@?$CComObject@VCAudioRenderTerminal@@@ATL@@WBI@EAAKXZ (REF 0005: ?Release@?$CComObject@VCAudioRenderTerminal@@@ATL@@UEAAKXZ)
        3. 00 0000 0009 0000:?QueryInterface@?$CComObject@VCAudioCaptureTerminal@@@ATL@@WBI@EAAJAEBU_GUID@@PEAPEAX@Z (REF 0005: ?QueryInterface@?$CComObject@VCAudioCaptureTerminal@@@ATL@@UEAAJAEBU_GUID@@PEAPEAX@Z)
        4. 00 0000 0009 0000:?AddRef@?$CComObject@VCAudioCaptureTerminal@@@ATL@@WBI@EAAKXZ (REF 0005: ?AddRef@?$CComObject@VCAudioCaptureTerminal@@@ATL@@UEAAKXZ)
        5. 00 0000 0009 0000:?Release@?$CComObject@VCAudioCaptureTerminal@@@ATL@@WBI@EAAKXZ (REF 0005: ?Release@?$CComObject@VCAudioCaptureTerminal@@@ATL@@UEAAKXZ)
      30E9:
        0. 00 0000 0009 0000:??_ECBaseControlWindow@@WDA@EAAPEAXI@Z (REF 0005: ??_ECBaseControlWindow@@UEAAPEAXI@Z)
      68E9:
        0. 00 0000 0009 0000:?AddRef@CSystemClock@@WGI@EAAKXZ (REF 0005: ?AddRef@CSystemClock@@UEAAKXZ)
        1. 00 0000 0009 0000:?QueryInterface@CSystemClock@@WGI@EAAJAEBU_GUID@@PEAPEAX@Z (REF 0005: ?QueryInterface@CSystemClock@@UEAAJAEBU_GUID@@PEAPEAX@Z)
        2. 00 0000 0009 0000:?Release@CSystemClock@@WGI@EAAKXZ (REF 0005: ?Release@CSystemClock@@UEAAKXZ)
      70E9:
        0. 00 0000 0009 0000:?AddRef@CSystemClock@@WHA@EAAKXZ (REF 0005: ?AddRef@CSystemClock@@UEAAKXZ)
        1. 00 0000 0009 0000:?QueryInterface@CSystemClock@@WHA@EAAJAEBU_GUID@@PEAPEAX@Z (REF 0005: ?QueryInterface@CSystemClock@@UEAAJAEBU_GUID@@PEAPEAX@Z)
        2. 00 0000 0009 0000:?Release@CSystemClock@@WHA@EAAKXZ (REF 0005: ?Release@CSystemClock@@UEAAKXZ)
      78E9:
        0. 00 0000 0009 0000:?QueryInterface@CSystemClock@@WHI@EAAJAEBU_GUID@@PEAPEAX@Z (REF 0005: ?QueryInterface@CSystemClock@@UEAAJAEBU_GUID@@PEAPEAX@Z)
        1. 00 0000 0009 0000:?AddRef@CSystemClock@@WHI@EAAKXZ (REF 0005: ?AddRef@CSystemClock@@UEAAKXZ)
        2. 00 0000 0009 0000:?Release@CSystemClock@@WHI@EAAKXZ (REF 0005: ?Release@CSystemClock@@UEAAKXZ)
        3. 00 0000 0009 0000:??_ECSourceStream@@WHI@EAAPEAXI@Z (REF 0005: ??_ECSourceStream@@UEAAPEAXI@Z)
    EC:
      08:
        440FB74960488B014C8BD14588040166FF416085D2750D4963C066FF:
          0. DC 96B6 01B1 (l)0000:ct_tally
        4C63490448895C24104533DB4585C94C892424488BDA4C8BE1498BC1:
          0. D3 D8D7 00F3 0000:Ip6Array_CheckAndMakeIpArraySubset
      18:
        33C0:
          4885C974150FB7096683F920760C6683F97F77066683F92C7508:
            0. 17 F380 0037 0000:INVALID_DEVINST (l)002A:$LN8
          660F2F05........660F7F3424F20F10D9F20F10F07627660F12:
            0. 01 5696 01FD (l)0000:tan_piby4
        418339FF48895C24104C8BD9488BDA746D4C8B54244048897C240833:
          0. 71 FE82 0091 0000:NetpMoveStrings
        4533C04885C97505418BC0EB0D418BC0817910036215080F94C085C0:
          0. 3C B6D7 005C 0000:CM_Get_Resource_Conflict_Count (l)0048:$Clean0$54684 (l)004A:$LN8
        48:
          6305........:
            4C8D05........4869C0C80000004903C0833D:
              0. 00 0000 00D6 0000:m_xformptonly
            F20F10E0F20F10E9660F7F3424488D0D........C7:
              0. 01 D5A7 0171 0000:m_scale
          85C948896C242848897C2438418BF84963E9488BC178054C8BD1EB:
            0. FF CFDE 01EF 0000:?Int64x32Div32@@YA_J_JJJJ@Z
          895C24:
            10:
              4533D2:
                4585C048897C2408498BD98BF97444488B4C2440:
                  0. 4E 6BFD 006E 0000:ServerRelocationRoutine
                85D248897C2408498BD8498BF974334C8BD96690:
                  0. 64 993B 0084 0000:ScsiWmipFindGuid
              498BD9448B4C2440410FBAF1114885C9488974240848C7:
                0. A4 7E72 00DC 0000:RtlUnicodeStringValidateSrcWorker
            2048896C24284533DB488974243048897C24384C89642410:
              0. 9E CA5F 0232 0000:estimate_compressed_block_size
          8B:
            05........4889:
              0424F6C21074330FB74128663D04007406663D:
                0. 1E 9C6E 0057 0000:NetpValidateJoinStateAndActions (l)0049:$Cleanup$49898
              4424084183F8064C8BC97F16440181D4090000:
                0. 06 E05D 0141 (l)0000:encoder_translate_e8
            412848895C241048897C24084885C0498BF9498BD84C8BD1742E:
              0. BE AF95 00DE 0000:?SetValidValues@CWiauPropertyList@@QEAAJHPEAU_GUID@@0HPEAPEAU2@@Z
        4C63515048896C2428488974243048897C24384C89642410440FB761:
          0. FF 3C06 01AC (l)0000:longest_match
        4D85C948895C241048C7020000000048897C2408498BD84C8BD1488B:
          0. C3 CBD4 00E3 0000:RtlUnicodeStringValidateDestWorker
        660F12:
          12660F1229660F12420866440F7F0424F20F59411066440F12:
            0. 4D 5D40 006D 0000:crossprod
          5908660F126110660F7F3424660F1231F20F10EBF20F10CCF2:
            0. 6E D8FD 008E 0000:xformvec3
        84C948895C24104C8BD2418BD80FB6D1458BD90F84CE000000FFCA74:
          0. FF B2F4 01A9 0000:ScsiWmipPostProcess
        B8010000004885C9741ABAFFFFFFFF483BCA74108179104D57595974:
          0. 19 0749 0039 0000:IsValidRangeList (l)002D:$Clean0$55034 (l)002F:$LN9
      28:
        0F:
          B6:
            0148895C244033DB3C30488BD17C1E3C397F1A0FBEC048FFC283:
              0. 1D CD54 00A9 (l)0000:DoChangePw
            02:
              48895C244048FFC24C8BC048897C2448488BF9488BD8FF15:
                0. 00 0000 0036 0000:DnssrvCopyRpcNameToBuffer
              4C8BCA3C7A74213C63741D4889542438488D54243841B80200:
                0. 06 E54B 003B (l)0000:RxpFieldSize
            412C3C207D0D2C104533C00FB6D0E8........4883C428C3:
              0. 00 0000 001E 0000:flush_output_bit_buffer
            4A4548895C2440488974244848897C2420488BF2E8........48:
              0. 7C A539 009C 0000:IopCsqCancelRoutine
            81C52E000048895C2440BBA00200008D04C5000100008BD34889:
              0. 18 5413 009A 0000:reset_decoder_trees
          B7:
            0148895C244033DB663D3000488BD17224663D3900771E0FB7C0:
              0. 25 14EE 00B1 (l)0000:DoChangePw
            116685D2750733C04883C428C3488D0D........FF15:
              0. 0F E0BB 002F (l)0000:IsIllegalCharacter
          BA61181C48895C2438488974244048897C2448488BD90F83B80000:
            0. 1D 6AF8 01EB (l)0000:TypeParseUNCName
          BFC248897C2448488BF93B816C2500007D3D0FB681722500003C10:
            0. 50 1987 0099 (l)0000:count_len
        33:
          C0:
            48:
              85D248895C244048897C2448488BD948894110488941188941:
                0. 12 C8FD 007A 0000:??0CUnicodeString@@QEAA@PEAU_UNICODE_STRING@@@Z
              89:
                01488941083905........74144C8BC1488D15........B9:
                  0. 05 7B74 002E 0000:??1AsyncEventStruct@CPTEventSink@@QEAA@XZ
                5C244048:
                  897C2448488901488941083905........8BFA48:
                    0. 0A 1315 0058 0000:??_GAsyncEventStruct@CPTEventSink@@QEAAPEAXI@Z
                  8BD9:
                    4889:
                      014889410848894110448D400148897C:
                        0. 0D B98C 0062 0000:TimedLock_Initialize
                      411048894118894120488BCA48897C24:
                        0. 06 DDE5 006B 0000:??0CUnicodeString@@QEAA@PEBG@Z (0041: 83)
                        1. 06 DDE5 0068 0000:??0CUnicodeString@@QEAA@PEBD@Z (0041: C3)
                      7C244848C7C1FFFFFFFF488BFB66F2AF:
                        0. 43 3620 00DE 0000:strtail
                    8901488D4C243048897C2448488BFA8902FF:
                      0. 01 54B7 004F 0000:tkGetMouseLoc
                6C24384C8BCA4889024889742440488BF266BA5C00488BE9:
                  0. 04 BEE8 0086 0000:NetpSeparateUserAndDomain
            4C8BC94889814825000048898150250000488981582500004889:
              0. 50 27CD 0151 (l)0000:make_len
          C948870D........4885C97405E8........4883C428C3:
            0. 00 0000 001C 0000:ShutdownRNG
          D2:
            448D4201FF15........8BC84883C42848FF25:
              0. 00 0000 001D 0000:RpcpDeleteInterface
            48895C24:
              3048896C2438448D4A03448D4201488974244048897C:
                0. 03 7645 00BC 0000:Dns_RnrNameSpaceIdForStringW
              38488BD9488B89D8000000448D420148897C2448FF53:
                0. 12 51D6 00FB 0000:FDICallEnumerate
        39514848895C243848897C24488BFA488BD97513488B4150488B7C24:
          0. 15 5318 00A2 0000:?AllocFormatBuffer@CMediaType@@QEAAPEAEK@Z (006C: C3)
          1. 15 5318 00B7 0000:?ReallocFormatBuffer@CMediaType@@QEAAPEAEK@Z (006C: 48)
        3BCA448BD17D2A833D........007417448BCA448BC1488D15:
          0. 00 0000 009A (l)0000:?RangeConvert@@YAJJJJPEAJJJ@Z
        41:
          B9080000004C8D44243048C7C1FEFFFFFF418D51FD48C744243000:
            0. 05 9B77 0041 0000:NetpReleasePrivilege
          F640184048895C243048896C2438488974244048897C2448498BD9:
            0. 50 9C3D 00A4 (l)0000:write_string
            1. 3A DDE2 0094 (l)0000:write_string
        44:
          0FB7:
            090FB7410248895C243048896C24388BEA498D5102483BC248:
              0. 31 6368 00D0 0000:SeSddlSecurityDescriptorFromSDDL
            41060FB7410848895C243841FFC0FFC04889742440488BF148:
              0. 13 B218 0141 0000:RawImageGetData
          39414848895C243048896C24384889742440488BEA488BD948897C:
            0. 12 8C70 0096 0000:?SetFormat@CMediaType@@QEAAHPEAEK@Z
          8B:
            1148895C243048896C24388BC24183C2FF48897424404C23D048:
              0. 11 E487 007A 0000:rc4_safe (0044: 25)
              1. 11 E487 007E 0000:rc4_safe_key (0044: C4)
            411448895C2440488BD9488B492041C1E80348897C2448488BFA:
              0. 09 9E0E 0067 0000:MinfoRecordCompare
            810001000048895C243048896C243848897424408BF2488B9188:
              0. 77 5366 01B1 0000:FDIReadCFDATAEntry
        45:
          33:
            C0488BD141B9FFFFFFFF418D4802FF15........33C983F8010F:
              0. 09 148A 0029 0000:LockPrivateResource
            C9:
              44398930010000448989340100007423C78134010000010000:
                0. 16 5CEF 0041 0000:?Run@CRenderedInputPin@@UEAAJ_J@Z
              4533C0E8........85C0741683F804741183F802740C83F803:
                0. 13 C5DE 0033 0000:Dns_RecordSetCompareForIntersection
              48895C244048897C24484863FA418D5103488BD94C8BC7E8:
                0. 00 0000 0044 0000:?AbortPlayback@CVideoTransformFilter@@IEAAJJ@Z
            DB4D8BD1488BC1458919443859187558488B4910F6412C80754E:
              0. 39 C796 0075 0000:ScsiPortWmiSetInstanceCount
          85:
            C04889:
              5C2438488974244048897C24488B7918418BF0488BD974:
                0. 29 832D 0096 0000:SaBlob_WriteNameOrAlias
              7C2448488BF97F0C33C0488B7C24484883C428C3488B89:
                0. 39 D1CF 00EE 0000:comp_read_input
            C948895C2438488974244048897C2448488BF14D8BD0488BDA74:
              0. 83 A236 00B4 0000:FlatBuf_Arg_WriteString
          8BC841B802000000E8........4885C0740F803855750A488BC8E8:
            0. 00 0000 002B (l)0000:RxpGetSetInfoDescriptor
        48:
          3BD148895C24384889:
            74244048897C2448488BD9488BFA0F849200:
              0. 0F B973 00CA 0000:?Set@CMediaType@@QEAAJAEBU_AMMediaType@@@Z
            7C2448488BFA488BD90F84AC000000488974:
              0. 0F B655 00DB (!)0000:?
          63:
            05........F20F10D8F20F10E9660F7F742410660F7F3C24488D:
              0. 01 9D2B 00F4 0000:m_translate
            C1:
              488D0D........48895C2438488974244048897C24484869C0:
                0. 1C AEA8 00A1 0000:SmbTraceEmptyQueue
              8B0D........83F9FF7409488BD0FF15........4883C428C3:
                0. 00 0000 0020 0000:dnsrpcSetW2KBindFlag
          81FAFFFFFF7F48895C24384889742440488BF17614B8:
            0D0000C048:
              0. 38 8101 008F 0000:RtlStringCchVPrintfA (0036: C3)
              1. 38 8101 0091 0000:RtlStringCchVPrintfW (0036: C4)
            5700078048:
              0. 39 61F4 0090 0000:?StringCchVPrintfA@@YAJPEAD_KPEBD0@Z
              1. 38 6F5D 008F 0000:StringCchVPrintfA (0036: C3)
              2. 38 6F5D 0091 0000:StringCchVPrintfW (0036: C4)
          83:
            3900488974244048897C2448488BF9488BF2741133C0488B7C24:
              0. 20 545F 013F 0000:?LoadDirectDraw@CLoadDirectDraw@@QEAAJPEAD@Z
            3D........00752F488D4C2438E8........85C075054883C428:
              0. 0D 4DCE 0047 0000:InitializeRNG
            79:
              280048895C244048897C2448488BF9488BDA7514B813020480:
                0. 35 D967 0055 0000:?StreamTime@CBaseMediaFilter@@UEAAJAEAVCRefTime@@@Z
              300048895C244048897C2448488BF9488BDA7514B813020480:
                0. 35 F06E 0055 0000:?StreamTime@CBaseFilter@@UEAAJAEAVCRefTime@@@Z
              6000740A488B4960488B01FF50104883C428C3:
                0. 00 0000 001A (!)0000:?
            C168E8........33C985C00F48C88BC14883C428C3:
              0. 00 0000 001B 0000:?SetMediaType@CBasePin@@UEAAJPEBVCMediaType@@@Z
          85:
            C9:
              4889:
                5C24:
                  3048:
                    896C24384889:
                      74244048897C2448498BE8488B:
                        0. 0A E359 009A 0000:?PossiblyEatMessage@@YAHPEAUHWND__@@I_K_J@Z
                      7C2448418BE88BDA488BF975:
                        41:
                          0. 0C 4B33 00C1 0000:Dns_CopyAndExpandIpArray
                        42:
                          0. 0D 34E8 00C6 0000:DnsAddrArray_CopyAndExpand
                          1. 0D 4F13 00C5 0000:Ip6Array_CopyAndExpand
                    8BD90F848B000000488B49084885C97405E8:
                      0. 00 0000 00AA 0000:DnssrvFreeDirectoryPartitionInfo
                  3848:
                    89:
                      74244048:
                        897C2448488B:
                          DA488BF1498BF80F:
                            0. 12 4F5B 018D 0000:NetpAlertStructureInfo
                          F2488BD974:
                            06488D:
                              0. 0B 796E 007C 0000:?SetTimeDelta@CBaseReferenceClock@@QEAAJAEB_J@Z
                            3B6690:
                              0. 07 D3EA 0088 0000:MultiSz_ContainsName_W
                        8BDA4963F0488BD1:
                          0F84AD000000:
                            0. 63 2928 00E4 0000:truncateStringW
                          747D48897C24:
                            0. 5B 8ADD 00AE 0000:truncateStringA
                      7C2448:
                        488B:
                          D9751333FF8BC7488B7C244848:
                            0. 11 5A57 00C5 0000:_wtoi
                          F98BDA74:
                            5885D274548BCB4889:
                              0. 07 9DDE 0081 0000:Ip6_FlatArrayCopy
                            5A85D274568D0C9D00:
                              0. 09 8C2C 0083 0000:Dns_CreateIpAddressArrayCopy
                        8BFA488BD9751A8D4B57FF15:
                          0. 00 0000 00AA 0000:Dns_CreateStringCopy
                    8BD9:
                      0F84F20000000FBA61140D7309488B4908:
                        0. 01 3E9B 0148 0000:Dns_RecordFree (l)0073:$LN20 (l)0079:$LN18 (l)0090:$LN15 (l)00A7:$LN10 (l)00F0:$LN2
                      75:
                        0C33C0488B5C24384883C428C3:
                          0FB709:
                            0. 05 EA45 00B5 0000:_wtol (008F: C3)
                            1. 05 EA45 00BB 0000:_wtoi64 (008F: 24)
                          488974:
                            0. 13 9FE8 0083 0000:Ip6Array_CreateCopy
                            1. 11 E8B2 0080 0000:Dns_CreateIpArrayCopy
                        158D4B57FF15........33C0488B5C24:
                          0. 42 0BDF 00B2 0000:MultiSz_Copy_W
                          1. 24 5D54 0094 0000:Dns_CreateStringCopy_A
                          2. 28 75C8 0098 0000:Dns_CreateStringCopy_W
                  4048:
                    897C2448:
                      488B:
                        D97406488D7920EB0233FF488B:
                          0. 03 7D3E 0062 0000:?GetPrivateTime@CBaseReferenceClock@@UEAA_JXZ
                        F98BDAC7442430100000007512:
                          0. 1B 7123 0095 0000:NetpGetComputerNameEx
                        FA488BD974254585C074080FB7:
                          0. 0F CAA4 00B7 0000:DnsAddrArray_AddAddr
                      8BFA488BD974:
                        064883C108EB0233C9:
                          0. 01 3E9B 0045 0000:??_GCClassFactory@@QEAAPEAXI@Z
                        7A488B49484885C974:
                          0. 02 B91A 00A1 0000:Dns_CleanupSecurityPacketInfoEx
                    8BD9:
                      74:
                        064883C130EB0233C94883C108FF15:
                          0. 00 0000 007C (!)0000:?
                        4748897C244833C048C7C1FFFFFFFF48:
                          0. 08 5C93 0064 0000:_strdup
                        4948897C244866666690666690666690:
                          0. 12 CB47 0064 0000:DnssrvFreeNodeList
                        4A48897C244833C048C7C1FFFFFFFF48:
                          0. 0C 9FFE 0067 0000:_wcsdup
                      75:
                        0C:
                          33C0488B5C24404883C428C3:
                            48897C:
                              0. 09 463F 00B5 0000:_atoi64 (0086: 40)
                              1. 09 463F 00B0 0000:atol (0086: C3)
                            B93000:
                              0. 08 0035 0149 0000:Dns_AllocateAndInitializeCredentialsA (l)00D2:$Failed$51922 (0120: C3)
                              1. 08 0035 014D 0000:Dns_AllocateAndInitializeCredentialsW (l)00D8:$Failed$51900 (0120: 48)
                          8BC1488B5C24404883C428C348897C:
                            0. 09 463F 00B0 0000:atoi
                        0FB857000780488B5C24404883C428C3:
                          0. 0C B4C4 0057 0000:MMCFreeNotifyHandle
                        158D4B57FF15........33C0488B5C24:
                          0. 4A 821A 00EC 0000:Dns_CreateConcatenatedString_W
                6C2438:
                  48:
                    89:
                      7424404C89642420488BEA488BF1458BE00F:
                        0. 52 C0E4 00BD 0000:DnsAddrArray_IsIntersection
                      7C2448488BFA488BE9747748833900747148:
                        0. 38 0399 009F 0000:NetpRemoveDuplicateStrings
                    8BE9:
                      745F48895C243033DB395908764648897C:
                        0. 22 895F 007A 0000:DnssrvFreeDirectoryPartitionList
                      750C33C0488B6C24384883C428C348895C:
                        0. 52 1593 00E4 0000:Dns_RecordSetDetach
                  498BE84C8BC24C89642420488BD14D8BE1780548:
                    0. FF 72C5 02A2 0000:?llMulDiv@@YA_J_J000@Z
                74244048:
                  897C2448488BFA488BF1751448F7DF1BC0488B:
                    0. 2B F0AC 00CB 0000:NetpCompareSid
                  8BF175158D4E57FF15........33C0488B7424:
                    0. 44 9903 00B4 0000:MultiSz_Copy_A
                7C2448:
                  488BF9:
                    0F84:
                      010100000FB60184C00F84F6000000:
                        0. 10 CE74 0125 0000:FindProtocolToUseNt4
                      97000000488B49084885C97405E8:
                        0. 00 0000 00B6 0000:Dns_FreeAPIContext
                    74:
                      064883C130EB0233C94883C108FF15:
                        0. 00 0000 0079 (!)0000:?
                      4B488B0948895C24384889742440E8:
                        0. 00 0000 0066 0000:SaBlob_Free
                      5F:
                        488974244033F6397108764648896C:
                          0. 19 1DCE 007A 0000:DnssrvFreeZoneList
                        E8........48837F0800744E488B05:
                          0. 00 0000 0081 0000:Dns_SetDebugGlobals
                    75:
                      0C33C0488B7C24484883C428C348895C:
                        0. 13 45D2 0087 0000:DnsAddrArray_CreateCopy
                      0FB803400080488B7C24484883C428C3:
                        0. 1D BCDE 00A3 0000:?CreateInstance@?$CComObject@V?$CSafeComEnum@UIEnumVARIANT@@$1?IID_IEnumVARIANT@@3U_GUID@@BUtagVARIANT@@V?$_Copy@UtagVARIANT@@@ATL@@VCComMultiThreadModel@6@@@@ATL@@SAJPEAPEAV12@@Z (REF 006C: ??_7?$CComObject@V?$CSafeComEnum@UIEnumVARIANT@@$1?IID_IEnumVARIANT@@3U_GUID@@BUtagVARIANT@@V?$_Copy@UtagVARIANT@@@ATL@@VCComMultiThreadModel@6@@@@ATL@@6B@)
                        1. 1D BCDE 00A3 0000:?CreateInstance@?$CComObject@V?$CSafeComEnum@UIEnumTerminal@@$1?IID_IEnumTerminal@@3U_GUID@@BPEAUITTerminal@@V?$_CopyInterface@UITTerminal@@@ATL@@VCComMultiThreadModel@6@@@@ATL@@SAJPEAPEAV12@@Z (REF 006C: ??_7?$CComObject@V?$CSafeComEnum@UIEnumTerminal@@$1?IID_IEnumTerminal@@3U_GUID@@BPEAUITTerminal@@V?$_CopyInterface@UITTerminal@@@ATL@@VCComMultiThreadModel@6@@@@ATL@@6B@)
                        2. 1D BCDE 00A3 0000:?CreateInstance@?$CComObject@V?$CSafeComEnum@UIEnumStream@@$1?IID_IEnumStream@@3U_GUID@@BPEAUITStream@@V?$_CopyInterface@UITStream@@@ATL@@VCComMultiThreadModel@6@@@@ATL@@SAJPEAPEAV12@@Z (REF 006C: ??_7?$CComObject@V?$CSafeComEnum@UIEnumStream@@$1?IID_IEnumStream@@3U_GUID@@BPEAUITStream@@V?$_CopyInterface@UITStream@@@ATL@@VCComMultiThreadModel@6@@@@ATL@@6B@)
                        3. 1D BCDE 00A3 0000:?CreateInstance@?$CComObject@V?$CSafeComEnum@UIEnumPluggableSuperclassInfo@@$1?IID_IEnumPluggableSuperclassInfo@@3U_GUID@@BPEAUITPluggableTerminalSuperclassInfo@@V?$_CopyInterface@UITPluggableTerminalSuperclassInfo@@@ATL@@VCComMultiThreadModel@6@@@@ATL@@SAJPEAPEAV12@@Z (REF 006C: ??_7?$CComObject@V?$CSafeComEnum@UIEnumPluggableSuperclassInfo@@$1?IID_IEnumPluggableSuperclassInfo@@3U_GUID@@BPEAUITPluggableTerminalSuperclassInfo@@V?$_CopyInterface@UITPluggableTerminalSuperclassInfo@@@ATL@@VCComMultiThreadModel@6@@@@ATL@@6B@)
                        4. 1D BCDE 00A3 0000:?CreateInstance@?$CComObject@V?$CSafeComEnum@UIEnumPluggableTerminalClassInfo@@$1?IID_IEnumPluggableTerminalClassInfo@@3U_GUID@@BPEAUITPluggableTerminalClassInfo@@V?$_CopyInterface@UITPluggableTerminalClassInfo@@@ATL@@VCComMultiThreadModel@6@@@@ATL@@SAJPEAPEAV12@@Z (REF 006C: ??_7?$CComObject@V?$CSafeComEnum@UIEnumPluggableTerminalClassInfo@@$1?IID_IEnumPluggableTerminalClassInfo@@3U_GUID@@BPEAUITPluggableTerminalClassInfo@@V?$_CopyInterface@UITPluggableTerminalClassInfo@@@ATL@@VCComMultiThreadModel@6@@@@ATL@@6B@)
                  8BFA742548895C244085FF488B197507816114FF:
                    0. 04 2AE4 003F 0000:Dns_RecordListFreeEx
                  C744243010000000488BF9750D8D4157488B7C24:
                    0. 0F F0C5 0084 0000:NetpGetComputerName
              74:
                05E8........4883C428C3:
                  0. 00 0000 0013 0000:DnssrvFreeRpcBuffer (REF 000A: MIDL_user_free)
                  1. 00 0000 0013 0000:MyFreeUnicode (REF 000A: NetpMemoryFree)
                06FF15........4883C428C3:
                  0. 00 0000 0014 (!)0000:? (REF 000B: __imp_LocalFree)
                  1. 00 0000 0014 0000:DestroyThisWindow (REF 000B: __imp_DestroyWindow)
                  2. 00 0000 0014 0000:??3@YAXPEAX@Z (REF 000B: __imp_ExFreePool)
                08488B114885D2750AB8130000004883C428C3488B024889:
                  0. 05 8A4E 0030 0000:DeleteRange
                15813923140000750D33D241B820010000E8........4883:
                  0. 03 53B6 0023 0000:DestroyCircularHash
                19488B05........4885C074074883C42848FFE0FF15:
                  0. 00 0000 0027 0000:Dns_Free
                2A4885D2742566833A00741F488B09FF15........83F802:
                  0. 1D 659B 003D 0000:NetpDeleteConfigKeyword
              75:
                0733C04883C428C38179080000FFFF751983790400751383:
                  0. 0E FFEE 0052 0000:Ip6_TempNtoa
                1185D274318BD24883C42848FF25........85D2750DFF15:
                  0. 00 0000 0045 0000:NetpMemoryReallocate
            D2:
              4889:
                5C24:
                  304889:
                    6C243848:
                      8974244048897C2448498BD9418B:
                        0. 56 004E 0076 0000:?ReceiveMultiple@CBaseInputPin@@UEAAJPEAPEAUIMediaSample@@JPEAJ@Z
                      8BEA488BD97514B803400080488B:
                        0. 35 CE10 00E7 0000:?ReleaseBuffer@CBaseAllocator@@UEAAJPEAUIMediaSample@@@Z
                    742440488BF2488BD9745E4883C10848896C:
                      0. 09 1067 008B 0000:?GetTime@CBaseReferenceClock@@UEAAJPEA_J@Z
                  38:
                    458BD8488BDA4C8BC90F84020200004889742440:
                      0. 0D 436B 022A 0000:FillRgbPaletteEntries
                    4889:
                      74244048:
                        897C2448:
                          488D7908488BDA488939:
                            0. 08 9D1F 0176 0000:??0CDisp@@QEAA@VCRefTime@@@Z
                          498BF0488B:
                            D9488BFA75:
                              0. 20 3CCA 0154 0000:?AddAfterI@CBaseList@@IEAAPEAU__POSITION@@PEAU2@PEAX@Z
                              1. 20 A51F 0152 0000:?AddBeforeI@CBaseList@@IEAAPEAU__POSITION@@PEAU2@PEAX@Z
                            DA488BF974:
                              0. 18 ACF8 0083 0000:ILUI_traverse_slist
                        8BF2:
                          488BD97514B803400080488B:
                            0. 28 67FC 0084 0000:?GetProperties@CBaseAllocator@@UEAAJPEAU_AllocatorProperties@@@Z
                          8BD974:
                            6185C9745D8D0C9D04:
                              0. 09 9407 008A 0000:Dns_BuildIpArray
                            6385C9745F8BCB4889:
                              0. 0A 459D 008C 0000:Ip6Array_CreateFromFlatArray
                      7C2448488BF9488BDA7514B803400080488B:
                        0. 14 0E18 008B 0000:AMGetWideString
                  4048:
                    897C2448488B:
                      F9:
                        488BDA:
                          7409488B02488BCAFF:
                            0. 25 2133 0045 0000:?QzAtlComPtrAssign@@YAPEAUIUnknown@@PEAPEAU1@PEAU1@@Z
                          7514B803400080488B:
                            0. 40 C26A 00C3 0000:?get_WindowState@CBaseControlWindow@@UEAAJPEAJ@Z
                            1. 4C DC17 008F 0000:?QueryPinInfo@CBasePin@@UEAAJPEAU_PinInfo@@@Z
                        498BD8741766833A00741148:
                          0. 08 B40B 0071 0000:RxpSessionMatches
                      FA488BD9:
                        740983B99C00000000:
                          0. 4A 9ECB 006A 0000:?Render@CBaseRenderer@@UEAAJPEAUIMediaSample@@@Z
                        7514B803400080488B:
                          0. 21 A62C 0079 0000:?QueryFilterInfo@CBaseFilter@@UEAAJPEAU_FilterInfo@@@Z
                    8BD9750C33C0488B5C24404883C428C3488B0A:
                      0. 54 687E 008D 0000:?RemoveI@CBaseList@@IEAAPEAXPEAU__POSITION@@@Z
                  4848897C2420488BFA7432488B1A4885DB742A6683:
                    0. 0B 1F71 0059 0000:NetpwListTraverse
                6C2438:
                  488974244048:
                    897C2448498B:
                      E8488BF2488BF975:
                        0. 28 8FD4 00D4 0000:?Connect@CBasePin@@UEAAJPEAUIPin@@PEBU_AMMediaType@@@Z
                      F0488BEA488BF974:
                        0. 3A 1A29 0102 0000:?SetProperties@CBaseAllocator@@UEAAJPEAU_AllocatorProperties@@0@Z
                        1. 56 B6D2 00CF 0000:?GetVideoSize@CBaseControlVideo@@UEAAJPEAJ0@Z
                    8B:
                      F1488BEA0F84:
                        26010000B96000:
                          0. 0D 73C0 0157 0000:?Clone@?$CComEnumImpl@UIEnumTerminalClass@@$1?IID_IEnumTerminalClass@@3U_GUID@@BU3@V?$_Copy@U_GUID@@@ATL@@@ATL@@UEAAJPEAPEAUIEnumTerminalClass@@@Z
                        E5000000B96000:
                          0. 0D 73C0 0116 0000:?Clone@?$CComEnumImpl@UIEnumVARIANT@@$1?IID_IEnumVARIANT@@3U_GUID@@BUtagVARIANT@@V?$_Copy@UtagVARIANT@@@ATL@@@ATL@@UEAAJPEAPEAUIEnumVARIANT@@@Z (REF 005E: ??_7?$CComObject@V?$CComEnum@UIEnumVARIANT@@$1?IID_IEnumVARIANT@@3U_GUID@@BUtagVARIANT@@V?$_Copy@UtagVARIANT@@@ATL@@VCComMultiThreadModel@6@@ATL@@@ATL@@6B@)
                          1. 0D 73C0 0116 0000:?Clone@?$CComEnumImpl@UIEnumTerminal@@$1?IID_IEnumTerminal@@3U_GUID@@BPEAUITTerminal@@V?$_CopyInterface@UITTerminal@@@ATL@@@ATL@@UEAAJPEAPEAUIEnumTerminal@@@Z (REF 005E: ??_7?$CComObject@V?$CComEnum@UIEnumTerminal@@$1?IID_IEnumTerminal@@3U_GUID@@BPEAUITTerminal@@V?$_CopyInterface@UITTerminal@@@ATL@@VCComMultiThreadModel@6@@ATL@@@ATL@@6B@)
                          2. 0D 73C0 0116 0000:?Clone@?$CComEnumImpl@UIEnumStream@@$1?IID_IEnumStream@@3U_GUID@@BPEAUITStream@@V?$_CopyInterface@UITStream@@@ATL@@@ATL@@UEAAJPEAPEAUIEnumStream@@@Z (REF 005E: ??_7?$CComObject@V?$CComEnum@UIEnumStream@@$1?IID_IEnumStream@@3U_GUID@@BPEAUITStream@@V?$_CopyInterface@UITStream@@@ATL@@VCComMultiThreadModel@6@@ATL@@@ATL@@6B@)
                          3. 0D 73C0 0116 0000:?Clone@?$CComEnumImpl@UIEnumPluggableSuperclassInfo@@$1?IID_IEnumPluggableSuperclassInfo@@3U_GUID@@BPEAUITPluggableTerminalSuperclassInfo@@V?$_CopyInterface@UITPluggableTerminalSuperclassInfo@@@ATL@@@ATL@@UEAAJPEAPEAUIEnumPluggableSuperclassInfo@@@Z (REF 005E: ??_7?$CComObject@V?$CComEnum@UIEnumPluggableSuperclassInfo@@$1?IID_IEnumPluggableSuperclassInfo@@3U_GUID@@BPEAUITPluggableTerminalSuperclassInfo@@V?$_CopyInterface@UITPluggableTerminalSuperclassInfo@@@ATL@@VCComMultiThreadModel@6@@ATL@@@ATL@@6B@)
                          4. 0D 73C0 0116 0000:?Clone@?$CComEnumImpl@UIEnumPluggableTerminalClassInfo@@$1?IID_IEnumPluggableTerminalClassInfo@@3U_GUID@@BPEAUITPluggableTerminalClassInfo@@V?$_CopyInterface@UITPluggableTerminalClassInfo@@@ATL@@@ATL@@UEAAJPEAPEAUIEnumPluggableTerminalClassInfo@@@Z (REF 005E: ??_7?$CComObject@V?$CComEnum@UIEnumPluggableTerminalClassInfo@@$1?IID_IEnumPluggableTerminalClassInfo@@3U_GUID@@BPEAUITPluggableTerminalClassInfo@@V?$_CopyInterface@UITPluggableTerminalClassInfo@@@ATL@@VCComMultiThreadModel@6@@ATL@@@ATL@@6B@)
                      F2488BE97514B803400080488B:
                        0. 1D 005F 00CE 0000:?EnumPins@CBaseFilter@@UEAAJPEAPEAUIEnumPins@@@Z
                        1. 38 0156 00C6 0000:?Clone@CEnumMediaTypes@@UEAAJPEAPEAUIEnumMediaTypes@@@Z
                        2. 1D 19D8 00AE 0000:?EnumMediaTypes@CBasePin@@UEAAJPEAPEAUIEnumMediaTypes@@@Z
                  4C896424204D8BE1488BEA0F847901000066833A:
                    0. 1B D325 01AA 0000:NetpAllocConfigName
                74244048897C2448:
                  488B:
                    F9488BF27514B803400080488B:
                      0. 1B 0651 0076 0000:?GetSyncSource@CBaseFilter@@UEAAJPEAPEAUIReferenceClock@@@Z
                      1. 42 0DE0 009D 0000:?get_BackgroundPalette@CBaseControlWindow@@UEAAJPEAJ@Z
                      2. 3F 3601 00BB 0000:?get_BitRate@CBaseControlVideo@@UEAAJPEAJ@Z (003A: 20)
                      3. 3F 3601 00BB 0000:?get_BitErrorRate@CBaseControlVideo@@UEAAJPEAJ@Z (003A: 24)
                      4. 3F 3601 00BB 0000:?get_VideoWidth@CBaseControlVideo@@UEAAJPEAJ@Z (003A: 34)
                      5. 3F 3601 00BB 0000:?get_VideoHeight@CBaseControlVideo@@UEAAJPEAJ@Z (003A: 38)
                      6. 3F 3601 00C8 0000:?get_AvgTimePerFrame@CBaseControlVideo@@UEAAJPEAN@Z (003A: 0F)
                      7. 1B 5E70 0076 0000:?GetSyncSource@CBaseMediaFilter@@UEAAJPEAPEAUIReferenceClock@@@Z
                      8. 1B 85E8 009E 0000:?get_AvgFrameRate@CBaseVideoRenderer@@UEAAJPEAH@Z
                      9. 1B B613 009B 0000:?ConnectionMediaType@CBasePin@@UEAAJPEAU_AMMediaType@@@Z
                    FA488BF17514B803400080488B:
                      0. 1B 0794 0070 0000:?get_Duration@CSourcePosition@@UEAAJPEAN@Z (000C: 28)
                      1. 1B 0794 0070 0000:?get_StopTime@CSourcePosition@@UEAAJPEAN@Z (000C: 38)
                      2. 1B 0794 0065 0000:?GetDuration@CSourceSeeking@@UEAAJPEA_J@Z (0007: 20)
                      3. 1B 0794 0065 0000:?GetStopPosition@CSourceSeeking@@UEAAJPEA_J@Z (0007: 30)
                      4. 1B 0794 0065 0000:?GetRate@CSourceSeeking@@UEAAJPEAN@Z (0007: 38)
                      5. 1B 0794 0065 0000:?get_Rate@CSourcePosition@@UEAAJPEAN@Z (0007: 40)
                      6. 33 6922 0094 0000:?Clone@CEnumPins@@UEAAJPEAPEAUIEnumPins@@@Z
                      7. 1B 85E8 0069 0000:?get_FramesDroppedInRenderer@CBaseVideoRenderer@@UEAAJPEAH@Z (0007: 48)
                      8. 1B 85E8 0069 0000:?get_FramesDrawn@CBaseVideoRenderer@@UEAAJPEAH@Z (0007: 4C)
                      9. 1B 85E8 008C 0000:?get_AvgSyncOffset@CBaseVideoRenderer@@UEAAJPEAH@Z (0007: D8)
                      10. 23 A2A1 00D2 0000:?GetAllocator@CTransInPlaceInputPin@@UEAAJPEAPEAUIMemAllocator@@@Z
                  498BF8488BF1740748C70200000000:
                    0. 13 D15B 005D 0000:?GetAvailable@CSourceSeeking@@UEAAJPEA_J0@Z
                  4C89642420488BF2488BF9458BE075:
                    0. 30 4442 00A1 0000:?NotifyAllocator@CBaseInputPin@@UEAAJPEAUIMemAllocator@@H@Z
                7C2448488B:
                  F9750FB8:
                    0D0000C0488B7C24484883C428C3:
                      0. 0D 44B0 006F 0000:RtlStringVPrintfWorkerA (0041: C3)
                      1. 0D 44B0 0073 0000:RtlStringVPrintfWorkerW (0041: 48)
                    57000780488B7C24484883C428C3:
                      0. 0D 44B0 006F 0000:StringVPrintfWorkerA (0041: C3)
                      1. 0D 44B0 0073 0000:StringVPrintfWorkerW (0041: 48)
                      2. 0E 5D6B 0070 0000:?StringVPrintfWorkerA@@YAJPEAD_KPEBD0@Z (0041: C3)
                      3. 0E 5D6B 0074 0000:StringVPrintfWorkerW (0041: 48)
                  FA750FB803400080488B7C24484883C428C3:
                    0. 81 1FEB 00DC 0000:?QueryId@CSourceStream@@MEAAJPEAPEAG@Z
              750AB8034000804883C428C348:
                890A488B01FF500833C04883:
                  0. 03 53B6 0023 0000:GetInterface
                8B:
                  41E84883C1E8FF5040B901:
                    0. 0D 2C9B 002D 0000:?QueryAccept@CBasePin@@UEAAJPEBU_AMMediaType@@@Z
                  49184885C948890A740D48:
                    0. 16 27B5 0036 0000:?ConnectedTo@CBasePin@@UEAAJPEAPEAUIPin@@@Z
                  81F00000004885C0741148:
                    0. 16 14A6 0041 0000:?put_Caption@CBaseControlWindow@@UEAAJPEAG@Z
          89:
            5108488D05........48895C2440488901488BD948897C244833:
              0. 28 EE3D 006B 0000:??0CDrawImage@@QEAA@PEAVCBaseWindow@@@Z
            5C24:
              30:
                410FB7581248896C24386683FB044889742440488BE948:
                  0. 0A 8427 00D0 0000:ARecordPrint
                48:
                  89:
                    6C2438:
                      0FB7EA488974244033F683FD0F4D8BD0488B:
                        0. 56 A855 00AD 0000:DnssrvFillOutSingleIndirectionRecord
                      33ED488974244048897C2448488BD9488BFD:
                        0. 09 1C80 0092 0000:read_aligned_offset_tree
                      48:
                        63:
                          D94889742440488D2D........48897C:
                            0. 13 AD50 00EA 0000:SmbTraceDisconnect
                          E94889742440:
                            48897C2448488BFD4C89:
                              0. 06 8E4B 0102 0000:SmbTraceDereferenceHeap
                            B92000000048897C2448:
                              0. 07 79CB 0075 0000:makeModelPtr
                        89:
                          742440:
                            0FB77202488BC248897C244866:
                              0. 2B 44EE 0078 0000:RemoveUserProperty
                            33:
                              ED83FA0448897C2448498BF0:
                                0. A0 1900 0173 0000:?SetProperties@CMediaSample@@UEAAJKPEBE@Z
                              F64885C948897C24488BEA48:
                                0. 2F AB61 007D 0000:??_GCPosPassThru@@UEAAPEAXI@Z
                            418BE8448BCA48897C24484C89:
                              0. 0F 0A06 014F (l)0000:do_block_output
                            48:
                              897C2448:
                                33FF4885C98BEA48:
                                  0. 16 0704 0091 0000:??_GCBaseControlWindow@@UEAAPEAXI@Z
                                4032F64C89642420:
                                  0. FF 9639 015E 0000:ArbAllocateEntry (l)0030:$tryAllocation$12319 (l)0094:$continueWithNextAllocationRange$12333 (l)00A4:$continueWithNextSuitableRange$12335 (l)00E7:$failAllocation$12330
                                418BF8498BF1FFCF:
                                  0. 2D C94C 004D 0000:??_H@YAXPEAX_KHP6APEAX0@Z@Z
                                48:
                                  63:
                                    797033DB4885:
                                      0. 35 AB9B 00B8 0000:?IsMonikerInTerminalList@CMSPAddress@@MEAAJPEAUIMoniker@@@Z
                                    F9488D2D:
                                      0. 00 0000 0082 0000:SmbTraceReferenceHeap
                                  8B:
                                    3A488BD94885:
                                      0. 35 3F99 00B0 0000:?AddTail@CBaseList@@QEAAHPEAV1@@Z
                                    7A08488BD948:
                                      0. 31 512F 00AC 0000:?AddHead@CBaseList@@QEAAHPEAV1@@Z
                                    B9E800000049:
                                      0. 0E 2DEE 009E 0000:?PossiblyEatMessage@CBaseControlWindow@@UEAAHI_K_J@Z
                                    DA488BF14C89:
                                      0. 09 A609 01A9 0000:AcpisimSetPowerDIrp (l)00A4:$EndAcpisimSetPowerDIrp$11656
                                    F2488B:
                                      D9E8:
                                        0. 00 0000 0107 0000:AcpisimPnpRemoveDevice
                                      E948C7:
                                        0. 12 588F 0169 0000:strtod
                                      F9E8:
                                        0. 00 0000 014F 0000:AcpisimPnpStartDevice (l)0100:$EndAcpisimPnpStartDevice$11388
                                    F9:
                                      48:
                                        81C18800:
                                          0. 07 3E38 00C2 0000:?AddPin@CSource@@QEAAJPEAVCSourceStream@@@Z
                                        83C138:
                                          41:
                                            0. 07 BD28 00C8 0000:?StartAt@CBaseStreamControl@@UEAAJPEB_JK@Z
                                          49:
                                            0. 06 D5C2 0106 0000:?NotifyFilterState@CBaseStreamControl@@QEAAXW4_FilterState@@_J@Z
                                          4C:
                                            0. 0F 928C 00EF 0000:?StopAt@CBaseStreamControl@@UEAAJPEB_JHK@Z
                                      66B9:
                                        100041:
                                          0. 05 002F 0082 0000:MxRecordCopy (005C: C3)
                                          1. 05 002F 0092 0000:SrvRecordCopy (005C: 24)
                                        180041:
                                          0. 05 002F 008C 0000:WinsrRecordCopy
                                        280041:
                                          0. 05 002F 00BB 0000:SoaRecordCopy
                                    FA410FB7D141:
                                      0. 0B 4DA9 0092 (l)0000:FixupAPIListElement
                                498B:
                                  D8488BF2498B:
                                    0. 05 5782 00AB 0000:DnsPrint_RpcStatsBuffer
                                  D9498BE8488B:
                                    0. 05 CAC4 00DD 0000:DnsPrint_RpcZoneList
                                  E9498BD8488B:
                                    0. 05 CAC4 00C3 0000:DnsPrint_RpcDpList
                                  F08BEA4C8964:
                                    0. 17 84FD 01A4 0000:DDKExtStoreItem
                                4C89642420498BD8:
                                  0. 08 3954 00AA 0000:NetpDomainIdToSid
                                8BEA488BF14C8964:
                                  0. 03 E3EE 01B6 0000:Dns_DequeueSecurityContextByKey
                              8B:
                                F1:
                                  33DB48897C2448488BFA:
                                    0. 03 E07D 0119 0000:DriverEntry (l)00ED:$EndDriverEntry$11875
                                  48:
                                    81C1C0000000488BEA:
                                      0. 02 ABB7 01F6 0000:?PrepareReceive@CBaseRenderer@@UEAAJPEAUIMediaSample@@@Z
                                    83C13848897C244849:
                                      0. 07 7FEE 01EA 0000:?CheckSampleTimes@CBaseStreamControl@@AEAA?AW4StreamControlState@1@PEB_J0@Z (0037: 74)
                                      1. 07 7FEE 005F 0000:?RegisterMediaTime@CRendererPosPassThru@@QEAAJ_J0@Z (0037: C3)
                                    897C2448:
                                      488BFA488D:
                                        0. 01 54B7 00A0 0000:??0CAMSchedule@@QEAA@PEAX@Z
                                      4C89642420:
                                        0. 14 FC21 0127 0000:?Next@?$CSafeComEnum@UIEnumTerminalClass@@$1?IID_IEnumTerminalClass@@3U_GUID@@BU3@V?$_Copy@U_GUID@@@ATL@@VCComMultiThreadModel@5@@@EEAAJKPEAU_GUID@@PEAK@Z
                                    8D:
                                      0D........48897C:
                                        0. 0A 054D 00AA (l)0000:GetVersionProcs
                                      590848897C244848:
                                        0. 12 5EF4 00C1 0000:?Unadvise@CAMSchedule@@QEAAJ_K@Z
                                F2488BE9488D15:
                                  0. 25 62F6 00B7 0000:printStatTypeArray
                              8D71E833ED48897C24484885:
                                0. 13 D415 00BD 0000:?Decommit@CBaseAllocator@@UEAAJXZ
                            49:
                              633148897C24484C89642420:
                                0. 06 17D2 00BE 0000:DnsPrint_FdSet
                              8BF08BDA48897C2448418B78:
                                0. 0A 95AD 0071 0000:DnsAddr_WriteSockaddr
                            8B:
                              711848897C2448488BD90FBA:
                                0. 2D AC99 0249 (l)0000:TypeParseNoLeadSlashName
                              F2:
                                488BE9498BC8488D147648:
                                  0. 10 650C 007D 0000:?Next@?$CSafeComEnum@UIEnumVARIANT@@$1?IID_IEnumVARIANT@@3U_GUID@@BUtagVARIANT@@V?$_Copy@UtagVARIANT@@@ATL@@VCComMultiThreadModel@6@@@EEAAJKPEAUtagVARIANT@@PEAK@Z
                                8BD2488BE948C1E203498B:
                                  0. 0E B703 007B 0000:?Next@?$CSafeComEnum@UIEnumTerminal@@$1?IID_IEnumTerminal@@3U_GUID@@BPEAUITTerminal@@V?$_CopyInterface@UITTerminal@@@ATL@@VCComMultiThreadModel@6@@@EEAAJKPEAPEAUITTerminal@@PEAK@Z (REF 005E: ?Next@?$CComEnumImpl@UIEnumTerminal@@$1?IID_IEnumTerminal@@3U_GUID@@BPEAUITTerminal@@V?$_CopyInterface@UITTerminal@@@ATL@@@ATL@@UEAAJKPEAPEAUITTerminal@@PEAK@Z)
                                  1. 0E B703 007B 0000:?Next@?$CSafeComEnum@UIEnumStream@@$1?IID_IEnumStream@@3U_GUID@@BPEAUITStream@@V?$_CopyInterface@UITStream@@@ATL@@VCComMultiThreadModel@6@@@EEAAJKPEAPEAUITStream@@PEAK@Z (REF 005E: ?Next@?$CComEnumImpl@UIEnumStream@@$1?IID_IEnumStream@@3U_GUID@@BPEAUITStream@@V?$_CopyInterface@UITStream@@@ATL@@@ATL@@UEAAJKPEAPEAUITStream@@PEAK@Z)
                                  2. 0E B703 007B 0000:?Next@?$CSafeComEnum@UIEnumPluggableSuperclassInfo@@$1?IID_IEnumPluggableSuperclassInfo@@3U_GUID@@BPEAUITPluggableTerminalSuperclassInfo@@V?$_CopyInterface@UITPluggableTerminalSuperclassInfo@@@ATL@@VCComMultiThreadModel@6@@@EEAAJKPEAPEAUITPluggableTerminalSuperclassInfo@@PEAK@Z (REF 005E: ?Next@?$CComEnumImpl@UIEnumPluggableSuperclassInfo@@$1?IID_IEnumPluggableSuperclassInfo@@3U_GUID@@BPEAUITPluggableTerminalSuperclassInfo@@V?$_CopyInterface@UITPluggableTerminalSuperclassInfo@@@ATL@@@ATL@@UEAAJKPEAPEAUITPluggableTerminalSuperclassInfo@@PEAK@Z)
                                  3. 0E B703 007B 0000:?Next@?$CSafeComEnum@UIEnumPluggableTerminalClassInfo@@$1?IID_IEnumPluggableTerminalClassInfo@@3U_GUID@@BPEAUITPluggableTerminalClassInfo@@V?$_CopyInterface@UITPluggableTerminalClassInfo@@@ATL@@VCComMultiThreadModel@6@@@EEAAJKPEAPEAUITPluggableTerminalClassInfo@@PEAK@Z (REF 005E: ?Next@?$CComEnumImpl@UIEnumPluggableTerminalClassInfo@@$1?IID_IEnumPluggableTerminalClassInfo@@3U_GUID@@BPEAUITPluggableTerminalClassInfo@@V?$_CopyInterface@UITPluggableTerminalClassInfo@@@ATL@@@ATL@@UEAAJKPEAPEAUITPluggableTerminalClassInfo@@PEAK@Z)
                          7C2448488B:
                            7918488BDA488BE94885FF:
                              0. 23 3B78 020E 0000:DnssrvCreateDsNodeName
                            F94881C1980000008BEAFF:
                              0. 01 54B7 00D2 0000:?DoRealisePalette@CBaseWindow@@UEAAJH@Z
                        8B:
                          D94883C13848897424408BEA48897C24:
                            0. 03 94BE 0087 0000:??_GCRendererPosPassThru@@UEAAPEAXI@Z
                          E948:
                            83C168488974244048897C2448FF:
                              0. 01 54B7 009E 0000:?UnsetPalette@CBaseWindow@@QEAAXXZ
                            89742440:
                              48:
                                83C16848897C244848:
                                  0. 04 C590 00D5 0000:?SetPalette@CBaseWindow@@UEAAJPEAUHPALETTE__@@@Z
                                8D0D........:
                                  418BD8:
                                    0. 09 AC8D 0081 0000:DtcInstallClient
                                  48897C:
                                    0. 0C 5586 0060 0000:SQLInstallODBCW (REF 0019: ??_C@_0BA@KIOOIMHB@SQLInstallODBCW?$AA@)
                                    1. 0C 5586 0060 0000:SQLWritePrivateProfileStringW (REF 0019: ??_C@_0BO@CMHGDNM@SQLWritePrivateProfileStringW?$AA@)
                                    2. 0C 5586 0060 0000:SQLInstallODBC (REF 0019: ??_C@_0P@HMFMOAPK@SQLInstallODBC?$AA@)
                                    3. 0C 5586 0060 0000:SQLWritePrivateProfileString (REF 0019: ??_C@_0BN@FPPPBCJE@SQLWritePrivateProfileString?$AA@)
                                    4. 0C 5586 0060 0000:SQLWriteFileDSN (REF 0019: ??_C@_0BA@BLPCDOIE@SQLWriteFileDSN?$AA@)
                                    5. 0C 5586 0060 0000:SQLWriteFileDSNW (REF 0019: ??_C@_0BB@BPDEHOJE@SQLWriteFileDSNW?$AA@)
                                    6. 0D A851 0062 0000:SQLGetAvailableDriversW (REF 0019: ??_C@_0BI@JBDHMGDA@SQLGetAvailableDriversW?$AA@)
                                    7. 0D A851 0062 0000:SQLGetAvailableDrivers (REF 0019: ??_C@_0BH@KGKFGDBJ@SQLGetAvailableDrivers?$AA@)
                                    8. 0C CEE4 0060 0000:SQLConfigDataSourceW (REF 0019: ??_C@_0BF@FAECKMAI@SQLConfigDataSourceW?$AA@)
                                    9. 0C CEE4 0060 0000:SQLConfigDataSource (REF 0019: ??_C@_0BE@LCNCPACH@SQLConfigDataSource?$AA@)
                              66B9:
                                080048897C244841:
                                  0. 05 8991 007A 0000:PtrRecordCopy
                                100048897C244841:
                                  0. 05 8991 009D 0000:MinfoRecordCopy
                              B9:
                                1000000048897C2448:
                                  0. 09 189B 0067 0000:CreateLogConfHandle
                                30000000498BD84C89:
                                  0. 07 0540 0185 0000:Dns_AllocateCredentials (l)0100:$Failed$51956
                                60000000498BD84889:
                                  0. 06 20BC 0126 0000:SaBlob_CreateFromIp4 (l)0045:$Failed$52370
                      4D85C04889742440488D1D........48897C:
                        0. 10 21FE 008F 0000:DnsPrint_ValueTable
                      8B:
                        E94889742440:
                          33C948897C2448418BF048:
                            0. 06 7C7B 0062 0000:Dns_GetResourceString
                          B91800000048897C244841:
                            0. 06 B57C 0072 0000:Dns_CreateAPIContext
                        EA0FBE512C48897C2448418BF84533C083:
                          0. 06 92DD 017D 0000:encode_uncompressed_block
                    742440:
                      33DB85D248897C24488BC2488BF1751348C7:
                        0. 14 DF42 00A2 0000:Dns_RnrLupFlagForString (REF 0034: RnrLupFlagTable)
                        1. 14 DF42 00A2 0000:Dns_RnrNameSpaceIdForString (REF 0034: RnrNameSpaceMappingTable)
                      488BF148:
                        81C1A800000048897C24484C8964:
                          0. 04 B6BA 0158 0000:?Pause@CBaseRenderer@@UEAAJXZ
                        83C170FF15........837E10000F:
                          0. 47 7693 00E6 0000:?Stop@CTransformFilter@@UEAAJXZ
                    7C24484863FA3B7970488BD97C14B8FFFF0080488B:
                      0. 2F E311 0134 0000:?UnregisterWaitEvent@CMSPCallMultiGraph@@IEAAJH@Z
                  8B:
                    59:
                      3848896C2438488974244048897C2448488BF948:
                        0. 0F A68D 00DA 0000:?JoinFilterGraph@CBaseFilter@@UEAAJPEAUIFilterGraph@@PEBG@Z
                      5848896C24384889742440488BF1488D8BB00000:
                        0. 0B 4FE9 007A 0000:?Receive@CTransformInputPin@@UEAAJPEAUIMediaSample@@@Z
                    99:
                      1801000048896C2438488BE948:
                        81C3C000000048:
                          0. 0E 4345 00A7 0000:?EndOfStream@CRendererInputPin@@UEAAJXZ
                        8D8BC000000048:
                          0. 0B C698 0098 0000:?EndFlush@CRendererInputPin@@UEAAJXZ
                      E80000004889:
                        6C243848:
                          89742440488BF14881C3:
                            0. 13 D9B8 0093 0000:?GetMediaType@CSourceStream@@MEAAJHPEAVCMediaType@@@Z
                          8BE94881C38800000048:
                            0. 0E 4345 0137 0000:?Active@CSourceStream@@MEAAJXZ
                        7C2448488BF94881C38800000048:
                          0. 04 758A 0102 0000:?Inactive@CSourceStream@@MEAAJXZ
                    9AB800000048896C2438488974244048897C244848:
                      0. 06 B5D4 00BA 0000:AcpisimPowerQueryPower (REF 002D: ??_C@_0CH@GDHFGMPM@?4textEntering?5AcpisimPowerQueryP@)
                      1. 06 B5D4 00BA 0000:AcpisimPowerSetPower (REF 002D: ??_C@_0CF@IHCPHNEE@?4textEntering?5AcpisimPowerSetPow@)
                    D948:
                      896C243833C0488BEA488974244048897C2448:
                        0. 19 7BDD 0100 0000:RpcpAddInterface (l)00D6:$CleanExit$40002
                      8B49784885C94C89642420448BE27406488B01:
                        0. 5F B3C2 00D7 0000:??_GCDeferredCommand@@UEAAPEAXI@Z
                498BD848896C243848897424404863F233D248897C2448:
                  0. 67 BE8C 00AD 0000:FDIReadPSZ
                8B1D........48896C243848897424408B35........48:
                  0. 06 7A30 0113 0000:Dns_GetCurrentTimeInSeconds
                BB0001000048896C24383BD3488BE90F8595000000BA08:
                  0. 0F DD84 00C2 0000:FlushPalette
              38:
                0FB75912488974244081FBFFFF000048897C2448488BF1:
                  0. 06 5D72 007B 0000:FlatDnsRecordConvert
                48:
                  89:
                    742440:
                      33:
                        DB:
                          4585C048897C2448418BF0488BFA7421:
                            0. 03 E07D 0057 0000:Dns_TokenizeStringA (REF 0023: ??_C@_04HHCDBDLF@?5?7?$AN?6?$AA@)
                            1. 03 E07D 0057 0000:Dns_TokenizeStringW (REF 0023: ??_C@_19JPEEHMMI@?$AA?5?$AA?7?$AA?$AN?$AA?6?$AA?$AA@)
                          F7D9488D0D........48897C24481BF6:
                            0. 02 ABB7 00B1 0000:NetpUpdateAutoenrolConfig
                        F6:
                          48:
                            3BD148897C2448488BD9488BFA0F84:
                              0. 0F AACF 00CA 0000:?Set@CMediaType@@QEAAJAEBV1@@Z
                            85C948897C2448488BD98974243048:
                              0. 34 6B4E 0093 0000:Dns_ValidateDnsString_UTF8
                          83795C0148897C2448488BD975078BFE:
                            0. 53 F064 0073 0000:?Release@CMediaSample@@UEAAKXZ
                      48:
                        897C2448:
                          33FF4885C9488BD97406488D71:
                            0. 0F 9FD0 0070 0000:??1CBaseControlWindow@@UEAA@XZ
                          488B:
                            7918488BDA488BF14885FF:
                              0. 2F 4AFA 0149 0000:DnssrvCreateDsZoneName
                            F2488BD9E8........488D:
                              0. 01 54B7 0087 0000:AcpisimPnpSurpriseRemoval
                            F9:
                              48:
                                81C1E8000000:
                                  8BF2FF:
                                    0. 01 54B7 004C 0000:?SetRepaintStatus@CBaseRenderer@@QEAAXH@Z
                                  FF15:
                                    0. 00 0000 0053 0000:?HaveCurrentSample@CBaseRenderer@@UEAAHXZ
                                83C1:
                                  08488BF2FF15:
                                    0. 00 0000 0096 0000:?SetSyncSource@CCmdQueue@@UEAAJPEAUIReferenceClock@@@Z
                                  20488BF2FF15:
                                    0. 00 0000 0045 0000:?Restart@CBaseReferenceClock@@IEAAX_J@Z
                                  38488BF2FF15:
                                    0. 00 0000 008D 0000:?PostEvent@CMSPAddress@@UEAAJPEAUMSPEVENTITEM@@@Z
                                8B:
                                  DAE8........488D:
                                    0. 01 54B7 00B8 0000:AcpisimPnpStopDevice (l)0096:$EndAcpisimPnpStopDevice$11420
                                  F2FF15........85:
                                    0. 15 1820 0088 0000:PixelFormatDescriptorFromDc
                              B9A0000000488BF2E8:
                                0. 00 0000 00F0 0000:?CreateInstance@CMemAllocator@@SAPEAVCUnknown@@PEAUIUnknown@@PEAJ@Z
                            FA8BF1FF15........4885:
                              0. 0F 1DA1 004A 0000:DDK_ExAllocatePoolWithTagPriority
                          498B:
                            F841B858000000488BF248:
                              0. 03 E300 0088 (!)0000:?
                            F9488BD9E8........488D:
                              0. 04 AB91 00B9 0000:??0CMemAllocator@@QEAA@PEADPEAUIUnknown@@PEAJ@Z (REF 001A: ??0CUnknown@@QEAA@PEBDPEAUIUnknown@@@Z)
                              1. 04 AB91 00B9 0000:??0CMemAllocator@@QEAA@PEAGPEAUIUnknown@@PEAJ@Z (REF 001A: ??0CUnknown@@QEAA@PEBGPEAUIUnknown@@@Z)
                          8BFA488BD9FF15........3943:
                            0. 37 C802 0098 0000:TimedLock_Enter
                          BF0A000000488D1D........33:
                            0. 0D 9B47 0083 0000:NetpFreeWellKnownSids
                        8B:
                          B1A000000048897C244833FF4885F648:
                            0. 22 5D5C 0063 0000:?CancelNotification@CBaseRenderer@@UEAAJXZ
                          F148:
                            81C18800000048897C24484863FA:
                              0. 02 ABB7 0090 0000:?GetPin@CSource@@UEAAPEAVCBasePin@@H@Z
                            83C1:
                              0848897C2448488BFAFF15:
                                0. 00 0000 005C 0000:?Run@CCmdQueue@@UEAAJ_J@Z
                              28FF15........48837E2000:
                                0. 08 CBBF 0095 0000:?PauseThread@CPullPin@@AEAAJXZ
                              3848897C24488BFAFF15:
                                0. 00 0000 004D 0000:?Flushing@CBaseStreamControl@@QEAAXH@Z
                            897C2448:
                              33C048C7C1FFFFFFFF48:
                                0. 2A 1D8E 00A1 0000:Dns_GetNameAttributesW
                              488B:
                                B918010000488D8F:
                                  0. 06 1048 0098 0000:?BeginFlush@CRendererInputPin@@UEAAJXZ
                                FA48:
                                  83C10833D2E8:
                                    0. 00 0000 0050 0000:??0CClassFactory@@QEAA@PEBVCFactoryTemplate@@@Z
                                  8D15:
                                    0. 06 D856 0093 0000:AcpisimPnpCancelStopDevice (l)006C:$EndPnpCancelStopDevice$11452 (REF 001C: ??_C@_0CL@PKLAHCKJ@?4textEntering?5AcpisimPnpCancelSt@)
                                    1. 06 D856 0093 0000:AcpisimPnpCancelRemoveDevice (l)006C:$EndPnpCancelRemoveDevice$11510 (REF 001C: ??_C@_0CN@PDAIKICN@?4textEntering?5AcpisimPnpCancelRe@)
                            8BCA48897C2448418BF8E8:
                              0. 00 0000 006D 0000:NetpNCopyStrToWStr (REF 001D: NetpAllocWStrFromStr)
                              1. 00 0000 006D 0000:NetpNCopyWStrToStr (REF 001D: NetpAllocStrFromWStr)
                            8D0D........48897C2448:
                              33DBFF:
                                0. 01 54B7 00A1 0000:NetpUpdateW32timeConfig
                              418BD8:
                                0. 04 0756 008D 0000:?xa_open@@YAHPEADHJ@Z
                              498BD8:
                                0. 04 5EA2 0062 0000:SQLInstallDriverManager (REF 0014: ??_C@_0BI@NFCNOKHD@SQLInstallDriverManager?$AA@)
                                1. 04 5EA2 0062 0000:SQLGetInstalledDrivers (REF 0014: ??_C@_0BH@IILGJKKA@SQLGetInstalledDrivers?$AA@)
                                2. 04 5EA2 0062 0000:SQLGetInstalledDriversW (REF 0014: ??_C@_0BI@CDKENOOB@SQLGetInstalledDriversW?$AA@)
                                3. 04 5EA2 0062 0000:SQLInstallDriverManagerW (REF 0014: ??_C@_0BJ@DMCDMGPP@SQLInstallDriverManagerW?$AA@)
                                4. 03 B809 0060 0000:SQLRemoveDriver (REF 0014: ??_C@_0BA@KIAPJNDJ@SQLRemoveDriver?$AA@)
                                5. 03 B809 0060 0000:SQLRemoveDriverW (REF 0014: ??_C@_0BB@KKFHEMAG@SQLRemoveDriverW?$AA@)
                          F2:
                            33D2488BD948897C2448418BF8448D:
                              0. 06 B365 005B 0000:?Stat@CImageStream@@UEAAJPEAUtagSTATSTG@@K@Z
                            488B91D8000000488BD983BA100100:
                              0. 44 4995 014D 0000:?Receive@CTransInPlaceFilter@@UEAAJPEAUIMediaSample@@@Z
                            4C8B1E488D15........33C04C3B9A:
                              0. 00 0000 00AD 0000:?NonDelegatingQueryInterface@CMediaEvent@@UEAAJAEBU_GUID@@PEAPEAX@Z (REF 0020: IID_IMediaEvent)
                              1. 00 0000 00AD 0000:?NonDelegatingQueryInterface@CBaseBasicVideo@@UEAAJAEBU_GUID@@PEAPEAX@Z (REF 0020: IID_IBasicVideo)
                        8D:
                          41E84885C048897C2448488BF2488B:
                            D9:
                              0. 0F D1A0 005D 0000:?GetFreeCount@CBaseAllocator@@UEAAJPEAJ@Z
                            F9:
                              0. 0F F6B4 0073 0000:?SetNotify@CBaseAllocator@@UEAAJPEAUIMemAllocatorNotifyCallbackTemp@@@Z
                          71:
                            0848897C2448488D7978488BDE488B:
                              0. 03 7D3E 007A 0000:?ShuntHead@CAMSchedule@@AEAAXXZ
                            E84885F648897C2448488BD9740648:
                              0. 0C E0E0 00A9 0000:?Commit@CBaseAllocator@@UEAAJXZ
                      8B:
                        D983E31FF6C10848897C2448488BF28BF9:
                          0. 0C 6B6D 00BE (l)0000:_exception_enabled
                        F248897C2448488BF98BD2B94000000049:
                          0. 04 84E0 00FC 0000:UserPropertyAllocBlock
                      B8010100003BD048897C2448:
                        418BD88BFA48:
                          0. 0E 2635 0078 0000:decode_verbatim_block
                        8BDA418BF848:
                          0. 0E 1AE4 009B 0000:decode_aligned_offset_block
                      BEFFFFFFFF488BD9F00FC17130FFCE757948:
                        0. 0E 2606 00A9 0000:?Release@?$CComObject@V?$CComEnum@UIEnumVARIANT@@$1?IID_IEnumVARIANT@@3U_GUID@@BUtagVARIANT@@V?$_Copy@UtagVARIANT@@@ATL@@VCComMultiThreadModel@6@@ATL@@@ATL@@UEAAKXZ
                    7C2448488BF9:
                      48:
                        81C1E8000000FF15........488B:
                          0. 15 2D90 00C7 0000:?OnDisplayChange@CBaseRenderer@@QEAAHXZ
                        83C128FF15........48837F2000:
                          0. 08 70A3 00EA 0000:?StopThread@CPullPin@@AEAAJXZ
                        89742440488BDA66669066666690:
                          0. 1A 3BF1 0061 (l)0000:_whiteout
                      FF15........48837F400074646690:
                        0. 05 9FD8 00CD 0000:?FreeSamples@COutputQueue@@IEAAXXZ
                  8B:
                    59:
                      20488974244048897C2448488BF9488BCB488BF2:
                        0. 02 ABB7 0049 0000:?SetSink@CBasePin@@UEAAJPEAUIQualityControl@@@Z
                      284889:
                        742440488BF1488BCB48897C2448FF15:
                          0. 00 0000 0071 0000:?Disconnect@CDynamicOutputPin@@UEAAJXZ
                        7C2448488BF9488BCBFF15........4C8B:
                          0. 0E 6081 009B 0000:?Disconnect@CBasePin@@UEAAJXZ
                      304889742440488BF1488BCB48897C2448488BFA:
                        0. 02 ABB7 0066 0000:?SetSyncSource@CBaseMediaFilter@@UEAAJPEAUIReferenceClock@@@Z (0043: C3)
                        1. 02 ABB7 0084 0000:?Run@CBaseMediaFilter@@UEAAJ_J@Z (0043: 00)
                      384889742440488BF1488BCB48897C2448488BFA:
                        0. 02 ABB7 0066 0000:?SetSyncSource@CBaseFilter@@UEAAJPEAUIReferenceClock@@@Z
                    99:
                      180100004889:
                        742440488BF1488D8BB000000048:
                          0. 06 7A30 0070 0000:?EndOfStream@CTransformInputPin@@UEAAJXZ
                        7C2448488BF94881C38800000048:
                          0. 04 758A 00C0 0000:?EndFlush@CTransformInputPin@@UEAAJXZ (009B: C3)
                          1. 04 758A 00C4 0000:?BeginFlush@CTransformInputPin@@UEAAJXZ (009B: 48)
                      60010000488D05........488901488D05:
                        0. 00 0000 00E5 0000:??1CSourceStream@@UEAA@XZ
                    D9:
                      4533C933C94533C033D24889742440FF15:
                        0. 00 0000 00BB 0000:?SynchronousBlockOutputPin@CDynamicOutputPin@@IEAAJXZ
                      48:
                        89742440:
                          418BC848897C2448488BF2418BF8FF:
                            0. 01 54B7 006E 0000:NetpAllocateAndInitializeSid
                          488BF2BAA8000000488BCEFF15:
                            0. 00 0000 00D1 0000:?RegisterPnpNotification@CMSPThread@@QEAAJPEAVCMSPAddress@@@Z
                          B9:
                            0804000048897C2448488BF2E8:
                              0. 00 0000 00E8 0000:?MakePalette@CImagePalette@@SAPEAUHPALETTE__@@PEBUtagVIDEOINFOHEADER@@PEAD@Z
                            2000000048897C2448488BF2498B:
                              0. 02 C9D6 0075 0000:InsertRange
                        8BCA4889742440488BF2FF15........83F8FF:
                          0. 0A BF5D 0063 0000:Dns_Ip4StringToAddress_A
                      8B494883F90B48897424404D63D98BF2448D92FF:
                        0. FF 44AF 037A (l)0000:send_all_trees
                    DA:
                      4889:
                        742440:
                          488BF1488D15........B904000000:
                            0. 06 FC41 0096 0000:AcpisimDispatchIoctl
                          4C8B1B488D15........33C04C3B9A:
                            0. 00 0000 00B1 0000:?NonDelegatingQueryInterface@CBaseRenderer@@UEAAJAEBU_GUID@@PEAPEAX@Z
                        7C2448488BF9BAA8000000488BCBFF15:
                          0. 00 0000 00F4 0000:?UnregisterPnpNotification@CMSPThread@@QEAAJPEAVCMSPAddress@@@Z
                      8A92A402000083E20F488974244048897C24480F:
                        0. 22 5008 0106 0000:SetCompressionType
                  8D:
                    05........488974244048890148897C2448488D79:
                      0. 0B 8B3A 0080 0000:??_GCSeekingPassThru@@UEAAPEAXI@Z
                    59:
                      284889:
                        74244048897C2448488BF9488BCB8BF2FF:
                          0. 01 54B7 008C 0000:?CallWorker@CAMThread@@QEAAKK@Z
                        7C2448488BF9488BCBFF15........488B:
                          0. 36 E992 00F3 0000:?StartThread@CPullPin@@AEAAJXZ
                      384889742440488BF1488BCB48897C2448488BFA:
                        0. 02 ABB7 0064 0000:?SetSyncSource@CBaseStreamControl@@QEAAXPEAUIReferenceClock@@@Z
                    91BC000000488BD9488B89D800000041B810000000:
                      0. 8A 7694 00EC 0000:FDIReadCFFILEEntry
                498B:
                  1848897424404885DB48897C2448488BC2498BF848:
                    0. 19 9456 0084 0000:?AddAfter@CBaseList@@QEAAHPEAU__POSITION@@PEAV1@@Z
                  580848897424404885DB48897C2448488BC2498BF8:
                    0. 1A 0D3A 0085 0000:?AddBefore@CBaseList@@QEAAHPEAU__POSITION@@PEAV1@@Z
                  D84889742440488BF14C8BC1448BCA48897C24488B:
                    0. 04 BE70 00B7 0000:Dns_Assert
                8BD9B96000000048897C2448E8........4885C0488BF8:
                  0. 09 D299 00A1 0000:SaBlob_Create (l)003A:$Failed$51860
                B85B0100004889742440498BF0488BD93BD04C8BC1488D:
                  0. 01 9D2B 0062 (l)0000:_fpcvt
              40:
                33:
                  D248897C2448488BF9E8........488BCFE8:
                    0. 06 684F 003B 0000:estimate_buffer_contents
                  DB6681F9000448897C24480FB7F948895C243877128D:
                    0. 1B 6A12 006C 0000:CM_Is_Version_Available
                41B85800000048897C2448488BFA488BD9E8........44:
                  0. 0D C9C2 0081 0000:?CopyMediaType@@YAJPEAU_AMMediaType@@PEBU1@@Z
                4533DB85D248897C2448418BF9488BD9448BCA0F844201:
                  0. FF 4703 01A0 0000:Dns_UnicodeToUtf8 (l)0184:$OutOfBuffer$51887
                48:
                  63D948897C2448488D3D........4869DB8801000080:
                    0. 10 100B 0076 0000:SmbTraceTerminate
                    1. 16 3FD6 013E 0000:SmbTraceInitialize
                  89:
                    742448:
                      0FB73148897C2420488BF90FB7CEE8:
                        0. 00 0000 0065 0000:FlatRpcRecordConvert
                      48897C2420BF10000000488BD9488D721090:
                        0. 0B BC57 0077 0000:Dns_Ip6AddressToReverseName_A (004B: C3)
                        1. 0B BC57 007A 0000:Dns_Ip6AddressToReverseName_W (004B: 83)
                    7C2448:
                      33FF:
                        48:
                          85C9:
                            488BD948897C2438897C243075:
                              0. 1F 7C7E 0098 0000:Dns_GetKeyVersion
                            7406488D5908EB03488BDF488B:
                              0. 2E D7A6 0052 0000:??1CPosPassThru@@UEAA@XZ
                          877920488BD94885FF7417BAFFFFFF:
                            0. 06 6D84 0074 0000:??1CAMThread@@UEAA@XZ
                        6683FA30440FB7CA4C8BD177:
                          2B0FB7C2:
                            0. 03 A8F1 00BF 0000:Dns_WriteStringForType_W
                          340FB7C2:
                            0. 03 A8F1 00CE 0000:Dns_WriteStringForType_A
                        85D2488BD97411488D05........4889:
                          0. 0B B864 0071 0000:??0CVideoCaptureTerminal@@QEAA@XZ (003F: 24)
                          1. 0B B864 006B 0000:??0CSingleFilterStaticTerminal@@QEAA@XZ (003F: C3)
                      48:
                        890D........488BF9488BDAE8:
                          0. 0B 2F8F 0072 0000:GsDriverEntry_DDK (REF 002B: GsDriverEntry)
                          1. 0B 2F8F 0072 0000:DriverEntry_DDK (REF 002B: DriverEntry)
                        8B:
                          39488BD9E8........83BF9C00000000:
                            0. 25 2683 00EE 0000:Dns_CleanupSessionAndEnlistContext
                          79184885FF488BD9742033C048C7C1FF:
                            0. 0E FFF0 0078 0000:DnssrvCreateDsServerName
                          D9:
                            E8........488BCB8BF8E8:
                              0. 0D 7C4B 003D 0000:?InitialThreadProc@COutputQueue@@KAKPEAX@Z
                            FF15........488B4B28488D7B2848:
                              0. 20 89B1 0076 0000:NetpEventlogClose
                          F9:
                            48:
                              81C1:
                                B0000000FF15........4533:
                                  0. 42 6EA9 007C 0000:?EndFlush@CVideoTransformFilter@@UEAAJXZ
                                E8000000FF15........:
                                  4533:
                                    0. 2B FF60 006D 0000:?StopStreaming@CBaseRenderer@@UEAAJXZ
                                  488B:
                                    0. 24 D9E4 0059 0000:?ClearPendingSample@CBaseRenderer@@UEAAJXZ
                                  83BF:
                                    0. 49 73D7 0093 0000:?SendRepaint@CBaseRenderer@@QEAAXXZ
                                    1. 35 954A 0059 0000:?TimerCallback@CBaseRenderer@@QEAAXXZ
                                F0000000FF15........83:
                                  87:
                                    0. 19 BE9E 0088 0000:?StopUsingOutputPin@CDynamicOutputPin@@UEAAXXZ
                                  BF:
                                    0. 10 EA26 00A7 0000:?UnblockOutputPin@CDynamicOutputPin@@IEAAJXZ
                              83C1:
                                08:
                                  E8........488B5C244048:
                                    0. 02 5E64 0049 0000:??0CSeekingPassThru@@QEAA@PEAGPEAUIUnknown@@PEAJ@Z
                                  FF15........488BCFC787:
                                    0. 09 4FE9 0048 0000:?EndRun@CCmdQueue@@UEAAJXZ
                                28FF15........488BCFE8:
                                  0. 00 0000 0072 0000:?Disconnect@CPullPin@@QEAAJXZ
                                38FF15........4533DB488D:
                                  0. 13 0782 0048 0000:?ResetMediaTime@CRendererPosPassThru@@QEAAJXZ
                              8B:
                                49:
                                  10488BDA4885C9740EFF15:
                                    0. 00 0000 00A4 0000:?Set@CUnicodeString@@QEAAPEAU_UNICODE_STRING@@PEAU2@@Z
                                  20488BDA488B01FF90B00000:
                                    0. 22 DD68 0042 0000:?GetSurfaceDesc@CAggDrawSurface@@UEAAJPEAU_DDSURFACEDESC@@@Z
                                8930010000488BDA488B01FF90:
                                  0. 0F 6125 0042 0000:?CompleteConnect@CRendererInputPin@@UEAAJPEAUIPin@@@Z
                                DAE8........85C078:
                                  13488B8F:
                                    0. 1F 848F 003F 0000:?SetMediaType@CRendererInputPin@@UEAAJPEBVCMediaType@@@Z
                                  15488B8F:
                                    0. 21 A859 0041 0000:?SetMediaType@CTransformInputPin@@UEAAJPEBVCMediaType@@@Z
                                    1. 21 B61B 0041 0000:?CompleteConnect@CTransInPlaceInputPin@@UEAAJPEAUIPin@@@Z
                                  18488B8F:
                                    0. 24 8214 0044 0000:?SetMediaType@CTransformOutputPin@@UEAAJPEBVCMediaType@@@Z
                                    1. 24 9C56 0044 0000:?CompleteConnect@CTransInPlaceOutputPin@@UEAAJPEAUIPin@@@Z
                              8D0D........:
                                488BDA:
                                  E8:
                                    0. 2D BF1B 004D 0000:SQLWriteDSNToIni (REF 0014: ??_C@_0BB@ECPGBBGJ@SQLWriteDSNToIni?$AA@)
                                    1. 2D BF1B 004D 0000:SQLCreateDataSource (REF 0014: ??_C@_0BE@PJJGNIOF@SQLCreateDataSource?$AA@)
                                    2. 2D BF1B 004D 0000:SQLRemoveTranslator (REF 0014: ??_C@_0BE@LOFCNDJA@SQLRemoveTranslator?$AA@)
                                    3. 2D BF1B 004D 0000:SQLWriteDSNToIniW (REF 0014: ??_C@_0BC@MBNGOEHO@SQLWriteDSNToIniW?$AA@)
                                    4. 2D BF1B 004D 0000:SQLCreateDataSourceW (REF 0014: ??_C@_0BF@CFGDELLM@SQLCreateDataSourceW?$AA@)
                                    5. 2D BF1B 004D 0000:SQLRemoveTranslatorW (REF 0014: ??_C@_0BF@FELAKAE@SQLRemoveTranslatorW?$AA@)
                                  FF15:
                                    0. 00 0000 0086 0000:RpcpStartRpcServer
                                FF15........4885:
                                  0. 09 2780 0065 0000:ScreenSaverChangePassword
                            8B:
                              49484883C118FF15........4885:
                                0. 6F D118 00E8 0000:ConvertVideoInfoToVideoInfo2
                              DAE8........F6C301488B5C2440:
                                0. 06 038C 0037 0000:??_GCAudioRenderTerminal@@UEAAPEAXI@Z (REF 0014: ??1CAudioRenderTerminal@@UEAA@XZ)
                                1. 06 038C 0037 0000:??_GCAudioCaptureTerminal@@UEAAPEAXI@Z (REF 0014: ??1CAudioCaptureTerminal@@UEAA@XZ)
                                2. 06 038C 0037 0000:??_GCImageAllocator@@UEAAPEAXI@Z (REF 0014: ??1CBaseAllocator@@UEAA@XZ)
                                3. 06 038C 0037 0000:??_GCImageSample@@UEAAPEAXI@Z (REF 0014: ??1CMediaSample@@UEAA@XZ)
                                4. 06 038C 0037 (!)0000:? (REF 0014: ??1CBaseInputPin@@UEAA@XZ)
                                5. 06 038C 0037 0000:??_GCTransInPlaceOutputPin@@UEAAPEAXI@Z (REF 0014: ??1CTransformOutputPin@@UEAA@XZ)
                                6. 06 038C 0037 0000:??_GCSystemClock@@UEAAPEAXI@Z (REF 0014: ??1CBaseReferenceClock@@MEAA@XZ)
                                7. 06 038C 0037 0000:??_GCSourceStream@@UEAAPEAXI@Z (REF 0014: ??1CSourceStream@@UEAA@XZ)
                                8. 06 038C 0037 0000:??_GCBaseRenderer@@UEAAPEAXI@Z (REF 0014: ??1CBaseRenderer@@UEAA@XZ)
                                9. 06 038C 0037 0000:??_G?$CGenericList@UIMediaSample@@@@QEAAPEAXI@Z (REF 0014: ??1CBaseList@@QEAA@XZ)
                                10. 06 038C 0037 0000:??_GCMemAllocator@@UEAAPEAXI@Z (REF 0014: ??1CMemAllocator@@UEAA@XZ)
                            B9:
                              18000000E8........4885C0488B:
                                0. 07 BFE7 00AB 0000:Dns_CopyCredentials (l)0053:$Failed$51989
                              500000008BDAE8........4885C0:
                                0. 07 98AB 0051 0000:HostentBlob_CreateAttachExisting
                              58000000FF15........4885C048:
                                0. 11 84F1 009E 0000:?CreateMediaType@@YAPEAU_AMMediaType@@PEBU1@@Z
                            BBFFFFFFFFF00FC15908FFCB752A48:
                              0. 07 84AA 005A 0000:?Release@?$CComObject@VCPTEventSink@@@ATL@@UEAAKXZ
                            FF15........488B4F28488D5F2848:
                              0. 20 6ABD 0064 0000:NetpEventlogClearList
                          FA:
                            33D241B890000000488BD9E8:
                              0. 00 0000 0033 0000:Dns_InitSecurityPacketInfo
                            E8........488D15........B90400:
                              0. 06 17DB 00C8 0000:AcpisimPowerSIrp
                        C7C7FFFFFFFF488BD96666669066666690:
                          0. 02 8543 008C 0000:atof
                      8B:
                        DAFF15........83FB028BF87531FF15:
                          0. 00 0000 005D 0000:?_MMCHookPropSheetPageProc@@YAIPEAUHWND__@@IPEAU_PROPSHEETPAGEW@@@Z
                        F9:
                          488D0D........488BDAE8........48:
                            0. 2C 39C0 004C 0000:SQLPostInstallerError (REF 0013: ??_C@_0BG@CDCFGBML@SQLPostInstallerError?$AA@)
                            1. 2C 39C0 004C 0000:SQLPostInstallerErrorW (REF 0013: ??_C@_0BH@PJGPPFMK@SQLPostInstallerErrorW?$AA@)
                          8BC9E8........4885C0488BD8750F48:
                            0. 17 A53D 004D 0000:DnssrvMidlAllocZero
                          B900000200488BDAFF15........8BCF:
                            0. 02 ABB7 005D 0000:tkDrawStr
                        FA498BD0488BD9E8........4885DB7504:
                          0. 24 9050 0048 0000:Dns_DbgHeapFreeEx
                      BFFFFFFFFF488BD9F00FC17930FFCF754E48:
                        0. 0E 8722 007E 0000:?Release@?$CComObject@V?$CComEnum@UIEnumTerminalClass@@$1?IID_IEnumTerminalClass@@3U_GUID@@BU3@V?$_Copy@U_GUID@@@ATL@@VCComMultiThreadModel@5@@ATL@@@ATL@@UEAAKXZ
                      C681AD090000008BFA488BD9C781B0090000:
                        0. 05 75AF 005F (l)0000:block_end
                  8B:
                    1948897C2448:
                      0FB703488BF9663D5C007406663D2F:
                        0. 06 7AAD 009A (l)0000:ParseLocalDevicePrefix
                      4885DB:
                        488BF9741866669066666690:
                          0. 08 4D68 004C 0000:?RemoveAll@CBaseList@@QEAAXXZ (0023: C3)
                          1. 08 4D68 006B 0000:??1CBaseList@@QEAA@XZ (0023: 66)
                        498BF87473483B5310730448:
                          0. 38 ED1E 009D 0000:JoinRange
                    1A48897C2448488B398B470485C0784D83F8017E0B:
                      0. 2B B1E9 00CD 0000:NetpCompareFtinfoEntryDns
                    59:
                      0848897C24484885DB488BF9743E488B0B4885C9:
                        0. 06 BAA3 0067 0000:ScHelperRelease
                      2848897C2448488BF9488BCBFF15........:
                        4533:
                          0. 13 BFA5 0053 0000:?EndFlush@CRenderedInputPin@@UEAAJXZ
                        488B:
                          0. 0E 60F5 0043 0000:?EndFlush@CBaseInputPin@@UEAAJXZ
                          1. 0A C5D5 003F 0000:?BeginFlush@CBaseInputPin@@UEAAJXZ
                      3048897C2448488BF9488BCBFF15........488B:
                        0. 0A 1CD9 003F 0000:?Stop@CBaseMediaFilter@@UEAAJXZ
                        1. 0A 37DD 003F 0000:?Pause@CBaseMediaFilter@@UEAAJXZ
                      5048897C2448488BF9488BCBFF15........448B:
                        0. 1C 0E90 0051 0000:?IsActive@CBaseFilter@@QEAAHXZ
                    9AB800000048897C2448488BFAE8........8A0B84:
                      0. 10 BAF9 006E 0000:AcpisimCreateClose
                    D9:
                      0FB6CA41B80100000048897C24480FB6FA41D3E0:
                        0. 5A 12AE 00A3 0000:DComp_Init
                      48:
                        83C1:
                          2048897C24488BFAE8........4885DB74:
                            0. 13 9C26 0057 0000:??_GCBaseControlVideo@@UEAAPEAXI@Z
                          3848897C2448FF15........33FF4885DB:
                            0. 3B 58F3 005F 0000:??1CRendererPosPassThru@@UEAA@XZ
                        897C2448:
                          0FB779100FB7CFE8........6685C0:
                            0. 05 D4AA 0075 0000:DnsConvertRecordToRpcBuffer
                          33:
                            C048C7C1FFFFFFFF488BFB66F2AF:
                              0. 0E C051 006B 0000:NetpAllocWStrFromWStr
                            FF:
                              4883C138488979E8488979E048:
                                0. 0F 7413 0049 (!)0000:? (0019: C3)
                                1. 0F 7413 005A 0000:??0?$CComObject@V?$CSafeComEnum@UIEnumVARIANT@@$1?IID_IEnumVARIANT@@3U_GUID@@BUtagVARIANT@@V?$_Copy@UtagVARIANT@@@ATL@@VCComMultiThreadModel@6@@@@ATL@@QEAA@PEAX@Z (0019: 48) (REF 0036: ??_7?$CComObject@V?$CSafeComEnum@UIEnumVARIANT@@$1?IID_IEnumVARIANT@@3U_GUID@@BUtagVARIANT@@V?$_Copy@UtagVARIANT@@@ATL@@VCComMultiThreadModel@6@@@@ATL@@6B@)
                                2. 0F 7413 005A 0000:??0?$CComObject@V?$CSafeComEnum@UIEnumTerminal@@$1?IID_IEnumTerminal@@3U_GUID@@BPEAUITTerminal@@V?$_CopyInterface@UITTerminal@@@ATL@@VCComMultiThreadModel@6@@@@ATL@@QEAA@PEAX@Z (0019: 48) (REF 0036: ??_7?$CComObject@V?$CSafeComEnum@UIEnumTerminal@@$1?IID_IEnumTerminal@@3U_GUID@@BPEAUITTerminal@@V?$_CopyInterface@UITTerminal@@@ATL@@VCComMultiThreadModel@6@@@@ATL@@6B@)
                                3. 0F 7413 005A 0000:??0?$CComObject@V?$CSafeComEnum@UIEnumPluggableSuperclassInfo@@$1?IID_IEnumPluggableSuperclassInfo@@3U_GUID@@BPEAUITPluggableTerminalSuperclassInfo@@V?$_CopyInterface@UITPluggableTerminalSuperclassInfo@@@ATL@@VCComMultiThreadModel@6@@@@ATL@@QEAA@PEAX@Z (0019: 48) (REF 0036: ??_7?$CComObject@V?$CSafeComEnum@UIEnumPluggableSuperclassInfo@@$1?IID_IEnumPluggableSuperclassInfo@@3U_GUID@@BPEAUITPluggableTerminalSuperclassInfo@@V?$_CopyInterface@UITPluggableTerminalSuperclassInfo@@@ATL@@VCComMultiThreadModel@6@@@@ATL@@6B@)
                                4. 0F 7413 005A 0000:??0?$CComObject@V?$CSafeComEnum@UIEnumPluggableTerminalClassInfo@@$1?IID_IEnumPluggableTerminalClassInfo@@3U_GUID@@BPEAUITPluggableTerminalClassInfo@@V?$_CopyInterface@UITPluggableTerminalClassInfo@@@ATL@@VCComMultiThreadModel@6@@@@ATL@@QEAA@PEAX@Z (0019: 48) (REF 0036: ??_7?$CComObject@V?$CSafeComEnum@UIEnumPluggableTerminalClassInfo@@$1?IID_IEnumPluggableTerminalClassInfo@@3U_GUID@@BPEAUITPluggableTerminalClassInfo@@V?$_CopyInterface@UITPluggableTerminalClassInfo@@@ATL@@VCComMultiThreadModel@6@@@@ATL@@6B@)
                                5. 0F 7413 005A 0000:??0?$CComObject@V?$CSafeComEnum@UIEnumTerminalClass@@$1?IID_IEnumTerminalClass@@3U_GUID@@BU3@V?$_Copy@U_GUID@@@ATL@@VCComMultiThreadModel@5@@@@ATL@@QEAA@PEAX@Z (0019: 48) (REF 0036: ??_7?$CComObject@V?$CSafeComEnum@UIEnumTerminalClass@@$1?IID_IEnumTerminalClass@@3U_GUID@@BU3@V?$_Copy@U_GUID@@@ATL@@VCComMultiThreadModel@5@@@@ATL@@6B@)
                                6. 0F 7413 005A 0000:??0?$CComObject@V?$CSafeComEnum@UIEnumStream@@$1?IID_IEnumStream@@3U_GUID@@BPEAUITStream@@V?$_CopyInterface@UITStream@@@ATL@@VCComMultiThreadModel@6@@@@ATL@@QEAA@PEAX@Z (0019: 48) (REF 0036: ??_7?$CComObject@V?$CSafeComEnum@UIEnumStream@@$1?IID_IEnumStream@@3U_GUID@@BPEAUITStream@@V?$_CopyInterface@UITStream@@@ATL@@VCComMultiThreadModel@6@@@@ATL@@6B@)
                              897918488D0D........E8:
                                0. 00 0000 0053 0000:??0CTapiBstrCollection@@QEAA@XZ (0032: C3)
                                1. 00 0000 005A 0000:??0?$CComObject@VCTapiBstrCollection@@@ATL@@QEAA@PEAX@Z (0032: 5C)
                          488BFA488D15........B904000000:
                            0. 01 3E9B 0068 0000:AcpisimDispatchSystemControl
                        8B:
                          094885C9:
                            48897C24488BFA740F33D2FF15:
                              0. 00 0000 004A 0000:??_GCSCLogonInit@@QEAAPEAXI@Z
                            750C33C0488B5C24404883C428C3:
                              0. 54 D7BB 008D 0000:?RemoveHeadI@CBaseList@@IEAAPEAXXZ
                          49:
                            084885C9:
                              48897C2448BF01000000740E48:
                                0. 04 5735 0057 0000:FCIDestroy
                              750C33C0488B5C24404883C428:
                                0. 55 C43D 008E 0000:?RemoveTailI@CBaseList@@IEAAPEAXXZ
                            10:
                              33D241B80000040048897C2448E8:
                                0. 00 0000 0217 0000:init_compression_memory
                              48:
                                85C948897C2448:
                                  418BF874614885D2:
                                    0. 12 1E01 008F 0000:?OnPaletteChange@CBaseWindow@@MEAA_JPEAUHWND__@@I@Z
                                  488BFA740EFF15:
                                    0. 00 0000 008C 0000:?Set@CUnicodeString@@QEAAPEBGPEBG@Z
                                897C244833FF4885C9740AFF93A843:
                                  0. AA 51B8 00E3 0000:comp_free_compress_memory
                                8B0148897C24488BFAFF50283B4318:
                                  0. 4D 1CBF 006D 0000:?Skip@CEnumPins@@UEAAJK@Z
                            184885C948897C2448488BFA740EFF15:
                              0. 00 0000 0089 0000:?Set@CUnicodeString@@QEAAPEBDPEBD@Z
                            304885C97406488B01FF501048837B5800:
                              0. 0C 0E6E 00DA 0000:??1COutputQueue@@QEAA@XZ
                            504885C948897C2448488BFA740DE8:
                              0. 00 0000 0082 0000:?SetMediaType@CMediaSample@@UEAAJPEAU_AMMediaType@@@Z
                          89:
                            182B00004885C948897C2448498BC04863:
                              0. 0A 512F 0064 0000:copy_data_to_output
                            30010000488B0148897C2448488BFAFF50:
                              0. 56 E7B0 0076 0000:?CheckMediaType@CTransformInputPin@@UEAAJPEBVCMediaType@@@Z
                            38010000488B0148897C2448488BFAFF50:
                              0. 47 478D 0067 0000:?CheckMediaType@CTransInPlaceInputPin@@UEAAJPEBVCMediaType@@@Z
                        8D0D........48897C2448:
                          BF05400080FF15:
                            0. 00 0000 006D 0000:?InitialThreadProc@CAMThread@@SAKPEAX@Z
                          E8........488D4B:
                            0. 08 570C 008A 0000:??0CPlugTerminalClassInfo@@QEAA@XZ (003C: 00)
                            1. 08 570C 0065 0000:??0CPlugTerminalSuperclassInfo@@QEAA@XZ (003C: C3)
                            2. 08 570C 0081 0000:??0?$CComObject@VCPlugTerminalSuperclassInfo@@@ATL@@QEAA@PEAX@Z (003C: 80)
                            3. 08 570C 00A6 0000:??0?$CComObject@VCPlugTerminalClassInfo@@@ATL@@QEAA@PEAX@Z (003C: 48)
                      66666690488BCBE8........85C0740FBAFFFF00:
                        0. 05 43D6 00ED 0000:?ThreadProc@CSourceStream@@MEAAKXZ
                      B90000020048897C2448:
                        8BFAFF15........8B0D:
                          0. 00 0000 007B 0000:auxDrawStrAW
                        FF15........8B0D:
                          0. 00 0000 005F 0000:auxDrawStrA (003A: 25)
                          1. 00 0000 0060 0000:auxDrawStrW (003A: FF)
                      FF15........:
                        837B5000745748897C2448666690:
                          0. 1D 82D6 0080 0000:?Free@CImageAllocator@@MEAAXXZ
                        85C00F843C0100000FB70348897C:
                          0. 15 56B6 017F (l)0000:ConvertDeviceName
                    DA:
                      0FB7520248897C2448488BF941B84172624C48C1:
                        0. 09 E744 0085 0000:ArbCopyOrderingList
                      33D2448D425848897C2448488BF9E8........C7:
                        0. 35 D0F3 0055 0000:??0CMediaType@@QEAA@PEBU_GUID@@@Z
                      48:
                        897C2448488BF9:
                          488B490833D2FF15:
                            0. 33 4C5E 0053 0000:?CheckRequest@CAMThread@@QEAAHPEAK@Z
                          BA08000000488BCBFF15:
                            0. 00 0000 0053 0000:?Clone@?$CSafeComEnum@UIEnumVARIANT@@$1?IID_IEnumVARIANT@@3U_GUID@@BUtagVARIANT@@V?$_Copy@UtagVARIANT@@@ATL@@VCComMultiThreadModel@6@@@EEAAJPEAPEAUIEnumVARIANT@@@Z (REF 004F: ?Clone@?$CComEnumImpl@UIEnumVARIANT@@$1?IID_IEnumVARIANT@@3U_GUID@@BUtagVARIANT@@V?$_Copy@UtagVARIANT@@@ATL@@@ATL@@UEAAJPEAPEAUIEnumVARIANT@@@Z)
                            1. 00 0000 0053 0000:?Clone@?$CSafeComEnum@UIEnumTerminal@@$1?IID_IEnumTerminal@@3U_GUID@@BPEAUITTerminal@@V?$_CopyInterface@UITTerminal@@@ATL@@VCComMultiThreadModel@6@@@EEAAJPEAPEAUIEnumTerminal@@@Z (REF 004F: ?Clone@?$CComEnumImpl@UIEnumTerminal@@$1?IID_IEnumTerminal@@3U_GUID@@BPEAUITTerminal@@V?$_CopyInterface@UITTerminal@@@ATL@@@ATL@@UEAAJPEAPEAUIEnumTerminal@@@Z)
                            2. 00 0000 0053 0000:?Clone@?$CSafeComEnum@UIEnumStream@@$1?IID_IEnumStream@@3U_GUID@@BPEAUITStream@@V?$_CopyInterface@UITStream@@@ATL@@VCComMultiThreadModel@6@@@EEAAJPEAPEAUIEnumStream@@@Z (REF 004F: ?Clone@?$CComEnumImpl@UIEnumStream@@$1?IID_IEnumStream@@3U_GUID@@BPEAUITStream@@V?$_CopyInterface@UITStream@@@ATL@@@ATL@@UEAAJPEAPEAUIEnumStream@@@Z)
                            3. 00 0000 0053 0000:?Clone@?$CSafeComEnum@UIEnumPluggableSuperclassInfo@@$1?IID_IEnumPluggableSuperclassInfo@@3U_GUID@@BPEAUITPluggableTerminalSuperclassInfo@@V?$_CopyInterface@UITPluggableTerminalSuperclassInfo@@@ATL@@VCComMultiThreadModel@6@@@EEAAJPEAPEAUIEnumPluggableSuperclassInfo@@@Z (REF 004F: ?Clone@?$CComEnumImpl@UIEnumPluggableSuperclassInfo@@$1?IID_IEnumPluggableSuperclassInfo@@3U_GUID@@BPEAUITPluggableTerminalSuperclassInfo@@V?$_CopyInterface@UITPluggableTerminalSuperclassInfo@@@ATL@@@ATL@@UEAAJPEAPEAUIEnumPluggableSuperclassInfo@@@Z)
                            4. 00 0000 0053 0000:?Clone@?$CSafeComEnum@UIEnumPluggableTerminalClassInfo@@$1?IID_IEnumPluggableTerminalClassInfo@@3U_GUID@@BPEAUITPluggableTerminalClassInfo@@V?$_CopyInterface@UITPluggableTerminalClassInfo@@@ATL@@VCComMultiThreadModel@6@@@EEAAJPEAPEAUIEnumPluggableTerminalClassInfo@@@Z (REF 004F: ?Clone@?$CComEnumImpl@UIEnumPluggableTerminalClassInfo@@$1?IID_IEnumPluggableTerminalClassInfo@@3U_GUID@@BPEAUITPluggableTerminalClassInfo@@V?$_CopyInterface@UITPluggableTerminalClassInfo@@@ATL@@@ATL@@UEAAJPEAPEAUIEnumPluggableTerminalClassInfo@@@Z)
                            5. 00 0000 0053 0000:?Clone@?$CSafeComEnum@UIEnumTerminalClass@@$1?IID_IEnumTerminalClass@@3U_GUID@@BU3@V?$_Copy@U_GUID@@@ATL@@VCComMultiThreadModel@5@@@EEAAJPEAPEAUIEnumTerminalClass@@@Z (REF 004F: ?Clone@?$CComEnumImpl@UIEnumTerminalClass@@$1?IID_IEnumTerminalClass@@3U_GUID@@BU3@V?$_Copy@U_GUID@@@ATL@@@ATL@@UEAAJPEAPEAUIEnumTerminalClass@@@Z)
                        8BD1488B490848897C2448E8........4885C0:
                          0. 31 1259 009D 0000:ScHelperGenRandBits
                        8D15........4C8B1B4533C948897C24484C3B:
                          0. 01 ABCB 00B0 0000:?NonDelegatingQueryInterface@CBaseAllocator@@UEAAJAEBU_GUID@@PEAPEAX@Z
                  8D:
                    05........488BD9488901488B49:
                      1048897C244848:
                        0. 17 F85A 005B 0000:??_G_com_error@@UEAAPEAXI@Z
                      5048897C244848:
                        0. 07 B548 004B 0000:??_GCMediaSample@@UEAAPEAXI@Z
                    422948897C2448493BC0488BDA488BF9761CB9EA00:
                      0. 04 3244 0069 0000:Atma_RecordWrite
                    597848897C2448488BF9488BCBFF15........4C8B:
                      0. 0B 7D49 0041 0000:?GetNextAdviseTime@CAMSchedule@@QEAA_JXZ
                    99:
                      8800000048897C2448488BF9488BCBFF15:
                        0. 00 0000 003E 0000:?GetPinCount@CSource@@UEAAHXZ
                      E800000048897C2448488BF9488BCBFF15:
                        0. 00 0000 005A 0000:?GetCurrentSample@CBaseRenderer@@UEAAPEAUIMediaSample@@XZ (0037: C4)
                        1. 00 0000 0095 0000:?NotifyEndOfStream@CBaseRenderer@@QEAAJXZ (0037: E8)
                        2. 00 0000 00B7 0000:?StartStreaming@CBaseRenderer@@UEAAJXZ (0037: 28)
                      F000000048897C2448488BF9488BCBFF15:
                        0. 00 0000 0047 0000:?StreamingThreadUsingOutputPin@CDynamicOutputPin@@UEAA_NXZ
                4C:
                  8BC2488BDA48897C2448488BF9488B89:
                    30010000488B:
                      0. 14 1CAB 0047 0000:?CheckConnect@CTransformInputPin@@UEAAJPEAUIPin@@@Z
                      1. 14 2144 0047 0000:?CompleteConnect@CTransformInputPin@@UEAAJPEAUIPin@@@Z
                    E8000000488B:
                      0. 17 604E 004A 0000:?CompleteConnect@CTransformOutputPin@@UEAAJPEAUIPin@@@Z
                  8D411848897C244833FF41F60002488BD9743A448B4B:
                    0. 15 4C5D 0096 (l)0000:TypeParseLeadSlashName
                4D8BD84C8B0248897C2448488D3D........488BC133C9:
                  0. 03 A4C7 0150 0000:?NonDelegatingQueryInterface@CBaseFilter@@UEAAJAEBU_GUID@@PEAPEAX@Z
                8BD9488D0D........48897C2448FF15........4885C0:
                  0. 10 4545 00E7 0000:NetpUpdateDnsRegistrations
                E8........4885C0488BD8750A488B5C24404883C428C3:
                  0. 0B 1A83 0144 0000:tkRGBImageLoadAW
              4848:
                897C2420:
                  33FF4585C0488BD97411488D05........48:
                    0. 0C CB2A 0079 0000:??0?$CComObject@VCVideoCaptureTerminal@@@ATL@@QEAA@PEAX@Z
                  488BF966B92900E8........4885C0488BD8:
                    0. 4F 6853 00B3 0000:AtmaRecordCopy
                8BD90FB7491248897C2420E8........4885C0488BF8:
                  0. 1F 9491 0055 0000:FlatRecordCopy
            6C243848:
              89742440:
                33ED4D85C948897C2448498BF0488BF97403:
                  0. D9 4CA0 00F9 (!)0000:?
                48:
                  897C2448:
                    0FB77920488BF10FB74910488B:
                      0. 0D 48F0 00B0 0000:Txt_RecordWrite
                    33ED4D85C04C89642420498BF8:
                      0. 21 9CE3 0152 0000:Dns_UnionOfIpArrays
                    488BFA48895C2430488BF133ED:
                      0. 0D B509 01AE 0000:ArbGetNextAllocationRange
                    4C89642420BF02000000C6817C:
                      0. 3D 76FA 00B0 0000:create_slot_lookup_table
                  8BF1:
                    48:
                      83C17048897C2448FF15:
                        0. 3F E909 00E8 0000:?Pause@CTransformFilter@@UEAAJXZ
                      8B4958488B01FF903801000085C0:
                        0. 1B 39F3 00E5 0000:?Receive@CRendererInputPin@@UEAAJPEAUIMediaSample@@@Z
                    FF15........33D241B80002000048:
                      0. 06 FD6F 0077 0000:UpdateAllDpcStackLimits
              8BE948:
                89742440B92800000048897C2448488BF2E8:
                  0. 00 0000 0091 0000:?CreateInstance@CSeekingPassThru@@SAPEAVCUnknown@@PEAUIUnknown@@PEAJ@Z
                8B094885C9740D4881C198000000FF15:
                  0. 00 0000 0106 0000:?RemovePalette@CImagePalette@@QEAAJXZ
              8D05........488974244048890148897C2448488BF9:
                0. 08 8A86 00D0 0000:??_GCAMSchedule@@UEAAPEAXI@Z
            742440:
              33F6483935........0F84170100003935........4889:
                0. 11 C6F0 01CB 0000:CleanUp
              41C60000488379080048897C2448498BF84C8D41088BF2:
                0. 1F CA25 007A 0000:Dns_WriteStringsForFlag
              48:
                63B1D009000048897C2448443BC6488BC2488BF97F44:
                  0. 1D 6AE7 00B4 (l)0000:read_input_data
                897C2448:
                  33FF:
                    397910488BF1765A48895C2438488BDF:
                      0. 3E CBDA 0088 0000:??1CDispParams@@QEAA@XZ
                    4885C9488BF10F84A00000000FB7410C:
                      0. 38 2819 00CE 0000:DnsAddrArray_CreateIp4Array (l)00AD:$Done$52456
                  488BF9:
                    48895C2438488BF266669066666690:
                      0. 06 A0D7 0050 (l)0000:_whiteout
                    8B892801000033F685C9740CFF15:
                      0. 00 0000 0071 0000:?ResetEndOfStream@CBaseRenderer@@UEAAJXZ
                    BEFFFFFFFFF00FC17130FFCE757E48:
                      0. 0E 48B1 00AE 0000:?Release@?$CComObject@V?$CComEnum@UIEnumTerminal@@$1?IID_IEnumTerminal@@3U_GUID@@BPEAUITTerminal@@V?$_CopyInterface@UITTerminal@@@ATL@@VCComMultiThreadModel@6@@ATL@@@ATL@@UEAAKXZ (REF 002E: ??_7?$CComObject@V?$CComEnum@UIEnumTerminal@@$1?IID_IEnumTerminal@@3U_GUID@@BPEAUITTerminal@@V?$_CopyInterface@UITTerminal@@@ATL@@VCComMultiThreadModel@6@@ATL@@@ATL@@6B@)
                      1. 0E 48B1 00AE 0000:?Release@?$CComObject@V?$CComEnum@UIEnumStream@@$1?IID_IEnumStream@@3U_GUID@@BPEAUITStream@@V?$_CopyInterface@UITStream@@@ATL@@VCComMultiThreadModel@6@@ATL@@@ATL@@UEAAKXZ (REF 002E: ??_7?$CComObject@V?$CComEnum@UIEnumStream@@$1?IID_IEnumStream@@3U_GUID@@BPEAUITStream@@V?$_CopyInterface@UITStream@@@ATL@@VCComMultiThreadModel@6@@ATL@@@ATL@@6B@)
                      2. 0E 48B1 00AE 0000:?Release@?$CComObject@V?$CComEnum@UIEnumPluggableSuperclassInfo@@$1?IID_IEnumPluggableSuperclassInfo@@3U_GUID@@BPEAUITPluggableTerminalSuperclassInfo@@V?$_CopyInterface@UITPluggableTerminalSuperclassInfo@@@ATL@@VCComMultiThreadModel@6@@ATL@@@ATL@@UEAAKXZ (REF 002E: ??_7?$CComObject@V?$CComEnum@UIEnumPluggableSuperclassInfo@@$1?IID_IEnumPluggableSuperclassInfo@@3U_GUID@@BPEAUITPluggableTerminalSuperclassInfo@@V?$_CopyInterface@UITPluggableTerminalSuperclassInfo@@@ATL@@VCComMultiThreadModel@6@@ATL@@@ATL@@6B@)
                      3. 0E 48B1 00AE 0000:?Release@?$CComObject@V?$CComEnum@UIEnumPluggableTerminalClassInfo@@$1?IID_IEnumPluggableTerminalClassInfo@@3U_GUID@@BPEAUITPluggableTerminalClassInfo@@V?$_CopyInterface@UITPluggableTerminalClassInfo@@@ATL@@VCComMultiThreadModel@6@@ATL@@@ATL@@UEAAKXZ (REF 002E: ??_7?$CComObject@V?$CComEnum@UIEnumPluggableTerminalClassInfo@@$1?IID_IEnumPluggableTerminalClassInfo@@3U_GUID@@BPEAUITPluggableTerminalClassInfo@@V?$_CopyInterface@UITPluggableTerminalClassInfo@@@ATL@@VCComMultiThreadModel@6@@ATL@@@ATL@@6B@)
                8D0D........48897C244833F6FF15........488B3D:
                  0. 00 0000 00DA 0000:Dns_FreeSecurityContextList (l)00B8:$Done$55297
            7C2448488B:
              F9488B:
                49:
                  104885C97415BAFFFFFFFFFF15:
                    0. 06 8880 0097 0000:??1CMsgThread@@QEAA@XZ
                  284885C9750FB8FFFF0080488B7C244848:
                    0. 10 4DAD 0088 0000:?Deactivate@CBasePropertyPage@@UEAAJXZ
                  784885C97406488B01FF501048896C2438:
                    0. 5F C9E2 00C0 0000:??1CDeferredCommand@@UEAA@XZ
                89100100004885C97411488B01FF501048C7:
                  0. 4F F38E 00D1 0000:?BreakConnect@CBaseRenderer@@UEAAJXZ
              FA41B89000000033D24C896424204C8BE1E8:
                0. 00 0000 0156 0000:__lc_strtolc
          8B:
            01:
              48:
                89:
                  5C24:
                    3048896C2438488974244048897C2448498BE8488B:
                      0. D2 9820 00F2 0000:?AttemptConnection@CBasePin@@IEAAJPEAUIPin@@PEBVCMediaType@@@Z
                    3848897C2448810800400000F6411802488BD90F84:
                      0. 25 BBCF 0130 (l)0000:TypeParseDevPath
                  6C243848897424404C89642420488BF14C8BE2FF903001:
                    0. 51 E3FD 0187 0000:?Receive@CBaseRenderer@@UEAAJPEAUIMediaSample@@@Z
                8B91E00000004C8D81D800000048895C244048897C244848:
                  0. 39 29E0 0059 0000:?CompleteConnect@CDynamicOutputPin@@UEAAJPEAUIPin@@@Z
              FF907801000033C04883C428C3:
                0. 00 0000 0014 0000:?OnStartStreaming@CBaseVideoRenderer@@UEAAJXZ
            0248895C24:
              3048896C2438488BEA4889742440498BF0488BD948:
                0. 5F 9014 007F 0000:?GetSampleTimes@CBaseRenderer@@UEAAJPEAUIMediaSample@@PEA_J1@Z
              4048:
                897C2448488BF9488BCA488BDAFF5008488B8F:
                  0. 25 9F81 0045 0000:?SetAllocator@CTransInPlaceOutputPin@@QEAAXPEAUIMemAllocator@@@Z
                8BDA488D54243048897C2448488BF9488BCBFF:
                  0. 2E ACE5 006F 0000:?CheckConnect@CBaseOutputPin@@UEAAJPEAUIPin@@@Z
            05........:
              48:
                39027522488B05........4839420875154885C9:
                  0. 23 28FF 0043 0000:?NonDelegatingQueryInterface@CUnknown@@UEAAJAEBU_GUID@@PEAPEAX@Z
                837808007420E8........4C8B1D........498B:
                  0. 09 B587 0037 0000:DnsDbg_Flush
                85C0:
                  7402FFD04883C428C3:
                    0. 00 0000 0017 0000:DDK_KeReleaseInStackQueuedSpinLock (REF 0007: ReleaseInStackQueued)
                    1. 00 0000 0017 0000:DDK_KeReleaseInStackQueuedSpinLockFromDpcLevel (REF 0007: ReleaseInStackQueuedFromDpc)
                  75:
                    0CE8........488B05........4883C428:
                      0. 01 EF04 0021 0000:TmpGetComputerNameW (REF 0007: pGlobalComputerNameU)
                      1. 01 EF04 0021 0000:TmpGetComputerNameA (REF 0007: pGlobalComputerNameA)
                    14488D0D........FF15........488905:
                      0. 00 0000 0029 0000:?LoadOLEAut32@@YAPEAUHINSTANCE__@@XZ
                89:
                  44241045:
                    33D24885C94C8BC9C74424080000FF:
                      0. 68 C2BF 00C7 0000:Ip6Array_AddIp4
                    85C00FB7024C8BD17405413BC07576:
                      0. 7E 3C3E 00FB 0000:Ip6Array_AddSockaddr
                  5C24:
                    3048896C24384885C0488974244048897C:
                      0. 13 0D27 00CA 0000:tapiRequestMakeCall (REF 0007: ?lpfn@?1??tapiRequestMakeCall@@9@9)
                      1. 13 0D27 00CA 0000:tapiRequestMakeCallW (REF 0007: ?lpfn@?1??tapiRequestMakeCallW@@9@9)
                      2. 13 0D27 00CA 0000:tapiRequestMakeCallA (REF 0007: ?lpfn@?1??tapiRequestMakeCallA@@9@9)
                      3. 11 183B 00BF 0000:lineRegisterRequestRecipient (008D: C3) (REF 0007: ?lpfn@?1??lineRegisterRequestRecipient@@9@9)
                      4. 11 183B 00BF 0000:lineSetAgentSessionState (008D: C3) (REF 0007: ?lpfn@?1??lineSetAgentSessionState@@9@9)
                      5. 11 183B 00BF 0000:lineSetAgentState (008D: C3) (REF 0007: ?lpfn@?1??lineSetAgentState@@9@9)
                      6. 11 183B 00BF 0000:lineSetAgentStateEx (008D: C3) (REF 0007: ?lpfn@?1??lineSetAgentStateEx@@9@9)
                      7. 11 183B 00C6 0000:phoneSetStatusMessages (008D: 5C)
                      8. 12 27DA 00C1 0000:lineCompleteCall
                      9. 11 6A6A 00BF 0000:lineGetProxyStatus (REF 0007: ?lpfn@?1??lineGetProxyStatus@@9@9)
                      10. 11 6A6A 00BF 0000:lineGetNewCalls (REF 0007: ?lpfn@?1??lineGetNewCalls@@9@9)
                      11. 11 8660 00BF 0000:lineUnpark (REF 0007: ?lpfn@?1??lineUnpark@@9@9)
                      12. 11 8660 00BF 0000:linePark (REF 0007: ?lpfn@?1??linePark@@9@9)
                      13. 11 8660 00BF 0000:lineUnparkA (REF 0007: ?lpfn@?1??lineUnparkA@@9@9)
                      14. 11 8660 00BF 0000:lineUnparkW (REF 0007: ?lpfn@?1??lineUnparkW@@9@9)
                      15. 11 8660 00BF 0000:lineParkA (REF 0007: ?lpfn@?1??lineParkA@@9@9)
                      16. 11 8660 00BF 0000:lineParkW (REF 0007: ?lpfn@?1??lineParkW@@9@9)
                      17. 12 8BA7 00C1 0000:lineCreateAgentA (008E: C3) (REF 0007: ?lpfn@?1??lineCreateAgentA@@9@9)
                      18. 12 8BA7 00C1 0000:lineCreateAgentW (008E: C3) (REF 0007: ?lpfn@?1??lineCreateAgentW@@9@9)
                      19. 12 8BA7 00C8 0000:phoneGetStatusMessages (008E: 5C)
                      20. 12 E38A 00C1 0000:lineSetDevConfigA (REF 0007: ?lpfn@?1??lineSetDevConfigA@@9@9)
                      21. 12 E38A 00C1 0000:lineSetDevConfig (REF 0007: ?lpfn@?1??lineSetDevConfig@@9@9)
                      22. 12 E38A 00C1 0000:lineSetDevConfigW (REF 0007: ?lpfn@?1??lineSetDevConfigW@@9@9)
                      23. 11 F431 00BF 0000:lineCompleteTransfer (008D: C3) (REF 0007: ?lpfn@?1??lineCompleteTransfer@@9@9)
                      24. 11 F431 00BF 0000:lineSetTollList (008D: C3) (REF 0007: ?lpfn@?1??lineSetTollList@@9@9)
                      25. 11 F431 00BF 0000:lineSetTollListW (008D: C3) (REF 0007: ?lpfn@?1??lineSetTollListW@@9@9)
                      26. 11 F431 00BF 0000:lineSetTollListA (008D: C3) (REF 0007: ?lpfn@?1??lineSetTollListA@@9@9)
                      27. 11 F431 00BF 0000:lineDevSpecificFeature (008D: C3) (REF 0007: ?lpfn@?1??lineDevSpecificFeature@@9@9)
                      28. 11 F431 00BF 0000:lineGenerateDigits (008D: C3) (REF 0007: ?lpfn@?1??lineGenerateDigits@@9@9)
                      29. 11 F431 00BF 0000:lineGenerateDigitsA (008D: C3) (REF 0007: ?lpfn@?1??lineGenerateDigitsA@@9@9)
                      30. 11 F431 00BF 0000:lineGenerateDigitsW (008D: C3) (REF 0007: ?lpfn@?1??lineGenerateDigitsW@@9@9)
                      31. 11 F431 00C6 0000:phoneSetData (008D: 5C) (REF 0007: ?lpfn@?1??phoneSetData@@9@9)
                      32. 11 F431 00C6 0000:phoneGetData (008D: 5C) (REF 0007: ?lpfn@?1??phoneGetData@@9@9)
                    38488974244048:
                      85C048897C2448:
                        418BD8:
                          0. 0A 2814 00C3 0000:lineAccept (0098: E0) (REF 0007: ?lpfn@?1??lineAccept@@9@9)
                          1. 0A 2814 00C3 0000:lineAnswer (0098: E0) (REF 0007: ?lpfn@?1??lineAnswer@@9@9)
                          2. 0A 2814 00C3 0000:lineBlindTransfer (0098: E0) (REF 0007: ?lpfn@?1??lineBlindTransfer@@9@9)
                          3. 0A 2814 00C3 0000:lineBlindTransferA (0098: E0) (REF 0007: ?lpfn@?1??lineBlindTransferA@@9@9)
                          4. 0A 2814 00C3 0000:lineBlindTransferW (0098: E0) (REF 0007: ?lpfn@?1??lineBlindTransferW@@9@9)
                          5. 0A 2814 00C3 0000:lineDial (0098: E0) (REF 0007: ?lpfn@?1??lineDial@@9@9)
                          6. 0A 2814 00C3 0000:lineDialA (0098: E0) (REF 0007: ?lpfn@?1??lineDialA@@9@9)
                          7. 0A 2814 00C3 0000:lineDialW (0098: E0) (REF 0007: ?lpfn@?1??lineDialW@@9@9)
                          8. 0A 2814 00C3 0000:lineDrop (0098: E0) (REF 0007: ?lpfn@?1??lineDrop@@9@9)
                          9. 0A 2814 00C3 0000:lineGetMessage (0098: E0) (REF 0007: ?lpfn@?1??lineGetMessage@@9@9)
                          10. 0A 2814 00C3 0000:lineHandoff (0098: E0) (REF 0007: ?lpfn@?1??lineHandoff@@9@9)
                          11. 0A 2814 00C3 0000:lineHandoffA (0098: E0) (REF 0007: ?lpfn@?1??lineHandoffA@@9@9)
                          12. 0A 2814 00C3 0000:lineHandoffW (0098: E0) (REF 0007: ?lpfn@?1??lineHandoffW@@9@9)
                          13. 0A 2814 00C3 0000:lineMonitorTones (0098: E0) (REF 0007: ?lpfn@?1??lineMonitorTones@@9@9)
                          14. 0A 2814 00C3 0000:lineProxyResponse (0098: E0) (REF 0007: ?lpfn@?1??lineProxyResponse@@9@9)
                          15. 0A 2814 00C3 0000:lineRedirect (0098: E0) (REF 0007: ?lpfn@?1??lineRedirect@@9@9)
                          16. 0A 2814 00C3 0000:lineRedirectA (0098: E0) (REF 0007: ?lpfn@?1??lineRedirectA@@9@9)
                          17. 0A 2814 00C3 0000:lineRedirectW (0098: E0) (REF 0007: ?lpfn@?1??lineRedirectW@@9@9)
                          18. 0A 2814 00C3 0000:lineSendUserUserInfo (0098: E0) (REF 0007: ?lpfn@?1??lineSendUserUserInfo@@9@9)
                          19. 0A 2814 00C3 0000:lineSetCallData (0098: E0) (REF 0007: ?lpfn@?1??lineSetCallData@@9@9)
                          20. 0A 2814 00DC 0000:phoneGetMessage (0098: 8B) (REF 0007: ?lpfn@?1??phoneGetMessage@@9@9)
                          21. 0A 2814 00DC 0000:phoneDevSpecific (0098: 8B) (REF 0007: ?lpfn@?1??phoneDevSpecific@@9@9)
                          22. 09 E5FE 00C1 0000:lineSetLineDevStatus (0097: E0) (REF 0007: ?lpfn@?1??lineSetLineDevStatus@@9@9)
                          23. 09 E5FE 00C1 0000:lineSetNumRings (0097: E0) (REF 0007: ?lpfn@?1??lineSetNumRings@@9@9)
                          24. 09 E5FE 00C1 0000:lineSetQueueMeasurementPeriod (0097: E0) (REF 0007: ?lpfn@?1??lineSetQueueMeasurementPeriod@@9@9)
                          25. 09 E5FE 00C1 0000:lineSetStatusMessages (0097: E0) (REF 0007: ?lpfn@?1??lineSetStatusMessages@@9@9)
                          26. 09 E5FE 00C1 0000:lineSetAgentActivity (0097: E0) (REF 0007: ?lpfn@?1??lineSetAgentActivity@@9@9)
                          27. 09 E5FE 00C1 0000:lineSetAgentMeasurementPeriod (0097: E0) (REF 0007: ?lpfn@?1??lineSetAgentMeasurementPeriod@@9@9)
                          28. 09 E5FE 00DA 0000:phoneSetGain (0097: 8B) (REF 0007: ?lpfn@?1??phoneSetGain@@9@9)
                          29. 09 E5FE 00DA 0000:phoneSetHookSwitch (0097: 8B) (REF 0007: ?lpfn@?1??phoneSetHookSwitch@@9@9)
                          30. 09 E5FE 00DA 0000:phoneSetLamp (0097: 8B) (REF 0007: ?lpfn@?1??phoneSetLamp@@9@9)
                          31. 09 E5FE 00DA 0000:phoneSetRing (0097: 8B) (REF 0007: ?lpfn@?1??phoneSetRing@@9@9)
                          32. 09 E5FE 00DA 0000:phoneSetVolume (0097: 8B) (REF 0007: ?lpfn@?1??phoneSetVolume@@9@9)
                        488BF1:
                          0. 18 E8DB 007D 0000:Dns_AllocMemCopy
                        498BD8:
                          0. 0A 2814 00C3 0000:lineGetDevConfigW (0098: E0) (REF 0007: ?lpfn@?1??lineGetDevConfigW@@9@9)
                          1. 0A 2814 00C3 0000:lineConfigDialogW (0098: E0) (REF 0007: ?lpfn@?1??lineConfigDialogW@@9@9)
                          2. 0A 2814 00C3 0000:lineConfigDialogA (0098: E0) (REF 0007: ?lpfn@?1??lineConfigDialogA@@9@9)
                          3. 0A 2814 00C3 0000:lineConfigDialog (0098: E0) (REF 0007: ?lpfn@?1??lineConfigDialog@@9@9)
                          4. 0A 2814 00C3 0000:lineGetIconW (0098: E0) (REF 0007: ?lpfn@?1??lineGetIconW@@9@9)
                          5. 0A 2814 00C3 0000:lineGetIconA (0098: E0) (REF 0007: ?lpfn@?1??lineGetIconA@@9@9)
                          6. 0A 2814 00C3 0000:lineGetIcon (0098: E0) (REF 0007: ?lpfn@?1??lineGetIcon@@9@9)
                          7. 0A 2814 00C3 0000:lineSetupTransferW (0098: E0) (REF 0007: ?lpfn@?1??lineSetupTransferW@@9@9)
                          8. 0A 2814 00C3 0000:lineSetupTransferA (0098: E0) (REF 0007: ?lpfn@?1??lineSetupTransferA@@9@9)
                          9. 0A 2814 00C3 0000:lineSetupTransfer (0098: E0) (REF 0007: ?lpfn@?1??lineSetupTransfer@@9@9)
                          10. 0A 2814 00C3 0000:lineGetDevConfigA (0098: E0) (REF 0007: ?lpfn@?1??lineGetDevConfigA@@9@9)
                          11. 0A 2814 00C3 0000:linePrepareAddToConferenceW (0098: E0) (REF 0007: ?lpfn@?1??linePrepareAddToConferenceW@@9@9)
                          12. 0A 2814 00C3 0000:linePrepareAddToConferenceA (0098: E0) (REF 0007: ?lpfn@?1??linePrepareAddToConferenceA@@9@9)
                          13. 0A 2814 00C3 0000:linePrepareAddToConference (0098: E0) (REF 0007: ?lpfn@?1??linePrepareAddToConference@@9@9)
                          14. 0A 2814 00C3 0000:lineGetDevConfig (0098: E0) (REF 0007: ?lpfn@?1??lineGetDevConfig@@9@9)
                          15. 0A 2814 00C3 0000:lineGetQueueListA (0098: E0) (REF 0007: ?lpfn@?1??lineGetQueueListA@@9@9)
                          16. 0A 2814 00C3 0000:lineGetQueueListW (0098: E0) (REF 0007: ?lpfn@?1??lineGetQueueListW@@9@9)
                          17. 0A 2814 00C3 0000:lineGetStatusMessages (0098: E0) (REF 0007: ?lpfn@?1??lineGetStatusMessages@@9@9)
                          18. 0A 2814 00DC 0000:phoneGetIDA (0098: 8B) (REF 0007: ?lpfn@?1??phoneGetIDA@@9@9)
                          19. 0A 2814 00DC 0000:phoneGetIDW (0098: 8B) (REF 0007: ?lpfn@?1??phoneGetIDW@@9@9)
                          20. 0A 2814 00DC 0000:phoneGetRing (0098: 8B) (REF 0007: ?lpfn@?1??phoneGetRing@@9@9)
                          21. 0A 2814 00DC 0000:phoneGetID (0098: 8B) (REF 0007: ?lpfn@?1??phoneGetID@@9@9)
                          22. 0A 2814 00DC 0000:phoneGetIconW (0098: 8B) (REF 0007: ?lpfn@?1??phoneGetIconW@@9@9)
                          23. 0A 2814 00DC 0000:phoneGetIcon (0098: 8B) (REF 0007: ?lpfn@?1??phoneGetIcon@@9@9)
                          24. 0A 2814 00DC 0000:phoneConfigDialog (0098: 8B) (REF 0007: ?lpfn@?1??phoneConfigDialog@@9@9)
                          25. 0A 2814 00DC 0000:phoneConfigDialogA (0098: 8B) (REF 0007: ?lpfn@?1??phoneConfigDialogA@@9@9)
                          26. 0A 2814 00DC 0000:phoneConfigDialogW (0098: 8B) (REF 0007: ?lpfn@?1??phoneConfigDialogW@@9@9)
                          27. 0A 2814 00DC 0000:phoneGetIconA (0098: 8B) (REF 0007: ?lpfn@?1??phoneGetIconA@@9@9)
                          28. 09 E5FE 00C1 0000:lineGetAddressStatus (0097: E0) (REF 0007: ?lpfn@?1??lineGetAddressStatus@@9@9)
                          29. 09 E5FE 00C1 0000:lineSetAgentGroup (0097: E0) (REF 0007: ?lpfn@?1??lineSetAgentGroup@@9@9)
                          30. 09 E5FE 00C1 0000:lineGetTranslateCapsW (0097: E0) (REF 0007: ?lpfn@?1??lineGetTranslateCapsW@@9@9)
                          31. 09 E5FE 00C1 0000:lineGetTranslateCapsA (0097: E0) (REF 0007: ?lpfn@?1??lineGetTranslateCapsA@@9@9)
                          32. 09 E5FE 00C1 0000:lineGetTranslateCaps (0097: E0) (REF 0007: ?lpfn@?1??lineGetTranslateCaps@@9@9)
                          33. 09 E5FE 00C1 0000:lineGetRequestW (0097: E0) (REF 0007: ?lpfn@?1??lineGetRequestW@@9@9)
                          34. 09 E5FE 00C1 0000:lineGetRequestA (0097: E0) (REF 0007: ?lpfn@?1??lineGetRequestA@@9@9)
                          35. 09 E5FE 00C1 0000:lineGetRequest (0097: E0) (REF 0007: ?lpfn@?1??lineGetRequest@@9@9)
                          36. 09 E5FE 00C1 0000:lineGetQueueInfo (0097: E0) (REF 0007: ?lpfn@?1??lineGetQueueInfo@@9@9)
                          37. 09 E5FE 00C1 0000:lineGetNumRings (0097: E0) (REF 0007: ?lpfn@?1??lineGetNumRings@@9@9)
                          38. 09 E5FE 00C1 0000:lineGetCountryW (0097: E0) (REF 0007: ?lpfn@?1??lineGetCountryW@@9@9)
                          39. 09 E5FE 00C1 0000:lineGetCountryA (0097: E0) (REF 0007: ?lpfn@?1??lineGetCountryA@@9@9)
                          40. 09 E5FE 00C1 0000:lineGetCountry (0097: E0) (REF 0007: ?lpfn@?1??lineGetCountry@@9@9)
                          41. 09 E5FE 00C1 0000:lineGetAgentStatusW (0097: E0) (REF 0007: ?lpfn@?1??lineGetAgentStatusW@@9@9)
                          42. 09 E5FE 00C1 0000:lineGetAgentStatusA (0097: E0) (REF 0007: ?lpfn@?1??lineGetAgentStatusA@@9@9)
                          43. 09 E5FE 00C1 0000:lineGetAgentSessionList (0097: E0) (REF 0007: ?lpfn@?1??lineGetAgentSessionList@@9@9)
                          44. 09 E5FE 00C1 0000:lineGetAgentSessionInfo (0097: E0) (REF 0007: ?lpfn@?1??lineGetAgentSessionInfo@@9@9)
                          45. 09 E5FE 00C1 0000:lineGetAgentInfo (0097: E0) (REF 0007: ?lpfn@?1??lineGetAgentInfo@@9@9)
                          46. 09 E5FE 00C1 0000:lineGetAgentGroupListW (0097: E0) (REF 0007: ?lpfn@?1??lineGetAgentGroupListW@@9@9)
                          47. 09 E5FE 00C1 0000:lineGetAgentGroupListA (0097: E0) (REF 0007: ?lpfn@?1??lineGetAgentGroupListA@@9@9)
                          48. 09 E5FE 00C1 0000:lineGetAgentActivityListW (0097: E0) (REF 0007: ?lpfn@?1??lineGetAgentActivityListW@@9@9)
                          49. 09 E5FE 00C1 0000:lineGetAgentActivityListA (0097: E0) (REF 0007: ?lpfn@?1??lineGetAgentActivityListA@@9@9)
                          50. 09 E5FE 00C1 0000:lineGetAddressStatusA (0097: E0) (REF 0007: ?lpfn@?1??lineGetAddressStatusA@@9@9)
                          51. 09 E5FE 00C1 0000:lineGetAddressStatusW (0097: E0) (REF 0007: ?lpfn@?1??lineGetAddressStatusW@@9@9)
                          52. 09 E5FE 00DA 0000:phoneGetVolume (0097: 8B) (REF 0007: ?lpfn@?1??phoneGetVolume@@9@9)
                          53. 09 E5FE 00DA 0000:phoneGetLamp (0097: 8B) (REF 0007: ?lpfn@?1??phoneGetLamp@@9@9)
                          54. 09 E5FE 00DA 0000:phoneGetGain (0097: 8B) (REF 0007: ?lpfn@?1??phoneGetGain@@9@9)
                          55. 09 E5FE 00DA 0000:phoneGetButtonInfoW (0097: 8B) (REF 0007: ?lpfn@?1??phoneGetButtonInfoW@@9@9)
                          56. 09 E5FE 00DA 0000:phoneGetButtonInfoA (0097: 8B) (REF 0007: ?lpfn@?1??phoneGetButtonInfoA@@9@9)
                          57. 09 E5FE 00DA 0000:phoneGetButtonInfo (0097: 8B) (REF 0007: ?lpfn@?1??phoneGetButtonInfo@@9@9)
                          58. 09 E5FE 00DA 0000:phoneSetButtonInfo (0097: 8B) (REF 0007: ?lpfn@?1??phoneSetButtonInfo@@9@9)
                          59. 09 E5FE 00DA 0000:phoneSetButtonInfoA (0097: 8B) (REF 0007: ?lpfn@?1??phoneSetButtonInfoA@@9@9)
                          60. 09 E5FE 00DA 0000:phoneSetButtonInfoW (0097: 8B) (REF 0007: ?lpfn@?1??phoneSetButtonInfoW@@9@9)
                          61. 0B F900 00C5 0000:lineAddProviderA (REF 0007: ?lpfn@?1??lineAddProviderA@@9@9)
                          62. 0B F900 00C5 0000:lineAddProviderW (REF 0007: ?lpfn@?1??lineAddProviderW@@9@9)
                          63. 0B F900 00C5 0000:lineAddProvider (REF 0007: ?lpfn@?1??lineAddProvider@@9@9)
                      89410833C0488BF14889:
                        0. 3B F808 008F 0000:??0CBaseWindow@@QEAA@H_N@Z
                      8BF148897C24480FBE38:
                        0. 18 38FA 00A4 0000:rc4_safe_startup_np
                    4048:
                      63D94885C0743F8BCB48897C2448FF:
                        0. 21 D159 006F 0000:Dns_AllocZero
                      897C24484885C0:
                        488BDA:
                          488BF975:
                            38:
                              0. 03 29E1 008B 0000:GetTheFunctionPtr
                            73:
                              0. 03 B139 00C4 0000:tapiGetLocationInfo (REF 0007: ?lpfn@?1??tapiGetLocationInfo@@9@9)
                              1. 03 B139 00C4 0000:tapiGetLocationInfoA (REF 0007: ?lpfn@?1??tapiGetLocationInfoA@@9@9)
                              2. 03 B139 00C4 0000:tapiGetLocationInfoW (REF 0007: ?lpfn@?1??tapiGetLocationInfoW@@9@9)
                              3. 03 B139 00C4 0000:tapiRequestDrop (REF 0007: ?lpfn@?1??tapiRequestDrop@@9@9)
                          8BF9757348:
                            0. 02 8E30 00AE 0000:lineGetCallInfo (008B: E0) (REF 0007: ?lpfn@?1??lineGetCallInfo@@9@9)
                            1. 02 8E30 00AE 0000:lineGetCallInfoA (008B: E0) (REF 0007: ?lpfn@?1??lineGetCallInfoA@@9@9)
                            2. 02 8E30 00AE 0000:lineGetCallInfoW (008B: E0) (REF 0007: ?lpfn@?1??lineGetCallInfoW@@9@9)
                            3. 02 8E30 00AE 0000:lineGetCallStatus (008B: E0) (REF 0007: ?lpfn@?1??lineGetCallStatus@@9@9)
                            4. 02 8E30 00AE 0000:lineGetConfRelatedCalls (008B: E0) (REF 0007: ?lpfn@?1??lineGetConfRelatedCalls@@9@9)
                            5. 02 8E30 00AE 0000:lineGetGroupListA (008B: E0) (REF 0007: ?lpfn@?1??lineGetGroupListA@@9@9)
                            6. 02 8E30 00AE 0000:lineGetGroupListW (008B: E0) (REF 0007: ?lpfn@?1??lineGetGroupListW@@9@9)
                            7. 02 8E30 00AE 0000:lineGetLineDevStatus (008B: E0) (REF 0007: ?lpfn@?1??lineGetLineDevStatus@@9@9)
                            8. 02 8E30 00AE 0000:lineGetLineDevStatusA (008B: E0) (REF 0007: ?lpfn@?1??lineGetLineDevStatusA@@9@9)
                            9. 02 8E30 00AE 0000:lineGetLineDevStatusW (008B: E0) (REF 0007: ?lpfn@?1??lineGetLineDevStatusW@@9@9)
                            10. 02 8E30 00AE 0000:lineGetProviderList (008B: E0) (REF 0007: ?lpfn@?1??lineGetProviderList@@9@9)
                            11. 02 8E30 00AE 0000:lineGetProviderListA (008B: E0) (REF 0007: ?lpfn@?1??lineGetProviderListA@@9@9)
                            12. 02 8E30 00AE 0000:lineGetProviderListW (008B: E0) (REF 0007: ?lpfn@?1??lineGetProviderListW@@9@9)
                            13. 02 8E30 00AE 0000:lineRemoveProvider (008B: E0) (REF 0007: ?lpfn@?1??lineRemoveProvider@@9@9)
                            14. 02 8E30 00C2 0000:phoneGetDisplay (008B: 8B) (REF 0007: ?lpfn@?1??phoneGetDisplay@@9@9)
                            15. 02 8E30 00C2 0000:phoneGetHookSwitch (008B: 8B) (REF 0007: ?lpfn@?1??phoneGetHookSwitch@@9@9)
                            16. 02 8E30 00C2 0000:phoneGetStatus (008B: 8B) (REF 0007: ?lpfn@?1??phoneGetStatus@@9@9)
                            17. 02 8E30 00C2 0000:phoneGetStatusA (008B: 8B) (REF 0007: ?lpfn@?1??phoneGetStatusA@@9@9)
                            18. 02 8E30 00C2 0000:phoneGetStatusW (008B: 8B) (REF 0007: ?lpfn@?1??phoneGetStatusW@@9@9)
                        8BDA:
                          488BF9757348:
                            0. 02 8E30 00AE 0000:lineConfigProvider
                          8BF97573488B:
                            0. 01 D5A7 00AC 0000:lineAddToConference (REF 0007: ?lpfn@?1??lineAddToConference@@9@9)
                            1. 01 D5A7 00AC 0000:lineMonitorDigits (REF 0007: ?lpfn@?1??lineMonitorDigits@@9@9)
                            2. 01 D5A7 00AC 0000:lineMonitorMedia (REF 0007: ?lpfn@?1??lineMonitorMedia@@9@9)
                            3. 01 D5A7 00AC 0000:lineSetAppSpecific (REF 0007: ?lpfn@?1??lineSetAppSpecific@@9@9)
                            4. 01 D5A7 00AC 0000:lineSetCallPrivilege (REF 0007: ?lpfn@?1??lineSetCallPrivilege@@9@9)
                            5. 01 D5A7 00AC 0000:lineSetCallTreatment (REF 0007: ?lpfn@?1??lineSetCallTreatment@@9@9)
                            6. 01 D5A7 00AC 0000:lineSetCurrentLocation (REF 0007: ?lpfn@?1??lineSetCurrentLocation@@9@9)
                            7. 01 D5A7 00AC 0000:lineSetMediaMode (REF 0007: ?lpfn@?1??lineSetMediaMode@@9@9)
                            8. 01 D5A7 00AC 0000:lineSwapHold (REF 0007: ?lpfn@?1??lineSwapHold@@9@9)
                            9. 01 D5A7 00AC 0000:lineUncompleteCall (REF 0007: ?lpfn@?1??lineUncompleteCall@@9@9)
                      8BD98038000F8455010000488B05:
                        0. 00 0000 01D4 0000:DDKExtPrompt (l)0040:$LL10 (l)007E:$LN6 (l)00EF:$LN5 (l)010B:$LN3 (l)012F:$LN2 (l)0157:$LN1 (l)016C:$LN20
              C605........004885C07402FFD04883C428E9:
                0. 00 0000 0022 0000:DDK_DriverUnload
            09:
              33D2FF15........33C985C00F94C18BC14883C428C3:
                0. 00 0000 001D 0000:?Check@CAMEvent@@QEAAHXZ
              4885C9:
                7406:
                  488B01FF50104883C428C3:
                    0. 00 0000 0017 (!)0000:?
                  FF15........4883C428C3:
                    0. 00 0000 0017 0000:??1CAMEvent@@QEAA@XZ
                75:
                  0733C04883C428C348895C244033DB4C8D44243048:
                    0. 0A EF17 005E 0000:?IsDirectDrawVersion1@CLoadDirectDraw@@QEAAHXZ
                  088D41014883C428C3FF15........33C04883C428:
                    0. 01 EF04 0021 0000:FreeBSTR
              FF15........33C985C00F94C18BC14883C428C3:
                0. 00 0000 001B 0000:?Wait@CAMEvent@@QEAAHK@Z
            0D........:
              48:
                83F9FF742CFF15........85C07517448D406A48:
                  0. 02 DF74 0059 0000:?DbgTerminate@@YAXXZ
                85C974:
                  06FF15........:
                    33C9FF15........CC:
                      0. 00 0000 001F 0000:tkQuit
                    4883C428C3:
                      0. 00 0000 001B 0000:DnsPrint_Unlock (REF 0012: __imp_LeaveCriticalSection)
                      1. 00 0000 001B 0000:DnsPrint_Lock (REF 0012: __imp_EnterCriticalSection)
                      2. 00 0000 001B 0000:tkCloseWindow (REF 0007: tkhwnd)
                  11FF15........48C705........000000:
                    0. 06 B114 0026 0000:Dns_EndDebug
                  1933D2488BC1F0480FB115........483B:
                    0. 05 0784 002E 0000:FreeDtcHelper
                  1EFF15........4533DB33C04C891D:
                    0. 00 0000 003F 0000:Uninitialize
              E8........488B0D........4885C9750733C04883:
                0. 12 219C 0036 0000:tkGetColorMapSize
            11488D4108483BD07408488BCAE8........4883C428C3:
              0. 00 0000 001D (!)0000:?
            41:
              0848895C244048897C24484885C0488BFA488BD975258D4801:
                0. 01 3E9B 0070 0000:SaBlob_WriteAddress
              304889:
                5C243848897C24484885C0488BD94889442430742290:
                  0. 0A 8ABE 00FC 0000:??1CCmdQueue@@UEAA@XZ
                7C2448488BF94885C074164883783000750FB8090204:
                  0. 19 8E45 0066 0000:?IsUsingDefaultDestination@CBaseControlVideo@@UEAAJXZ (000D: 40)
                  1. 19 8E45 0066 0000:?IsUsingDefaultSource@CBaseControlVideo@@UEAAJXZ (000D: 60)
                  2. 1E BA4E 00A1 0000:?SetDefaultDestinationPosition@CBaseControlVideo@@UEAAJXZ (000D: 48)
                  3. 1E BA4E 00A1 0000:?SetDefaultSourcePosition@CBaseControlVideo@@UEAAJXZ (000D: 68)
              E848895C24384889742440488BF14883C1E848897C2448FF50:
                0. 63 6685 009D 0000:?EndOfStream@CRenderedInputPin@@UEAAJXZ
            49:
              10:
                33D2FF15........B8010000004883C428C3:
                  0. 00 0000 001A 0000:?OnClose@CBaseWindow@@UEAAHXZ
                FF15........:
                  33C04883C428C3:
                    0. 00 0000 0015 0000:?DoShowWindow@CBaseWindow@@QEAAJJ@Z
                  85C00F95C04883C428C3:
                    0. 00 0000 0018 0000:?WindowExists@CBaseWindow@@QEAA_NXZ
              28E8........33C04883C428C3:
                0. 00 0000 0014 0000:ArbRollbackAllocation
            81:
              B800000048895C244048897C244848837830008BFA488BD974:
                0. 13 8F93 0099 0000:?CompleteStateChange@CBaseRenderer@@UEAAJW4_FilterState@@@Z
              E800000048895C244048897C24484C8B80D8000000488BFA48:
                0. 3C D10E 006F 0000:?CheckConnect@CTransformOutputPin@@UEAAJPEAUIPin@@@Z
              F000000048:
                85C074114883783000750AB8090204804883C428:
                  0. 11 6985 003C 0000:?put_BorderColor@CBaseControlWindow@@UEAAJJ@Z
                  1. 06 D3B9 0031 0000:?put_WindowState@CBaseControlWindow@@UEAAJJ@Z
                89:
                  5C244048897C24484885C0:
                    488BFA488BD9741B:
                      0. 2D 9AD5 009E 0000:?put_Owner@CBaseControlWindow@@UEAAJ_J@Z
                    8BDA488BF9741B48:
                      0. 25 FD9D 00B2 0000:?put_WindowStyleEx@CBaseControlWindow@@UEAAJJ@Z
                  74244048897C24484885C08BF2488BF9741B48:
                    0. 28 572D 00C8 0000:?put_BackgroundPalette@CBaseControlWindow@@UEAAJJ@Z
              F800000048895C244048897C24484C8B88D8000000488B80E0:
                0. 2B 7649 00BF 0000:?CheckMediaType@CTransInPlaceOutputPin@@UEAAJPEBVCMediaType@@@Z
            91F00000004D8BD1418BC04885D2741148837A3000750AB80902:
              0. 32 5264 0095 0000:?NotifyOwnerMessage@CBaseControlWindow@@UEAAJ_JJ00@Z
            C1488B8958010000FF50104883C428E9:
              0. 00 0000 001A 0000:DComp_Close
            C2:
              48895C2440488BD9488BD1488BC848897C2448FF15:
                0. 23 CAA3 007C 0000:Dns_Ip6AddressToLiteralName
              4C8BC1488D542440488BC848C744244000000000FF15:
                0. 00 0000 0040 0000:Dns_Ip6StringToAddress_A (001F: C3)
                1. 00 0000 0041 0000:Dns_Ip6StringToAddress_W (001F: 28)
          8D:
            05........4889:
              01488B49504885C97405E8........4883C428:
                0. 01 EF04 0021 0000:??1CMediaSample@@UEAA@XZ
              5C24:
                384889:
                  511048890133C0488BD9C7411C01:
                    0. 1D 3F63 00A7 0000:??0CEnumPins@@QEAA@PEAVCBaseFilter@@PEAV0@@Z
                  74244048890148:
                    897C2448488BF9:
                      0. 08 BFB0 009F 0000:??_GCPullPin@@UEAAPEAXI@Z
                    8D05........48:
                      0. 0B C57C 0150 0000:??1CBaseRenderer@@UEAA@XZ
                40:
                  48:
                    897C244848:
                      890148:
                        8BF948:
                          83C1:
                            28FF:
                              0. 01 54B7 0081 0000:??1CPullPin@@UEAA@XZ
                            38FF:
                              0. 01 54B7 0068 0000:??1CBaseStreamControl@@QEAA@XZ
                          8B491048:
                            0. 11 6D7C 0054 0000:??_GCEnumPins@@UEAAPEAXI@Z
                            1. 1A A45C 004B 0000:??_GCEnumMediaTypes@@UEAAPEAXI@Z
                        8D05........8B:
                          0. 08 422E 0073 0000:??_GCBaseVideoRenderer@@UEAAPEAXI@Z (002E: 01)
                          1. 08 422E 0057 0000:??_GCVideoTransformFilter@@UEAAPEAXI@Z (002E: C3)
                          2. 08 E3ED 0088 0000:??_G?$CComObject@VCAudioCaptureTerminal@@@ATL@@UEAAPEAXI@Z (REF 0007: ??_7?$CComObject@VCAudioCaptureTerminal@@@ATL@@6B?$IDispatchImpl@UITBasicAudioTerminal@@$1?IID_ITBasicAudioTerminal@@3U_GUID@@B$1?LIBID_TAPI3Lib@@3U3@B$00$0A@VCComTypeInfoHolder@ATL@@@1@@)
                          3. 08 E3ED 0088 0000:??_G?$CComObject@VCAudioRenderTerminal@@@ATL@@UEAAPEAXI@Z (REF 0007: ??_7?$CComObject@VCAudioRenderTerminal@@@ATL@@6B?$IDispatchImpl@UITBasicAudioTerminal@@$1?IID_ITBasicAudioTerminal@@3U_GUID@@B$1?LIBID_TAPI3Lib@@3U3@B$00$0A@VCComTypeInfoHolder@ATL@@@1@@)
                      8BF9488901488B49088B:
                        0. 02 4AC6 0045 0000:??_GImage@Gdiplus@@UEAAPEAXI@Z
                    8BD9488901488D05........48897C:
                      0. 11 BE0E 00CC 0000:??_GCBaseReferenceClock@@MEAAPEAXI@Z
                      1. 09 FF4F 006D 0000:??_GCTransformOutputPin@@UEAAPEAXI@Z (0043: C3)
                      2. 09 FF4F 00AD 0000:??_GCDynamicOutputPin@@UEAAPEAXI@Z (0043: FF)
                  C7410801000000488901F0FF0D:
                    0. 00 0000 004F 0000:??_G?$CComObject@VCPTEventSink@@@ATL@@QEAAPEAXI@Z
              74244048897C2448488901488BF94883C178FF:
                0. 01 54B7 00A9 0000:??1CAMSchedule@@UEAA@XZ
            0D........:
              E8........4885C074074883C42848FFE033C04883:
                0. 03 53B6 0023 0000:SQLRemoveDefaultDataSource
              FF15........:
                48:
                  85C0:
                    488905........0F84F50000:
                      0. 04 F247 0127 0000:Initialize (l)00E5:$NOCLUSTER$61599
                    7423488D15........488BC8:
                      0. 02 ABB7 0043 0000:?CoInitializeHelper@CAMThread@@SAJXZ (0020: C3)
                      1. 02 ABB7 005C 0000:?CoInitializeHelper@CAMThread@@SAJXZ (0020: 0D)
                    750D488D0D........FF15:
                      0. 00 0000 0028 0000:GetDtcLocaleResourceHandle
                  8BC833C0F0480FB10D........74:
                    0. 03 F9A8 0038 0000:?FLoadXoleHlp@@YAHXZ (0014: C3)
                    1. 03 F9A8 004C 0000:LoadDtcHelper (0014: C4) (REF 003D: ??_C@_0BJ@EOOCGLJC@DtcGetTransactionManager?$AA@)
                    2. 03 F9A8 004C 0000:LoadDtcHelperExW (0014: C4) (REF 003D: ??_C@_0BM@DFEIAHJM@DtcGetTransactionManagerExW?$AA@)
                    3. 03 F9A8 004C 0000:LoadDtcHelperExA (0014: C4) (REF 003D: ??_C@_0BM@CJNALCEL@DtcGetTransactionManagerExA?$AA@)
                  8D0D........:
                    4883C428E9:
                      0. 00 0000 0021 (l)0000:??__E?s_CritSection@CMSPObjectSafetyImpl@@0VCMSPCritSection@@A@@YAXXZ (REF 0007: ?s_CritSection@CMSPObjectSafetyImpl@@0VCMSPCritSection@@A)
                      1. 00 0000 0021 (l)0000:??__Eg_semexc@@YAXXZ (REF 0007: ?g_semexc@@3VCSemExclusiveLocal@@A)
                    FF15........488D:
                      0. 01 9D2B 0030 (l)0000:??__Fg_Thread@@YAXXZ (000A: 25)
                      1. 01 9D2B 006D (l)0000:??__Eg_Thread@@YAXXZ (000A: 33)
                85C079078BC8E8........4883C428:
                  0. 01 EF04 0021 (l)0000:??__FvtMissing@@YAXXZ
            4204493BC07612B9EA000000FF15........33C04883C428C38B:
              0. 09 57DE 0029 0000:A_RecordWrite
            4C2438FF15........488D542430488D4C2438FF15........8B:
              0. 11 66BB 0031 0000:time_now
            9118080000488D810F04000048895C244048894208488D811005:
              0. AF 1317 00F8 0000:doCabinetInfoNotify
          C70200000000488B493048897C2448488B01488BFA488D542430FF:
            0. 13 638E 007A 0000:?GetPeer@CPosPassThru@@AEAAJPEAPEAUIMediaPosition@@@Z (REF 0033: IID_IMediaPosition)
            1. 13 638E 007A 0000:?GetPeerSeeking@CPosPassThru@@AEAAJPEAPEAUIMediaSeeking@@@Z (REF 0033: IID_IMediaSeeking)
          D1EA48895C243848897424404881FAFFFFFF7F488BF17614B8:
            0D00:
              0. 3B 5871 0094 0000:RtlStringCbVPrintfW
            5700:
              0. 3B B90C 0094 0000:StringCbVPrintfW
        4C:
          3BC248895C24304889:
            6C2438488974244048897C2448488BEA4C89:
              0. 32 8C06 01C9 0000:ArbPruneOrdering (l)015A:$cleanup$12469
            74244048897C2448488BF2488BD9498BF873:
              0. 42 E852 00DE 0000:ArbAddOrdering
          8B:
            024D85C04C89017409498B00498BC8FF500833C04883C428C3:
              0. 00 0000 001F (!)0000:?
            124C8BD9488D0D........4C3B91........48896C2438498BE8:
              0. 09 005B 0158 0000:DllGetClassObject
            1A48895C24:
              3048896C24384889742440488D2D........33C04C:
                0. 02 2112 00E0 0000:?NonDelegatingQueryInterface@CSeekingPassThru@@UEAAJAEBU_GUID@@PEAPEAX@Z
              384889742440488D35........:
                33C048897C24484C:
                  0. 02 BA20 013F 0000:?NonDelegatingQueryInterface@CBaseVideoRenderer@@UEAAJAEBU_GUID@@PEAPEAX@Z (00A0: 4C)
                  1. 02 BA20 00C7 0000:?QueryInterface@CMediaSample@@UEAAJAEBU_GUID@@PEAPEAX@Z (00A0: E9)
                488BC133C94C3B9E:
                  0. 00 0000 0124 0000:?NonDelegatingQueryInterface@CBaseInputPin@@UEAAJAEBU_GUID@@PEAPEAX@Z (0033: D8)
                  1. 00 0000 0124 0000:?NonDelegatingQueryInterface@CDynamicOutputPin@@UEAAJAEBU_GUID@@PEAPEAX@Z (0033: E8)
              40498BD84C8D05........488BC133C94D3B98:
                0. 00 0000 00C6 0000:?NonDelegatingQueryInterface@CBaseMediaFilter@@UEAAJAEBU_GUID@@PEAPEAX@Z (0073: 18)
                1. 00 0000 00C6 0000:?NonDelegatingQueryInterface@CBasePin@@UEAAJAEBU_GUID@@PEAPEAX@Z (0073: 20)
                2. 00 0000 00CC 0000:?NonDelegatingQueryInterface@CSystemClock@@UEAAJAEBU_GUID@@PEAPEAX@Z (0073: 48)
            41:
              1848895C2440488BD948897C2448488BFA488B51104533C948:
                0. 03 A2C1 0061 0000:CopyRanges
              2048895C244048897C24484D85C0488BFA488BD9740B498B40:
                0. 12 5BFD 0088 0000:?AddHeadI@CBaseList@@IEAAPEAU__POSITION@@PEAX@Z (0055: C3)
                1. 12 5BFD 008B 0000:?AddTailI@CBaseList@@IEAAPEAU__POSITION@@PEAX@Z (0055: 83)
            493048895C244048897C24484C3B4A30488BFA488BD975184C8B:
              0. 34 F3AB 0094 0000:SoaRecordCompare
            522C48897C2448488BF9488D0D........4533C04C3B91:
              0. 00 0000 00CD 0000:?CheckMediaType@CImageDisplay@@QEAAJPEBVCMediaType@@@Z
            C1488B0D........FF15........85C00F95C04883C428C3:
              0. 00 0000 001E 0000:NlGenerateRandomBits
            CA48895C24404533D24C891248897C2448488BF9488B491848B8:
              0. 22 8B2E 00A7 0000:HashAndInsertObject
          8D4C24384C8D05........488D15........E8........85C0743C:
            0. 17 0D1C 0066 0000:PNP_HANDLE_bind
        4D85C0:
          4889:
            5C24:
              304889:
                6C24384889742440498BD8488BEA488BF175:
                  0. 2D E92E 018D 0000:Ip6Array_Union
                74244048897C2448498BD88BF2488BF97412:
                  0. 33 819D 03A3 0000:NetpTranslateServiceName (l)0388:$Done$5763
              38488974244048897C2448488BDA488BF1498BF875:
                0. 1D CF91 0107 0000:?FindPin@CTransformFilter@@UEAAJPEBGPEAPEAUIPin@@@Z
              4048897C2448:
                488BF9498BD8:
                  488BC27514B8034000:
                    0. 13 4FA1 00A9 0000:?FindPin@CBaseRenderer@@UEAAJPEBGPEAPEAUIPin@@@Z
                  7514B803400080488B:
                    0. 12 8C3A 0083 0000:?FindPin@CSource@@UEAAJPEBGPEAPEAUIPin@@@Z
                498BF8488BD97514B803400080488B:
                  0. 13 D519 00D2 0000:?QueryInterface@CImageStream@@UEAAJAEBU_GUID@@PEAPEAX@Z
            74244048897C2448498BF8488BF24C8BD17514B8034000:
              0. 16 CEAE 0100 0000:?NonDelegatingQueryInterface@CTransformOutputPin@@UEAAJAEBU_GUID@@PEAPEAX@Z
          750AB8034000804883C428C34C8B0A488D05........4C3B08:
            0. 3A 4D4D 005A 0000:?NonDelegatingQueryInterface@CUnknown@@UEAAJAEBU_GUID@@PEAPEAX@Z
        66:
          0F122D........F20F10D8660F7F742410660F7F3C24F20F59D8F2:
            0. 07 877B 00B3 (l)0000:cos_piby4
          4183F80348895C2438488974244048897C24488BF2488BD9410FB7:
            0. 17 64A8 007B 0000:??0_variant_t@@QEAA@JG@Z
          448B820A01000048895C244048897C244866413BC8488BDA0FB7F9:
            0. 44 EBB2 0117 0000:SetDecompressionType
          81F9FFFF7405E8........4883C428C3:
            0. 00 0000 0015 (l)0000:_un_inc
          8379101348895C243048896C2438488974244048897C244866BB02:
            0. 43 C5BD 00AB 0000:Hinfo_RecordWrite
          85D248895C243048896C2438488974244048897C2448488BF97411:
            0. FF 6966 0196 (l)0000:InflateStored
          BA2E00:
            48895C2440488BD9FF15........4885C074136683780200:
              0. 4F A983 006F 0000:Dns_IsNameShortW
            FF15........4885C0740A4883C00266833800750233C048:
              0. 04 E284 0024 0000:Dns_GetDomainNameW
          C7442438000448C7442440000000004C8D44244033D2E8:
            0. 09 160A 0079 0000:CM_Get_Version_Ex (l)0048:$LN7 (l)0060:CM_Get_Version_Ex$filt$0 (l)0069:$LN6 (l)0073:$LN8
        80:
          3A0048895C24384889742440488BF2488BD9744A48897C24486690:
            0. 1A 84D1 0077 0000:NetpCopyStrArrayToTStrArray
          3D........00C605........00C605........010F84D400000048:
            0. 1D DE0D 00FC 0000:DDKPlusUninitialize
          79600048897C2448488BF9751F8B514C488B49104533C94533C0FF:
            0. 01 54B7 0087 0000:?SetPalette@CBaseWindow@@QEAAJXZ
        81:
          39:
            4C:
              434943740AB8020000004883C428C3488B4920E8........33:
                0. 06 C213 0026 0000:LCIFlushCompressorOutput (REF 001B: LZX_EncodeFlush)
                1. 06 C213 0026 0000:LCIResetCompression (REF 001B: LZX_EncodeNewGroup)
              444943740AB8020000004883C428C3488B4948E8........33:
                0. 06 C213 0026 0000:LDIResetDecompression
            4D43494348895C2440488BD9740FB802000000488B5C24404883:
              0. 51 76F4 008B 0000:MCIDestroyCompression
            51444943740AB8020000004883C428C3E8........33C04883C4:
              0. 02 2316 0022 0000:QDIResetDecompression
            DDDDDDDD8B5108752C817940AAAAAAAA7523817C0AF0DDDDDDDD:
              0. 35 AE27 0087 0000:DbgHeapValidateHeader (l)003B:$Invalid$52106
          7AB8DDDDDDDD48895C2430488974244048897C2448488D7AB8488B:
            0. 47 1E77 00F7 0000:DbgHeapSetHeaderFree (l)0052:$Invalid$52971
          C2FEACFFFF83FA1D77684C8D0D........4863C2410FB68401:
            0. 00 0000 00C6 0000:s_ioctl (l)002F:$LN7 (l)003B:$LN6 (l)0047:$LN5 (l)0053:$LN4 (l)005F:$LN3 (l)006B:$LN2 (l)0077:$LN1
          F9:
            0000008048895C243048896C2438488974244048897C2448418B:
              0. 0E 59EF 00AA 0000:tkInitPosition
            0D0000C048895C244048897C2448488BFA8BD90F84A501000081:
              0. 44 EB46 0237 0000:ScNtStatusTranslation (l)00FF:$LN9 (l)013E:$LN11 (l)0154:$LN10 (l)016A:$LN7 (l)0180:$LN5 (l)01CA:$LN16
            1F000900751A83FAFF75150FAE5C24308B44243025C0FE00003D:
              0. 0B D2AF 0034 0000:_set_controlfp
          FA:
            0001000048895C243048896C2438488974244048897C2448498B:
              0. 2A 1700 02B3 0000:RealScreenSaverProc (l)0062:$LN22 (l)00CC:$LN19 (l)0100:$LN10 (l)014B:$LN3 (l)0192:$LN12 (l)01F4:$LN4
            A800000048895C2440488BD975224585C00F84D80100004585C0:
              0. FF 4C9C 0201 0000:NetpRotateLogonHoursPhase2
        83:
          3A0048895C244048897C2448488BF9488BDA755C66669066666690:
            0. 09 DB3A 0084 0000:InitializeCriticalSectionProtected
          3D........00:
            4889:
              5C24:
                38488974244048:
                  897C2448418BF0488BD9:
                    0. 0F 29BB 00FF 0000:RealizePaletteNow
                  8BF2488BD97411488D15:
                    0. 00 0000 009C 0000:?SetSinkStream@CPTEventSink@@QEAAJPEAVCMSPStream@@@Z
                4048:
                  897C2448488BF9488BDA:
                    7411488D15:
                      0. 00 0000 0069 0000:?GetExposedPins@CSingleFilterTerminal@@UEAAJPEAPEAUIPin@@@Z
                    75324533C9:
                      0. 03 29E1 0084 0000:InitRand
                  8BD97411488D15........B9020008:
                    0. 02 0164 00D1 0000:?InternalAddRef@CMSPStream@@IEAAKXZ
              6C2438488974244048897C2448498BF0488BEA:
                0. 08 A482 00DD 0000:?GetDynamicTerminalClasses@CMSPAddress@@MEAAJPEAKPEAU_GUID@@@Z
              7C2448488BF97411488D15........B9020008:
                0. 02 0164 007E 0000:?InternalRelease@CMSPStream@@IEAAKXZ (0011: 8B)
                1. 02 0164 009E 0000:?FinalConstruct@CPlugTerminalSuperclassInfo@@UEAAJXZ (0011: 48)
                2. 02 0164 009E 0000:?FinalConstruct@CPlugTerminalClassInfo@@UEAAJXZ (0011: 70)
            74:
              10488BD1488B0D........FF15........4883C4:
                0. 02 2316 0022 0000:?PerflogTraceEvent@@YAXPEAU_EVENT_TRACE_HEADER@@@Z
              144533C98BD14C8D442438418D4961FF15:
                0. 00 0000 0026 (l)0000:HogMachine
              153B0D........760D488B0D........FF15:
                0. 00 0000 0027 0000:?PerflogTraceEventLevel@@YAXKPEAU_EVENT_TRACE_HEADER@@@Z
              1748:
                8B0D........FF15........C705:
                  0. 0B BD95 002B 0000:SapLibShutdown
                8D0D........C705........00000000FF15:
                  0. 00 0000 0029 0000:NetpShutdownLogFile
              1E488B0D........FF15........4533DB4C891D:
                0. 00 0000 0030 0000:?PerflogShutdown@@YAXXZ
              24488B0D........4885C97406FF15........48:
                0. 02 C6BC 0043 0000:Dns_TerminateSecurityPackage
              2B488D15........B902000800E8........833D:
                0. 00 0000 003F 0000:?CompleteConnectTerminal@CBaseTerminal@@UEAAJXZ (REF 0010: ??_C@_0CP@BIHJHCDC@CBaseTerminal?3?3CompleteConnectTe@)
                1. 00 0000 003F 0000:?HandleTSPData@CMSPStream@@UEAAJPEAEK@Z (REF 0010: ??_C@_0CC@FANIPKPP@CMSPStream?3?3HandleTSPData?5?9?5ente@)
                2. 00 0000 003F 0000:?ProcessGraphEvent@CMSPStream@@UEAAJJ_J0@Z (REF 0010: ??_C@_0CG@DKKPEHBM@CMSPStream?3?3ProcessGraphEvent?5?9?5@)
                3. 00 0000 003F 0000:?ReceiveTSPCallData@CMSPCallBase@@UEAAJPEAEK@Z (REF 0010: ??_C@_0CJ@LFGCADJI@CMSPCallBase?3?3ReceiveTSPCallData@)
                4. 00 0000 003F 0000:?ReceiveTSPAddressData@CMSPAddress@@MEAAJPEAEK@Z (REF 0010: ??_C@_0CL@KIIIJOEP@CMSPAddress?3?3ReceiveTSPAddressDa@)
              2E8B0D........33C083F9FF8905........8905:
                0. 00 0000 0040 0000:?MSPLogDeRegister@@YAXXZ
              31488D15........B902000800E8........833D:
                0. 00 0000 0048 0000:?get_Balance@CAudioRenderTerminal@@UEAAJPEAJ@Z (REF 0010: ??_C@_0CK@KLEEFCCP@CAudioRenderTerminal?3?3get_Balanc@)
                1. 00 0000 0048 0000:?put_Balance@CAudioRenderTerminal@@UEAAJJ@Z (REF 0010: ??_C@_0CK@LJIEGEJD@CAudioRenderTerminal?3?3put_Balanc@)
                2. 00 0000 0048 0000:?get_Balance@CAudioCaptureTerminal@@UEAAJPEAJ@Z (REF 0010: ??_C@_0CL@FAHFJBBF@CAudioCaptureTerminal?3?3get_Balan@)
                3. 00 0000 0048 0000:?put_Balance@CAudioCaptureTerminal@@UEAAJJ@Z (REF 0010: ??_C@_0CL@ECLFKHKJ@CAudioCaptureTerminal?3?3put_Balan@)
              48488B0D........4885C9743CFF15........45:
                0. 05 0C37 005A 0000:UnloadPwdDLL
              5C488D0D........FF15........448B1D:
                0. 00 0000 006E 0000:NetSetuppOpenLog
            75:
              17488D0D........FF15........B83200000048:
                0. 07 4CE2 004E 0000:DnscmdWmi_Free
              19488D0D........FF15........C705:
                0. 0B 61ED 002B 0000:NetpInitializeLogFile (l)0026:$LN7
              48B901000000F00FC10D........FFC183F90174:
                0. 04 8DFA 005C 0000:dnsrpcInitializeTls (l)0057:$Done$53277
              57B801000000F00FC105........FFC083F80175:
                0. 04 AE8F 0069 0000:Dns_InitializeSecondsTimer
          79:
            0C0048895C244048897C2448488BD97507BF08000000EB068B79:
              0. 10 C18E 0062 0000:?Grow@?$CMSPArray@U_THREADPOOLWAITBLOCK@CMSPCallMultiGraph@@$07$07@@QEAAHXZ
              1. 10 C402 0062 (!)0000:?
            1C0048895C24:
              30488BD90F84D100000048896C24384C89642420:
                0. 09 9DB0 00F1 0000:Dns_DbgHeapValidateAllocList (l)0088:$Invalid$52782
              40488BD974354883C16048897C2448FF15:
                0. 00 0000 0051 0000:Dns_DbgHeapDumpAllocList
            28:
              00750AB8010000004883C428C3C7412800000000488B491033:
                0. 03 9744 002E 0000:?InactivateWindow@CBaseWindow@@UEAAJXZ
              0248895C244048897C2448488BF9C781980000000000000075:
                0. 17 3C14 007C 0000:?CompleteConnect@CBaseRenderer@@UEAAJPEAUIPin@@@Z
            340048895C2438488BD90F8E9D000000837938000F8E93000000:
              0. 2E 4BDE 00BF 0000:?CheckHeaderValidity@CImageDisplay@@SAHPEBUtagVIDEOINFO@@@Z
            54007515E8........FF15........B8010000004883C428C3E8:
              0. 00 0000 0034 0000:?DrawImage@CDrawImage@@QEAAHPEAUIMediaSample@@@Z
            700148897C2448488BF9750FB805400080488B7C24484883C428:
              0. 22 CDFC 0073 0000:?EOS@CRendererPosPassThru@@QEAAJXZ
            7800488D05........48895C2440488901488D05........4889:
              0. 0A 496B 009B 0000:??_GCSource@@UEAAPEAXI@Z
          7A340048895C243048896C2438488974244048897C2448488BDA48:
            0. 44 25F4 017F 0000:?CheckVideoType@CImageDisplay@@QEAAJPEBUtagVIDEOINFO@@@Z
          B9:
            34010000007536C7813401000001000000488B49504885C97414:
              0. 10 CF4F 0048 0000:?DoCompleteHandling@CRenderedInputPin@@AEAAXXZ
            B000000005488974244048897C2448488BFA488BF17216488BCA:
              0. 0F F75C 0077 0000:?Delete@CAMSchedule@@AEAAXPEAVCAdvisePacket@1@@Z
            F40000000048895C244048897C24488BFA488BD90F8524010000:
              0. 56 E52D 0158 0000:InitFolder
          F9:
            014889:
              5C244048897C2448488BFA8BD9731CB90D000000FF15:
                0. 00 0000 0078 0000:Txt_RecordBuildW (0057: C3)
              7C2448488BFA7417B90D000000FF15........33C0488B:
                0. 12 55D3 0082 0000:Aaaa_RecordBuildW (004F: C3)
                1. 12 55D3 0084 0000:Aaaa_RecordBuild (004F: C4)
                2. 12 F39E 0084 0000:A_RecordBuildW (REF 0046: Dns_Ip4StringToAddress_W)
                3. 12 F39E 0084 0000:A_RecordBuild (REF 0046: Dns_Ip4StringToAddress_A)
            024889:
              74244048897C24488BF9488BF2731CB90D000000FF15:
                0. 00 0000 00BB 0000:Nxt_RecordBuild
              7C2448488BFA7417B90D000000FF15........33C0488B:
                0. 12 55D3 0084 0000:Mx_RecordBuild (REF 0058: __imp_strtoul)
                1. 12 55D3 0084 0000:Mx_RecordBuildW (REF 0058: __imp_wcstoul)
            044889:
              5C2440488BDA7417B90D000000FF15........33C0488B:
                0. 2C 70B3 00B7 0000:Key_RecordBuildW
              7C2448488BFA7417B90D000000FF15........33C0488B:
                0. 12 2D0E 00A5 0000:Winsr_RecordBuildW (REF 006B: __imp_wcstoul)
                1. 12 2D0E 00A5 0000:Winsr_RecordBuild (REF 006B: __imp_strtoul)
                2. 12 9123 00BF 0000:Srv_RecordBuildW (REF 007B: __imp_wcstoul)
                3. 12 9123 00BF 0000:Srv_RecordBuild (REF 007B: __imp_strtoul)
            0748895C2430488BDA7417B90D000000FF15........33C0488B:
              0. 12 B29B 00BB 0000:Soa_RecordBuild (REF 008B: __imp_strtoul)
              1. 12 B29B 00BB 0000:Soa_RecordBuildW (REF 008B: __imp_wcstoul)
            FF:
              48895C244048897C24488BF9488BDA744A8B4218A801750884:
                0. 12 72C3 009D 0000:ungetc
              7405E8........4883C428C3:
                0. 00 0000 0013 (l)0000:_un_inc
          FA:
            0148:
              895C24:
                3048896C243848897424404C89642420498BD84D8B:
                  0. 0C FC3B 01A7 0000:?NotifWndProc@CMSPThread@@SA_JPEAUHWND__@@I_K_J@Z
                38488974244048897C24488BDA488BF1498BF87505:
                  0. 01 3E9B 0045 0000:DllEntryPoint
              8B8988000000750DFF15........33C04883C428C3FF15:
                0. 00 0000 002A 0000:?SourceThreadCanWait@CBaseRenderer@@UEAAJH@Z
            0448895C2440488BD90F82D40000003B110F85CC000000448BCA:
              0. 72 246D 00F8 0000:ScHelperInitializeContext
            FF448BC2740E85D2740AB8570007804883C428C3488B81F00000:
              0. 25 8CEA 0050 0000:?SetWindowForeground@CBaseControlWindow@@UEAAJJ@Z
        85:
          C9:
            4889:
              5C244048897C2448488BFA8BD9741D83F9FF7418E8:
                0. 00 0000 0045 0000:NetpLocalTimeToGmtTime (0004: 07)
                1. 00 0000 0045 0000:NetpGmtTimeToLocalTime (0004: 1F)
              7424407407BEFFFFFFFFEB07E8........8BF0488D0D:
                0. 00 0000 00FC 0000:Dns_TimeoutSecurityContextList
            7905E8........4883C428C3:
              0. 00 0000 0012 0000:?CheckError@_com_util@@YAXJ@Z
          D24889:
            5C24:
              3048896C24384889742440:
                48897C2448498B:
                  D8498BF9:
                    0. 38 75AF 008F (l)0000:write_multi_char
                  D98BFA49:
                    0. 23 636B 007B (l)0000:write_multi_char
                8BDA488BE948897C244849:
                  0. 23 0F94 0077 0000:NetpDuplicateString
              3848:
                897C24488BFA488BD97429488974244033F66690:
                  0. 0C 0DE5 004F 0000:MyFreeUnicodeVector
                8D59B87534B900800000813BDDDDDDDD75118B43:
                  0. 76 BA82 00D0 0000:Dns_DbgHeapValidateMemory (l)007C:$Invalid$52692
              4048897C24488BFA498BD87E324D8BC841B828000000:
                0. 02 ABB7 005A 0000:IsPixelFormatValid
              4848897C2420488BD90F8495000000FFCA0F85C00000:
                0. 03 207E 00F5 0000:_DllEntryPoint
            7C2448498BF8743B498B004C8D40034983E0FC4C3BC0760E:
              0. 1F A1AB 0055 0000:NetpLogonPutDomainSID
        8991E800000048895C243848897424408BF2488BD94533C048897C24:
          0. 7B 32FE 0150 0000:SeekFolder
        8A91A402000048895C244048897C244883E20F488BD9BF0100000074:
          0. 1A 48CE 00C5 0000:MCIDestroyCompressionGlobal
        8B:
          014889742440488BF185C0743148895C243848897C2448488BF848:
            0. 0C 7A16 0058 0000:rc4_safe_shutdown
          05........4889:
            5C2440488BD985C074:
              17488D15........B90200:
                0. 03 486B 0155 0000:?AddFiltersToGraph@CAudioCaptureTerminal@@UEAAJXZ
              1A4C8BC1488D15:
                0. 06 82AB 0115 0000:?FreeEventItem@@YAHPEAUMSPEVENTITEM@@@Z
            7C2448488BF985C07417488D15........B90200:
              0. 03 486B 0117 0000:?AddFiltersToGraph@CAudioRenderTerminal@@UEAAJXZ
          15........488974244048897C244833FF85D28BF17E3148895C24:
            0. 04 9062 005C 0000:?DllInitClasses@@YAXH@Z
          41:
            0448896C2438488974244048897C2448498B388942048B014C89:
              0. 43 3A0E 0130 0000:NetpMarshalFtinfoEntry
            0C48895C2438488974244048897C24488B7908488BF23BF8488B:
              0. 1B D88F 0097 0000:?Add@?$CMSPArray@U_THREADPOOLWAITBLOCK@CMSPCallMultiGraph@@$07$07@@QEAAHAEAU_THREADPOOLWAITBLOCK@CMSPCallMultiGraph@@@Z
              1. 1B DD03 008B (!)0000:?
            1848895C24384C8D411848897C244833FFA900D80300488BD90F:
              0. 7D 790D 01EA (l)0000:TypeParseOneLeadSlashName
            1C48895C2430488974244033F6A80148897C2448488BD98BFE75:
              0. 4E 41AD 00B6 (l)0000:TypeParseOptRelPath
          81A008000048895C243048896C24388D04C5000100004889742440:
            0. 20 8694 0080 0000:get_block_stats
          C148B90068C46108000000480FAFC1488D4C24404889442440FF15:
            0. 00 0000 0029 0000:Dns_SystemHourToSystemTime
          C2488B91F00000004885D2741148837A3000750AB8090204804883:
            0. 23 8373 004E 0000:?put_Visible@CBaseControlWindow@@UEAAJJ@Z
          D1E8........:
            0F57C04883C428C3:
              0. 00 0000 0013 (l)0000:zerof_with_flags
            49BB000000000000F07F4C895C2438660F12442438:
              0. 05 492C 0025 (l)0000:infinity_with_flags
            C74424380000807FF30F104424384883C428C3:
              0. 00 0000 001E (l)0000:infinityf_with_flags
        B8:
          010000008705........85C0742B83F80175266666669066666690:
            0. 07 EFB2 0112 0000:w_GetComputerName
          FFFFFFFFF00FC14110FFC87515FF4110488B01BA01000000FF5018:
            0. 19 7943 0039 0000:?NonDelegatingRelease@CUnknown@@UEAAKXZ
        B9:
          00010000FF15........8BC88905........E8........85C07505:
            0. 01 3E9B 002A 0000:auxCreateFont
          78000000FF15........33C04883C428C3:
            0. 00 0000 0016 0000:Dns_CreateRecordFromString
          90000000E8........4885C075054883C428C3FF05........4883:
            0. 03 53B6 0023 0000:Dns_CreateSecurityPacketInfo
          A8000000E8........4885C075054883C428C3FF05........4883:
            0. 03 53B6 0023 0000:Dns_CreateSecurityContext
        BA:
          4C424C47FF15........4885C0750F488D15........8D4801E8:
            0. 00 0000 0028 0000:AcpisimUnload (l)0023:$EndAcpisimUnload$11920
          FFFFFFFFFF15........85C0741883F8FF740AB8FFFF00804883C4:
            0. 07 7757 0032 0000:?WaitEvent@CDynamicOutputPin@@KAJPEAX@Z
        C741:
          0401000000C7010100000033C048894120488941284889413048:
            0. 2D BF5F 00A6 0000:DnsAddrArray_InitSingleWithSockaddr
          0800:
            00000048895110C7411C01000000488D05........48895C:
              0. 4A CC13 006A 0000:??0CEnumMediaTypes@@QEAA@PEAVCBasePin@@PEAV0@@Z
            100000C7410C00100000488D05........48890148B8FFFF:
              0. 2F 090D 0077 0000:??0CBaseStreamControl@@QEAA@XZ
          3001000000488D05........4889:
            5C2440488901F0FF0D:
              0. 00 0000 0073 0000:??_G?$CComObject@V?$CComEnum@UIEnumTerminalClass@@$1?IID_IEnumTerminalClass@@3U_GUID@@BU3@V?$_Copy@U_GUID@@@ATL@@VCComMultiThreadModel@5@@ATL@@@ATL@@QEAAPEAXI@Z
            742440488901F0FF0D:
              0. 00 0000 00A0 0000:??_G?$CComObject@V?$CComEnum@UIEnumVARIANT@@$1?IID_IEnumVARIANT@@3U_GUID@@BUtagVARIANT@@V?$_Copy@UtagVARIANT@@@ATL@@VCComMultiThreadModel@6@@ATL@@@ATL@@QEAAPEAXI@Z (007F: C3)
              1. 00 0000 00A5 0000:??_G?$CComObject@V?$CComEnum@UIEnumTerminal@@$1?IID_IEnumTerminal@@3U_GUID@@BPEAUITTerminal@@V?$_CopyInterface@UITTerminal@@@ATL@@VCComMultiThreadModel@6@@ATL@@@ATL@@QEAAPEAXI@Z (007F: 48) (REF 000E: ??_7?$CComObject@V?$CComEnum@UIEnumTerminal@@$1?IID_IEnumTerminal@@3U_GUID@@BPEAUITTerminal@@V?$_CopyInterface@UITTerminal@@@ATL@@VCComMultiThreadModel@6@@ATL@@@ATL@@6B@)
              2. 00 0000 00A5 0000:??_G?$CComObject@V?$CComEnum@UIEnumPluggableSuperclassInfo@@$1?IID_IEnumPluggableSuperclassInfo@@3U_GUID@@BPEAUITPluggableTerminalSuperclassInfo@@V?$_CopyInterface@UITPluggableTerminalSuperclassInfo@@@ATL@@VCComMultiThreadModel@6@@ATL@@@ATL@@QEAAPEAXI@Z (007F: 48) (REF 000E: ??_7?$CComObject@V?$CComEnum@UIEnumPluggableSuperclassInfo@@$1?IID_IEnumPluggableSuperclassInfo@@3U_GUID@@BPEAUITPluggableTerminalSuperclassInfo@@V?$_CopyInterface@UITPluggableTerminalSuperclassInfo@@@ATL@@VCComMultiThreadModel@6@@ATL@@@ATL@@6B@)
              3. 00 0000 00A5 0000:??_G?$CComObject@V?$CComEnum@UIEnumPluggableTerminalClassInfo@@$1?IID_IEnumPluggableTerminalClassInfo@@3U_GUID@@BPEAUITPluggableTerminalClassInfo@@V?$_CopyInterface@UITPluggableTerminalClassInfo@@@ATL@@VCComMultiThreadModel@6@@ATL@@@ATL@@QEAAPEAXI@Z (007F: 48) (REF 000E: ??_7?$CComObject@V?$CComEnum@UIEnumPluggableTerminalClassInfo@@$1?IID_IEnumPluggableTerminalClassInfo@@3U_GUID@@BPEAUITPluggableTerminalClassInfo@@V?$_CopyInterface@UITPluggableTerminalClassInfo@@@ATL@@VCComMultiThreadModel@6@@ATL@@@ATL@@6B@)
              4. 00 0000 00A5 0000:??_G?$CComObject@V?$CComEnum@UIEnumStream@@$1?IID_IEnumStream@@3U_GUID@@BPEAUITStream@@V?$_CopyInterface@UITStream@@@ATL@@VCComMultiThreadModel@6@@ATL@@@ATL@@QEAAPEAXI@Z (007F: 48) (REF 000E: ??_7?$CComObject@V?$CComEnum@UIEnumStream@@$1?IID_IEnumStream@@3U_GUID@@BPEAUITStream@@V?$_CopyInterface@UITStream@@@ATL@@VCComMultiThreadModel@6@@ATL@@@ATL@@6B@)
            7C2448488901F0FF0D:
              0. 00 0000 007D 0000:??1?$CComObject@V?$CComEnum@UIEnumVARIANT@@$1?IID_IEnumVARIANT@@3U_GUID@@BUtagVARIANT@@V?$_Copy@UtagVARIANT@@@ATL@@VCComMultiThreadModel@6@@ATL@@@ATL@@QEAA@XZ (005C: C3)
              1. 00 0000 0082 0000:??1?$CComObject@V?$CComEnum@UIEnumTerminal@@$1?IID_IEnumTerminal@@3U_GUID@@BPEAUITTerminal@@V?$_CopyInterface@UITTerminal@@@ATL@@VCComMultiThreadModel@6@@ATL@@@ATL@@QEAA@XZ (005C: 10) (REF 000E: ??_7?$CComObject@V?$CComEnum@UIEnumTerminal@@$1?IID_IEnumTerminal@@3U_GUID@@BPEAUITTerminal@@V?$_CopyInterface@UITTerminal@@@ATL@@VCComMultiThreadModel@6@@ATL@@@ATL@@6B@)
              2. 00 0000 0082 0000:??1?$CComObject@V?$CComEnum@UIEnumPluggableSuperclassInfo@@$1?IID_IEnumPluggableSuperclassInfo@@3U_GUID@@BPEAUITPluggableTerminalSuperclassInfo@@V?$_CopyInterface@UITPluggableTerminalSuperclassInfo@@@ATL@@VCComMultiThreadModel@6@@ATL@@@ATL@@QEAA@XZ (005C: 10) (REF 000E: ??_7?$CComObject@V?$CComEnum@UIEnumPluggableSuperclassInfo@@$1?IID_IEnumPluggableSuperclassInfo@@3U_GUID@@BPEAUITPluggableTerminalSuperclassInfo@@V?$_CopyInterface@UITPluggableTerminalSuperclassInfo@@@ATL@@VCComMultiThreadModel@6@@ATL@@@ATL@@6B@)
              3. 00 0000 0082 0000:??1?$CComObject@V?$CComEnum@UIEnumPluggableTerminalClassInfo@@$1?IID_IEnumPluggableTerminalClassInfo@@3U_GUID@@BPEAUITPluggableTerminalClassInfo@@V?$_CopyInterface@UITPluggableTerminalClassInfo@@@ATL@@VCComMultiThreadModel@6@@ATL@@@ATL@@QEAA@XZ (005C: 10) (REF 000E: ??_7?$CComObject@V?$CComEnum@UIEnumPluggableTerminalClassInfo@@$1?IID_IEnumPluggableTerminalClassInfo@@3U_GUID@@BPEAUITPluggableTerminalClassInfo@@V?$_CopyInterface@UITPluggableTerminalClassInfo@@@ATL@@VCComMultiThreadModel@6@@ATL@@@ATL@@6B@)
              4. 00 0000 0082 0000:??1?$CComObject@V?$CComEnum@UIEnumStream@@$1?IID_IEnumStream@@3U_GUID@@BPEAUITStream@@V?$_CopyInterface@UITStream@@@ATL@@VCComMultiThreadModel@6@@ATL@@@ATL@@QEAA@XZ (005C: 10) (REF 000E: ??_7?$CComObject@V?$CComEnum@UIEnumStream@@$1?IID_IEnumStream@@3U_GUID@@BPEAUITStream@@V?$_CopyInterface@UITStream@@@ATL@@VCComMultiThreadModel@6@@ATL@@@ATL@@6B@)
        E8........:
          33:
            C04883C428C3:
              0. 00 0000 0010 0000:?Inactive@CPullPin@@QEAAJXZ
            C985C00F94C18BC14883C428C3:
              0. 00 0000 0017 0000:Dns_RecordSetCompare
          4533DB44891D........44891D........44891D:
            0. 00 0000 002D 0000:auxCloseWindow
          48:
            83C428E9:
              0. 00 0000 0012 0000:auxMainLoop
            B90400000004000000C7406001000000488948644889:
              0. 07 E1C0 0027 0000:AcpisimInitDevPowerStateTable
          83E03F4883C428C3:
            0. 00 0000 0011 0000:_statfp
          8BC84883C428E9:
            0. 00 0000 0014 0000:NetpBindRpc (REF 0005: RpcpBindRpc)
            1. 00 0000 0014 0000:NetpUnbindRpc (REF 0005: RpcpUnbindRpc)
          CC:
            0. 00 0000 000A (!)0000:? (REF 0005: DummyEntry)
        F0FF:
          0D........751D488B0D........4885C97411FF15........48:
            0. 02 48DF 002F 0000:??1CBaseObject@@QEAA@XZ
          49087515FF4108488B01BA01000000FF501833C04883C428C38B:
            0. 07 C516 0027 0000:?NonDelegatingRelease@CUnknown@@UEAAKXZ
        F6:
          0102740C488B490833D2FF15........4883C428C3:
            0. 00 0000 001A 0000:PpRegStateFreeStackCreationSettings
          41:
            180248895C24:
              30488974244048897C2448488BD90F84CA000000:
                0. 21 A771 0146 (l)0000:TypeParseMain
              384889:
                74244048897C2448488BD9746B66666690:
                  0. 1C 233D 00B6 (l)0000:TypeParseAbsPath
                7C2448488BD90F84:
                  96000000448B4B1C48:
                    0. 1C 3E62 00C8 (l)0000:TypeParseMailslotPath
                  B3000000448B4B1C48:
                    0. 1C 3E62 00E8 (l)0000:TypeParseSysPath
              4048897C2448488BD97444448B4B1C488D51104C:
                0. 12 A79B 0072 (l)0000:TypeParseUNCPath
            28024889:
              5C2440488BD9743048897C2448488B7910483B791874:
                0. 06 8A37 005D 0000:??1?$CComEnumImpl@UIEnumVARIANT@@$1?IID_IEnumVARIANT@@3U_GUID@@BUtagVARIANT@@V?$_Copy@UtagVARIANT@@@ATL@@@ATL@@QEAA@XZ
              7C2448488BF9743548895C2440488B5910483B591874:
                0. 1E 5628 0062 (!)0000:?
          C20248895C243848897424408BF2488BD97441448B41F84C8D0D:
            0. 00 0000 007F 0000:??_ECComVariant@ATL@@QEAAPEAXI@Z
        F7C2:
          11010000B8010000007437448B41144183E003443BC075048BC2:
            0. 33 8D73 005C 0000:Dns_ScreenRecord
          FEFFFFFF48895C243048896C24384889742440498BD8488BE98B:
            0. 32 AA1F 00CA 0000:?Block@CDynamicOutputPin@@UEAAJKPEAX@Z
        FF:
          15........:
            488BC84883C42848FF25:
              0. 00 0000 0018 0000:MIDL_user_size
            85C0:
              740F7E120FB7C00D000007804883C428C3B80540:
                0. 07 EC6A 0027 0000:?AmGetLastErrorToHResult@@YAJXZ
              79078BC8E8........4883C428C3:
                0. 00 0000 001A 0000:??1_variant_t@@QEAA@XZ
          411C48895C244048897C2448488BFA488BD9FF15........663B43:
            0. 35 9B8F 0059 0000:ExFreeToNPagedLookasideList
      38:
        0F:
          B681A402000048895C24504D8BC8240F4C8BD2488BD93C030F8501:
            0. 26 4E52 01E1 0000:FolderFlush
          B7:
            01440FB649:
              1848897424504C8D440818498D44091948897C2458:
                0. 34 AD2E 00AF 0000:PtrRpcRecordConvert
              1A48897424504C8D440818498D44091B48897C2458:
                0. 34 8845 00B7 0000:MxRpcRecordConvert
              1E48895C24484C8D440818498D44091F4889742450:
                0. 34 D72B 00C7 0000:SrvRpcRecordConvert
              2448895C24484C8D440818498D4409254889742450:
                0. 34 3BF5 00C1 0000:NbstatRpcRecordConvert
            4112663B4212740733C04883C438C3440FB7C04883C2204883C1:
              0. 10 ED7E 0042 0000:FlatRecordCompare
            4212440FB7411266443BC066440F47C00FB64220384120740733:
              0. 21 6BB8 0053 0000:AtmaRecordCompare
        33:
          C04889:
            5C24:
              4049C700000000008944242089442424894424288944:
                0. FF 89BC 0139 0000:?DecideAllocator@CBaseOutputPin@@UEAAJPEAUIMemInputPin@@PEAPEAUIMemAllocator@@@Z
              50488BD948897C2458498BF848C7C1FFFFFFFF66F2AF:
                0. 1D E5B4 005F 0000:NetpSetConfigValue
              5848896C24304889742428498B7050498BE866837E3E:
                0. 2F 5E55 00CB 0000:?CopyPalette@CImagePalette@@QEAAJPEBVCMediaType@@PEAV2@@Z
            6C2448488974245049890141890066833920498BF1498BE8:
              0. 60 00E3 00E4 0000:SepSddlDaclFromSDDLString
          C983FA5748895C243048897C2428498BC08BDA894C244841890949:
            0. 2F 3CCA 00C8 0000:NetpHandleConfigFailure
          D248894C24204C8D0D........448D4201488D0D........FF15:
            0. 00 0000 0028 0000:CreateMemoryAllocator
        41:
          0FB7C04C:
            894C24284C8BCA4C8BC1488D15........488D0D:
              0. 00 0000 002F 0000:CRrReadCacheEntry
            8BCA4C8BC1488D0D........488D15........89442420:
              0. 01 3E9B 002A 0000:R_ResolverFlushCacheEntry
          8B:
            401448895C245048897C2458C1E803488BDA488BF983E0034C8D:
              0. 01 54B7 0080 0000:MinfoRecordPrint
            C14D8BD0448BCA4C8BC18BD0498BCAC7442428:
              02000000C74424:
                0. 06 6504 002F 0000:Dns_AnsiToUtf8
              03000000C74424:
                0. 06 210F 002F 0000:Dns_Utf8ToAnsi
          B9:
            010000004533C033D2C744242001000000E8........4883C438:
              0. 01 EF04 0021 0000:Dns_RecordCopy_W
            030000004533C033D2C744242003000000E8........4883C438:
              0. 01 EF04 0021 0000:Dns_RecordCopy_A
          F7C0FCFFFFFF48896C2448488974245048897C2458418BE9418BF0:
            0. 4A C7B3 00B3 0000:?SetInterfaceSafetyOptions@CMSPObjectSafetyImpl@@UEAAJAEBU_GUID@@KK@Z
        44:
          0FB60D........48895C244048897424504584C948897C2458488B:
            0. 0B ED2E 00E1 0000:DDK_IoCopyCurrentIrpStackLocationToNext
          89:
            442420:
              448BCA:
                4533C033D2E8........4883C438C3:
                  0. 00 0000 001B 0000:Dns_RecordCopyEx
                4C8BC1488D0D........488D15........E8:
                  0. 00 0000 0027 0000:PNP_SetHwProf (REF 0012: pnp_StubDesc)
                  1. 00 0000 0027 0000:R_ResolverPoke (REF 0012: DnsResolver_StubDesc)
              4C8BCA4C8BC1488D0D........488D15........E8:
                0. 00 0000 0027 (!)0000:? (REF 0012: pnp_StubDesc)
                1. 00 0000 0027 0000:ElfrChangeNotify (REF 0012: eventlog_StubDesc)
            4C24:
              204C8D0D........E8........4883C438C3:
                0. 00 0000 001A 0000:NetpOpenConfigDataWithPath (REF 0011: NetpOpenConfigDataWithPathEx)
                1. 00 0000 001A 0000:NetpOpenConfigData (REF 0011: NetpOpenConfigDataEx)
              28:
                44894424204C8BC14C8BCA488D0D........488D15:
                  0. 00 0000 002C (!)0000:?
                4C894424204C8BC14C8BCA488D0D........488D15:
                  0. 00 0000 002C (!)0000:?
          8B:
            491448895C24:
              4033DB4180E1184C8BD28BC34180F90848896C24:
                0. 26 9E4B 00F9 0000:Soa_RecordWrite
              484C8BD24180E1184889742450498BF04C8B4120:
                0. 26 47E9 009D 0000:Minfo_RecordWrite
            4A184C635A2033C048895C244048897424508B722448897C2458:
              0. FF 72D3 0226 (l)0000:gen_bitlen
        45:
          33D24885:
            C948897C2458488BFA0F84860000004885D20F847D0000:
              0. 4D 36A2 00AA 0000:Hostent_IsAddressInHostent
            D275550FBA25........1C732EFF15........4C8D05:
              0. 00 0000 00BB 0000:?SetBuffer@CImageStream@@UEAAJPEAEHW4SKIP_AMOUNT@@@Z (l)0097:$Cleanup$71986
          84C048895C245048897C2458488BFA488BD9741E41B001FF15:
            0. 00 0000 00B8 0000:NetpIsSubordinate
          85:
            C0488BC1747E4183F8FF74784181F8FFFF0000746741F6C00374:
              0. 7F 7E16 00B1 0000:DnsAddr_IsEqual
            C948895C24:
              30488974242848897C2420488BF18BDAC744245800:
                0. 0E 745C 00D7 0000:NetpGeneratePassword
              4048896C244848897C24584C89642430448B613C4C:
                0. 80 1D52 010F 0000:HostentBlob_WriteNameOrAlias
        48:
          3BCA48896C24484C896424304C896C2428488BEA4C8BE1458BE875:
            0. 62 E7F4 00F6 0000:DnsAddrArray_IsEqual
          83:
            79600048895C2448488974245048897C2458498BF0488BD9488B:
              0. 0F 80E9 00AD 0000:?ReconnectPin@CBaseFilter@@QEAAJPEAUIPin@@PEBU_AMMediaType@@@Z
            B9:
              98000000004889:
                5C2450488BDA740E4585C0741C83B9A00000:
                  0. 50 1DCF 0070 0000:?CheckTime@CCmdQueue@@QEAAHVCRefTime@@H@Z
                7C2458488BF90F84CA000000488B89800000:
                  0. 08 FD3D 00EE 0000:?SetTimeAdvise@CCmdQueue@@IEAAXXZ
              D800000000741B488B89D80000008B4424604C8B1189442420:
                0. 13 502A 0033 0000:?GetDeliveryBuffer@CBaseOutputPin@@UEAAJPEAPEAUIMediaSample@@PEA_J1K@Z
          85:
            C9:
              4889:
                5C24:
                  404889:
                    6C24484889742450:
                      488D35........48897C:
                        0. 33 1E69 0168 0000:ScBuildLogonInfo
                      4C89642430418BE8458B:
                        0. 0D E90D 00F7 0000:Dns_StringCopyAllocate
                    742450488BF1488BDA751448890A33C0488B:
                      0. 2D 1B7F 00B3 0000:MyAllocUnicode
                  4848:
                    8974245048897C2458:
                      418BF0488BDA488BF974:
                        0. 0E 9E26 00E1 0000:?wiauStrW2W@@YAJPEAG0H@Z (l)00DC:$Cleanup$72400
                      488BDA488BF1418BF874:
                        0. 0E 788F 00D7 0000:?wiauStrC2C@@YAJPEAD0H@Z (l)00D2:$Cleanup$72418
                    8BD9750C33C0488B5C24484883C438C3488974:
                      0. 09 381C 00CC 0000:?ConvertStringToBSTR@_com_util@@YAPEAGPEBD@Z
                  50:
                    48897C2458488BF9:
                      488BDA74404885D2743B488B:
                        0. 03 C007 006D (l)0000:?getRelpath@@YAJPEAUIWbemClassObject@@PEAUtagVARIANT@@@Z
                      8BDA743785D274334C8D4424:
                        0. 09 6102 0063 0000:DeInitRand
                    4C8BD24C8BD9751433DB4885D20F94C38BC3488B:
                      0. A7 5464 00DC 0000:MultiSz_Equal_W
                      1. A0 6D26 00D5 0000:MultiSz_Equal_A
                6C24484889:
                  74245048897C24588BEA488BF1BF01000000:
                    0. 11 16D5 00DB 0000:MMCIsMTNodeValid
                  7C24584C896424304C896C2428498BF84C8B:
                    0. 0F 7960 00FB 0000:FindUserProperty
                74245048897C2458418BF8488BF2751133C0488B7C2458:
                  0. 62 25C8 016F 0000:DnsAddrArray_ContainsAddr
                7C24:
                  28498BF94D8BC87515488B4424604889088D410148:
                    0. 52 953B 0095 0000:NetpCopyDataToBuffer
                  58488BC174444889742450488BF1488D3D:
                    0. 17 810F 00B2 0000:EVENTLOG_HANDLE_W_bind
              740C668339007406488B4908EB0233C9E8........89442420:
                0. 06 46B6 0033 0000:ElfRegisterClusterSvc (l)0022:$LN8 (REF 0018: ElfrRegisterClusterSvc)
                1. 06 46B6 0033 0000:ElfDeregisterClusterSvc (l)0022:$LN8 (REF 0018: ElfrDeregisterClusterSvc)
            D2:
              48:
                89:
                  5C24:
                    3048897C2428498BF9488BD974110FB60284C0740A:
                      0. 32 6E69 00D7 0000:_makepath
                    484889:
                      74245048897C2458498B:
                        D9488BC2418BF848:
                          0. 18 F880 00A4 0000:CM_Locate_DevNode_ExA (0063: 1E)
                          1. 18 F880 00A4 0000:CM_Get_Device_ID_List_Size_ExA (0063: 1F)
                        F0488BD9488BFA75:
                          0. 12 27CB 0078 0000:?JoinFilterGraph@CBaseVideoRenderer@@UEAAJPEAUIFilterGraph@@PEBG@Z
                      7C2458488BFA488BD975:
                        14B803400080488B:
                          0. 36 DA3E 01C7 0000:?Receive@CBaseInputPin@@UEAAJPEAUIMediaSample@@@Z
                        5F0FBA25:
                          0. 05 43D8 01FA 0000:?SendToWia@CWiauPropertyList@@QEAAJPEAE@Z (l)01F5:$Cleanup$72081
                    5048897C2458488B:
                      F9418BD8488BC275164533C948:
                        0. 0E F83E 0090 0000:CM_Locate_DevNodeA (0059: 1E)
                        1. 0E F83E 0090 0000:CM_Get_Device_ID_List_SizeA (0059: 1F)
                      FA488BD9:
                        74144D85C0740F803A:
                          0. 29 4D87 0067 0000:mbtowc
                        7519C7411002000000:
                          0. 21 AF1C 0074 0000:?GetPhysicalDimension@Image@Gdiplus@@QEAA?AW4Status@2@PEAVSizeF@2@@Z
                  6C24484C896424304C896C24284C8BE2488BE94D8BE874:
                    0. 2D 72DA 0185 0000:?ReceiveConnection@CBasePin@@UEAAJPEAUIPin@@PEBU_AMMediaType@@@Z
                  74245048897C2458488BF9488BF27514B803400080488B:
                    0. 23 618E 00B6 0000:?GetAllocator@CBaseInputPin@@UEAAJPEAPEAUIMemAllocator@@@Z
                    1. 3F BB8E 009C 0000:?get_DestinationLeft@CBaseControlVideo@@UEAAJPEAJ@Z (0012: 58)
                    2. 3F BB8E 009C 0000:?get_DestinationTop@CBaseControlVideo@@UEAAJPEAJ@Z (0012: 58)
                    3. 3F BB8E 00A1 0000:?get_DestinationWidth@CBaseControlVideo@@UEAAJPEAJ@Z (0012: 58)
                    4. 3F BB8E 00A1 0000:?get_DestinationHeight@CBaseControlVideo@@UEAAJPEAJ@Z (0012: 58)
                    5. 3F BB8E 009C 0000:?get_SourceLeft@CBaseControlVideo@@UEAAJPEAJ@Z (0012: 78)
                    6. 3F BB8E 009C 0000:?get_SourceTop@CBaseControlVideo@@UEAAJPEAJ@Z (0012: 78)
                    7. 3F BB8E 00A1 0000:?get_SourceWidth@CBaseControlVideo@@UEAAJPEAJ@Z (0012: 78)
                    8. 3F BB8E 00A1 0000:?get_SourceHeight@CBaseControlVideo@@UEAAJPEAJ@Z (0012: 78)
                  7C24584C896424304C8BE28BF9751133C04C8B64243048:
                    0. 2A 0EF5 00F0 (l)0000:?createSafeArrayForIpList@@YAPEAUtagSAFEARRAY@@KPEAK@Z
                8BC2750AB8034000804883C438C341B904000000488D15:
                  0. 00 0000 0045 0000:?SetTimeFormat@CSourceSeeking@@UEAAJPEBU_GUID@@@Z
              4C8BCA750AB8034000804883C438C3488B49284885C9750AB8:
                0. 2B 8572 0056 0000:?Move@CBasePropertyPage@@UEAAJPEBUtagRECT@@@Z
              7507B80D0000C0EB17E8........89442420EB0C8BC8FF15:
                0. 00 0000 002C 0000:ElfNumberOfRecords (l)001B:$LN7 (REF 0011: ElfrNumberOfRecords)
                1. 00 0000 002C 0000:ElfOldestRecord (l)001B:$LN7 (REF 0011: ElfrOldestRecord)
          89:
            5424:
              2033D24C8D0D........448D4201488D0D........FF15:
                0. 00 0000 0028 0000:?InitAllocator@CBaseOutputPin@@UEAAJPEAPEAUIMemAllocator@@@Z
              2848895C245048897C2458488BF9BA030000004883C16848:
                0. 11 25C5 0051 0000:CabDestroy
            5C24:
              30:
                48:
                  89:
                    742428:
                      33F683E90448897C24208BDE498BF8741EFF:
                        0. 0B 5A5D 0095 0000:?PerflogCallback@@YAKW4WMIDPREQUESTCODE@@PEAXPEAK1@Z
                      41B844646B2048897C24208BF1488BFAFF15:
                        0. 00 0000 0050 0000:DDK_ExAllocatePool (REF 0020: __imp_ExAllocatePoolWithTag)
                        1. 00 0000 0050 0000:DDK_ExAllocatePoolWithQuota (REF 0020: __imp_ExAllocatePoolWithQuotaTag)
                      48:
                        897C2420:
                          0FB77C2460498BF166412BF90F:
                            0. 03 AFE2 006A 0000:Flat_RecordRead
                          488BFA8BF1FF15........4885:
                            0. 0F 1DA1 004A 0000:DDK_ExAllocatePoolWithTag (REF 001A: __imp_ExAllocatePoolWithTag)
                            1. 0F 1DA1 004A 0000:DDK_ExAllocatePoolWithQuotaTag (REF 001A: __imp_ExAllocatePoolWithQuotaTag)
                        8B:
                          74246833C985D248897C2420498BC08B:
                            0. 4E 0F87 01A3 0000:NetpHandleRpcFailure
                          F2BA10000000488BCE48897C2420498B:
                            0. 06 3842 0085 0000:?OnReceiveMessage@CBasePropertyPage@@UEAA_JPEAUHWND__@@I_K_J@Z
                      498BF04C8B442460488BDA498BD148897C24:
                        0. 05 95B9 0065 0000:??0CBaseControlVideo@@QEAA@PEAVCBaseFilter@@PEAVCCritSec@@PEAGPEAUIUnknown@@PEAJ@Z
                    7C2428:
                      488BF9:
                        498B:
                          09498BD0498BD9FF15:
                            0. 73 B31B 0093 (!)0000:?
                          D9E8........488B5424604533:
                            0. 4D 96F9 006D (!)0000:?
                        8BDAE8........8BD3488BCF488B7C:
                          0. 0E 4103 0032 0000:DDK_ExFreePoolWithTag
                      498BF9488BD9E8........48:
                        8B5424604533:
                          0. 3A C60B 005A 0000:??0CBaseMediaFilter@@QEAA@PEBGPEAUIUnknown@@PEAVCCritSec@@AEBU_GUID@@@Z
                        8D4B20FF15:
                          0. 00 0000 009A 0000:??0CBaseAllocator@@QEAA@PEADPEAUIUnknown@@PEAJHH@Z (REF 0015: ??0CUnknown@@QEAA@PEBDPEAUIUnknown@@@Z)
                          1. 00 0000 009A 0000:??0CBaseAllocator@@QEAA@PEAGPEAUIUnknown@@PEAJHH@Z (REF 0015: ??0CUnknown@@QEAA@PEBGPEAUIUnknown@@@Z)
                    91200100004889742428418BF0488BD9C701417262:
                      0. 18 7991 02F1 0000:ArbInitializeArbiterInstance (l)0281:$cleanup$11806
                  8BD94883C1:
                    0848897C2428418BF9E8........8B4424:
                      0. 30 2EBE 0050 0000:??0CBasePropertyPage@@QEAA@PEADPEAUIUnknown@@HH@Z (REF 0019: ??0CUnknown@@QEAA@PEBDPEAUIUnknown@@@Z)
                      1. 30 2EBE 0050 0000:??0CBasePropertyPage@@QEAA@PEAGPEAUIUnknown@@HH@Z (REF 0019: ??0CUnknown@@QEAA@PEBGPEAUIUnknown@@@Z)
                    1048897C2428498BF9E8........48C743:
                      0. 08 92B3 006B 0000:??0CPosPassThru@@QEAA@PEBGPEAUIUnknown@@PEAJPEAUIPin@@@Z (0041: 38)
                      1. 08 92B3 00AC 0000:??0CRendererPosPassThru@@QEAA@PEBGPEAUIUnknown@@PEAJPEAUIPin@@@Z (0041: 05)
                498B:
                  D84D8B004983C00348897C24284C8BD14983E0FC41:
                    0. 25 08A7 0083 0000:NetpLogonGetDomainSID
                  D948897C24288BFA488BD1488B0B8D4701448BC848:
                    0. 23 56B9 008C 0000:NetpCopyStringToBuffer
                66B9:
                  290048897C2428498BF9E8........4885C0488BD8:
                    0. 44 8950 007A 0000:Atma_RecordRead
                  380048897C2420498BF9E8........4885C0488BD8:
                    0. 28 3598 017E 0000:Tsig_RecordRead (l)0135:$Formerr$52280
                    1. 28 5177 0180 0000:Tkey_RecordRead (l)0139:$Formerr$52215
              40:
                48:
                  89:
                    6C2448:
                      0FB7:
                        6A0248897C245833FF85ED488BD94C8B:
                          0. FF 672F 03C3 (l)0000:send_tree
                        A9BA00000048897424504C8964243044:
                          0. E0 D09D 028A 0000:SwitchToNewCab
                      48:
                        89:
                          742450:
                            418BD94533DB4533D24533C985:
                              0. FF 7DC7 01A8 0000:Dns_Utf8ToUnicode (l)015E:$InvalidUtf8$51932 (l)016D:$OutOfBuffer$51927
                            48:
                              63F2488D2D........48897C:
                                0. 12 3740 0220 0000:SmbTraceStop (l)007D:$LN11 (l)009F:$LN10 (l)00A4:$LN12 (l)00BC:$LN7
                              897C2458:
                                33ED4D85C04C8964:
                                  0. 97 FC1E 010A 0000:WdmlibIoCsqInsertIrpEx
                                488B:
                                  E9:
                                    488BFAFF15:
                                      0. 00 0000 0179 0000:?wiauRegOpenDataW@@YAJPEAUHKEY__@@PEAPEAU1@@Z (l)0137:$Cleanup$72172 (00F2: 2B)
                                      1. 00 0000 0179 0000:?wiauRegOpenDataA@@YAJPEAUHKEY__@@PEAPEAU1@@Z (l)0137:$Cleanup$72198 (00F2: 42)
                                    4C89642430:
                                      0. 04 C5C0 0117 0000:AcpisimPnpQueryStopDevice (l)00E6:$EndPnpQueryStopDevice$11437 (00B4: 05)
                                      1. 04 C5C0 0117 0000:AcpisimPnpQueryRemoveDevice (l)00E6:$EndPnpQueryRemoveDevice$11495 (00B4: 06)
                                  F14C89642430:
                                    0. 0E 78F4 0153 0000:?Advise@CAMSchedule@@QEAA_JAEB_J@Z
                                  F9:
                                    0FB709440F:
                                      0. 30 1C71 00C8 0000:NetpParmsQueryUserPropertyWithLength
                                    4883C13849:
                                      0. 07 BD28 00B5 0000:?GetMediaTime@CRendererPosPassThru@@UEAAJPEA_J0@Z
                                    4C89642430:
                                      0. 11 4567 00FA 0000:?Seek@CPullPin@@QEAAJ_J0@Z
                                498BD9498BE8488B:
                                  0. 05 CAC4 0095 0000:DnsPrint_RecordSet (l)007D:$Unlock$52157
                                4C896424304C89:
                                  6C:
                                    0. 46 A5FD 02C8 0000:decode_data
                                    1. 05 FB8D 00B1 0000:SepSddlLookupAccessMaskInTable
                                  74:
                                    0. 05 3211 00DE 0000:SepSddlGetSidForString
                                8BFA33D24C896424:
                                  0. 0C 9FA8 00EC 0000:?WndProc@@YA_JPEAUHWND__@@I_K_J@Z
                              8BF148:
                                83C10848897C2458:
                                  48:
                                    0. 04 92D3 00D8 0000:?Insert@CCmdQueue@@UEAAJPEAVCDeferredCommand@@@Z
                                  4C:
                                    0. 09 B3FD 00D7 0000:?Remove@CCmdQueue@@UEAAJPEAVCDeferredCommand@@@Z
                                8BDA498BC8BA040000:
                                  0. 0E D64F 00CF 0000:?GetInterfaceSafetyOptions@CMSPObjectSafetyImpl@@UEAAJAEBU_GUID@@PEAK1@Z
                                8D594048897C245848:
                                  0. 12 95A6 00D4 0000:?GetThreadMsg@CMsgThread@@UEAAXPEAVCMsg@@@Z
                              8D:
                                05........48897C24584C:
                                  0. 0A F593 017B 0000:??1CMemAllocator@@UEAA@XZ
                                72:
                                  0248897C2458498BD849:
                                    0. 11 7E1B 009E 0000:Mx_RecordWrite
                                  064C89642430488BDA49:
                                    0. 11 0F07 00BE 0000:Srv_RecordWrite
                            498BE948897C2458488BFA488B:
                              0. 22 C744 00E1 0000:NetpIsValidDomainName
                            8BDA8B15........48897C2458:
                              0. 18 B788 00E9 0000:?CreateStream@CMSPCallBase@@UEAAJJW4TERMINAL_DIRECTION@@PEAPEAUITStream@@@Z
                          7C2458:
                            33DB4585C94C89642430418BC1:
                              0. 23 AD83 00C2 0000:Dns_ValueForString
                            4C896424304533E485D28BEA48:
                              0. 18 960A 0479 0000:encode_verbatim_block
                              1. 18 ADDA 05C9 0000:encode_aligned_block
                        8BE9:
                          33C0488974245048897C2458488BFD:
                            0. 4C 7476 00B9 0000:MakeCredKeyFromStrings
                          488974245048897C245833C0488BFA:
                            0. 30 22D8 00CD 0000:NetpStringToNetBiosName
                      8BA9BC00000085ED4889742450488BD94889:
                        0. 26 D86E 0291 0000:FDIGetFile (l)01A2:$error$5499
                    7424:
                      4848897C24504C89642458:
                        498BF04C8BE2488B:
                          0. 17 D086 018A 0000:PnPGetGlobalHandles (l)0145:$Clean0$54710 (l)0147:$LN24 (l)0170:PnPGetGlobalHandles$filt$0 (l)017A:$LN23 (l)0183:$LN25
                        8BDA8BF181E31F03:
                          0. 03 2041 02D3 0000:_control87 (l)01C1:$LN11 (l)02A0:_control87$filt$0 (l)02AA:$LN10 (l)02CC:$LN12
                      50:
                        488BF14881C1A800000048897C2458488BDA:
                          0. 07 148C 016F 0000:?Run@CBaseRenderer@@UEAAJ_J@Z
                        8B712048897C2458488BF98D4E024C896424:
                          0. 11 DA92 00B8 0000:TxtRecordCopy
                    7C2458:
                      4863:
                        D94C896424304C8D25........4869DB:
                          0. 5D 4767 00C6 0000:SmbTraceFreeMemory
                        F94C896424308D0CBF4C896C242803C9:
                          0. 0D FC9C 00DD 0000:Dns_CreateMultiTypeStringFromTypeArray
                      4C896424304533E44885C9488BD97406488D:
                        0. 0C 68B6 0272 0000:?Alloc@CMemAllocator@@MEAAJXZ
                  8B:
                    1948896C24484885DB488974245048897C24584C89:
                      0. 12 AC90 0153 0000:Dns_DeleteRecordFromList
                    59384889:
                      6C2448488974245048897C24584C896424:
                        0. 0E 1B15 00C0 0000:?Pause@CBaseFilter@@UEAAJXZ
                      742450:
                        488BF148897C2458488BCB4C8974:
                          0. 07 ECDF 00F7 0000:?Run@CBaseFilter@@UEAAJ_J@Z
                        4C896424304C8BE1488BCBFF15:
                          0. 00 0000 00B5 0000:?Stop@CBaseFilter@@UEAAJXZ
                    9AB800000048896C2448488974245048897C24584C:
                      0. 10 9FCA 00F1 0000:AcpisimDispatchPnp (l)009E:$EndAcpisimDispatchPnp$11347 (00C0: 9F)
                      1. 10 9FCA 00FA 0000:AcpisimDispatchPower (l)00A7:$EndAcpisimDispatchPower$11367 (00C0: 49)
                    D9:
                      0FB649:
                        180FB70348896C244848897C2458488D7C:
                          0. 52 9947 00E3 0000:MinfoRpcRecordConvert
                        2C0FB70348896C244848897C2458488D7C:
                          0. 52 7109 00F9 0000:SoaRpcRecordConvert
                      48896C2448488974245048897C245833C0488BEA:
                        0. 1E 7401 00AE 0000:NetpGetMachineAccountName
                  8D593C48896C24488BC34889742450488BE92BC14C8B:
                    0. 24 805A 00B1 0000:Dns_WriteFormattedSystemTimeToBuffer
                49:
                  8B585048896C24484885DB488B6A5048897424504889:
                    0. 14 E1E3 0150 0000:?PreparePalette@CImagePalette@@QEAAJPEBVCMediaType@@0PEAD@Z
                  8D4014498BD84989502048896C24484D8D48104C8BD1:
                    0. 78 AD01 0098 0000:ArbpBuildAlternative (l)004F:$cleanup$11908
                4C896424304C896C24284C8BE2488BD9E8........488D:
                  0. 01 54B7 0131 0000:AcpisimPnpQueryCapabilities (l)00FF:$EndAcpisimPnpQueryCapabilities$11539
              48:
                48:
                  89:
                    742450:
                      33F64885C948897C2458488BD9488BFA7406:
                        0. E7 9B4F 0107 0000:?ChangeMediaTypeHelper@CDynamicOutputPin@@AEAAJPEBVCMediaType@@@Z
                      48:
                        897C2458:
                          33FF4885D2498BD84C8BCA8BF1:
                            0. 12 E5FC 00A3 0000:?_com_issue_errorex@@YAXJPEAUIUnknown@@AEBU_GUID@@@Z (l)0085:$exeunt$51114
                          418BF8488BF2488BD933C04889:
                            0. 34 34F0 00C9 0000:CM_Get_Device_ID_List_Size_ExW (l)0080:$LN14 (l)008B:$Clean0$54815 (l)008D:$LN10 (l)00B0:CM_Get_Device_ID_List_Size_ExW$filt$0 (l)00B9:$LN13 (l)00C3:$LN15
                          488B:
                            DA488B:
                              F14885D274656683:
                                0. 14 26CE 009C 0000:ElfBackupEventLogFileW (l)0051:$LN9 (REF 0045: ElfrBackupELFW)
                                1. 14 26CE 009C 0000:ElfBackupEventLogFileA (l)0051:$LN9 (REF 0045: ElfrBackupELFA)
                              F9E8........8BF0:
                                0. 1A 4F81 00BD 0000:_ctrlfp (l)004D:$LN10 (l)0090:_ctrlfp$filt$0 (l)0099:$LN9 (l)00B7:$LN11
                            F1:
                              33DB85D2740BBB040000:
                                0. 1D DF99 008F 0000:CM_Create_Range_List (l)006E:$Clean0$54596 (l)0070:$LN9
                              FF15........4C8D05:
                                0. 00 0000 00D0 0000:MMCPropertyHelp
                            F98BDA33F6E8........85:
                              0. 05 A475 0163 0000:auxInitWindowAW
                          660F7F742420F20F10F3498BF8:
                            0. 07 7301 005F 0000:?NewSegment@CTransformInputPin@@UEAAJ_J0N@Z
                          8BF2488BD933C048C7C1FFFFFF:
                            0. 13 15AC 00AA 0000:NetpEventlogOpen (l)0089:$LN8
                        8B:
                          F1:
                            4883C13848897C2458488BFAFF15:
                              0. 00 0000 0096 0000:?RegisterMediaTime@CRendererPosPassThru@@QEAAJPEAUIMediaSample@@@Z
                            B99000000048897C2458488BFAE8:
                              0. 00 0000 00A2 0000:?CreateInstance@CSystemClock@@SAPEAVCUnknown@@PEAUIUnknown@@PEAJ@Z
                          F2488D54242048:
                            897C2458488BF948C7:
                              0. AA D524 00CA 0000:WdmlibIoCsqRemoveNextIrp
                            8BD948897C245848C7:
                              0. 7C C997 009C 0000:WdmlibIoCsqRemoveIrp
                        8D44242048897C245833FF4885D2488BDA:
                          0. 27 7068 0094 0000:buildUnmatchedRecordSet
                      498BD8450FB64020488BF148897C2458488B:
                        0. 04 77EC 00A3 0000:AtmaRecordPrint
                    7C2430488BF9B9:
                      4B000000E8........4885C0488B:
                        0. 3C 95EC 00CB 0000:Dns_Ip6AddressToReverseNameAlloc_A
                      96000000E8........4885C0488B:
                        0. 3C 5B00 00D1 0000:Dns_Ip6AddressToReverseNameAlloc_W
                  8B:
                    C248897424508BF1488D542420488BC848897C2458:
                      0. 10 6068 0085 0000:CM_Add_ID_ExA
                    D9488B490848897424504863F248897C2458498BF8:
                      0. 13 DF7D 014C 0000:ArbArbiterHandler (l)0053:$LN14 (l)0089:$LN13 (l)0099:$LN12 (l)00A6:$LN11 (l)00B3:$LN10 (l)00C3:$LN9 (l)00E7:$LN8
                    DA48897424500FB771108B431448897C2458C1E803:
                      0. 61 0C99 011B 0000:Dns_RecordCompare
                  8D99F0000000488974245048897C2458488BF9488BCB:
                    0. 02 ABB7 011A 0000:?StartUsingOutputPin@CDynamicOutputPin@@UEAAJXZ
                4C8BD9488BDA0FB6511E488974245048897C2458440FB6:
                  0. 46 82B5 05A8 (l)0000:getop2val (l)0076:$LN93 (l)009A:$LN92 (l)00B1:$LN91 (l)0467:$LN43 (l)046D:$LN42 (l)0476:$LN41 (l)047F:$LN40 (l)0488:$LN39 (l)0491:$LN38 (l)049A:$LN37 (l)04A3:$LN36 (l)04AC:$LN35 (l)04B5:$LN34 (l)04BE:$LN33 (l)04C7:$LN32 (l)04D0:$LN31 (l)04D9:$LN30 (l)04E2:$LN102
                4D85C04889742450488D05........48897C2458498BD9:
                  0. 12 7006 015B 0000:DnsPrint_ParsedMessage
              50:
                448BCA448BC18BDA48897C24588BF933C933D2FF15:
                  0. 00 0000 0085 0000:DefaultHandleReshape
                48:
                  63DA33D24885C948897C245889542440488BF90F8480:
                    0. 28 8701 016C 0000:Dns_ValidateName_UTF8 (l)0070:$LN16 (l)0091:$LN14 (l)00B7:$LN11 (l)00D8:$LN9 (l)0107:$LN5 (l)0122:$LN3
                  897C2458:
                    33DB48895C242881F920040207740BBB1F00:
                      0. 12 D143 00D9 0000:CMP_Report_LogOn (l)0072:$LN19 (l)00A0:$Clean0$54766 (l)00A2:$LN15 (l)00C0:CMP_Report_LogOn$filt$0 (l)00C9:$LN18 (l)00D3:$LN20
                    418BF8488BD9418D4001448BC04D03C0E8:
                      0. 00 0000 006E 0000:CopyFixedUpDeviceId (l)005F:$LN11
                    488BF9:
                      33DB4885C9750BBB03000000895C24:
                        0. 1A 1627 007F 0000:CM_Disconnect_Machine (l)0063:$Clean0$54641 (l)0065:$LN9
                      410FB708498BC0488BDA6683F90275:
                        0. 11 6C8C 009B 0000:Dns_DnsAddrToString_W
                      48:
                        83C128FF15........48837F2000:
                          0. 0A D6D0 008A 0000:?Create@CAMThread@@QEAAHXZ
                        8B4910FF15........85C0747948:
                          0. 07 931C 013C 0000:?DoneWithWindow@CBaseWindow@@UEAAJXZ
                        8D4C2420498BD8E8........85C0:
                          0. 0E 1FE5 0041 0000:CmRegUtilWstrValueSetUcString
                    498B:
                      D88BFA48C7442428000000004885C975:
                        0. 12 0FFA 0085 0000:CM_Unregister_Device_Interface_ExA (l)005A:$Clean0$56241 (l)005C:$LN10
                      F833DB4885C9750BBB03000000895C24:
                        0. 57 FAFC 00AC 0000:CM_Get_Class_Key_Name_ExW (l)0090:$Clean0$55285 (l)0092:$LN13
                    4C8BC133C08BD0448D48014885C90F84E700:
                      0. FF 2533 0126 0000:IsLegalDeviceId (l)0110:$Clean0$48141 (l)0112:$LN19
                    8B:
                      D948C7442428000000004C8D05:
                        0. 09 6AFB 0085 0000:CMP_WaitNoPendingInstallEvents (l)0058:$LN9
                      F9B9:
                        4B000000E8........4885C0488BD8:
                          0. 12 1585 0087 0000:Dns_Ip4AddressToReverseNameAlloc_A
                        96000000E8........4885C0488BD8:
                          0. 12 26D5 008C 0000:Dns_Ip4AddressToReverseNameAlloc_W
                  8B:
                    594848897C2458660F7F742420F20F10F1488BF948:
                      0. 04 758A 0058 0000:?SetRate@CSourceSeeking@@UEAAJN@Z
                    D9:
                      0FB6491C85C948897C2458488BFA742D83E96674:
                        0. 34 858E 01F8 (l)0000:GetSIMDOperands (l)00DF:$LN26 (l)0103:$LN25 (l)0117:$LN24
                      410FB7086683F90248897C2458498BC0488BFA75:
                        0. 11 02FF 009A 0000:Dns_DnsAddrToString_A
                      8A890A01000083E10F48897C2458488BFA0F840F:
                        0. 47 04E1 018D 0000:MDIDecompressGlobal
                    DA48:
                      897C2458488BF9488D4C2420498BD0E8:
                        0. 00 0000 0044 0000:CmRegUtilUcValueSetWstrString
                      8D15........8B82........48897C2458488B:
                        0. 05 A2F5 0170 0000:CreateAudioMediaType
                4C:
                  8BC148897C2458BFFFFFFFFFBB01000000B909040000:
                    0. 10 0EBD 0060 0000:wcsicmp_ThatWorks
                  8D81242B00004C8D891C0A0000BA0001000048897C24:
                    0. 05 75D5 010F 0000:read_main_and_secondary_trees
                8BDA8B91A0080000488D81303400004C8D89882500004C:
                  0. 1F 2AF7 00AC 0000:create_trees
              5848896C2430488974242848897C2420488BF1488BDAE8:
                0. 00 0000 00E6 0000:AcpisimD0Completion (l)008B:$EndAcpisimD0Completion$11789
            6C2448:
              41B90200000048897C2450498BF84C896424584C8BE245:
                0. 0D 3AF9 00B3 0000:NetpGetAllowedAce
              4889:
                74245048897C24584C89642430:
                  33:
                    F64585C94C896C:
                      0. 63 42EA 012B 0000:Dns_FlagForString
                    FF4D85C94C8974:
                      0. 32 4326 011E 0000:?Read@CImageStream@@UEAAJPEAXKPEAK@Z (l)0100:$Cleanup$72043
                      1. 32 A2A0 0117 0000:?Write@CImageStream@@UEAAJPEBXKPEAK@Z (l)00F9:$Cleanup$72070
                  4533E44863EA83FD:
                    0. 0C 5CBF 0356 0000:?Init@CWiauPropertyList@@QEAAJH@Z (l)02C4:$Cleanup$71988
                7C245833FF4885C94C896424304C896C24284C8BE7:
                  0. 0C 8039 00B2 0000:Ip4Array_CreateFromIp6Array (l)008D:$Done$52240
              4C896C24284C8BE933C9BA0806000041B84B736563FF15:
                0. 00 0000 00F5 0000:rc4_safe_startup
            7424:
              28458BD048897C24204183E2034D8BD9488BFA488BF1740B:
                0. 44 6440 00E2 0000:DbgHeapSetHeaderAlloc
              50:
                488BF1:
                  0FB7094803CE48897C2458410FB6F8483BCA770E:
                    0. 37 EEA4 00F8 0000:DnsConvertRpcBufferNode
                  48897C2458488BFABA10000000C7442420100000:
                    0. 06 F5F5 00C7 0000:ElfpGetComputerName (l)0089:$CleanExit$23688
                B908000000660F7F742420F20F10F0E8........4885C0:
                  0. 10 03CB 0145 0000:auxSolidSphere
                  1. 10 46D5 0138 0000:auxWireSphere
            7C2458:
              488BF94533C933C933D241B8FFFFFF7FFF15........48:
                0. 1E B4C5 0075 0000:?CreateThread@CMsgThread@@QEAAHXZ
              4C896424304C8B21410FB74424104C896C24284C897424:
                0. 6F 9D06 00E9 0000:HostentBlob_WriteAddress
          8B:
            0148895C24:
              4048896C24484889742450BD0100000048897C2458:
                0. E4 6D6E 0104 0000:ReadInt
              504533C048897C2458488BD9488BFAFF90A0000000:
                0. 35 5736 00B1 0000:?GetCurrentPosition@CPosPassThru@@UEAAJPEA_J@Z
            02:
              48895C24:
                4048896C2448:
                  33DB488974245048897C2458488BFA:
                    0. FF 3598 0141 0000:?Load@CPersistStream@@UEAAJPEAUIStream@@@Z
                  488BEA4889742450488BF148897C24:
                    0. 78 C1A9 0098 0000:?DeliverSample@CPullPin@@AEAAJPEAUIMediaSample@@_J1@Z
                48488BD94889742450488BF24C8D442420488D5424:
                  0. FF E463 0152 0000:?ShouldSkipFrame@CVideoTransformFilter@@IEAAHPEAUIMediaSample@@@Z
              4C8BCA48895C2450498BD848897C2458488BF94C8D44242048:
                0. 02 DF74 0070 0000:?SendNotifyWindow@CBaseRenderer@@QEAAXPEAUIPin@@PEAUHWND__@@@Z
            05........4889:
              442420:
                0FB6024533:
                  C94C8BDA84C04C8BD14C89:
                    0. A0 536B 00C9 0000:strcspn
                  D24C8BDA84C04C8BC94C89:
                    0. A0 8D78 00DA 0000:strspn
                33C0:
                  4C8BD24C8BC94889042448894424:
                    0. 81 68DC 00BC 0000:strpbrk
                  891424C744240414000000488901:
                    0. 75 EDE7 009E 0000:DnsAddr_BuildFromAtm
                4C8BC10FB74A10FFC90F841C01000083:
                  0. 15 92F5 0188 0000:DnsAddr_BuildFromDnsRecord
                664533C94C8BDA41BA010000004881C1:
                  0. 8C 2BB7 00B5 (l)0000:gen_codes
              742450BE010000004885C07520B951030000E8:
                0. 00 0000 0155 (l)0000:_setlocale_get_all
            41:
              204C8BCA488B5108488B0948894424284C894424204533C0E8:
                0. 00 0000 0032 0000:FCIFlushFolder
              30488974245048897C24584885C08BF2488BF9741B48837830:
                0. 25 DF1D 00E6 0000:?put_DestinationLeft@CBaseControlVideo@@UEAAJJ@Z (006A: 50)
                1. 25 DF1D 00E6 0000:?put_DestinationTop@CBaseControlVideo@@UEAAJJ@Z (006A: 50)
                2. 25 DF1D 00DF 0000:?put_DestinationWidth@CBaseControlVideo@@UEAAJJ@Z (0027: 28)
                3. 25 DF1D 00DF 0000:?put_DestinationHeight@CBaseControlVideo@@UEAAJJ@Z (0027: 2C)
                4. 25 DF1D 00E6 0000:?put_SourceLeft@CBaseControlVideo@@UEAAJJ@Z (006A: 70)
                5. 25 DF1D 00E6 0000:?put_SourceTop@CBaseControlVideo@@UEAAJJ@Z (006A: 70)
                6. 25 DF1D 00DF 0000:?put_SourceWidth@CBaseControlVideo@@UEAAJJ@Z (0027: 28)
                7. 25 DF1D 00DF 0000:?put_SourceHeight@CBaseControlVideo@@UEAAJJ@Z (0027: 2C)
            4424:
              6848:
                8B49204C8B1148894424288B4424608944242041FF:
                  52:
                    0. 06 1825 0026 0000:?Blt@CAggDrawSurface@@UEAAJPEAUtagRECT@@PEAUIDirectDrawSurface@@0KPEAU_DDBLTFX@@@Z
                  92:
                    0. 09 3D39 0029 0000:?UpdateOverlay@CAggDrawSurface@@UEAAJPEAUtagRECT@@PEAUIDirectDrawSurface@@0KPEAU_DDOVERLAYFX@@@Z
                8D:
                  0D........48894424288B44246089442420E8:
                    0. 00 0000 0027 0000:?GetIDsOfNames@?$IDispatchImpl@V?$ITTerminalVtblBase@VCBaseTerminal@@@@$1?IID_ITTerminal@@3U_GUID@@B$1?LIBID_TAPI3Lib@@3U3@B$00$0A@VCComTypeInfoHolder@ATL@@@ATL@@UEAAJAEBU_GUID@@PEAPEAGIKPEAJ@Z (REF 000C: ?_tih@?$IDispatchImpl@V?$ITTerminalVtblBase@VCBaseTerminal@@@@$1?IID_ITTerminal@@3U_GUID@@B$1?LIBID_TAPI3Lib@@3U3@B$00$0A@VCComTypeInfoHolder@ATL@@@ATL@@1VCComTypeInfoHolder@2@A)
                    1. 00 0000 0027 0000:?GetIDsOfNames@?$IDispatchImpl@UITBasicAudioTerminal@@$1?IID_ITBasicAudioTerminal@@3U_GUID@@B$1?LIBID_TAPI3Lib@@3U3@B$00$0A@VCComTypeInfoHolder@ATL@@@ATL@@UEAAJAEBU_GUID@@PEAPEAGIKPEAJ@Z (REF 000C: ?_tih@?$IDispatchImpl@UITBasicAudioTerminal@@$1?IID_ITBasicAudioTerminal@@3U_GUID@@B$1?LIBID_TAPI3Lib@@3U3@B$00$0A@VCComTypeInfoHolder@ATL@@@ATL@@1VCComTypeInfoHolder@2@A)
                    2. 00 0000 0027 0000:?GetIDsOfNames@?$IDispatchImpl@UITStaticAudioTerminal@@$1?IID_ITStaticAudioTerminal@@3U_GUID@@B$1?LIBID_TAPI3Lib@@3U3@B$00$0A@VCComTypeInfoHolder@ATL@@@ATL@@UEAAJAEBU_GUID@@PEAPEAGIKPEAJ@Z (REF 000C: ?_tih@?$IDispatchImpl@UITStaticAudioTerminal@@$1?IID_ITStaticAudioTerminal@@3U_GUID@@B$1?LIBID_TAPI3Lib@@3U3@B$00$0A@VCComTypeInfoHolder@ATL@@@ATL@@1VCComTypeInfoHolder@2@A)
                    3. 00 0000 0027 0000:?GetIDsOfNames@?$IDispatchImpl@UITCollection@@$1?IID_ITCollection@@3U_GUID@@B$1?LIBID_TAPI3Lib@@3U3@B$00$0A@VCComTypeInfoHolder@ATL@@@ATL@@UEAAJAEBU_GUID@@PEAPEAGIKPEAJ@Z (REF 000C: ?_tih@?$IDispatchImpl@UITCollection@@$1?IID_ITCollection@@3U_GUID@@B$1?LIBID_TAPI3Lib@@3U3@B$00$0A@VCComTypeInfoHolder@ATL@@@ATL@@1VCComTypeInfoHolder@2@A)
                    4. 00 0000 0027 0000:?GetIDsOfNames@?$IDispatchImpl@UITPluggableTerminalSuperclassInfo@@$1?IID_ITPluggableTerminalSuperclassInfo@@3U_GUID@@B$1?LIBID_TAPI3Lib@@3U3@B$00$0A@VCComTypeInfoHolder@ATL@@@ATL@@UEAAJAEBU_GUID@@PEAPEAGIKPEAJ@Z (REF 000C: ?_tih@?$IDispatchImpl@UITPluggableTerminalSuperclassInfo@@$1?IID_ITPluggableTerminalSuperclassInfo@@3U_GUID@@B$1?LIBID_TAPI3Lib@@3U3@B$00$0A@VCComTypeInfoHolder@ATL@@@ATL@@1VCComTypeInfoHolder@2@A)
                    5. 00 0000 0027 0000:?GetIDsOfNames@?$IDispatchImpl@UITPluggableTerminalClassInfo@@$1?IID_ITPluggableTerminalClassInfo@@3U_GUID@@B$1?LIBID_TAPI3Lib@@3U3@B$00$0A@VCComTypeInfoHolder@ATL@@@ATL@@UEAAJAEBU_GUID@@PEAPEAGIKPEAJ@Z (REF 000C: ?_tih@?$IDispatchImpl@UITPluggableTerminalClassInfo@@$1?IID_ITPluggableTerminalClassInfo@@3U_GUID@@B$1?LIBID_TAPI3Lib@@3U3@B$00$0A@VCComTypeInfoHolder@ATL@@@ATL@@1VCComTypeInfoHolder@2@A)
                  15........4883C12048894424288B442460894424:
                    0. 02 3247 002B 0000:?GetIDsOfNames@CMediaControl@@UEAAJAEBU_GUID@@PEAPEAGIKPEAJ@Z (REF 000C: IID_IMediaControl)
                    1. 02 3247 002B 0000:?GetIDsOfNames@CMediaEvent@@UEAAJAEBU_GUID@@PEAPEAGIKPEAJ@Z (REF 000C: IID_IMediaEvent)
                    2. 02 3247 002B 0000:?GetIDsOfNames@CMediaPosition@@UEAAJAEBU_GUID@@PEAPEAGIKPEAJ@Z (REF 000C: IID_IMediaPosition)
                    3. 02 3247 002B 0000:?GetIDsOfNames@CBasicAudio@@UEAAJAEBU_GUID@@PEAPEAGIKPEAJ@Z (REF 000C: IID_IBasicAudio)
                    4. 02 3247 002B 0000:?GetIDsOfNames@CBaseVideoWindow@@UEAAJAEBU_GUID@@PEAPEAGIKPEAJ@Z (REF 000C: IID_IVideoWindow)
                    5. 02 3247 002B 0000:?GetIDsOfNames@CBaseBasicVideo@@UEAAJAEBU_GUID@@PEAPEAGIKPEAJ@Z (REF 000C: IID_IBasicVideo)
              7048895C243048897C242848894128488B44246833FF4038:
                0. 36 7F30 030E 0000:NFMcompress
            49:
              20:
                488B4424604C8B11488944242041FF:
                  52:
                    284883C438C3:
                      0. 00 0000 001E 0000:?CreatePalette@CAggDirectDraw@@UEAAJKPEAUtagPALETTEENTRY@@PEAPEAUIDirectDrawPalette@@PEAUIUnknown@@@Z
                    404883C438C3:
                      0. 00 0000 001E 0000:?EnumDisplayModes@CAggDirectDraw@@UEAAJKPEAU_DDSURFACEDESC@@PEAXP6AJ01@Z@Z
                    484883C438C3:
                      0. 00 0000 001E 0000:?EnumSurfaces@CAggDirectDraw@@UEAAJKPEAU_DDSURFACEDESC@@PEAXP6AJPEAUIDirectDrawSurface@@01@Z@Z
                  92C80000004883C438:
                    0. 01 EF04 0021 0000:?Lock@CAggDrawSurface@@UEAAJPEAUtagRECT@@PEAU_DDSURFACEDESC@@KPEAX@Z
                8B4424684C8B1189442428488B442460488944242041FF52:
                  0. 06 A867 0026 0000:?BltFast@CAggDrawSurface@@UEAAJKKPEAUIDirectDrawSurface@@PEAUtagRECT@@K@Z
              2848895C24484889742450488B01488BF2488D542420FF5030:
                0. 11 7C01 0099 0000:?CanSeekForward@CPosPassThru@@UEAAJPEAJ@Z (002F: 80)
                1. 11 7C01 0099 0000:?CanSeekBackward@CPosPassThru@@UEAAJPEAJ@Z (002F: 88)
                2. 11 F0ED 0096 0000:?get_Duration@CPosPassThru@@UEAAJPEAN@Z (002F: 38)
                3. 11 F0ED 0096 0000:?get_CurrentPosition@CPosPassThru@@UEAAJPEAN@Z (002F: 48)
                4. 11 F0ED 0096 0000:?get_StopTime@CPosPassThru@@UEAAJPEAN@Z (002F: 50)
                5. 11 F0ED 0096 0000:?get_PrerollTime@CPosPassThru@@UEAAJPEAN@Z (002F: 60)
                6. 11 F0ED 0096 0000:?get_Rate@CPosPassThru@@UEAAJPEAN@Z (002F: 78)
              304889:
                5C24:
                  4048896C2448488B01488BEA488D542420488974:
                    0. 19 3C06 00AE 0000:?GetAvailable@CPosPassThru@@UEAAJPEA_J0@Z
                    1. 19 D899 00AB 0000:?GetPositions@CPosPassThru@@UEAAJPEA_J0@Z
                  484889742450488B01488BF2488D542420FF5030:
                    0. 11 7C01 0099 0000:?GetRate@CPosPassThru@@UEAAJPEAN@Z
                    1. 11 F0ED 0096 0000:?GetCapabilities@CPosPassThru@@UEAAJPEAK@Z (002F: 18)
                    2. 11 F0ED 0096 0000:?CheckCapabilities@CPosPassThru@@UEAAJPEAK@Z (002F: 20)
                    3. 11 F0ED 0096 0000:?IsFormatSupported@CPosPassThru@@UEAAJPEBU_GUID@@@Z (002F: 28)
                    4. 11 F0ED 0096 0000:?QueryPreferredFormat@CPosPassThru@@UEAAJPEAU_GUID@@@Z (002F: 30)
                    5. 11 F0ED 0096 0000:?GetTimeFormatW@CPosPassThru@@UEAAJPEAU_GUID@@@Z (002F: 38)
                    6. 11 F0ED 0096 0000:?IsUsingTimeFormat@CPosPassThru@@UEAAJPEBU_GUID@@@Z (002F: 40)
                    7. 11 F0ED 0096 0000:?SetTimeFormat@CPosPassThru@@UEAAJPEBU_GUID@@@Z (002F: 48)
                6C2448488BEA488B01488D5424204889742450498BF0:
                  0. 28 C68B 00B8 0000:?GetSeekingLongLong@CPosPassThru@@AEAAJP8IMediaSeeking@@EAAJPEA_J@Z0@Z
                742450488BF2488B01488D542420FF503085C0790FB8:
                  0. 1B D61A 00A4 0000:?GetDuration@CPosPassThru@@UEAAJPEA_J@Z (REF 007F: ??_9IMediaSeeking@@$BFA@AA)
                  1. 1B D61A 00A4 0000:?GetStopPosition@CPosPassThru@@UEAAJPEA_J@Z (REF 007F: ??_9IMediaSeeking@@$BFI@AA)
                  2. 1B D61A 00A4 0000:?GetPreroll@CPosPassThru@@UEAAJPEA_J@Z (REF 007F: ??_9IMediaSeeking@@$BJI@AA)
            81:
              8800000048895C2450488BD94889442420488B818000000048:
                0. 26 890B 008E 0000:?WaitForRenderTime@CBaseRenderer@@UEAAJXZ
              D800000048895C244848897C245883B81001000000488BFA48:
                0. 2D 1441 0107 0000:?Receive@CTransformFilter@@UEAAJPEAUIMediaSample@@@Z
            C248895C245048897C24588BF9488D542420488BC8418BD848C7:
              0. 08 8F12 0073 0000:CM_Add_IDA
            D1488D4C2420FF15........4C8B1D........41803B00741548:
              0. 06 8837 0048 0000:NetpUnicodeToDBCSLen
          8D:
            15........488D4C2420FF15........488D4C2420FF15:
              0. 00 0000 0066 0000:WdmlibInit
            815643000048895C24484C8D81364300004C8D89664300004889:
              0. 1E 2C82 0083 0000:encode_aligned_tree
          C74424:
            20:
              00000000E8........4883C438C3:
                0. 00 0000 0017 0000:CM_Enumerate_EnumeratorsW (REF 000E: CM_Enumerate_Enumerators_ExW)
                1. 00 0000 0017 0000:CM_Get_Device_ID_ListW (REF 000E: CM_Get_Device_ID_List_ExW)
                2. 00 0000 0017 0000:CM_Get_Device_ID_ListA (REF 000E: CM_Get_Device_ID_List_ExA)
                3. 00 0000 0017 0000:CM_Get_Device_IDW (REF 000E: CM_Get_Device_ID_ExW)
                4. 00 0000 0017 0000:CM_Get_Res_Des_Data (REF 000E: CM_Get_Res_Des_Data_Ex)
                5. 00 0000 0017 0000:CM_Get_Class_NameW (REF 000E: CM_Get_Class_Name_ExW)
                6. 00 0000 0017 0000:CM_Get_Class_Key_NameW (REF 000E: CM_Get_Class_Key_Name_ExW)
                7. 00 0000 0017 0000:CM_Get_Device_Interface_List_SizeW (REF 000E: CM_Get_Device_Interface_List_Size_ExW)
                8. 00 0000 0017 0000:CM_Get_Device_Interface_List_SizeA (REF 000E: CM_Get_Device_Interface_List_Size_ExA)
                9. 00 0000 0017 0000:CM_Query_Arbitrator_Free_Size (REF 000E: CM_Query_Arbitrator_Free_Size_Ex)
                10. 00 0000 0017 0000:CM_Add_Empty_Log_Conf (REF 000E: CM_Add_Empty_Log_Conf_Ex)
                11. 00 0000 0017 0000:CM_Get_HW_Prof_FlagsW (REF 000E: CM_Get_HW_Prof_Flags_ExW)
                12. 00 0000 0017 0000:CM_Set_HW_Prof_FlagsW (REF 000E: CM_Set_HW_Prof_Flags_ExW)
                13. 00 0000 0017 0000:CM_Get_DevNode_Status (REF 000E: CM_Get_DevNode_Status_Ex)
                14. 00 0000 0017 0000:CM_Create_DevNodeW (REF 000E: CM_Create_DevNode_ExW)
                15. 00 0000 0017 0000:KerbSetPasswordUser (REF 000E: KerbSetPasswordUserEx)
              FEFFFFFF48895C24:
                4048896C2448488974245048897C24:
                  0. 15 4C84 0158 0000:?put_Name@CPlugTerminalClassInfo@@EEAAJPEAG@Z (l)0140:?dtor$0@?0??put_Name@CPlugTerminalClassInfo@@EEAAJPEAG@Z@4HA (0091: 70)
                  1. 15 4C84 0158 0000:?put_Name@CPlugTerminalSuperclassInfo@@EEAAJPEAG@Z (l)0140:?dtor$0@?0??put_Name@CPlugTerminalSuperclassInfo@@EEAAJPEAG@Z@4HA (0091: 78) (REF 0046: ??_C@_0CO@EBKLNNPB@CPlugTerminalSuperclassInfo?3?3put@)
                  2. 15 4C84 0158 0000:?put_Company@CPlugTerminalClassInfo@@EEAAJPEAG@Z (l)0140:?dtor$0@?0??put_Company@CPlugTerminalClassInfo@@EEAAJPEAG@Z@4HA (0091: 78) (REF 0046: ??_C@_0CM@HBFFHENI@CPlugTerminalClassInfo?3?3put_Comp@)
                  3. 15 4C84 0168 0000:?put_Version@CPlugTerminalClassInfo@@EEAAJPEAG@Z (l)0150:?dtor$0@?0??put_Version@CPlugTerminalClassInfo@@EEAAJPEAG@Z@4HA (0091: FF)
                  4. 1E 54BF 00AE 0000:?CreateInstance@?$CComObject@V?$CSafeComEnum@UIEnumTerminalClass@@$1?IID_IEnumTerminalClass@@3U_GUID@@BU3@V?$_Copy@U_GUID@@@ATL@@VCComMultiThreadModel@5@@@@ATL@@SAJPEAPEAV12@@Z
                  5. 1E 71CE 00B8 0000:?CreateInstance@?$CComObject@V?$CTapiIfCollection@PEAUITPluggableTerminalClassInfo@@@@@ATL@@SAJPEAPEAV12@@Z (l)00A0:?dtor$0@?0??CreateInstance@?$CComObject@V?$CTapiIfCollection@PEAUITPluggableTerminalClassInfo@@@@@ATL@@SAJPEAPEAV12@@Z@4HA (REF 0068: ??_7?$CComObject@V?$CTapiIfCollection@PEAUITPluggableTerminalClassInfo@@@@@ATL@@6B@)
                  6. 1E 71CE 00B8 0000:?CreateInstance@?$CComObject@V?$CTapiIfCollection@PEAUITStream@@@@@ATL@@SAJPEAPEAV12@@Z (l)00A0:?dtor$0@?0??CreateInstance@?$CComObject@V?$CTapiIfCollection@PEAUITStream@@@@@ATL@@SAJPEAPEAV12@@Z@4HA (REF 0068: ??_7?$CComObject@V?$CTapiIfCollection@PEAUITStream@@@@@ATL@@6B@)
                  7. 1E 71CE 00B8 0000:?CreateInstance@?$CComObject@V?$CTapiIfCollection@PEAUITTerminal@@@@@ATL@@SAJPEAPEAV12@@Z (l)00A0:?dtor$0@?0??CreateInstance@?$CComObject@V?$CTapiIfCollection@PEAUITTerminal@@@@@ATL@@SAJPEAPEAV12@@Z@4HA (REF 0068: ??_7?$CComObject@V?$CTapiIfCollection@PEAUITTerminal@@@@@ATL@@6B@)
                  8. 1E 71CE 00B8 0000:?CreateInstance@?$CComObject@V?$CTapiIfCollection@PEAUITPluggableTerminalSuperclassInfo@@@@@ATL@@SAJPEAPEAV12@@Z (l)00A0:?dtor$0@?0??CreateInstance@?$CComObject@V?$CTapiIfCollection@PEAUITPluggableTerminalSuperclassInfo@@@@@ATL@@SAJPEAPEAV12@@Z@4HA (REF 0068: ??_7?$CComObject@V?$CTapiIfCollection@PEAUITPluggableTerminalSuperclassInfo@@@@@ATL@@6B@)
                  9. 23 7F42 0118 0000:?CreateInstance@?$CComObject@VCPlugTerminalSuperclassInfo@@@ATL@@SAJPEAPEAV12@@Z (l)0100:?dtor$0@?0??CreateInstance@?$CComObject@VCPlugTerminalSuperclassInfo@@@ATL@@SAJPEAPEAV12@@Z@4HA
                  10. 1E 8924 00C8 0000:?CreateInstance@?$CComObject@VCTapiBstrCollection@@@ATL@@SAJPEAPEAV12@@Z (l)00B0:?dtor$0@?0??CreateInstance@?$CComObject@VCTapiBstrCollection@@@ATL@@SAJPEAPEAV12@@Z@4HA
                  11. 13 904E 00F8 0000:?HandleSinkEvent@CMSPStream@@QEAAJPEAUMSPEVENTITEM@@@Z (l)00E0:?dtor$0@?0??HandleSinkEvent@CMSPStream@@QEAAJPEAUMSPEVENTITEM@@@Z@4HA
                  12. 1E 9F2E 00B8 0000:?CreateInstance@?$CComObject@VCPTEventSink@@@ATL@@SAJPEAPEAV12@@Z (l)00A0:?dtor$0@?0??CreateInstance@?$CComObject@VCPTEventSink@@@ATL@@SAJPEAPEAV12@@Z@4HA
                  13. 14 A2DE 01D8 0000:?put_Volume@CAudioCaptureTerminal@@UEAAJJ@Z (l)01C0:?dtor$0@?0??put_Volume@CAudioCaptureTerminal@@UEAAJJ@Z@4HA
                  14. 23 B82C 0138 0000:?CreateInstance@?$CComObject@VCPlugTerminalClassInfo@@@ATL@@SAJPEAPEAV12@@Z (l)0120:?dtor$0@?0??CreateInstance@?$CComObject@VCPlugTerminalClassInfo@@@ATL@@SAJPEAPEAV12@@Z@4HA
                  15. 09 F908 0168 0000:?UnselectTerminal@CMSPStream@@UEAAJPEAUITTerminal@@@Z (l)0150:?dtor$0@?0??UnselectTerminal@CMSPStream@@UEAAJPEAUITTerminal@@@Z@4HA (011D: C3)
                  16. 09 F908 0168 0000:?RemoveStream@CMSPCallMultiGraph@@UEAAJPEAUITStream@@@Z (l)0150:?dtor$0@?0??RemoveStream@CMSPCallMultiGraph@@UEAAJPEAUITStream@@@Z@4HA (011D: CC)
                48488974245048897C2458:
                  488B:
                    D9:
                      BE:
                        0. 22 0BF4 00F8 0000:?Release@?$CComObject@V?$CSafeComEnum@UIEnumPluggableTerminalClassInfo@@$1?IID_IEnumPluggableTerminalClassInfo@@3U_GUID@@BPEAUITPluggableTerminalClassInfo@@V?$_CopyInterface@UITPluggableTerminalClassInfo@@@ATL@@VCComMultiThreadModel@6@@@@ATL@@UEAAKXZ (l)00E0:?dtor$0@?0??Release@?$CComObject@V?$CSafeComEnum@UIEnumPluggableTerminalClassInfo@@$1?IID_IEnumPluggableTerminalClassInfo@@3U_GUID@@BPEAUITPluggableTerminalClassInfo@@V?$_CopyInterface@UITPluggableTerminalClassInfo@@@ATL@@VCComMultiThreadModel@6@@@@ATL@@UEAAKXZ@4HA (REF 0042: ??_7?$CComObject@V?$CSafeComEnum@UIEnumPluggableTerminalClassInfo@@$1?IID_IEnumPluggableTerminalClassInfo@@3U_GUID@@BPEAUITPluggableTerminalClassInfo@@V?$_CopyInterface@UITPluggableTerminalClassInfo@@@ATL@@VCComMultiThreadModel@6@@@@ATL@@6B@)
                        1. 22 0BF4 00F8 0000:?Release@?$CComObject@V?$CSafeComEnum@UIEnumTerminal@@$1?IID_IEnumTerminal@@3U_GUID@@BPEAUITTerminal@@V?$_CopyInterface@UITTerminal@@@ATL@@VCComMultiThreadModel@6@@@@ATL@@UEAAKXZ (l)00E0:?dtor$0@?0??Release@?$CComObject@V?$CSafeComEnum@UIEnumTerminal@@$1?IID_IEnumTerminal@@3U_GUID@@BPEAUITTerminal@@V?$_CopyInterface@UITTerminal@@@ATL@@VCComMultiThreadModel@6@@@@ATL@@UEAAKXZ@4HA (REF 0042: ??_7?$CComObject@V?$CSafeComEnum@UIEnumTerminal@@$1?IID_IEnumTerminal@@3U_GUID@@BPEAUITTerminal@@V?$_CopyInterface@UITTerminal@@@ATL@@VCComMultiThreadModel@6@@@@ATL@@6B@)
                        2. 22 0BF4 00F8 0000:?Release@?$CComObject@V?$CSafeComEnum@UIEnumStream@@$1?IID_IEnumStream@@3U_GUID@@BPEAUITStream@@V?$_CopyInterface@UITStream@@@ATL@@VCComMultiThreadModel@6@@@@ATL@@UEAAKXZ (l)00E0:?dtor$0@?0??Release@?$CComObject@V?$CSafeComEnum@UIEnumStream@@$1?IID_IEnumStream@@3U_GUID@@BPEAUITStream@@V?$_CopyInterface@UITStream@@@ATL@@VCComMultiThreadModel@6@@@@ATL@@UEAAKXZ@4HA (REF 0042: ??_7?$CComObject@V?$CSafeComEnum@UIEnumStream@@$1?IID_IEnumStream@@3U_GUID@@BPEAUITStream@@V?$_CopyInterface@UITStream@@@ATL@@VCComMultiThreadModel@6@@@@ATL@@6B@)
                        3. 22 0BF4 00F8 0000:?Release@?$CComObject@V?$CSafeComEnum@UIEnumPluggableSuperclassInfo@@$1?IID_IEnumPluggableSuperclassInfo@@3U_GUID@@BPEAUITPluggableTerminalSuperclassInfo@@V?$_CopyInterface@UITPluggableTerminalSuperclassInfo@@@ATL@@VCComMultiThreadModel@6@@@@ATL@@UEAAKXZ (l)00E0:?dtor$0@?0??Release@?$CComObject@V?$CSafeComEnum@UIEnumPluggableSuperclassInfo@@$1?IID_IEnumPluggableSuperclassInfo@@3U_GUID@@BPEAUITPluggableTerminalSuperclassInfo@@V?$_CopyInterface@UITPluggableTerminalSuperclassInfo@@@ATL@@VCComMultiThreadModel@6@@@@ATL@@UEAAKXZ@4HA (REF 0042: ??_7?$CComObject@V?$CSafeComEnum@UIEnumPluggableSuperclassInfo@@$1?IID_IEnumPluggableSuperclassInfo@@3U_GUID@@BPEAUITPluggableTerminalSuperclassInfo@@V?$_CopyInterface@UITPluggableTerminalSuperclassInfo@@@ATL@@VCComMultiThreadModel@6@@@@ATL@@6B@)
                        4. 22 74EE 00F8 0000:?Release@?$CComObject@V?$CSafeComEnum@UIEnumVARIANT@@$1?IID_IEnumVARIANT@@3U_GUID@@BUtagVARIANT@@V?$_Copy@UtagVARIANT@@@ATL@@VCComMultiThreadModel@6@@@@ATL@@UEAAKXZ (l)00E0:?dtor$0@?0??Release@?$CComObject@V?$CSafeComEnum@UIEnumVARIANT@@$1?IID_IEnumVARIANT@@3U_GUID@@BUtagVARIANT@@V?$_Copy@UtagVARIANT@@@ATL@@VCComMultiThreadModel@6@@@@ATL@@UEAAKXZ@4HA
                      BF:
                        0. 06 C356 00E8 0000:?Shutdown@CMSPThread@@QEAAJXZ (l)00D0:?dtor$0@?0??Shutdown@CMSPThread@@QEAAJXZ@4HA
                    F248:
                      0. 10 385A 01F8 0000:?get_Volume@CAudioRenderTerminal@@UEAAJPEAJ@Z (l)01E0:?dtor$0@?0??get_Volume@CAudioRenderTerminal@@UEAAJPEAJ@Z@4HA
                      1. 04 4D4D 00E8 0000:?get_MediaType@CMSPStream@@UEAAJPEAJ@Z (l)00D0:?dtor$0@?0??get_MediaType@CMSPStream@@UEAAJPEAJ@Z@4HA (0060: 24)
                      2. 04 4D4D 00E8 0000:?get_Direction@CMSPStream@@UEAAJPEAW4TERMINAL_DIRECTION@@@Z (l)00D0:?dtor$0@?0??get_Direction@CMSPStream@@UEAAJPEAW4TERMINAL_DIRECTION@@@Z@4HA (0060: 28)
                      3. 10 B775 0168 0000:?get_Name@CPlugTerminalClassInfo@@UEAAJPEAPEAG@Z (l)0150:?dtor$0@?0??get_Name@CPlugTerminalClassInfo@@UEAAJPEAPEAG@Z@4HA (0067: 70) (REF 0041: ??_C@_0CJ@ECFLBLDN@CPlugTerminalClassInfo?3?3get_Name@)
                      4. 10 B775 0168 0000:?get_CLSID@CPlugTerminalSuperclassInfo@@UEAAJPEAPEAG@Z (l)0150:?dtor$0@?0??get_CLSID@CPlugTerminalSuperclassInfo@@UEAAJPEAPEAG@Z@4HA (0067: 70) (REF 0041: ??_C@_0CP@CIDGOIEF@CPlugTerminalSuperclassInfo?3?3get@)
                      5. 10 B775 0168 0000:?get_Company@CPlugTerminalClassInfo@@UEAAJPEAPEAG@Z (l)0150:?dtor$0@?0??get_Company@CPlugTerminalClassInfo@@UEAAJPEAPEAG@Z@4HA (0067: 78) (REF 0041: ??_C@_0CM@GDJFECGE@CPlugTerminalClassInfo?3?3get_Comp@)
                      6. 10 B775 0168 0000:?get_Name@CPlugTerminalSuperclassInfo@@UEAAJPEAPEAG@Z (l)0150:?dtor$0@?0??get_Name@CPlugTerminalSuperclassInfo@@UEAAJPEAPEAG@Z@4HA (0067: 78) (REF 0041: ??_C@_0CO@JAEPAGFJ@CPlugTerminalSuperclassInfo?3?3get@)
                      7. 10 B775 0168 0000:?get_Version@CPlugTerminalClassInfo@@UEAAJPEAPEAG@Z (l)0150:?dtor$0@?0??get_Version@CPlugTerminalClassInfo@@UEAAJPEAPEAG@Z@4HA (0067: 80)
                      8. 10 B775 0168 0000:?get_TerminalClass@CPlugTerminalClassInfo@@UEAAJPEAPEAG@Z (l)0150:?dtor$0@?0??get_TerminalClass@CPlugTerminalClassInfo@@UEAAJPEAPEAG@Z@4HA (0067: 88)
                      9. 10 B775 0168 0000:?get_CLSID@CPlugTerminalClassInfo@@UEAAJPEAPEAG@Z (l)0150:?dtor$0@?0??get_CLSID@CPlugTerminalClassInfo@@UEAAJPEAPEAG@Z@4HA (0067: 90)
                    F9:
                      48:
                        0. 0D 4105 01B8 0000:?CompleteConnectTerminal@CAudioCaptureTerminal@@UEAAJXZ (l)0180:?dtor$0@?0??CompleteConnectTerminal@CAudioCaptureTerminal@@UEAAJXZ@4HA (l)01A0:?dtor$1@?0??CompleteConnectTerminal@CAudioCaptureTerminal@@UEAAJXZ@4HA
                      83:
                        0. 01 1E1A 01D8 0000:?Stop@CMSPThread@@QEAAJXZ (l)01C0:?dtor$0@?0??Stop@CMSPThread@@QEAAJXZ@4HA (0176: 8B)
                        1. 01 1E1A 0198 0000:?ShutDown@CMSPStream@@UEAAJXZ (l)0160:?dtor$0@?0??ShutDown@CMSPStream@@UEAAJXZ@4HA (l)0180:?dtor$1@?0??ShutDown@CMSPStream@@UEAAJXZ@4HA (0176: C3)
                      BE:
                        0. 22 2568 0108 0000:?Release@?$CComObject@VCTapiBstrCollection@@@ATL@@UEAAKXZ (l)00F0:?dtor$0@?0??Release@?$CComObject@VCTapiBstrCollection@@@ATL@@UEAAKXZ@4HA
                        1. 22 B329 0108 0000:?Release@?$CComObject@V?$CTapiIfCollection@PEAUITStream@@@@@ATL@@UEAAKXZ (l)00F0:?dtor$0@?0??Release@?$CComObject@V?$CTapiIfCollection@PEAUITStream@@@@@ATL@@UEAAKXZ@4HA (REF 0042: ??_7?$CComObject@V?$CTapiIfCollection@PEAUITStream@@@@@ATL@@6B@)
                        2. 22 B329 0108 0000:?Release@?$CComObject@V?$CTapiIfCollection@PEAUITPluggableTerminalClassInfo@@@@@ATL@@UEAAKXZ (l)00F0:?dtor$0@?0??Release@?$CComObject@V?$CTapiIfCollection@PEAUITPluggableTerminalClassInfo@@@@@ATL@@UEAAKXZ@4HA (REF 0042: ??_7?$CComObject@V?$CTapiIfCollection@PEAUITPluggableTerminalClassInfo@@@@@ATL@@6B@)
                        3. 22 B329 0108 0000:?Release@?$CComObject@V?$CTapiIfCollection@PEAUITPluggableTerminalSuperclassInfo@@@@@ATL@@UEAAKXZ (l)00F0:?dtor$0@?0??Release@?$CComObject@V?$CTapiIfCollection@PEAUITPluggableTerminalSuperclassInfo@@@@@ATL@@UEAAKXZ@4HA (REF 0042: ??_7?$CComObject@V?$CTapiIfCollection@PEAUITPluggableTerminalSuperclassInfo@@@@@ATL@@6B@)
                        4. 22 B329 0108 0000:?Release@?$CComObject@V?$CTapiIfCollection@PEAUITTerminal@@@@@ATL@@UEAAKXZ (l)00F0:?dtor$0@?0??Release@?$CComObject@V?$CTapiIfCollection@PEAUITTerminal@@@@@ATL@@UEAAKXZ@4HA (REF 0042: ??_7?$CComObject@V?$CTapiIfCollection@PEAUITTerminal@@@@@ATL@@6B@)
                    FA48:
                      0. 10 2F24 00E8 0000:?get_AddressHandle@CBaseTerminal@@UEAAJPEAPEAJ@Z (l)00D0:?dtor$0@?0??get_AddressHandle@CBaseTerminal@@UEAAJPEAPEAJ@Z@4HA
                      1. 10 8598 00E8 0000:?get_Direction@CBaseTerminal@@UEAAJPEAW4TERMINAL_DIRECTION@@@Z (l)00D0:?dtor$0@?0??get_Direction@CBaseTerminal@@UEAAJPEAW4TERMINAL_DIRECTION@@@Z@4HA (005E: 40)
                      2. 10 8598 00E8 0000:?get_TerminalType@CBaseTerminal@@UEAAJPEAW4TERMINAL_TYPE@@@Z (l)00D0:?dtor$0@?0??get_TerminalType@CBaseTerminal@@UEAAJPEAW4TERMINAL_TYPE@@@Z@4HA (005E: 44)
                      3. 10 8598 00E8 0000:?get_State@CBaseTerminal@@UEAAJPEAW4TERMINAL_STATE@@@Z (l)00D0:?dtor$0@?0??get_State@CBaseTerminal@@UEAAJPEAW4TERMINAL_STATE@@@Z@4HA (005E: 48)
                      4. 10 8598 00E8 0000:?get_MediaType@CBaseTerminal@@UEAAJPEAJ@Z (l)00D0:?dtor$0@?0??get_MediaType@CBaseTerminal@@UEAAJPEAJ@Z@4HA (005E: 68)
                      5. 10 8598 0128 0000:?get_Name@CBaseTerminal@@UEAAJPEAPEAG@Z (l)0110:?dtor$0@?0??get_Name@CBaseTerminal@@UEAAJPEAPEAG@Z@4HA (005E: 4E)
                      6. 10 C524 00E8 0000:?get_MediaTypes@CPlugTerminalClassInfo@@UEAAJPEAJ@Z (l)00D0:?dtor$0@?0??get_MediaTypes@CPlugTerminalClassInfo@@UEAAJPEAJ@Z@4HA (005E: 98)
                      7. 10 C524 00E8 0000:?get_Direction@CPlugTerminalClassInfo@@UEAAJPEAW4TERMINAL_DIRECTION@@@Z (l)00D0:?dtor$0@?0??get_Direction@CPlugTerminalClassInfo@@UEAAJPEAW4TERMINAL_DIRECTION@@@Z@4HA (005E: 9C)
                  498BD88B:
                    0. 06 71F2 010D 0000:?get_Item@CTapiBstrCollection@@UEAAJJPEAUtagVARIANT@@@Z (l)0059:$LN18 (l)00F0:?catch$0@?0??get_Item@CTapiBstrCollection@@UEAAJJPEAUtagVARIANT@@@Z@4HA (l)00FD:__catch$?get_Item@CTapiBstrCollection@@UEAAJJPEAUtagVARIANT@@@Z$0 (005E: 30)
                    1. 06 71F2 010D (!)0000:? (l!)0059:? (l!)00F0:? (l!)00FD:? (005E: 20)
                  8B:
                    F2488B:
                      0. 03 2FE9 0128 0000:?PnpNotifHandler@CMSPAddress@@UEAAJH@Z (l)0110:?dtor$0@?0??PnpNotifHandler@CMSPAddress@@UEAAJH@Z@4HA
                      1. 0F 6308 00A8 0000:?put_MediaTypes@CPlugTerminalClassInfo@@EEAAJJ@Z (l)0090:?dtor$0@?0??put_MediaTypes@CPlugTerminalClassInfo@@EEAAJJ@Z@4HA (0021: 98)
                      2. 0F 6308 00A8 0000:?put_Direction@CPlugTerminalClassInfo@@EEAAJW4TERMINAL_DIRECTION@@@Z (l)0090:?dtor$0@?0??put_Direction@CPlugTerminalClassInfo@@EEAAJW4TERMINAL_DIRECTION@@@Z@4HA (0021: 9C)
                    FA488B:
                      0. 0F 9E76 01A8 0000:?put_Volume@CAudioRenderTerminal@@UEAAJJ@Z (l)0190:?dtor$0@?0??put_Volume@CAudioRenderTerminal@@UEAAJJ@Z@4HA
                5048897C2458488B:
                  D9BFFFFFFFFFF0:
                    0. 1D 67EF 015C 0000:?Release@?$CComObject@VCPlugTerminalSuperclassInfo@@@ATL@@UEAAKXZ (l)00E0:?dtor$1@?0??Release@?$CComObject@VCPlugTerminalSuperclassInfo@@@ATL@@UEAAKXZ@4HA (l)0100:?dtor$2@?0??Release@?$CComObject@VCPlugTerminalSuperclassInfo@@@ATL@@UEAAKXZ@4HA (l)0140:?dtor$3@?0??Release@?$CComObject@VCPlugTerminalSuperclassInfo@@@ATL@@UEAAKXZ@4HA
                    1. 15 C0FF 00C8 0000:?Release@?$CComObject@V?$CSafeComEnum@UIEnumTerminalClass@@$1?IID_IEnumTerminalClass@@3U_GUID@@BU3@V?$_Copy@U_GUID@@@ATL@@VCComMultiThreadModel@5@@@@ATL@@UEAAKXZ (l)00B0:?dtor$0@?0??Release@?$CComObject@V?$CSafeComEnum@UIEnumTerminalClass@@$1?IID_IEnumTerminalClass@@3U_GUID@@BU3@V?$_Copy@U_GUID@@@ATL@@VCComMultiThreadModel@5@@@@ATL@@UEAAKXZ@4HA
                  F9833D:
                    0. 06 5AAB 00E8 0000:?ReleaseSink@CMSPStream@@IEAAJXZ (l)00D0:?dtor$0@?0??ReleaseSink@CMSPStream@@IEAAJXZ@4HA (00C1: C3)
                    1. 06 5AAB 01A8 0000:?CompleteConnectTerminal@CAudioRenderTerminal@@UEAAJXZ (l)0190:?dtor$0@?0??CompleteConnectTerminal@CAudioRenderTerminal@@UEAAJXZ@4HA (00C1: 8D)
            28:
              000000004C894C2420450FB7C841B802000000E8:
                0. 00 0000 0026 0000:?_com_dispatch_raw_propget@@YAJPEAUIDispatch@@JGPEAX@Z (REF 001D: ?_com_dispatch_raw_method@@YAJPEAUIDispatch@@JGGPEAXPEBGZZ)
                1. 00 0000 0026 0000:?_com_dispatch_propget@@YAJPEAUIDispatch@@JGPEAX@Z (REF 001D: ?_com_dispatch_method@@YAJPEAUIDispatch@@JGGPEAXPEBGZZ)
              FEFFFFFF48895C24:
                48488974245048897C2458:
                  418BF848:
                    0. 07 B09D 0168 0000:?DisconnectTerminal@CAudioRenderTerminal@@UEAAJPEAUIGraphBuilder@@K@Z (l)0150:?dtor$0@?0??DisconnectTerminal@CAudioRenderTerminal@@UEAAJPEAUIGraphBuilder@@K@Z@4HA (00CD: 01)
                    1. 07 B09D 0168 0000:?DisconnectTerminal@CAudioCaptureTerminal@@UEAAJPEAUIGraphBuilder@@K@Z (l)0150:?dtor$0@?0??DisconnectTerminal@CAudioCaptureTerminal@@UEAAJPEAUIGraphBuilder@@K@Z@4HA (00CD: 02)
                  488BFA48:
                    0. 06 A22E 00A4 (!)0000:? (l!)0045:? (l!)0080:? (l!)008D:? (001A: 18)
                    1. 06 A22E 00A4 0000:?get_Count@CTapiBstrCollection@@UEAAJPEAJ@Z (l)0045:$LN11 (l)0080:?catch$0@?0??get_Count@CTapiBstrCollection@@UEAAJPEAJ@Z@4HA (l)008D:__catch$?get_Count@CTapiBstrCollection@@UEAAJPEAJ@Z$0 (001A: 28)
                5048897C2458488BF98B05:
                  0. 07 F2EA 0178 0000:?AddFiltersToGraph@CVideoCaptureTerminal@@EEAAJXZ (l)0126:$LN25 (l)0140:?catch$0@?0??AddFiltersToGraph@CVideoCaptureTerminal@@EEAAJXZ@4HA (l)014D:__catch$?AddFiltersToGraph@CVideoCaptureTerminal@@EEAAJXZ$0
        49:
          63C14C8981082B000048895C24304E8D440004488B44246048897C:
            0. 16 FA86 008B 0000:LZX_Decode
          8B:
            C048895C2450488BDA4533C0488BD048897C2458C74424280100:
              0. 0E DE3D 0060 0000:??0CImageAllocator@@QEAA@PEAVCBaseFilter@@PEAGPEAJ@Z
            C1:
              48895C24504C8D8AC000000048894424284C89442420488BDA:
                0. 0E 770E 0079 0000:??0CRendererInputPin@@QEAA@PEAVCBaseRenderer@@PEAJPEBG@Z
              4D8BD048895C2440488954242048896C244848897424504C8D:
                0. 14 12DA 012B 0000:??0CBaseRenderer@@QEAA@AEBU_GUID@@PEAGPEAUIUnknown@@PEAJ@Z
          8D88E800000048895C243048897C2428498BF8FF15........83BF:
            0. 35 BCD7 0059 0000:?EndOfStreamTimer@@YAXII_K00@Z
        4C:
          89:
            442420:
              448BCA4C8BC1488D0D........488D15........E8:
                0. 00 0000 0027 0000:ElfrWriteClusterEvents
              4533C94533C0E8........4883C438C3:
                0. 00 0000 0019 0000:NetpGetDomainNameExEx
              4C8BCA4C8BC1488D0D........488D15........E8:
                0. 00 0000 0027 0000:R_ResolverEnumCache (REF 0012: DnsResolver_StubDesc)
                1. 00 0000 0027 0000:ElfrRegisterClusterSvc (REF 0012: eventlog_StubDesc)
            4C24:
              20:
                458BC8448BC2488D15........4883C120E8........48:
                  0. 04 7311 0024 0000:?GetTypeInfo@CMediaControl@@UEAAJIKPEAPEAUITypeInfo@@@Z (REF 0012: IID_IMediaControl)
                  1. 04 7311 0024 0000:?GetTypeInfo@CMediaEvent@@UEAAJIKPEAPEAUITypeInfo@@@Z (REF 0012: IID_IMediaEvent)
                  2. 04 7311 0024 0000:?GetTypeInfo@CMediaPosition@@UEAAJIKPEAPEAUITypeInfo@@@Z (REF 0012: IID_IMediaPosition)
                  3. 04 7311 0024 0000:?GetTypeInfo@CBasicAudio@@UEAAJIKPEAPEAUITypeInfo@@@Z (REF 0012: IID_IBasicAudio)
                  4. 04 7311 0024 0000:?GetTypeInfo@CBaseVideoWindow@@UEAAJIKPEAPEAUITypeInfo@@@Z (REF 0012: IID_IVideoWindow)
                  5. 04 7311 0024 0000:?GetTypeInfo@CBaseBasicVideo@@UEAAJIKPEAPEAUITypeInfo@@@Z (REF 0012: IID_IBasicVideo)
                48895C24484C8D8988000000488974245048897C245848:
                  0. 03 D023 0074 0000:??0CTransformFilter@@QEAA@PEAGPEAUIUnknown@@AEBU_GUID@@@Z (REF 0023: ??0CBaseFilter@@QEAA@PEBGPEAUIUnknown@@PEAVCCritSec@@AEBU_GUID@@@Z)
                  1. 03 D023 0074 0000:??0CTransformFilter@@QEAA@PEADPEAUIUnknown@@AEBU_GUID@@@Z (REF 0023: ??0CBaseFilter@@QEAA@PEBDPEAUIUnknown@@PEAVCCritSec@@AEBU_GUID@@@Z)
              284C894424204C8BC1448BCA488D0D........488D15:
                0. 00 0000 002C 0000:R_ResolverGetConfig
          8B:
            124C8D1D........48895C245033C04D3B1348897C2458488BF9:
              0. E4 D60E 0131 0000:?MatchesPartial@CMediaType@@QEBAHPEBV1@@Z
            C2488D5424504533C9C7442428:
              01000000C744245000020000C7:
                0. 08 0704 0031 0000:Dns_NameCopyWireToUnicode
                1. 08 CB19 0031 0000:Dns_NameCopyStandard_W
              02000000C744245000010000C7:
                0. 08 0704 0031 0000:Dns_NameCopyStandard_A
                1. 08 CB19 0031 0000:Dns_NameCopyUnicodeToWire
            C94C8BC28B514C498B41:
              504D8B4958FFCA4881C1A8FEFFFF4889:
                0. 04 AAB0 002D 0000:?get_DevSyncOffset@CBaseVideoRenderer@@UEAAJPEAH@Z
              704D8B496883EA024881C1A8FEFFFF48:
                0. 05 3258 002E 0000:?get_Jitter@CBaseVideoRenderer@@UEAAJPEAH@Z
            D9488B094C8BD2483B0A750E498B4B08483B4A08750433C0EB05:
              0. 6B 1D7A 00A4 0000:??8CMediaType@@QEBAHAEBV0@@Z
          8D:
            05........488D15........41B90900000066C74424280000C7:
              0. 08 DB34 0031 (l)0000:InflateFixed
            0D........4C8D05........488D15........488D0D:
              0. 0B C4EB 003B 0000:DDKPlusInitializePoolTracking
            420448895C244833C04889742450488BF148897C2458498BF848:
              0. 0F 2DE9 00CF 0000:pSetExceptionData
        4D85:
          C0:
            4889:
              5C245048897C2458488BF9498BD87514B803400080488B:
                0. 21 1D42 007B 0000:?GetState@CBaseRenderer@@UEAAJKPEAW4_FilterState@@@Z
              6C244848897C24584C89742420498BE8488BF94C8BF275:
                0. 37 1506 00F1 0000:?FindPin@CBaseFilter@@UEAAJPEBGPEAPEAUIPin@@@Z
            4C8BC9751F33C0C744242003000000C7442424000001008944:
              0. 21 82BC 0041 0000:?DecideAllocator@CPullPin@@UEAAJPEAUIMemAllocator@@PEAU_AllocatorProperties@@@Z
            743585D27431413910752C4885C9740C668339007406488B49:
              0. 06 959C 0048 0000:ElfWriteClusterEvents (l)0030:$LN10
          C94889:
            5C24404889:
              6C244848897C2458498BE94D8BD0488BD975:
                0. 29 C879 0108 0000:Dns_NameAppend_A
                1. 2E EE5C 011B 0000:Dns_NameAppend_W
              7424504C89642430498BD8488BF14D8BE144:
                0. CC 5663 018A 0000:?Next@?$CComEnumImpl@UIEnumVARIANT@@$1?IID_IEnumVARIANT@@3U_GUID@@BUtagVARIANT@@V?$_Copy@UtagVARIANT@@@ATL@@@ATL@@UEAAJKPEAUtagVARIANT@@PEAK@Z
            74245048897C2458498BF8498BF14C8BD24C8BC17514B8:
              0. 1E 6E18 010C 0000:?CreateInstance@CClassFactory@@UEAAJPEAUIUnknown@@AEBU_GUID@@PEAPEAX@Z
            7C2428498BF80F84980000004885D20F848F0000004D85:
              0. 72 1F8F 00BC 0000:?GetImageSize@CBaseControlVideo@@QEAAJPEAUtagVIDEOINFOHEADER@@PEAJPEAUtagRECT@@@Z
        658A04258401000048895C243048897C24280FB6D0418BF84D8BC148:
          0. 0B 1718 0040 0000:rc4_safe_np
        660F7F742420:
          660F7F7C2410:
            0F28E0F30F59E266440F7F04240F28F9:
              0. 06 0F1B 010B (l)0000:splitexpf
            F20F10E0F20F10F9F20F10F0F20F59E2:
              0. 0A 2805 0134 (l)0000:splitexp
          F20F10F0E8........A890754AF20F10C6E8:
            0. 0C 6090 006E 0000:_d_inttype
        803D........0048895C245048897C2458488BF9488BDA74:
          21833D:
            0. 00 0000 0054 0000:DDK_IoSetCancelRoutine
          2C833D:
            0. 00 0000 0064 0000:DDK_ExInterlockedRemoveHeadList
        81:
          39:
            4C434943740AB8020000004883C438C38B4118443BC077EE0500:
              0. 1A DE3D 0069 0000:LCICompress
            514449434C8BD2740AB8020000004883C438C3488B4424608B10:
              0. 17 62A1 0048 0000:QDIDecompress
          FA1001000048895C244048896C2448488974245048897C2458498B:
            0. 15 D1D1 0094 0000:?DialogProc@CBasePropertyPage@@KA_JPEAUHWND__@@I_K_J@Z
        83:
          3D........00:
            0F8428010000488B0D........4885C9743CFF15:
              0. 00 0000 013E 0000:LoadPwdDLL
            4889:
              5C24:
                40:
                  48:
                    896C2448488974245048897C245849:
                      0. 13 4AA3 0187 0000:?ReceiveTSPData@CMSPAddress@@UEAAJPEAUIUnknown@@PEAEK@Z
                    8BD974144C8BC1488D15........B9:
                      0. 05 7B74 0374 0000:?Shutdown@CMSPAddress@@UEAAJXZ (l)019A:$LN18 (l)01B2:$LN16 (l)01D9:$LN13 (l)01EA:$LN10 (l)0212:$LN7 (l)0223:$LN5 (l)0234:$LN3 (l)025F:$LN40
                  4C8964243041BC02000800488BD97412:
                    0. 06 5D95 0209 0000:?FireEventCallBack@CPTEventSink@@CAKPEAX@Z
                48488BD974144C8BC1488D15........B9:
                  0. 05 7B74 0124 0000:?AllocateEventItem@@YAPEAUMSPEVENTITEM@@_K@Z
              6C24484C896424304C8BE2488BE97411488D15:
                0. 00 0000 023D 0000:?get__NewEnum@CTapiBstrCollection@@UEAAJPEAPEAUIUnknown@@@Z (011C: 66)
                1. 00 0000 023D (!)0000:? (011C: 90)
          796C004889742450BEFFFFFFFF48897C24588BD6488BF90F85A000:
            0. 2D 84B9 00D3 (!)0000:?
          B9B00000000048897C2458488BF90F84A300000083B9B400000000:
            0. 67 3E74 00C8 0000:?SendEndOfStream@CBaseRenderer@@UEAAJXZ
          F9:
            024889742450488BF27417B90D000000FF15........33C0488B:
              0. 12 0589 0162 0000:Atma_RecordBuild
            0448895C24:
              404889:
                74245048897C24588BD98D71FD488BFA7321:
                  0. 07 2D10 0111 0000:Wins_RecordBuild
                7C24584C896C2428488BFA8BD9448D69FD73:
                  0. 08 6128 0106 0000:Wins_RecordBuildW
              48C744242000000000488BDA7417B90D000000FF15:
                0. 00 0000 00E5 0000:Key_RecordBuild
            0948895C2448C744242000000000488BDA7417B90D000000FF15:
              0. 00 0000 015B 0000:Sig_RecordBuild
          FA:
            054D63D84C8BD1775A488D0D........4863C28B9481:
              0. 11 49B3 0088 (l)0000:getregval (l)0025:$LN3 (l)0048:$LN2 (l)005B:$LN1
            FF48895C245048897C24588BFA488BD97424488D4C2420FF15:
              0. 00 0000 005E 0000:NetpLogonTimeHasElapsed
        85:
          C948895C245048897C2458488B:
            3D........8BD97E2683E1037409:
              0. 18 E5B2 007A 0000:Dns_DbgHeapAlloc
            FA498BD879244D8BC84C8BC28BD1:
              0. 03 F9B5 0097 0000:?_MMCHookCBTProc@@YA_JH_K_J@Z
          D248895C245048897C2458488B3D........8BDA7E36488BD1488B:
            0. 02 632D 008A 0000:Dns_DbgHeapRealloc
        8A4120448A411E4C8BC983E00441C1E8034C8BD24183E007418D0C40:
          0. 0C 41A2 009C (l)0000:setop1val (l)003D:$LN3 (l)0059:$LN2 (l)0070:$LN1
        8B:
          024C8BC9488D4C242089018B42048941048B42088941088B420C89:
            0. 50 4997 0079 0000:?SetProperties@CImageAllocator@@UEAAJPEAU_AllocatorProperties@@0@Z
          05........:
            4533C9BA0200000044390D........4C8D05:
              0. 0C 0362 0053 0000:DllCanUnloadNow
            4889:
              5C24:
                40488BD985C07417488D15........B90200:
                  0. 03 486B 01D9 0000:?CreateFilters@CAudioCaptureTerminal@@QEAAJXZ
                48488BD985C07417488D15........B90200:
                  0. 03 486B 01B6 0000:?CreateFilters@CAudioRenderTerminal@@QEAAJXZ
              6C245848897C242833FF85C08BE9746285C04889:
                0. 0F CEC2 008F 0000:KeyDown
              7C2458488BF985C07417488D15........B90200:
                0. 03 486B 00D8 0000:?CreateFilters@CVideoCaptureTerminal@@AEAAJXZ
          0D........660F7F742420F20F10F0FF15........84C0750EF20F:
            0. 08 CEF2 0043 0000:auxSolidTeapot
            1. 08 DEDF 0043 0000:auxWireTeapot
          41:
            084C8B014C8D0D........89442428488D15........B9080000:
              0. 06 CA60 002F 0000:??1CWiauDbgFn@@QEAA@XZ
            1433D248895C244048896C2448:
              241848897424503C08488BF148:
                0. 23 310B 00E1 0000:NxtDnsRecordConvert (0078: E8)
                1. 23 310B 00C0 0000:MxDnsRecordConvert (0078: 48)
                2. 23 310B 00D0 0000:SrvDnsRecordConvert (0078: 58)
                3. 23 452D 00CA 0000:NbstatDnsRecordConvert
              488974245024183C08488BE948:
                0. 23 36E2 00B8 0000:PtrDnsRecordConvert
          420448896C24484533C085C048897C2458488BE9488BFA0F88FF00:
            0. 1B 4383 0132 0000:NetpAllocFtinfoEntry2
          4424:
            60:
              48:
                895C243048897C2428498BD9488BF9488991C809000089:
                  0. 0D D8E8 006C 0000:LZX_Encode
                C74424280000000089442420E8........4883C438C3:
                  0. 00 0000 001F 0000:CM_Get_Next_Res_Des (REF 0016: CM_Get_Next_Res_Des_Ex)
                  1. 00 0000 001F 0000:CM_Get_Device_Interface_AliasW (REF 0016: CM_Get_Device_Interface_Alias_ExW)
                  2. 00 0000 001F 0000:CM_Get_Device_Interface_ListW (REF 0016: CM_Get_Device_Interface_List_ExW)
                  3. 00 0000 001F 0000:CM_Get_Device_Interface_AliasA (REF 0016: CM_Get_Device_Interface_Alias_ExA)
                  4. 00 0000 001F 0000:CM_Get_Device_Interface_ListA (REF 0016: CM_Get_Device_Interface_List_ExA)
                  5. 00 0000 001F 0000:CM_Set_DevNode_Registry_PropertyW (REF 0016: CM_Set_DevNode_Registry_Property_ExW)
                  6. 00 0000 001F 0000:CM_Set_DevNode_Registry_PropertyA (REF 0016: CM_Set_DevNode_Registry_Property_ExA)
                  7. 00 0000 001F 0000:CM_Query_Arbitrator_Free_Data (REF 0016: CM_Query_Arbitrator_Free_Data_Ex)
                  8. 00 0000 001F 0000:CM_Query_And_Remove_SubTreeW (REF 0016: CM_Query_And_Remove_SubTree_ExW)
                  9. 00 0000 001F 0000:CM_Request_Device_EjectW (REF 0016: CM_Request_Device_Eject_ExW)
                  10. 00 0000 001F 0000:CM_Query_And_Remove_SubTreeA (REF 0016: CM_Query_And_Remove_SubTree_ExA)
                  11. 00 0000 001F 0000:CM_Request_Device_EjectA (REF 0016: CM_Request_Device_Eject_ExA)
              894424284C894C2420458BC84533C0FF15........4883C4:
                0. 02 B283 0022 0000:CmRegUtilUcValueSetFullBuffer
            684D85C04C8D15........894424288B4424604D0F45D04D8B:
              0. 06 EF6F 002F 0000:DnsPrint_Argv
          512048895C2448488BD9FFCA0F85:
            AC000000488974245048897C24:
              0. 03 013B 00E8 0000:??BCUnicodeString@@QEAAPEAU_UNICODE_STRING@@XZ
            BA000000488974245048897C24:
              0. 03 013B 00DF 0000:?Unicode@CUnicodeString@@IEAAPEBGXZ
          CA660F7F742420:
            0F28F0E8........0F28C6660F6F7424204883C4:
              0. 02 B283 0022 (l)0000:valf_with_flags
            F20F10F0E8........F20F10C6660F6F74242048:
              0. 04 7311 0024 (l)0000:val_with_flags
        C744242801000000C644242000E8........4883C438C3:
          0. 00 0000 001B 0000:NetpSetMachineAccountPasswordAndType
        E8........89442420EB0C8BC8FF15........894424204883C438C3:
          0. 00 0000 0020 0000:ElfClearEventLogFileA (l)000F:$LN6 (REF 0005: ElfrClearELFA)
          1. 00 0000 0020 0000:ElfClearEventLogFileW (l)000F:$LN6 (REF 0005: ElfrClearELFW)
          2. 00 0000 0020 0000:ElfFlushEventLog (l)000F:$LN6 (REF 0005: ElfrFlushEL)
        F20F590D........48895C244048896C2448488BE9488B490848897C:
          0. AF 987C 00CF 0000:?Postpone@CDeferredCommand@@UEAAJN@Z
        F30F114424400F28E08B4C24408BC10FBAF01F3D0000004372723D00:
          0. 2A 2434 028D 0000:exp2f
        F6C10448895C243048897424284963F0498BD97409488D15:
          0. 0A 9623 00EF 0000:partitionDisplayName
      48:
        0FB7:
          410248896C24584889742460662500FF488BF2488BE9663D0001:
            0. 37 B825 0158 0000:RawImageGetRow
          91A402000033C048895C2458488BD9C781980200000080000048:
            0. 43 B85A 01FD 0000:MCICreateCompressionGlobal (l)01C9:$error$2867
        33:
          C0:
            48:
              85C9488974246048897C2468488BF24889442430498BF80F84:
                0. 23 E14F 01AC 0000:?wiauGetDrvItemContext@@YAJPEAEPEAPEAXPEAPEAUIWiaDrvItem@@@Z (l)00A1:$Cleanup$71975
              895C24:
                4048896C243848890148894108488941104889411848:
                  0. 2E C9F4 00A7 0000:DnsAddr_Build
                6033DB4889442428488944243048897C2468BF010000:
                  0. 09 B455 008F 0000:?WiauCreateLogFileMutex@@YAHXZ (l)006E:$Cleanup$72345
            8944243889442430894424288B44247089442420E8........48:
              0. 04 B7E1 0024 0000:Dns_StartDebug
          D248:
            895C246048897C2468488BF9448D420133C9FF15........48:
              0. 15 C375 00D3 0000:NetpIsServiceStarted
            8D05........4C8BC148895424388954243048894424284533:
              0. 0B C72C 0034 0000:DnssrvClearStatistics (REF 0009: ??_C@_0BA@OKMIKEII@ClearStatistics?$AA@)
              1. 0B C72C 0034 0000:DnssrvWriteDirtyZones (REF 0009: ??_C@_0BA@IDFFFODA@WriteDirtyZones?$AA@)
        41:
          0FB70048895C244048897C2438663D0200418BD94D8BD0488BF975:
            0. 10 4F4C 00A6 0000:Dns_CreateForwardRecord
          8B:
            401448895C246048897C2468C1E803488BDA488BF983E0034C8D:
              0. 01 54B7 0074 0000:SrvRecordPrint
            C0:
              48895C245048896C24582BC2488BDA48897424608944243049:
                0. 39 8289 00E8 0000:Minfo_StringWrite
              4C8BC14533C94889442438C744243001000000488954242833:
                0. 0F 1861 0038 0000:DnssrvResetServerDwordProperty
          B8010000004885C9757D4889542408B8070100004889442420488D:
            0. 01 9D2B 0126 0000:PnPRetrieveMachineName (l)0112:$Clean0$54639 (l)0114:$LN11
        448B94248800000048895C244048896C2438488974243033ED41F7C2:
          0. 9A 42FE 0168 0000:RtlUnicodeStringCopyExWorker
          1. 33 69BE 0196 0000:RtlUnicodeStringCopyStringNExWorker
        45:
          33C0488D05........4C8BCA4C8944243844894424304889442428:
            0. 10 3C0E 0039 0000:DnssrvIncrementZoneVersion (REF 000A: ??_C@_0BB@OBCGIJJF@IncrementVersion?$AA@)
            1. 10 3C0E 0039 0000:DnssrvDeleteZone (REF 000A: ??_C@_0L@OMEABEAD@DeleteZone?$AA@)
            2. 10 3C0E 0039 0000:DnssrvPauseZone (REF 000A: ??_C@_09MEFFAGHK@PauseZone?$AA@)
            3. 10 3C0E 0039 0000:DnssrvResumeZone (REF 000A: ??_C@_0L@FHIHHPBN@ResumeZone?$AA@)
          85:
            C04889:
              5C2440488974243848897C2430498BF1418BD8488BF97E:
                0. 26 C84A 0092 0000:Dns_DbgHeapAllocEx
              6C2438488974243048897C24288B3A4C896424204D8BE1:
                0. 0E 7218 00BF 0000:Sockaddr_BuildFromFlatAddr
            C948895C2440488974243848897C24308BDA488BF1418BF97E3C:
              0. 04 3D02 009E 0000:Dns_DbgHeapReallocEx
        48:
          81FAFFFFFF7F:
            48C744245800000000760AB8:
              0D0000C04883C448C3:
                0. 2B 681C 0071 0000:RtlStringCbCopyNExA (REF 004B: RtlStringCopyNExWorkerA)
                1. 2B 681C 0071 0000:RtlStringCbCatNExA (REF 004B: RtlStringCatNExWorkerA)
                2. 1E E302 0064 0000:RtlStringCbCatExA (REF 003E: RtlStringCatExWorkerA)
                3. 1E E302 0064 0000:RtlStringCbCopyExA (REF 003E: RtlStringCopyExWorkerA)
              570007804883C448C3:
                0. 2B 681C 0071 0000:StringCbCopyNExA (REF 004B: StringCopyNExWorkerA)
                1. 2B 681C 0071 0000:StringCbCatNExA (REF 004B: StringCatNExWorkerA)
                2. 1E E302 0064 0000:StringCbCatExA (REF 003E: StringCatExWorkerA)
                3. 1E E302 0064 0000:StringCbCopyExA (REF 003E: StringCopyExWorkerA)
            4D8BD0760AB8:
              0D0000C04883C448C3:
                48:
                  8B84248000:
                    0. 26 3833 004F 0000:RtlStringCchVPrintfExW
                  8D84248000:
                    0. 26 3833 004F 0000:RtlStringCchPrintfExW
                8B:
                  4424784C8D:
                    0. 19 28ED 0042 0000:RtlStringCchCopyExW (REF 0039: RtlStringCopyExWorkerW)
                    1. 19 28ED 0042 0000:RtlStringCchCatExW (REF 0039: RtlStringCatExWorkerW)
                  8424800000:
                    0. 26 2EF1 004F 0000:RtlStringCchCopyNExW (REF 0046: RtlStringCopyNExWorkerW)
                    1. 26 2EF1 004F 0000:RtlStringCchCatNExW (REF 0046: RtlStringCatNExWorkerW)
              570007804883C448C3:
                48:
                  8B84248000:
                    0. 26 3833 004F 0000:StringCchVPrintfExW
                  8D84248000:
                    0. 26 3833 004F 0000:StringCchPrintfExW
                8B:
                  4424784C8D:
                    0. 19 28ED 0042 0000:StringCchCopyExW (REF 0039: StringCopyExWorkerW)
                    1. 19 28ED 0042 0000:StringCchCatExW (REF 0039: StringCatExWorkerW)
                  8424800000:
                    0. 26 2EF1 004F 0000:StringCchCopyNExW (REF 0046: StringCopyNExWorkerW)
                    1. 26 2EF1 004F 0000:StringCchCatNExW (REF 0046: StringCatNExWorkerW)
            760AB8:
              0D0000C04883C448C3:
                48:
                  8B84248000000048:
                    0. 22 2938 004B 0000:RtlStringCchVPrintfExA
                  8D84248000000048:
                    0. 22 2938 004B 0000:RtlStringCchPrintfExA
                8B:
                  4424788944243048:
                    0. 15 9781 003E 0000:RtlStringCchCopyExA (REF 0035: RtlStringCopyExWorkerA)
                    1. 15 9781 003E 0000:RtlStringCchCatExA (REF 0035: RtlStringCatExWorkerA)
                  8424800000008944:
                    0. 22 83F0 004B 0000:RtlStringCchCopyNExA (REF 0042: RtlStringCopyNExWorkerA)
                    1. 22 83F0 004B 0000:RtlStringCchCatNExA (REF 0042: RtlStringCatNExWorkerA)
              570007804883C448C3:
                48:
                  8B84248000000048:
                    0. 22 2938 004B 0000:StringCchVPrintfExA
                  8D84248000000048:
                    0. 22 2938 004B 0000:StringCchPrintfExA
                8B:
                  4424788944243048:
                    0. 15 9781 003E 0000:StringCchCopyExA (REF 0035: StringCopyExWorkerA)
                    1. 15 9781 003E 0000:StringCchCatExA (REF 0035: StringCatExWorkerA)
                  8424800000008944:
                    0. 22 83F0 004B 0000:StringCchCopyNExA (REF 0042: StringCopyNExWorkerA)
                    1. 22 83F0 004B 0000:StringCchCatNExA (REF 0042: StringCatNExWorkerA)
          83:
            3900488974246048897C2468488BFA488BF10F85D20000004889:
              0. 36 55B2 0102 0000:?CryptCtx@CSCLogonInit@@QEAA_KPEAULogonInfo@@@Z
            79:
              200048895C246048897C2468498BF8488BD9C7442430000000:
                0. 21 5736 00F1 0000:?Init@CSeekingPassThru@@UEAAJHPEAUIPin@@@Z
              300048895C246048897C2468488BFA488BD97514B809020480:
                0. 27 CFB3 012D 0000:?ChangeMediaType@CDynamicOutputPin@@QEAAJPEBVCMediaType@@@Z
              400048895C245048896C24584889742460488BEA488BD9498B:
                0. 40 4F86 0171 0000:?NewSegment@COutputQueue@@QEAAX_J0N@Z
            B9:
              40010000004C8BCA743B4C8B81380100004D85C0742F488D51:
                0. 36 FD88 0056 0000:?DynamicReconnect@CDynamicOutputPin@@QEAAJPEBVCMediaType@@@Z
              D80000000048895C2458488974246048897C24688BF2488BD9:
                0. 14 5D7D 01A6 0000:?GetPin@CTransformFilter@@UEAAPEAVCBasePin@@H@Z
                1. 10 7D49 0192 0000:?GetPin@CTransInPlaceFilter@@UEAAPEAVCBasePin@@H@Z
          85:
            C9:
              0F84020100008B510485D20F84F70000004533C9FFCA4863C2:
                0. F4 69F5 0114 0000:DnsAddrArray_Reverse
              48895C245848:
                8974246048897C2468498BD8488BF2488BF974:
                  0. 4D 835D 0113 0000:mbstowcs
                8BD9750C33C0488B5C24584883C448C3488974:
                  0. 20 A8EA 00C1 0000:?ConvertBSTRToString@_com_util@@YAPEADPEAG@Z
            D24889:
              5C24:
                404889:
                  6C243848897424304C89642428488BEA458B:
                    0. 18 2C14 00F7 0000:Dns_RecordBuild_W (0037: 08)
                    1. 18 2C14 00F7 0000:Dns_RecordBuild_A (0037: 18)
                  7C2438498BF9418BD84C8BDA4C8BD1755F0F:
                    0. 02 F6BE 0120 0000:?DefineProperty@CWiauPropertyList@@QEAAJPEAHKPEAGKK@Z (l)00E6:$Cleanup$72062
                504C8BCA488BD9741B488B024C8D442430488D5424:
                  0. 6B 9009 015B 0000:?CheckStreamState@CBaseStreamControl@@QEAA?AW4StreamControlState@1@PEAUIMediaSample@@@Z
                58488974246048897C2468488BF2488BD9498BF874:
                  0. C1 4E3B 00E1 (!)0000:?
                6848897C2438488BF9488BDA7458488974244033F6:
                  0. 26 B677 0080 0000:SmbTraceCopyMdlContiguous
              6C2458488974246048897C2468498BF0488B:
                E9488BFA49:
                  0. 1E 4F75 0137 0000:NetpGetConfigTStrArray
                  1. 1E 910B 0197 0000:NetpGetConfigValue
                EA488BF975:
                  0. 51 62F0 018B 0000:?GetCurrentImage@CBaseControlVideo@@UEAAJPEAJ0@Z
          89:
            542430488D4424604C8BC14889442428488D05........4533C9:
              0. 15 E812 003E 0000:DnssrvGetServerInfo
            5C24:
              404889:
                6C243848:
                  89742430:
                    33ED48897C2428488BD98B8C24:
                      0. 30 D848 016D 0000:RtlUnicodeStringCopyStringExWorker
                    48:
                      897C2428:
                        33FF410FBAE11149:
                          0. 2A CB74 00CE 0000:RtlUnicodeStringVPrintfWorker
                        498B:
                          D8488BF2418B:
                            0. 05 5782 0097 0000:DnsPrint_RpcZoneInfoList
                          E9498BF0:
                            488B:
                              0. 05 9D1E 00EF 0000:DnsPrint_RpcStatRaw
                            8BFA:
                              0. 0E 28B2 0192 0000:DDKExtCheckAndUpdateItem
                          F84533C0498B:
                            0. 05 97B9 012A 0000:??0CBaseInputPin@@QEAA@PEAGPEAVCBaseFilter@@PEAVCCritSec@@PEAJPEBG@Z (00B8: 00) (REF 0025: ??0CUnknown@@QEAA@PEBGPEAUIUnknown@@@Z)
                            1. 05 97B9 012A 0000:??0CBaseInputPin@@QEAA@PEADPEAVCBaseFilter@@PEAVCCritSec@@PEAJPEBG@Z (00B8: 00) (REF 0025: ??0CUnknown@@QEAA@PEBDPEAUIUnknown@@@Z)
                            2. 05 97B9 00ED 0000:??0CBaseOutputPin@@QEAA@PEAGPEAVCBaseFilter@@PEAVCCritSec@@PEAJPEBG@Z (00B8: 6C) (REF 0025: ??0CUnknown@@QEAA@PEBGPEAUIUnknown@@@Z)
                            3. 05 97B9 00ED 0000:??0CBaseOutputPin@@QEAA@PEADPEAVCBaseFilter@@PEAVCCritSec@@PEAJPEBG@Z (00B8: 6C) (REF 0025: ??0CUnknown@@QEAA@PEBDPEAUIUnknown@@@Z)
                            4. 05 97B9 01A0 0000:??0CDynamicOutputPin@@QEAA@PEAGPEAVCBaseFilter@@PEAVCCritSec@@PEAJPEBG@Z (00B8: 05) (REF 0025: ??0CUnknown@@QEAA@PEBGPEAUIUnknown@@@Z)
                            5. 05 97B9 01A0 0000:??0CDynamicOutputPin@@QEAA@PEADPEAVCBaseFilter@@PEAVCCritSec@@PEAJPEBG@Z (00B8: 05) (REF 0025: ??0CUnknown@@QEAA@PEBDPEAUIUnknown@@@Z)
                            6. 05 97B9 00E2 0000:??0CBasePin@@QEAA@PEAGPEAVCBaseFilter@@PEAVCCritSec@@PEAJPEBGW4_PinDirection@@@Z (00B8: 48) (REF 0025: ??0CUnknown@@QEAA@PEBGPEAUIUnknown@@@Z)
                            7. 05 97B9 00E2 0000:??0CBasePin@@QEAA@PEADPEAVCBaseFilter@@PEAVCCritSec@@PEAJPEBGW4_PinDirection@@@Z (00B8: 48) (REF 0025: ??0CUnknown@@QEAA@PEBDPEAUIUnknown@@@Z)
                      8B:
                        3148897C24284C89642420:
                          0. 40 09D7 009E 0000:Hostent_Init
                        D948897C24284883C1784C:
                          0. 0F 598F 0109 0000:?AddAdvisePacket@CAMSchedule@@QEAA_KAEB_J0PEAXH@Z
                    498B:
                      710848897C2428498BE948:
                        0. 03 7AD8 00B1 0000:AcpisimCompleteSIrp
                      F04C8B44247048897C2428:
                        0. 0A 518A 00B6 0000:??0CBaseControlWindow@@QEAA@PEAVCBaseFilter@@PEAVCCritSec@@PEAGPEAUIUnknown@@PEAJ@Z
                  8B:
                    D94889742430B99008000048897C2428:
                      0. 22 9FDB 0105 0000:FDICreate
                    E94889742430B91800000048897C2428:
                      0. 09 189B 0079 0000:CreateResDesHandle
                7C2438498BF84885FF4C8BC2488BD97514B8034000:
                  0. 3D 248F 00C1 0000:?Activate@CBasePropertyPage@@UEAAJPEAUHWND__@@PEBUtagRECT@@H@Z
              504889:
                6C2458:
                  33DB4D85C04C896424404C896C24384D8BE8:
                    0. 11 B185 00FA 0000:?AgreeMediaType@CBasePin@@IEAAJPEAUIPin@@PEBVCMediaType@@@Z
                  418B6820488974246048897C24684C896424:
                    0. 14 6BE7 00CE 0000:TxtRecordPrint
                  48:
                    89:
                      742460:
                        48:
                          897C2468:
                            488BF94C89642440:
                              0. 14 49CB 0168 0000:?Connect@CPullPin@@QEAAJPEAUIUnknown@@PEAUIMemAllocator@@H@Z
                            498B:
                              D9488BF2498B:
                                0. 06 5E4D 0140 0000:?GetColourMask@CImageDisplay@@QEAAHPEAK00@Z
                              E9:
                                488BF2498B:
                                  0. 05 774C 00A9 0000:?GetDialogSize@@YAHHP6A_JPEAUHWND__@@I_K_J@Z2PEAUtagSIZE@@@Z
                                498BD8488B:
                                  0. 05 CAC4 0116 0000:DnsPrint_RpcNode
                            4C89642440488BF2:
                              0. 08 6024 01C1 0000:?wiauRegGetDwordW@@YAJPEAUHKEY__@@PEBGPEAK@Z (l)017A:$Cleanup$72289 (012D: 96)
                              1. 08 6024 01C1 0000:?wiauRegGetDwordA@@YAJPEAUHKEY__@@PEBDPEAK@Z (l)017A:$Cleanup$72321 (012D: B7)
                              2. 09 A641 0119 0000:AcpisimQueryPowerDIrp
                          8BF2488BE9498BD1418BC848:
                            0. 08 E0FF 0095 0000:DnssrvResetZoneMasters
                        498BC048897C2468498B:
                          E9482B:
                            0. 21 6002 00B2 0000:Srv_StringWrite
                          F1482B:
                            0. 18 34B9 00A4 0000:Mx_StringWrite
                      7C24680FB739488D69184533C94803FD:
                        0. 4C 28E8 012E 0000:TxtRpcRecordConvert
                    8BE94889742460B9F000000048897C2468:
                      0. 0F CD22 00A0 0000:?CreateImageSample@CImageAllocator@@MEAAPEAVCImageSample@@PEAEJ@Z
                    8D993001000048897C2468488BF9488BCB:
                      0. 0D 35F8 0124 0000:?GetMediaPositionInterface@CBaseRenderer@@UEAAJAEBU_GUID@@PEAPEAX@Z
                  4D85C04889742460488D1D........4C8964:
                    0. 17 F183 00DE 0000:DnsPrint_SearchList
                  C6020033C04889742460488BEA498BF04189:
                    0. 17 EBBA 00E3 0000:SeUtilSecurityInfoFromSecurityDescriptor
                7424:
                  5848897C24604C896424684C896C2440498BD9:
                    0. 2B E99B 00E0 0000:PnPUnicodeToMultiByte (l)00B5:$Clean0$54579 (l)00B7:$LN12 (REF 004B: __imp_RtlUnicodeToMultiByteSize)
                    1. 2B E99B 00E0 0000:PnPMultiByteToUnicode (l)00B5:$Clean0$54615 (l)00B7:$LN12 (REF 004B: __imp_RtlMultiByteToUnicodeSize)
                  60:
                    48:
                      897C246833FF4D85C9498BD90FB7F248C7:
                        0. 27 B8FB 0190 0000:SaBlob_Query (l)011A:$Done$52023
                      8BF14881C1F00000004C896424404C8BE2:
                        0. 02 ABB7 017B 0000:?AsynchronousBlockOutputPin@CDynamicOutputPin@@IEAAJPEAX@Z
                    4C896424404C896C24384533ED85D24D8BE1:
                      0. 22 B33B 0250 0000:??0CDispParams@@QEAA@IPEAUtagVARIANT@@PEAJ@Z (l)00C8:$LN19 (l)00D2:$LN18 (l)00DD:$LN17 (l)00E9:$LN16 (l)00F3:$LN15 (l)00FF:$LN14 (l)010B:$LN13 (l)0115:$LN12 (l)0121:$LN11 (l)012D:$LN10 (l)01A5:$LN4 (l)01B4:$LN3 (l)01C1:$LN23
                    C681AD09000000448B0A48897C24688BB99C:
                      0. 5A 160B 0142 (l)0000:redo_first_block
              58:
                33DB488974246048897C2468488BFA448D4301488D15:
                  0. 00 0000 00E5 0000:IsRemoteServiceRunning (l)00B8:$Clean0$54838
                4533C94889742460498BD8488BF148C744242800000000:
                  0. 15 F208 00E5 0000:?CreateDIB@CImageAllocator@@IEAAJJAEAUtagDIBDATA@@@Z
                48:
                  89742460:
                    33F641F7C0FEFFFF7F488BDA4C8BD1893274:
                      0. 7B 6A5E 00DE 0000:NetpwPathType
                    488B:
                      D9498BF04C8944242048897C2468488B:
                        0. 54 7C60 00AB 0000:ReadCFFILEEntry
                      F14881C13001000048897C24688BFAFF:
                        0. 01 54B7 012E 0000:?GetPin@CBaseRenderer@@UEAAPEAVCBasePin@@H@Z
                    8BF2488D54243048897C2468418BD9:
                      418BF8:
                        0. 0A 3043 0088 0000:CM_Set_HW_Prof_FlagsA
                      498BF8:
                        0. 0A 3043 0088 0000:CM_Get_HW_Prof_FlagsA
                  8BC24889742460488BF1488D542430488BC848897C24:
                    0. 11 BB12 0090 0000:CM_Create_DevNodeA
                498BD8450FB7000FB74302488974246048897C2468412B:
                  0. 3B 524F 0134 0000:CmRegUtilUcValueSetUcString (l)012F:$clean0$15629
                8BDA4889742460488BF1498BD08BCB48897C2468E8:
                  0. 00 0000 0098 0000:DnssrvResetServerListenAddresses
              60:
                33DB391D........48895C243848895C2430751A488D0D:
                  0. 00 0000 00F8 0000:DnscmdWmi_ProcessZoneInfo (l)00A2:$Done$72622 (l)00C9:$Done$71072
                48:
                  897C2468:
                    48:
                      8B:
                        C28BD948C744242800000000F7C1F8FF:
                          0. 1A 402A 00D9 0000:CM_Run_Detection_Ex (l)0080:$LN13 (l)009A:$Clean0$54681 (l)009C:$LN9 (l)00C0:CM_Run_Detection_Ex$filt$0 (l)00C9:$LN12 (l)00D3:$LN14
                        DA8BF948C7442438000000004885D275:
                          0. 27 87DC 00C9 0000:CM_Get_Hardware_Profile_Info_ExW (l)007D:$LN14 (l)0088:$Clean0$54657 (l)008A:$LN10 (l)00B0:CM_Get_Hardware_Profile_Info_ExW$filt$0 (l)00B9:$LN13 (l)00C3:$LN15
                      C744242800000000:
                        4C8D44242833D2E8:
                          0. 00 0000 00B9 0000:CM_Request_Eject_PC_Ex (l)0063:$LN12 (l)007D:$Clean0$54549 (l)007F:$LN8 (l)00A0:CM_Request_Eject_PC_Ex$filt$0 (l)00A9:$LN11 (l)00B3:$LN13
                        81F920040207740BBB:
                          0. 14 B2A1 00C9 0000:CMP_Init_Detection (l)0078:$LN13 (l)0092:$Clean0$54788 (l)0094:$LN9 (l)00B0:CMP_Init_Detection$filt$0 (l)00B9:$LN12 (l)00C3:$LN14
                    498BC08BD948C74424280000000085D2740B:
                      0. 16 27FF 00D9 0000:CM_Set_HW_Prof_Ex (l)007F:$LN13 (l)0099:$Clean0$54676 (l)009B:$LN9 (l)00C0:CM_Set_HW_Prof_Ex$filt$0 (l)00C9:$LN12 (l)00D3:$LN14
                    660F7F742430F20F10F1418BF8488BD9E8:
                      0. 00 0000 01EB 0000:dodecahedron
                  8B:
                    D98A89A402000083E10F48897C2468488BFA0F84B9:
                      0. 44 45A0 013C 0000:MCICompressGlobal
                    DAC60100488BD1488D4C242048897C2468E8:
                      0. 00 0000 0068 0000:NetpCopyWStrToStr
                  8D442438488D15........48897C2468488BF933DB41:
                    0. 1A 282A 00CD 0000:NetpGetNewMachineName
                66C701000048897C2468488BF9488D4C2430488BDAE8:
                  0. 00 0000 006C 0000:NetpCopyStrToWStr
            6C24:
              38488974243048897C24280FB77C2470498BE966412BF90F:
                0. 03 AFE2 00A4 0000:Wins_RecordRead
              5848897424608BEA49C70100000000488D442430488BD149:
                0. 0D 594C 00C1 0000:CreatePosPassThru
              60488974246848897C24404C896424384C8D25........33:
                0. 1A A771 014F 0000:NetpCreateWellKnownSids
            742460:
              33F648897C2468488BF96689B1F0000000448D4E01488D:
                0. 17 4546 00D1 0000:NetpGenerateRandomPassword
              48:
                897C246833FF48897C2430BEFFFFFFFFFF15:
                  0. 11 B15D 0154 0000:Dns_GetCurrentRid (l)0126:$Cleanup$56282
                8BF133C948897C2468488BFAFF15........85C07859:
                  0. 0A B998 0088 0000:MMCPropertyChangeNotify
            7C2468488BF9488D0D........FF15........4885C0488905:
              0. 00 0000 016B 0000:?PerflogInitialize@@YAHPEAU_PERFLOG_LOGGING_PARAMS@@@Z
          8B:
            0148896C24584889:
              742460488BF14C897C24284C63FA450FB704:
                0. FF A78E 0375 0000:binary_search_findmatch (l)0113:$long_match$1773 (l)0205:$end_bsearch$1783 (l)0332:$quick_return$1800
              7C2468488BF9FF502848895C245048897424:
                0. 0C EB9B 0168 0000:?DoBufferProcessingLoop@CSourceStream@@MEAAJXZ
            0248895C2458488BD9488974246048897C2468488BFA488D5424:
              0. 32 CF7F 029D 0000:?Receive@CVideoTransformFilter@@MEAAJPEAUIMediaSample@@@Z
            05........48894424:
              204C896424384533E44C8BC1664439A15A:
                0. 28 2ABA 03BB (l)0000:ct_init
              30:
                33C048895C2468498BD8488902418B00:
                  0. 2B DEF0 0096 0000:NlComputeCredentials
                4885C948895C2460488BD9751633C048:
                  0. 0A B053 00CE 0000:Ip6Array_CreateFromIp4Array
                668379023A48895C2460488974246848:
                  0. 53 8503 016F (l)0000:MapResourceName
                8B42104C8BC185C0744783F803744248:
                  0. 48 79ED 0200 0000:GetBitmapSubtype (l)008F:$LN6 (l)00BB:$LN5 (l)00E7:$LN4 (l)0113:$LN3 (l)0135:$LN2 (l)015E:$LN1 (l)0187:$LN7
              3848895C246048897C24688BF9488D0D:
                0. 00 0000 0142 0000:initializeSecurityPackage (l)00E2:$Failed$55396 (l)011A:$Unlock$55387
            41:
              2048895C245848897424604889442428498BF14C894C24204D:
                0. 17 0254 00B0 0000:FCIFlushCabinet
              E04883C1E048897C2468FF50404885C0488BF8750D8D470148:
                0. 17 5071 00D5 0000:?Unregister@CBaseFilter@@UEAAJXZ
            4228:
              48895C246048897C24684032FFF6401C02488BDA0F849900:
                0. 11 FF75 00CC 0000:ArbOverrideConflict
              4C8B4A20488B4928448B401C498B4120440FB64A424183E0:
                0. 21 A8E6 004A 0000:ArbAddAllocation
            4424:
              70:
                450FB7D04C8BC1488944243044894C24284C8BCA488D15:
                  0. 00 0000 003A 0000:R_ResolverQuery
                4889:
                  442430:
                    44894C2428:
                      44894424204C8BC14C8BCA488D:
                        0. 01 9D2B 0036 0000:ElfrOpenBELW (0014: C3)
                      4C894424204C8BC1448BCA488D:
                        0. 01 9D2B 0036 0000:ElfrGetLogInformation
                    4C894C2428:
                      44894424204C8BC1448BCA488D:
                        0. 01 9D2B 0036 0000:PNP_DeviceInstanceAction
                      4C894424204C8BC14C8BCA488D:
                        0. 01 9D2B 0036 0000:R_DnssrvUpdateRecord (0014: C3)
                  5C244048897C2438:
                    4889442420488BD9E8:
                      0. 05 1568 0118 0000:??0CBaseVideoRenderer@@QEAA@AEBU_GUID@@PEAGPEAUIUnknown@@PEAJ@Z
                    498B:
                      D8488BF94889442420E8:
                        0. 00 0000 0074 0000:??0CTransInPlaceInputPin@@QEAA@PEAGPEAVCTransInPlaceFilter@@PEAJPEBG@Z
                      F8488BD94889442420E8:
                        0. 00 0000 005C 0000:??0CTransInPlaceOutputPin@@QEAA@PEAGPEAVCTransInPlaceFilter@@PEAJPEBG@Z
                4D8BD148895C244048894424284D8D888800000048897C:
                  0. 0E 490D 0079 0000:??0CTransformInputPin@@QEAA@PEADPEAVCTransformFilter@@PEAJPEBG@Z (0047: 83) (REF 002E: ??0CBaseInputPin@@QEAA@PEADPEAVCBaseFilter@@PEAVCCritSec@@PEAJPEBG@Z)
                  1. 0E 490D 0079 0000:??0CTransformInputPin@@QEAA@PEAGPEAVCTransformFilter@@PEAJPEBG@Z (0047: 83) (REF 002E: ??0CBaseInputPin@@QEAA@PEAGPEAVCBaseFilter@@PEAVCCritSec@@PEAJPEBG@Z)
                  2. 0E 490D 0076 0000:??0CTransformOutputPin@@QEAA@PEAGPEAVCTransformFilter@@PEAJPEBG@Z (0047: C3) (REF 002E: ??0CBaseOutputPin@@QEAA@PEAGPEAVCBaseFilter@@PEAVCCritSec@@PEAJPEBG@Z)
                  3. 0E 490D 0076 0000:??0CTransformOutputPin@@QEAA@PEADPEAVCTransformFilter@@PEAJPEBG@Z (0047: C3) (REF 002E: ??0CBaseOutputPin@@QEAA@PEADPEAVCBaseFilter@@PEAVCCritSec@@PEAJPEBG@Z)
              78:
                48894424388B44247089442430:
                  44894C24284C89442420:
                    0. 09 E59B 003E (!)0000:?
                  4C894C24284489442420:
                    0. 09 E59B 003E 0000:R_DnssrvOperation
                4D85C048895C244048897C2438498BF94C8D0D:
                  0. 1C 520D 0090 0000:DnsPrint_String (0023: 74)
                  1. 1C 520D 0090 0000:DnsPrint_StringCharSet (0023: 75)
                C7442430:
                  000000004889442428488B4424704889442420:
                    0. 01 3E9B 002A 0000:_raise_exc
                  010000004889442428488B4424704889442420:
                    0. 01 3E9B 002A 0000:_raise_excf
            4928488D54245048895C2460660F7F742430F20F10F1488B01FF:
              0. 13 1252 009B 0000:?put_CurrentPosition@CPosPassThru@@UEAAJN@Z (0030: 40)
              1. 13 1252 009B 0000:?put_StopTime@CPosPassThru@@UEAAJN@Z (0030: 58)
              2. 13 1252 009B 0000:?put_PrerollTime@CPosPassThru@@UEAAJN@Z (0030: 68)
            81F00000004885C074114883783000750AB8090204804883C448:
              0. 24 3552 005B 0000:?SetWindowPosition@CBaseControlWindow@@UEAAJJJJJ@Z
            84248000000048:
              85C07405833800750233C04889442438488B44:
                0. 18 FAAF 0041 0000:DnssrvResetIPListPropertyEx
              89442438488B442478C7442430030000004889:
                0. 0C 0F0B 0035 0000:DnssrvResetStringPropertyEx
            89D800000048895C246048897C24684883793000498BD8488BFA:
              0. C7 EB62 00E7 0000:?DecideBufferSize@CTransInPlaceFilter@@UEAAJPEAUIMemAllocator@@PEAU_AllocatorProperties@@@Z
            C248895C246048897C2468488BF9488D542430488BC8498BD848:
              0. 12 3C70 0098 0000:NetpSetMachineAccountPassword
            D1488D4C2430FF15........:
              4C8B1D........41803B00740D48:
                0. 06 1DB2 0084 0000:NetpAllocWStrFromAStr (001F: 89) (REF 0015: NlsMbCodePageTag)
                1. 06 1DB2 0084 0000:NetpAllocWStrFromStr (001F: 89) (REF 0015: NlsMbOemCodePageTag)
                2. 06 1DB2 0080 0000:NetpLogonOemToUnicode (001F: 85)
                3. 06 1DB2 0081 0000:NetpLogonUnicodeToOem (001F: 48)
                4. 06 1DB2 0080 0000:NetpAllocStrFromWStr (001F: E8)
              85C0785C488B05........803800:
                0. 09 6986 0083 0000:NetpAllocAStrFromWStr
          8D05........894C24284889542430488D15........488D4C2420:
            0. 0F F183 0034 0000:?_com_raise_error@@YAXJPEAUIErrorInfo@@@Z
          C74424:
            20FEFFFFFF48895C24:
              5048896C2458488974246048897C24:
                0. 16 152D 0118 0000:?GetEvent@CMSPAddress@@UEAAJPEAKPEAE@Z (l)0100:?dtor$0@?0??GetEvent@CMSPAddress@@UEAAJPEAKPEAE@Z@4HA
                1. 13 E44E 0358 0000:?FireEvent@CPTEventSink@@UEAAJPEBU__MIDL___MIDL_itf_msp_0000_0005@@@Z (l)0340:?dtor$0@?0??FireEvent@CPTEventSink@@UEAAJPEBU__MIDL___MIDL_itf_msp_0000_0005@@@Z@4HA
              6848896C2440488974243848897C24:
                0. 15 8813 0198 0000:?DisconnectTerminal@CBaseTerminal@@UEAAJPEAUIGraphBuilder@@K@Z (l)0180:?dtor$0@?0??DisconnectTerminal@CBaseTerminal@@UEAAJPEAUIGraphBuilder@@K@Z@4HA
            28FEFFFFFF48895C24:
              5048896C2458488974246048897C24:
                0. 15 FE72 0268 0000:?get_Volume@CAudioCaptureTerminal@@UEAAJPEAJ@Z (l)0250:?dtor$0@?0??get_Volume@CAudioCaptureTerminal@@UEAAJPEAJ@Z@4HA
              58488974246048897C2468488BF248:
                0. 10 1FAA 0178 0000:?get_TerminalClass@CBaseTerminal@@UEAAJPEAPEAG@Z (l)0160:?dtor$0@?0??get_TerminalClass@CBaseTerminal@@UEAAJPEAPEAG@Z@4HA
            30FEFFFFFF48895C24:
              5048896C2458488974246048897C24:
                0. 0E 4C66 02B8 0000:?get_Streams@CMSPCallBase@@UEAAJPEAUtagVARIANT@@@Z (l)0280:?dtor$0@?0??get_Streams@CMSPCallBase@@UEAAJPEAUtagVARIANT@@@Z@4HA (l)02A0:?dtor$1@?0??get_Streams@CMSPCallBase@@UEAAJPEAUtagVARIANT@@@Z@4HA (01E3: 04)
                1. 0E 4C66 02B8 0000:?get_Terminals@CMSPStream@@UEAAJPEAUtagVARIANT@@@Z (l)0280:?dtor$0@?0??get_Terminals@CMSPStream@@UEAAJPEAUtagVARIANT@@@Z@4HA (l)02A0:?dtor$1@?0??get_Terminals@CMSPStream@@UEAAJPEAUtagVARIANT@@@Z@4HA (01E3: 08)
                2. 0E A405 0328 0000:?get_StaticTerminals@CMSPAddress@@UEAAJPEAUtagVARIANT@@@Z (l)0310:?dtor$0@?0??get_StaticTerminals@CMSPAddress@@UEAAJPEAUtagVARIANT@@@Z@4HA
                3. 0E E818 0228 0000:?Initialize@CMSPAddress@@UEAAJPEAJ@Z (l)0210:?dtor$0@?0??Initialize@CMSPAddress@@UEAAJPEAJ@Z@4HA
              58488974246048897C2468488BFA48:
                0. 04 8F8B 0208 0000:?UnregisterPluggableTerminalEventSink@CMSPStream@@IEAAJPEAUITTerminal@@@Z (l)01F0:?dtor$0@?0??UnregisterPluggableTerminalEventSink@CMSPStream@@IEAAJPEAUITTerminal@@@Z@4HA
              6048897C2468488BD98B05:
                0. 07 F2EA 0258 0000:?FindCapturePin@CVideoCaptureTerminal@@AEAAJXZ (l)0240:?dtor$0@?0??FindCapturePin@CVideoCaptureTerminal@@AEAAJXZ@4HA (00B5: 66)
                1. 07 F2EA 0258 0000:?FindTerminalPin@CAudioCaptureTerminal@@QEAAJXZ (l)0240:?dtor$0@?0??FindTerminalPin@CAudioCaptureTerminal@@QEAAJXZ@4HA (00B5: 90)
                2. 07 F2EA 0278 0000:?FindTerminalPin@CAudioRenderTerminal@@QEAAJXZ (l)0260:?dtor$0@?0??FindTerminalPin@CAudioRenderTerminal@@QEAAJXZ@4HA (00B5: E9)
        498B0048895C246848897C2440488BF9488D4C2420488D5424204889:
          0. 3B FFF4 006E 0000:?Notify@CTransformOutputPin@@UEAAJPEAUIBaseFilter@@UtagQuality@@@Z
        4C:
          89:
            442430488D4424684C8BCA4889442428488D05........4C8BC1:
              0. 15 42AE 003E 0000:DnssrvGetZoneInfo
            4C24204C8D898800000048895C244048897C2438488BF9E8:
              0. 00 0000 006D (!)0000:?
          8B:
            198B44247048896C243885C0488974243048897C2428488BF18B:
              0. 5D 9FB6 008E 0000:FlatBuf_Arg_CopyMemory
            D1:
              33C048895C244048897C2438488BFA4D8BD889442450498BD9:
                0. 41 4695 0080 0000:WritePszTmp
              48895C244033C0488974243848897C2430488BFA498BF14D8B:
                0. 5F 6702 009E 0000:WritePsz
          8D421448895C245048896C2458488BE933C0488974246048897C24:
            0. 16 F2A7 017A 0000:pSetComponentData
        4D85C0:
          4889:
            5C24684889742440488BF2498BD87513418D4001488B74:
              0. 10 2E72 00E4 0000:?ShouldUpdate@CImagePalette@@QEAAHPEBUtagVIDEOINFOHEADER@@0@Z
            6C2438488974243048897C24284C896424204863EA4D8B:
              0. 21 2149 0111 0000:?GetStdDev@CBaseVideoRenderer@@QEAAJHPEAH_J1@Z
            7424604C896C24384C89742430498BF04C8BE94C8BF275:
              0. 32 285E 021A 0000:DnsAddrArray_Union
          744C4885D2744766833A0074414885C9740C66833900740648:
            0. 1D 9110 005F 0000:ElfOpenBackupEventLogW (l)0047:$LN10 (REF 003D: ElfrOpenBELW)
            1. 1D 9110 005F 0000:ElfOpenBackupEventLogA (l)0047:$LN10 (REF 003D: ElfrOpenBELA)
        654C8B0425300000004C8D4C2428498B4040498901498B4048498941:
          0. 1A 2B2B 0055 0000:ElfChangeNotify (l)0044:$LN6
        66:
          0F:
            1205........660F7F74243066440F7F442420E8........F20F:
              0. 06 AC43 0293 0000:initdodec
            57C0660F7F742430F20F10F1660F2EC17A127510B85700078066:
              0. 2F AA45 00B7 0000:?put_Rate@CPosPassThru@@UEAAJN@Z
              1. 2F DB6D 00BA 0000:?SetRate@CPosPassThru@@UEAAJN@Z
          C7020000C74424302C0000004C894424286641C70000004C8BCA41:
            0. 12 C61A 003B 0000:SplitClassInstanceString
        803D........0048895C246048897C2468:
          0FB6FA488BD97435833D:
            0. 00 0000 006E 0000:DDK_KeReleaseSpinLock
          488B:
            F9488BDA7435833D:
              0. 00 0000 0072 0000:DDK_InsertHeadList (0051: C3)
              1. 00 0000 0073 0000:DDK_InsertTailList (0051: 48)
            FA488BD97435833D:
              0. 00 0000 0075 0000:DDK_KeAcquireInStackQueuedSpinLockAtDpcLevel (004B: 48) (REF 001F: ?testControl@?1??DDK_KeAcquireInStackQueuedSpinLockAtDpcLevel@@9@4KA)
              1. 00 0000 0075 0000:DDK_KeAcquireInStackQueuedSpinLock (004B: 48) (REF 001F: ?testControl@?1??DDK_KeAcquireInStackQueuedSpinLock@@9@4KA)
              2. 00 0000 006C 0000:DDK_KeAcquireSpinLock (004B: C3)
              3. 00 0000 009A 0000:DDK_ExFreeToPagedLookasideList (004B: 8B)
        83:
          3D........004889:
            5C24:
              4048896C24384889742430498BE8488BD9:
                0. 0E 4C33 00AB 0000:?Init@CMSPCallMultiGraph@@UEAAJPEAVCMSPAddress@@PEAJKK@Z
              5048:
                896C2458488974246048897C246849:
                  0. 0E 3E3D 0263 0000:DefScreenSaverProc (l)0139:$PostClose$26378 (REF 00AE: __imp_PostMessageA)
                  1. 0E 3E3D 0263 0000:DefScreenSaverProc (l)0139:$PostClose$26379 (REF 00AE: __imp_PostMessageW)
                8BD974144C8BC1488D15........B9:
                  0. 05 7B74 01F6 0000:?ShutDown@CMSPCallMultiGraph@@UEAAJXZ
            6C24584889:
              7424604C896424404C896C243841:
                0. 10 A014 0285 0000:?QueueWorkItem@CMSPThread@@QEAAJP6AKPEAX@Z0H@Z
              7C2468488BF9488BEA7411488D15:
                0. 00 0000 02A3 0000:?EnumerateDynamicTerminalClasses@CMSPAddress@@UEAAJPEAPEAUIEnumTerminalClass@@@Z
          79200248895C2450488BD90F85D000000048896C245848897C2468:
            0. 02 ABB7 00F4 0000:?Ansi@CUnicodeString@@IEAAPEBDXZ
        85:
          C948895C244048896C24384889742430498BE948897C24280F84CE:
            0. 1B 5B9E 01C0 0000:NetpServiceStructureInfo
          D27407B8480100C0EB23488B442470488944242033D2E8:
            0. 0A AB6A 0037 0000:ElfGetLogInformation (l)0026:$LN10
        8B:
          0148896C2438488974243085C04C89642420498BE84C8BE2488BF1:
            0. 4A 4B28 00B5 0000:MDICreateDecompression
          4114:
            33D248895C245048896C2458488974246024183C08488B:
              E948:
                0. 28 BB8D 0103 0000:MinfoDnsRecordConvert
              F148:
                0. 28 BC64 0112 0000:SigDnsRecordConvert (00C9: C3)
                1. 28 BC64 0119 0000:SoaDnsRecordConvert (00C9: 5C)
            48895C244048896C2438488974243048897C2428C1E80383E0:
              0. 2D A068 0185 0000:privateRecordCopy (l)0159:$Failed$52069
          4424:
            7089442430:
              44894C2428:
                44894424204C8BC14C8BCA488D0D:
                  0. 00 0000 0034 0000:PNP_FreeLogConf
                4C894424204C8BC1:
                  448BCA488D0D:
                    0. 00 0000 0034 0000:PNP_GetHwProfInfo
                  4C8BCA488D0D:
                    0. 00 0000 0034 (!)0000:?
              4C894C2428:
                44894424204C8BC14C8BCA488D0D:
                  0. 00 0000 0034 (!)0000:?
                4C894424204C8BC1:
                  448BCA488D0D:
                    0. 00 0000 0034 0000:R_ResolverRegisterCluster
                  4C8BCA488D0D:
                    0. 00 0000 0034 (!)0000:?
            78:
              48C74424300000000089442428:
                488B4424704889442420E8:
                  0. 00 0000 0029 0000:CM_Detect_Resource_Conflict (REF 0020: CM_Detect_Resource_Conflict_Ex)
                  1. 00 0000 0029 0000:CM_Register_Device_InterfaceW (REF 0020: CM_Register_Device_Interface_ExW)
                  2. 00 0000 0029 0000:CM_Get_DevNode_Custom_PropertyW (REF 0020: CM_Get_DevNode_Custom_Property_ExW)
                  3. 00 0000 0029 0000:CM_Register_Device_InterfaceA (REF 0020: CM_Register_Device_Interface_ExA)
                  4. 00 0000 0029 0000:CM_Get_DevNode_Custom_PropertyA (REF 0020: CM_Get_DevNode_Custom_Property_ExA)
                  5. 00 0000 0029 0000:CM_Get_DevNode_Registry_PropertyW (REF 0020: CM_Get_DevNode_Registry_Property_ExW)
                  6. 00 0000 0029 0000:CM_Get_DevNode_Registry_PropertyA (REF 0020: CM_Get_DevNode_Registry_Property_ExA)
                  7. 00 0000 0029 0000:CM_Open_DevNode_Key (REF 0020: CM_Open_DevNode_Key_Ex)
                  8. 00 0000 0029 0000:CM_Open_Class_KeyW (REF 0020: CM_Open_Class_Key_ExW)
                8B44247089442420E8:
                  0. 00 0000 0027 0000:CM_Add_Res_Des (REF 001E: CM_Add_Res_Des_Ex)
                  1. 00 0000 0027 0000:CM_Modify_Res_Des (REF 001E: CM_Modify_Res_Des_Ex)
              89442438:
                488B4424704889442430:
                  44894C24284489442420:
                    0. 09 E59B 003E (!)0000:?
                  4C894C24284C89442420:
                    0. 09 BDBA 003E 0000:PNP_GetRelatedDeviceInstance
                    1. 09 E59B 003E 0000:PNP_GetInterfaceDeviceList
                8B442470894424304C894C2428:
                  44894424204C8B:
                    0. 07 B06C 003C 0000:PNP_QueryArbitratorFreeData
                  4C894424204C8B:
                    0. 07 B06C 003C (!)0000:?
              C74424300040000089442428488B4424704889442420E8:
                0. 00 0000 0028 0000:NetpAllocateEnumBuffer
      58:
        33C0:
          48895C2470488BD933C989442430894424344889442438488944:
            0. 04 FBBF 008E 0000:?DefaultThreadProc@CMsgThread@@CAKPEAX@Z
          4C8BC2488BD1488D4C2420C7442428FFFFFF7FC7442438420000:
            0. 0C A7ED 0035 0000:_vscprintf (REF 002C: _output)
            1. 0C A7ED 0035 0000:_vscwprintf (REF 002C: _woutput)
        41:
          0FB7C14C894424484C8BCA89442440488D4424404C8BC148894424:
            0. 04 59FE 004E 0000:DnssrvDeleteRecordSet
          83F81C498BD10F877A0200004963C04C8D05........418B8C80:
            0. 00 0000 0308 0000:__pow_error (l)0028:$LN19 (l)0070:$LN18 (l)00B3:$LN17 (l)00D4:$LN10 (l)010A:$LN9 (l)0143:$LN7 (l)017C:$LN6 (l)01B5:$LN5 (l)01EE:$LN4 (l)0220:$LN3 (l)025C:$LN2 (l)028B:$LN1
          8BC048895C246048896C24682BC24889742470498BD84C8B412089:
            0. 39 9AD1 0137 0000:Soa_StringWrite
        4533C0:
          48B9FFFFFFFFFFFFFF7FF20F11442460488B542460F20F10C8:
            0. 58 4757 010C 0000:floor
            1. 58 E40B 011D 0000:ceil
          F30F114424600F28C88B5424608BC20FBAF01F3BD0410F95C0:
            0. 2C 0A5F 00DB 0000:floorf
            1. 2C A572 00E1 0000:ceilf
        48:
          83:
            390048895C24504889742448488BF10F859400000085D2740644:
              0. 18 739A 01C1 0000:NetpAllocateEnumBufferEx
            79580048895C24684889742470488BF2488BD9744A488B515048:
              0. 62 6365 00EF 0000:?PassNotify@CBaseInputPin@@QEAAJAEAUtagQuality@@@Z
          85:
            C948896C2468488BE90F84F0010000488B05........4885C00F:
              0. 0C 1DF1 0216 0000:CreateCIPalette
            D24889:
              5C245048896C24484C896424304C896C24284C89742420:
                0. 49 AC08 00EC 0000:DnsStringPrint_RawOctets
              6C2448488974244048897C2438498BF0488BEA498BF974:
                0. 62 4EE3 00C1 0000:?GetWindowPosition@CBaseControlWindow@@UEAAJPEAJ000@Z
          89:
            5C24:
              5048:
                89:
                  6C2448:
                    0FB7E94889742440488D0D........48897C:
                      0. 0D 2688 0070 0000:SQLInstallerError (REF 0019: ??_C@_0BC@DJAFKIEP@SQLInstallerError?$AA@)
                      1. 0D 2688 0070 0000:SQLInstallerErrorW (REF 0019: ??_C@_0BD@BDKAJCDK@SQLInstallerErrorW?$AA@)
                    48:
                      89742440:
                        418BE848897C2438488BFA33D2:
                          0. 0D 14CC 0138 0000:Dns_HeapInitialize
                        48:
                          897C2438:
                            33FF4C8964243041:
                              0. 40 8572 008C 0000:_lsearch
                              1. 60 9A16 0080 0000:_lfind
                            4032FF4885C94C89:
                              0. 28 E51A 00E2 0000:DDKExtVNextIrpStack
                            488BE94C89642430:
                              0. 14 2DDD 00EF 0000:Dns_CreateAAAARecord
                              1. 13 DD47 00E2 0000:Dns_CreateARecord
                            4C89642430:
                              448BA4:
                                0. 2E 8845 00ED (!)0000:?
                              4C896C:
                                0. 2E 5CA9 00F2 0000:?Init@?$CComEnumImpl@UIEnumTerminalClass@@$1?IID_IEnumTerminalClass@@3U_GUID@@BU3@V?$_Copy@U_GUID@@@ATL@@@ATL@@QEAAJPEAU_GUID@@0PEAUIUnknown@@W4CComEnumFlags@2@@Z
                            8BBC248000000048:
                              0. 1D 4C25 00F7 0000:CreateRecordBasic
                          8B:
                            B424800000004C89642430:
                              0. 3E 1EDB 0138 0000:?GetTypeInfo@CBaseDispatch@@QEAAJAEBU_GUID@@IKPEAPEAUITypeInfo@@@Z
                            F2488BE948897C24388BBC:
                              0. 08 6C1E 007E 0000:DnsPrint_Utf8StringBytes (0051: 25)
                              1. 08 6C1E 007F 0000:DnsPrint_UnicodeStringBytes (0051: FF)
                        498BC148897C24388BDA8B9424:
                          0. 1B 77D7 00DE 0000:Dns_ValueForStringEx
                        4C896424304D85C0488BE9488B:
                          0. 01 9D2B 00B8 0000:DnsPrint_AfProtocolsArray
                      8BE9488974244048:
                        897C2438410FB7C94C:
                          0. 17 C7D1 00FB 0000:Dns_CreateFlatRecord
                        8D0D........48897C:
                          0. 0D 2688 006F 0000:SQLInstallDriver (REF 0019: ??_C@_0BB@LMIMCDGA@SQLInstallDriver?$AA@)
                          1. 0D 2688 006F 0000:SQLInstallDriverW (REF 0019: ??_C@_0BC@LIPECGOI@SQLInstallDriverW?$AA@)
                          2. 0C 9FD8 007A 0000:SQLGetPrivateProfileString (004D: C3) (REF 0019: ??_C@_0BL@KBJJEPE@SQLGetPrivateProfileString?$AA@)
                          3. 0C 9FD8 007A 0000:SQLGetPrivateProfileStringW (004D: C3) (REF 0019: ??_C@_0BM@EPCAOEAC@SQLGetPrivateProfileStringW?$AA@)
                          4. 0C 9FD8 007C 0000:SQLReadFileDSNW (004D: C4) (REF 0019: ??_C@_0BA@LDLMKJBD@SQLReadFileDSNW?$AA@)
                          5. 0C 9FD8 007C 0000:SQLReadFileDSN (004D: C4) (REF 0019: ??_C@_0P@CPNMPJKP@SQLReadFileDSN?$AA@)
                  7424:
                    4048897C2438498BF84533C04C896424304885:
                      0. 47 6BA2 018F 0000:CM_Set_DevNode_Registry_Property_ExA (l)0098:$LN13 (l)00C1:$LN4
                      1. 47 CB7B 018F 0000:CM_Set_Class_Registry_PropertyA (l)0098:$LN13 (l)00C1:$LN4
                    48:
                      488BF1488D4C243048897C2440:
                        418BD9418B:
                          0. 02 C9D6 005E 0000:CmRegUtilWstrValueGetFullBuffer
                        498BD9418B:
                          0. 02 C9D6 0062 0000:CmRegUtilWstrValueSetFullBuffer
                      4C89642438498BF1488BD9E8........488D:
                        0. 04 AB91 017B 0000:??0CBaseReferenceClock@@QEAA@PEAGPEAUIUnknown@@PEAJPEAVCAMSchedule@@@Z
                      8BF2488D54243048897C2440418BD9:
                        418BF8:
                          0. 0A 3043 008C 0000:CM_Set_HW_Prof_Flags_ExA
                        498BF8:
                          0. 0A 3043 008C 0000:CM_Get_HW_Prof_Flags_ExA
                  7C2448488BFA48D1EA498BD948C744246800000000:
                    0. 53 1046 00A8 0000:RtlStringCbVPrintfExW
                    1. 53 1E0C 00A8 0000:StringCbVPrintfExW
                8B:
                  9C24800000004885DB750FB803400080488B5C2450:
                    0. 4A 44DE 00A3 0000:?AdviseTime@CBaseReferenceClock@@UEAAJ_J0_KPEA_K@Z
                  C2:
                    33D24885C0488974244848897C24404889542468:
                      0. 14 5AF4 00B4 0000:CM_Open_Class_Key_ExA (007B: 48)
                      1. 14 5AF4 00B0 0000:CM_Open_Class_KeyA (007B: C3)
                    4889742448488BF1488D542430488BC848897C24:
                      0. 11 0183 0094 0000:CM_Create_DevNode_ExA
                8D4424304889742448488BF1488BD148894424284889:
                  0. 20 53D2 00D0 0000:NetpCheckDomainNameIsValid
              6048:
                89:
                  6C2468:
                    33ED4885C948897C2478488BDA896C243041:
                      0. 6B CA27 0113 (l)0000:?getNextObjectInEnum@@YAJPEAUIEnumWbemClassObject@@PEAPEAUIWbemClassObject@@_N@Z (l)0063:$Done$70385
                    48:
                      89:
                        742470:
                          410FB7E84C8BC248897C247848:
                            0. FF 987B 03DE 0000:LoginCabinet
                          48:
                            897C2478:
                              488BF14C896C2448:
                                0. 05 ACFE 01A4 0000:?RefreshDisplayType@CImageDisplay@@QEAAJPEAD@Z
                              4C89642450:
                                448B61:
                                  0. 37 B437 00E7 0000:Txt_StringWrite
                                4C896C:
                                  0. 10 0D2F 01DC 0000:?wiauRegGetStrW@@YAJPEAUHKEY__@@PEBGPEAGPEAK@Z (l)018E:$Cleanup$72227 (0139: 5A)
                                  1. 10 0D2F 01DC 0000:?wiauRegGetStrA@@YAJPEAUHKEY__@@PEBDPEADPEAK@Z (l)018E:$Cleanup$72260 (0139: 7B)
                                  2. 7C DF2B 010F 0000:?ReceiveCanBlock@CBaseInputPin@@UEAAJXZ
                            8BD9488B493848897C247848:
                              0. 15 0663 01FE 0000:Dns_ExtractGssTsigFromMessage (l)013F:$Failed$55732
                        7C2478:
                          4032FF33DB4885C9488BE97517:
                            0. 1F A9E4 0145 0000:NetpSetDnsComputerNameAsRequired
                          4C896424504C896C24488BD94C:
                            0. 22 66A3 0309 0000:_handle_exc
                      8B:
                        D9488B89A00000004889742470418BE9:
                          0. FF 76F4 012F 0000:?QueueSample@CPullPin@@AEAAJAEA_J_JH@Z
                        E9488B4938488974247048897C247841:
                          0. 06 77EA 0163 0000:?DoSetWindowStyle@CBaseControlWindow@@QEAAJJJ@Z
                    49C700000000000FB70248897C2478498BE8:
                      0. 77 7083 0290 (l)0000:convert_to_abs
                    4C896424504C896C2448488BE94C89742440:
                      0. 11 E6E8 014C 0000:?GetCommandDueFor@CCmdQueue@@UEAAJ_JPEAPEAVCDeferredCommand@@@Z
                  74246848897C24704C896424784D8BE0488BFAC644:
                    0. 3A 5315 0123 0000:ElfOpenEventLogA (l)00CD:$LN12
                    1. 40 566D 011E 0000:ElfOpenEventLogW (l)00C8:$LN12
                8BD948896C2468488974247048897C247833C0488BFA:
                  0. 30 85C8 0125 0000:MsgFmtNcbName
              68:
                4533C9418BD84889742470488BF248C744243000000000:
                  0. 20 A8D4 0127 0000:NetpLogonWriteMailslot
                4889:
                  74247048:
                    897C2478:
                      488BFA498BD8488BF1E8:
                        0. 00 0000 0142 0000:TkeyRecordPrint (011D: E9)
                        1. 00 0000 0143 0000:TsigRecordPrint (011D: 58)
                      498BF8488BDA4D85C074:
                        694885:
                          0. 25 498F 00A0 0000:ElfRegisterEventSourceW (l)0079:$LN10
                        6E4885:
                          0. 1F DEDD 00A5 0000:ElfRegisterEventSourceA (l)007E:$LN11
                    8BF148:
                      897C2478488BFA488D54243833C9:
                        0. 02 ABB7 01CF 0000:?CompareMoniker@CSingleFilterStaticTerminal@@UEAAJPEAUIMoniker@@@Z
                      8D4C2438488BDAFF15........48:
                        0. 02 8E30 0099 0000:NetpCopyWStrToStrDBCS
                  7C24784032FF40383D........488BD90F84970000:
                    0. 03 66A0 00C9 0000:DDKExtPoolAddEntry
              7048:
                897C2478488BFAE8........488D15........B90400:
                  0. 06 17DB 00F4 0000:AcpisimForwardIrpAndWait
                8BDA488B52104C8B531848897C2478488BF933C9493B:
                  0. A0 E184 011D 0000:ArbFindSuitableRange
              7848896C2450488974244848897C24404C89642438488BF2:
                0. 09 861B 020E 0000:AcpisimIssuePowerDIrp (l)0069:$EndAcpisimIssuePowerDIrp$11721
            6C24:
              48:
                410FB7C04C896C2428413BC08BEA4C8BE97414B8570000:
                  0. 95 DFE3 0162 0000:RxpStartBuildingTransaction
                48:
                  89:
                    74244048897C2438:
                      33FF4D85C04C89642430488D2D:
                        0. 00 0000 010E 0000:DnsPrint_StringArray
                      488B39488BF18B8C2480000000:
                        0. 7B 1909 0109 0000:HostentBlob_WriteAddressArray
                    7C24384C89642430448BA424800000004C896C2428:
                      0. 32 4ECA 00E1 0000:?GetBuffer@CBaseAllocator@@UEAAJPEAPEAUIMediaSample@@PEA_J1K@Z
                  8BAC2480000000488974244048897C24384C89642430:
                    0. 48 30FC 0198 0000:MCICreateCompression
              68:
                33ED48897C247848396910488BF9C74424380100000048:
                  0. 11 4ADA 01EF 0000:?Init@CWiauFormatConverter@@QEAAJXZ
                488974247048:
                  897C247833FF4885D24C89642450488BF2:
                    0. 23 C154 0214 0000:?NotifyAllocator@CTransInPlaceInputPin@@UEAAJPEAUIMemAllocator@@H@Z
                  8BF1488B4A1048897C2478488BFA488B01:
                    0. 1E 907B 01D2 0000:?HandleGraphEvent@CMSPCallMultiGraph@@UEAAXPEAUMSPSTREAMCONTEXT@1@@Z
            742470:
              48897C2478488BF9488D4C2438498BF0E8........4533:
                0. 20 9042 00F9 0000:ArbpGetRegistryValue
              660F7F742440B910000000660F7F7C2430F20F10F1F20F:
                0. 03 D79A 015D 0000:auxWireCone (00E0: 48)
                1. 03 D79A 016A 0000:auxSolidCone (00E0: BA)
                2. 03 D79A 013F 0000:auxWireTorus (00E0: FB)
                3. 03 D79A 013F 0000:auxSolidTorus (00E0: F9)
              B908000000660F7F742440F20F10F0E8........4885C0:
                0. 10 2160 0147 0000:auxWireCube (00B2: 02)
                1. 10 2160 0147 0000:auxSolidCube (00B2: 07)
            7C24784C896424504C896C24484C897424404C8BF1B90F000000:
              0. 02 ABB7 01D6 0000:UpdateStaticMapping
          8B:
            0148895C245048896C2448488974244048897C2438488BEA498B:
              0. 13 A61A 0070 0000:?Init@?$CSafeComEnum@UIEnumTerminal@@$1?IID_IEnumTerminal@@3U_GUID@@BPEAUITTerminal@@V?$_CopyInterface@UITTerminal@@@ATL@@VCComMultiThreadModel@6@@@QEAAJPEAPEAUITTerminal@@0PEAUIUnknown@@W4CComEnumFlags@ATL@@@Z (REF 0053: ?Init@?$CComEnumImpl@UIEnumTerminal@@$1?IID_IEnumTerminal@@3U_GUID@@BPEAUITTerminal@@V?$_CopyInterface@UITTerminal@@@ATL@@@ATL@@QEAAJPEAPEAUITTerminal@@0PEAUIUnknown@@W4CComEnumFlags@2@@Z)
              1. 13 A61A 0070 0000:?Init@?$CSafeComEnum@UIEnumVARIANT@@$1?IID_IEnumVARIANT@@3U_GUID@@BUtagVARIANT@@V?$_Copy@UtagVARIANT@@@ATL@@VCComMultiThreadModel@6@@@QEAAJPEAUtagVARIANT@@0PEAUIUnknown@@W4CComEnumFlags@ATL@@@Z (REF 0053: ?Init@?$CComEnumImpl@UIEnumVARIANT@@$1?IID_IEnumVARIANT@@3U_GUID@@BUtagVARIANT@@V?$_Copy@UtagVARIANT@@@ATL@@@ATL@@QEAAJPEAUtagVARIANT@@0PEAUIUnknown@@W4CComEnumFlags@2@@Z)
              2. 13 A61A 0070 0000:?Init@?$CSafeComEnum@UIEnumStream@@$1?IID_IEnumStream@@3U_GUID@@BPEAUITStream@@V?$_CopyInterface@UITStream@@@ATL@@VCComMultiThreadModel@6@@@QEAAJPEAPEAUITStream@@0PEAUIUnknown@@W4CComEnumFlags@ATL@@@Z (REF 0053: ?Init@?$CComEnumImpl@UIEnumStream@@$1?IID_IEnumStream@@3U_GUID@@BPEAUITStream@@V?$_CopyInterface@UITStream@@@ATL@@@ATL@@QEAAJPEAPEAUITStream@@0PEAUIUnknown@@W4CComEnumFlags@2@@Z)
              3. 13 A61A 0070 0000:?Init@?$CSafeComEnum@UIEnumPluggableSuperclassInfo@@$1?IID_IEnumPluggableSuperclassInfo@@3U_GUID@@BPEAUITPluggableTerminalSuperclassInfo@@V?$_CopyInterface@UITPluggableTerminalSuperclassInfo@@@ATL@@VCComMultiThreadModel@6@@@QEAAJPEAPEAUITPluggableTerminalSuperclassInfo@@0PEAUIUnknown@@W4CComEnumFlags@ATL@@@Z (REF 0053: ?Init@?$CComEnumImpl@UIEnumPluggableSuperclassInfo@@$1?IID_IEnumPluggableSuperclassInfo@@3U_GUID@@BPEAUITPluggableTerminalSuperclassInfo@@V?$_CopyInterface@UITPluggableTerminalSuperclassInfo@@@ATL@@@ATL@@QEAAJPEAPEAUITPluggableTerminalSuperclassInfo@@0PEAUIUnknown@@W4CComEnumFlags@2@@Z)
              4. 13 A61A 0070 0000:?Init@?$CSafeComEnum@UIEnumPluggableTerminalClassInfo@@$1?IID_IEnumPluggableTerminalClassInfo@@3U_GUID@@BPEAUITPluggableTerminalClassInfo@@V?$_CopyInterface@UITPluggableTerminalClassInfo@@@ATL@@VCComMultiThreadModel@6@@@QEAAJPEAPEAUITPluggableTerminalClassInfo@@0PEAUIUnknown@@W4CComEnumFlags@ATL@@@Z (REF 0053: ?Init@?$CComEnumImpl@UIEnumPluggableTerminalClassInfo@@$1?IID_IEnumPluggableTerminalClassInfo@@3U_GUID@@BPEAUITPluggableTerminalClassInfo@@V?$_CopyInterface@UITPluggableTerminalClassInfo@@@ATL@@@ATL@@QEAAJPEAPEAUITPluggableTerminalClassInfo@@0PEAUIUnknown@@W4CComEnumFlags@2@@Z)
              5. 13 A61A 0070 0000:?Init@?$CSafeComEnum@UIEnumTerminalClass@@$1?IID_IEnumTerminalClass@@3U_GUID@@BU3@V?$_Copy@U_GUID@@@ATL@@VCComMultiThreadModel@5@@@QEAAJPEAU_GUID@@0PEAUIUnknown@@W4CComEnumFlags@ATL@@@Z (REF 0053: ?Init@?$CComEnumImpl@UIEnumTerminalClass@@$1?IID_IEnumTerminalClass@@3U_GUID@@BU3@V?$_Copy@U_GUID@@@ATL@@@ATL@@QEAAJPEAU_GUID@@0PEAUIUnknown@@W4CComEnumFlags@2@@Z)
            0248895C246048896C2468488BEA488BD9488D54243848897C24:
              0. 17 323F 0270 0000:?RegisterWaitEvent@CMSPCallMultiGraph@@IEAAJPEAUIMediaEvent@@PEAUITStream@@@Z
            05........4889:
              4424:
                2048895C247048896C24784C8964244048:
                  0. 15 1B9D 0118 0000:Dns_StringToDnsAddr_A
                30:
                  85C948895C247848897424504863F249:
                    0. 23 7176 00E4 0000:zoneTypeString
                  8BC248897C2448488BD185C0751348C7:
                    0. 24 89F9 00F8 0000:Dns_RecordTypeForNameA
                38:
                  33C0488D4C242048895C245048897C24:
                    0. 47 FD81 00B3 0000:NlMakeSessionKey (l)009A:$Cleanup$49402
                  48895C247048896C2478488BD9488974:
                    0. 14 243A 00CC 0000:Dns_ReverseNameToDnsAddr_A
                484183F8024C8D510848895C24784C8BCA:
                  0. 0E 1A24 00E1 0000:??0CDisp@@QEAA@_JH@Z
              7C2478488BF94885C00F851C01000048895C24:
                0. 03 AFBD 0142 0000:CreateRGBPalette
            0D........4889742478E8........4885C0488BF00F84420100:
              0. 0E CFCB 016D 0000:tkSetRGBMap
            413048896C244848897424404885C048897C24384C8964243045:
              0. 2B C335 00E0 0000:?SetSourcePosition@CBaseControlVideo@@UEAAJJJJJ@Z (0054: 70)
              1. 2B C335 00E0 0000:?SetDestinationPosition@CBaseControlVideo@@UEAAJJJJJ@Z (0054: 50)
            81F000000048895C247048897C24784885C08BFA488BD9741B48:
              0. 25 D039 00C6 0000:?put_Height@CBaseControlWindow@@UEAAJJ@Z (005B: 44)
              1. 25 D039 00C6 0000:?put_Width@CBaseControlWindow@@UEAAJJ@Z (005B: 7C)
              2. 25 D039 00D0 0000:?put_Top@CBaseControlWindow@@UEAAJJ@Z (005D: CF)
              3. 25 D039 00D0 0000:?put_Left@CBaseControlWindow@@UEAAJJ@Z (005D: C7)
            8424:
              8000000048895C245048896C2448488974244048897C2438:
                0. 08 CBD0 00D8 0000:DnsPrint_RpcName
              880000004C894C2448458BD048894424408B842480000000:
                0. 2A 3C4F 0053 0000:NetpEventlogWrite
              900000004889442440488B8424880000004889442438488B:
                0. 1E 5F28 0053 0000:R_DnssrvUpdateRecord2 (0014: C3)
                1. 1E CD76 0053 0000:CRrGetHashTableStats
                2. 1E FA02 0053 (!)0000:?
              980000004889442448:
                488B84249000000048894424408B84:
                  0. 26 A0F4 004F 0000:NetpEventlogWriteEx
                8B84249000000089442440488B8424:
                  0. 27 8592 005C 0000:R_DnssrvOperation2
              A00000004889442448488B8424980000004889442440:
                488B:
                  0. 36 029F 0064 0000:?Invoke@?$IDispatchImpl@V?$ITTerminalVtblBase@VCBaseTerminal@@@@$1?IID_ITTerminal@@3U_GUID@@B$1?LIBID_TAPI3Lib@@3U3@B$00$0A@VCComTypeInfoHolder@ATL@@@ATL@@UEAAJJAEBU_GUID@@KGPEAUtagDISPPARAMS@@PEAUtagVARIANT@@PEAUtagEXCEPINFO@@PEAI@Z (REF 0056: ?_tih@?$IDispatchImpl@V?$ITTerminalVtblBase@VCBaseTerminal@@@@$1?IID_ITTerminal@@3U_GUID@@B$1?LIBID_TAPI3Lib@@3U3@B$00$0A@VCComTypeInfoHolder@ATL@@@ATL@@1VCComTypeInfoHolder@2@A)
                  1. 36 029F 0064 0000:?Invoke@?$IDispatchImpl@UITBasicAudioTerminal@@$1?IID_ITBasicAudioTerminal@@3U_GUID@@B$1?LIBID_TAPI3Lib@@3U3@B$00$0A@VCComTypeInfoHolder@ATL@@@ATL@@UEAAJJAEBU_GUID@@KGPEAUtagDISPPARAMS@@PEAUtagVARIANT@@PEAUtagEXCEPINFO@@PEAI@Z (REF 0056: ?_tih@?$IDispatchImpl@UITBasicAudioTerminal@@$1?IID_ITBasicAudioTerminal@@3U_GUID@@B$1?LIBID_TAPI3Lib@@3U3@B$00$0A@VCComTypeInfoHolder@ATL@@@ATL@@1VCComTypeInfoHolder@2@A)
                  2. 36 029F 0064 0000:?Invoke@?$IDispatchImpl@UITStaticAudioTerminal@@$1?IID_ITStaticAudioTerminal@@3U_GUID@@B$1?LIBID_TAPI3Lib@@3U3@B$00$0A@VCComTypeInfoHolder@ATL@@@ATL@@UEAAJJAEBU_GUID@@KGPEAUtagDISPPARAMS@@PEAUtagVARIANT@@PEAUtagEXCEPINFO@@PEAI@Z (REF 0056: ?_tih@?$IDispatchImpl@UITStaticAudioTerminal@@$1?IID_ITStaticAudioTerminal@@3U_GUID@@B$1?LIBID_TAPI3Lib@@3U3@B$00$0A@VCComTypeInfoHolder@ATL@@@ATL@@1VCComTypeInfoHolder@2@A)
                  3. 36 029F 0064 0000:?Invoke@?$IDispatchImpl@UITCollection@@$1?IID_ITCollection@@3U_GUID@@B$1?LIBID_TAPI3Lib@@3U3@B$00$0A@VCComTypeInfoHolder@ATL@@@ATL@@UEAAJJAEBU_GUID@@KGPEAUtagDISPPARAMS@@PEAUtagVARIANT@@PEAUtagEXCEPINFO@@PEAI@Z (REF 0056: ?_tih@?$IDispatchImpl@UITCollection@@$1?IID_ITCollection@@3U_GUID@@B$1?LIBID_TAPI3Lib@@3U3@B$00$0A@VCComTypeInfoHolder@ATL@@@ATL@@1VCComTypeInfoHolder@2@A)
                  4. 36 029F 0064 0000:?Invoke@?$IDispatchImpl@UITPluggableTerminalSuperclassInfo@@$1?IID_ITPluggableTerminalSuperclassInfo@@3U_GUID@@B$1?LIBID_TAPI3Lib@@3U3@B$00$0A@VCComTypeInfoHolder@ATL@@@ATL@@UEAAJJAEBU_GUID@@KGPEAUtagDISPPARAMS@@PEAUtagVARIANT@@PEAUtagEXCEPINFO@@PEAI@Z (REF 0056: ?_tih@?$IDispatchImpl@UITPluggableTerminalSuperclassInfo@@$1?IID_ITPluggableTerminalSuperclassInfo@@3U_GUID@@B$1?LIBID_TAPI3Lib@@3U3@B$00$0A@VCComTypeInfoHolder@ATL@@@ATL@@1VCComTypeInfoHolder@2@A)
                  5. 36 029F 0064 0000:?Invoke@?$IDispatchImpl@UITPluggableTerminalClassInfo@@$1?IID_ITPluggableTerminalClassInfo@@3U_GUID@@B$1?LIBID_TAPI3Lib@@3U3@B$00$0A@VCComTypeInfoHolder@ATL@@@ATL@@UEAAJJAEBU_GUID@@KGPEAUtagDISPPARAMS@@PEAUtagVARIANT@@PEAUtagEXCEPINFO@@PEAI@Z (REF 0056: ?_tih@?$IDispatchImpl@UITPluggableTerminalClassInfo@@$1?IID_ITPluggableTerminalClassInfo@@3U_GUID@@B$1?LIBID_TAPI3Lib@@3U3@B$00$0A@VCComTypeInfoHolder@ATL@@@ATL@@1VCComTypeInfoHolder@2@A)
                8B84:
                  0. 29 60AE 0052 0000:NetpEventlogWriteEx2
            C248895C2470498BD848897C2478488BF9488D542420488BC841:
              0. 2F B073 00C0 0000:FDIIsCabinet
          8D44244044894C24404C894424484889442438488D05........4C:
            0. 22 5A46 004B 0000:DnssrvDeleteNode (REF 001B: ??_C@_0L@HELHKAJH@DeleteNode?$AA@)
            1. 22 5A46 004B 0000:DnssrvForceAging (REF 001B: ??_C@_0BB@NEEIKMFC@ForceAgingOnNode?$AA@)
          B9000000000000F07F:
            F20F11442460F20F10E8488B542460488BC2:
              0. 4C 82B4 0369 0000:log10
            F30F5AC80F28D0F20F114C2468488B542468:
              0. 38 639E 0228 0000:log10f
          BA000000000000F07FF20F11442460F20F10E0488B4C2460488BC1:
            0. 4C 3328 030F 0000:log
          C74424:
            20FEFFFFFF48895C245048896C2448488974244048897C24:
              0. 20 3B28 0148 0000:?Initialize@CBaseTerminal@@UEAAJU_GUID@@KW4TERMINAL_DIRECTION@@PEAJ@Z (l)0130:?dtor$0@?0??Initialize@CBaseTerminal@@UEAAJU_GUID@@KW4TERMINAL_DIRECTION@@PEAJ@Z@4HA
              1. 20 C4AA 00F8 0000:?ProcessGraphEvent@CMSPCallMultiGraph@@UEAAJPEAUITStream@@J_J1@Z (l)00E0:?dtor$0@?0??ProcessGraphEvent@CMSPCallMultiGraph@@UEAAJPEAUITStream@@J_J1@Z@4HA
            30FEFFFFFF48895C246048896C2468488974247048897C24:
              0. 19 D3E0 0138 0000:?Initialize@CTapiBstrCollection@@QEAAJKPEAPEAG0@Z (l)0120:?dtor$0@?0??Initialize@CTapiBstrCollection@@QEAAJKPEAPEAG0@Z@4HA
            38FEFFFFFF48895C246048896C2468488974247048897C24:
              0. 18 7243 0168 (!)0000:? (l!)0150:?
        498B:
          0048895C246048896C2468483D803801004C896C24484C897424:
            0. FF 40BC 0380 0000:?ShouldDrawSampleNow@CBaseVideoRenderer@@UEAAJPEAUIMediaSample@@PEA_J1@Z
          0148896C24684C89642450488BE94C89742440498BC94C897C24:
            0. 7A D142 022D 0000:?TryMediaTypes@CBasePin@@IEAAJPEAUIPin@@PEBVCMediaType@@PEAUIEnumMediaTypes@@@Z
          C048895C247048894C2430488BD948894C242089542428488D4C:
            0. 16 601C 0076 0000:_vsnprintf
        4C:
          63512048895C246048896C2468488974247033F6443B51244C8964:
            0. 66 ADB4 01D6 0000:NetpSrvNext (l)019D:$Cleanup$40459
          894C2430488D4424404C8BCA48894424284C894424204C8BC1B900:
            0. 0E 727D 0037 0000:DnssrvQueryZoneDwordProperty
          8B:
            0A48895C246048897424704C89742440418BF033DB493BD14C89:
              0. 4D 886B 01CF 0000:ArbpBuildAllocationStack
            15........48895C245048896C24484D85D2488974244048897C:
              0. 12 117F 00D2 0000:lineMakeCall (REF 0007: ?lpfn@?1??lineMakeCall@@9@9)
              1. 12 117F 00D2 0000:lineMakeCallW (REF 0007: ?lpfn@?1??lineMakeCallW@@9@9)
              2. 12 117F 00D2 0000:lineMakeCallA (REF 0007: ?lpfn@?1??lineMakeCallA@@9@9)
              3. 11 18A4 00CE 0000:lineDevSpecific (009C: C3) (REF 0007: ?lpfn@?1??lineDevSpecific@@9@9)
              4. 11 18A4 00CE 0000:lineAgentSpecific (009C: C3) (REF 0007: ?lpfn@?1??lineAgentSpecific@@9@9)
              5. 11 18A4 00D0 0000:lineTranslateDialog (009C: C4) (REF 0007: ?lpfn@?1??lineTranslateDialog@@9@9)
              6. 11 18A4 00D0 0000:lineTranslateDialogA (009C: C4) (REF 0007: ?lpfn@?1??lineTranslateDialogA@@9@9)
              7. 11 18A4 00D0 0000:lineTranslateDialogW (009C: C4) (REF 0007: ?lpfn@?1??lineTranslateDialogW@@9@9)
              8. 11 18A4 00D5 0000:phoneSetDisplay (009C: 5C)
              9. 11 6AF5 00D0 0000:lineGetDevCaps (009C: C4) (REF 0007: ?lpfn@?1??lineGetDevCaps@@9@9)
              10. 11 6AF5 00D0 0000:lineSetCallParams (009C: C4) (REF 0007: ?lpfn@?1??lineSetCallParams@@9@9)
              11. 11 6AF5 00D0 0000:lineGetAgentCapsW (009C: C4) (REF 0007: ?lpfn@?1??lineGetAgentCapsW@@9@9)
              12. 11 6AF5 00D0 0000:lineGetDevCapsA (009C: C4) (REF 0007: ?lpfn@?1??lineGetDevCapsA@@9@9)
              13. 11 6AF5 00D0 0000:lineGetDevCapsW (009C: C4) (REF 0007: ?lpfn@?1??lineGetDevCapsW@@9@9)
              14. 11 6AF5 00D0 0000:lineGenerateTone (009C: C4) (REF 0007: ?lpfn@?1??lineGenerateTone@@9@9)
              15. 11 6AF5 00D0 0000:lineGetAgentCapsA (009C: C4) (REF 0007: ?lpfn@?1??lineGetAgentCapsA@@9@9)
              16. 11 6AF5 00D7 0000:phoneGetDevCapsA (009C: 48) (REF 0007: ?lpfn@?1??phoneGetDevCapsA@@9@9)
              17. 11 6AF5 00D7 0000:phoneGetDevCapsW (009C: 48) (REF 0007: ?lpfn@?1??phoneGetDevCapsW@@9@9)
              18. 11 6AF5 00D7 0000:phoneGetDevCaps (009C: 48) (REF 0007: ?lpfn@?1??phoneGetDevCaps@@9@9)
              19. 11 6AF5 00D9 0000:lineProxyMessage (009C: 24)
              20. 11 6AF5 00DB 0000:lineNegotiateExtVersion (009C: 8B) (REF 0007: ?lpfn@?1??lineNegotiateExtVersion@@9@9)
              21. 11 6AF5 00DB 0000:lineGetAddressCapsA (009C: 8B) (REF 0007: ?lpfn@?1??lineGetAddressCapsA@@9@9)
              22. 11 6AF5 00DB 0000:lineGetAddressCapsW (009C: 8B) (REF 0007: ?lpfn@?1??lineGetAddressCapsW@@9@9)
              23. 11 6AF5 00DB 0000:lineGetAddressCaps (009C: 8B) (REF 0007: ?lpfn@?1??lineGetAddressCaps@@9@9)
              24. 11 6AF5 00DD 0000:lineGetIDW (009C: 40) (REF 0007: ?lpfn@?1??lineGetIDW@@9@9)
              25. 11 6AF5 00DD 0000:lineGetIDA (009C: 40) (REF 0007: ?lpfn@?1??lineGetIDA@@9@9)
              26. 11 6AF5 00DD 0000:lineGetID (009C: 40) (REF 0007: ?lpfn@?1??lineGetID@@9@9)
              27. 11 6AF5 00DD 0000:lineNegotiateAPIVersion (009C: 40) (REF 0007: ?lpfn@?1??lineNegotiateAPIVersion@@9@9)
              28. 11 6AF5 00E2 0000:phoneNegotiateExtVersion (009C: 38)
              29. 11 6AF5 00E4 0000:phoneNegotiateAPIVersion (009C: 7C)
              30. 13 7B44 00D4 0000:lineInitialize (00A0: C3)
              31. 13 7B44 00DB 0000:phoneInitialize (00A0: 5C)
              32. 11 86FF 00DD 0000:lineCreateAgentSessionA (REF 0007: ?lpfn@?1??lineCreateAgentSessionA@@9@9)
              33. 11 86FF 00DD 0000:lineCreateAgentSessionW (REF 0007: ?lpfn@?1??lineCreateAgentSessionW@@9@9)
              34. 12 B524 00DD 0000:lineSetAppPriority (00AA: C3) (REF 0007: ?lpfn@?1??lineSetAppPriority@@9@9)
              35. 12 B524 00DD 0000:lineSetAppPriorityW (00AA: C3) (REF 0007: ?lpfn@?1??lineSetAppPriorityW@@9@9)
              36. 12 B524 00DD 0000:lineSetAppPriorityA (00AA: C3) (REF 0007: ?lpfn@?1??lineSetAppPriorityA@@9@9)
              37. 12 B524 00DF 0000:lineGetAppPriorityW (00AA: C4) (REF 0007: ?lpfn@?1??lineGetAppPriorityW@@9@9)
              38. 12 B524 00DF 0000:lineGetAppPriority (00AA: C4) (REF 0007: ?lpfn@?1??lineGetAppPriority@@9@9)
              39. 12 B524 00DF 0000:lineGetAppPriorityA (00AA: C4) (REF 0007: ?lpfn@?1??lineGetAppPriorityA@@9@9)
              40. 12 BD02 00D0 0000:lineSetCallQualityOfService (REF 0007: ?lpfn@?1??lineSetCallQualityOfService@@9@9)
              41. 12 BD02 00D0 0000:lineGetAddressIDW (REF 0007: ?lpfn@?1??lineGetAddressIDW@@9@9)
              42. 12 BD02 00D0 0000:lineGetAddressID (REF 0007: ?lpfn@?1??lineGetAddressID@@9@9)
              43. 12 BD02 00D0 0000:lineGetAddressIDA (REF 0007: ?lpfn@?1??lineGetAddressIDA@@9@9)
              44. 12 D52F 00DD 0000:lineConfigDialogEditW (REF 0007: ?lpfn@?1??lineConfigDialogEditW@@9@9)
              45. 12 D52F 00DD 0000:lineConfigDialogEditA (REF 0007: ?lpfn@?1??lineConfigDialogEditA@@9@9)
              46. 12 D52F 00DD 0000:lineConfigDialogEdit (REF 0007: ?lpfn@?1??lineConfigDialogEdit@@9@9)
              47. 11 F4AE 00D0 0000:linePickup (009E: C3) (REF 0007: ?lpfn@?1??linePickup@@9@9)
              48. 11 F4AE 00D0 0000:linePickupW (009E: C3) (REF 0007: ?lpfn@?1??linePickupW@@9@9)
              49. 11 F4AE 00D0 0000:linePickupA (009E: C3) (REF 0007: ?lpfn@?1??linePickupA@@9@9)
              50. 11 F4AE 00DB 0000:lineSetupConference (009E: 24) (REF 0007: ?lpfn@?1??lineSetupConference@@9@9)
              51. 11 F4AE 00DB 0000:lineSetupConferenceA (009E: 24) (REF 0007: ?lpfn@?1??lineSetupConferenceA@@9@9)
              52. 11 F4AE 00DB 0000:lineSetupConferenceW (009E: 24) (REF 0007: ?lpfn@?1??lineSetupConferenceW@@9@9)
          8D4C24684C8D44243848895C2470BA3F00000048897C247848C744:
            0. 12 6F91 015C 0000:NetpSetNetlogonDomainCache
        4D85:
          C048896C2468488974247048897C2478498BF0488BEA488BF975:
            0. 35 6CE0 0130 0000:?SetProperties@CMemAllocator@@UEAAJPEAU_AllocatorProperties@@0@Z
          C9:
            4889:
              5C246048896C2468488974247048897C2478498BC0498B:
                0. 0F 7604 0129 0000:DnsPrint_RpcZone_W2K
              6C246848897424704C896424504C896C2448418B:
                E84C8B:
                  0. 25 901C 0218 0000:NetpGetConfigDword (l)010C:$ParseString$38540 (l)01E0:$GotValue$38545
                F04C8B:
                  0. 25 DA36 021D 0000:NetpGetConfigBool (l)0108:$ParseString$38543 (l)01E5:$GotValue$38548
            74744C8B9424880000004D85D274674C8B9C24900000004D85:
              0. 37 4ABF 0087 0000:ElfReadEventLogW (l)0061:$LN12
              1. 37 5F6C 0087 0000:ElfReadEventLogA (l)0061:$LN12
        660F57C94889742470B908000000660F7F742440F20F10F0F20F114C:
          0. 0F 2FD4 0146 0000:auxWireDodecahedron (00D2: 02)
          1. 0F 2FD4 0146 0000:auxSolidDodecahedron (00D2: 09)
        803D........0048895C24:
          5048896C2448488974244048897C243848:
            0. 10 93CE 00B0 0000:DDK_IoSetCompletionRoutine
          60488BD9750C32C0488B5C24604883C458:
            0. 09 206A 0147 0000:DDKExtPoolDeleteEntry
          7048897C2478488BF9488BDA743F833D:
            0. 00 0000 0077 0000:DDK_ExInterlockedPopEntryList
        83:
          3D........0048896C24684C896424504C8BE2488BE97411488D15:
            0. 00 0000 0319 0000:?EnumerateStaticTerminals@CMSPAddress@@UEAAJPEAPEAUIEnumTerminal@@@Z
          B99C0200000048897C24784C896424504C897424404D8BE0488BF9:
            0. 3F 797D 0193 0000:WriteCFDATABlock (l)0123:$error$2738
          F90348896C24484C896424304C8BA424800000004C896C242849C7:
            0. 37 7FA0 00D4 0000:Get32bitResDesFrom64bitResDes
          FA:
            0248895C245048896C2448488974244048897C24384C89642430:
              0. 46 5749 018C 0000:RxpConvertSessionInfo
            0A48895C246048896C2468488974247048897C2478498BD88BFA:
              0. 12 4D7D 01BC 0000:?MakeIdentityPalette@CImagePalette@@SAJPEAUtagPALETTEENTRY@@HPEAD@Z
        85D248895C245048896C244848897C24384C896C24284C897424204C:
          0. 5A 6981 00D8 0000:NetpConcatStrings
        8B:
          0248896C2448488974244083F80A4C896424304C896C2428498BE9:
            0. 92 70D7 00F5 0000:QDICreateDecompression
          411448895C24604C897424408BD08D04C5070000004C897C243883:
            0. 1A 7A34 0256 0000:NetpCopyFtinfoContext
          8424:
            8000000048896C2448488974244048897C24384C8964243041:
              0. 5B A619 0118 0000:?SetPositions@CSourceSeeking@@UEAAJPEA_JK0K@Z
            9000000089442440:
              488B84248800000048894424:
                38:
                  488B8424:
                    0. 1C C875 0051 0000:PNP_GetInterfaceDeviceAlias
                  8B842480:
                    0. 1A 9AB3 004F 0000:PNP_EnumerateSubKeys
                    1. 1A C292 004F 0000:PNP_DetectResourceConflict
                48488D4424:
                  0. 09 9685 004F 0000:DnssrvResetDwordPropertyEx
              8B84248800000089442438488B84248000:
                0. 1A BA82 004F 0000:PNP_SetDeviceRegProp (0014: C3)
            9800000089442448:
              488B8424900000004889442440:
                488B8424:
                  0. 29 8D4A 005E 0000:PNP_GetDeviceRegProp (0014: C3)
                  1. 29 EEA5 005E 0000:PNP_RegisterDeviceClassAssociation
                  2. 29 EEA5 005E (!)0000:?
                8B842488:
                  0. 25 B771 005A 0000:PNP_GetResDesDataSize
              8B84249000000089442440488B84248800:
                0. 25 00F4 005A 0000:PNP_QueryResConfList
        F20F1144246048:
          8B4C2460F20F114C24604C8B442460493BC87509F2:
            0. 67 D4F5 0209 0000:_nextafter
          B9FFFFFFFFFFFFFF7FF20F10C8488B442460488BD0:
            0. 36 25F2 013A 0000:_logb
        F30F:
          11442460:
            0F28C8:
              448B442460458BC84181E100000080453BC175:
                0. 5A CFEA 01E9 0000:_scalbf
              8B4C24608BC1C1E8170FB6D08BC10FBAF01F83:
                0. 27 7908 0105 0000:_logbf
            8B4C2460F30F114C24608B5424603BCA75080F28C148:
              0. 54 5B76 01D9 0000:_nextafterf
          5A:
            842488000000F30F5A8C249000000048894C24284489442420:
              0. 29 4709 0078 (l)0000:handle_errorf
            C848B8000000800ABF05400F28D0F20F114C2468488B542468:
              0. 09 97E1 023C 0000:logf
        F6020248895C247048897C2478488BF9488BDA751133C0488B7C2478:
          0. 19 30D5 00B8 0000:IopDevObjApplyPostCreationSettings
      68:
        0F:
          28E148B8FFFFFFFFFFFFFF7F0F28D8F30F5AC8F30F5AD3F30F5AC4:
            0. 89 A4ED 015F 0000:_hypotf
          57D20F28C8F30F11542470F30F11842480000000448B8424800000:
            0. 3D 7EF6 02C9 0000:acosf
        33C0:
          488D4C244033D2894424488944244C8944245089442454894424:
            0. 4C 373A 00A2 0000:ScHelperVerifyPkcsMessage
          89542450488BD148894424484889442440488944243848894424:
            0. 0C 38A6 0042 0000:RxPrintJobDel
            1. 0C 4E9F 0042 0000:RxPrintJobContinue
            2. 0C A1F8 0042 0000:RxNetFileClose
            3. 0C F583 0042 0000:RxPrintJobPause
        4183380048895C246048897C24484C896424404C896C24384C897424:
          0. 2E 992B 0180 0000:NetpMergeFtinfoHelper
        4533C0488D442440895424504889442438488D05........C7442430:
          0. 2E BE24 0057 0000:DnssrvSetupDefaultDirectoryPartitions
        48:
          85:
            C9488974245048897C24484C896424404C896C2438418BF84D8B:
              0. 68 631A 01A1 0000:DnsAddrArray_ContainsAddrEx
            D2:
              4889:
                5C24604889:
                  6C24584C896424404C89742430418BE94C8B:
                    0. 80 F635 015C 0000:DnsAddrArray_AppendArrayEx
                  7424504C89642440418BD9418BF04C8BE248:
                    0. 22 522E 0117 0000:CM_Get_Device_ID_List_ExA (l)00CF:$Clean0$55090
                6C245848897424504C896424404C896C2438498BE94C8B:
                  0. 5B 63E1 00E2 0000:?GetDestinationPosition@CBaseControlVideo@@UEAAJPEAJ000@Z (0012: 58)
                  1. 5B 63E1 00E2 0000:?GetSourcePosition@CBaseControlVideo@@UEAAJPEAJ000@Z (0012: 78)
              740666833A00750C4D85C0744B664183380074444C89442458:
                0. 29 6C2C 0069 0000:RxNetGroupAddUser
                1. 29 D730 0069 0000:RxNetGroupDelUser
          89:
            5C246048:
              89:
                6C2458:
                  48:
                    89742450:
                      48:
                        897C2448:
                          488B:
                            394C89642440:
                              0. 42 A03F 022C 0000:Dns_WriteGssTkeyToMessage (l)0206:$Exit$55563
                            F9488BF2B9B8:
                              0. 22 4C12 013E 0000:FolderInit
                          498BD9488BF2498B:
                            0. 05 1389 0089 0000:ScHelperVerifyCardAndCreds
                          4C89642440:
                            418BF1:
                              0. 0C 8F57 0098 0000:DDKExtVNonPaged
                            498BF0:
                              0. 10 F625 01ED 0000:??0COutputQueue@@QEAA@PEAUIPin@@PEAJHHJHJK_N@Z
                            4C896C:
                              0. 0F 18AA 0153 0000:??0CSourceStream@@QEAA@PEADPEAJPEAVCSource@@PEBG@Z (REF 0058: ??0CBaseOutputPin@@QEAA@PEADPEAVCBaseFilter@@PEAVCCritSec@@PEAJPEBG@Z)
                              1. 0F 18AA 0153 0000:??0CSourceStream@@QEAA@PEAGPEAJPEAVCSource@@PEBG@Z (REF 0058: ??0CBaseOutputPin@@QEAA@PEAGPEAVCBaseFilter@@PEAVCCritSec@@PEAJPEBG@Z)
                        8B:
                          E9488B0D........48897C:
                            0. 12 C248 00EC 0000:DnsPrint_DwordArray
                          F148897C244833C04C8974:
                            0. 40 4527 01A8 0000:_splitpath
                          F2:
                            33D2498BE84C8B05:
                              0. 00 0000 00E9 0000:DDKExtMsgBadIrpStack
                            488BE9498BD1418BC848:
                              0. 08 719F 00A8 0000:DnssrvResetZoneMastersEx
                      498BF1B93812000048897C2448:
                        0. 1A A009 0181 0000:CreateCab
                      8B:
                        EA33D2488BD948897C24484C:
                          0. 0A 6E3E 00CC 0000:DDKExtMsgPtrNull
                        F233D2498BE84C8B05:
                          0. 00 0000 017B 0000:DDKExtMsgMemPaged
                    8B:
                      AC2490000000:
                        488974245048897C2448:
                          0. 33 3482 0154 0000:CmRegUtilUcValueGetFullBuffer (l)0110:$Success$15583
                        498BD948897424506645:
                          0. 55 F0C5 0136 0000:Txt_RecordRead
                      E9:
                        0FB70A488974245048897C2448418B:
                          0. 08 319C 0097 0000:Dns_CreateForwardRecordFromSockaddr
                        4889742450488D0D........48897C:
                          0. 0D 2EE1 008B 0000:SQLInstallDriverExW (REF 0019: ??_C@_0BE@BBKCCJIC@SQLInstallDriverExW?$AA@)
                          1. 0D 2EE1 008B 0000:SQLInstallTranslatorExW (REF 0019: ??_C@_0BI@GOABJANF@SQLInstallTranslatorExW?$AA@)
                          2. 0D 2EE1 008B 0000:SQLInstallTranslatorEx (REF 0019: ??_C@_0BH@JPJJPGMA@SQLInstallTranslatorEx?$AA@)
                          3. 0D 2EE1 008B 0000:SQLInstallDriverEx (REF 0019: ??_C@_0BD@FGCNBKIM@SQLInstallDriverEx?$AA@)
                          4. 0C 5586 0096 0000:SQLInstallTranslator (REF 0019: ??_C@_0BF@MNODFPFH@SQLInstallTranslator?$AA@)
                          5. 0C 5586 0096 0000:SQLInstallTranslatorW (REF 0019: ??_C@_0BG@DIOMJL@SQLInstallTranslatorW?$AA@)
                          6. 0D A851 0098 0000:SQLGetTranslatorW (REF 0019: ??_C@_0BC@NCCGFFLC@SQLGetTranslatorW?$AA@)
                          7. 0D A851 0098 0000:SQLGetTranslator (REF 0019: ??_C@_0BB@NONPILHB@SQLGetTranslator?$AA@)
                          8. 0C CEE4 0089 0000:SQLConfigDriverW (REF 0019: ??_C@_0BB@JPDFOJKM@SQLConfigDriverW?$AA@)
                          9. 0C CEE4 0089 0000:SQLConfigDriver (REF 0019: ??_C@_0BA@HPACMNBB@SQLConfigDriver?$AA@)
                  4D85C04889742450488D1D........48897C:
                    0. 10 21FE 00CF 0000:DnsPrint_RpcIpArrayPlusParameters
                74245848897C2450:
                  498BF8488BDA8BF148C7442448:
                    0. 33 008A 00E9 0000:CM_Enumerate_Enumerators_ExW (l)0094:$LN15 (l)00AA:$Clean0$54766 (l)00AC:$LN11 (l)00D0:CM_Enumerate_Enumerators_ExW$filt$0 (l)00D9:$LN14 (l)00E3:$LN16
                  4C89642448418BF9498BF04C8B:
                    0. 41 D5C0 00D9 0000:CM_Get_Device_Interface_List_Size_ExW (l)0091:$LN14 (l)009C:$Clean0$55412 (l)009E:$LN10 (l)00C0:CM_Get_Device_Interface_List_Size_ExW$filt$0 (l)00C9:$LN13 (l)00D3:$LN15
                7C2458488B:
                  DA488BF9C64424300048C74424400000:
                    0. 41 FD62 00E9 0000:CMP_GetBlockedDriverInfo (l)00A6:$LN16 (l)00B1:$Clean0$54849 (l)00B3:$LN12 (l)00D0:CMP_GetBlockedDriverInfo$filt$0 (l)00D9:$LN15 (l)00E3:$LN17
                  FA48D1EA498BD948C744244000000000:
                    0. 53 1699 00A8 0000:StringCbPrintfExW
                    1. 53 18D3 00A8 0000:RtlStringCbPrintfExW
              8B9C249000000048896C2458488974245048897C2448:
                0. 0D 31F0 00F4 0000:DnsPrint_AddrInfoListEx
              8D05........48897C24584C8B10458BD98BFA4D3B10:
                0. B1 EA66 00D1 (!)0000:?
            6C24:
              58488974245033F641F7C1FEFFFF7F4C89642440488BEA4C:
                0. 3B C281 018C 0000:NetpwPathCompare
              78488BE94881C1A80000004889BC2488000000FF15:
                0. 00 0000 0190 0000:?Stop@CBaseRenderer@@UEAAJXZ
            9C248000000033DB391D........0F85D80000008D5302FF15:
              0. 00 0000 0104 0000:GrabStaticEntries
            B42480000000660F7F7C2440B91000000066440F7F442430F20F:
              0. 08 293A 01C3 0000:auxWireCylinder (019A: C3)
              1. 08 293A 01D0 0000:auxSolidCylinder (019A: 40)
          8B:
            0148895C246048896C2458488BAC249000000048897424504889:
              0. 31 5133 01F8 0000:?OnReceiveMessage@CBaseWindow@@UEAA_JPEAUHWND__@@I_K_J@Z
            05........48894424:
              40488B0148899C24880000004889742460:
                0. 14 CA5F 00A1 0000:?Save@CPersistStream@@UEAAJPEAUIStream@@H@Z
              4848895C2460488D442430498BD9488944:
                0. 1F 4CBF 0076 0000:CmRegUtilUcValueGetDword
              50:
                33C04885C948897C2460488944242048:
                  0. 1D 5AD1 009C 0000:DirectDrawCreateFromDevice
                48:
                  85C948899C2480000000488BD97406:
                    0. 35 1125 00B5 0000:NetpIsMacPrimaryGroupFieldValid
                  89:
                    7C2460488BFA33D24885C9498BC0:
                      0. 24 D827 00A4 0000:DirectDrawCreateFromDeviceEx
                    9C2488000000488BD948897C2460:
                      0. 0D 29A2 005E 0000:AaaaRecordPrint
            0D........4889BC2488000000E8........4885C0488BF80F84:
              0. 1E 9695 02A8 0000:tkSetGreyRamp
            15........41B900040000488D4C2430458BC1C7442420000000:
              0. 03 207E 0048 0000:DelayPaletteRealization
            493048895C246048896C2458488B0148897424504C896424404C:
              0. 21 A9C1 00B7 0000:?ConvertTimeFormat@CPosPassThru@@UEAAJPEA_JPEBU_GUID@@_J1@Z
              1. 21 C8A1 00B5 0000:?SetPositions@CPosPassThru@@UEAAJPEA_JK0K@Z
            8424:
              98000000C7442450000000004889442440488D4424504889:
                0. 13 E471 004E 0000:DnssrvQueryDwordPropertyEx
              B000000048894424508B8424A800000089442448488B8424:
                0. 32 EB65 0067 0000:PNP_RegisterNotification
            D1488D4C245048895C2478FF15........488D542450488D4C24:
              0. 0D 69F7 010B 0000:EVENTLOG_HANDLE_A_bind
          B9000000000000F07FF20F11442470F20F10E8488B542470488BC2:
            0. 57 1442 03A1 0000:log2
          BAFFFFFFFFFFFFFF7F:
            F20F11442470F20F10:
              E0488B4C2470488BC1:
                0. 94 9196 0397 0000:exp
              E8488B4C2470488BC1:
                0. 94 D657 0411 0000:_exp2
            F30F5AE0660F7F742450660F1235:
              0. 5A DDEC 027C 0000:atanf
        4C8B15........48895C246048896C24584D85D2488974245048897C:
          0. 11 0D83 00E6 0000:lineGatherDigits (00B4: C3) (REF 0007: ?lpfn@?1??lineGatherDigits@@9@9)
          1. 11 0D83 00E6 0000:lineGatherDigitsW (00B4: C3) (REF 0007: ?lpfn@?1??lineGatherDigitsW@@9@9)
          2. 11 0D83 00E6 0000:lineGatherDigitsA (00B4: C3) (REF 0007: ?lpfn@?1??lineGatherDigitsA@@9@9)
          3. 11 0D83 00ED 0000:phoneOpen (00B4: 5C)
          4. 11 93D8 00E6 0000:lineTranslateAddressW (00B4: C3) (REF 0007: ?lpfn@?1??lineTranslateAddressW@@9@9)
          5. 11 93D8 00E6 0000:lineTranslateAddressA (00B4: C3) (REF 0007: ?lpfn@?1??lineTranslateAddressA@@9@9)
          6. 11 93D8 00E6 0000:lineTranslateAddress (00B4: C3) (REF 0007: ?lpfn@?1??lineTranslateAddress@@9@9)
          7. 11 93D8 00E8 0000:lineForwardW (00B4: C4) (REF 0007: ?lpfn@?1??lineForwardW@@9@9)
          8. 11 93D8 00E8 0000:lineForwardA (00B4: C4) (REF 0007: ?lpfn@?1??lineForwardA@@9@9)
          9. 11 93D8 00E8 0000:lineForward (00B4: C4) (REF 0007: ?lpfn@?1??lineForward@@9@9)
          10. 11 E189 00E4 0000:lineSetTerminal
          11. 13 F495 00EE 0000:lineInitializeExA (00BA: C3) (REF 0007: ?lpfn@?1??lineInitializeExA@@9@9)
          12. 13 F495 00EE 0000:lineInitializeExW (00BA: C3) (REF 0007: ?lpfn@?1??lineInitializeExW@@9@9)
          13. 13 F495 00F5 0000:phoneInitializeExW (00BA: 5C) (REF 0007: ?lpfn@?1??phoneInitializeExW@@9@9)
          14. 13 F495 00F5 0000:phoneInitializeExA (00BA: 5C) (REF 0007: ?lpfn@?1??phoneInitializeExA@@9@9)
        4D85:
          C0488974245048897C24484C89642440418BF1488BC2488BF948:
            0. 28 E651 012E 0000:CM_Get_Device_Interface_List_ExA (l)00E6:$Clean0$56130
          C948895C246048896C245848897C24484C896424404C896C2438:
            0. 58 399F 00FC 0000:NetpwPathCanonicalize
        660F:
          1215........48BAFFFFFFFFFFFFFF7FF30F5AE00F28C8F20F11:
            0. 2A 6E93 037E 0000:coshf
          57:
            C04889BC2488000000660F7F742450660F2FC1660F7F7C2440:
              0. 0C EEC2 01EC 0000:_yn
            C948B8000000000000008049B9FFFFFFFFFFFFFF7FF20F114C:
              0. 72 5F26 0334 0000:acos
        803D........0048895C246048896C2458488974245048897C244848:
          0. 0F 2636 00C0 0000:DDK_IoSetCompletionRoutineEx
          1. 0F 8C99 00C5 0000:DDK_ExInitializePagedLookasideList (REF 002F: ?testControl@?1??DDK_ExInitializePagedLookasideList@@9@4KA)
          2. 0F 8C99 00C5 0000:DDK_ExInitializeNPagedLookasideList (REF 002F: ?testControl@?1??DDK_ExInitializeNPagedLookasideList@@9@4KA)
        83:
          3D........00:
            660F7F742450F20F10F1F20F58F20F85020100004C:
              0. 02 97F8 0148 0000:_handle_qnan2
            756B488D15........488D4C2450C74424400C0000:
              0. 15 3F2D 007F 0000:SapLibInit
          7928014889:
            9C2480000000488BD9750D488B8990000000FF15:
              0. 00 0000 00CB 0000:?BeginFlush@CBaseRenderer@@UEAAJXZ
            BC2488000000488BF90F84DB000000488B4910FF15:
              0. 00 0000 012D 0000:?ActivateWindow@CBaseWindow@@UEAAJXZ
          FA07750EBA010000004883C468E9........4533C9488D4424404C:
            0. 0C 6585 0067 0000:DnssrvEnlistDirectoryPartition
        85D24D8BC84C8BC10F84910000004D85C9750AB8034000804883C468:
          0. 7F B5D9 00AA 0000:?GetProperties@CMediaSample@@UEAAJKPEAE@Z
        8B8424:
          B000000089442450:
            488B8424A80000004889442448488B8424:
              0. 32 8430 0067 (!)0000:?
            8B8424A800000089442448488B8424A000:
              0. 34 4122 0069 0000:PNP_HwProfFlags
              1. 30 4F4C 0065 0000:PNP_GetResDesData
              2. 32 DB2D 0067 0000:PNP_AddResDes
          B8000000894424588B8424B000000089442450488B8424A800:
            0. 3B 73F6 0070 0000:PNP_ModifyResDes
        F30F114424700F28E08B4C24708BC10FBAF01F3D1872B1420F821001:
          0. 33 1E27 02E9 0000:expf
      78:
        0F:
          57C9660F7F7424600F28F0F30F118C2480000000F30F1184249000:
            0. 46 C3A1 02F7 0000:asinf
          B701488974246048897C245883F8024C896424504C896C24484C89:
            0. 0F 73AA 017F 0000:Dns_CreatePtrRecordEx
        4533:
          D2B81000000044399424B0000000440F45D0488B8424D0000000:
            0. 5D D9A8 0086 0000:DnssrvCreateZoneInDirectoryPartition
          DBB81000000044399C24B00000004C895C246844895C2460458B:
            0. 59 E4D4 0082 0000:DnssrvCreateZone
        48:
          85:
            C948895C247048896C24684889742460498BE8488BDA498BF10F:
              0. 1D 36BD 0159 0000:CM_Get_Device_Interface_Alias_ExA (l)0111:$Clean0$56088
            D248897424604C897424404C897C2438488BF2448BF1458BF975:
              0. 83 C9BF 061B 0000:NetpConvertServerInfo (l)00BC:$LN34 (l)00DE:$LN24 (l)013E:$LN21 (l)0186:$LN20 (l)01BD:$LN19 (l)0211:$LN18 (l)042C:$LN11 (l)047F:$LN7 (l)04D6:$Done$7282 (l)0516:$LN2 (l)051D:$LN27
          89:
            5C24704889:
              6C2468:
                4889:
                  742460:
                    33DB4D85C948897C2458498BE9:
                      0. 0B C7A0 010F 0000:DnsPrint_RpcDpEnum
                    4533DB4C8964245041C6000066:
                      0. 03 0509 014E 0000:LUI_GetMsgIns
                    48897C2458:
                      488BF90FB709440F:
                        0. 31 3CA6 00FA 0000:NetpParmsSetUserPropertyWithLength
                      498B:
                        D8488BF2498B:
                          0. 05 5782 012F 0000:DnsPrint_NodeList (l)0101:$Unlock$55767
                        D9498BE84C89:
                          0. 0A AFE2 0102 0000:DnsPrint_Node (l)00E0:$Unlock$54059
                      4C89642450:
                        33FF48:
                          0. 1A 3EFC 0161 0000:?GetIDsOfNames@CBaseDispatch@@QEAAJAEBU_GUID@@PEAPEAGIKPEAJ@Z
                        4C8BA4:
                          0. 08 A7F1 00FD 0000:DnsPrint_SocketAddress
                          1. 72 DBF1 00FC 0000:LCICreateCompression
                      4D85C0488D3D:
                        0. 00 0000 011F 0000:DnsPrint_WsaNsClassInfo
                    8B:
                      B424A00000004C896424504C:
                        0. 35 1A84 0294 0000:NetpwNameCanonicalize (l)00B1:$LN35 (l)00CE:$LN32 (l)00EB:$LN29 (l)0108:$LN26 (l)0115:$LN25 (l)0132:$LN22 (l)0149:$LN19 (l)0155:$LN18 (l)016C:$LN15 (l)017F:$LN12 (l)0186:$LN11 (l)0192:$LN10 (l)019E:$LN9
                      F2:
                        33D2498BE84C8B05:
                          0. 00 0000 0109 0000:DDKExtMsgInvalid
                        48897C245833D24C896424:
                          0. 07 C60D 0185 0000:DDKExtMsgInconsistentUse
                  7C24584C896424504C8BE1488B0D:
                    0. 00 0000 0103 0000:DnsPrint_Ip4AddressArray
                498BD84889742460488BF2488BE9488D5424:
                  0. 15 832A 00AE 0000:NetpManageMachineAccount
                8BEA488BD1488974246033C948897C245841:
                  0. 07 9A0F 00AE 0000:NetpWriteEventlog (l)008A:$Cleanup$25784
              74246848:
                897C24604C89642458498BD9498BF8488B:
                  0. 63 E1CF 0119 0000:CM_Get_Device_Interface_Alias_ExW (l)00C6:$LN15 (l)00DC:$Clean0$55359 (l)00DE:$LN11 (l)0100:CM_Get_Device_Interface_Alias_ExW$filt$0 (l)0109:$LN14 (l)0113:$LN16
                8D442430418BD948897C2460498BF84C8B:
                  0. 17 D019 0151 0000:ScHelperCreateCredHMAC (l)012B:$ErrorExit$48660
            6C2468:
              33ED4D85C94C89742440448D7501896C2420751A8D4D0D:
                0. 02 ABB7 0318 0000:Wks_RecordRead
              488974246048897C24584C89642450448BE2488BD133C9:
                0. 08 B803 00C2 0000:NetpWriteEventlogEx (l)0099:$Cleanup$25390
              8BAC24B000000048897C24584C89642450448BA424A800:
                0. 2A 47E8 0147 0000:Dns_CreatePtrTypeRecord
            AC249800000033ED392D........48896C244048896C2438751D:
              0. 03 29E1 0195 0000:DnscmdWmi_ProcessDnssrvQuery (l)013B:$Done$72551 (l)0159:$Done$70962
          8B05........48894424:
            404889AC2498000000488BEA488D15:
              0. 00 0000 018F 0000:NetpLogonCreateRandomMailslot
            4848895C247048896C2468488BAC24A000:
              0. DA C183 01C5 0000:make_tree (l)0035:$REDO_TREE$1850
            58:
              448BCA4C8BC148899C2490000000488D:
                0. 22 6250 011D 0000:Dns_RecordTypeForNameW
              48895C24704889742468488BF1488D4C:
                0. 0E A729 0097 0000:CmRegUtilWstrValueGetDword
            68:
              4585C048897C2470488BC2488BF9744A:
                0. 29 4559 00BA 0000:Dns_Ip6StringToAddressEx_A
              4889BC2498000000488BFA4C8D442440:
                0. 11 9E10 010A 0000:NetpGetDefaultLcidOnMachine
          B8FFFFFFFFFFFFFF7F:
            F20F11842488000000660F7F7424604C8B84:
              0. 4D 2AF3 0419 0000:cos
            F30F5AD80F28C8F20F119C2490000000488B:
              0. 4A DE88 0470 0000:cosf
          B9FFFFFFFFFFFFFF7FF20F11842480000000660F7F7424604C8B84:
            0. 09 6FEA 02B8 0000:atan
          BAFFFFFFFFFFFFFF7FF30F5AE0660F7F742460F20F11A424880000:
            0. 39 C685 0402 0000:sinhf
          C7442428FEFFFFFF48895C247048896C2468488974246048897C24:
            0. 19 3D6B 0258 0000:?Init@CMSPStream@@UEAAJPEAXPEAVCMSPCallBase@@PEAUIMediaEvent@@KW4TERMINAL_DIRECTION@@@Z (l)0240:?dtor$0@?0??Init@CMSPStream@@UEAAJPEAXPEAVCMSPCallBase@@PEAUIMediaEvent@@KW4TERMINAL_DIRECTION@@@Z@4HA
            1. 16 8930 0348 0000:?ConnectTerminal@CBaseTerminal@@UEAAJPEAUIGraphBuilder@@KPEAKPEAPEAUIPin@@@Z (l)029F:$disconnect_terminal$79832 (l)0330:?dtor$0@?0??ConnectTerminal@CBaseTerminal@@UEAAJPEAUIGraphBuilder@@KPEAKPEAPEAUIPin@@@Z@4HA
        4C8B15........48895C247048896C24684D85D2488974246048897C:
          0. 13 7B63 0117 0000:tapiRequestMediaCallW (REF 0007: ?lpfn@?1??tapiRequestMediaCallW@@9@9)
          1. 13 7B63 0117 0000:tapiRequestMediaCallA (REF 0007: ?lpfn@?1??tapiRequestMediaCallA@@9@9)
          2. 13 7B63 0117 0000:tapiRequestMediaCall (REF 0007: ?lpfn@?1??tapiRequestMediaCall@@9@9)
          3. 11 8522 00FE 0000:lineOpenA (REF 0007: ?lpfn@?1??lineOpenA@@9@9)
          4. 11 8522 00FE 0000:lineOpenW (REF 0007: ?lpfn@?1??lineOpenW@@9@9)
          5. 11 8522 00FE 0000:lineOpen (REF 0007: ?lpfn@?1??lineOpen@@9@9)
        4D85:
          C048895C247048896C246848897424604C896C2448418BD94D8B:
            0. 0F D03F 0270 0000:Dns_StringCopy (l)023B:$Failed$51952
          C948899C24900000004C8BD9498BD9740741C701FFFFFFFF4D85:
            0. 49 4227 00FE 0000:RxNetUseAdd
        80FA0948895C247048897C2468498BF94C8BD17620B00433DB84C041:
          0. 6E DC70 00BF 0000:ScsiPortWmiDispatchFunction
        81394D43494348895C247048896C246848897C2458498BE9488BD941:
          0. 59 2254 00E7 0000:MCICompress
        833D........00660F7F742460F20F10F10F8506010000660F57C04C:
          0. 02 97F8 0148 0000:_handle_qnan1
        85D2740CFFCA7408FFCA7404FFCA740AB87C0000004883C478C34489:
          0. 15 74EF 0070 0000:RxPrintDestAdd
    F9FF7426534883EC20488BD9488BD133C9FF15........4885DB7409488B:
      0. 03 1C5D 002F 0000:PnPRestorePrivileges
  85:
    C9:
      0F84:
        8B0000004883EC28488B05........48894424108B510485D27466:
          0. 6C 169D 0097 0000:Ip6Array_Reverse
        AF000000534883EC20488BD9488B49104885C97405E8........48:
          0. 09 96C6 00BB 0000:DnssrvFreeServerInfo
      448B:
        C2488BC174:
          1B8B1033C985D274134883C004443B00740DFFC14883:
            0. 0F 7B87 002F 0000:Dns_IsAddressInIpArray
          238B500433C985D2741A4883C020668338027506443B:
            0. 17 8254 0037 0000:DnsAddrArray_ContainsIp4
        CA750333C0C385D274100FB7410C6685C0740B0FB7C03BC275E98B:
          0. 28 82D7 0048 0000:DnsAddrArray_GetFamilyCount
      48897C24204C8BDA488BF90F84AD0000004885D20F84A4000000483BCA:
        0. A9 F974 00C9 0000:Ip6Array_IsIntersection
      4C8B:
        C14C8BDA4C0F4405........450FB708664585C9743F440FB71290:
          0. 8E 3F98 00D8 0000:wcstok
        C274244885D2741F4C2BC10FB711420FB704012BD075084883C102:
          0. 15 573F 0035 0000:CompareCredKeys
        C9488BC2780549F7E1EB0648F7D948F7E1410FB6C848D3EA4D85C9:
          0. 09 614A 0029 0000:RtlExtendedMagicDivide
        D2:
          488BD1750941F7C000010100755D440FB70941F6C101754D0FB7:
            0. 54 8F66 0074 0000:RtlUnicodeStringValidateWorker
          4C8BC974514585C0744333C941394904763B6666669066666690:
            0. 63 8ADA 0083 0000:Ip6Array_AddIp
        DA4C8BD17447458B4A0433C94585C9743C66666690666690666690:
          0. 3B 40CF 005B 0000:Ip6Array_ContainsIp
      4D8BD04C8BDA750941F7C100010100751366C701000066C74102000048:
        0. 7E ECFF 009E 0000:RtlUnicodeStringInitWorker
      74:
        05488B4108C333C0C3:
          0. 00 0000 000D 0000:Dns_GetApiContextCredentials
        094883C108E9........33C9E9:
          0. 00 0000 0015 (!)0000:?
        0B095114488B094885C975F5C20000:
          0. 00 0000 0013 0000:Dns_RecordListFlagSet
        1B:
          668339007415488B41084885C0740C668338007406B801000000C3:
            0. 03 3B91 0023 0000:IsNonEmptyUnicodeStr
          8139231400007513488D41204889028B4104418900B801000000C3:
            0. 03 3B91 0023 0000:GetCircularHashValue
        1C534883EC20488BD9FF15........488BCBFF15........4883C420:
          0. 04 FF56 0024 0000:NetpCloseDebugFile
        1E534883EC20488BD9488B09E8........488B4B10E8........4883:
          0. 06 E02A 0026 0000:NetpFreeAuthIdentForCreds
        20534883EC20666690666690488B19E8........4885DB488BCB75F0:
          0. 08 2238 0028 0000:Dns_RecordListFree
        23:
          534883EC20488BD9488B49084885C97405E8........488BCBE8:
            0. 00 0000 002B 0000:DnssrvFreeDirectoryPartitionEnum
          6683791204751C488B4918488B014885C074104883C1083B10740B:
            0. 11 7C10 0031 0000:Hostent_IsIp4AddressInHostent
        24534883EC20488BD9488B4908BA01000000E8........488BCBFF15:
          0. 00 0000 002C 0000:NetpSrvClose
        2A534883EC20488BD9C7411000000000488B49084885C97405E8:
          0. 00 0000 0032 0000:FreeConfListHandle
        31534883EC20488BD9488B49084885C97405E8........488B4B2048:
          0. 05 8B57 0039 0000:DnssrvFreeZone
        35534883EC2083790C00488BD97414488B4910E8........4533DB4C:
          0. 11 D093 003D 0000:HostentBlob_Free
        37534883EC20488BD9488B49104885C9740ABA01000000E8:
          0. 0B 55CF 003F 0000:DnssrvFreeNode
        3A8B1185D274344533D2FFCA4863C2742A4C8D4481044C8D49046690:
          0. 22 07BF 0042 0000:Dns_ReverseOrderOfIpArray
        3C534883EC20817920AAAAAAAA488BD97526837918007409488B09FF:
          0. 01 54B7 0044 0000:Dns_HeapCleanup
        3E534883EC20488BD9488B094885C97405E8........488B4B:
          084885:
            0. 04 23C8 0046 0000:Dns_FreeCredentials
          204885:
            0. 04 23C8 0046 0000:Dns_FreeAuthIdentityCredentials
        4C534883EC2083794800488BD97419488B4950FF15........C74348:
          0. 28 5DAD 0054 0000:?DeleteMediaType@@YAXPEAU_AMMediaType@@@Z
        60534883EC20488BD9488B4970FF15........488B4B784885C97405:
          0. 01 3E9B 0068 0000:RawImageClose
        6F534883EC20488BD9488B49084885C97405E8........488B4B3048:
          0. 05 8B57 0077 0000:DnssrvFreeZoneInfo
        73534883EC20488BD9488B49584885C97405E8........488B4B6048:
          0. 05 8B57 007B 0000:Dns_FreeSecurityContext
      75:
        0333C0C3:
          488D51048B09E9:
            0. 00 0000 0013 (l)0000:?createSafeArrayForIpArray@@YAPEAUtagSAFEARRAY@@PEAU_IP4_ARRAY@@@Z
          8B:
            01488D048504000000C3:
              0. 00 0000 0013 0000:Dns_SizeofIpArray
            41:
              0448C1E0:
                044883C008C3:
                  0. 00 0000 0014 0000:Ip6Array_Sizeof
                064883C020C3:
                  0. 00 0000 0014 0000:DnsAddrArray_Sizeof
              10488D444120C3:
                0. 00 0000 0011 0000:GetCardName
              14488D444120C3:
                0. 00 0000 0011 0000:GetReaderName
              18488D444120C3:
                0. 00 0000 0011 0000:GetContainerName
              1C488D444120C3:
                0. 00 0000 0011 0000:GetCSPName
          C70123140000C74104000100004489490889510CC7411000:
            0. 0D E4FA 002D 0000:InitCircularHash
        06B803400080C3488B4138488D15........483BC27506B8FFFF0080:
          0. 04 072E 002F 0000:MMCPropPageCallback
        08488D05........C30FB701663D0200750A8B490448FF25:
          0. 0B 5BFB 0032 0000:DnsAddr_Ntoa
        09488D0D........33D241B901000000458D4101E9:
          0. 00 0000 001D 0000:utf8ToUnicode
      790348F7D9488BC1C3:
        0. 00 0000 000C 0000:_abs64
      B8FFFFFFFF74166666906666908B5118488B093BD00F42C24885C975F0:
        0. 03 EE79 0023 0000:Dns_RecordListGetMinimumTtl
    D2:
      48:
        89114C89411074084D85C0740333C0C3B8FFFFFFFFC3:
          0. 00 0000 001A 0000:NFMcompress_init
        8B:
          C1741E4885C97504488BC2C3488339007409488B004883380075F7:
            0. 09 168C 0029 0000:Dns_RecordListAppend
          C274:
            1048FFC8803900740B48FFC14885C075F048FFC8482BD0488D:
              0. 03 557E 0023 0000:__strncnt
            1A666666906666669048FFC866833900740C4883C1024885C0:
              0. 0D 701E 002D 0000:__wcsncnt
      4C8B:
        C17506B803400080C3488B411049B9FFFFFFFFFFFFFF7F48890248:
          0. 57 65B8 0077 0000:?GetInfo@CBaseStreamControl@@UEAAJPEAU__MIDL___MIDL_itf_strmif_0160_0002@@@Z
        D1488BC141B80100000074:
          3F4C8D493F0FB60A84C9743766666690:
            0. 3A 859D 005A 0000:Dns_CopyNameLabelA (l)0053:$Done$52529
          4B4C8D497E0FB70A6685C97442666690:
            0. 48 E5CF 0068 0000:Dns_CopyNameLabelW (l)005F:$Done$52546
        D24C8BC974:
          684533DB488BC2418BCB488B00FFC14885C075F6498B:
            0. 59 A6EC 0079 0000:?MoveToTail@CBaseList@@QEAAHPEAU__POSITION@@PEAV1@@Z
          6B4533DB488BC2418BCB488B4008FFC14885C075F549:
            0. 5C F6AC 007C 0000:?MoveToHead@CBaseList@@QEAAHPEAU__POSITION@@PEAV1@@Z
      4D8BD94C8BD27506B803400080C333C04D85C0488D15........741F4D:
        0. 4F 9EB5 006F 0000:?ConvertTimeFormat@CSourceSeeking@@UEAAJPEA_JPEBU_GUID@@_J1@Z
      74:
        07488B41284889024D85C07407488B413049890033C0C3:
