0F:
  B7:
    41:
      5C0FB7495AC1E0100BC1C3:
        0. 00 0000 000E 0000:?GetBorders@CGXBDropEdit@@QBEKXZ
      600FB7495EC1E0100BC1C3:
        0. 00 0000 000E 0000:?GetBorders@CGXBDropEdit@@QBEKXZ
    4424:
      04:
        50E8........C20400:
          0. 00 0000 000E 0000:?CreateFromResource@CGXGridParam@@SGPAV1@I@Z (REF 0007: ?CreateFromResource@CGXGridParam@@SGPAV1@PBD@Z)
          1. 00 0000 000E 0000:?SetBitmap@CGXBDropEdit@@QAEHI@Z (REF 0007: ?SetBitmap@CGXBDropEdit@@QAEHPBD@Z)
        56506A028BF150E8........50FF15........508BCEE8:
          0. 04 C85F 0024 0000:?LoadBitmapW@CBitmap@@QAEHI@Z (REF 000D: ?AfxFindResourceHandle@@YGPAUHINSTANCE__@@PBG0@Z)
          1. 04 C85F 0024 0000:?LoadBitmapA@CBitmap@@QAEHI@Z (REF 000D: ?AfxFindResourceHandle@@YGPAUHINSTANCE__@@PBD0@Z)
      080FB74C2404C1E00CC1E9040BC1C20800:
        0. 00 0000 0015 0000:?HashKey@CMapNdxToOb@@QBEIVGXNDX@@@Z
      0C500FB744240C500FB744240C50E8........C20C00:
        0. 00 0000 001A 0000:?LoadBitmaps@CGXBitmapButtonChild@@QAEHIII@Z
    4C240433C083E923741883E903741383E919740E4949740A83E90B740583:
      0. 0A 78B1 002A 0000:?IsMaskChar@CGXMaskData@@UBEHG@Z
  BE4C240433C083E923741883E903741383E919740E4949740A83E90B740583:
    0. 0A 78B1 002A 0000:?IsMaskChar@CGXMaskData@@UBEHD@Z
32C0C20400:
  0. 00 0000 0005 0000:?GetTimeSeparatorFromWinIni@CGXOleDateTimeImp@@UAEDH@Z
33:
  C0:
    39:
      41:
        080F94C0C3:
          0. 00 0000 0009 0000:?IsEmpty@CGXUserAttributeMap@@QBEHXZ
        0C0F94C0C3:
          0. 00 0000 0009 0000:?IsEmptyMask@CGXMaskData@@UBEHXZ
        1874158B510C3B542404750C8B49103B4C240875036A0158C20800:
          0. 00 0000 001F 0000:?IsInit@CGXControl@@QBEHKK@Z
        247505394128740B8941248941288B01FF6020C3:
          0. 00 0000 0018 0000:?OnGridCancelMode@CGXButton@@UAEXXZ
        3C741C837C240428751550508B414468B8070000FF701CFF15:
          0. 00 0000 002B 0000:?OnSysKeyUp@CGXComboListBox@@IAEXIII@Z
        4074:
          0839413474036A0158C3:
            0. 00 0000 0010 0000:?IsActive@CGXWndWrapper@@UAEHXZ
          1C837C240428751550508B414868B8070000FF7020FF15:
            0. 00 0000 002B 0000:?OnSysKeyUp@CGXComboListBox@@IAEXIII@Z
        44741C837C240428751550508B414C68AD070000FF701CFF15:
          0. 00 0000 002B 0000:?OnSysKeyUp@CGXCheckListComboLBox@@IAEXIII@Z
        48741C837C240428751550508B415068AD070000FF7020FF15:
          0. 00 0000 002B 0000:?OnSysKeyUp@CGXCheckListComboLBox@@IAEXIII@Z
        500F95C0C20400:
          0. 00 0000 000B (?)0000:?OnTrackRowHeight@CGXGridCore@@MAEHK@Z
        7C0F94C089417CC3:
          0. 00 0000 000C 0000:?ToggleOverstrikeMode@CGXBCurrencyEdit@@MAEXXZ
      442404:
        0F95C08941:
          7433C0C20800:
            0. 00 0000 0011 0000:?OnSetRedraw@CGXBCurrencyEdit@@IAEJIJ@Z
          7833C0C20800:
            0. 00 0000 0011 0000:?OnSetRedraw@CGXBCurrencyEdit@@IAEJIJ@Z
        740B3981:
          60FFFFFF74036A0158894134C20400:
            0. 00 0000 0019 0000:?SetActive@CGXCurrencyEdit@@UAEXH@Z
          64FFFFFF74036A0158894134C20400:
            0. 00 0000 0019 0000:?SetActive@CGXCurrencyEdit@@UAEXH@Z
        751A838904060000FF838900060000FF89817806000089817406:
          0. 08 A467 0028 0000:?DoShowWindow@CGXGridCore@@MAEHHI@Z
      81:
        C002000074068B81BC020000C3:
          0. 00 0000 0011 0000:?GetTextColor@CGXFontPage@@QAEKXZ
        E40000000F95C0C3:
          0. 00 0000 000C 0000:?GetDroppedState@CGXComboBox@@UAEHXZ
        E8:
          0000000F95C0C3:
            0. 00 0000 000C 0000:?GetDroppedState@CGXComboBox@@UAEHXZ
          02000074068B81E4020000C3:
            0. 00 0000 0011 0000:?GetTextColor@CGXFontPage@@QAEKXZ
        F4040000740839810805000074083981:
          5402000075098B81B0040000:
            0. 04 71E1 0024 0000:?GetFrozenRows@CGXGridCore@@UAEKXZ
          5802000075098B81B0040000:
            0. 04 D148 0024 0000:?GetFrozenCols@CGXGridCore@@UAEKXZ
    5050506800080000E8........50B9........E8........C3:
      0. 00 0000 001B 0000:?RegisterClassW@CGXGridCombo@@SGXXZ (REF 000B: ?AfxRegisterWndClass@@YGPBGIPAUHICON__@@PAUHBRUSH__@@0@Z)
      1. 00 0000 001B 0000:?RegisterClassA@CGXGridCombo@@SGXXZ (REF 000B: ?AfxRegisterWndClass@@YGPBDIPAUHICON__@@PAUHBRUSH__@@0@Z)
    568B74240850FF7424188B1181CE00000040FF742418FF742418565050FF:
      0. 06 0DEC 0026 0000:?CreateGrid@CGXGridHandleWnd@@QAEHKABUtagRECT@@PAVCWnd@@I@Z
      1. 06 2DB6 0026 0000:?CreateGrid@CGXGridHandleWnd@@QAEHKABUtagRECT@@PAVCWnd@@I@Z
    6681790811200F94C0C3:
      0. 00 0000 000C 0000:?CanCopyCanCutHelper@CGXGenericViewerImpl@@UAEHXZ
    83:
      79:
        54010F94C0C3:
          0. 00 0000 000A 0000:?IsOnFirstRecord@CGXRecordInfoBeam@@UAEHXZ
        58010F94C0C3:
          0. 00 0000 000A 0000:?IsOnFirstRecord@CGXRecordInfoBeam@@UAEHXZ
      7C24040B0F94C0C20400:
        0. 00 0000 000D 0000:?CanHandleFieldAsBinary@CGXDaoGrid@@UBEHH@Z
    8B5424045081CA00000040FF742414FF742414FF742414525050E8:
      0. 00 0000 0024 0000:?Create@CGXGridWnd@@QAEHKABUtagRECT@@PAVCWnd@@I@Z
    B9........8B5424043B11740F83C1044081F9........7CEC83C8FFC204:
      0. 01 78F0 0021 0000:?GXFindColor@@YGHK@Z
    C2:
      0400:
        0. 00 0000 0005 (?)0000:?SetAdvancedUndo@CGXData@@UAEHH@Z
      0800:
        0. 00 0000 0005 (?)0000:?OnCanActivate@CGXView@@IAEJIJ@Z
      0C00:
        0. 00 0000 0005 (?)0000:?UndoAdvanced@CGXData@@UAEHPAVCObject@@HH@Z
      1000:
        0. 00 0000 0005 (?)0000:?CanFloatCell@CGXVScrollEdit@@UAEHKKABVCGXStyle@@H@Z
      1400:
        0. 00 0000 0005 (?)0000:?OnMButtonClickedRowCol@CGXGridCore@@MAEHKKIVCPoint@@@Z
  C9394C24087E138B442404803808740D4183C0183B4C24087CF133C0C36A01:
    0. 02 E7E6 0022 0000:?_gx_calls_functions@@YAHPAUgxExprNode@@H@Z
  D2395424087E298B4C24048B0125FF00000083F803741C83F804741783F806:
    0. 18 2B36 0038 0000:?_gx_references_cells@@YAHPAUgxExprNode@@H@Z
394C2404:
  74058B01FF50:
    58C20400:
      0. 00 0000 000E 0000:?OnKillFocus@CGXBPopupCalculator@@IAEXPAVCWnd@@@Z
    60C20400:
      0. 00 0000 000E 0000:?OnKillFocus@CGXBPopupCalculator@@IAEXPAVCWnd@@@Z
  750B8379:
    700075056A0158EB05E8........C20C00:
      0. 00 0000 0019 0000:?OnSetCursor@CGXTabWnd@@IAEHPAVCWnd@@II@Z
    740075056A0158EB05E8........C20C00:
      0. 00 0000 0019 0000:?OnSetCursor@CGXTabWnd@@IAEHPAVCWnd@@II@Z
51:
  5153:
    5556:
      33DB5753BD........68........555351894C2424E8........8B:
        0. 24 3261 00ED 0000:?HandleOnNewWindow@CGXMDIFrameAdapter@@UAEXXZ
        1. 24 F24F 00ED 0000:?HandleOnNewWindow@CGXMDIFrameAdapter@@UAEXXZ
      8BF133ED578B46348B3D........3BC5740350FFD78B46383BC574:
        0. 05 2BB8 0112 0000:?LoadBitmapA@CGXCheckBox@@UAEHXZ (REF 0044: ?AfxFindResourceHandle@@YGPAUHINSTANCE__@@PBD0@Z)
        1. 05 2BB8 0112 0000:?LoadBitmapW@CGXCheckBox@@UAEHXZ (REF 0044: ?AfxFindResourceHandle@@YGPAUHINSTANCE__@@PBG0@Z)
    568BF1578B3D........8B463485C0740350FFD78B463885C0740350FF:
      0. 02 3276 0114 0000:?LoadBitmapA@CGXCheckBox@@UAEHXZ (REF 0048: ?GXLoadResourceBitmap@@YGPAXPAUHINSTANCE__@@PBD@Z)
      1. 02 3276 0114 0000:?LoadBitmapW@CGXCheckBox@@UAEHXZ (REF 0048: ?GXLoadResourceBitmap@@YGPAXPAUHINSTANCE__@@PBG@Z)
  535556:
    57:
      33FF837C2418036A018BF1897C24145D7406396C2418754B6810EA:
        0. 05 C1D1 0139 0000:?ShowScrollBar@CGXTabWnd@@QAEXIH@Z (0112: 08)
        1. 05 C1D1 0138 0000:?ShowScrollBar@CGXRecordInfoWnd@@QAEXIH@Z (0112: 00)
      6A008BF16A006847010000FFB6:
        88050000FF15........8B1D:
          0. 00 0000 00ED 0000:?OnSelendokCombocolor@CGXBorderPage@@IAEXXZ
        C4050000FF15........8B1D:
          0. 00 0000 00DE 0000:?OnSelendokCombocolor@CGXBorderPage@@IAEXXZ
      8BF1:
        6A0DFF15........8B1D........8DBE:
          78150000576A:
            3C5089:
              0. 07 8645 00FE 0000:?InitFonts@CGXBCalendar@@IAEXXZ
            5C5089:
              0. 07 8645 00FE 0000:?InitFonts@CGXBCalendar@@IAEXXZ
          8C150000576A:
            3C5089:
              0. 07 8645 00FE 0000:?InitFonts@CGXBCalendar@@IAEXXZ
            5C5089:
              0. 07 8645 00FB 0000:?InitFonts@CGXBCalendar@@IAEXXZ
        E8........33FF68017F000057FF15........575750BB:
          0. 00 0000 00BD 0000:?CreateControl@CGXCurrencyEdit@@UAEHK@Z
    8BF1578D7E:
      3C8BCFE8........6A018BCF5B899898040000E8:
        0. 00 0000 00FB 0000:?OnListBoxEnd@CGXComboBox@@IAEJIJ@Z
      408BCFE8........6A018BCF5B899898040000E8:
        0. 00 0000 00FB 0000:?OnListBoxEnd@CGXComboBox@@IAEJIJ@Z
    FF15........8B5C241433ED392D........8BF08974240C750A2B03:
      0. 02 E00A 013D 0000:?DoMessages@CGXLongOperationImp@@UAEHPAVCGXLongOperation@@@Z
  56578D44240A8BF1BF........50568BCFE8........85C0741585F674098B:
    0. 0C 01FA 0034 0000:?PostNcDestroy@CGXGridHandleWnd@@MAEXXZ (REF 000A: ?_gxregmap@CGXGridHandleWnd@@2VCMapPtrToWord@@A)
    1. 0C 01FA 0034 0000:?PostNcDestroy@CGXGridWnd@@MAEXXZ (REF 000A: ?_gxregmap@CGXGridWnd@@2VCMapPtrToWord@@A)
    2. 0C 01FA 0034 0000:?PostNcDestroy@CGXTabWnd@@MAEXXZ (REF 000A: ?_gxregmap@CGXTabWnd@@2VCMapPtrToWord@@A)
    3. 0C 01FA 0034 0000:?PostNcDestroy@CGXTabBeam@@MAEXXZ (REF 000A: ?_gxregmap@CGXTabBeam@@2VCMapPtrToWord@@A)
    4. 0C 01FA 0034 0000:?PostNcDestroy@CGXColorButtonBox@@MAEXXZ (REF 000A: ?_gxregmap@CGXColorButtonBox@@2VCMapPtrToWord@@A)
    5. 0C 01FA 0034 0000:?PostNcDestroy@CGXColorSample@@MAEXXZ (REF 000A: ?_gxregmap@CGXColorSample@@2VCMapPtrToWord@@A)
    6. 0C 01FA 0034 0000:?PostNcDestroy@CGXUserAttributPageGrid@@MAEXXZ (REF 000A: ?_gxregmap@CGXUserAttributPageGrid@@2VCMapPtrToWord@@A)
    7. 0C 01FA 0034 0000:?PostNcDestroy@CGXRecordInfoWnd@@MAEXXZ (REF 000A: ?_gxregmap@CGXRecordInfoWnd@@2VCMapPtrToWord@@A)
    8. 0C 01FA 0034 0000:?PostNcDestroy@CGXRecordInfoBeam@@MAEXXZ (REF 000A: ?_gxregmap@CGXRecordInfoBeam@@2VCMapPtrToWord@@A)
    9. 0C 01FA 0034 0000:?PostNcDestroy@CGXRecordWnd@@MAEXXZ (REF 000A: ?_gxregmap@CGXRecordWnd@@2VCMapPtrToWord@@A)
    10. 0C 01FA 0034 0000:?PostNcDestroy@CGXDaoRecordWnd@@MAEXXZ (REF 000A: ?_gxregmap@CGXDaoRecordWnd@@2VCMapPtrToWord@@A)
    11. 0C 01FA 0034 0000:?PostNcDestroy@CGXBrowserWnd@@MAEXXZ (REF 000A: ?_gxregmap@CGXBrowserWnd@@2VCMapPtrToWord@@A)
  578B7C240C85FF0F84C90000005556BE........33ED8BCEE8........3B78:
    0. 0F EA40 00DE 0000:?ShowImouseCursor@CGXIntelliMousePlugin@@QAEHI@Z
  83642400005355568B742414578BCEE8........8B7C24208B1D........85:
    0. 16 5269 00AA (?)0000:?CreateDeviceHandles@CGXPrintDeviceImp@@UAEXPAVCGXPrintDevice@@PAUtagDEVNAMES@@KPAU_devicemodeA@@K@Z (0073: 00)
  8B:
    4904E8........C3:
      0. 00 0000 000A (?)0000:?Grid@CGXGridParam@@QBEPAVCGXGridCore@@XZ (REF 0005: ?GetFirstGrid@CGXAppData@@QBEPAVCGXGridCore@@PAX@Z)
    4C24085355BAFFFFFF008B29568BC55723C283F801894424100F824A0100:
      0. FF 64B5 0173 0000:?_gx_sort_range@@YAHPAU_gx_range@@@Z
  B9........E8........C3:
    0. 00 0000 000C (?)0000:?Grid@CGXData@@QBEPAVCGXGridCore@@XZ (REF 0002: ?_gxAppData@@3VCGXAppData@@A)
  FF15........C3:
    0. 00 0000 0008 0000:??1COleVariant@@QAE@XZ (REF 0003: VariantClear)
53:
  55:
    56:
      33:
        ED578B3D........55:
          8BF1556847010000FFB6:
            B8010000FFD785C07F:
              0. 2F 398E 00E3 0000:?OnChangedColor@CGXColorPage@@IAEJIJ@Z
            D0010000FFD785C07F:
              0. 2F 1C1D 00E3 0000:?OnChangedColor@CGXColorPage@@IAEJIJ@Z
          BBF00000008BF15553FFB6:
            20010000FFD785C0:
              0. 2D EB78 0056 0000:?OnGxcheckValue@CGXControlPage@@IAEXXZ
            30010000FFD785C0:
              0. 2D 8575 0056 0000:?OnGxcheckValue@CGXControlPage@@IAEXXZ
        F633DB3935........578BE97505BB800000008B3D........5656FF:
          0. 01 54B7 0040 0000:?CreateHeader@CGXTabbedLBoxHeader@@QAEHPAVCWnd@@@Z
      57:
        8B:
          3D........8BF16A08FFD76A088946:
            44FFD76A0F894648FFD76A05:
              0. 15 5021 009F 0000:?UpdateColors@CGXTabBeam@@QAEXXZ
            48FFD76A0F89464CFFD76A05:
              0. 15 6747 009F 0000:?UpdateColors@CGXTabBeam@@QAEXXZ
          7C2414:
            57E8........598BD88B4F2433ED8B73103BCD74078B016A:
              0. 1B BA70 00B5 0000:?_gx_free_cell@@YAXPAUgxCell@@@Z
            8BF157E8........33ED:
              896C24148BC56BC0748D9C30:
                2C02:
                  0. 05 79AF 0092 0000:?ToggleSelectDate@CGXBCalendar@@UAEHAAVCOleDateTime@@@Z
                4002:
                  0. 05 79AF 0092 0000:?ToggleSelectDate@CGXBCalendar@@UAEHAAVCOleDateTime@@@Z
              8BC56BC0748D9C30:
                2C0200008BCB:
                  0. 01 3E9B 0061 0000:?ToggleHighlightDate@CGXBCalendar@@UAEHAAVCOleDateTime@@@Z
                400200008BCB:
                  0. 01 3E9B 0061 0000:?ToggleHighlightDate@CGXBCalendar@@UAEHAAVCOleDateTime@@@Z
          F1E8........:
            33ED33FF8D9E:
              8C0000008D87C5C7000056508BCBE8:
                0. 00 0000 00FE 0000:?OnInitDialog@CGXBorderPage@@MAEHXZ
              900000008D87C5C7000056508BCBE8:
                0. 00 0000 00FE 0000:?OnInitDialog@CGXBorderPage@@MAEHXZ
            8B400433ED5568........68........5550E8:
              0. 00 0000 0066 0000:?InitFromFileHandler@CGXFrameAdapter@@UAEJIJ@Z
          F9:
            8D77:
              3C8BCEE8........6A018BCE5D89A898040000E8:
                0. 16 AD69 00DA 0000:?OnListBoxEnd@CGXCheckListComboBox@@IAEJIJ@Z
              408BCEE8........6A018BCE5D89A898040000E8:
                0. 16 3766 00DA 0000:?OnListBoxEnd@CGXCheckListComboBox@@IAEJIJ@Z
            FF:
              15........50E8........8BD833ED3BDD7512555568B80700:
                0. 06 66B4 009D 0000:?OnListBoxKillFocus@CGXComboBox@@IAEJIJ@Z
                1. 06 6B97 009D 0000:?OnListBoxKillFocus@CGXComboBox@@IAEJIJ@Z
              77:
                1CE8........8BF06A:
                  008BCE8B06FF5068FF771C8BD8FF15:
                    0. 00 0000 0092 0000:?OnIMouseHScroll@CGXMouseWheelPlugin@@UAEXII@Z
                  018BCE8B06FF5068FF771C8BD8FF15:
                    0. 00 0000 0092 0000:?OnIMouseVScroll@CGXMouseWheelPlugin@@UAEXII@Z
                20E8........8BF06A:
                  008BCE8B06FF5070FF77208BD8FF15:
                    0. 00 0000 0093 0000:?OnIMouseHScroll@CGXMouseWheelPlugin@@UAEXII@Z
                  018BCE8B06FF5070FF77208BD8FF15:
                    0. 00 0000 0093 0000:?OnIMouseVScroll@CGXMouseWheelPlugin@@UAEXII@Z
        BF........8BCFE8........8B70048B6C24148B1D........33C085:
          0. 1C 170A 0053 0000:?_gxFreeObject@@YAXPAX@Z
        E8........8B:
          7C24148B58146A018D343F5D6683BE........007410:
            0. 01 3E9B 008E (l)0000:?yy_try_NUL_trans@@YAHH@Z
          F883C72CE8........8B74241489B0:
            40040000E8:
              0. 00 0000 00F7 0000:?_gx_XSre_exec@@YAHPAD@Z
            50080000E8:
              0. 00 0000 00FF 0000:?_gx_XSre_exec@@YAHPAG@Z
        FF7424148B:
          E98B4D:
            50E8........8B58108B45543BD874268B35:
              0. 00 0000 0058 0000:?OnCanTabSwitch@CGXTabWnd@@IAEJIJ@Z
            54E8........8B58108B45583BD874268B35:
              0. 00 0000 0058 0000:?OnCanTabSwitch@CGXTabWnd@@IAEJIJ@Z
          F1E8........8B7E5C8B1D........8B2D........81C7:
            0. B5 1467 00D5 0000:?OnDraw@CGXBCalTitle@@UAEHPAVCDC@@@Z
            1. AF 759E 00CF 0000:?OnDraw@CGXBCalTitle@@UAEHPAVCDC@@@Z
            2. AF B10A 00CF 0000:?OnDraw@CGXBCalTitle@@UAEHPAVCDC@@@Z
            3. B5 E0CE 00D5 0000:?OnDraw@CGXBCalTitle@@UAEHPAVCDC@@@Z
      8B:
        7424:
          10578B7C24186A0233ED668B075B03FB663BC50F84810100000F:
            0. 0F C7FA 026F (l)0000:?pmatch@@YAPAGPAG0@Z
          145756E8........8BE88D9EC81200000FBFC58D04408D3CC68B:
            0. 0D 3080 0054 (l)0000:?push_string@@YAXHPAUParseState@@@Z
        F1:
          33DB57399E:
            A800000074078B9E9C000000438BBE940000008B6C24:
              0. 09 EB61 006A 0000:?CalcTabOffset@CGXTabBeam@@UAEHH@Z
            AC00000074078B9EA0000000438BBE980000008B6C24:
              0. 09 EB61 006A 0000:?CalcTabOffset@CGXTabBeam@@UAEHH@Z
          57:
            837EE000750733C0E9B30100008B1D........6A11FFD3668BF8:
              0. 3A FB58 01CD 0000:?OnGridKeyDown@CGXMaskControl@@UAEHIII@Z
            8B46:
              3C8D7E3C8BCFFF50146A0185C05D751D8B078BCFFF503085:
                0. 18 26E6 00A4 0000:?SetActiveAndDropDown@CGXComboBoxWnd@@IAEXXZ
              408D7E408BCFFF50146A0185C05D751D8B078BCFFF503085:
                0. 18 26E6 00A4 0000:?SetActiveAndDropDown@CGXComboBoxWnd@@IAEXXZ
            8D:
              5E088D7E0C538BCFE8........33ED396E1475078BCFE8:
                0. 00 0000 0055 0000:?PrepareFindReplace@GX_FR_STATE@@QAEXXZ (0034: C3)
                1. 00 0000 0056 0000:?PrepareFindReplace@GX_FR_STATE@@QAEXXZ (0034: 5B)
              7E:
                608BCFE8........8D5E588BCBE8........FF76508B2D:
                  0. 00 0000 003F 0000:?CreateBrushes@CGXTabBeam@@QAEXXZ
                648BCFE8........8D5E5C8BCBE8........FF76548B2D:
                  0. 00 0000 003F 0000:?CreateBrushes@CGXTabBeam@@QAEXXZ
    8B:
      5C240C56578BF9538B4F:
        508B01FF90E80000008B4F5050E8........68:
          0. 09 4AF9 00FB 0000:?RestoreScrollbarState@CGXTabWnd@@QAEXPAVCWnd@@@Z
        548B01FF90F00000008B4F5450E8........68:
          0. 09 4AF9 00FB 0000:?RestoreScrollbarState@CGXTabWnd@@QAEXPAVCWnd@@@Z
      6C240C5681FDC5C700008BF10F820C01000081FDCCC700000F87000100:
        0. 19 2E49 01FF 0000:?OnCommand@CGXBorderPage@@MAEHIJ@Z
      D9E8........8B80B004000033ED39A8A40000000F85A30000008BCBE8:
        0. 00 0000 00C5 0000:?Paste@CGXDateTimeCtrl@@UAEHXZ
  56:
    33DB578B3D........538BF153:
      6857010000FF76:
        1CFFD785C07515399EF8:
          0. 1C E274 003C 0000:?OnSetfocus@CGXComboBoxWnd@@MAEXXZ
        20FFD785C07515399E00:
          0. 1C A29F 003C 0000:?OnSetfocus@CGXComboBoxWnd@@MAEXXZ
      6A0BFF76:
        1CFFD78BCEE8........536A01:
          0. 0D C2A1 0069 0000:?OnLButtonDown@CGXBCurrencyEdit@@IAEXIVCPoint@@@Z
        20FFD78BCEE8........536A01:
          0. 0D 40E9 0069 0000:?OnLButtonDown@CGXBCurrencyEdit@@IAEXIVCPoint@@@Z
    57:
      6A008BF16A0068B0000000FF76:
        1CFF15........8B7C24108B5C24140F:
          0. 38 F8EB 0058 0000:?GetCharSel@CGXMaskControl@@QBEXAAH0@Z
        20FF15........8B7C24108B5C24140F:
          0. 38 147F 0058 0000:?GetCharSel@CGXMaskControl@@QBEXAAH0@Z
      8B:
        3D........FF35........8BF133DBFFD785C074158BCEE8:
          0. 11 5047 0063 0000:?CanPaste@CGXMaskControl@@UAEHXZ
        7C24:
          10:
            33DB:
              39:
                5F0C740857E8........EB118B373BF37405833EFF75:
                  0. 03 6BAF 0080 0000:?_gx_new_cell@@YAPAUgxCell@@PAU_gx_cell_block_list@@@Z
                9FB00400000F84410400008B7424143BF30F84350400:
                  0. 02 09E0 04EC 0000:?OnGridUpdate@CGXGridUpdateHintImp@@UAEXPAVCGXGridCore@@PAVCObject@@@Z
              83FF308BF1720583FF39761E83FF60720583FF69761439:
                0. 07 BA0A 00BB 0000:?OnKeyDown@CGXBDTNumericGadget@@MAEXI@Z
            57E8........598BF06A015B399EF8FF0100750B57E8:
              0. 00 0000 0093 0000:?_gx_recalc@@YAHH@Z
            6A:
              0168........8B87B40000008DB7B40000008BD950E8:
                0. 00 0000 0043 0000:?SetActivePane@CGXRecordInfoSplitterWndInterface@@UAEXPAVCGXGridCore@@@Z
              028BD957E8........5750E8........8BF085F67515E8:
                0. 00 0000 004C 0000:?LoadDIB@CGXDIB@@QAEHPBD@Z (REF 000D: ?AfxFindResourceHandle@@YGPAUHINSTANCE__@@PBD0@Z)
                1. 00 0000 004C 0000:?LoadDIB@CGXDIB@@QAEHPBG@Z (REF 000D: ?AfxFindResourceHandle@@YGPAUHINSTANCE__@@PBG0@Z)
            83FF308BF1726583FF39776033DB395E3875116A01FF761C6A:
              0. 02 7199 00A0 0000:?OnChar@CGXBDTNumericGadget@@MAEXI@Z
            8B:
              CF8B078BB7B0040000FF90E801000033DB85C07409395E40:
                0. 31 3C38 007C 0000:?CanPaste@CGXGridCutPasteImp@@UAEHPAVCGXGridCore@@@Z
              F1:
                3BF70F84:
                  BA0000008B46043B47040F85AA0000008B4608:
                    0. 29 DFF1 00D4 0000:??8Format@CGXBCurrencyEdit@@UBEHABV01@@Z
                  BC0000008B46043B47040F85AC0000008B4608:
                    0. 26 91A4 00D6 0000:??8Format@CGXBCurrencyEdit@@UBEHABV01@@Z
                57E8........8B5C241483F8FF66897B04741E8BF88B46:
                  0. 21 D25B 0052 0000:?SetAttributePtr@CGXUserAttributeMap@@QAEXGPAVCGXAbstractUserAttribute@@@Z
                6AFF8B47088B5E0803C350E8........8B47086BC01C50:
                  0. 0D D8DA 003C 0000:?Append@CGXSortInfoArray@@QAEHABV1@@Z
                8B4F048B1E8B01FF10508BCEFF37FF530C5F5E5BC20400:
                  0. 00 0000 0020 0000:?GetDocTemplate@CGXAppAdapter@@UAEPAVCDocTemplate@@PAUCCreateContext@@@Z
            FF7424188BF1FF74241857E8........FF76:
              448BD88B078BCF:
                0. 0B 8788 002B 0000:?OnCtlColor@CGXRecordInfoBeam@@IAEPAUHBRUSH__@@PAVCDC@@PAVCWnd@@I@Z
              488BD88B078BCF:
                0. 0B D908 002B 0000:?OnCtlColor@CGXRecordInfoBeam@@IAEPAUHBRUSH__@@PAVCDC@@PAVCWnd@@I@Z
          146A008B878C1400000FBF8447FA1200008D0440FF74C7088D34:
            0. 06 9361 0082 (l)0000:?resolve_name@@YAXHPAUParseState@@@Z
          18578BF1FF7424188B06FF742418FF503C83C6088BD856FF15:
            0. 00 0000 0034 0000:?Cut@CGXGenericViewerImpl@@UAEPAUIDataObject@@PBVCGXStyle@@PAVCGXGridCore@@PAVCGXControl@@@Z
        F1:
          33DBE8........85C074:
            598BCEE8........FF35........8B3D:
              0. 00 0000 006F 0000:?CanPaste@CGXControl@@UAEHXZ
            638BCEE8........FF35........8B3D:
              0. 00 0000 0079 0000:?CanPaste@CGXControl@@UAEHXZ
          E8........:
            33DB395E:
              4074268B3D........53536888010000FF76:
                0. 1D E1A3 003D 0000:?OnLButtonUp@CGXComboListBox@@IAEXIVCPoint@@@Z
              4474268B3D........53536888010000FF76:
                0. 1D 4135 003D 0000:?OnLButtonUp@CGXComboListBox@@IAEXIVCPoint@@@Z
            85C0:
              0F84B0000000FF15........50E8........85C0:
                0. 09 B4E7 00CD 0000:?Paste@CGXRichEditCtrl@@UAEHXZ
              8B068BCE7408FF9098010000EB7CFF503085C074:
                0. 24 577F 00B6 0000:?Cut@CGXOlePreview@@UAEHXZ
            8B:
              40046A0068........68........6A0050E8:
                0. 00 0000 0044 0000:?GetTabManager@CGXFrameAdapter@@UBEPAVCGXTabWndMgr@@XZ
              7C24106A015B57899808020000FF15........85C0:
                0. 05 924A 0077 0000:?PostRender@CGXOlePreview@@UAEXPAUHWND__@@@Z
          FF:
            15........50E8........8D5E:
              3C8BF88BCBE8........85FF75:
                0. 0E 2C88 005B 0000:?OnListBoxKillFocus@CGXCheckListComboBox@@IAEJIJ@Z
              408BF88BCBE8........85FF75:
                0. 0E F1CC 005B 0000:?OnListBoxKillFocus@CGXCheckListComboBox@@IAEJIJ@Z
            742410:
              8BBEC8000000E8........FF7424188BD8E8........50:
                0. 03 F25F 003C 0000:?GetTextRowCol@CGXFormulaSheet@@QAEHKKAAVCString@@@Z (REF 0032: ?GetCellText@CGXFormulaSheet@@QAEHPAUgxCell@@AAVCString@@@Z)
                1. 03 F25F 003C 0000:?GetExpressionRowCol@CGXFormulaSheet@@QAEHKKAAVCString@@@Z (REF 0032: ?GetExpression@CGXFormulaSheet@@QAEHPAUgxCell@@AAVCString@@@Z)
              E8........B9........E8........6A03FF15:
                0. 28 5ED9 007B 0000:?OnWinIniChange@CGXTabBeam@@IAEXPBD@Z (REF 000A: ?OnWinIniChange@CWnd@@IAEXPBD@Z)
                1. 28 5ED9 007B 0000:?OnWinIniChange@CGXTabBeam@@IAEXPBG@Z (REF 000A: ?OnWinIniChange@CWnd@@IAEXPBG@Z)
                2. 28 C806 007B 0000:?OnWinIniChange@CGXTabBeam@@IAEXPBG@Z (REF 000A: ?OnWinIniChange@CWnd@@IAEXPBG@Z)
                3. 28 C806 007B 0000:?OnWinIniChange@CGXTabBeam@@IAEXPBD@Z (REF 000A: ?OnWinIniChange@CWnd@@IAEXPBD@Z)
        F9:
          8B378BC683E03083F83075238BC68BDEC1E80850B9........C1EB:
            0. 02 C1AA 008E 0000:?GetDescription@CGXBrush@@QBEXPAD@Z (REF 0077: ?szBrushFormat@CGXBrush@@2PBDB)
            1. 02 C1AA 008E 0000:?GetDescription@CGXBrush@@QBEXPAG@Z (REF 0077: ?szBrushFormat@CGXBrush@@2PBGB)
          8D77:
            3C8BCEE8........33DB899894040000399FE40000000F84B4:
              0. 07 8729 00DF 0000:?OnListBoxCancel@CGXComboBox@@IAEJIJ@Z
            408BCEE8........33DB899894040000399FE80000000F84B4:
              0. 07 8729 00DF 0000:?OnListBoxCancel@CGXComboBox@@IAEJIJ@Z
          E8........8B47:
            48FF7424108B9FE00400008D4F488DB7E0040000:
              0. 14 A5A1 0034 (?)0000:?OnKillFocus@CGXRecordView@@IAEXPAVCWnd@@@Z
            4CFF7424108B9FE40400008D4F4C8DB7E4040000:
              0. 14 A5A1 0034 (?)0000:?OnKillFocus@CGXRecordView@@IAEXPAVCWnd@@@Z
      BB........FF7424148BCBE8........E8........8B700CE8:
        0. 04 5995 0084 0000:?GXInit@@YGXIPAVCGXAbstractControlFactory@@PBD1@Z (REF 003D: ?AfxRegisterWndClass@@YGPBDIPAUHICON__@@PAUHBRUSH__@@0@Z)
        1. 04 5995 0084 0000:?GXInit@@YGXIPAVCGXAbstractControlFactory@@PBG1@Z (REF 003D: ?AfxRegisterWndClass@@YGPBGIPAUHICON__@@PAUHBRUSH__@@0@Z)
      BF........8BCFE8........8B70048B5C241033C085F6742A391E740B:
        0. 15 2D86 0051 0000:?_gxFreeObject@@YAXPAX@Z
      E8........8B:
        40748B:
          4C24108B7424188B7C24148D4C88FC8BC669C0FF:
            0. 29 2E97 0049 0000:?_gx_find_cell@@YAPAUgxCell@@HHH@Z
          7C24108B4C241433D28B74B8FC8D44B8FC8B4108:
            0. 2C 4E43 0060 0000:?_gx_insert_cell@@YAHHPAUgxCell@@@Z
        5C241433FF39780C750F66833B4074098B74241066893E:
          0. 07 6461 0070 0000:?_gx_format_function_name@@YAPAGPAGPBGH@Z
        707833DB33FF3BF37E15E8........8B4074391CB88D04:
          0. 11 9442 007F 0000:?_gx_new_sheet_context@@YAHXZ
          1. 10 EC3B 007E 0000:?_gx_new_sheet_context@@YAHXZ
        742414:
          33DB39580C750F66833E4074098B7C241066891F:
            0. 07 C188 0072 0000:?_gx_format_function_name@@YAPAGPAGPBGH@Z
          8BD88B0685C07C286A015F3BC70F8EC700000083:
            0. 16 97A6 00ED (l)0000:?mk_constant@@YAHHPAU_gx_operand@@@Z
        78048B87:
          980000008B1D........8DB79800000085C074:
            0. 24 1472 004E 0000:?UpdatePrinterDevice@CGXPrintDeviceImp@@UAEXPAVCGXPrintDevice@@@Z
          9C0000008B1D........8DB79C00000085C074:
            0. 24 9090 004E 0000:?UpdatePrinterDevice@CGXPrintDeviceImp@@UAEXPAVCGXPrintDevice@@@Z
        7C241433DB39580C750D803F4074088B742410881EEB11:
          0. 05 E230 006E 0000:?_gx_format_function_name@@YAPADPADPBDH@Z (0048: C3)
          1. 05 E230 006F 0000:?_gx_format_function_name@@YAPADPADPBDH@Z (0048: 5B)
        80A80000008B:
          4C24108B7424188B7C24148D4C88FC8BC6:
            0. 2C 8E98 004C 0000:?_gx_find_cell@@YAPAUgxCell@@HHH@Z
          7C24108B4C241433D28B74B8FC8D44B8FC:
            0. 2F DC1B 0063 0000:?_gx_insert_cell@@YAHHPAUgxCell@@@Z
        B0AC00000033DB33FF3BF37E18E8........8B80A80000:
          0. 17 8F47 0088 0000:?_gx_new_sheet_context@@YAHXZ
          1. 16 B908 0087 0000:?_gx_new_sheet_context@@YAHXZ
        F833DB8D472483380074094383C00483FB087CF28B7424:
          0. 0C 06D5 0043 0000:?_gx_mkwm@@YAXPAU_gx_matrix@@@Z
          1. 0D 2E0A 0044 0000:?_gx_mkwm@@YAXPAU_gx_matrix@@@Z
      FF742410E8........:
        8B:
          5424188BD8598BF28B43206A0AC1E809598BFB:
            0. 25 C95C 006C 0000:?_gx_copy_cell_to_list@@YAPAUgxCell@@PAU_gx_cell_block_list@@PAU1@@Z
          5C24148BF08D7E:
            5C895E548BCFE8........53:
              0. 02 ABB7 0038 0000:?SetTabBkColor@CGXTabBeam@@QAEXHK@Z
            64895E588BCFE8........53:
              0. 02 ABB7 0038 0000:?SetTabSelBkColor@CGXTabBeam@@QAEXHK@Z
        FF7424148B98F8FF010083A0F8FF0100008388:
          9C:
            0. 11 1188 0040 0000:?_gx_force_recalc@@YAXH@Z
          BC:
            0. 11 80E8 0040 0000:?_gx_force_recalc@@YAXH@Z
    6A018BF15B845E:
      400F848F000000FF15........315E408B86A00000008B:
        0. 09 C148 00AB 0000:?OnLButtonUp@CGXBCalculator@@IAEXIVCPoint@@@Z
      440F848F000000FF15........315E448B86A00000008B:
        0. 09 C148 00AB 0000:?OnLButtonUp@CGXBCalculator@@IAEXIVCPoint@@@Z
    8B:
      5C24148BF18BD3578B0E8BC133442410C1EA1883E00733C180FA408906:
        0. 66 A3F0 0092 0000:??0CGXPen@@QAE@IHK@Z
      7424:
        0C:
          33DB66395E067E235733FF8B460803C78038027509FF7008E8:
            0. 00 0000 0052 0000:?_gx_free_formula@@YAXPAU_gx_formula@@@Z (0029: E8)
            1. 00 0000 004B 0000:?_gx_free_formula_strings@@YAXPAU_gx_formula@@@Z (0029: 5B)
          57:
            33:
              DB6AFF8BBEB0040000538D8E20050000E8........6AFF53:
                0. 07 F2E4 0073 0000:?OnGridEndPrinting@CGXGridPrintImp@@UAEXPAVCGXGridCore@@PAVCDC@@PAUCPrintInfo@@@Z
              FF8B062BC70F8443010000480F84DA000000480F85350100:
                0. 08 72FC 015C 0000:?_gx_do_range_scan@@YAPAUgxCell@@PAU_gx_scan_buf@@@Z
            668B06465046E8........8B1D........8BF883FFFF597427:
              0. 1B BC95 0063 0000:?_gx_text_to_col@@YAHPBG@Z
            8A064650E8........8B1D........8BF883FFFF5974250FBE:
              0. 17 A80C 005F 0000:?_gx_text_to_col@@YAHPBD@Z
            8B7C241433DBFF4C24188A078806464784C0741B433B5C2418:
              0. 0D 2656 003A 0000:?_gx_fn_xsstrcpy@@YAXPADPBDH@Z
            FFB6B0000000E8........FFB6B4000000E8........FFB6B8:
              0. 04 9897 0100 (l)0000:?_gxdtordata@@YAXPAVCGXAppData@@@Z
          66833E24750383C60256E8........8BD85985DB7C5281FBFF0F:
            0. 08 B826 0073 0000:?_gx_text_to_rc@@YAHPBGPAH1@Z
          803E2475014656E8........8BD85985DB7C5081FBFF0F00007F:
            0. 09 2C8E 006E 0000:?_gx_text_to_rc@@YAHPBDPAH1@Z
          8B:
            C1BBFFFFFF3F578B48048B1623CBC1E21E0BCA8948048B4E04:
              0. 6F C244 008F 0000:??0CGXBrush@@QAE@ABUtagLOGBRUSH@@@Z
            D93BF375048BC3EB3D578BCBE8........6AFF8BCBFF7608E8:
              0. 00 0000 0052 0000:??4CGXStylePtrArray@@QAEABV0@ABV0@@Z
        1057:
          85F674:
            2633DB33FF803E00741D0FBE043750E8........85C0:
              0. 1C 90C5 003C (l)0000:?GetDigitIndex@@YAHHPBD@Z
            2733DB33FF803E00741E0FBE043750FF15........85:
              0. 1D A70F 003D (l)0000:?GetDigitIndex@@YAHHPBD@Z
          8B7C2410:
            33DB5657E8........5983E8:
              0659741B4875616A07:
                0. 03 4F66 0083 (l)0000:?more_additive@@YAXHPAUParseState@@@Z
              0859743648741B4875:
                0. 06 1A9A 00A3 (l)0000:?more_multiplicative@@YAXHPAUParseState@@@Z
              1059745B48744083E8:
                0. 0F 2068 00C8 (l)0000:?more_relational@@YAXHPAUParseState@@@Z
              1659742483E8087407:
                0. 0C 3F7D 008D (l)0000:?more_equality@@YAXHPAUParseState@@@Z
              1A59741B4875626A1B:
                0. 03 4F66 0084 (l)0000:?more_shift@@YAXHPAUParseState@@@Z
            5657E8........5983:
              E80659746548744883E80774:
                0. 07 1782 00C6 (l)0000:?unary_expr@@YAXHPAUParseState@@@Z
              F8:
                02590F85B600000033DB6A:
                  0. 04 2B65 00D7 (l)0000:?cell_list@@YAXHPAUParseState@@@Z
                05590F85C6000000505657:
                  0. 01 3E9B 00E7 (l)0000:?opt_dependency@@YAXHPAUParseState@@PAU_gx_formula@@@Z
            8BD9FF36FF37E8........:
              6A67568BCBE8:
                0. 03 0B89 0030 0000:?ParseEra@CGXBDateTimeCtrl@@IAEXAAPBD0I@Z
                1. 0C 39CB 002C 0000:?ParseEra@CGXBDateTimeCtrl@@IAEXAAPBG0I@Z
                2. 04 97D1 0031 0000:?ParseEra@CGXBDateTimeCtrl@@IAEXAAPBD0I@Z
              8B06668B0883C0028906:
                0. 1F C769 004F 0000:?ParseQuotedText@CGXBDateTimeCtrl@@IAEXAAPBG0I@Z
      F1:
        33DB:
          57:
            399E:
              8C00000074075353E8........8B8E900000008DBE9000:
                0. 1C E55A 003C 0000:?Tidy@CGXBDateTimeCtrl@@IAEXXZ
              9000000074075353E8........8B8E940000008DBE9400:
                0. 1F 39CF 003F 0000:?Tidy@CGXBDateTimeCtrl@@IAEXXZ
              A80000008BBE9400000074078B9E9C000000433BBE8C00:
                0. 11 EC0C 005E 0000:?CalcTabFromOffset@CGXTabBeam@@UAEHH@Z
              AC0000008BBE9800000074078B9EA0000000433BBE9000:
                0. 11 EC0C 005E 0000:?CalcTabFromOffset@CGXTabBeam@@UAEHH@Z
            8B86:
              B00000003BC3750AE8........E9D30000008B54241083:
                0. 18 60B6 00F4 0000:?OnKeyDown@CGXBDateTimeCtrl@@IAEXIII@Z
              B40000003BC3750AE8........E9E80000008B54241083:
                0. 1B 2945 0109 0000:?OnKeyDown@CGXBDateTimeCtrl@@IAEXIII@Z
          8B:
            46E03BC3744B50FF15........85C07440578BCEE8:
              0. 0F 0A42 005B (?)0000:?Hide@CGXMaskControl@@UAEXXZ (002B: C3)
            4E203BCB740A395E0474058B01FF502C5733FF395E107E1D8B:
              0. 52 5A50 0072 0000:?Cleanup@CGXTabWndMgr@@UAEXXZ
            86:
              60FFFFFF3BC3745150FF15........85C07446578BCEE8:
                0. 00 0000 0064 0000:?Hide@CGXCurrencyEdit@@UAEXXZ
              64FFFFFF3BC3745150FF15........85C07446578BCEE8:
                0. 00 0000 0064 0000:?Hide@CGXCurrencyEdit@@UAEXXZ
        57:
          33FF8B5E0C85DB7E168B46088B0CB885C974078B016A01FF500447:
            0. 0C 8AF3 0034 0000:?MakeEmpty@CGXDelayedRangePool@@QAEXXZ
          83BE:
            00020000007409F686:
              6E16000040752A8B5C24108B3E8BCBE8:
                0. 00 0000 00A1 0000:?SetPage@CGXBCalendar@@QAEHABVCOleDateTime@@H@Z
              CE16000040752A8B5C24108B3E8BCBE8:
                0. 00 0000 00A1 0000:?SetPage@CGXBCalendar@@QAEHABVCOleDateTime@@H@Z
            14020000007409F686:
              8216000040752A8B5C24108B3E8BCBE8:
                0. 00 0000 00A1 0000:?SetPage@CGXBCalendar@@QAEHABVCOleDateTime@@H@Z
              E216000040752A8B5C24108B3E8BCBE8:
                0. 00 0000 00A1 0000:?SetPage@CGXBCalendar@@QAEHABVCOleDateTime@@H@Z
            B000000000750AE8........E9D1000000FF7424188B5C2418:
              0. 04 FD99 00EF 0000:?OnLButtonDown@CGXBDateTimeCtrl@@IAEXIVCPoint@@@Z
            B400000000750AE8........E9DD000000FF7424188B5C2418:
              0. 04 FD99 00FB 0000:?OnLButtonDown@CGXBDateTimeCtrl@@IAEXIVCPoint@@@Z
          8B:
            06:
              8B:
                9EB0040000FF90680500008BF881FFFFFFFF7F75078BBB08:
                  0. 1D 1F9D 003D 0000:?MoveTo@CGXBrowserGrid@@UAEHK@Z
                  1. 3F A3F4 005F 0000:?GetLastRow@CGXBrowserGrid@@UAEKXZ
                BEB0040000FF90C4050000FF7424108BCE8BD8E8:
                  0. 10 5135 003D 0000:?ConvertValueToString@CGXDaoGrid@@UAEXKAAVCString@@@Z
              FF90:
                0C0200008B7C24108B5C241439BE480200007508399E4C:
                  0. 23 1CD2 0043 0000:?OnInitCurrentCell@CGXGridCore@@MAEXKK@Z
                B40400008B068BCEFF90C40500008B96B004000033DB8B:
                  0. 52 83E9 0072 0000:?OnAddedNewRecord@CGXODBCGrid@@MAEXXZ
                  1. 52 A00E 0072 0000:?OnAddedNewRecord@CGXODBCGrid@@MAEXXZ
            3D........33DBC746141800000053FFD750538BCEE8:
              0. 5C 3411 008F 0000:?UpdateSysColors@GX_SYS_DATA@@QAEXXZ
            4E:
              448B01FF503C8B4E448BF86A0157FF76548B01FF7650FF5030:
                0. 26 713E 0046 0000:?NeedShowCellTip@CGXCellTipPlugin@@MAEHPAVCGXControl@@@Z
                1. 26 7B67 0046 0000:?GetCellTipID@CGXCellTipPlugin@@MAEKPAVCGXControl@@@Z
              488B01FF503C8B4E488BF86A0157FF76588B01FF7654FF5030:
                0. 26 63C6 0046 0000:?NeedShowCellTip@CGXCellTipPlugin@@MAEHPAVCGXControl@@@Z
                1. 26 699F 0046 0000:?GetCellTipID@CGXCellTipPlugin@@MAEKPAVCGXControl@@@Z
            7C24108B4E:
              50578B01FF90E80000008B4E5050E8........8BF0:
                0. 13 D749 008C 0000:?SaveScrollbarState@CGXTabWnd@@QAEXPAVCWnd@@@Z
              54578B01FF90F00000008B4E5450E8........8BF0:
                0. 13 D749 008C 0000:?SaveScrollbarState@CGXTabWnd@@QAEXPAVCWnd@@@Z
            8EB0040000E8........8B8EB00400006A008BD8E8........FF:
              0. 12 7C09 0066 0000:?RemoveCols@CGXBrowserGrid@@UAEHKKIW4GXCmdType@@@Z (REF 0032: ?RemoveCols@CGXGridCore@@UAEHKKIW4GXCmdType@@@Z)
              1. 12 7C09 0066 0000:?RemoveRows@CGXBrowserGrid@@UAEHKKIW4GXCmdType@@@Z (REF 0032: ?RemoveRows@CGXGridCore@@UAEHKKIW4GXCmdType@@@Z)
            BEB00400008B87FC0200003944241074658B8FF400000033DB39:
              0. 67 3D2B 0091 0000:?OnMovedCurrentCell@CGXBrowserGrid@@UAEXKK@Z
          8D5E:
            3C8BCBE8........8B106A006A028BC8FF764CFF7648FF92C8:
              0. 07 2499 00AA 0000:?OnKeyDown@CGXListBox@@IAEXIII@Z
            408BCBE8........8B106A006A028BC8FF7650FF764CFF92C8:
              0. 07 2499 00AA 0000:?OnKeyDown@CGXListBox@@IAEXIII@Z
          FF7604E8........8B7C2414836604008BDFC1E30253E8:
            0. 08 1E07 0038 (?)0000:?InitHashTable@CGXCollMapStringToWord@@QAEXI@Z (000F: 00)
        85F6744E8B460885C074478B5C240C8B4C241003CB81F9FFFFFF7F77:
          0. 23 1387 005D 0000:?InsertCols@CGXDWordArrayPtrArray@@QAEHKK@Z
        8B460485C0740B50E8........8366040059837C2410008B5C240C74:
          0. 09 5B52 0045 (?)0000:?InitHashTable@?$CMap@KAAKPAVCGXTabWndAdapter@@AAPAV1@@@QAEXIH@Z (001B: 00)
        8D8E:
          84000000E8........8BD883FBFF742368DCC700008BCEE8:
            0. 00 0000 006C 0000:?OnChangedColor@CGXDisplayPropertiesDialog@@IAEJIJ@Z
          88000000E8........8BD883FBFF742368DCC700008BCEE8:
            0. 00 0000 006C 0000:?OnChangedColor@CGXDisplayPropertiesDialog@@IAEJIJ@Z
        E8........33DB395E:
          3C0F848D0000008B44240C5583F80957753A8B:
            0. 01 1E1A 00A6 0000:?OnKeyUp@CGXComboListBox@@IAEXIII@Z
          400F848D0000008B44240C5583F80957753A8B:
            0. 01 1E1A 00A6 0000:?OnKeyUp@CGXComboListBox@@IAEXIII@Z
          4474628B44240C83F809753C578B3D:
            0. 2E F5E3 007A 0000:?OnKeyUp@CGXCheckListComboLBox@@IAEXIII@Z
          4874628B44240C83F809753C578B3D:
            0. 2E 9E02 007A 0000:?OnKeyUp@CGXCheckListComboLBox@@IAEXIII@Z
    BE9C000000578B7C2410566A0057E8........6A3C89378B7424245B536A:
      0. 03 AD2A 0172 0000:?ConvertStyleToRTF@CGXRichEditCtrl@@UAEXAAU_paraformat@@AAU_charformat@@PBVCGXStyle@@@Z (014A: 5E)
      1. 03 AD2A 017B 0000:?ConvertStyleToRTF@CGXRichEditCtrl@@UAEXAAU_paraformat@@AAU_charformat@@PBVCGXStyle@@@Z (014A: E8)
    E8........:
      83603C00E8........8B74240C8360400056:
        E8........598B:
          0. 02 FAF5 0054 0000:?_gx_scanner_init@@YAXPBD@Z (REF 001A: _strlen)
          1. 02 FAF5 0054 0000:?_gx_scanner_init@@YAXPBG@Z (REF 001A: _wcslen)
        FF15........59:
          0. 03 3B19 0055 0000:?_gx_scanner_init@@YAXPBG@Z
      8B704CE8........8B581CE8........3B58140F83:
        80000000:
          0. 0E B4C8 00A5 (l)0000:?yy_get_previous_state@@YAHXZ
        83000000:
          0. 10 E680 00A8 (l)0000:?yy_get_previous_state@@YAHXZ
    FF7424:
      0CE8........8BD8598BB3F0FF010085F6741A57FF76048B3EE8:
        0. 00 0000 003C 0000:?_gx_free_range_name_list@@YAXH@Z
      108BF1FF742410E8........33DB395EE0750E8B46:
        C08D4EC05353:
          0. 09 E1C2 00A2 0000:?Init@CGXMaskControl@@UAEXKK@Z
        C48D4EC45353:
          0. 09 410D 00A2 0000:?Init@CGXMaskControl@@UAEXKK@Z
  57:
    8B7C24:
      0C33DB3BFB750FBF........8BC785C00F84B0000000399FB00000:
        0. 1A A9BD 00D0 0000:?GXTerminate@@YGXPAVCGXAppData@@@Z
      1033DB85FF7E1C568B742410DD06E8........3944241875036A01:
        0. 0D 853B 002D (l)0000:?is_holiday@@YAHPANHH@Z
    BF........8BCFE8........8B40048B5C240C85C0740B391874:
      318B4004:
        0. 08 A2BB 0052 0000:?_gxAddMemObj@@YAPAXPAX@Z
      328B4004:
        0. 09 6EE9 0053 0000:?_gxAddMemObj@@YAPAXPAX@Z
    FF74240CE8........8B98F0FF01005985DB74:
      26FF742410FF7304E8:
        0. 00 0000 0041 0000:?_gx_range_name_lookup@@YAPAU_gx_range_name@@HPBGPAU_gx_range@@@Z
      27FF742410:
        8B430450E8:
          0. 00 0000 0042 0000:?_gx_range_name_lookup@@YAPAU_gx_range_name@@HPBDPAU_gx_range@@@Z
        FF7304FF15:
          0. 00 0000 0042 0000:?_gx_range_name_lookup@@YAPAU_gx_range_name@@HPBGPAU_gx_range@@@Z
      28FF7424108B430450FF15:
        0. 00 0000 0043 0000:?_gx_range_name_lookup@@YAPAU_gx_range_name@@HPBDPAU_gx_range@@@Z
  8A5C2408:
    0FBEC3:
      50:
        E8........85C059751180FB2E740C80FB5F740780FB24:
          0. 09 A913 0029 0000:?_gx_valid_range_name_char@@YAHD@Z
        FF15........85C059751180FB2E740C80FB5F740780FB:
          0. 0A 1FDD 002A 0000:?_gx_valid_range_name_char@@YAHD@Z
      568BF150:
        E8........85C059740980FB30740433C0EB066A:
          0. 0A 8C71 002A 0000:?SetPaddingCharacter@Format@CGXBCurrencyEdit@@QAEHD@Z
        FF15........85C059740980FB30740433C0EB06:
          0. 0B 2725 002B 0000:?SetPaddingCharacter@Format@CGXBCurrencyEdit@@QAEHD@Z
    568BF1F6C3027424578D7EFC68........FF376A:
      0C56E8:
        0. 07 B312 004B 0000:??_ECGXBrowseDirtyFieldStruct@@QAEPAXI@Z
      1056E8:
        0. 07 B312 004B 0000:??_ECGXFieldInfo@@QAEPAXI@Z
      2056E8:
        0. 07 B312 004B 0000:??_ECGXFieldDesc@@QAEPAXI@Z
      2C56E8:
        0. 07 B312 004B 0000:??_ECGXTabCreateInfo@@UAEPAXI@Z
  8B:
    590C5633F685DB7E29578B7C24108B41088B04B08B50:
      083BD772028BD789:
        0. 19 A12E 0039 0000:?SetRowCount@CGXDelayedRangePool@@QAEXK@Z
      0C3BD772028BD789:
        0. 19 45C8 0039 0000:?SetColCount@CGXDelayedRangePool@@QAEXK@Z
    5C24:
      08:
        55568BF1578B86A80000008B0C988D3C98E8........8B0F0C0150:
          0. 01 3E9B 0085 0000:?PressBtn@CGXBCalculator@@IAEXH@Z
        56:
          33F68B8BB0040000578B81500100003BC6745939B15401000074:
            0. 13 8015 0078 0000:?Rollback@CGXCommandFactory@@UAEXPAVCGXGridCore@@@Z
          57:
            6A0133C95F33F68B0385C0742D8538740E8D44061850E8:
              0. 00 0000 0045 0000:?_gx_free_cell_block_list@@YAXPAU_gx_cell_block_list@@@Z
            85DB8BF98BF30F84FD0000008B470C55BDFF03000023C53BC5:
              0. 04 FD6F 0116 0000:?GetDescription@CGXFont@@QBEXPAD@Z
            8B:
              0383F8FF751A8B710833FF85F676118B51048B0285C07508:
                0. 4D 0144 006D (?)0000:?GetNextAssoc@CGXMapByte8ToPtr@@QBEXAAPAU__POSITION@@AA_JAAPAX@Z
                1. 50 0EBF 0070 0000:?GetNextAssoc@CGXMapFontData@@QBEXAAPAU__POSITION@@AA_JAAUCGXFontData@@@Z
                2. 50 CAEF 0070 0000:?GetNextAssoc@CGXMapFontData@@QBEXAAPAU__POSITION@@AA_JAAUCGXFontData@@@Z
              1383FAFF751A8B710833FF85F676118B41048B1085D27508:
                0. 47 5EDA 0067 (?)0000:?GetNextAssoc@?$CMap@KAAKPAVCGXTabWndMgr@@AAPAV1@@@QBEXAAPAU__POSITION@@AAKAAPAVCGXTabWndMgr@@@Z
                1. 41 BE41 006B 0000:?GetNextAssoc@CGXCollMapDWordToString@@QBEXAAPAU__POSITION@@AAKAAVCString@@@Z
              3383FEFF751A8B510833FF85D276118B41048B3085F67508:
                0. 38 39FE 006D 0000:?GetNextAssoc@CGXCollMapStringToWord@@QBEXAAPAU__POSITION@@AAVCString@@AAG@Z (0012: C2)
                1. 38 39FE 006B 0000:?GetNextAssoc@CGXCollMapStringToHandle@@QBEXAAPAU__POSITION@@AAVCString@@AAPAX@Z (0012: 00)
              7C24145753E8........59:
                83F8:
                  0259752D505753E8:
                    0. 00 0000 004A (l)0000:?opt_rel_row@@YAXHPAUParseState@@@Z
                  12597530505753E8:
                    0. 00 0000 004D (l)0000:?opt_arguments@@YAXHPAUParseState@@@Z
                85C0597532505753E8:
                  0. 11 BD1F 004E (l)0000:?opt_constraint@@YAXHPAUParseState@@PAU_gx_formula@@@Z
              F133FF39BE:
                880000007E398B86AC0000008B0CB8E8:
                  0. 00 0000 00AB 0000:?GadgetFromPoint@CGXBDateTimeCtrl@@QAEHVCPoint@@@Z
                8C0000007E398B86B00000008B0CB8E8:
                  0. 00 0000 00AB 0000:?GadgetFromPoint@CGXBDateTimeCtrl@@QAEHVCPoint@@@Z
              FBC1E702E8........8B:
                4074538B7438FC8D4438FCE8:
                  0. 00 0000 007C 0000:?_gx_free_sheet_context@@YAXH@Z
                80A8000000538B7438FC8D4438FC:
                  0. 01 3E9B 0082 0000:?_gx_free_sheet_context@@YAXH@Z
          8B:
            742410575653E8........5983E821590F84CE000000480F84:
              0. 31 83B7 010D (l)0000:?range_rhs@@YAXHPAUParseState@@@Z
            F1:
              3B5E0476056A0158EB308B442410572BC38D4E0C8D780157:
                0. 02 9E9D 0047 0000:?StoreRemoveRows@CGXData@@UAEHKK@Z
              57:
                837E44008B7E0C740C8B06FF50:
                  4085C074038B7E4883FF:
                    0. 2C 6FFF 004C 0000:?GetNextDataPos@CGXMaskData@@UBEHH@Z
                  4885C074038B7E4883FF:
                    0. 2C B7DC 004C 0000:?GetNextDataPos@CGXMaskData@@UBEHH@Z
                8B46088B560C8BC88BFA334B08337B0C83E1FE0BCF7445:
                  0. 08 9E56 006D 0000:??4CGXFont@@QAEABV0@ABV0@@Z
        85DB57747933FF3B1D........745256:
          6A0C0FB7F356E8:
            0. 02 458D 0094 0000:?ShowContextCursor@CGXGridCore@@UAEXIPBD@Z (REF 001C: ?AfxFindResourceHandle@@YGPAUHINSTANCE__@@PBD0@Z)
            1. 02 458D 0094 0000:?ShowContextCursor@CGXGridCore@@UAEXIPBG@Z (REF 001C: ?AfxFindResourceHandle@@YGPAUHINSTANCE__@@PBG0@Z)
          E8........8B400C8B35:
            0. 00 0000 0094 0000:?ShowContextCursor@CGXGridCore@@UAEXIPBD@Z (REF 001F: LoadCursorA)
            1. 00 0000 0094 0000:?ShowContextCursor@CGXGridCore@@UAEXIPBG@Z (REF 001F: LoadCursorW)
      0C:
        555685DB578BF17D0233DBFF742414:
          E8........3B5E30598BE87C:
            0. 13 D332 0078 0000:?FindMatch@CGXBDTListGadget@@IAEHPBDH@Z
          FF15........3B5E30598BE8:
            0. 14 CCCE 0079 0000:?FindMatch@CGXBDTListGadget@@IAEHPBGH@Z
        56:
          57:
            33FF538BF157FF7424188D4E20E8........8B463C48781F8B:
              0. 11 32AC 004A 0000:?StoreInsertCols@CGXData@@UAEHKK@Z
            85DB8BF97413E8........8B10538BC8FF52048BF085F67504:
              0. 20 D4E2 0040 (?)0000:?CreateSupTabs@CGXTabWndMgr@@UAEHPAVCGXTabCreateInfo@@PAVCMDIChildWnd@@HPAG@Z
              1. 20 F189 0040 (!)0000:?
              2. 20 F189 0040 (?)0000:?CreateSupTabs@CGXTabWndMgr@@UAEHPAVCGXTabCreateInfo@@PAVCMDIChildWnd@@HPAD@Z
            8B:
              7C24108BF1C1EF103B5E:
                1C754E8B463C8D4E3CFF501485C0:
                  0. 1E 61E0 0075 0000:?OnCommand@CGXTabbedComboBoxWnd@@UAEHIJ@Z
                20754E8B46408D4E40FF501485C0:
                  0. 1E ED69 0075 0000:?OnCommand@CGXTabbedComboBoxWnd@@UAEHIJ@Z
              F93B5F:
                1C752F8B442410C1E810663D010075228B473C8D77:
                  0. 26 9FF9 0050 0000:?OnCommand@CGXListBox@@UAEHIJ@Z
                20752F8B442410C1E810663D010075228B47408D77:
                  0. 26 892C 0050 0000:?OnCommand@CGXListBox@@UAEHIJ@Z
          8B:
            74240C668B03576A025F03DF6685C00F84:
              EF0000000FB7D08B:
                0. 47 91A1 0115 0000:?_gx_xs_encode_html@@YAPAGPAGPBG@Z
              F00000000FB7D08B:
                0. 47 2EA9 0116 0000:?_gx_xs_encode_html@@YAPAGPAGPBG@Z
            F157:
              3B5E:
                1C:
                  0F85F90000008B463C8D7E3C8BCFFF501485C00F:
                    0. 29 54F1 011E 0000:?OnCommand@CGXComboBoxWnd@@UAEHIJ@Z
                  75:
                    238B463C8D7E3C8BCFFF501485C074148B4424:
                      0. 1A EE60 0044 (?)0000:?OnCommand@CGXRichEditCtrl@@UAEHIJ@Z (0009: 00)
                    298B86B80000008DBEB80000008BCFFF501485:
                      0. 23 17D7 004D 0000:?OnCommand@CGXCurrencyEdit@@UAEHIJ@Z
                20:
                  0F85F90000008B46408D7E408BCFFF501485C00F:
                    0. 29 54F1 011E 0000:?OnCommand@CGXComboBoxWnd@@UAEHIJ@Z
                  75:
                    238B46408D7E408BCFFF501485C074148B4424:
                      0. 1A 1B94 0044 (?)0000:?OnCommand@CGXRichEditCtrl@@UAEHIJ@Z (0009: 00)
                    298B86C00000008DBEC00000008BCFFF501485:
                      0. 23 1346 004D 0000:?OnCommand@CGXCurrencyEdit@@UAEHIJ@Z
              8B7C241051518BC48938895804E8........33D2F77608:
                0. 2A 0367 004A 0000:?GetAssocAt@CMapNdxToOb@@IBEPAUCAssoc@1@VGXNDX@@AAI@Z
        83FB025772628B7C240C66837C5FFC00755666837C5FFE00754E56:
          0. 03 4E36 0072 0000:?yy_scan_buffer@@YAPAUyy_buffer_state@@PAGI@Z
      1056578B7C24146A005357FF74241C8BF1E8........85C0752C833F:
        0. 0E F1CD 0050 0000:?CalcValidClientRowColFromPt@CGXGridCore@@IAEXAAVCPoint@@PAK1@Z
      18568BF157538B46:
        C0FF763C8D4EC0FF90C40000008B7C241C85FF75:
          0. 0C 9031 006F 0000:?GetControlText@CGXMaskControl@@UAEHAAVCString@@KKPBDABVCGXStyle@@@Z
          1. 0D CEE7 0070 0000:?GetControlText@CGXMaskControl@@UAEHAAVCString@@KKPBGABVCGXStyle@@@Z
        C4FF763C8D4EC4FF90BC0000008B7C241C85FF75:
          0. 0C 9031 006F 0000:?GetControlText@CGXMaskControl@@UAEHAAVCString@@KKPBDABVCGXStyle@@@Z (REF 002C: _strlen)
          1. 0C 9031 006F 0000:?GetControlText@CGXMaskControl@@UAEHAAVCString@@KKPBGABVCGXStyle@@@Z (REF 002C: _wcslen)
    D9:
      5657:
        8B730485F674:
          508B54241033C08A0A84C9740B6BC0210FBEC903C1:
            0. 1B 167C 0064 0000:?RemoveKey@CGXCollMapStringToWord@@QAEHPBD@Z (REF 0053: ?FreeAssoc@CGXCollMapStringToWord@@IAEXPAUCAssoc@1@@Z)
            1. 1B 167C 0064 0000:?RemoveKey@CGXCollMapStringToHandle@@QAEHPBD@Z (REF 0053: ?FreeAssoc@CGXCollMapStringToHandle@@IAEXPAUCAssoc@1@@Z)
          518B54241033C08A0A84C9740B6BC0210FBEC903C1:
            0. 1C 974F 0065 0000:?RemoveKey@CGXCollMapStringToWord@@QAEHPBD@Z (REF 0054: ?FreeAssoc@CGXCollMapStringToWord@@IAEXPAUCAssoc@1@@Z)
            1. 1C 974F 0065 0000:?RemoveKey@CGXCollMapStringToHandle@@QAEHPBD@Z (REF 0054: ?FreeAssoc@CGXCollMapStringToHandle@@IAEXPAUCAssoc@1@@Z)
          528B54241033C0668B0A6685C9740C6BC0210FB7C9:
            0. 1D 1AF9 0066 0000:?RemoveKey@CGXCollMapStringToWord@@QAEHPBG@Z (REF 0055: ?FreeAssoc@CGXCollMapStringToWord@@IAEXPAUCAssoc@1@@Z)
            1. 1D 1AF9 0066 0000:?RemoveKey@CGXCollMapStringToHandle@@QAEHPBG@Z (REF 0055: ?FreeAssoc@CGXCollMapStringToHandle@@IAEXPAUCAssoc@1@@Z)
          538B54241033C0668B0A6685C9740C6BC0210FB7C9:
            0. 1E 86A4 0067 0000:?RemoveKey@CGXCollMapStringToWord@@QAEHPBG@Z (REF 0056: ?FreeAssoc@CGXCollMapStringToWord@@IAEXPAUCAssoc@1@@Z)
            1. 1E 86A4 0067 0000:?RemoveKey@CGXCollMapStringToHandle@@QAEHPBG@Z (REF 0056: ?FreeAssoc@CGXCollMapStringToHandle@@IAEXPAUCAssoc@1@@Z)
        8D73:
          3C8BCEE8........85C0740A8B066A006A0C6A03EB3B558BCB:
            0. 01 3E9B 006E (?)0000:?Initialize@CGXGridWnd@@QAEXXZ (004C: C3)
          408BCEE8........85C0740A8B066A006A0C6A03EB3B558BCB:
            0. 01 3E9B 006E (?)0000:?Initialize@CGXGridWnd@@QAEXXZ (004C: C3)
      6A10E8........85C0597410568B74240C578BF8A5A5A5A55F5EEB0233:
        0. 05 1831 003A 0000:?ExcludeClipRect@CGXControl@@IAEXABVCRect@@@Z
55:
  568BF1:
    33ED396E0474335333DB396E08761E578B46048B3C983BFD740C8D4F:
      0. 02 A1CD 005E 0000:?RemoveAll@CGXCollMapDWordToString@@QAEXXZ
      1. 02 C1AA 0052 (?)0000:?RemoveAll@CGXCollMapStringToWord@@QAEXXZ (002F: C3)
    E8........8B80B004000033ED39A8A40000000F85950000008BCEE8:
      0. 00 0000 00B7 0000:?Paste@CGXDateTimeCtrl@@UAEHXZ
  578B7C240C33ED396F10896F0C74428B07563BC574378B70083BF574305339:
    0. 0B E1E4 0055 (l)0000:?reorder_list@@YAXPAU_gx_cell_block_list@@@Z
  8B:
    6C2408:
      5681FDC5C70000578BF10F82F400000081FDCCC700000F87E80000:
        0. 16 045F 01D8 0000:?OnCommand@CGXBorderPage@@MAEHIJ@Z
      85ED0F84C200000056BE........578BCE33FFE8........3B681C:
        0. 04 6DD6 00D5 0000:?ShowImouseCursor@CGXIntelliMousePlugin@@QAEHI@Z
    EC:
      0FBF451053:
        568D0C408B450C8B751457F644C801018D3CC86A025B7407:
          0. 1D 4D84 04DA (l)0000:?do_print@@YAPAGHPAUgxExprNode@@FPAG@Z
          1. 1D F34B 04DF (l)0000:?do_print@@YAPAGHPAUgxExprNode@@FPAG@Z
        8B5D0C8D0440568B751457F644C301018D3CC37404C60628:
          0. 17 4BAD 0416 (l)0000:?do_print@@YAPADHPAUgxExprNode@@FPAD@Z
          1. 17 86F5 0418 (l)0000:?do_print@@YAPADHPAUgxExprNode@@FPAD@Z
      33:
        C0:
          39450C7C41837D0C177F3B3945107C36837D103B7F303945147C2B:
            0. 10 03DE 004F 0000:?_gx_encode_time@@YAHPANHHH@Z
          5DC20400:
            0. 00 0000 0009 0000:?UnlockResource@@YGHPAX@Z
          837D08000F95C05DC3:
            0. 00 0000 000E 0000:?GrayIf@@YAIH@Z
        C9394D087507394D0C7513EB0D6A0158394508751839450C750E33C0:
          0. 16 AF1D 0036 (l)0000:?compute_xor@@YAHHH@Z
        D23955107D0389551053568B7508578B7D0C8BC68D4FFF3BCA7E168B:
          0. 2B 1A63 0102 (l)0000:?LayoutRowCol@@YGXPAUCRowColInfo@CSplitterWnd@@HHH@Z
      51:
        51:
          53:
            33DB33C0395D08568BF10F95C08945F88B0657FF5030395DF88B:
              0. 22 3CFD 00A9 0000:?InitNewHandler@CGXFrameAdapter@@UAEJIJ@Z
            56:
              33DB578B7D0C8D45FC2B7D08538BF1508D45F8:
                838E00060000:
                  0. 04 C7DA 0164 0000:?UpdateRemoveCols@CGXGridCore@@MAEXKKPAHIH@Z
                895DF8838E04:
                  0. 0A EFA2 0163 0000:?UpdateRemoveRows@CGXGridCore@@MAEXKKPAHIH@Z
              57:
                8B:
                  3D........6A10FFD750E8........8B5D088BF08975FC:
                    0. 0F C9E4 00D9 0000:?_gx_formula_dup@@YAPAU_gx_formula@@PAU1@@Z
                  7D:
                    08:
                      5151DB07DD1C24E8........DDD883C408BE:
                        0. 00 0000 007A (l)0000:?mix_fractions@@YAXAAJ0@Z
                      6A018BF18B47145BF7D084C3895DFC743F538BCFE8:
                        0. 00 0000 00C5 0000:?Serialize@CGXRangeList@@UAEXAAVCArchive@@@Z
                      85FF75136A01FF750CFF71:
                        1CFF15........E9B800:
                          0. 04 94F2 00E1 0000:?OnDrawSplitter@CGXTabWnd@@QAEXPAVCDC@@ABVCRect@@@Z
                        20FF15........E9B800:
                          0. 04 94F2 00E1 0000:?OnDrawSplitter@CGXTabWnd@@QAEXPAVCDC@@ABVCRect@@@Z
                    0C6A018B47145BF7D084C3895DFC7459538BCFE8:
                      0. 00 0000 00DF 0000:?Serialize@CGXGridDocSerializeImp@@UAEXPAVCGXStylePtrArray@@AAVCArchive@@@Z
                  F1:
                    33FF397E44897DFC74098B06FF50:
                      4085C0756E8B4508:
                        0. 2D 1AB5 013A 0000:?IsCharValid@CGXMaskData@@UBEHHAAVCString@@@Z
                      4885C075718B4508:
                        0. 2D 9DD7 0144 0000:?IsCharValid@CGXMaskData@@UBEHHAAVCString@@@Z
                    6A:
                      018B46088B560C59E8........837D0C038945F889:
                        0. 1D 0ED8 025E 0000:?ChangeFont@CGXFont@@QAEAAV1@ABV1@W4GXModifyType@@@Z
                      FFFF761C8D4E08E8........33FF397E1C7E158B46:
                        0. 09 F8A0 0139 0000:?IterateAndLoadDocuments@CGXTabWndMgr@@IAEHAAVCArchive@@PAVCGXDocument@@H@Z
                  F9:
                    33F63977448975FC74098B07FF50:
                      4085C075778B4508:
                        0. 2D 3E89 017E 0000:?IsCharValid@CGXMaskData@@UBEHHAAVCString@@@Z
                      4885C075798B4508:
                        0. 2D A079 018F 0000:?IsCharValid@CGXMaskData@@UBEHHAAVCString@@@Z
                    E8........8BF08BCEE8........8B4F:
                      50FF75088BD8:
                        0. 17 F69D 009F 0000:?RemoveTab@CGXTabWnd@@QAEXPAVCWnd@@@Z
                      54FF75088BD8:
                        0. 17 F35B 009F 0000:?RemoveTab@CGXTabWnd@@QAEXPAVCWnd@@@Z
                8D45FC6A00508D45F88BF950E8........85C00F84820000:
                  0. 3E B3BD 00AC 0000:?DoCtlColor@CGXGridCore@@MAEPAUHBRUSH__@@PAVCDC@@PAVCWnd@@I@Z
              6A10E8........50E8........8B5D088BF08975FC0FBF4306:
                0. 08 873C 00D9 0000:?_gx_formula_dup@@YAPAU_gx_formula@@PAU1@@Z
              8B:
                750857:
                  33FF8D45FC57508D45F88BCE50E8........85C074:
                    0. 04 8071 00CD 0000:?Redo@CGXCommandFactory@@UAEHPAVCGXGridCore@@@Z
                  6A018B86B40000005F5768........50E8:
                    0. 0D A3CC 00E9 0000:?UpdateRecordInfoWnd@CGXRecordInfoWndInterface@@UAEXPAVCGXGridCore@@@Z (REF 0016: ?classCGXRecordInfoWnd@CGXRecordInfoWnd@@2UCRuntimeClass@@B)
                    1. 0D A3CC 00E9 0000:?UpdateRecordInfoWnd@CGXRecordInfoSplitterWndInterface@@UAEXPAVCGXGridCore@@@Z (REF 0016: ?classCGXRecordInfoSplitterWnd@CGXRecordInfoSplitterWnd@@2UCRuntimeClass@@B)
                  8D45086A00508D45FC508BCEE8........85C0745C:
                    0. 03 7AD8 00F0 0000:?Undo@CGXCommandFactory@@UAEHPAVCGXGridCore@@@Z
                F1:
                  57:
                    837E4400741E8B06FF504885C074158B76348B45083B:
                      0. 22 A64E 0164 0000:?FindLastFilledDataPos@CGXMaskData@@UBEHH@Z
                    8B06FF50588D4DFC33FF518D4DF8518D4804C745F8:
                      0. 00 0000 00CC 0000:?Close@CGXGenericViewerImpl@@UAEXXZ
                  E8........6A0068........68........6A008BCEE8:
                    0. 00 0000 009C 0000:?GetOleViewer@CGXOlePreview@@UAEPAVCGXOleViewer@@XZ
              D9EE57DD5DF8E8........6AF48BD8588B7D0C99F77D1C5089:
                0. 05 ABE1 007A (l)0000:?oddfpmt@@YANHHHNHH@Z
            578B7D088BD93BFB743DE8........8B470CF7D81BC085C08945:
              0. 13 D6C3 0055 0000:??4CGXMapDWordToLong@@UAEAAV0@ABV0@@Z
            8365FC00568BF18D45FC57508D7E64FF75088BCFE8........85:
              0. 06 BE52 0063 0000:?RegisterStyle@CGXStylesMap@@QAEGPBDABVCGXStyle@@H@Z (REF 001B: ?Lookup@CMapStringToPtr@@QBEHPBDAAPAX@Z)
              1. 06 BE52 0063 0000:?RegisterStyle@CGXStylesMap@@QAEGPBGABVCGXStyle@@H@Z (REF 001B: ?Lookup@CMapStringToPtr@@QBEHPBGAAPAX@Z)
            8B:
              5D:
                08:
                  33D2568B4344391357894DFC8943348955F80F86900000:
                    0. 98 68AD 00B8 0000:?OnDrawTLBR_InvertCells@CGXGridCore@@IAEXAAUDrawStruct@1@@Z
                  56578B43:
                    148BF9F7D0A801745C668B470C8BCB50E8:
                      0. 00 0000 00D0 0000:?Serialize@CMapNdxToOb@@UAEXAAVCArchive@@@Z
                    588B7D0C894DFC8B04B88B4B508943348B0CB9:
                      0. BE C6CB 00DE 0000:?OnDrawTLBR_InvertCells@CGXGridCore@@IAEXAAUDrawStruct@1@I@Z
                  85DB5674418B41108D7104F7D81BC0836508008365F800:
                    0. 16 6C9E 0055 0000:?IterateObjects@?$CGXNodeManagerNor@VCGXTabWndAdapter@@@@QBEXPBU_iterOp@1@@Z
                0C568BF1578B7D0883BE400200000074318B860804000085:
                  0. 17 25F0 0134 0000:?LookupStyleRowCol@CGXGridCore@@UAEABVCGXStyle@@KK@Z
              D956578BBBB00400008365F8008BB7040100008BCE8B06FF50:
                0. 7D C0F4 0150 0000:?GetStyleRowCol@CGXBrowserGrid@@UAEHKKAAVCGXStyle@@W4GXModifyType@@H@Z
                1. 7D F8EB 0150 0000:?GetStyleRowCol@CGXBrowserGrid@@UAEHKKAAVCGXStyle@@W4GXModifyType@@H@Z
          56:
            57:
              8B:
                7D:
                  0833C08BF18945F839078945FC0F8C930000003947040F:
                    0. 0C 14B9 00C1 0000:?CalcClientRowColFromPt@CGXGridCore@@IAEHAAVCPoint@@PAK1PAVCRect@@@Z
                  0C8B4714F7D0A80174718B7508B8000018008B0E23C83B:
                    0. 0C 940E 013D 0000:?Serialize@CGXStyleSerializeImp@@UAEXAAUCGXPen@@AAVCArchive@@@Z
                F133FF39BEB80400000F84E100000039BE18060000740A8B:
                  0. 1A 5AB8 00FF 0000:?DoCancelMode@CGXGridCore@@MAEHXZ
              8D45FC6A00508D45F88BF150E8........85C07431FF75FC8B:
                0. 52 60CC 0072 0000:?UpdateReadOnly@CGXGridCore@@MAEXHH@Z
              E8........33FF397D087C:
                50837D08027F4A8B750C393E7443:
                  0. 05 A1C8 0067 (l)0000:?convert_operand@@YAXHPAU_gx_operand@@@Z
                51837D08027F4B8B750C393E7444:
                  0. 05 A1C8 0068 (l)0000:?convert_operand@@YAXHPAU_gx_operand@@@Z
                52837D08027F4C8B750C393E7445:
                  0. 05 A1C8 0069 (l)0000:?convert_operand@@YAXHPAU_gx_operand@@@Z
            8B:
              35........578BF96A20FFD6992BC26A02D1F8593BC17E0B6A:
                0. 19 4B71 0069 (?)0000:?AddBorders@CGXRichEditCtrl@@UAE?AVCSize@@V2@ABVCGXStyle@@@Z (002F: 00)
              75:
                08:
                  5733FF397D24894DF8897DFC75168B86B004000005C001:
                    0. 39 5569 00EE 0000:?EvalAllFloatCells@CGXGridFloatCellsImp@@MAEHPAVCGXGridCore@@VCGXRange@@HPAV3@H@Z
                  83BE1806000000746F8B4D0C8B96C0050000578BBEC405:
                    0. 44 FCA0 0088 0000:?OnLButtonUp@CGXGridUserResizeCellsImp@@UAEHPAVCGXGridCore@@AAVCPoint@@AAI@Z
                  8B460CF7D81BC085C089450874278D45FC8BCE508D45F8:
                    0. 06 5C47 004A 0000:?GXDeleteAllObjects@@YGXAAVCMapPtrToPtr@@@Z
                  D9EE837E0801DD5DF8740B68A5000000E8........598B:
                    0. 1A 0777 0078 0000:?_gx_get_one_number@@YANQAU_gx_operand@@@Z
                0CD9EE8B06DD5DF885C0744C83F803742583F806750DFF76:
                  0. 05 128E 0066 (l)0000:?get_number@@YANHPAU_gx_operand@@@Z
                14B9FFFFFF008B168B460423D123C13BD08955FC777B8B45:
                  0. 35 0B39 009C 0000:?_gx_fill_matrix@@YAXU_gx_matrix@@PAU_gx_range@@@Z
              F1:
                57:
                  8B:
                    46:
                      40A802741E83F00233FF894640668B463C668945F8:
                        0. 22 DAD1 0084 0000:?OnChar@CGXBCalculator@@IAEXIII@Z
                      44A802741E83F00233FF894644668B4640668945F8:
                        0. 22 DAD1 0084 0000:?OnChar@CGXBCalculator@@IAEXIII@Z
                    86B0040000837814000F84:
                      980000008B8EB400000068:
                        0. 00 0000 00F6 0000:?DoMouseActivate@CGXGridCore@@MAEHPAVCWnd@@IIAAH@Z
                      99000000FF35........8B:
                        0. 06 5DD3 00F7 0000:?DoMouseActivate@CGXGridCore@@MAEHPAVCWnd@@IIAAH@Z
                  F646:
                    4008740A6AFFFF15........EB628B46706A01D9EE:
                      0. 0F DC40 00E7 0000:?HandleOperator@CGXBCalculator@@IAEHW4CGXBCalcOp@1@@Z
                    4408740A6AFFFF15........EB638B46706A01D9EE:
                      0. 0F F744 00E8 0000:?HandleOperator@CGXBCalculator@@IAEHW4CGXBCalcOp@1@@Z
                837E:
                  7000752053E8........837E74008BD8740D6A016A00:
                    0. 05 28B3 0068 0000:?OnSetText@CGXBCurrencyEdit@@IAEJIJ@Z
                  7400752053E8........837E78008BD8740D6A016A00:
                    0. 05 2590 0068 0000:?OnSetText@CGXBCurrencyEdit@@IAEJIJ@Z
                8B06FF90:
                  4404000085C074158D45FC6A00508D45F8508BCE:
                    0. 01 3E9B 0053 0000:?Cut@CGXBrowserGrid@@UAEHXZ
                  6005000085C0750733C0E9850000008B86B00400:
                    0. 4B F4C4 00A3 0000:?CanCut@CGXBrowserGrid@@UAEHXZ
                E8........:
                  33D239502874388BCEE8........FF75208B40:
                    0. 3B 43ED 005B 0000:?CalcSize@CGXStatic@@UAE?AVCSize@@PAVCDC@@KKABVCGXStyle@@PBV4@H@Z
                  8D45FC8BCE508D45F850E8........8B45F83B:
                    0. 39 0203 0062 0000:?OnLButtonUp@CGXMaskControl@@IAEXIVCPoint@@@Z
                    1. 39 4795 0062 0000:?OnLButtonUp@CGXMaskControl@@IAEXIVCPoint@@@Z
                FF:
                  15........50E8........8B8EB40000003BC1751D837D:
                    0. 0F 57E7 027E 0000:?ProcessKeys@CGXBrowserGrid@@UAEHPAVCWnd@@IIII@Z
                    1. 0F 5AC4 027E 0000:?ProcessKeys@CGXBrowserGrid@@UAEHPAVCWnd@@IIII@Z
                  75088B06838E:
                    00060000FFFF906001000085C0752D508D:
                      0. 0A 254A 00B4 0000:?UpdateChangedColWidths@CGXGridCore@@MAEXKKPAHIH@Z
                    04060000FFFF905C01000085C0752D508D:
                      0. 0A D058 00B4 0000:?UpdateChangedRowHeights@CGXGridCore@@MAEXKKPAHIH@Z
            8D45:
              F86A00508D45FC8BF150E8........85C074:
                118BCEE8:
                  0. 00 0000 0031 0000:?IsOnFirstRecord@CGXBrowserGrid@@QAEHXZ
                148B068BCEFF:
                  0. 12 DAF8 0032 0000:?IsOnLastRecord@CGXBrowserGrid@@QAEHXZ
              FC6A00508D45F88BF150E8........85C074:
                10FF75FC8B06:
                  0. 0E 7BF4 002E 0000:?GetCurrentCellControl@CGXGridCore@@QAEPAVCGXControl@@XZ
                1FFF75FC8B06:
                  0. 1E 35E5 0047 0000:?GetSelectedText@CGXGridCore@@QAEXAAVCString@@@Z
                22FF75FC8B06:
                  0. 24 370C 0044 0000:?DoCommand@CGXGridCore@@MAEHIJ@Z
            E8........8BF056FF7510FF750CE8........83C40C85C0740D:
              0. 18 67B2 005C (l)0000:?lookup@@YAHPAU_gx_operand@@HH@Z
          817D08544E0000568BF175128D45F850FF15........8B4DF88B55:
            0. 12 D9EA 007C 0000:?OnTimer@CGXGridDropTargetPlugin@@IAEXI@Z
          83:
            65F80053568B75085766813E11200F85D20000008B46088B5810:
              0. 02 9E9D 00F5 0000:?LocateBitmap@CGXDataDib@@SGPAXABVCOleVariant@@H@Z
            7D:
              08:
                005356:
                  578BF10F84:
                    D10000008D5E608BCBE8........8D7E:
                      0. 04 B810 0219 0000:?UpdateSettings@CGXHeaderFooterDialog@@MAEXH@Z
                    D90000008D5E608BCBE8........8D7E:
                      0. 04 B810 0221 0000:?UpdateSettings@CGXHeaderFooterDialog@@MAEXH@Z
                  8BF1578D4E5C0F84:
                    D1000000E8........8D7E608B:
                      0. 02 632D 0216 0000:?UpdateSettings@CGXHeaderFooterDialog@@MAEXH@Z
                    D5000000E8........8D7E608B:
                      0. 02 632D 021A 0000:?UpdateSettings@CGXHeaderFooterDialog@@MAEXH@Z
                08568BF157C746:
                  400100000075488B06FF90BC00000085C0:
                    0. 5C 87D0 0196 0000:?OnMouseWheel@CGXMouseWheelPlugin@@IAEHIFVCPoint@@@Z
                  440100000075488B06FF90C400000085C0:
                    0. 5C 7E18 0196 0000:?OnMouseWheel@CGXMouseWheelPlugin@@IAEHIFVCPoint@@@Z
              0C0053565774488B75086A088BCE8B06FF50:
                34FF35:
                  0. 07 14DC 00D2 0000:?OnGridPrepareDC@CGXGridCore@@UAEXPAVCDC@@PAUCPrintInfo@@@Z
                3CFF35:
                  0. 07 14DC 00D2 0000:?OnGridPrepareDC@CGXGridCore@@UAEXPAVCDC@@PAUCPrintInfo@@@Z
              14045356578B7D10894DFC0F84DB00000085FF0F84D3000000:
                0. 0E 9EC8 0112 0000:?StoreStyle@CGXProgressCtrl@@UAEHKKPBVCGXStyle@@W4GXModifyType@@H0@Z
          8B:
            01FF50588365FC008D4DFC518D4DF8518D4804C745F8:
              0. 01 3E9B 002A 0000:?GetStorage@CGXGenericViewerImpl@@UAEPAUIStorage@@XZ (REF 001C: _IID_IStorage)
              1. 01 3E9B 002A 0000:?GetOleObject@CGXGenericViewerImpl@@UAEPAUIOleObject@@XZ (REF 001C: _IID_IOleObject)
            41:
              0883F80174:
                3183F80274277E1D83F8047E0A83F8057513DD41:
                  0. 0B 3008 004D 0000:?GetDoubleValue@CGXUserAttribute@@UBENXZ
                  1. 0B E8ED 004D 0000:?GetDoubleValue@CGXUserAttribute@@UBENXZ
                3283F80274287E1E83F8047E0A83F8057514DD41:
                  0. 0B E8ED 004E 0000:?GetDoubleValue@CGXUserAttribute@@UBENXZ
                3383F80274297E1F83F8047E0A83F8057515DD41:
                  0. 0C 465E 004F 0000:?GetDoubleValue@CGXUserAttribute@@UBENXZ
              308B15........568B35........85C08975F875038955F885:
                0. 1B BC2C 0047 0000:?OnDrawBevel@CGXBPanel@@UAEHPAVCDC@@@Z
            45:
              08:
                568BF16A008B48088B400C8945FC8D45F8894DF8508BCEE8:
                  0. 00 0000 003F 0000:?CalcBottomRowFromRect@CGXGridCore@@QAEKABVCRect@@@Z (001B: C9) (REF 0020: ?CalcClientRowFromPt@CGXGridCore@@QAEKAAVCPoint@@PAH@Z)
                  1. 00 0000 003F 0000:?CalcRightColFromRect@CGXGridCore@@QAEKABVCRect@@@Z (001B: C9) (REF 0020: ?CalcClientColFromPt@CGXGridCore@@QAEKAAVCPoint@@PAH@Z)
                  2. 00 0000 004B 0000:?CalcBottomRowFromRect@CGXGridCore@@QAEKABVCRect@@AAH@Z (001B: 64)
                  3. 00 0000 004B 0000:?CalcRightColFromRect@CGXGridCore@@QAEKABVCRect@@AAH@Z (001B: 68)
                8365:
                  F8008365FC008981AC0400008B018D55F852FF90C004:
                    0. 06 77ED 0026 0000:?SetGridCursor@CGXGridCore@@UAEXI@Z
                  FC008945F8DF6DF8DC0D........C9C20400:
                    0. 00 0000 001C 0000:?Size_ui2lf@CGXFont@@KGNI@Z
              0C568945F88B45108945FC8D45F8578BF150FF76:
                1CFF15:
                  0. 00 0000 0058 0000:?OnRButtonUp@CGXBCurrencyEdit@@IAEXIVCPoint@@@Z
                20FF15:
                  0. 00 0000 0058 0000:?OnRButtonUp@CGXBCurrencyEdit@@IAEXIVCPoint@@@Z
              1033C93908742989088B451466894DFC8B4D0C668B00668945:
                0. 0E CFC7 0048 0000:?GXGetDoubleByteChar@@YGHGAAVCString@@AAHAAG@Z
              14565733FF3BC78BF1897DFC897DF8752BE8........8B108B:
                0. 0A BB40 00B9 0000:?ConvertControlTextToValue@CGXMaskControl@@UAEHAAVCString@@KKPBVCGXStyle@@@Z
            4D0883B9180600000074558B550C568BB1C0050000578B028BB9:
              0. 4C BB07 006C 0000:?OnMouseMove@CGXGridUserResizeCellsImp@@UAEHPAVCGXGridCore@@AAVCPoint@@AAI@Z
          8D45:
            F856508D45:
              0C508D45FC5033F6FF750CFF7508E8........83:
                0. 0E 3794 00AB 0000:?_gx_edate@@YAJHJH@Z
              FC5068........FF75088BF1:
                E8........83C410:
                  0. 18 E988 0048 0000:?SetGrouping@Format@CGXBCurrencyEdit@@QAEHPBD@Z (REF 000F: ??_C@_05EAHD@?$CFi?$DL?$CFi?$AA@)
                  1. 18 E988 0048 0000:?SetGrouping@Format@CGXBCurrencyEdit@@QAEHPBG@Z (REF 000F: ??_C@_1M@HHE@?$AA?$CF?$AAi?$AA?$DL?$AA?$CF?$AAi?$AA?$AA@)
                FF15........83C4:
                  0. 19 CF1D 0049 0000:?SetGrouping@Format@CGXBCurrencyEdit@@QAEHPBD@Z (REF 000F: ??_C@_05EAHD@?$CFi?$DL?$CFi?$AA@)
                  1. 19 CF1D 0049 0000:?SetGrouping@Format@CGXBCurrencyEdit@@QAEHPBG@Z (REF 000F: ??_C@_1M@HHE@?$AA?$CF?$AAi?$AA?$DL?$AA?$CF?$AAi?$AA?$AA@)
            FE508D45F8506A01E8........6A01E8........C9C3:
              0. 00 0000 001D 0000:?UpdateDateTimeSettings@CGXNoOleDateTimeImp@@UAEXXZ
            FF508D45F8506A01E8........6A01E8........C9C3:
              0. 00 0000 001D 0000:?UpdateDateTimeSettings@CGXNoOleDateTimeImp@@UAEXXZ
          D9EEDD5DF8DD4508DC1D........DFE09E7727DD4508DC4D08B8:
            0. 00 0000 006C (l)0000:?asym@@YANN@Z
          DD:
            05........DD45:
              08D8D9DFE09E7343DDD8D9E85151DC6508DD55:
                0. 03 44A1 00C6 0000:?_gx_gammalog@@YANN@Z
              10D8D9DFE09E7253DD4508D8D9DFE09E7649DD:
                0. 06 430F 006A (l)0000:?gammp@@YANNN@Z
            45:
              08:
                5151D9E0DD5508DD1C24:
                  E8........DD55F8DD4508D8E159:
                    0. 03 CEE4 00BA (l)0000:?neg@@YANN@Z
                  FF15........DD55F8DD4508D8E1:
                    0. 04 A9F2 00BC (l)0000:?neg@@YANN@Z
                DC05........5151DD5DF8DD4510DD1C24DD45F85151DD1C:
                  0. 02 5220 004B (l)0000:?mon_pmt@@YANNNNNH@Z
              18DC1D........DFE09E0F82:
                37010000DD4518DC1D:
                  0. 0E 5878 015E 0000:?_gx_betai@@YANNNN@Z
                39010000DD4518DC1D:
                  0. 0E A2E3 0160 0000:?_gx_betai@@YANNNN@Z
          E8........:
            A1........8B0D........DD05........8945F833C0:
              0. 0E 2B3F 004C 0000:?_gx_drand48@@YANXZ
            FF75148B108D4DF8FF7510FF750C518BC8FF927C0400:
              0. 14 4B83 0034 0000:?AddBorders@CGXControl@@UAE?AVCSize@@V2@ABVCGXStyle@@@Z
          FF7538D9EE5151DD5DF8DD4530DD1C24DD45185151DD1C24DD4510:
            0. 0E 062D 00A6 (l)0000:?do_cumipmt@@YANNNNNNNH@Z (006D: DD)
            1. 0E 062D 009C (l)0000:?do_cumprinc@@YANNNNNNNH@Z (006D: C3)
        53:
          33DB66395D0856578BF1746D0FB77D083BBE1C02000075088B8618:
            0. 14 D62E 008B 0000:?GetRegisteredControl@CGXGridCore@@UAEPAVCGXControl@@G@Z
          56:
            57:
              33FF397D088BF174:
                3B39BEC00000007E338D45FC57508D8EB8:
                  0. 04 9897 0078 0000:?AddColorProperty@CGXProperties@@QAEHPBGK@Z
                3C39BEC00000007E348D45FC57508D8EB8:
                  0. 04 9897 0079 0000:?AddColorProperty@CGXProperties@@QAEHPBGK@Z
                4239BEC00000007E3A8D45FC57508D8EB8:
                  0. 04 9897 007F 0000:?AddColorProperty@CGXProperties@@QAEHPBDK@Z
                4339BEC00000007E3B8D45FC57508D8EB8:
                  0. 04 9897 0080 0000:?AddColorProperty@CGXProperties@@QAEHPBDK@Z
              6A018BF15F576A028B0657FF90000300008B8EB0040000E8:
                0. 00 0000 00B5 0000:?DeleteRows@CGXBrowserGrid@@UAEXABVCDWordArray@@0@Z
              837D0C0074276A018B450CC1E002508B4D0851E8........85:
                0. 06 927E 0086 (?)0000:?ConstructElements@@YGXPAKH@Z (005F: 00)
              894DFC:
                68B601000068........8B45FC50E8........837D08:
                  0. 09 B862 0071 0000:?SetAtGrow@?$CArray@PAVCGXTabCreateInfo@@PAV1@@@QAEXHPAVCGXTabCreateInfo@@@Z
                6A:
                  008D4508508B4DFCE8........8BC8E8........85:
                    0. 06 498C 0056 0000:?RecycleObject@?$CGXCaptiveManager@VCOleVariant@@@@QAEXPAVCOleVariant@@@Z
                  018B450883C0:
                    0850E8........8B4D088B55FC8B42:
                      0. 2A B602 0078 0000:?FreeNode@?$CList@PAVCOleVariant@@AAPAV1@@@IAEXPAUCNode@1@@Z
                    0C50E8........6A018B4D0883C108:
                      0. 02 2EAE 0086 0000:?FreeAssoc@?$CMap@KAAKPAVCGXTabWndAdapter@@AAPAV1@@@IAEXPAUCAssoc@1@@Z (REF 0014: ?DestructElements@@YGXPAPAVCGXTabWndAdapter@@H@Z)
                      1. 02 2EAE 0086 0000:?FreeAssoc@?$CMap@PBU_GUID@@AAPBU1@PAUIUnknown@@AAPAU2@@@IAEXPAUCAssoc@1@@Z (REF 0014: ?DestructElements@@YGXPAPAUIUnknown@@H@Z)
                      2. 02 2EAE 0086 0000:?FreeAssoc@?$CMap@PBQAXAAPBQAXPAXAAPAX@@IAEXPAUCAssoc@1@@Z (REF 0014: ?DestructElements@@YGXPAPAXH@Z)
                      3. 02 2EAE 0086 0000:?FreeAssoc@?$CMap@KAAKPAVCGXTabWndMgr@@AAPAV1@@@IAEXPAUCAssoc@1@@Z (REF 0014: ?DestructElements@@YGXPAPAVCGXTabWndMgr@@H@Z)
                837D:
                  08007C0B8B45FC8B4D083B48087C1468:
                    06010000:
                      0. 01 361F 004A 0000:?ElementAt@?$CArray@PAVCGXTabCreateInfo@@PAV1@@@QAEAAPAVCGXTabCreateInfo@@H@Z
                    AD000000:
                      0. 01 361F 0056 0000:?SetAt@CGXSortInfoArray@@QAEXHUCGXSortInfo@@@Z
                    B0000000:
                      0. 01 361F 004C 0000:?ElementAt@CGXSortInfoArray@@QAEAAUCGXSortInfo@@H@Z
                    FE000000:
                      0. 01 361F 004A 0000:?GetAt@?$CArray@PAVCGXTabCreateInfo@@PAV1@@@QBEPAVCGXTabCreateInfo@@H@Z
                  0C007C0B8B45FC8B4D0C3B48087C1468AA000000:
                    0. 01 361F 0059 0000:?GetAt@CGXSortInfoArray@@QBE?AUCGXSortInfo@@H@Z
                  FC00751468:
                    E102000068........E8........85:
                      0. 1A 4ED9 003A 0000:?GetProperties@CGXGridParam@@QAEPAVCGXProperties@@XZ
                    E402000068........E8........85:
                      0. 1A B839 003A 0000:?GetData@CGXGridParam@@QAEPAVCGXData@@XZ
                    E702000068........E8........85:
                      0. 1A E465 003A 0000:?GetStylesMap@CGXGridParam@@QAEPAVCGXStylesMap@@XZ
                    EA02000068........E8........85:
                      0. 19 52B0 0039 0000:?GetRangeList@CGXGridParam@@QAEPAVCGXRangeList@@XZ
                    ED02000068........E8........85:
                      0. 19 27B0 0039 0000:?GetCoveredCellsList@CGXGridParam@@QAEPAVCGXRangeList@@XZ
                    F002000068........E8........85:
                      0. 17 4C16 0037 0000:?GetSheetName@CGXGridParam@@QAEABVCString@@XZ
                    F602000068........E8........85:
                      0. 1A 8638 003A 0000:?IsInit@CGXGridParam@@QBEHXZ
                8B:
                  45:
                    0825FFFF00003D:
                      000100007C14684803000068:
                        0. 00 0000 006C 0000:?SetBaseStyle@CGXStyle@@QAEAAV1@G@Z
                      FFFF00007E1468CC01000068:
                        0. 00 0000 0051 0000:?SetControl@CGXStyle@@QAEAAV1@G@Z
                    FC:
                      83:
                        78:
                          2400740C8B4DFCE8........85C0751468:
                            0. 05 8A5F 004E 0000:?GetBordersRef@CGXStyle@@QBEABUCGXPen@@W4GXBorderType@@@Z
                            1. 05 F3C7 005A 0000:?GetBorders@CGXStyle@@QBE?AUCGXPen@@W4GXBorderType@@@Z
                          2800740C8B4DFCE8........85C0751468:
                            0. 05 EAB1 0046 0000:?GetFontRef@CGXStyle@@QBEABVCGXFont@@XZ
                        B8B80400000075116A:
                          6468........E8:
                            0. 00 0000 007F 0000:?SetValueRange@CGXGridCore@@QAEHABVCGXRange@@PBDW4GXModifyType@@HI@Z (REF 0062: ?SetValue@CGXStyle@@QAEAAV1@PBD@Z)
                            1. 00 0000 007F 0000:?SetValueRange@CGXGridCore@@QAEHABVCGXRange@@PBGW4GXModifyType@@HI@Z (REF 0062: ?SetValue@CGXStyle@@QAEAAV1@PBG@Z)
                          6968........E8:
                            0. 00 0000 007F 0000:?SetValueRange@CGXGridCore@@QAEHABVCGXRange@@ABVCString@@W4GXModifyType@@HI@Z
                          7568........E8:
                            0. 00 0000 007F 0000:?SetValueRange@CGXGridCore@@QAEHABVCGXRange@@KW4GXModifyType@@HI@Z
                      8B48:
                        1C51FF15........85C075116A3468:
                          0. 00 0000 004F 0000:?GetSel@CGXMaskControl@@QBEKXZ
                        2051FF15........85C075116A3468:
                          0. 00 0000 004F 0000:?GetSel@CGXMaskControl@@QBEKXZ
                  4DFCE8........:
                    85C075:
                      116A:
                        5468........E8:
                          0. 00 0000 0046 0000:?GetWeight@CGXFont@@QBEJXZ
                        5C68........E8:
                          0. 00 0000 0048 0000:?GetBold@CGXFont@@QBEHXZ
                        6E68........E8:
                          0. 00 0000 0046 0000:?GetItalic@CGXFont@@QBEHXZ
                        7D68........E8:
                          0. 00 0000 0046 0000:?GetUnderline@CGXFont@@QBEHXZ
                      1468:
                        2C01000068:
                          0. 01 3E9B 003F 0000:?GetStyle@CGXPen@@QBEIXZ
                        3401000068:
                          0. 01 3E9B 0044 0000:?GetWidth@CGXPen@@QBEHXZ
                        4303000068:
                          0. 01 3E9B 0045 0000:?GetBaseStyle@CGXStyle@@QBEGXZ
                        5903000068:
                          0. 01 3E9B 003D 0000:?GetChoiceListRef@CGXStyle@@QBEABVCString@@XZ
                        5E02000068:
                          0. 01 3E9B 0043 0000:?GetWrapText@CGXStyle@@QBEHXZ
                        6D02000068:
                          0. 01 3E9B 0043 0000:?GetAutoSize@CGXStyle@@QBEHXZ
                        7403000068:
                          0. 01 3E9B 0043 0000:?GetEnabled@CGXStyle@@QBEHXZ
                        7C02000068:
                          0. 01 3E9B 0043 0000:?GetAllowEnter@CGXStyle@@QBEHXZ
                        8303000068:
                          0. 01 3E9B 0043 0000:?GetTriState@CGXStyle@@QBEHXZ
                        8B02000068:
                          0. 01 3E9B 0043 0000:?GetFloatCell@CGXStyle@@QBEHXZ
                        8C00000068:
                          0. 01 3E9B 0049 0000:?GetStrikeOut@CGXFont@@QBEHXZ
                        9203000068:
                          0. 01 3E9B 0040 0000:?GetDraw3dFrame@CGXStyle@@QBE?AW4GXDraw3dFrameType@@XZ
                        9A02000068:
                          0. 01 3E9B 0043 0000:?GetFloodCell@CGXStyle@@QBEHXZ
                        9B00000068:
                          0. 01 3E9B 004C 0000:?GetSize@CGXFont@@QBENXZ
                        A103000068:
                          0. 01 3E9B 003D 0000:?GetItemDataPtr@CGXStyle@@QBEPAXXZ
                        A902000068:
                          0. 01 3E9B 0043 0000:?GetMergeCell@CGXStyle@@QBEIXZ
                        AA00000068:
                          0. 01 3E9B 004C 0000:?GetOrientation@CGXFont@@QBEJXZ
                        B8:
                          01000068:
                            0. 01 3E9B 0043 0000:?GetReadOnly@CGXStyle@@QBEHXZ
                          02000068:
                            0. 01 3E9B 0040 0000:?GetFormat@CGXStyle@@QBEIXZ
                        B900000068:
                          0. 01 3E9B 0045 0000:?GetFaceName@CGXFont@@QBEPBDXZ (REF 003A: ?FaceName_ui2str@CGXFont@@KGPBDI@Z)
                          1. 01 3E9B 0045 0000:?GetFaceName@CGXFont@@QBEPBGXZ (REF 003A: ?FaceName_ui2str@CGXFont@@KGPBGI@Z)
                        BE00000068:
                          0. 01 3E9B 0042 0000:?GetFaceNameId@CGXFont@@QBEIXZ
                        C7:
                          01000068:
                            0. 01 3E9B 003E 0000:?GetControl@CGXStyle@@QBEGXZ
                          02000068:
                            0. 01 3E9B 0043 0000:?GetPlaces@CGXStyle@@QBEIXZ
                        D601000068:
                          0. 01 3E9B 003E 0000:?GetMaxLength@CGXStyle@@QBEGXZ
                        E501000068:
                          0. 01 3E9B 0043 0000:?GetVertScrollBar@CGXStyle@@QBEHXZ
                        F401000068:
                          0. 01 3E9B 004B 0000:?GetInterior@CGXStyle@@QBE?AUCGXBrush@@XZ
                        F901000068:
                          0. 01 3E9B 003D 0000:?GetInteriorRef@CGXStyle@@QBEABUCGXBrush@@XZ
                    8B45FC8378:
                      0400754B8B4DFC8379:
                        0. 0A 6D0F 0111 0000:?AssertValid@?$CArray@PAVCGXTabCreateInfo@@PAV1@@@UBEXXZ
                      0800771468EA050000:
                        0. 01 361F 0068 (?)0000:?AssertValid@?$CMap@KAAKPAVCGXTabWndAdapter@@AAPAV1@@@UBEXXZ (0046: C3)
                      0C0075488B4DFC8379:
                        0. 0A F13C 00C6 0000:?AssertValid@?$CList@PAVCOleVariant@@AAPAV1@@@UBEXXZ
                FF7508FF15........8B:
                  5D0C8B75108D78FF830BFF83:
                    0. 1D 209F 00B7 0000:?FindFirstAndLastDigits@Format@CGXBCurrencyEdit@@UBEHPBGAAH1@Z
                    1. 16 7323 0098 0000:?FindFirstAndLastDigits@Format@CGXBCurrencyEdit@@UBEHPBDAAH1@Z
                    2. 1E F4B2 00B9 0000:?FindFirstAndLastDigits@Format@CGXBCurrencyEdit@@UBEHPBGAAH1@Z
                  7D0C8B75108D58FF830FFF83:
                    0. 15 96B7 0098 0000:?FindFirstAndLastDigits@Format@CGXBCurrencyEdit@@UBEHPBDAAH1@Z
              8B:
                7D20BE000100008B87040400003B870004000075:
                  5139B708:
                    0. 12 D22C 00EA (l)0000:?_gxAddFont@@YAHPBDHHPAUtagLOGFONTA@@PAUtagTEXTMETRICA@@HPAUCGXFontInfoArray@@@Z
                  5439B708:
                    0. 12 10A3 0103 (l)0000:?_gxAddFont@@YAHPBGHHPAUtagLOGFONTW@@PAUtagTEXTMETRICW@@HPAUCGXFontInfoArray@@@Z
                    1. 12 79D7 0102 (l)0000:?_gxAddFont@@YAHPBGHHPAUtagLOGFONTW@@PAUtagTEXTMETRICW@@HPAUCGXFontInfoArray@@@Z
                F1:
                  E8........:
                    85C08B068BCE740BFF9098010000E9CC0000:
                      0. 14 2762 010D 0000:?Copy@CGXOlePreview@@UAEHXZ
                    8B3D........6A006A00684B010000FFB6:
                      A8:
                        0. 1B 04F7 008D 0000:?OnInitDialog@CGXBasedOnPage@@MAEHXZ
                      B0:
                        0. 1B D23D 008D 0000:?OnInitDialog@CGXBasedOnPage@@MAEHXZ
                  FF:
                    15........50E8........3BC6740C8B066A008BCEFF:
                      0. D2 5452 036B 0000:?OnMouseMove@CGXSplitterWnd@@IAEXIVCPoint@@@Z
                      1. D2 C3D5 0371 0000:?OnMouseMove@CGXSplitterWnd@@IAEXIVCPoint@@@Z
                    75:
                      088BBEC8000000E8........FF750C8BD8E8:
                        0. 00 0000 0068 0000:?StoreMoveCols@CGXFormulaSheet@@UAEHKKK@Z (0047: 00)
                        1. 00 0000 0069 0000:?StoreMoveRows@CGXFormulaSheet@@UAEHKKK@Z (0047: 0C)
                      108B06FF750CFF90:
                        040100008BF88B0633DB8BCE53:
                          0. 09 248B 014B 0000:?OnLButtonDblClk@CGXSplitterWnd@@IAEXIVCPoint@@@Z
                        FC0000008BF88B0633DB8BCE53:
                          0. 09 8283 0148 0000:?OnLButtonDblClk@CGXSplitterWnd@@IAEXIVCPoint@@@Z
                F9:
                  8B07FF501485C0741E8B57EC33C985D27E158B47E88BF0:
                    0. 22 6DBC 00AA 0000:?GetSelectedText@CGXDateTimeCtrl@@UAEHAAVCString@@@Z
                  FF75088BB7C8000000E8........FF750C8945FCE8:
                    0. 00 0000 00B0 0000:?SetFormatRowCol@CGXFormulaSheet@@QAEHKKII@Z
              E8........8B40048B7004E8........8B:
                581CE8........8B:
                  0. 03 3042 021B (l)0000:?yy_get_next_buffer@@YAHXZ
                781CE8........8B:
                  0. 03 CB8F 0206 (l)0000:?yy_get_next_buffer@@YAHXZ
            8B:
              75:
                08:
                  33DB57399E940200000F84C6020000399E980200000F84:
                    0. 38 55D9 02E7 0000:?OnGridDrop@CGXGridDropTargetPlugin@@UAEHPAVCGXGridCore@@PAVCGXNoOleDataObjectProxy@@KVCPoint@@@Z
                    1. 38 58FA 02E7 0000:?OnGridDrop@CGXGridDropTargetPlugin@@UAEHPAVCGXGridCore@@PAVCGXNoOleDataObjectProxy@@KVCPoint@@@Z
                  578BF98B4614F7D0A8017448FF770C8BCEE8........33:
                    0. 1F 5146 00A0 0000:?Serialize@?$CMap@KAAKPAVCGXTabWndAdapter@@AAPAV1@@@UAEXAAVCArchive@@@Z (REF 004D: ?SerializeElements@@YGXAAVCArchive@@PAPAVCGXTabWndAdapter@@H@Z)
                    1. 1F 5146 00A0 0000:?Serialize@?$CMap@KAAKPAVCGXCellTipWnd@@AAPAV1@@@UAEXAAVCArchive@@@Z (REF 004D: ?SerializeElements@@YGXAAVCArchive@@PAPAVCGXCellTipWnd@@H@Z)
                    2. 1F 5146 00A0 0000:?Serialize@?$CMap@KAAKPAVCGXOleViewer@@AAPAV1@@@UAEXAAVCArchive@@@Z (REF 004D: ?SerializeElements@@YGXAAVCArchive@@PAPAVCGXOleViewer@@H@Z)
                    3. 1F 5146 00A0 0000:?Serialize@?$CMap@PBU_GUID@@AAPBU1@PAUIUnknown@@AAPAU2@@@UAEXAAVCArchive@@@Z (REF 003F: ?SerializeElements@@YGXAAVCArchive@@PAPBU_GUID@@H@Z)
                    4. 1F 5146 00A0 0000:?Serialize@?$CMap@PBQAXAAPBQAXPAXAAPAX@@UAEXAAVCArchive@@@Z (REF 003F: ?SerializeElements@@YGXAAVCArchive@@PAPBQAXH@Z)
                    5. 1F 5146 00A0 0000:?Serialize@?$CMap@KAAKPAVCGXTabWndMgr@@AAPAV1@@@UAEXAAVCArchive@@@Z (REF 004D: ?SerializeElements@@YGXAAVCArchive@@PAPAVCGXTabWndMgr@@H@Z)
                0C57:
                  56FF8E8C1400008B868C140000668B9C46FC12000048:
                    0. 26 AE1A 00B1 (l)0000:?do_conditional@@YAXHPAUParseState@@@Z
                  8B:
                    5D088BBEB00400008B47408945FC33C03987040100:
                      0. 58 7120 0078 0000:?ExecuteCommand@CGXCommandFactory@@UAEHPAVCGXCommand@@PAVCGXGridCore@@W4GXCmdType@@@Z
                      1. 58 C519 0078 0000:?ExecuteCommand@CGXCommandFactory@@UAEHPAVCGXCommand@@PAVCGXGridCore@@W4GXCmdType@@@Z
                    7D08894DFCFF36FF37E8........8B06:
                      508A18E8:
                        0. 00 0000 005D 0000:?ParseQuotedText@CGXBDateTimeCtrl@@IAEXAAPBD0I@Z
                      8B1D:
                        0. 00 0000 0060 0000:?ParseQuotedText@CGXBDateTimeCtrl@@IAEXAAPBD0I@Z
              F157:
                837E:
                  440074:
                    05E8........8B7D08FF35........8BCF8B:
                      0. 63 45E3 0083 0000:?OnDraw@CGXBPanel@@UAEHPAVCDC@@@Z
                      1. 63 71CA 0083 0000:?OnDraw@CGXBPanel@@UAEHPAVCDC@@@Z
                    1E8B06FF504085C074158B76348B45083BC6:
                      0. 39 AD0A 0174 0000:?FindLastFilledDataPos@CGXMaskData@@UBEHH@Z
                      1. 39 C33B 015D 0000:?FindLastFilledDataPos@CGXMaskData@@UBEHH@Z
                  E0000F840C010000FF75108D5E:
                    C08BCBFF750CE8:
                      0. 00 0000 013C 0000:?LButtonUp@CGXMaskControl@@UAEHIVCPoint@@I@Z
                    C48BCBFF750CE8:
                      0. 00 0000 013C 0000:?LButtonUp@CGXMaskControl@@UAEHIVCPoint@@I@Z
                8B:
                  7D088B86B004000089B8B40200008B06FF50688BCE89:
                    0. 03 E947 00A0 0000:?SetMaxColWidth@CGXBrowserGrid@@QAEXH@Z
                  86:
                    9C0000003945080F8C0C0100008B4D0833DB2BC83B:
                      0. 3F 489D 012B 0000:?SwitchToTab@CGXTabBeam@@UAEXVCPoint@@@Z
                    A00000003945080F8C0C0100008B4D0833DB2BC83B:
                      0. 3F B686 012B 0000:?SwitchToTab@CGXTabBeam@@UAEXVCPoint@@@Z
                    F404000085C074088B8E10050000EB068B8E700400:
                      0. 26 0499 0081 0000:?EvalVisibleFloatMergeCells@CGXGridCore@@QAEHABVCGXRange@@HPAV2@H@Z
            8D4508578BF950E8........83BF:
              6815000000C745FC01000000:
                0. 05 6650 00F7 0000:?AddDateToList@CGXBCalendar@@IAEHVCOleDateTime@@@Z
              7C15000000C745FC01000000:
                0. 05 6650 00F7 0000:?AddDateToList@CGXBCalendar@@IAEHVCOleDateTime@@@Z
          57:
            8B7D0C6A015B8B4714895DFCF7D084C3742B538BCFE8:
              0. 13 118F 009A 0000:?Serialize@CGXGridDocSerializeImp@@UAEXPAVCGXData@@AAVCArchive@@@Z
            FF15........8B:
              4D0C8B5D0833FF8945FC8939393D........75:
                0. 05 5A26 01EA 0000:?DoMessages@CGXLongOperationImp@@UAEHPAVCGXLongOperation@@AAH@Z (01C4: 00)
                1. 05 5A26 01EC 0000:?DoMessages@CGXLongOperationImp@@UAEHPAVCGXLongOperation@@AAH@Z (01C4: C2)
                2. 05 5A26 01ED 0000:?DoMessages@CGXLongOperationImp@@UAEHPAVCGXLongOperation@@AAH@Z (01C4: C9)
              7D0833DB391D........8945FC750A2B073B05:
                0. 00 0000 0135 0000:?DoMessages@CGXLongOperationImp@@UAEHPAVCGXLongOperation@@@Z (0114: 00)
                1. 00 0000 0137 0000:?DoMessages@CGXLongOperationImp@@UAEHPAVCGXLongOperation@@@Z (0114: C2)
                2. 00 0000 0139 0000:?DoMessages@CGXLongOperationImp@@UAEHPAVCGXLongOperation@@@Z (0114: 5B)
          8365FC0056570FB77D088BF18D45FC50578D9E200200008BCBE8:
            0. 00 0000 008A 0000:?RegisterControl@CGXGridCore@@QAEXGPAVCGXControl@@HH@Z
          8B:
            1D........568B7508578B3D........8B4608C745FC01000000:
              0. 19 E399 00BF (?)0000:?CompareDeviceHandles@CGXPrintDeviceImp@@UAEHPAVCGXPrintDevice@@PAUtagDEVNAMES@@KPAU_devicemodeA@@K@Z (0085: 00)
            5D:
              0856:
                578B43148BF1F7D0A8017439FF76088BCBE8........33:
                  0. 13 EC82 00A7 0000:?Serialize@CGXUserAttributeMap@@UAEXAAVCArchive@@@Z
                8BF1:
                  85DB:
                    0F84:
                      E00100008B06578DBE9000000057FF9000:
                        0. C7 8ACA 01F9 0000:?StartTracking@CGXSplitterWnd@@UAEXH@Z
                      E10100008B06578DBE9400000057FF9008:
                        0. C7 BA35 01FA 0000:?StartTracking@CGXSplitterWnd@@UAEXH@Z
                    744B8D45086A00508D45FC50E8........85C0:
                      0. 58 B57D 00CB 0000:?SetPrinting@CGXGridCore@@UAEXHH@Z
                      1. 58 B85E 00CB 0000:?SetPrinting@CGXGridCore@@UAEXHH@Z
                  8D45088D8EA00000005053894DFCE8........85C0:
                    0. 05 06BC 00A6 0000:?AddUserAttribute@CGXStylesMap@@QAEXGPBVCGXStyle@@@Z
              28568B7108578B7D083BFE894DFC6AFF7C0B8D041F50E8:
                0. 00 0000 0096 0000:?InsertAt@CGXSortInfoArray@@QAEXHUCGXSortInfo@@H@Z (0075: 00)
                1. 00 0000 0097 0000:?InsertAt@CGXSortInfoArray@@QAEXHUCGXSortInfo@@H@Z (0075: 24)
            D9568B75108B4308578B7D088945FC3BF86AFF7C0B8D043750E8:
              0. 00 0000 0092 0000:?InsertAt@?$CArray@PAVCGXTabCreateInfo@@PAV1@@@QAEXHPAVCGXTabCreateInfo@@H@Z (0071: 00)
              1. 00 0000 0093 0000:?InsertAt@?$CArray@PAVCGXTabCreateInfo@@PAV1@@@QAEXHPAVCGXTabCreateInfo@@H@Z (0071: 0C)
        56:
          57:
            8BF1E8........8365FC008DBE:
              2C0200008D450C8BCF50E8:
                0. 00 0000 00E0 0000:?OnLButtonDown@CGXBCalendar@@QAEXIVCPoint@@@Z
              400200008D450C8BCF50E8:
                0. 00 0000 00E0 0000:?OnLButtonDown@CGXBCalendar@@QAEXIVCPoint@@@Z
            FF15........8B4D0C33FF8945FC8939393D........750F8B75:
              0. 05 6F09 01FE 0000:?DoMessages@CGXLongOperationImp@@UAEHPAVCGXLongOperation@@AAH@Z
          8B:
            75:
              08C1EE035781FEFFFFFF7F8BF9720433C0EB5F8B47088065FF:
                0. 19 2F5C 007F 0000:?SetBitAt@CGXBitArray@@QAEHKH@Z
              0C5756E8........8945FC590FBFC08D04408D3CC68B04C624:
                0. 13 2E06 00B9 (l)0000:?push_number@@YAXHPAUParseState@@@Z (0085: C3)
                1. 13 2E06 00BB (l)0000:?push_number@@YAXHPAUParseState@@@Z (0085: 5E)
                2. 13 FF1A 00B8 (l)0000:?push_number@@YAXHPAUParseState@@@Z (0084: C3)
                3. 13 FF1A 00B9 (l)0000:?push_number@@YAXHPAUParseState@@@Z (0084: C9)
              1457F6460602740EF6461803740883450C02834510028B81B0:
                0. 49 7818 0171 0000:?AddBorders@CGXGridCore@@UAE?AVCSize@@V2@ABVCGXStyle@@@Z
            F1:
              578B:
                46:
                  40A802741883F0028065FE008946408A463C8845FC8A:
                    0. 0F 73E5 0091 0000:?OnChar@CGXBCalculator@@IAEXIII@Z
                  44A802741883F0028065FE008946448A46408845FC8A:
                    0. 0C 0673 0095 0000:?OnChar@CGXBCalculator@@IAEXIII@Z
                C6BF004000008945FC857E04742A8D4DFC5133C98A481F:
                  0. 05 A500 0047 0000:?LoadBaseStyle@CGXStyle@@UAEXABVCGXStylesMap@@@Z
              83:
                7EE0000F84FB0000008B06FF501485C00F85EE0000008BCE:
                  0. 01 3E9B 0121 0000:?LButtonDblClk@CGXMaskControl@@UAEHIVCPoint@@@Z
                BE9804000000756D578B7D0885FF74168B86B4000000FF77:
                  0. 06 0EB3 0082 0000:?OnGridSetFocus@CGXGridCore@@MAEXPAVCWnd@@@Z
                  1. 06 2766 0082 0000:?OnGridSetFocus@CGXGridCore@@MAEXPAVCWnd@@@Z
              8B4E:
                3C85C9741E8D55FC8B0152FF7510FF750CFF7508FF9034:
                  0. 18 45F5 0041 0000:?WindowProc@CGXGridHandleWnd@@MAEJIIJ@Z
                4085C9741E8D55FC8B0152FF7510FF750CFF7508FF9034:
                  0. 18 45F5 0041 0000:?WindowProc@CGXGridHandleWnd@@MAEJIIJ@Z
                4885C9741E8D55FC8B0152FF7510FF750CFF7508FF90:
                  10:
                    0. 18 45F5 0041 0000:?OnMouseActivate@CGXGridHandleView@@IAEHPAVCWnd@@II@Z
                  34:
                    0. 18 45F5 0041 0000:?WindowProc@CGXGridHandleView@@MAEJIIJ@Z
                4C85C9741E8D55FC8B0152FF7510FF750CFF7508FF90:
                  10:
                    0. 18 45F5 0041 0000:?OnMouseActivate@CGXGridHandleView@@IAEHPAVCWnd@@II@Z
                  34:
                    0. 18 45F5 0041 0000:?WindowProc@CGXGridHandleView@@MAEJIIJ@Z
              8D45FC57508D7E10FF75088BCFE8........85C074408B45FC:
                0. 07 7E73 0063 0000:?RemoveStyle@CGXStylesMap@@QAEXG@Z
              E8........85C074278B8E:
                980000008D45FC50E8........85:
                  0. 06 B5AC 0048 0000:?GetBackgroundColor@CGXBCurrencyEdit@@IBEKXZ
                A00000008D45FC50E8........85:
                  0. 06 B5AC 0048 0000:?GetBackgroundColor@CGXBCurrencyEdit@@IBEKXZ
          8D45FC:
            5750FF75088BF9E8........8BF085F6753D394704750AFF:
              0. 05 EE08 0060 0000:??ACGXCollMapStringToWord@@QAEAAGPBD@Z (REF 0010: ?GetAssocAt@CGXCollMapStringToWord@@IBEPAUCAssoc@1@PBDAAI@Z)
              1. 05 EE08 0060 0000:??ACGXCollMapStringToHandle@@QAEAAPAXPBD@Z (REF 0010: ?GetAssocAt@CGXCollMapStringToHandle@@IBEPAUCAssoc@1@PBDAAI@Z)
              2. 05 EE08 0060 0000:??ACGXCollMapStringToWord@@QAEAAGPBG@Z (REF 0010: ?GetAssocAt@CGXCollMapStringToWord@@IBEPAUCAssoc@1@PBGAAI@Z)
              3. 05 EE08 0060 0000:??ACGXCollMapStringToHandle@@QAEAAPAXPBG@Z (REF 0010: ?GetAssocAt@CGXCollMapStringToHandle@@IBEPAUCAssoc@1@PBGAAI@Z)
            8BF15051518D45088BCC50E8........8BCEE8........85:
              0. 10 9BFF 0069 0000:??ACMapNdxToOb@@QAEAAPAVCObject@@VGXNDX@@@Z
              1. 13 E26A 0033 0000:?Lookup@CMapNdxToOb@@QBEHVGXNDX@@AAPAVCObject@@@Z
          FF7508E8........8BB0F0FF01005985F60F84E30000005357BFFF:
            0. 80 D118 0102 0000:?_gx_adjust_reorder_named_ranges@@YAXHPAU_gx_range@@HHHH@Z
        57:
          33FF393D........7437837D08FF74315633F6397D087E24538D59:
            0. 09 9A41 004E 0000:?GetCharPos@CGXMaskData@@UBEHH@Z (0019: C7)
            1. 09 9A41 004E 0000:?GetEditPos@CGXMaskData@@UBEHH@Z (0019: C6)
          8BF9FF7518FF7514FF7510FF750CFF7508E8........837D140474:
            0. 20 860C 0093 0000:?StoreStyleRowCol@CGXUserPropertyGrid@@UAEHKKPBVCGXStyle@@W4GXModifyType@@H@Z
        660FBE45108365FC0050FF750CFF7508E8........8B4508C9C20C00:
          0. 00 0000 0020 0000:??H@YG?AVCString@@ABV0@D@Z
        6A00:
          E8........8945FC8D45FC50E8........8B550859598B481489:
            0. 2B 5E65 004B 0000:?_gx_current_time@@YAXPAH00000@Z
          FF15........8945FC8D45FC50FF15........8B550859598B48:
            0. 2D 4C34 004D 0000:?_gx_current_time@@YAXPAH00000@Z
        83:
          3D........FF7416E8........3B05........7E09C745FC010000:
            0. 11 2442 0031 0000:?GetLockedState@CGXLongOperation@@SGHXZ
          65FC00:
            53:
              56:
                578B:
                  7D088BF13B7D0C77258B451085C074053945FC7F:
                    0. 07 7E19 0044 0000:?CalcSumOfClientRowHeights@CGXGridCore@@QAEHKKH@Z (0009: 5C)
                    1. 07 7E19 0044 0000:?CalcSumOfClientColWidths@CGXGridCore@@QAEHKKH@Z (0009: 60)
                  B9B0040000:
                    8DB1B400000068........8B0E8B9F:
                      0. 05 8716 004D 0000:?OnPrintHeaderAndFooter@CGXGridCore@@UAEXPAVCDC@@PAUCPrintInfo@@@Z
                    FF35........8DB1B40000008B9FF4:
                      0. 06 9323 004E 0000:?OnPrintHeaderAndFooter@CGXGridCore@@UAEXPAVCDC@@PAUCPrintInfo@@@Z
                8B75:
                  08578B7D0C6A02668B075A03FA6685C00F843D01:
                    0. F2 B9B3 016A 0000:?_gx_xs_decode_string@@YAPAGPAGPBG@Z
                  0C578B7D088A064684C00F84FD000000FF45FC81:
                    0. B4 7BC7 0127 0000:?_gx_xs_decode_string@@YAPADPADPBD@Z
              8B5D0856578B7D0CF68374020000088DB374020000740E:
                0. 34 009C 0054 0000:?OnDndQueryAcceptData@CGXGridDropTargetPlugin@@UAEHPAVCGXGridCore@@PAVCGXNoOleDataObjectProxy@@@Z
                1. 34 04B3 0054 0000:?OnDndQueryAcceptData@CGXGridDropTargetPlugin@@UAEHPAVCGXGridCore@@PAVCGXNoOleDataObjectProxy@@@Z
            56:
              578BF1E8........8D4DFC8D7E0451508BCFE8:
                0. 05 B72D 004B 0000:?GetData@?$CGXProcessLocal@UGX_INTELLI_STATE@@@@QAEPAUGX_INTELLI_STATE@@XZ (REF 0025: ?CreateObject@?$CGXProcessLocal@UGX_INTELLI_STATE@@@@SGPAVCNoTrackObject@@XZ)
                1. 05 B72D 004B 0000:?GetData@?$CGXProcessLocal@UGX_SCROLLTIP_STATE@@@@QAEPAUGX_SCROLLTIP_STATE@@XZ (REF 0025: ?CreateObject@?$CGXProcessLocal@UGX_SCROLLTIP_STATE@@@@SGPAVCNoTrackObject@@XZ)
                2. 05 B72D 004B 0000:?GetData@?$CGXProcessLocal@UGX_ENGINE_MEMOBJ_STATE@@@@QAEPAUGX_ENGINE_MEMOBJ_STATE@@XZ (REF 0025: ?CreateObject@?$CGXProcessLocal@UGX_ENGINE_MEMOBJ_STATE@@@@SGPAVCNoTrackObject@@XZ)
              8BF1:
                8D45FC57508D7E048D4508508BCFE8........85C0:
                  0. 12 0513 0045 0000:?CreateObject@?$CGXNodeManagerNor@VCGXTabWndAdapter@@@@UAEPAVCGXTabWndAdapter@@K@Z
                  1. 05 20AD 0056 0000:?CreateObject@CGXViewerManager@@UAEPAVCGXOleViewer@@K@Z
                  2. 0B 5042 0063 0000:?CreateObject@CGXCellTipWndManager@@UAEPAVCGXCellTipWnd@@K@Z
                  3. 06 C666 0046 0000:?CreateObject@?$CGXNodeManager@VCGXOleViewer@@@@UAEPAVCGXOleViewer@@K@Z (REF 001A: ?Lookup@?$CMap@KAAKPAVCGXOleViewer@@AAPAV1@@@QBEHAAKAAPAVCGXOleViewer@@@Z)
                  4. 06 C666 0046 0000:?CreateObject@?$CGXNodeManager@VCGXTabWndMgr@@@@UAEPAVCGXTabWndMgr@@K@Z (REF 001A: ?Lookup@?$CMap@KAAKPAVCGXTabWndMgr@@AAPAV1@@@QBEHAAKAAPAVCGXTabWndMgr@@@Z)
                  5. 06 C666 0046 0000:?CreateObject@?$CGXNodeManager@VCGXCellTipWnd@@@@UAEPAVCGXCellTipWnd@@K@Z (REF 001A: ?Lookup@?$CMap@KAAKPAVCGXCellTipWnd@@AAPAV1@@@QBEHAAKAAPAVCGXCellTipWnd@@@Z)
                E8........85C074:
                  158B480885C9740EFF750C8B01:
                    0. 0D 3C97 003E 0000:?ParseText@CGXProperties@@UAE?AVCString@@PBG@Z (REF 002D: ??_C@_11A@?$AA?$AA@)
                    1. 0D 3C97 003E 0000:?ParseText@CGXProperties@@UAE?AVCString@@PBD@Z (REF 002D: ??_C@_00A@?$AA@)
                    2. 0D 9A9F 003E 0000:?GetTokenArgs@CGXProperties@@QAE?AVCString@@AAV2@@Z
                  188B480885C97411FF75108B01:
                    0. 10 D72A 0041 0000:?SubstTokenText@CGXProperties@@UAE?AVCString@@HAAV2@@Z
            81C118010000518B4D08E8........8B4508C9C20400:
              0. 00 0000 001E 0000:?GetDefaultSQL@CGXDynamicRecordset@@UAE?AVCString@@XZ
            83:
              7D0C00568BF17507C7450C........FF15........2B06:
                0. 16 498C 0042 0000:?GetStrFTime@CGXLongOperation@@QBE?AVCString@@PAD@Z (REF 0014: ??_C@_08DKN@?$CFH?3?$CFM?3?$CFS?$AA@)
                1. 16 498C 0042 0000:?GetStrFTime@CGXLongOperation@@QBE?AVCString@@PAG@Z (REF 0014: ??_C@_1BC@DBLM@?$AA?$CF?$AAH?$AA?3?$AA?$CF?$AAM?$AA?3?$AA?$CF?$AAS?$AA?$AA@)
              C1:
                14518B4D08E8........8B4508C9C20400:
                  0. 00 0000 001B (?)0000:?GetTextLabel@CGXBPanel@@QAE?AVCString@@XZ
                18518B4D08E8........8B4508C9C20400:
                  0. 00 0000 001B 0000:?GetText@CGXChild@@UAE?AVCString@@XZ
                28518B4D08E8........8B4508C9C20400:
                  0. 00 0000 001B 0000:?GetCaption@CGXBDTStaticGadget@@QBE?AVCString@@XZ
            8D45FC50:
              81C1DC000000FF7508E8........85C0740B8B45:
                0. 0F BD6E 002F 0000:?GetFirstGrid@CGXAppData@@QBEPAVCGXGridCore@@PAX@Z
              83C1:
                48FF7508E8........668B45FCC9C20400:
                  0. 00 0000 001F 0000:?GetBaseStyleId@CGXStylesMap@@QBEGI@Z
                64FF7508E8........668B45FCC9C20400:
                  0. 00 0000 001F 0000:?GetBaseStyleId@CGXStylesMap@@QBEGPBG@Z (REF 0013: ?Lookup@CMapStringToPtr@@QBEHPBGAAPAX@Z)
                  1. 00 0000 001F 0000:?GetBaseStyleId@CGXStylesMap@@QBEGPBD@Z (REF 0013: ?Lookup@CMapStringToPtr@@QBEHPBDAAPAX@Z)
              8D45085083C104E8........F7D81BC02345FCC9:
                0. 03 8E1E 0023 (?)0000:?GetObjectW@?$CGXNodeManagerNor@VCGXTabWndAdapter@@@@UAEPAVCGXTabWndAdapter@@K@Z
              FF15........85C07D0433C0C9C38B45FC508B08:
                0. 08 BCE0 0028 0000:?CanPaste@CGXGenericViewerImpl@@UAEHXZ
            E8........FF751C8B108BC8FF7518FF7514FF7510FF750C:
              0. 0D A96B 002D (?)0000:?GXFormatText@@YG?AVCString@@ABVCGXStyle@@PBGIPAVCGXGridCore@@PAVCGXControl@@@Z
            FF4D10568B7508578B7D0C668B07668906464647476685C0:
              0. 1A 94FA 0048 0000:?_gx_fn_xsstrcpy@@YAXPAGPBGH@Z
          7D08:
            0056578BF90F84AE0000008B4D08BE3ACE000056E8:
              0. 13 C81C 00C8 0000:?SetBinaryFlags@CGXDaoGrid@@UAEHPBVCGXStyle@@H@Z
            015675088BB174040000EB068BB1780400008D45FC8B89B400:
              0. 0B B2DD 004A 0000:?GetScrollRange@CGXGridCore@@MBEXHPAK0@Z
            027509C745FC02000000EB0C33C0837D08060F94C08945FC8B:
              0. 08 C6F4 0028 0000:?AlignTAToES@@YGJI@Z
        894DFC:
          538B4D0856578B1183FA030F84C60000008B450C8B3083FE03:
            0. 70 60D8 00F3 0000:?UnionRange@CGXRange@@QAEHABV1@0@Z
          668B4508508B4DFCE8........8BC8E8........508B4D0CE8:
            0. 00 0000 002A 0000:?GetUserAttribute@CGXStyle@@QBEXGAAVCString@@@Z
          683DCE00008B4DFCE8........8BE55DC3:
            0. 00 0000 0018 0000:?GetIncludeNegativeStateColor@CGXStyle@@QBEHXZ
          6A:
            00:
              6AFF8B4DFCE8........8BE55DC3:
                0. 00 0000 0017 0000:?SetSelNone@CGXBCurrencyEdit@@IAEHXZ
              8B:
                4518506A008B4D14518B5510528B450C508B4D08518B:
                  0. 10 8B37 0030 (?)0000:?SetStyleRange@CGXBrowserGrid@@QAEHABVCGXRange@@ABVCGXStyle@@W4GXModifyType@@HI@Z
                4DFCE8........8BE55DC3:
                  0. 00 0000 0015 0000:?Close@CGXOleViewer@@UAEXXZ
            0168........8B45FC8B88B400000051E8........8BE55D:
              0. 07 5DB9 01E5 0000:?GetTabWnd@CGXGridCore@@QBEPAVCGXTabWnd@@XZ 0021:?GetTabName@CGXGridCore@@QAE?AVCString@@XZ 0114:?SetTabName@CGXGridCore@@QAEXVCString@@@Z
              1. 01 EF04 0021 0000:?GetRecordInfoWnd@CGXGridCore@@QBEPAVCGXRecordInfoWnd@@XZ
            08:
              6A008B45FC50E8........83C40C8B4DFC8B1183CA078B:
                0. 1E B914 003E 0000:??0CGXPen@@QAE@XZ
              8B4508508B4DFC51E8........83C40C:
                8B45FC8BE55DC2:
                  0. 02 2768 0022 (?)0000:??4CGXPen@@QAEAAU0@ABU0@@Z
                F7D81BC0:
                  408BE5:
                    0. 04 057A 0024 (?)0000:??8CGXPen@@QBEHABU0@@Z
                  F7D88B:
                    0. 05 1E44 0025 0000:??9CGXBrush@@QBEHABU0@@Z
            0A8B4DFC:
              83C104E8........8B45FCC700........8B:
                45FC:
                  0. 04 A1B6 0024 0000:??0?$CGXCaptiveManager@VCOleVariant@@@@QAE@XZ (REF 0010: ??0?$CList@PAVCOleVariant@@AAPAV1@@@QAE@H@Z)
                  1. 04 A1B6 0024 0000:??0?$CGXHandleManager@PAX@@QAE@XZ (REF 0010: ??0?$CMap@PBQAXAAPBQAXPAXAAPAX@@QAE@H@Z)
                  2. 04 A1B6 0024 0000:??0?$CGXInterfaceManager@UIUnknown@@@@QAE@XZ (REF 0010: ??0?$CMap@PBU_GUID@@AAPBU1@PAUIUnknown@@AAPAU2@@@QAE@H@Z)
                4DFC:
                  0. 0F C5C1 002F 0000:??0?$CGXNodeManager@VCGXCellTipWnd@@@@QAE@PAUCRuntimeClass@@@Z (REF 0010: ??0?$CMap@KAAKPAVCGXCellTipWnd@@AAPAV1@@@QAE@H@Z)
                  1. 0F C5C1 002F 0000:??0?$CGXNodeManager@VCGXTabWndMgr@@@@QAE@PAUCRuntimeClass@@@Z (REF 0010: ??0?$CMap@KAAKPAVCGXTabWndMgr@@AAPAV1@@@QAE@H@Z)
                  2. 0F C5C1 002F 0000:??0?$CGXNodeManager@VCGXOleViewer@@@@QAE@PAUCRuntimeClass@@@Z (REF 0010: ??0?$CMap@KAAKPAVCGXOleViewer@@AAPAV1@@@QAE@H@Z)
              E8........8B45FCC700........8B45FC8BE55D:
                0. 01 EF04 0021 0000:??0CGXRangeList@@QAE@XZ (REF 000D: ??0CPtrList@@QAE@H@Z)
                1. 01 EF04 0021 0000:??0CGXMapCellToOb@@QAE@XZ (REF 000D: ??0CMapNdxToOb@@QAE@H@Z)
                2. 01 EF04 0021 0000:??0CGXMapDWordToLong@@QAE@XZ (REF 000D: ??0CGXCollMapDWordToLong@@QAE@H@Z)
            3C8B4D08E8........508B4DFCE8........50E8:
              0. 0E 34A8 002E 0000:?IsEqual@CGXFont@@QBEHABV1@@Z
            5C8B4D08E8........508B4DFCE8........50E8:
              0. 0E 34A8 002E 0000:?IsEqual@CGXFont@@QBEHABV1@@Z
            FF:
              6A008B4DFCE8........8BE55DC3:
                0. 00 0000 0017 0000:?SetSelAll@CGXBCurrencyEdit@@IAEHXZ
              8B4510508B4D0C518B5508526A008B45FC8B108B4DFCFF:
                0. 08 4ED7 0028 0000:?GetColStyle@CGXGridCore@@QAEHKAAVCGXStyle@@W4GXModifyType@@@Z
          8B:
            45:
              08:
                25FF:
                  00000083E0:
                    01C1E0:
                      028B4DFC8B511883E2FB0BD0:
                        0. 0C 297D 0036 0000:?SetReadOnly@CGXStyle@@QAEAAV1@H@Z
                      038B4DFC8B511883E2F70BD0:
                        0. 0C 297D 0036 0000:?SetVertScrollBar@CGXStyle@@QAEAAV1@H@Z
                      048B4DFC8B511883E2EF0BD0:
                        0. 0C 297D 0036 0000:?SetWrapText@CGXStyle@@QAEAAV1@H@Z
                      058B4DFC8B511883E2DF0BD0:
                        0. 0C 297D 0036 0000:?SetAllowEnter@CGXStyle@@QAEAAV1@H@Z
                      068B4DFC8B511883E2BF0BD0:
                        0. 0C 297D 0036 0000:?SetEnabled@CGXStyle@@QAEAAV1@H@Z
                      078B4DFC8B511880E27F0BD0:
                        0. 0C 297D 0036 0000:?SetTriState@CGXStyle@@QAEAAV1@H@Z
                      088B4DFC8B511880E6FE0BD0:
                        0. 0C 297D 0036 0000:?SetAutoSize@CGXStyle@@QAEAAV1@H@Z
                      098B4DFC8B511880E6FD0BD0:
                        0. 0C 297D 0036 0000:?SetFloodCell@CGXStyle@@QAEAAV1@H@Z
                      0A8B4DFC8B511880E6FB0BD0:
                        0. 0C 297D 0036 0000:?SetFloatCell@CGXStyle@@QAEAAV1@H@Z
                    038B4DFC8B511883E2FC0BD08B45FC:
                      0. 09 CC1D 0033 0000:?SetDraw3dFrame@CGXStyle@@QAEAAV1@W4GXDraw3dFrameType@@@Z
                  FF0000C1E0038B4DFC8B1181E20700F8FF0BD08B:
                    0. 0A C119 0034 0000:?SetWidth@CGXPen@@QAEAAU1@H@Z
                50:
                  6A008B4DFC83C10CE8........8BC8E8........6A:
                    0. 05 AF6E 002F 0000:?SetInterior@CGXStyle@@QAEAAV1@K@Z
                  8B4D:
                    08518B4DFCE8........8BE55DC20400:
                      0. 00 0000 001D 0000:?SetCols@CGXRange@@QAEAAV1@K@Z (REF 0013: ?SetCols@CGXRange@@QAEAAV1@KK@Z)
                      1. 00 0000 001D 0000:?SetRows@CGXRange@@QAEAAV1@K@Z (REF 0013: ?SetRows@CGXRange@@QAEAAV1@KK@Z)
                    FC:
                      83C1:
                        0CE8........6A018B4DFCE8:
                          0. 06 6154 0026 0000:?SetInterior@CGXStyle@@QAEAAV1@ABUCGXBrush@@@Z
                        14E8........8BE55DC20400:
                          0. 00 0000 001C 0000:?SetMonetarySymbol@Format@CGXBCurrencyEdit@@QAEXPBG@Z (REF 0012: ??4CString@@QAEABV0@PBG@Z)
                          1. 00 0000 001C 0000:?SetMonetarySymbol@Format@CGXBCurrencyEdit@@QAEXPBD@Z (REF 0012: ??4CString@@QAEABV0@PBD@Z)
                        2CE8........6A008B4DFCE8:
                          0. 06 E8F8 0030 0000:?SetValue@CGXStyle@@QAEAAV1@PBD@Z (REF 0012: ??4CString@@QAEABV0@PBD@Z)
                          1. 06 E8F8 0030 0000:?SetValue@CGXStyle@@QAEAAV1@ABVCString@@@Z (REF 0012: ??4CString@@QAEABV0@ABV0@@Z)
                          2. 06 E8F8 0030 0000:?SetValue@CGXStyle@@QAEAAV1@PBG@Z (REF 0012: ??4CString@@QAEABV0@PBG@Z)
                        30E8........6A018B4DFCE8:
                          0. 06 6154 0026 0000:?SetChoiceList@CGXStyle@@QAEAAV1@PBD@Z (REF 0012: ??4CString@@QAEABV0@PBD@Z)
                          1. 06 6154 0026 0000:?SetChoiceList@CGXStyle@@QAEAAV1@PBG@Z (REF 0012: ??4CString@@QAEABV0@PBG@Z)
                          2. 06 6154 0026 0000:?SetChoiceList@CGXStyle@@QAEAAV1@ABVCString@@@Z (REF 0012: ??4CString@@QAEABV0@ABV0@@Z)
                      8B:
                        118B4DFCFF5218F7D81BC0408BE55DC204:
                          0. 01 78F0 0021 0000:??9Format@CGXBCurrencyEdit@@UBEHABV01@@Z
                        89B4000000E8........8BE55DC20400:
                          0. 00 0000 001F 0000:?Invalidate@CGXGridCore@@IAEXH@Z (REF 0015: ?Invalidate@CWnd@@QAEXH@Z)
                          1. 00 0000 001F 0000:?GetClientRect@CGXGridCore@@IAEXPAUtagRECT@@@Z (REF 0015: ?GetClientRect@CWnd@@QBEXPAUtagRECT@@@Z)
                      E8........:
                        68........8B4DFC8B51085268:
                          0. 00 0000 007D 0000:?Dump@?$CArray@PAVCGXTabCreateInfo@@PAV1@@@UBEXAAVCDumpContext@@@Z
                        8B:
                          45FC8BE55DC20400:
                            558BEC83:
                              0. 45 7965 0614 0000:??0CGXPen@@QAE@PBD@Z 001C:?SetDescription@CGXPen@@QAEAAU1@PBD@Z 03B7:?GetDescription@CGXPen@@QBEXPAD@Z 04E9:?GetDescription@CGXPen@@QBE?AVCString@@XZ (05AE: 00)
                              1. 45 7965 061A 0000:??0CGXPen@@QAE@PBD@Z 001C:?SetDescription@CGXPen@@QAEAAU1@PBD@Z 03BD:?GetDescription@CGXPen@@QBEXPAD@Z 04EF:?GetDescription@CGXPen@@QBE?AVCString@@XZ (05AE: 5B)
                              2. 45 7965 0665 0000:??0CGXPen@@QAE@PBG@Z 001C:?SetDescription@CGXPen@@QAEAAU1@PBG@Z 03C3:?GetDescription@CGXPen@@QBEXPAG@Z 04F5:?GetDescription@CGXPen@@QBE?AVCString@@XZ (05AE: FF)
                              3. 46 EE81 0671 0000:??0CGXPen@@QAE@PBG@Z 001C:?SetDescription@CGXPen@@QAEAAU1@PBG@Z 03CF:?GetDescription@CGXPen@@QBEXPAG@Z 0501:?GetDescription@CGXPen@@QBE?AVCString@@XZ
                            ..:
                              0. 00 0000 001C 0000:??0STYLEBITS@CGXStyle@@QAE@K@Z (REF 000F: ?SetPortable@STYLEBITS@CGXStyle@@QAEXK@Z)
                              1. 00 0000 001C 0000:??4CGXStyle@@UAEABV0@PBG@Z (REF 000F: ?SetValue@CGXStyle@@QAEAAV1@PBG@Z)
                              2. 00 0000 001C 0000:??4CGXStyle@@UAEABV0@PBD@Z (REF 000F: ?SetValue@CGXStyle@@QAEAAV1@PBD@Z)
                          4D:
                            0C:
                              89088BE55DC20800:
                                0. 00 0000 001E 0000:?SetAt@CGXCollMapDWordToLong@@QAEXKJ@Z
                              8B1189108BE55DC20800:
                                0. 00 0000 0020 0000:?SetAt@?$CMap@KAAKPAVCGXCellTipWnd@@AAPAV1@@@QAEXAAKAAPAVCGXCellTipWnd@@@Z (REF 000F: ??A?$CMap@KAAKPAVCGXCellTipWnd@@AAPAV1@@@QAEAAPAVCGXCellTipWnd@@AAK@Z)
                                1. 00 0000 0020 0000:?SetAt@?$CMap@KAAKPAVCGXOleViewer@@AAPAV1@@@QAEXAAKAAPAVCGXOleViewer@@@Z (REF 000F: ??A?$CMap@KAAKPAVCGXOleViewer@@AAPAV1@@@QAEAAPAVCGXOleViewer@@AAK@Z)
                                2. 00 0000 0020 0000:?SetAt@?$CMap@PBU_GUID@@AAPBU1@PAUIUnknown@@AAPAU2@@@QAEXAAPBU_GUID@@AAPAUIUnknown@@@Z (REF 000F: ??A?$CMap@PBU_GUID@@AAPBU1@PAUIUnknown@@AAPAU2@@@QAEAAPAUIUnknown@@AAPBU_GUID@@@Z)
                                3. 00 0000 0020 0000:?SetAt@?$CMap@PBQAXAAPBQAXPAXAAPAX@@QAEXAAPBQAXAAPAX@Z (REF 000F: ??A?$CMap@PBQAXAAPBQAXPAXAAPAX@@QAEAAPAXAAPBQAX@Z)
                                4. 00 0000 0020 0000:?SetAt@?$CMap@KAAKPAVCGXTabWndMgr@@AAPAV1@@@QAEXAAKAAPAVCGXTabWndMgr@@@Z (REF 000F: ??A?$CMap@KAAKPAVCGXTabWndMgr@@AAPAV1@@@QAEAAPAVCGXTabWndMgr@@AAK@Z)
                                5. 00 0000 0020 0000:?SetAt@?$CMap@KAAKPAVCGXTabWndAdapter@@AAPAV1@@@QAEXAAKAAPAVCGXTabWndAdapter@@@Z (REF 000F: ??A?$CMap@KAAKPAVCGXTabWndAdapter@@AAPAV1@@@QAEAAPAVCGXTabWndAdapter@@AAK@Z)
                            FCC701........8B:
                              45FC8B:
                                0. 05 1E44 0025 0000:??0?$CTypedPtrMap@VCMapPtrToPtr@@PAVAFX_MODULE_STATE@@PAUGX_INTELLI_STATE@@@@QAE@H@Z (REF 0018: ??_7?$CTypedPtrMap@VCMapPtrToPtr@@PAVAFX_MODULE_STATE@@PAUGX_INTELLI_STATE@@@@6B@)
                                1. 05 1E44 0025 0000:??0?$CTypedPtrMap@VCMapPtrToPtr@@PAVAFX_MODULE_STATE@@PAUGX_ENGINE_MEMOBJ_STATE@@@@QAE@H@Z (REF 0018: ??_7?$CTypedPtrMap@VCMapPtrToPtr@@PAVAFX_MODULE_STATE@@PAUGX_ENGINE_MEMOBJ_STATE@@@@6B@)
                                2. 05 1E44 0025 0000:??0?$CTypedPtrMap@VCMapPtrToPtr@@PAVAFX_MODULE_STATE@@PAUGX_SCROLLTIP_STATE@@@@QAE@H@Z (REF 0018: ??_7?$CTypedPtrMap@VCMapPtrToPtr@@PAVAFX_MODULE_STATE@@PAUGX_SCROLLTIP_STATE@@@@6B@)
                                3. 6D 70E5 01E1 0000:??0CGXHotSpotButton@@QAE@PAVCGXControl@@@Z 0025:?Draw@CGXHotSpotButton@@UAEXPAVCDC@@H@Z
                                4. 1E C8EA 07D0 0000:??0CGXArrowButton@@QAE@PAVCGXControl@@@Z 0025:?MouseMove@CGXArrowButton@@UAEHIVCPoint@@@Z 00F2:?LButtonDown@CGXArrowButton@@UAEHIVCPoint@@@Z 0146:?LButtonUp@CGXArrowButton@@UAEHIVCPoint@@@Z 016D:??0CGXUpArrowButton@@QAE@PAVCGXControl@@@Z 0192:?Draw@CGXUpArrowButton@@UAEXPAVCDC@@H@Z 04A3:??0CGXDownArrowButton@@QAE@PAVCGXControl@@@Z 04C8:?Draw@CGXDownArrowButton@@UAEXPAVCDC@@H@Z
                                5. 0B F7BC 033A 0000:??0CGXComboBoxWndButton@@QAE@PAVCGXControl@@@Z 0025:?Draw@CGXComboBoxWndButton@@UAEXPAVCDC@@H@Z (02F3: FF)
                                6. 0B F7BC 031F 0000:??0CGXComboBoxButton@@QAE@PAVCGXControl@@@Z 0025:?Draw@CGXComboBoxButton@@UAEXPAVCDC@@H@Z (02F3: 00)
                              55FCC7:
                                0. 29 997F 0421 0000:??0CGXButton@@QAE@PAVCGXControl@@@Z 0043:?Draw@CGXButton@@UAEXPAVCDC@@H@Z 020C:?LButtonDown@CGXButton@@UAEHIVCPoint@@@Z 026A:?LButtonUp@CGXButton@@UAEHIVCPoint@@@Z 02F5:?MouseMove@CGXButton@@UAEHIVCPoint@@@Z 0350:?OnGridKeyDown@CGXButton@@UAEHIII@Z 038A:?OnGridKeyUp@CGXButton@@UAEHIII@Z 03E5:?OnGridCancelMode@CGXButton@@UAEXXZ
                                1. 2F ADDF 056A 0000:??0CGXBitmapButtonChild@@QAE@PAVCGXControl@@@Z 0043:??1CGXBitmapButtonChild@@UAE@XZ 00A1:?LoadBitmaps@CGXBitmapButtonChild@@QAEHPBD00@Z 01CC:?LoadBitmaps@CGXBitmapButtonChild@@QAEHIII@Z 01FE:?Draw@CGXBitmapButtonChild@@UAEXPAVCDC@@H@Z 03C3:?GetSize@CGXBitmapButtonChild@@UAE?AVCSize@@XZ 04D0:?GetSize@CGXBitmapButtonChild@@QAE?AVCSize@@PAX@Z (REF 010F: ?GXLoadResourceBitmap@@YGPAXPBD@Z)
                                2. 2F ADDF 056A 0000:??0CGXBitmapButtonChild@@QAE@PAVCGXControl@@@Z 0043:??1CGXBitmapButtonChild@@UAE@XZ 00A1:?LoadBitmaps@CGXBitmapButtonChild@@QAEHPBG00@Z 01CC:?LoadBitmaps@CGXBitmapButtonChild@@QAEHIII@Z 01FE:?Draw@CGXBitmapButtonChild@@UAEXPAVCDC@@H@Z 03C3:?GetSize@CGXBitmapButtonChild@@UAE?AVCSize@@XZ 04D0:?GetSize@CGXBitmapButtonChild@@QAE?AVCSize@@PAX@Z (REF 010F: ?GXLoadResourceBitmap@@YGPAXPBG@Z)
                          E55DC20400:
                            0. 00 0000 0019 0000:??A?$CArray@PAVCGXTabCreateInfo@@PAV1@@@QAEAAPAVCGXTabCreateInfo@@H@Z (REF 000F: ?ElementAt@?$CArray@PAVCGXTabCreateInfo@@PAV1@@@QAEAAPAVCGXTabCreateInfo@@H@Z)
                            1. 00 0000 0019 0000:??A?$CArray@PAVCGXTabCreateInfo@@PAV1@@@QBEPAVCGXTabCreateInfo@@H@Z (REF 000F: ?GetAt@?$CArray@PAVCGXTabCreateInfo@@PAV1@@@QBEPAVCGXTabCreateInfo@@H@Z)
                            2. 00 0000 0019 0000:?GetClientRect@CGXGridWnd@@QAEXPAUtagRECT@@@Z (REF 000F: ?GetClientRect@CWnd@@QBEXPAUtagRECT@@@Z)
                            3. 00 0000 0019 0000:?GetNext@CGXRangeList@@QBEPAVCGXRange@@AAPAU__POSITION@@@Z (REF 000F: ?GetNext@CPtrList@@QBEPAXAAPAU__POSITION@@@Z)
                            4. 00 0000 0019 (?)0000:?GetAt@CGXDWordArrayPtrArray@@QBEPAVCDWordArray@@H@Z (REF 000F: ?GetAt@CPtrArray@@QBEPAXH@Z)
                            5. 00 0000 0019 (!)0000:? (REF 000F: ??ACPtrArray@@QAEAAPAXH@Z)
                            6. 00 0000 0019 0000:??ACGXSortInfoArray@@QAEAAUCGXSortInfo@@H@Z (REF 000F: ?ElementAt@CGXSortInfoArray@@QAEAAUCGXSortInfo@@H@Z)
                            7. 00 0000 0019 0000:?AddTail@CGXRangeList@@QAEPAU__POSITION@@PAVCGXRange@@@Z (REF 000F: ?AddTail@CPtrList@@QAEPAU__POSITION@@PAX@Z)
                            8. 00 0000 0019 0000:?GetAt@CGXRangeList@@QAEAAPAVCGXRange@@PAU__POSITION@@@Z (REF 000F: ?GetAt@CPtrList@@QAEAAPAXPAU__POSITION@@@Z)
                            9. 00 0000 0019 0000:?AddHead@CGXRangeList@@QAEPAU__POSITION@@PAVCGXRange@@@Z (REF 000F: ?AddHead@CPtrList@@QAEPAU__POSITION@@PAX@Z)
                            10. 00 0000 0019 0000:?GetNext@CGXRangeList@@QAEAAPAVCGXRange@@AAPAU__POSITION@@@Z (REF 000F: ?GetNext@CPtrList@@QAEAAPAXAAPAU__POSITION@@@Z)
                  E8........:
                    508B4DFCE8........8BE55DC20400:
                      0. 00 0000 001F 0000:?SetFaceName@CGXFont@@QAEAAV1@PBG@Z (REF 000C: ?FaceName_str2ui@CGXFont@@KGIPBG@Z)
                      1. 00 0000 001F 0000:?SetFaceName@CGXFont@@QAEAAV1@PBD@Z (REF 000C: ?FaceName_str2ui@CGXFont@@KGIPBD@Z)
                    8B45FC8BE55DC20400:
                      0. 00 0000 0019 0000:??0AFX_CLASSINIT@@QAE@PAUCRuntimeClass@@@Z
                  FF15........8BE55DC20400:
                    0. 00 0000 0017 0000:?FreeObject@?$CGXHandleManager@PAX@@UAEXPAX@Z
                83E0:
                  01:
                    8B4DFC8B510483E2FE0BD08B45FC8950048B45:
                      0. 07 5509 0027 0000:?SetIncludeHorizontalAlignment@CGXStyle@@QAEAAV1@H@Z
                    C1E0:
                      028B4DFC8B510483E2FB0BD08B45FC8950:
                        0. 0A 4BC9 002A 0000:?SetIncludeReadOnly@CGXStyle@@QAEAAV1@H@Z
                      038B4DFC8B510483E2F70BD08B45FC8950:
                        0. 0A 4BC9 002A 0000:?SetIncludeControl@CGXStyle@@QAEAAV1@H@Z
                      048B4DFC8B510483E2EF0BD08B45FC8950:
                        0. 0A 4BC9 002A 0000:?SetIncludeInterior@CGXStyle@@QAEAAV1@H@Z
                      058B4DFC8B510483E2DF0BD08B45FC8950:
                        0. 0A 4BC9 002A 0000:?SetIncludeTextColor@CGXStyle@@QAEAAV1@H@Z
                      068B4DFC8B510483E2BF0BD08B45FC8950:
                        0. 0A 4BC9 002A 0000:?SetIncludeWrapText@CGXStyle@@QAEAAV1@H@Z
                      078B4DFC8B510480E27F0BD08B45FC8950:
                        0. 0A 4BC9 002A 0000:?SetIncludeAllowEnter@CGXStyle@@QAEAAV1@H@Z
                      088B4DFC8B510480E6FE0BD08B45FC8950:
                        0. 0A 4BC9 002A 0000:?SetIncludeBorders@CGXStyle@@QAEAAV1@H@Z
                      098B4DFC8B510480E6FD0BD08B45FC8950:
                        0. 0A 4BC9 002A 0000:?SetIncludeFont@CGXStyle@@QAEAAV1@H@Z
                      0A8B4DFC8B510480E6FB0BD08B45FC8950:
                        0. 0E 6660 003B 0000:?SetIncludeValue@CGXStyle@@QAEAAV1@H@Z
                      0B8B4DFC8B510480E6F70BD08B45FC8950:
                        0. 0A 4BC9 002A 0000:?SetIncludeChoiceList@CGXStyle@@QAEAAV1@H@Z
                      0C8B4DFC8B510480E6EF0BD08B45FC8950:
                        0. 0A 4BC9 002A 0000:?SetIncludeVertScrollBar@CGXStyle@@QAEAAV1@H@Z
                      0D8B4DFC8B510480E6DF0BD08B45FC8950:
                        0. 0A 4BC9 002A 0000:?SetIncludeMaxLength@CGXStyle@@QAEAAV1@H@Z
                      0E8B4DFC8B510480E6BF0BD08B45FC8950:
                        0. 0A 4BC9 002A 0000:?SetIncludeBaseStyle@CGXStyle@@QAEAAV1@H@Z
                      0F8B4DFC8B510480E67F0BD08B45FC8950:
                        0. 0A 4BC9 002A 0000:?SetIncludeEnabled@CGXStyle@@QAEAAV1@H@Z
                      108B4DFC8B510481E2FFFFFEFF0BD08B45:
                        0. 0D BE89 002D 0000:?SetIncludeTriState@CGXStyle@@QAEAAV1@H@Z
                      118B4DFC8B510481E2FFFFFDFF0BD08B45:
                        0. 0D BE89 002D 0000:?SetIncludeDraw3dFrame@CGXStyle@@QAEAAV1@H@Z
                      138B4DFC8B510481E2FFFFF7FF0BD08B45:
                        0. 0D BE89 002D 0000:?SetIncludeAutoSize@CGXStyle@@QAEAAV1@H@Z
                      148B4DFC8B510481E2FFFFEFFF0BD08B45:
                        0. 0D BE89 002D 0000:?SetIncludeItemDataPtr@CGXStyle@@QAEAAV1@H@Z
                      158B4DFC8B510481E2FFFFDFFF0BD08B45:
                        0. 0D BE89 002D 0000:?SetIncludeFloodCell@CGXStyle@@QAEAAV1@H@Z
                      168B4DFC8B510481E2FFFFBFFF0BD08B45:
                        0. 0D BE89 002D 0000:?SetIncludeFloatCell@CGXStyle@@QAEAAV1@H@Z
                      178B4DFC8B510481E2FFFF7FFF0BD08B45:
                        0. 0D BE89 002D 0000:?SetIncludeMergeCell@CGXStyle@@QAEAAV1@H@Z
                      188B4DFC8B510481E2FFFFFFFE0BD08B45:
                        0. 0D BE89 002D 0000:?SetIncludeFormat@CGXStyle@@QAEAAV1@H@Z
                      198B4DFC8B510481E2FFFFFFFD0BD08B45:
                        0. 0D BE89 002D 0000:?SetIncludePlaces@CGXStyle@@QAEAAV1@H@Z
                    D1E08B4DFC8B510483E2FD0BD08B45FC895004:
                      0. 09 48AB 0029 0000:?SetIncludeVerticalAlignment@CGXStyle@@QAEAAV1@H@Z
                  0285C0743868........8B4DFC8B51FC526A:
                    0C8B:
                      0. 04 1815 0070 0000:??_ECGXBrowseDirtyFieldStruct@@QAEPAXI@Z
                    108B:
                      0. 04 1815 0070 0000:??_ECGXFieldInfo@@QAEPAXI@Z
                    208B:
                      0. 04 1815 0070 0000:??_ECGXFieldDesc@@QAEPAXI@Z
                    2C8B:
                      0. 04 1815 006D 0000:??_ECGXTabCreateInfo@@UAEPAXI@Z
                  03C1E01E8B4DFC8B510481E2FFFFFF3F0BD08B45:
                    0. 0D BE89 002D 0000:?SetStyle@CGXBrush@@QAEAAU1@I@Z
                  07:
                    8B4DFC8B1183E2F80BD08B45FC8910:
                      6A018B4D:
                        0. 02 A9B1 002C 0000:?SetStyle@CGXPen@@QAEAAU1@I@Z
                      8B45FC8B:
                        0. 05 1E44 0025 0000:?SetHatch@CGXBrush@@QAEAAU1@J@Z
                    C1E0:
                      0B8B4DFC8B511880E6C70BD08B45FC8950:
                        0. 07 32E8 0031 0000:?SetMergeCell@CGXStyle@@QAEAAV1@I@Z
                      148B4DFC8B511881E2FFFF8FFF0BD08B45:
                        0. 0D 5982 002D 0000:?SetValueType@CGXStyle@@QAEAAV1@I@Z
                  0FC1E0058B4DFC8B512081E21FFEFFFF0BD08B45:
                    0. 0A 2A93 0034 0000:?SetPlaces@CGXStyle@@QAEAAV1@I@Z
                  1F8B4DFC8B512083E2E00BD08B45FC8950206A01:
                    0. 04 4256 002E 0000:?SetFormat@CGXStyle@@QAEAAV1@I@Z
                8B:
                  4DFC8B91:
                    1801000089108B450C8B4DFC8B911C0100:
                      0. 09 8169 0029 0000:?GetDistances@CGXProperties@@QAEXAAH0@Z
                    EC00000089108B450C8B4DFC8B91E80000:
                      0. 25 92A3 0045 0000:?GetMargins@CGXProperties@@QAEXAAH000@Z
                  E55DC20800:
                    0. 00 0000 0010 (?)0000:?HashKey@CGXMapFontData@@QBEI_J@Z
                A3........8BE55DC20400:
                  0. 00 0000 0015 (?)0000:?SetCanAbort@CGXLongOperation@@QAEXH@Z
                C1E8048BE55DC20400:
                  0. 00 0000 0013 (?)0000:?HashKey@CGXCollMapDWordToString@@QBEIK@Z
                F7D81BC0252C0100000590010000508B4DFCE8:
                  0. 00 0000 0031 0000:?SetBold@CGXFont@@QAEAAV1@H@Z
              0C50:
                668B4D08518B4DFCE8........8BE55DC20800:
                  0. 00 0000 001E 0000:?AddUserAttribute@CGXStylesMap@@QAEXGABVCGXStyle@@@Z
                8B4D08518B:
                  4DFCE8........8B:
                    551089108BE55DC2:
                      0. 02 E7A6 0022 0000:?SetAt@CGXMapByte8ToPtr@@QAEX_JPAX@Z
                    E55DC20800:
                      0. 00 0000 001D (?)0000:?SetAtGrow@CGXDWordArrayPtrArray@@QAEXHPAVCDWordArray@@@Z (REF 0013: ?SetAtGrow@CPtrArray@@QAEXHPAX@Z)
                      1. 00 0000 001D (!)0000:? (REF 0013: ?SetAt@CPtrArray@@QAEXHPAX@Z)
                  55:
                    0C528B4508508B4DFCE8........8B:
                      0. 08 665D 0028 0000:??0CGXRange@@QAE@KK@Z
                      1. 05 BEED 0025 0000:?SetCells@CGXRange@@QAEAAV1@KK@Z
                    FC8B8AB4000000E8........8BE55D:
                      0. 03 2EB7 0023 0000:?ShowScrollBar@CGXGridCore@@IAEXIH@Z (REF 0019: ?ShowScrollBar@CWnd@@QAEXIH@Z)
                      1. 03 2EB7 0023 0000:?InvalidateRect@CGXGridCore@@IAEXPBUtagRECT@@H@Z (REF 0019: ?InvalidateRect@CWnd@@QAEXPBUtagRECT@@H@Z)
              10508B4D0C518B5508528B4DFCE8........8BE55DC20C:
                0. 01 78F0 0021 0000:?GetCurrentCell@CGXGridCore@@QAEHAAK0H@Z (REF 0017: ?GetCurrentCell@CGXGridCore@@QAEHPAK0H@Z)
                1. 01 78F0 0021 (!)0000:? (REF 0017: ?GetNextAssoc@CMapPtrToPtr@@QBEXAAPAU__POSITION@@AAPAX1@Z)
                2. 01 78F0 0021 (?)0000:?InsertAt@CGXDWordArrayPtrArray@@QAEXHPAVCDWordArray@@H@Z (REF 0017: ?InsertAt@CPtrArray@@QAEXHPAXH@Z)
              14508B4D10518B550C52:
                6A008B4DFCE8........506A00:
                  0. 04 4256 0071 0000:?EvalVisibleFloatMergeCells@CGXGridCore@@QAEHABVCGXRange@@HPAV2@H@Z
                8B4508508B4D0C518B5508528B:
                  0. 13 1EE0 0033 0000:?RedrawRowCol@CGXGridCore@@QAEXKKIH@Z
              18508B4D14518B5510528B450C508B4D08518B55FC8B02:
                0. 0C A0AB 002C 0000:?StoreStyleRowCol@CGXData@@QAEHKKABVCGXStyle@@W4GXModifyType@@H@Z
              20508B4D1C518B5518528B4514508B4D10518B550C528B:
                0. 0D 6DED 0037 0000:?ScrollWindowEx@CGXGridCore@@IAEHHHPBUtagRECT@@0PAVCRgn@@PAU2@I@Z
              FC:
                05:
                  240100008BE55DC3:
                    0. 00 0000 0013 0000:?GetDataFooter@CGXProperties@@QAEAAVCGXData@@XZ
                  2C1600008BE55DC3:
                    0. 00 0000 0013 0000:?GetTitleFont@CGXBCalendar@@QAEPAVCFont@@XZ
                  341600008BE55DC3:
                    0. 00 0000 0013 0000:?GetDayBarFont@CGXBCalendar@@QAEPAVCFont@@XZ
                  3C1600008BE55DC3:
                    0. 00 0000 0013 0000:?GetDateFont@CGXBCalendar@@QAEPAVCFont@@XZ
                  401600008BE55DC3:
                    0. 00 0000 0013 0000:?GetTitleFont@CGXBCalendar@@QAEPAVCFont@@XZ
                  481600008BE55DC3:
                    0. 00 0000 0013 0000:?GetDayBarFont@CGXBCalendar@@QAEPAVCFont@@XZ
                  501600008BE55DC3:
                    0. 00 0000 0013 0000:?GetDateFont@CGXBCalendar@@QAEPAVCFont@@XZ
                  8C1600008BE55DC3:
                    0. 00 0000 0013 0000:?GetTitleFont@CGXBCalendar@@QAEPAVCFont@@XZ
                  941600008BE55DC3:
                    0. 00 0000 0013 0000:?GetDayBarFont@CGXBCalendar@@QAEPAVCFont@@XZ
                  9C1600008BE55DC3:
                    0. 00 0000 0013 0000:?GetDateFont@CGXBCalendar@@QAEPAVCFont@@XZ
                  A01600008BE55DC3:
                    0. 00 0000 0013 0000:?GetTitleFont@CGXBCalendar@@QAEPAVCFont@@XZ
                  A81600008BE55DC3:
                    0. 00 0000 0013 0000:?GetDayBarFont@CGXBCalendar@@QAEPAVCFont@@XZ
                  B0:
                    0200008BE55DC3:
                      0. 00 0000 0013 0000:?GetColBreakArray@CGXProperties@@QAEAAVCDWordArray@@XZ
                    1600008BE55DC3:
                      0. 00 0000 0013 0000:?GetDateFont@CGXBCalendar@@QAEPAVCFont@@XZ
                  B40000008BE55DC3:
                    0. 00 0000 0013 0000:?GetSection@CGXProperties@@QBEABVCString@@XZ
                  BC0000008BE55DC3:
                    0. 00 0000 0013 0000:?GetSection@CGXStylesMap@@QBEABVCString@@XZ
                  C40200008BE55DC3:
                    0. 00 0000 0013 0000:?GetRowBreakArray@CGXProperties@@QAEAAVCDWordArray@@XZ
                  E80100008BE55DC3:
                    0. 00 0000 0013 0000:?GetDataHeader@CGXProperties@@QAEAAVCGXData@@XZ
                33C9:
                  668B:
                    088BC18B55FC33C9668B4A04C1E1100BC18B:
                      0. 03 C861 0023 0000:??BGXNDX@@QAEKXZ
                    88C80100008BC18BE55DC3:
                      0. 00 0000 0019 0000:?GetGridLineStyle@CGXGridParam@@QBEIXZ
                  83:
                    38:
                      000F94C18BC18BE55DC3:
                        0. 00 0000 0018 0000:?IsCells@CGXRange@@QBEHXZ
                      010F94C18BC18BE55DC3:
                        0. 00 0000 0018 0000:?IsRows@CGXRange@@QBEHXZ
                      020F94C18BC18BE55DC3:
                        0. 00 0000 0018 0000:?IsCols@CGXRange@@QBEHXZ
                      030F94C18BC18BE55DC3:
                        0. 00 0000 0018 0000:?IsTable@CGXRange@@QBEHXZ
                    780C000F94C18BC18BE55DC3:
                      0. 00 0000 0019 0000:?IsEmpty@?$CList@PAVCOleVariant@@AAPAV1@@@QBEHXZ
                3B450874168B4DFC8B55088B0289018B4DFC8B55088B:
                  0. 0E BB12 002E 0000:??4tagSelData@CGXBCurrencyEdit@@QAEAAU01@ABU01@@Z
                668B:
                  40:
                    1C8BE55DC3:
                      0. 00 0000 0012 0000:?GetThousandSeparator@Format@CGXBCurrencyEdit@@QBEGXZ
                    1E8BE55DC3:
                      0. 00 0000 0012 0000:?GetDecimalSeparator@Format@CGXBCurrencyEdit@@QBEGXZ
                    208BE55DC3:
                      0. 00 0000 0012 0000:?GetPaddingCharacter@Format@CGXBCurrencyEdit@@QBEGXZ
                    288BE55DC3:
                      0. 00 0000 0012 0000:?GetActivateCellFlags@CGXGridParam@@QAEGXZ
                    508BE55DC3:
                      0. 00 0000 0012 0000:?GetHideCurrentCell@CGXGridParam@@QAEGXZ
                    528BE55DC3:
                      0. 00 0000 0012 0000:?GetDrawOrder@CGXGridParam@@QAEGXZ
                  4D086689:
                    48:
                      086A018B4DFCE8........8BE55DC2:
                        0. 02 2768 0022 0000:?SetMaxLength@CGXStyle@@QAEAAV1@G@Z
                      1C8BE55DC20400:
                        0. 00 0000 0018 (?)0000:?SetThousandSeparator@Format@CGXBCurrencyEdit@@QAEXG@Z
                      1E8BE55DC20400:
                        0. 00 0000 0018 (?)0000:?SetDecimalSeparator@Format@CGXBCurrencyEdit@@QAEXG@Z
                      288BE55DC20400:
                        0. 00 0000 0018 0000:?SetActivateCellFlags@CGXGridParam@@QAEXG@Z
                    88C80100008BE55DC20400:
                      0. 00 0000 001B 0000:?SetGridLineStyle@CGXGridParam@@QAEXI@Z
                  80:
                    440600008BE55DC3:
                      0. 00 0000 0015 0000:?GetHitState@CGXGridCore@@QAEGXZ
                    940000008BE55DC3:
                      0. 00 0000 0015 0000:?GetEnterKeyAction@CGXGridParam@@QAEGXZ
                83:
                  78:
                    2400741B8B4D08518B55FC528B45FC8B48248B55:
                      0. AC A880 1FB5 0000:?SetAdvancedUndo@CGXGridCore@@UAEHH@Z 0033:?GetAdvancedUndoInfo@CGXGridCore@@UAEPAVCObject@@XZ 0060:?UndoAdvanced@CGXGridCore@@UAEHPAVCObject@@HH@Z 009B:?CleanAdvancedUndo@CGXGridCore@@UAEXXZ 00C4:?ExecuteCommand@CGXGridCore@@UAEHPAVCGXCommand@@PAV1@W4GXCmdType@@@Z 010C:?AddCommand@CGXGridCore@@UAEXPAVCGXCommand@@W4GXCmdType@@@Z 0150:?RemoveCommand@CGXGridCore@@UAEXW4GXCmdType@@@Z 0193:?Undo@CGXGridCore@@UAEHXZ 01D4:?Redo@CGXGridCore@@UAEHXZ 0215:?BeginTrans@CGXGridCore@@UAEXPBD@Z 0247:?CommitTrans@CGXGridCore@@UAEXXZ 0273:?Rollback@CGXGridCore@@UAEXXZ 029F:?OnCellUndone@CGXGridCore@@UAEXKKH@Z 02D9:?CanUndo@CGXGridCore@@UAEHPAVCCmdUI@@@Z 031B:?CanRedo@CGXGridCore@@UAEHPAVCCmdUI@@@Z 035D:?SortRows@CGXGridCore@@UAEXVCGXRange@@AAVCGXSortInfoArray@@I@Z 03A5:?MoveDataRows@CGXGridCore@@UAEHABVCGXRange@@ABVCDWordArray@@IW4GXCmdType@@@Z 03F5:?StoreMoveDataRows@CGXGridCore@@UAEHABVCGXRange@@ABVCDWordArray@@@Z 043D:?UpdateMoveDataRows@CGXGridCore@@UAEXABVCGXRange@@IH@Z 0485:?OnGetSortRowsKey@CGXGridCore@@UAEXKABVCGXSortInfoArray@@AAVCStringArray@@@Z 04CD:?SortCols@CGXGridCore@@UAEXVCGXRange@@AAVCGXSortInfoArray@@I@Z 0515:?MoveDataCols@CGXGridCore@@UAEHABVCGXRange@@ABVCDWordArray@@IW4GXCmdType@@@Z 0565:?StoreMoveDataCols@CGXGridCore@@UAEHABVCGXRange@@ABVCDWordArray@@@Z 05AD:?UpdateMoveDataCols@CGXGridCore@@UAEXABVCGXRange@@IH@Z 05F5:?OnGetSortColsKey@CGXGridCore@@UAEXKABVCGXSortInfoArray@@AAVCStringArray@@@Z 063D:?GetSortKey@CGXGridCore@@UAEXPAVCGXControl@@KKABUCGXSortInfo@@ABVCGXStyle@@AAVCString@@@Z 066C:?SortKeys@CGXGridCore@@UAEXABVCGXSortInfoArray@@AAVCPtrArray@@@Z 06AF:?OnDndCacheGlobalData@CGXGridCore@@UAEHPAVCGXNoOleDataSourceProxy@@ABVCGXRangeList@@AAK2@Z 06EE:?DndStartDragDrop@CGXGridCore@@UAEHKK@Z 0725:?OnGridDragScroll@CGXGridCore@@UAEKKVCPoint@@@Z 0771:?OnGridDragEnter@CGXGridCore@@UAEKPAVCGXNoOleDataObjectProxy@@KVCPoint@@@Z 07C1:?OnGridDragOver@CGXGridCore@@UAEKPAVCGXNoOleDataObjectProxy@@KVCPoint@@@Z 0811:?OnGridDropEx@CGXGridCore@@UAEKPAVCGXNoOleDataObjectProxy@@KKVCPoint@@@Z 0865:?OnGridDragLeave@CGXGridCore@@UAEXXZ 089F:?OnGridDrop@CGXGridCore@@UAEHPAVCGXNoOleDataObjectProxy@@KVCPoint@@@Z 08EF:?OnDndDropData@CGXGridCore@@UAEHPAVCGXNoOleDataObjectProxy@@KK@Z 093B:?OnDndQueryAcceptData@CGXGridCore@@UAEHPAVCGXNoOleDataObjectProxy@@@Z 097F:?OnDndCalculateFocusRect@CGXGridCore@@UAEHPAVCGXNoOleDataObjectProxy@@AAK1@Z 09CA:?DndDrawMoveRect@CGXGridCore@@UAEXVCPoint@@HH@Z 0A05:?DoDragScroll@CGXGridCore@@QAEHVCPoint@@@Z 0A4D:?IsOverAnotherApplication@CGXGridCore@@QAEHUtagPOINT@@@Z 0A95:?SetFloatCellsMode@CGXGridCore@@QAEXGH@Z 0AD9:?GetFloatCellsMode@CGXGridCore@@QBEGXZ 0AF1:?DelayFloatCells@CGXGridCore@@QAEXABVCGXRange@@K@Z 0B24:?GetFloatCellsPool@CGXGridCore@@IAEPAVCGXSpanCellPool@@XZ 0B5B:?EvalFloatCells@CGXGridCore@@QAEHABVCGXRange@@HPAV2@H@Z 0B9A:?CanFloatCell@CGXGridCore@@UAEHPAVCGXControl@@KKABVCGXStyle@@H@Z 0BDD:?SetFloatedCellsRowCol@CGXGridCore@@IAEHKKKKI@Z 0C31:?GetCellRangeRowCol@CGXGridCore@@UAEPAVCGXRange@@KKAAV2@@Z 0C9F:?GetFloatedCellsRowCol@CGXGridCore@@QAEPAVCGXRange@@KKAAV2@@Z 0CDA:?MergeFloatedCells@CGXGridCore@@IAEXAAVCGXRange@@@Z 0D09:?UpdateFloatedCellsRowCol@CGXGridCore@@IAEXKKKKIH@Z 0D4C:?SetMergeCellsMode@CGXGridCore@@QAEXGH@Z 0D90:?GetMergeCellsMode@CGXGridCore@@QBEGXZ 0DA8:?DelayMergeCells@CGXGridCore@@QAEXABVCGXRange@@KK@Z 0DDF:?EvalMergeCells@CGXGridCore@@QAEHABVCGXRange@@HPAV2@H@Z 0E1E:?CanMergeCell@CGXGridCore@@UAEHPAVCGXControl@@KKABVCGXStyle@@H@Z 0E61:?CanMergeCells@CGXGridCore@@UAEHABVCGXStyle@@0@Z 0E98:?SetMergedCellsRowCol@CGXGridCore@@IAEHHKKKKI@Z 0EF0:?GetMergedCellsRowCol@CGXGridCore@@QAEPAVCGXRange@@KKAAV2@H@Z 0F2F:?MergeMergedCells@CGXGridCore@@IAEXAAVCGXRange@@@Z 0F5E:?UpdateMergedCellsRowCol@CGXGridCore@@IAEXKKKKIH@Z 0FA1:?SetCoveredCellsRowCol@CGXGridCore@@UAEHKKKKIW4GXCmdType@@@Z 0FF8:?GetCoveredCellsRowCol@CGXGridCore@@UAEPAVCGXRange@@KKAAV2@@Z 1033:?MergeCoveredCells@CGXGridCore@@MAEXAAVCGXRange@@@Z 1062:?StoreCoveredCellsRowCol@CGXGridCore@@MAEHKKKKH@Z 10A5:?UpdateCoveredCellsRowCol@CGXGridCore@@MAEXKKKKIH@Z 10E8:?OnGridBeginPrinting@CGXGridCore@@UAEXPAVCDC@@PAUCPrintInfo@@@Z 112B:?OnGridPrint@CGXGridCore@@UAEXPAVCDC@@PAUCPrintInfo@@@Z 116F:?OnGridEndPrinting@CGXGridCore@@UAEXPAVCDC@@PAUCPrintInfo@@@Z 11B3:?ResizeRowHeightsToFit@CGXGridCore@@UAEHVCGXRange@@HI@Z 11FE:?ResizeColWidthsToFit@CGXGridCore@@UAEHVCGXRange@@HI@Z 124A:?HideRows@CGXGridCore@@UAEHKKHPAHIW4GXCmdType@@@Z 12A2:?IsRowHidden@CGXGridCore@@UAEHK@Z 12D5:?StoreHideRow@CGXGridCore@@MAEHKH@Z 130C:?HideCols@CGXGridCore@@UAEHKKHPAHIW4GXCmdType@@@Z 1364:?IsColHidden@CGXGridCore@@UAEHK@Z 1397:?StoreHideCol@CGXGridCore@@MAEHKH@Z 13CE:?CopyCells@CGXGridCore@@UAEHVCGXRange@@KKI@Z 141D:?StoreCopyCells@CGXGridCore@@UAEHVCGXRange@@KK@Z 1469:?MoveCells@CGXGridCore@@UAEHVCGXRange@@KKPAVCObject@@IW4GXCmdType@@@Z 14C1:?StoreMoveCells@CGXGridCore@@UAEHVCGXRange@@KKAAPAVCObject@@HW4GXCmdType@@@Z 1519:?CopyTextToFile@CGXGridCore@@QAEHAAVCFile@@ABVCGXRange@@@Z 15C6:?CopyTextToFile@CGXGridCore@@UAEHAAVCFile@@ABVCGXRangeList@@@Z 160D:?GetCopyTextRowCol@CGXGridCore@@UAE?AVCString@@KK@Z 1684:?PasteTextFromBuffer@CGXGridCore@@UAEHPBDKABVCGXRange@@@Z 16D0:?PasteTextRowCol@CGXGridCore@@UAEHKKABVCString@@IPBVCGXStyle@@@Z 1724:?CalcBufferDimension@CGXGridCore@@UAEHPBDKAAK1@Z 1774:?CopyCellsToArchive@CGXGridCore@@QAEHAAVCArchive@@ABVCGXRange@@H@Z 1825:?CopyCellsToArchive@CGXGridCore@@UAEHAAVCArchive@@ABVCGXRangeList@@H@Z 1870:?GetClipboardStyleRowCol@CGXGridCore@@UAEHKKPAVCGXStyle@@H@Z 18C0:?PasteCellsFromArchive@CGXGridCore@@UAEHAAVCArchive@@ABVCGXRange@@H@Z 190C:?CanCopy@CGXGridCore@@UAEHXZ 1938:?Copy@CGXGridCore@@UAEHXZ 1965:?CopyRange@CGXGridCore@@QAEHABVCGXRange@@@Z 1A0E:?CopyRange@CGXGridCore@@UAEHABVCGXRangeList@@@Z 1A52:?CopyTextToClipboard@CGXGridCore@@QAEHABVCGXRangeList@@@Z 1A96:?CopyCellsToClipboard@CGXGridCore@@QAEHABVCGXRangeList@@H@Z 1ADE:?CanCut@CGXGridCore@@UAEHXZ 1B0B:?Cut@CGXGridCore@@UAEHXZ 1B38:?CutRange@CGXGridCore@@QAEHABVCGXRange@@H@Z 1BE5:?CutRange@CGXGridCore@@UAEHABVCGXRangeList@@H@Z 1C1C:?CanPaste@CGXGridCore@@UAEHXZ 1C49:?OnCheckClipboardFormat@CGXGridCore@@UAEHXZ 1C87:?Paste@CGXGridCore@@UAEHXZ 1CB4:?OnPasteDirect@CGXGridCore@@UAEHABVCGXRange@@@Z 1CF8:?OnPasteFromClipboard@CGXGridCore@@UAEHABVCGXRange@@@Z 1D3C:?OnPasteDiffRange@CGXGridCore@@UAEHXZ 1D69:?CanClear@CGXGridCore@@UAEHXZ 1D95:?Clear@CGXGridCore@@UAEHH@Z 1DD9:?ClearCells@CGXGridCore@@QAEHABVCGXRange@@H@Z 1E86:?ClearCells@CGXGridCore@@UAEHABVCGXRangeList@@H@Z 1ECE:?SetRangeName@CGXGridCore@@UAEHPBDABVCGXRange@@PAVCObject@@IW4GXCmdType@@@Z 1F21:?GetRangeName@CGXGridCore@@UAEHPBDAAVCGXRange@@@Z 1F69:?DeleteRangeName@CGXGridCore@@UAEHPBDPAVCObject@@W4GXCmdType@@@Z (REF 00CC: $SG94528)
                      1. AC A880 1FB5 0000:?SetAdvancedUndo@CGXGridCore@@UAEHH@Z 0033:?GetAdvancedUndoInfo@CGXGridCore@@UAEPAVCObject@@XZ 0060:?UndoAdvanced@CGXGridCore@@UAEHPAVCObject@@HH@Z 009B:?CleanAdvancedUndo@CGXGridCore@@UAEXXZ 00C4:?ExecuteCommand@CGXGridCore@@UAEHPAVCGXCommand@@PAV1@W4GXCmdType@@@Z 010C:?AddCommand@CGXGridCore@@UAEXPAVCGXCommand@@W4GXCmdType@@@Z 0150:?RemoveCommand@CGXGridCore@@UAEXW4GXCmdType@@@Z 0193:?Undo@CGXGridCore@@UAEHXZ 01D4:?Redo@CGXGridCore@@UAEHXZ 0215:?BeginTrans@CGXGridCore@@UAEXPBG@Z 0247:?CommitTrans@CGXGridCore@@UAEXXZ 0273:?Rollback@CGXGridCore@@UAEXXZ 029F:?OnCellUndone@CGXGridCore@@UAEXKKH@Z 02D9:?CanUndo@CGXGridCore@@UAEHPAVCCmdUI@@@Z 031B:?CanRedo@CGXGridCore@@UAEHPAVCCmdUI@@@Z 035D:?SortRows@CGXGridCore@@UAEXVCGXRange@@AAVCGXSortInfoArray@@I@Z 03A5:?MoveDataRows@CGXGridCore@@UAEHABVCGXRange@@ABVCDWordArray@@IW4GXCmdType@@@Z 03F5:?StoreMoveDataRows@CGXGridCore@@UAEHABVCGXRange@@ABVCDWordArray@@@Z 043D:?UpdateMoveDataRows@CGXGridCore@@UAEXABVCGXRange@@IH@Z 0485:?OnGetSortRowsKey@CGXGridCore@@UAEXKABVCGXSortInfoArray@@AAVCStringArray@@@Z 04CD:?SortCols@CGXGridCore@@UAEXVCGXRange@@AAVCGXSortInfoArray@@I@Z 0515:?MoveDataCols@CGXGridCore@@UAEHABVCGXRange@@ABVCDWordArray@@IW4GXCmdType@@@Z 0565:?StoreMoveDataCols@CGXGridCore@@UAEHABVCGXRange@@ABVCDWordArray@@@Z 05AD:?UpdateMoveDataCols@CGXGridCore@@UAEXABVCGXRange@@IH@Z 05F5:?OnGetSortColsKey@CGXGridCore@@UAEXKABVCGXSortInfoArray@@AAVCStringArray@@@Z 063D:?GetSortKey@CGXGridCore@@UAEXPAVCGXControl@@KKABUCGXSortInfo@@ABVCGXStyle@@AAVCString@@@Z 066C:?SortKeys@CGXGridCore@@UAEXABVCGXSortInfoArray@@AAVCPtrArray@@@Z 06AF:?OnDndCacheGlobalData@CGXGridCore@@UAEHPAVCGXNoOleDataSourceProxy@@ABVCGXRangeList@@AAK2@Z 06EE:?DndStartDragDrop@CGXGridCore@@UAEHKK@Z 0725:?OnGridDragScroll@CGXGridCore@@UAEKKVCPoint@@@Z 0771:?OnGridDragEnter@CGXGridCore@@UAEKPAVCGXNoOleDataObjectProxy@@KVCPoint@@@Z 07C1:?OnGridDragOver@CGXGridCore@@UAEKPAVCGXNoOleDataObjectProxy@@KVCPoint@@@Z 0811:?OnGridDropEx@CGXGridCore@@UAEKPAVCGXNoOleDataObjectProxy@@KKVCPoint@@@Z 0865:?OnGridDragLeave@CGXGridCore@@UAEXXZ 089F:?OnGridDrop@CGXGridCore@@UAEHPAVCGXNoOleDataObjectProxy@@KVCPoint@@@Z 08EF:?OnDndDropData@CGXGridCore@@UAEHPAVCGXNoOleDataObjectProxy@@KK@Z 093B:?OnDndQueryAcceptData@CGXGridCore@@UAEHPAVCGXNoOleDataObjectProxy@@@Z 097F:?OnDndCalculateFocusRect@CGXGridCore@@UAEHPAVCGXNoOleDataObjectProxy@@AAK1@Z 09CA:?DndDrawMoveRect@CGXGridCore@@UAEXVCPoint@@HH@Z 0A05:?DoDragScroll@CGXGridCore@@QAEHVCPoint@@@Z 0A4D:?IsOverAnotherApplication@CGXGridCore@@QAEHUtagPOINT@@@Z 0A95:?SetFloatCellsMode@CGXGridCore@@QAEXGH@Z 0AD9:?GetFloatCellsMode@CGXGridCore@@QBEGXZ 0AF1:?DelayFloatCells@CGXGridCore@@QAEXABVCGXRange@@K@Z 0B24:?GetFloatCellsPool@CGXGridCore@@IAEPAVCGXSpanCellPool@@XZ 0B5B:?EvalFloatCells@CGXGridCore@@QAEHABVCGXRange@@HPAV2@H@Z 0B9A:?CanFloatCell@CGXGridCore@@UAEHPAVCGXControl@@KKABVCGXStyle@@H@Z 0BDD:?SetFloatedCellsRowCol@CGXGridCore@@IAEHKKKKI@Z 0C31:?GetCellRangeRowCol@CGXGridCore@@UAEPAVCGXRange@@KKAAV2@@Z 0C9F:?GetFloatedCellsRowCol@CGXGridCore@@QAEPAVCGXRange@@KKAAV2@@Z 0CDA:?MergeFloatedCells@CGXGridCore@@IAEXAAVCGXRange@@@Z 0D09:?UpdateFloatedCellsRowCol@CGXGridCore@@IAEXKKKKIH@Z 0D4C:?SetMergeCellsMode@CGXGridCore@@QAEXGH@Z 0D90:?GetMergeCellsMode@CGXGridCore@@QBEGXZ 0DA8:?DelayMergeCells@CGXGridCore@@QAEXABVCGXRange@@KK@Z 0DDF:?EvalMergeCells@CGXGridCore@@QAEHABVCGXRange@@HPAV2@H@Z 0E1E:?CanMergeCell@CGXGridCore@@UAEHPAVCGXControl@@KKABVCGXStyle@@H@Z 0E61:?CanMergeCells@CGXGridCore@@UAEHABVCGXStyle@@0@Z 0E98:?SetMergedCellsRowCol@CGXGridCore@@IAEHHKKKKI@Z 0EF0:?GetMergedCellsRowCol@CGXGridCore@@QAEPAVCGXRange@@KKAAV2@H@Z 0F2F:?MergeMergedCells@CGXGridCore@@IAEXAAVCGXRange@@@Z 0F5E:?UpdateMergedCellsRowCol@CGXGridCore@@IAEXKKKKIH@Z 0FA1:?SetCoveredCellsRowCol@CGXGridCore@@UAEHKKKKIW4GXCmdType@@@Z 0FF8:?GetCoveredCellsRowCol@CGXGridCore@@UAEPAVCGXRange@@KKAAV2@@Z 1033:?MergeCoveredCells@CGXGridCore@@MAEXAAVCGXRange@@@Z 1062:?StoreCoveredCellsRowCol@CGXGridCore@@MAEHKKKKH@Z 10A5:?UpdateCoveredCellsRowCol@CGXGridCore@@MAEXKKKKIH@Z 10E8:?OnGridBeginPrinting@CGXGridCore@@UAEXPAVCDC@@PAUCPrintInfo@@@Z 112B:?OnGridPrint@CGXGridCore@@UAEXPAVCDC@@PAUCPrintInfo@@@Z 116F:?OnGridEndPrinting@CGXGridCore@@UAEXPAVCDC@@PAUCPrintInfo@@@Z 11B3:?ResizeRowHeightsToFit@CGXGridCore@@UAEHVCGXRange@@HI@Z 11FE:?ResizeColWidthsToFit@CGXGridCore@@UAEHVCGXRange@@HI@Z 124A:?HideRows@CGXGridCore@@UAEHKKHPAHIW4GXCmdType@@@Z 12A2:?IsRowHidden@CGXGridCore@@UAEHK@Z 12D5:?StoreHideRow@CGXGridCore@@MAEHKH@Z 130C:?HideCols@CGXGridCore@@UAEHKKHPAHIW4GXCmdType@@@Z 1364:?IsColHidden@CGXGridCore@@UAEHK@Z 1397:?StoreHideCol@CGXGridCore@@MAEHKH@Z 13CE:?CopyCells@CGXGridCore@@UAEHVCGXRange@@KKI@Z 141D:?StoreCopyCells@CGXGridCore@@UAEHVCGXRange@@KK@Z 1469:?MoveCells@CGXGridCore@@UAEHVCGXRange@@KKPAVCObject@@IW4GXCmdType@@@Z 14C1:?StoreMoveCells@CGXGridCore@@UAEHVCGXRange@@KKAAPAVCObject@@HW4GXCmdType@@@Z 1519:?CopyTextToFile@CGXGridCore@@QAEHAAVCFile@@ABVCGXRange@@@Z 15C6:?CopyTextToFile@CGXGridCore@@UAEHAAVCFile@@ABVCGXRangeList@@@Z 160D:?GetCopyTextRowCol@CGXGridCore@@UAE?AVCString@@KK@Z 1684:?PasteTextFromBuffer@CGXGridCore@@UAEHPBGKABVCGXRange@@@Z 16D0:?PasteTextRowCol@CGXGridCore@@UAEHKKABVCString@@IPBVCGXStyle@@@Z 1724:?CalcBufferDimension@CGXGridCore@@UAEHPBGKAAK1@Z 1774:?CopyCellsToArchive@CGXGridCore@@QAEHAAVCArchive@@ABVCGXRange@@H@Z 1825:?CopyCellsToArchive@CGXGridCore@@UAEHAAVCArchive@@ABVCGXRangeList@@H@Z 1870:?GetClipboardStyleRowCol@CGXGridCore@@UAEHKKPAVCGXStyle@@H@Z 18C0:?PasteCellsFromArchive@CGXGridCore@@UAEHAAVCArchive@@ABVCGXRange@@H@Z 190C:?CanCopy@CGXGridCore@@UAEHXZ 1938:?Copy@CGXGridCore@@UAEHXZ 1965:?CopyRange@CGXGridCore@@QAEHABVCGXRange@@@Z 1A0E:?CopyRange@CGXGridCore@@UAEHABVCGXRangeList@@@Z 1A52:?CopyTextToClipboard@CGXGridCore@@QAEHABVCGXRangeList@@@Z 1A96:?CopyCellsToClipboard@CGXGridCore@@QAEHABVCGXRangeList@@H@Z 1ADE:?CanCut@CGXGridCore@@UAEHXZ 1B0B:?Cut@CGXGridCore@@UAEHXZ 1B38:?CutRange@CGXGridCore@@QAEHABVCGXRange@@H@Z 1BE5:?CutRange@CGXGridCore@@UAEHABVCGXRangeList@@H@Z 1C1C:?CanPaste@CGXGridCore@@UAEHXZ 1C49:?OnCheckClipboardFormat@CGXGridCore@@UAEHXZ 1C87:?Paste@CGXGridCore@@UAEHXZ 1CB4:?OnPasteDirect@CGXGridCore@@UAEHABVCGXRange@@@Z 1CF8:?OnPasteFromClipboard@CGXGridCore@@UAEHABVCGXRange@@@Z 1D3C:?OnPasteDiffRange@CGXGridCore@@UAEHXZ 1D69:?CanClear@CGXGridCore@@UAEHXZ 1D95:?Clear@CGXGridCore@@UAEHH@Z 1DD9:?ClearCells@CGXGridCore@@QAEHABVCGXRange@@H@Z 1E86:?ClearCells@CGXGridCore@@UAEHABVCGXRangeList@@H@Z 1ECE:?SetRangeName@CGXGridCore@@UAEHPBGABVCGXRange@@PAVCObject@@IW4GXCmdType@@@Z 1F21:?GetRangeName@CGXGridCore@@UAEHPBGAAVCGXRange@@@Z 1F69:?DeleteRangeName@CGXGridCore@@UAEHPBGPAVCObject@@W4GXCmdType@@@Z (REF 00CC: $SG94540)
                    7400740E8B4D08516A008B4DFCE8........8BE5:
                      0. 04 057A 0024 0000:?QueueRedraw@CGXBCurrencyEdit@@IAEXH@Z
                    7800740E8B4D08516A008B4DFCE8........8BE5:
                      0. 04 057A 0024 0000:?QueueRedraw@CGXBCurrencyEdit@@IAEXH@Z
                  C0:
                    048BE55DC3:
                      0. 00 0000 0011 (?)0000:?AccessMap@?$CGXNodeManagerNor@VCGXTabWndAdapter@@@@QAEPAV?$CMap@KAAKPAVCGXTabWndAdapter@@AAPAV1@@@XZ
                    0C8BE55DC3:
                      0. 00 0000 0011 0000:?data@CGXPlex@@QAEPAXXZ
                    2C8BE55DC3:
                      0. 00 0000 0011 (?)0000:?GetValue@CGXStyle@@QBEABVCString@@XZ
                8A:
                  40:
                    1C8BE55DC3:
                      0. 00 0000 0011 0000:?GetThousandSeparator@Format@CGXBCurrencyEdit@@QBEDXZ
                    1D8BE55DC3:
                      0. 00 0000 0011 0000:?GetDecimalSeparator@Format@CGXBCurrencyEdit@@QBEDXZ
                    1E8BE55DC3:
                      0. 00 0000 0011 0000:?GetPaddingCharacter@Format@CGXBCurrencyEdit@@QBEDXZ
                  4D088848:
                    1C8BE55DC20400:
                      0. 00 0000 0016 0000:?SetThousandSeparator@Format@CGXBCurrencyEdit@@QAEXD@Z
                    1D8BE55DC20400:
                      0. 00 0000 0016 0000:?SetDecimalSeparator@Format@CGXBCurrencyEdit@@QAEXD@Z
                8B:
                  00:
                    83E0078BE55DC3:
                      0. 00 0000 0013 0000:?GetHatch@CGXBrush@@QBEJXZ
                    8BE55DC3:
                      0. 00 0000 0010 (?)0000:?GetNoPortableBits@STYLEBITS@CGXStyle@@QBEKXZ
                  0883E10733C083F9070F95C08BE55DC3:
                    0. 00 0000 001B 0000:?GetInclude@CGXPen@@QBEHXZ
                  108B4DFCFF92CC0000008BE55DC3:
                    0. 00 0000 0019 0000:?OnClicked@CGXBCurrencyEdit@@MAEXXZ
                  40:
                    04:
                      83E0018BE55DC3:
                        0. 00 0000 0014 0000:?GetIncludeHorizontalAlignment@CGXStyle@@QBEHXZ
                      8BE55DC3:
                        0. 00 0000 0011 (?)0000:?GetOleVariant@CGXDaoBlob@@QAEPBVCOleVariant@@XZ
                      C1E8:
                        0283E0018BE55DC3:
                          0. 00 0000 0017 0000:?GetIncludeReadOnly@CGXStyle@@QBEHXZ
                        0383E0018BE55DC3:
                          0. 00 0000 0017 0000:?GetIncludeControl@CGXStyle@@QBEHXZ
                        0483E0018BE55DC3:
                          0. 00 0000 0017 0000:?GetIncludeInterior@CGXStyle@@QBEHXZ
                        0583E0018BE55DC3:
                          0. 00 0000 0017 0000:?GetIncludeTextColor@CGXStyle@@QBEHXZ
                        0683E0018BE55DC3:
                          0. 00 0000 0017 0000:?GetIncludeWrapText@CGXStyle@@QBEHXZ
                        0783E0018BE55DC3:
                          0. 00 0000 0017 0000:?GetIncludeAllowEnter@CGXStyle@@QBEHXZ
                        0883E0018BE55DC3:
                          0. 00 0000 0017 0000:?GetIncludeBorders@CGXStyle@@QBEHXZ
                        0983E0018BE55DC3:
                          0. 00 0000 0017 0000:?GetIncludeFont@CGXStyle@@QBEHXZ
                        0A83E0018BE55DC3:
                          0. 00 0000 0017 0000:?GetIncludeValue@CGXStyle@@QBEHXZ
                        0B83E0018BE55DC3:
                          0. 00 0000 0017 0000:?GetIncludeChoiceList@CGXStyle@@QBEHXZ
                        0C83E0018BE55DC3:
                          0. 00 0000 0017 0000:?GetIncludeVertScrollBar@CGXStyle@@QBEHXZ
                        0D83E0018BE55DC3:
                          0. 00 0000 0017 0000:?GetIncludeMaxLength@CGXStyle@@QBEHXZ
                        0E83E0018BE55DC3:
                          0. 00 0000 0017 0000:?GetIncludeBaseStyle@CGXStyle@@QBEHXZ
                        0F83E0018BE55DC3:
                          0. 00 0000 0017 0000:?GetIncludeEnabled@CGXStyle@@QBEHXZ
                        1083E0018BE55DC3:
                          0. 00 0000 0017 0000:?GetIncludeTriState@CGXStyle@@QBEHXZ
                        1183E0018BE55DC3:
                          0. 00 0000 0017 0000:?GetIncludeDraw3dFrame@CGXStyle@@QBEHXZ
                        1383E0018BE55DC3:
                          0. 00 0000 0017 0000:?GetIncludeAutoSize@CGXStyle@@QBEHXZ
                        1483E0018BE55DC3:
                          0. 00 0000 0017 0000:?GetIncludeItemDataPtr@CGXStyle@@QBEHXZ
                        1583E0018BE55DC3:
                          0. 00 0000 0017 0000:?GetIncludeFloodCell@CGXStyle@@QBEHXZ
                        1683E0018BE55DC3:
                          0. 00 0000 0017 0000:?GetIncludeFloatCell@CGXStyle@@QBEHXZ
                        1783E0018BE55DC3:
                          0. 00 0000 0017 0000:?GetIncludeMergeCell@CGXStyle@@QBEHXZ
                        1883E0:
                          018BE55DC3:
                            0. 00 0000 0017 0000:?GetIncludeFormat@CGXStyle@@QBEHXZ
                          3F8BE55DC3:
                            0. 00 0000 0017 0000:?GetPattern@CGXBrush@@QBEHXZ
                        1983E0018BE55DC3:
                          0. 00 0000 0017 0000:?GetIncludePlaces@CGXStyle@@QBEHXZ
                        1E83E0038BE55DC3:
                          0. 00 0000 0017 0000:?GetStyle@CGXBrush@@QBEIXZ
                      D1E883E0018BE55DC3:
                        0. 00 0000 0016 0000:?GetIncludeVerticalAlignment@CGXStyle@@QBEHXZ
                    08:
                      8BE55DC3:
                        0. 00 0000 0011 (?)0000:?GetSize@?$CArray@PAVCGXTabCreateInfo@@PAV1@@@QBEHXZ
                      C1E8:
                        0283E0018BE55DC3:
                          0. 00 0000 0017 0000:?GetIncludeUnderline@CGXFont@@QBEHXZ
                        0383E0018BE55DC3:
                          0. 00 0000 0017 0000:?GetIncludeStrikeOut@CGXFont@@QBEHXZ
                        0825FF030000F7D81BC0F7D88BE55DC3:
                          0. 00 0000 001F 0000:?GetIncludeSize@CGXFont@@QBEHXZ
                      D1E883E0018BE55DC3:
                        0. 00 0000 0016 0000:?GetIncludeItalic@CGXFont@@QBEHXZ
                    0C:
                      8BE55DC3:
                        0. 00 0000 0011 (?)0000:?GetCount@CGXCollMapDWordToString@@QBEHXZ
                      F7D81BC08BE55DC3:
                        0. 00 0000 0015 (?)0000:?GetStartPosition@CGXCollMapDWordToString@@QBEPAU__POSITION@@XZ
                    108BE55DC3:
                      0. 00 0000 0011 (?)0000:?GetDefaultComboBoxHeight@CGXGridParam@@QAEHXZ
                    148BE55DC3:
                      0. 00 0000 0011 (?)0000:?IsEatFirstMouseClick@CGXGridParam@@QAEHXZ
                    18:
                      8BE55DC3:
                        0. 00 0000 0011 0000:?IsTransparentBackground@CGXGridParam@@QAEHXZ
                      C1E81483E0078BE55DC3:
                        0. 00 0000 0017 0000:?GetValueType@CGXStyle@@QBEIXZ
                    2C8BE55DC3:
                      0. 00 0000 0011 0000:?GetDecimalSeparatorLineColor@Format@CGXBCurrencyEdit@@QBEKXZ
                    308BE55DC3:
                      0. 00 0000 0011 0000:?GetDecimalSeparatorLineColor@Format@CGXBCurrencyEdit@@QBEKXZ
                    348BE55DC3:
                      0. 00 0000 0011 (?)0000:?GetPositiveFormat@Format@CGXBCurrencyEdit@@QBEHXZ
                    388BE55DC3:
                      0. 00 0000 0011 (?)0000:?GetPositiveFormat@Format@CGXBCurrencyEdit@@QBEHXZ
                    3C8BE55DC3:
                      0. 00 0000 0011 (?)0000:?GetNegativeFormat@Format@CGXBCurrencyEdit@@QBEHXZ
                    408BE55DC3:
                      0. 00 0000 0011 (?)0000:?IsLockReadOnly@CGXGridParam@@QAEHXZ
                    448BE55DC3:
                      0. 00 0000 0011 (?)0000:?GetFractionalDigits@Format@CGXBCurrencyEdit@@QBEHXZ
                    488BE55DC3:
                      0. 00 0000 0011 0000:?SetMaxLength@CGXMaskData@@UBEHXZ
                    4C8BE55DC3:
                      0. 00 0000 0011 0000:?IsDrawWYSIWYG@CGXGridParam@@QAEHXZ
                    5C8BE55DC3:
                      0. 00 0000 0011 0000:?IsScrollLikeExcel@CGXGridParam@@QAEHXZ
                    688BE55DC3:
                      0. 00 0000 0011 0000:?IsNegative@CGXBCurrencyEdit@@IBEHXZ
                    6C8BE55DC3:
                      0. 00 0000 0011 0000:?IsNegative@CGXBCurrencyEdit@@IBEHXZ
                    788BE55DC3:
                      0. 00 0000 0011 0000:?IsMouseSelecting@CGXBCurrencyEdit@@IBEHXZ
                    7C8BE55DC3:
                      0. 00 0000 0011 (?)0000:?IsOverstrikeEnabled@CGXBCurrencyEdit@@IBEHXZ
                  48:
                    04E8........8BE55DC3:
                      0. 00 0000 0016 0000:?GridWnd@CGXChild@@QAEPAVCWnd@@XZ
                    08:
                      83E10185C974128B4DFCE8........52508B4D:
                        0. 02 A9B1 002A 0000:?Release@CGXFont@@IAEXXZ
                      C1E9:
                        0483E10F33C083F90F0F95C08BE55DC3:
                          0. 00 0000 001F 0000:?GetIncludeWeight@CGXFont@@QBEHXZ
                        1581E1FF01000033C081F9FF0100000F95:
                          0. 05 7FCE 0025 0000:?GetIncludeOrientation@CGXFont@@QBEHXZ
                    0C81E1FF03000033C081F9FF0300000F95C08BE5:
                      0. 02 5F98 0022 0000:?GetIncludeFaceName@CGXFont@@QBEHXZ
                  4D:
                    08:
                      89:
                        088B:
                          55FC8B450C8942048B:
                            45FC8BE55DC208:
                              0. 01 78F0 0021 0000:??0GXNDX@@QAE@KK@Z
                            E55DC20800:
                              0. 00 0000 001E 0000:?Set@tagSelData@CGXBCurrencyEdit@@QAEXHH@Z
                          E55DC20400:
                            0. 00 0000 0015 0000:?SetNoPortableBits@STYLEBITS@CGXStyle@@QAEXK@Z
                        48:
                          04:
                            6A016A018B55FC8B4A04E8........8B:
                              0. 23 7D2D 08EA 0000:??0CGXLockSelectionFrame@@QAE@PAVCGXGridCore@@@Z 002D:??1CGXLockSelectionFrame@@QAE@XZ 004B:?CopyRangeList@CGXGridCore@@QAEHAAVCGXRangeList@@H@Z 0196:?GetSelectedCols@CGXGridCore@@QAEHAAVCDWordArray@@0HH@Z 0220:?GetSelectedCols@CGXGridCore@@QAEKAAVCDWordArray@@HH@Z 032D:?GetSelectedRows@CGXGridCore@@QAEHAAVCDWordArray@@0HH@Z 03B7:?GetSelectedRows@CGXGridCore@@QAEKAAVCDWordArray@@HH@Z 04C4:?GetInvertStateRowCol@CGXGridCore@@UAEHKKPBVCGXRangeList@@@Z 04E3:?SelectRange@CGXGridCore@@UAEXABVCGXRange@@HH@Z 052B:?StoreSelectRange@CGXGridCore@@MAEHABVCGXRange@@H@Z 0573:?UpdateSelectRange@CGXGridCore@@MAEXABVCGXRange@@PBVCGXRangeList@@H@Z 05BB:?SetSelection@CGXGridCore@@QAEXPAU__POSITION@@KKKK@Z 060B:?PrepareChangeSelection@CGXGridCore@@MAEXPAU__POSITION@@KKKKH@Z 065F:?PrepareClearSelection@CGXGridCore@@MAEXH@Z 069F:?OnChangedSelection@CGXGridCore@@MAEXPBVCGXRange@@HH@Z 06AC:?OnStartSelection@CGXGridCore@@MAEHKKIVCPoint@@@Z 06BE:?PreChangeSelection@CGXGridCore@@MAEXPAVCGXRange@@HH@Z 06CB:?CanChangeSelection@CGXGridCore@@MAEHPAVCGXRange@@HH@Z 06F7:?DrawInvertFrame@CGXGridCore@@MAEXPAVCDC@@ABVCRect@@1HHHH@Z 074E:?DrawSelectionRangeFrame@CGXGridCore@@IAEXPAVCDC@@ABVCGXRange@@HH@Z 079A:?DrawSelectionFrame@CGXGridCore@@QAEXPAVCDC@@HPBVCGXRange@@@Z 07D1:?ToggleSelectionFrameMarker@CGXGridCore@@QAEXXZ 07FA:?LockSelectionFrame@CGXGridCore@@QAEHHH@Z 0831:?SetExcelLikeFillImp@CGXGridCore@@QAEXPAVCGXAbstractGridExcelLikeFillImp@@H@Z 0864:?OnStartAutoFillSelection@CGXGridCore@@MAEHAAVCGXRange@@AAIAAVCPoint@@@Z 0876:?CanChangeAutoFillSelection@CGXGridCore@@MAEHAAVCGXRange@@ABV2@@Z 0888:?DoAutoFill@CGXGridCore@@MAEXAAVCGXRange@@0@Z 08BB:?OnAutoFillDone@CGXGridCore@@MAEXAAVCGXRange@@@Z
                            8BE55DC20400:
                              0. 00 0000 0016 (?)0000:?SetActiveControl@CGXOleViewer@@QAEXPAVCGXControl@@@Z
                          088BE55DC20400:
                            0. 00 0000 0016 (?)0000:?SetNumberedRowHeaders@CGXGridParam@@QAEXH@Z
                          0C8BE55DC20400:
                            0. 00 0000 0016 (?)0000:?SetNumberedColHeaders@CGXGridParam@@QAEXH@Z
                          108BE55DC20400:
                            0. 00 0000 0016 0000:?EnableSeparatorsInLeadingSpace@Format@CGXBCurrencyEdit@@QAEXH@Z
                          386A018B4DFCE8........8BE55DC20400:
                            0. 00 0000 0020 0000:?SetItemDataPtr@CGXStyle@@QAEAAV1@PAX@Z
                          3C8BE55DC20400:
                            0. 00 0000 0016 0000:?SetDecimalDigits@Format@CGXBCurrencyEdit@@QAEXH@Z
                          408BE55DC20400:
                            0. 00 0000 0016 (?)0000:?SetLockReadOnly@CGXGridParam@@QAEXH@Z
                          448BE55DC20400:
                            0. 00 0000 0016 0000:?SetFractionalDigits@Format@CGXBCurrencyEdit@@QAEXH@Z
                          488BE55DC20400:
                            0. 00 0000 0016 0000:?SetMaxLength@CGXMaskData@@UAEXH@Z
                        88:
                          000100008BE55DC20400:
                            0. 00 0000 0019 0000:?SetPrintHorzLines@CGXProperties@@QAEXH@Z
                          040100008BE55DC20400:
                            0. 00 0000 0019 0000:?SetPrintRowHeaders@CGXProperties@@QAEXH@Z
                          080100008BE55DC20400:
                            0. 00 0000 0019 0000:?SetPrintVertLines@CGXProperties@@QAEXH@Z
                          0C0100008BE55DC20400:
                            0. 00 0000 0019 0000:?SetPageOrder@CGXProperties@@QAEXH@Z
                          100100008BE55DC20400:
                            0. 00 0000 0019 0000:?SetBlackWhite@CGXProperties@@QAEXH@Z
                          140100008BE55DC20400:
                            0. 00 0000 0019 0000:?SetPrintFrame@CGXProperties@@QAEXH@Z
                          180100008B55FC8B450C89821C0100008B:
                            0. 05 BEED 0025 0000:?SetDistances@CGXProperties@@QAEXHH@Z
                          200100008BE55DC20400:
                            0. 00 0000 0019 0000:?SetFirstPage@CGXProperties@@QAEXH@Z
                          3C0300008BE55DC20400:
                            0. 00 0000 0019 0000:?SetIgnoreBinary@CGXDaoParam@@UAEXH@Z
                          940400008BE55DC20400:
                            0. 00 0000 0019 0000:?SetDropDownCell@CGXGridCore@@QAEXH@Z
                          980400008BE55DC20400:
                            0. 00 0000 0019 0000:?SetIgnoreFocus@CGXGridCore@@QAEXH@Z
                          9C0000008BE55DC20400:
                            0. 00 0000 0019 0000:?SetDisplay3dButtons@CGXProperties@@QAEXH@Z
                          A00000008BE55DC20400:
                            0. 00 0000 0019 0000:?SetDisplayVertLines@CGXProperties@@QAEXH@Z
                          A40000008BE55DC20400:
                            0. 00 0000 0019 0000:?SetDisplayHorzLines@CGXProperties@@QAEXH@Z
                          A80000008BE55DC20400:
                            0. 00 0000 0019 0000:?SetMarkRowHeader@CGXProperties@@QAEXH@Z
                          AC0000008BE55DC20400:
                            0. 00 0000 0019 0000:?SetMarkColHeader@CGXProperties@@QAEXH@Z
                          B00000008BE55DC20400:
                            0. 00 0000 0019 0000:?SetPrinting@CGXProperties@@QAEXH@Z
                          B40000008B55FC8B45108982BC0000008B:
                            0. 11 05C1 0031 0000:?SetGridWnd@CGXGridCore@@QAEXPAVCWnd@@PAVCDocument@@H@Z
                          C40100008BE55DC20400:
                            0. 00 0000 0019 0000:?SetNewGridLineMode@CGXGridParam@@QAEXH@Z
                          CC0100008BE55DC20400:
                            0. 00 0000 0019 0000:?SetExcelLikeCurrentCell@CGXGridParam@@QAEXH@Z
                          D00100008BE55DC20400:
                            0. 00 0000 0019 0000:?SetExcelLikeSelectionFrame@CGXGridParam@@QAEXH@Z
                          E00000008BE55DC20400:
                            0. 00 0000 0019 0000:?SetLastZoom@CGXProperties@@QAEXH@Z
                          EC0000008B55FC8B450C8982E80000008B:
                            0. 1D 7E02 003D 0000:?SetMargins@CGXProperties@@QAEXHHHH@Z
                          F40000008BE55DC20400:
                            0. 00 0000 0019 0000:?SetCenterHorizontal@CGXProperties@@QAEXH@Z
                          F80000008BE55DC20400:
                            0. 00 0000 0019 0000:?SetCenterVertical@CGXProperties@@QAEXH@Z
                          FC0000008BE55DC20400:
                            0. 00 0000 0019 0000:?SetPrintColHeaders@CGXProperties@@QAEXH@Z
                      8B1189108B45FC8B4D088B51048950048B45FC:
                        0. 06 6154 0026 (?)0000:??0tagSelData@CGXBCurrencyEdit@@QAE@ABU01@@Z
                    FC8B40:
                      0C2B410483C0018BE55DC3:
                        0. 00 0000 001A 0000:?GetHeight@CGXRange@@QBEKXZ
                      102B410883C0018BE55DC3:
                        0. 00 0000 001A 0000:?GetWidth@CGXRange@@QBEKXZ
                  80:
                    000100008BE55DC3:
                      0. 00 0000 0014 0000:?GetPrintHorzLines@CGXProperties@@QAEHXZ
                    040100008BE55DC3:
                      0. 00 0000 0014 0000:?GetPrintRowHeaders@CGXProperties@@QAEHXZ
                    080100008BE55DC3:
                      0. 00 0000 0014 0000:?GetPrintVertLines@CGXProperties@@QAEHXZ
                    0C0100008BE55DC3:
                      0. 00 0000 0014 (?)0000:?GetPageOrder@CGXProperties@@QAEHXZ
                    100100008BE55DC3:
                      0. 00 0000 0014 0000:?GetPrintBlackWhite@CGXProperties@@QAEHXZ
                    140100008BE55DC3:
                      0. 00 0000 0014 0000:?GetPrintFrame@CGXProperties@@QAEHXZ
                    200100008BE55DC3:
                      0. 00 0000 0014 0000:?GetFirstPage@CGXProperties@@QAEHXZ
                    3C0300008BE55DC3:
                      0. 00 0000 0014 0000:?GetIgnoreBinary@CGXDaoParam@@UBEHXZ
                    800000008BE55DC3:
                      0. 00 0000 0014 0000:?IsOverstrikeEnabled@CGXBCurrencyEdit@@IBEHXZ
                    840000008BE55DC3:
                      0. 00 0000 0014 0000:?IsSyncCurrentCell@CGXGridParam@@QAEHXZ
                    880400008BE55DC3:
                      0. 00 0000 0014 0000:?IsActiveFrame@CGXGridCore@@QAEHXZ
                    940000008BE55DC3:
                      0. 00 0000 0014 0000:?IsHourPM@CGXBDateTimeCtrl@@QAEHXZ
                    980000008BE55DC3:
                      0. 00 0000 0014 0000:?IsHourPM@CGXBDateTimeCtrl@@QAEHXZ
                    9C0000008BE55DC3:
                      0. 00 0000 0014 0000:?GetDisplay3dButtons@CGXProperties@@QBEHXZ
                    A80000008BE55DC3:
                      0. 00 0000 0014 0000:?GetMarkRowHeader@CGXProperties@@QBEHXZ
                    AC0000008BE55DC3:
                      0. 00 0000 0014 0000:?GetMarkColHeader@CGXProperties@@QBEHXZ
                    B0:
                      0000008BE55DC3:
                        0. 00 0000 0014 0000:?GetPrinting@CGXProperties@@QBEHXZ
                      0400008BE55DC3:
                        0. 00 0000 0014 0000:?GetParam@CGXGridCore@@QAEPAVCGXGridParam@@XZ
                    B40000008BE55DC3:
                      0. 00 0000 0014 0000:?GridWnd@CGXGridCore@@QAEPAVCWnd@@XZ
                    B80000008BE55DC3:
                      0. 00 0000 0014 0000:?GetGridDoc@CGXGridCore@@QAEPAVCDocument@@XZ
                    C40100008BE55DC3:
                      0. 00 0000 0014 0000:?GetNewGridLineMode@CGXGridParam@@QAEHXZ
                    CC0100008BE55DC3:
                      0. 00 0000 0014 0000:?GetExcelLikeCurrentCell@CGXGridParam@@QAEHXZ
                    D00100008BE55DC3:
                      0. 00 0000 0014 0000:?GetExcelLikeSelectionFrame@CGXGridParam@@QAEHXZ
                    D80100008BE55DC3:
                      0. 00 0000 0014 0000:?GetSortColsOnDblClk@CGXGridParam@@QAEHXZ
                    DC0100008BE55DC3:
                      0. 00 0000 0014 0000:?GetSortRowsOnDblClk@CGXGridParam@@QAEHXZ
                    E00000008BE55DC3:
                      0. 00 0000 0014 0000:?GetLastZoom@CGXProperties@@QBEHXZ
                    F4:
                      0000008BE55DC3:
                        0. 00 0000 0014 0000:?GetCenterHorizontal@CGXProperties@@QAEHXZ
                      0400008BE55DC3:
                        0. 00 0000 0014 0000:?IsPrinting@CGXGridCore@@QAEHXZ
                    F80000008BE55DC3:
                      0. 00 0000 0014 0000:?GetCenterVertical@CGXProperties@@QAEHXZ
                    FC0000008BE55DC3:
                      0. 00 0000 0014 0000:?GetPrintColHeaders@CGXProperties@@QAEHXZ
                  88B4000000E8........8BE55DC3:
                    0. 00 0000 0019 0000:?UpdateWindow@CGXGridCore@@IAEXXZ (REF 0011: ?UpdateWindow@CWnd@@QAEXXZ)
                    1. 00 0000 0019 0000:?OpenClipboard@CGXGridCore@@IAEHXZ (REF 0011: ?OpenClipboard@CWnd@@QAEHXZ)
                    2. 00 0000 0019 0000:?SetCapture@CGXGridCore@@IAEPAVCWnd@@XZ (REF 0011: ?SetCapture@CWnd@@QAEPAV1@XZ)
                  E55DC3:
                    0. 00 0000 000E 0000:??0IUnknown@@QAE@XZ
                C700:
                  000000008B4DFC:
                    83C104E8........8B4DFCC741:
                      0. 0C 122E 002C 0000:??0CGXBrowseDirtyFieldStruct@@QAE@XZ
                    C74104000000008B45FC8BE55D:
                      0. 01 EF04 0021 0000:??0GXNDX@@QAE@XZ
                  FFFFFFFF8B4DFCC74104000000008B:
                    45FC8BE55D:
                      0. 01 EF04 0021 0000:??0tagSelData@CGXBCurrencyEdit@@QAE@XZ
                    E55DC3:
                      0. 00 0000 001E 0000:?Clear@tagSelData@CGXBCurrencyEdit@@QAEXXZ
                  ........8B:
                    45FC8BE55DC3:
                      0. 00 0000 0017 0000:??0CGXAbstractGridOptimizedUpdateImp@@QAE@XZ (REF 000C: ??_7CGXAbstractGridOptimizedUpdateImp@@6B@)
                      1. 00 0000 0017 0000:??0CGXAbstractTabWndInterface@@QAE@XZ (REF 000C: ??_7CGXAbstractTabWndInterface@@6B@)
                      2. 00 0000 0017 0000:??0CGXNoToolTipCtrlProxy@@QAE@XZ (REF 000C: ??_7CGXNoToolTipCtrlProxy@@6B@)
                      3. 00 0000 0017 0000:??0CGXAbstractDateTimeImp@@QAE@XZ (REF 000C: ??_7CGXAbstractDateTimeImp@@6B@)
                      4. 00 0000 0017 0000:??0_iterOp@?$CGXNodeManagerNor@VCGXTabWndAdapter@@@@QAE@XZ (REF 000C: ??_7_iterOp@?$CGXNodeManagerNor@VCGXTabWndAdapter@@@@6B@)
                      5. 00 0000 0017 0000:??0?$CGXCreator@VCGXTabWndAdapter@@@@QAE@XZ (REF 000C: ??_7?$CGXCreator@VCGXTabWndAdapter@@@@6B@)
                      6. 00 0000 0017 0000:??0CGXTabWndAdapter@@QAE@XZ (REF 000C: ??_7CGXTabWndAdapter@@6B@)
                      7. 00 0000 0017 0000:??0CGXAbstractStyleSerializeImp@@QAE@XZ (REF 000C: ??_7CGXAbstractStyleSerializeImp@@6B@)
                      8. 00 0000 0017 0000:??0CGXAbstractSerializeOG5CompatibleImp@@QAE@XZ (REF 000C: ??_7CGXAbstractSerializeOG5CompatibleImp@@6B@)
                      9. 00 0000 0017 0000:??0CGXAbstractStyleCompareSubsetImp@@QAE@XZ (REF 000C: ??_7CGXAbstractStyleCompareSubsetImp@@6B@)
                      10. 00 0000 0017 0000:??0CNoTrackObject@@QAE@XZ (REF 000C: ??_7CNoTrackObject@@6B@)
                      11. 00 0000 0017 0000:??0CGXAbstractSpanCellPoolImp@@QAE@XZ (REF 000C: ??_7CGXAbstractSpanCellPoolImp@@6B@)
                      12. 00 0000 0017 0000:??0CGXAbstractGridSortMoveDataImp@@QAE@XZ (REF 000C: ??_7CGXAbstractGridSortMoveDataImp@@6B@)
                      13. 00 0000 0017 0000:??0CGXAbstractGridSortImp@@QAE@XZ (REF 000C: ??_7CGXAbstractGridSortImp@@6B@)
                      14. 00 0000 0017 0000:??0CGXAbstractGridUserResizeCellsImp@@QAE@XZ (REF 000C: ??_7CGXAbstractGridUserResizeCellsImp@@6B@)
                      15. 00 0000 0017 0000:??0CGXAbstractGridUserSelectRangeImp@@QAE@XZ (REF 000C: ??_7CGXAbstractGridUserSelectRangeImp@@6B@)
                      16. 00 0000 0017 0000:??0CGXAbstractGridExcelLikeFrameImp@@QAE@XZ (REF 000C: ??_7CGXAbstractGridExcelLikeFrameImp@@6B@)
                      17. 00 0000 0017 0000:??0CGXAbstractGridUserDragSelectRangeImp@@QAE@XZ (REF 000C: ??_7CGXAbstractGridUserDragSelectRangeImp@@6B@)
                      18. 00 0000 0017 0000:??0CGXAbstractGridProfileImp@@QAE@XZ (REF 000C: ??_7CGXAbstractGridProfileImp@@6B@)
                      19. 00 0000 0017 0000:??0CGXAbstractPrintDeviceImp@@QAE@XZ (REF 000C: ??_7CGXAbstractPrintDeviceImp@@6B@)
                      20. 00 0000 0017 0000:??0CGXAbstractGridDocSerializeImp@@QAE@XZ (REF 000C: ??_7CGXAbstractGridDocSerializeImp@@6B@)
                      21. 00 0000 0017 0000:??0CGXAbstractGridParamCopyOperatorImp@@QAE@XZ (REF 000C: ??_7CGXAbstractGridParamCopyOperatorImp@@6B@)
                      22. 00 0000 0017 0000:??0CGXNoOleDataSourceProxy@@QAE@XZ (REF 000C: ??_7CGXNoOleDataSourceProxy@@6B@)
                      23. 00 0000 0017 0000:??0CGXNoOleDataObjectProxy@@QAE@XZ (REF 000C: ??_7CGXNoOleDataObjectProxy@@6B@)
                      24. 00 0000 0017 0000:??0CGXAbstractGridDropTargetImp@@QAE@XZ (REF 000C: ??_7CGXAbstractGridDropTargetImp@@6B@)
                      25. 00 0000 0017 0000:??0CGXAbstractGridMergeCellsImp@@QAE@XZ (REF 000C: ??_7CGXAbstractGridMergeCellsImp@@6B@)
                      26. 00 0000 0017 0000:??0CGXAbstractGridMoveRowsColsImp@@QAE@XZ (REF 000C: ??_7CGXAbstractGridMoveRowsColsImp@@6B@)
                      27. 00 0000 0017 0000:??0CGXAbstractGridMarkEditHeaderImp@@QAE@XZ (REF 000C: ??_7CGXAbstractGridMarkEditHeaderImp@@6B@)
                      28. 00 0000 0017 0000:??0CGXAbstractRecordInfoWndInterface@@QAE@XZ (REF 000C: ??_7CGXAbstractRecordInfoWndInterface@@6B@)
                      29. 00 0000 0017 0000:??0CGXAbstractGridUpdateHintImp@@QAE@XZ (REF 000C: ??_7CGXAbstractGridUpdateHintImp@@6B@)
                      30. 00 0000 0017 0000:??0CGXAbstractGridHideCellsImp@@QAE@XZ (REF 000C: ??_7CGXAbstractGridHideCellsImp@@6B@)
                      31. 00 0000 0017 0000:??0CGXAbstractGridFreezeMenuHelperImp@@QAE@XZ (REF 000C: ??_7CGXAbstractGridFreezeMenuHelperImp@@6B@)
                      32. 00 0000 0017 0000:??0CGXAbstractNumberFormattingImp@@QAE@XZ (REF 000C: ??_7CGXAbstractNumberFormattingImp@@6B@)
                      33. 00 0000 0017 0000:??0CGXAbstractGridFloatCellsImp@@QAE@XZ (REF 000C: ??_7CGXAbstractGridFloatCellsImp@@6B@)
                      34. 00 0000 0017 0000:??0CGXAbstractGridExcelLikeFillImp@@QAE@XZ (REF 000C: ??_7CGXAbstractGridExcelLikeFillImp@@6B@)
                      35. 00 0000 0017 0000:??0CGXAbstractGridTextDataExchangeImp@@QAE@XZ (REF 000C: ??_7CGXAbstractGridTextDataExchangeImp@@6B@)
                      36. 00 0000 0017 0000:??0CGXAbstractGridStyleDataExchangeImp@@QAE@XZ (REF 000C: ??_7CGXAbstractGridStyleDataExchangeImp@@6B@)
                      37. 00 0000 0017 0000:??0CGXDrawingAndFormatting@@QAE@XZ (REF 000C: ??_7CGXDrawingAndFormatting@@6B@)
                      38. 00 0000 0017 0000:??0CGXAbstractDrawRotatedTextImp@@QAE@XZ (REF 000C: ??_7CGXAbstractDrawRotatedTextImp@@6B@)
                      39. 00 0000 0017 0000:??0CGXAbstractGridOldDrawingImp@@QAE@XZ (REF 000C: ??_7CGXAbstractGridOldDrawingImp@@6B@)
                      40. 00 0000 0017 0000:??0CGXAbstractDelayedRangePoolImp@@QAE@XZ (REF 000C: ??_7CGXAbstractDelayedRangePoolImp@@6B@)
                      41. 00 0000 0017 0000:??0CGXAbstractBlob@@QAE@XZ (REF 000C: ??_7CGXAbstractBlob@@6B@)
                      42. 00 0000 0017 0000:??0CGXAbstractDrawSpannedCellsImp@@QAE@XZ (REF 000C: ??_7CGXAbstractDrawSpannedCellsImp@@6B@)
                      43. 00 0000 0017 0000:??0CGXAbstractCoveredCellPoolImp@@QAE@XZ (REF 000C: ??_7CGXAbstractCoveredCellPoolImp@@6B@)
                      44. 00 0000 0017 0000:??0CGXAbstractGridCoveredCellsImp@@QAE@XZ (REF 000C: ??_7CGXAbstractGridCoveredCellsImp@@6B@)
                      45. 00 0000 0017 0000:??0CGXAbstractGridRangeNameImp@@QAE@XZ (REF 000C: ??_7CGXAbstractGridRangeNameImp@@6B@)
                      46. 00 0000 0017 0000:??0CGXAbstractDataCopyMoveCellsImp@@QAE@XZ (REF 000C: ??_7CGXAbstractDataCopyMoveCellsImp@@6B@)
                      47. 00 0000 0017 0000:??0CGXAbstractGridDirectCopyMoveCellsImp@@QAE@XZ (REF 000C: ??_7CGXAbstractGridDirectCopyMoveCellsImp@@6B@)
                      48. 00 0000 0017 0000:??0CGXAbstractGridPrintImp@@QAE@XZ (REF 000C: ??_7CGXAbstractGridPrintImp@@6B@)
                      49. 00 0000 0017 0000:??0CGXAbstractGridFindReplaceImp@@QAE@XZ (REF 000C: ??_7CGXAbstractGridFindReplaceImp@@6B@)
                      50. 00 0000 0017 0000:??0CGXAbstractGridResizeToFitImp@@QAE@XZ (REF 000C: ??_7CGXAbstractGridResizeToFitImp@@6B@)
                      51. 00 0000 0017 0000:??0CGXAbstractGridCutPasteImp@@QAE@XZ (REF 000C: ??_7CGXAbstractGridCutPasteImp@@6B@)
                      52. 00 0000 0017 0000:??0CGXAbstractCommandFactory@@QAE@XZ (REF 000C: ??_7CGXAbstractCommandFactory@@6B@)
                      53. 00 0000 0017 0000:??0CGXAbstractGridClearCellsImp@@QAE@XZ (REF 000C: ??_7CGXAbstractGridClearCellsImp@@6B@)
                      54. 00 0000 0017 0000:??0CGXAbstractCalcSizeImp@@QAE@XZ (REF 000C: ??_7CGXAbstractCalcSizeImp@@6B@)
                      55. 00 0000 0017 0000:??0CGXAbstractControlFactory@@QAE@XZ (REF 000C: ??_7CGXAbstractControlFactory@@6B@)
                      56. 00 0000 0017 0000:??0CGXAbstractLongOperationImp@@QAE@XZ (REF 000C: ??_7CGXAbstractLongOperationImp@@6B@)
                    4DFC:
                      C741:
                        04000000008B45FC8BE55D:
                          0. 0F D0F6 01C6 0000:??0CGXAppAdapter@@QAE@XZ 0021:??1CGXAppAdapter@@QAE@XZ 006D:?GetTabManager@CGXAppAdapter@@UAEPAVCGXTabWndMgr@@PAUCRuntimeClass@@PAVCDocument@@@Z 00DF:?RemoveTabManager@CGXAppAdapter@@UAEXPAUCRuntimeClass@@PAVCDocument@@@Z 0121:?GetDocTemplate@CGXAppAdapter@@UAEPAVCDocTemplate@@PAUCCreateContext@@@Z 0150:?CreateTabWndHolder@CGXAppAdapter@@UAEPAV?$CGXNodeManager@VCGXTabWndMgr@@@@XZ
                          1. 01 EF04 0021 0000:??0CGXOleViewer@@QAE@XZ
                        18000000008B55FCC74210:
                          0. 14 A6BF 0E6E 0000:??0CGXFrameAdapter@@QAE@XZ 0053:?SetWindow@CGXFrameAdapter@@QAEXPAVCWnd@@@Z 0069:?GetWindow@CGXFrameAdapter@@QBEPAVCWnd@@XZ 007A:??1CGXFrameAdapter@@QAE@XZ 00D4:?SetDocRuntimeClass@CGXFrameAdapter@@QAEXPAUCRuntimeClass@@@Z 015A:?SetViewRuntimeClass@CGXFrameAdapter@@QAEXPAUCRuntimeClass@@@Z 01E0:?SetNumberOfTabs@CGXFrameAdapter@@QAEXH@Z 021C:?GetNumberOfTabs@CGXFrameAdapter@@QBEHXZ 022D:?HandleOnCreateClient@CGXFrameAdapter@@UAEHPAUtagCREATESTRUCTA@@PAUCCreateContext@@@Z 02C3:?GetApplicationAdapter@CGXFrameAdapter@@QBEPAVCGXAppAdapter@@XZ 0318:?GetTabCreateInfo@CGXFrameAdapter@@UAEPAVCGXTabCreateInfo@@XZ 04DD:?OnChangeInitTabCreateInfo@CGXFrameAdapter@@UAEXAAPAVCGXTabCreateInfo@@@Z 04EA:?CanFreeTabCreateInfo@CGXFrameAdapter@@UAEXXZ 054A:?GetTabManager@CGXFrameAdapter@@UBEPAVCGXTabWndMgr@@XZ 060F:?InitNewHandler@CGXFrameAdapter@@UAEJIJ@Z 0768:?InitFromFileHandler@CGXFrameAdapter@@UAEJIJ@Z 0832:?GetInsertInfo@CGXFrameAdapter@@UAEXHPAVCGXTabCreateInfo@@AAI@Z 08AB:?OnChangeInsertInfo@CGXFrameAdapter@@UAEXAAHAAPAVCGXTabCreateInfo@@AAI@Z 0920:?InsertWorkSheetHandler@CGXFrameAdapter@@UAEXXZ 0A39:?DeleteWorkSheetHandler@CGXFrameAdapter@@UAEXXZ 0A8E:?CanInsertWorkSheetHandler@CGXFrameAdapter@@UAEHXZ 0AE4:?CanDeleteWorkSheetHandler@CGXFrameAdapter@@UAEHXZ 0B3A:??0CGXMDIFrameAdapter@@QAE@XZ 0B59:??1CGXMDIFrameAdapter@@QAE@XZ 0B75:?HandleOnNewWindow@CGXMDIFrameAdapter@@UAEXXZ 0DD9:?HandleDestroy@CGXMDIFrameAdapter@@UAEXXZ (0497: D4)
                          1. 14 A6BF 0E6E 0000:??0CGXFrameAdapter@@QAE@XZ 0053:?SetWindow@CGXFrameAdapter@@QAEXPAVCWnd@@@Z 0069:?GetWindow@CGXFrameAdapter@@QBEPAVCWnd@@XZ 007A:??1CGXFrameAdapter@@QAE@XZ 00D4:?SetDocRuntimeClass@CGXFrameAdapter@@QAEXPAUCRuntimeClass@@@Z 015A:?SetViewRuntimeClass@CGXFrameAdapter@@QAEXPAUCRuntimeClass@@@Z 01E0:?SetNumberOfTabs@CGXFrameAdapter@@QAEXH@Z 021C:?GetNumberOfTabs@CGXFrameAdapter@@QBEHXZ 022D:?HandleOnCreateClient@CGXFrameAdapter@@UAEHPAUtagCREATESTRUCTW@@PAUCCreateContext@@@Z 02C3:?GetApplicationAdapter@CGXFrameAdapter@@QBEPAVCGXAppAdapter@@XZ 0318:?GetTabCreateInfo@CGXFrameAdapter@@UAEPAVCGXTabCreateInfo@@XZ 04DD:?OnChangeInitTabCreateInfo@CGXFrameAdapter@@UAEXAAPAVCGXTabCreateInfo@@@Z 04EA:?CanFreeTabCreateInfo@CGXFrameAdapter@@UAEXXZ 054A:?GetTabManager@CGXFrameAdapter@@UBEPAVCGXTabWndMgr@@XZ 060F:?InitNewHandler@CGXFrameAdapter@@UAEJIJ@Z 0768:?InitFromFileHandler@CGXFrameAdapter@@UAEJIJ@Z 0832:?GetInsertInfo@CGXFrameAdapter@@UAEXHPAVCGXTabCreateInfo@@AAI@Z 08AB:?OnChangeInsertInfo@CGXFrameAdapter@@UAEXAAHAAPAVCGXTabCreateInfo@@AAI@Z 0920:?InsertWorkSheetHandler@CGXFrameAdapter@@UAEXXZ 0A39:?DeleteWorkSheetHandler@CGXFrameAdapter@@UAEXXZ 0A8E:?CanInsertWorkSheetHandler@CGXFrameAdapter@@UAEHXZ 0AE4:?CanDeleteWorkSheetHandler@CGXFrameAdapter@@UAEHXZ 0B3A:??0CGXMDIFrameAdapter@@QAE@XZ 0B59:??1CGXMDIFrameAdapter@@QAE@XZ 0B75:?HandleOnNewWindow@CGXMDIFrameAdapter@@UAEXXZ 0DD9:?HandleDestroy@CGXMDIFrameAdapter@@UAEXXZ (0497: D8)
                          2. 14 A6BF 0E70 0000:??0CGXFrameAdapter@@QAE@XZ 0053:?SetWindow@CGXFrameAdapter@@QAEXPAVCWnd@@@Z 0069:?GetWindow@CGXFrameAdapter@@QBEPAVCWnd@@XZ 007A:??1CGXFrameAdapter@@QAE@XZ 00D4:?SetDocRuntimeClass@CGXFrameAdapter@@QAEXPAUCRuntimeClass@@@Z 015A:?SetViewRuntimeClass@CGXFrameAdapter@@QAEXPAUCRuntimeClass@@@Z 01E2:?SetNumberOfTabs@CGXFrameAdapter@@QAEXH@Z 021E:?GetNumberOfTabs@CGXFrameAdapter@@QBEHXZ 022F:?HandleOnCreateClient@CGXFrameAdapter@@UAEHPAUtagCREATESTRUCTW@@PAUCCreateContext@@@Z 02C5:?GetApplicationAdapter@CGXFrameAdapter@@QBEPAVCGXAppAdapter@@XZ 031A:?GetTabCreateInfo@CGXFrameAdapter@@UAEPAVCGXTabCreateInfo@@XZ 04DF:?OnChangeInitTabCreateInfo@CGXFrameAdapter@@UAEXAAPAVCGXTabCreateInfo@@@Z 04EC:?CanFreeTabCreateInfo@CGXFrameAdapter@@UAEXXZ 054C:?GetTabManager@CGXFrameAdapter@@UBEPAVCGXTabWndMgr@@XZ 0611:?InitNewHandler@CGXFrameAdapter@@UAEJIJ@Z 076A:?InitFromFileHandler@CGXFrameAdapter@@UAEJIJ@Z 0834:?GetInsertInfo@CGXFrameAdapter@@UAEXHPAVCGXTabCreateInfo@@AAI@Z 08AD:?OnChangeInsertInfo@CGXFrameAdapter@@UAEXAAHAAPAVCGXTabCreateInfo@@AAI@Z 0922:?InsertWorkSheetHandler@CGXFrameAdapter@@UAEXXZ 0A3B:?DeleteWorkSheetHandler@CGXFrameAdapter@@UAEXXZ 0A90:?CanInsertWorkSheetHandler@CGXFrameAdapter@@UAEHXZ 0AE6:?CanDeleteWorkSheetHandler@CGXFrameAdapter@@UAEHXZ 0B3C:??0CGXMDIFrameAdapter@@QAE@XZ 0B5B:??1CGXMDIFrameAdapter@@QAE@XZ 0B77:?HandleOnNewWindow@CGXMDIFrameAdapter@@UAEXXZ 0DDB:?HandleDestroy@CGXMDIFrameAdapter@@UAEXXZ (0497: 8B) (REF 012D: $SG94547)
                          3. 14 A6BF 0E70 0000:??0CGXFrameAdapter@@QAE@XZ 0053:?SetWindow@CGXFrameAdapter@@QAEXPAVCWnd@@@Z 0069:?GetWindow@CGXFrameAdapter@@QBEPAVCWnd@@XZ 007A:??1CGXFrameAdapter@@QAE@XZ 00D4:?SetDocRuntimeClass@CGXFrameAdapter@@QAEXPAUCRuntimeClass@@@Z 015A:?SetViewRuntimeClass@CGXFrameAdapter@@QAEXPAUCRuntimeClass@@@Z 01E2:?SetNumberOfTabs@CGXFrameAdapter@@QAEXH@Z 021E:?GetNumberOfTabs@CGXFrameAdapter@@QBEHXZ 022F:?HandleOnCreateClient@CGXFrameAdapter@@UAEHPAUtagCREATESTRUCTA@@PAUCCreateContext@@@Z 02C5:?GetApplicationAdapter@CGXFrameAdapter@@QBEPAVCGXAppAdapter@@XZ 031A:?GetTabCreateInfo@CGXFrameAdapter@@UAEPAVCGXTabCreateInfo@@XZ 04DF:?OnChangeInitTabCreateInfo@CGXFrameAdapter@@UAEXAAPAVCGXTabCreateInfo@@@Z 04EC:?CanFreeTabCreateInfo@CGXFrameAdapter@@UAEXXZ 054C:?GetTabManager@CGXFrameAdapter@@UBEPAVCGXTabWndMgr@@XZ 0611:?InitNewHandler@CGXFrameAdapter@@UAEJIJ@Z 076A:?InitFromFileHandler@CGXFrameAdapter@@UAEJIJ@Z 0834:?GetInsertInfo@CGXFrameAdapter@@UAEXHPAVCGXTabCreateInfo@@AAI@Z 08AD:?OnChangeInsertInfo@CGXFrameAdapter@@UAEXAAHAAPAVCGXTabCreateInfo@@AAI@Z 0922:?InsertWorkSheetHandler@CGXFrameAdapter@@UAEXXZ 0A3B:?DeleteWorkSheetHandler@CGXFrameAdapter@@UAEXXZ 0A90:?CanInsertWorkSheetHandler@CGXFrameAdapter@@UAEHXZ 0AE6:?CanDeleteWorkSheetHandler@CGXFrameAdapter@@UAEHXZ 0B3C:??0CGXMDIFrameAdapter@@QAE@XZ 0B5B:??1CGXMDIFrameAdapter@@QAE@XZ 0B77:?HandleOnNewWindow@CGXMDIFrameAdapter@@UAEXXZ 0DDB:?HandleDestroy@CGXMDIFrameAdapter@@UAEXXZ (0497: 8B) (REF 012D: $SG94535)
                      E8........8BE55DC3:
                        0. 00 0000 001C 0000:??1CGXDaoBitmap@@UAE@XZ
                    E55DC3:
                      558BEC51894DFC8B45FCC700:
                        0. 00 0000 0190 0000:??1CGXNoOleDataSourceProxy@@UAE@XZ 0014:??1CGXNoOleDataObjectProxy@@UAE@XZ 0028:??1CGXNoToolTipCtrlProxy@@UAE@XZ 003C:??1CGXAbstractCommandFactory@@UAE@XZ 0050:?GXCheckImp@@YGXPAXPBD@Z 00CC:?GXSetAssertNoImp@@YGXPBD@Z 00E5:?GXTraceOnce@@YAXPBDZZ (0163: FF) (REF 006B: ?Lookup@CMapStringToPtr@@QBEHPBDAAPAX@Z)
                        1. 00 0000 0191 0000:??1CGXNoOleDataSourceProxy@@UAE@XZ 0014:??1CGXNoOleDataObjectProxy@@UAE@XZ 0028:??1CGXNoToolTipCtrlProxy@@UAE@XZ 003C:??1CGXAbstractCommandFactory@@UAE@XZ 0050:?GXCheckImp@@YGXPAXPBD@Z 00CC:?GXSetAssertNoImp@@YGXPBD@Z 00E5:?GXTraceOnce@@YAXPBDZZ (0163: FD)
                        2. 00 0000 0190 0000:??1CGXNoOleDataSourceProxy@@UAE@XZ 0014:??1CGXNoOleDataObjectProxy@@UAE@XZ 0028:??1CGXNoToolTipCtrlProxy@@UAE@XZ 003C:??1CGXAbstractCommandFactory@@UAE@XZ 0050:?GXCheckImp@@YGXPAXPBG@Z 00CC:?GXSetAssertNoImp@@YGXPBG@Z 00E5:?GXTraceOnce@@YAXPBGZZ (0163: FF) (REF 006B: ?Lookup@CMapStringToPtr@@QBEHPBGAAPAX@Z)
                        3. 00 0000 0191 0000:??1CGXNoOleDataSourceProxy@@UAE@XZ 0014:??1CGXNoOleDataObjectProxy@@UAE@XZ 0028:??1CGXNoToolTipCtrlProxy@@UAE@XZ 003C:??1CGXAbstractCommandFactory@@UAE@XZ 0050:?GXCheckImp@@YGXPAXPBG@Z 00CC:?GXSetAssertNoImp@@YGXPBG@Z 00E5:?GXTraceOnce@@YAXPBGZZ (0163: FB)
                      ..:
                        0. 00 0000 0014 0000:??1CNoTrackObject@@UAE@XZ (REF 000C: ??_7CNoTrackObject@@6B@)
                        1. 00 0000 0014 0000:??1CGXAbstractBlob@@QAE@XZ (REF 000C: ??_7CGXAbstractBlob@@6B@)
                        2. 00 0000 0014 0000:??1CGXOleViewer@@UAE@XZ (REF 000C: ??_7CGXOleViewer@@6B@)
                        3. 00 0000 0014 0000:??1CGXTabWndAdapter@@UAE@XZ (REF 000C: ??_7CGXTabWndAdapter@@6B@)
            4DFC:
              83C1:
                04E8........:
                  8B:
                    45FC:
                      8BE55DC3:
                        0. 00 0000 0019 (?)0000:??0UserPropertyInfo@CGXProperties@@QAE@XZ
                      C700........8B45FC8BE5:
                        0. 02 5F98 0022 0000:??0__captive@?$CGXCaptiveManager@VCOleVariant@@@@QAE@XZ
                    E55DC3:
                      0. 00 0000 0016 0000:?GetStyleBits@CGXStyle@@QBEKXZ (REF 000E: ?GetPortable@STYLEBITS@CGXStyle@@QBEKXZ)
                      1. 00 0000 0016 0000:??1CGXFieldInfo@@QAE@XZ (REF 000E: ??1CString@@QAE@XZ)
                  F7D81BC0408BE55DC3:
                    0. 00 0000 001B 0000:?IsEmptyMask@CGXMaskData@@UBEHXZ
                08E8........8B:
                  45FC8BE55DC3:
                    0. 00 0000 0019 0000:??0BaseStyleInfo@CGXStylesMap@@QAE@XZ
                  4DFC83C118E8........8B45FC:
                    0. 02 E588 04BC 0000:??0CGXChild@@QAE@PAVCGXControl@@@Z 0042:??1CGXChild@@UAE@XZ 0061:?SetRect@CGXChild@@UAEXABVCRect@@@Z 008D:?GetRect@CGXChild@@UAE?AVCRect@@XZ 00BC:?Intersects@CGXChild@@UAEHVCPoint@@@Z 00EA:?HasFocus@CGXChild@@UAEHXZ 0113:?SetText@CGXChild@@UAEXPBD@Z 012F:?GetText@CGXChild@@UAE?AVCString@@XZ 0160:?Refresh@CGXChild@@UAEXXZ 018B:?LButtonDown@CGXChild@@UAEHIVCPoint@@@Z 019A:?LButtonUp@CGXChild@@UAEHIVCPoint@@@Z 01A9:?MButtonDown@CGXChild@@UAEHIVCPoint@@@Z 01B8:?MButtonUp@CGXChild@@UAEHIVCPoint@@@Z 01C7:?RButtonDown@CGXChild@@UAEHIVCPoint@@@Z 01D6:?RButtonUp@CGXChild@@UAEHIVCPoint@@@Z 01E5:?RButtonDblClk@CGXChild@@UAEHIVCPoint@@@Z 01F4:?LButtonDblClk@CGXChild@@UAEHIVCPoint@@@Z 0203:?MButtonDblClk@CGXChild@@UAEHIVCPoint@@@Z 0212:?MouseMove@CGXChild@@UAEHIVCPoint@@@Z 0221:?MouseMoveOver@CGXChild@@UAEHKKIVCPoint@@@Z 0230:?KeyPressed@CGXChild@@UAEHIIII@Z 0412:?OnGridKeyDown@CGXChild@@UAEHIII@Z 0421:?OnGridKeyUp@CGXChild@@UAEHIII@Z 0430:?OnGridChar@CGXChild@@UAEHIII@Z 043F:?OnGridDoubleByteChar@CGXChild@@UAEHABVCString@@II@Z 044E:?OnGridDeadChar@CGXChild@@UAEHIII@Z 045D:?OnGridSysKeyDown@CGXChild@@UAEHIII@Z 046C:?OnGridSysKeyUp@CGXChild@@UAEHIII@Z 047B:?OnGridSysChar@CGXChild@@UAEHIII@Z 048A:?OnGridSysDeadChar@CGXChild@@UAEHIII@Z 0499:?OnGridWinIniChange@CGXChild@@UAEXPBD@Z 04A6:?OnGridSysColorChange@CGXChild@@UAEXXZ 04B1:?OnGridCancelMode@CGXChild@@UAEXXZ (0499: C3)
                    1. 02 E588 04BD 0000:??0CGXChild@@QAE@PAVCGXControl@@@Z 0042:??1CGXChild@@UAE@XZ 0061:?SetRect@CGXChild@@UAEXABVCRect@@@Z 008D:?GetRect@CGXChild@@UAE?AVCRect@@XZ 00BC:?Intersects@CGXChild@@UAEHVCPoint@@@Z 00EA:?HasFocus@CGXChild@@UAEHXZ 0113:?SetText@CGXChild@@UAEXPBG@Z 012F:?GetText@CGXChild@@UAE?AVCString@@XZ 0160:?Refresh@CGXChild@@UAEXXZ 018B:?LButtonDown@CGXChild@@UAEHIVCPoint@@@Z 019A:?LButtonUp@CGXChild@@UAEHIVCPoint@@@Z 01A9:?MButtonDown@CGXChild@@UAEHIVCPoint@@@Z 01B8:?MButtonUp@CGXChild@@UAEHIVCPoint@@@Z 01C7:?RButtonDown@CGXChild@@UAEHIVCPoint@@@Z 01D6:?RButtonUp@CGXChild@@UAEHIVCPoint@@@Z 01E5:?RButtonDblClk@CGXChild@@UAEHIVCPoint@@@Z 01F4:?LButtonDblClk@CGXChild@@UAEHIVCPoint@@@Z 0203:?MButtonDblClk@CGXChild@@UAEHIVCPoint@@@Z 0212:?MouseMove@CGXChild@@UAEHIVCPoint@@@Z 0221:?MouseMoveOver@CGXChild@@UAEHKKIVCPoint@@@Z 0230:?KeyPressed@CGXChild@@UAEHIIII@Z 0413:?OnGridKeyDown@CGXChild@@UAEHIII@Z 0422:?OnGridKeyUp@CGXChild@@UAEHIII@Z 0431:?OnGridChar@CGXChild@@UAEHIII@Z 0440:?OnGridDoubleByteChar@CGXChild@@UAEHABVCString@@II@Z 044F:?OnGridDeadChar@CGXChild@@UAEHIII@Z 045E:?OnGridSysKeyDown@CGXChild@@UAEHIII@Z 046D:?OnGridSysKeyUp@CGXChild@@UAEHIII@Z 047C:?OnGridSysChar@CGXChild@@UAEHIII@Z 048B:?OnGridSysDeadChar@CGXChild@@UAEHIII@Z 049A:?OnGridWinIniChange@CGXChild@@UAEXPBG@Z 04A7:?OnGridSysColorChange@CGXChild@@UAEXXZ 04B2:?OnGridCancelMode@CGXChild@@UAEXXZ (0499: 5D)
                14E8........8BE55DC3:
                  0. 00 0000 0016 0000:?GetMonetarySymbol@Format@CGXBCurrencyEdit@@QBEPBGXZ (REF 000E: ??BCString@@QBEPBGXZ)
                  1. 00 0000 0016 0000:?GetMonetarySymbol@Format@CGXBCurrencyEdit@@QBEPBDXZ (REF 000E: ??BCString@@QBEPBDXZ)
                2CE8........8BE55DC3:
                  0. 00 0000 0016 0000:?GetTextLength@CGXMaskData@@UBEHXZ
              8B018B51048BE55DC3:
                0. 00 0000 0013 (?)0000:?GetPenKey@CGXPen@@QBE_JXZ
              E8........:
                33C0837D08000F95C083E001C1E0:
                  128B4D:
                    0. 18 21A1 0042 0000:?SetItalic@CGXFont@@QAEAAV1@H@Z
                  138B4D:
                    0. 18 87D9 0042 0000:?SetUnderline@CGXFont@@QAEAAV1@H@Z
                  148B4D:
                    0. 18 CB28 0042 0000:?SetStrikeOut@CGXFont@@QAEAAV1@H@Z
                52508B4DFCE8........8BE55DC3:
                  0. 00 0000 001D 0000:?GetData@CGXFont@@IBEPAUCGXFontData@@XZ
                837D080075:
                  0F8B45FC8B480880C9F08B55:
                    0. 0D C636 002D 0000:?SetIncludeWeight@CGXFont@@QAEAAV1@H@Z
                  128B45FC8B48:
                    0881:
                      C90000E0:
                        0. 10 18F0 0030 0000:?SetIncludeOrientation@CGXFont@@QAEAAV1@H@Z
                      E1FF00FC:
                        0. 10 0F42 0030 0000:?SetIncludeSize@CGXFont@@QAEAAV1@H@Z
                    0C81C9FF0300:
                      0. 10 8A48 0030 0000:?SetIncludeFaceName@CGXFont@@QAEAAV1@H@Z
                8B:
                  45:
                    08:
                      25FF0300008B4DFC8B510C81E200:
                        0. 14 833A 0034 0000:?SetFaceNameId@CGXFont@@QAEAAV1@I@Z
                      83E001:
                        85C074:
                          098B4DFC51E8:
                            0. 00 0000 002B 0000:??_GCGXGridHandleWnd@@UAEPAXI@Z (REF 000B: ??1CGXGridHandleWnd@@UAE@XZ)
                            1. 00 0000 002B 0000:??_GCGXGridWnd@@UAEPAXI@Z (REF 000B: ??1CGXGridWnd@@UAE@XZ)
                            2. 00 0000 002B 0000:??_GCGXGridHandleView@@MAEPAXI@Z (REF 000B: ??1CGXGridHandleView@@MAE@XZ)
                            3. 00 0000 002B 0000:??_GCGXGridView@@MAEPAXI@Z (REF 000B: ??1CGXGridView@@MAE@XZ)
                            4. 00 0000 002B 0000:??_GCGXView@@MAEPAXI@Z (REF 000B: ??1CGXView@@MAE@XZ)
                            5. 00 0000 002B 0000:??_GCGXTabWnd@@UAEPAXI@Z (REF 000B: ??1CGXTabWnd@@UAE@XZ)
                            6. 00 0000 002B 0000:??_GCGXEditLabelPopup@@UAEPAXI@Z (REF 000B: ??1CGXEditLabelPopup@@UAE@XZ)
                            7. 00 0000 002B 0000:??_GCGXTabCreateInfo@@UAEPAXI@Z (REF 000B: ??1CGXTabCreateInfo@@UAE@XZ)
                            8. 00 0000 002B 0000:??_GCGXTabWndMgr@@UAEPAXI@Z (REF 000B: ??1CGXTabWndMgr@@UAE@XZ)
                            9. 00 0000 002B 0000:??_G?$CMap@KAAKPAVCGXTabWndAdapter@@AAPAV1@@@UAEPAXI@Z (REF 000B: ??1?$CMap@KAAKPAVCGXTabWndAdapter@@AAPAV1@@@UAE@XZ)
                            10. 00 0000 002B 0000:??_G?$CArray@PAVCGXTabCreateInfo@@PAV1@@@UAEPAXI@Z (REF 000B: ??1?$CArray@PAVCGXTabCreateInfo@@PAV1@@@UAE@XZ)
                            11. 00 0000 002B 0000:??_GCGXTabInfo@@UAEPAXI@Z (REF 000B: ??1CGXTabInfo@@UAE@XZ)
                            12. 00 0000 002B 0000:??_GCGXTabBeam@@UAEPAXI@Z (REF 000B: ??1CGXTabBeam@@UAE@XZ)
                            13. 00 0000 002B 0000:??_GCGXUserAttribute@@UAEPAXI@Z (REF 000B: ??1CGXUserAttribute@@UAE@XZ)
                            14. 00 0000 002B 0000:??_GCGXEllipseUserAttribute@@UAEPAXI@Z (REF 000B: ??1CGXEllipseUserAttribute@@UAE@XZ)
                            15. 00 0000 002B 0000:??_GCGXAbstractUserAttribute@@UAEPAXI@Z (REF 000B: ??1CGXAbstractUserAttribute@@UAE@XZ)
                            16. 00 0000 002B 0000:??_GCGXUserAttributeMap@@UAEPAXI@Z (REF 000B: ??1CGXUserAttributeMap@@UAE@XZ)
                            17. 00 0000 002B 0000:??_GCGXStylesMap@@UAEPAXI@Z (REF 000B: ??1CGXStylesMap@@UAE@XZ)
                            18. 00 0000 002B 0000:??_GCGXFont@@UAEPAXI@Z (REF 000B: ??1CGXFont@@UAE@XZ)
                            19. 00 0000 002B 0000:??_GCGXStyle@@UAEPAXI@Z (REF 000B: ??1CGXStyle@@UAE@XZ)
                            20. 00 0000 002B 0000:??_GCGXStylesDialog@@UAEPAXI@Z (REF 000B: ??1CGXStylesDialog@@UAE@XZ)
                            21. 00 0000 002B 0000:??_GCGXStyleSheet@@UAEPAXI@Z (REF 000B: ??1CGXStyleSheet@@UAE@XZ)
                            22. 00 0000 002B 0000:??_GCGXFontSample@@UAEPAXI@Z (REF 000B: ??1CGXFontSample@@UAE@XZ)
                            23. 00 0000 002B 0000:??_GCGXTextColorComboBox@@UAEPAXI@Z (REF 000B: ??1CGXTextColorComboBox@@UAE@XZ)
                            24. 00 0000 002B 0000:??_GCGXFontFaceNameBox@@UAEPAXI@Z (REF 000B: ??1CGXFontFaceNameBox@@UAE@XZ)
                            25. 00 0000 002B 0000:??_GCGXFontPage@@UAEPAXI@Z (REF 000B: ??1CGXFontPage@@UAE@XZ)
                            26. 00 0000 002B 0000:??_GCGXColorButtonBox@@UAEPAXI@Z (REF 000B: ??1CGXColorButtonBox@@UAE@XZ)
                            27. 00 0000 002B 0000:??_GCGXColorSample@@UAEPAXI@Z (REF 000B: ??1CGXColorSample@@UAE@XZ)
                            28. 00 0000 002B 0000:??_GCGXPatternComboBox@@UAEPAXI@Z (REF 000B: ??1CGXPatternComboBox@@UAE@XZ)
                            29. 00 0000 002B 0000:??_GCGXColorPage@@UAEPAXI@Z (REF 000B: ??1CGXColorPage@@UAE@XZ)
                            30. 00 0000 002B 0000:??_GCGXBorderTypeButton@@UAEPAXI@Z (REF 000B: ??1CGXBorderTypeButton@@UAE@XZ)
                            31. 00 0000 002B 0000:??_GCGXColorComboBox@@UAEPAXI@Z (REF 000B: ??1CGXColorComboBox@@UAE@XZ)
                            32. 00 0000 002B 0000:??_GCGXBorderPage@@UAEPAXI@Z (REF 000B: ??1CGXBorderPage@@UAE@XZ)
                            33. 00 0000 002B 0000:??_GCGXAlignmentPage@@UAEPAXI@Z (REF 000B: ??1CGXAlignmentPage@@UAE@XZ)
                            34. 00 0000 002B 0000:??_GCGXControlPage@@UAEPAXI@Z (REF 000B: ??1CGXControlPage@@UAE@XZ)
                            35. 00 0000 002B 0000:??_GCGXUserAttributPageGrid@@UAEPAXI@Z (REF 000B: ??1CGXUserAttributPageGrid@@UAE@XZ)
                            36. 00 0000 002B 0000:??_GCGXUserAttributPage@@UAEPAXI@Z (REF 000B: ??1CGXUserAttributPage@@UAE@XZ)
                            37. 00 0000 002B 0000:??_GCGXBasedOnPage@@UAEPAXI@Z (REF 000B: ??1CGXBasedOnPage@@UAE@XZ)
                            38. 00 0000 002B 0000:??_GCGXFloatCellPage@@UAEPAXI@Z (REF 000B: ??1CGXFloatCellPage@@UAE@XZ)
                            39. 00 0000 002B 0000:??_GCGXMergeCellPage@@UAEPAXI@Z (REF 000B: ??1CGXMergeCellPage@@UAE@XZ)
                            40. 00 0000 002B 0000:??_GCGXFormatPage@@UAEPAXI@Z (REF 000B: ??1CGXFormatPage@@UAE@XZ)
                            41. 00 0000 002B 0000:??_GGX_SPLITTER_DATA@@UAEPAXI@Z (REF 000B: ??1GX_SPLITTER_DATA@@UAE@XZ)
                            42. 00 0000 002B 0000:??_GCGXSplitterWnd@@UAEPAXI@Z (REF 000B: ??1CGXSplitterWnd@@UAE@XZ)
                            43. 00 0000 002B 0000:??_GCNoTrackObject@@UAEPAXI@Z (REF 000B: ??1CNoTrackObject@@UAE@XZ)
                            44. 00 0000 002B 0000:??_GCGXDWordArrayPtrArray@@UAEPAXI@Z (REF 000B: ??1CGXDWordArrayPtrArray@@UAE@XZ)
                            45. 00 0000 002B 0000:??_GCGXSpanCellPool@@UAEPAXI@Z (REF 000B: ??1CGXSpanCellPool@@UAE@XZ)
                            46. 00 0000 002B 0000:??_GCGXSortInfoArray@@UAEPAXI@Z (REF 000B: ??1CGXSortInfoArray@@UAE@XZ)
                            47. 00 0000 002B 0000:??_GCGXRangeList@@UAEPAXI@Z (REF 000B: ??1CGXRangeList@@UAE@XZ)
                            48. 00 0000 002B 0000:??_GGX_SCROLLTIP_STATE@@UAEPAXI@Z (REF 000B: ??1GX_SCROLLTIP_STATE@@UAE@XZ)
                            49. 00 0000 002B 0000:??_GCGXScrollTip@@UAEPAXI@Z (REF 000B: ??1CGXScrollTip@@UAE@XZ)
                            50. 00 0000 002B 0000:??_G?$CTypedPtrMap@VCMapPtrToPtr@@PAVAFX_MODULE_STATE@@PAUGX_SCROLLTIP_STATE@@@@UAEPAXI@Z (REF 000B: ??1?$CTypedPtrMap@VCMapPtrToPtr@@PAVAFX_MODULE_STATE@@PAUGX_SCROLLTIP_STATE@@@@UAE@XZ)
                            51. 00 0000 002B 0000:??_GCGXGridLineColorBox@@UAEPAXI@Z (REF 000B: ??1CGXGridLineColorBox@@UAE@XZ)
                            52. 00 0000 002B 0000:??_GCGXDisplayPropertiesDialog@@UAEPAXI@Z (REF 000B: ??1CGXDisplayPropertiesDialog@@UAE@XZ)
                            53. 00 0000 002B 0000:??_GCGXUserPropertyGrid@@UAEPAXI@Z (REF 000B: ??1CGXUserPropertyGrid@@UAE@XZ)
                            54. 00 0000 002B 0000:??_GCGXPrintPropertiesDialog@@UAEPAXI@Z (REF 000B: ??1CGXPrintPropertiesDialog@@UAE@XZ)
                            55. 00 0000 002B 0000:??_GCGXPrintPropertiesWnd@@UAEPAXI@Z (REF 000B: ??1CGXPrintPropertiesWnd@@UAE@XZ)
                            56. 00 0000 002B 0000:??_GCGXHeaderFooterDialog@@UAEPAXI@Z (REF 000B: ??1CGXHeaderFooterDialog@@UAE@XZ)
                            57. 00 0000 002B 0000:??_GCGXHeaderFooterGrid@@UAEPAXI@Z (REF 000B: ??1CGXHeaderFooterGrid@@UAE@XZ)
                            58. 00 0000 002B 0000:??_GCGXProperties@@UAEPAXI@Z (REF 000B: ??1CGXProperties@@UAE@XZ)
                            59. 00 0000 002B 0000:??_GCGXPrintDevice@@UAEPAXI@Z (REF 000B: ??1CGXPrintDevice@@UAE@XZ)
                            60. 00 0000 002B 0000:??_GCGXPluginComponent@@UAEPAXI@Z (REF 000B: ??1CGXPluginComponent@@UAE@XZ)
                            61. 00 0000 002B 0000:??_GCGXStylePtrArray@@UAEPAXI@Z (REF 000B: ??1CGXStylePtrArray@@UAE@XZ)
                            62. 00 0000 002B 0000:??_GCGXGridParam@@UAEPAXI@Z (REF 000B: ??1CGXGridParam@@UAE@XZ)
                            63. 00 0000 002B 0000:??_GCGXMapDWordToLong@@UAEPAXI@Z (REF 000B: ??1CGXMapDWordToLong@@UAE@XZ)
                            64. 00 0000 002B 0000:??_GCGXOleVarUserAttribute@@UAEPAXI@Z (REF 000B: ??1CGXOleVarUserAttribute@@UAE@XZ)
                            65. 00 0000 002B 0000:??_G?$CList@PAVCOleVariant@@AAPAV1@@@UAEPAXI@Z (REF 000B: ??1?$CList@PAVCOleVariant@@AAPAV1@@@UAE@XZ)
                            66. 00 0000 002B 0000:??_GCGXGridDropTarget@@UAEPAXI@Z (REF 000B: ??1CGXGridDropTarget@@UAE@XZ)
                            67. 00 0000 002B 0000:??_GCGXGridDropTargetPlugin@@UAEPAXI@Z (REF 000B: ??1CGXGridDropTargetPlugin@@UAE@XZ)
                            68. 00 0000 002B 0000:??_GCGXCollMapStringToWord@@UAEPAXI@Z (REF 000B: ??1CGXCollMapStringToWord@@UAE@XZ)
                            69. 00 0000 002B 0000:??_GCGXCollMapStringToHandle@@UAEPAXI@Z (REF 000B: ??1CGXCollMapStringToHandle@@UAE@XZ)
                            70. 00 0000 002B 0000:??_GCGXCollMapDWordToString@@UAEPAXI@Z (REF 000B: ??1CGXCollMapDWordToString@@UAE@XZ)
                            71. 00 0000 002B 0000:??_GCGXCollMapDWordToPtr@@UAEPAXI@Z (REF 000B: ??1CGXCollMapDWordToPtr@@UAE@XZ)
                            72. 00 0000 002B 0000:??_GCGXRecordInfoWnd@@UAEPAXI@Z (REF 000B: ??1CGXRecordInfoWnd@@UAE@XZ)
                            73. 00 0000 002B 0000:??_GCGXRecordInfoSplitterWnd@@UAEPAXI@Z (REF 000B: ??1CGXRecordInfoSplitterWnd@@UAE@XZ)
                            74. 00 0000 002B 0000:??_GCGXRecordInfoEdit@@UAEPAXI@Z (REF 000B: ??1CGXRecordInfoEdit@@UAE@XZ)
                            75. 00 0000 002B 0000:??_GCGXRecordInfoBeam@@UAEPAXI@Z (REF 000B: ??1CGXRecordInfoBeam@@UAE@XZ)
                            76. 00 0000 002B 0000:??_GCGXMouseWheelPlugin@@UAEPAXI@Z (REF 000B: ??1CGXMouseWheelPlugin@@UAE@XZ)
                            77. 00 0000 002B 0000:??_GGX_INTELLI_STATE@@UAEPAXI@Z (REF 000B: ??1GX_INTELLI_STATE@@UAE@XZ)
                            78. 00 0000 002B 0000:??_GCGXMouseWheelOriginWnd@@UAEPAXI@Z (REF 000B: ??1CGXMouseWheelOriginWnd@@UAE@XZ)
                            79. 00 0000 002B 0000:??_GCGXIntelliMousePlugin@@UAEPAXI@Z (REF 000B: ??1CGXIntelliMousePlugin@@UAE@XZ)
                            80. 00 0000 002B 0000:??_G?$CTypedPtrMap@VCMapPtrToPtr@@PAVAFX_MODULE_STATE@@PAUGX_INTELLI_STATE@@@@UAEPAXI@Z (REF 000B: ??1?$CTypedPtrMap@VCMapPtrToPtr@@PAVAFX_MODULE_STATE@@PAUGX_INTELLI_STATE@@@@UAE@XZ)
                            81. 00 0000 002B 0000:??_GCGXGridHint@@UAEPAXI@Z (REF 000B: ??1CGXGridHint@@UAE@XZ)
                            82. 00 0000 002B 0000:??_GCGXScrollTipPlugin@@UAEPAXI@Z (REF 000B: ??1CGXScrollTipPlugin@@UAE@XZ)
                            83. 00 0000 002B 0000:??_GCGXGridMouseWheelPlugin@@UAEPAXI@Z (REF 000B: ??1CGXGridMouseWheelPlugin@@UAE@XZ)
                            84. 00 0000 002B 0000:??_GCGXGridIntelliMousePlugin@@UAEPAXI@Z (REF 000B: ??1CGXGridIntelliMousePlugin@@UAE@XZ)
                            85. 00 0000 002B 0000:??_GCGXMultiDocTemplate@@UAEPAXI@Z (REF 000B: ??1CGXMultiDocTemplate@@UAE@XZ)
                            86. 00 0000 002B 0000:??_GCGXSingleDocTemplate@@UAEPAXI@Z (REF 000B: ??1CGXSingleDocTemplate@@UAE@XZ)
                            87. 00 0000 002B 0000:??_GCGXDateTimeCtrl@@UAEPAXI@Z (REF 000B: ??1CGXDateTimeCtrl@@UAE@XZ)
                            88. 00 0000 002B 0000:??_GCGXCaptiveDateTimeCtrl@@UAEPAXI@Z (REF 000B: ??1CGXCaptiveDateTimeCtrl@@UAE@XZ)
                            89. 00 0000 002B 0000:??_GCGXBCalendar@@UAEPAXI@Z (REF 000B: ??1CGXBCalendar@@UAE@XZ)
                            90. 00 0000 002B 0000:??_GCGXBPopupCalendar@@UAEPAXI@Z (REF 000B: ??1CGXBPopupCalendar@@UAE@XZ)
                            91. 00 0000 002B 0000:??_GCGXBCalTitle@@UAEPAXI@Z (REF 000B: ??1CGXBCalTitle@@UAE@XZ)
                            92. 00 0000 002B 0000:??_GCGXBPanel@@UAEPAXI@Z (REF 000B: ??1CGXBPanel@@UAE@XZ)
                            93. 00 0000 002B 0000:??_GCGXBDayBox@@UAEPAXI@Z (REF 000B: ??1CGXBDayBox@@UAE@XZ)
                            94. 00 0000 002B 0000:??_GCGXBDayBar@@UAEPAXI@Z (REF 000B: ??1CGXBDayBar@@UAE@XZ)
                            95. 00 0000 002B 0000:??_GCGXBDateTimeCtrl@@UAEPAXI@Z (REF 000B: ??1CGXBDateTimeCtrl@@UAE@XZ)
                            96. 00 0000 002B 0000:??_GCGXBDTGadgetArray@CGXBDateTimeCtrl@@UAEPAXI@Z (REF 000B: ??1CGXBDTGadgetArray@CGXBDateTimeCtrl@@UAE@XZ)
                            97. 00 0000 002B 0000:??_GCGXBDTGadget@@UAEPAXI@Z (REF 000B: ??1CGXBDTGadget@@UAE@XZ)
                            98. 00 0000 002B 0000:??_GCGXBDTSpinGadget@@UAEPAXI@Z (REF 000B: ??1CGXBDTSpinGadget@@UAE@XZ)
                            99. 00 0000 002B 0000:??_GCGXBDTListGadget@@UAEPAXI@Z (REF 000B: ??1CGXBDTListGadget@@UAE@XZ)
                            100. 00 0000 002B 0000:??_GCGXBDTNumericGadget@@UAEPAXI@Z (REF 000B: ??1CGXBDTNumericGadget@@UAE@XZ)
                            101. 00 0000 002B 0000:??_GCGXBDTButtonGadget@@UAEPAXI@Z (REF 000B: ??1CGXBDTButtonGadget@@UAE@XZ)
                            102. 00 0000 002B 0000:??_GCGXBDTStaticGadget@@UAEPAXI@Z (REF 000B: ??1CGXBDTStaticGadget@@UAE@XZ)
                            103. 00 0000 002B 0000:??_GCGXDragLineWnd@@UAEPAXI@Z (REF 000B: ??1CGXDragLineWnd@@UAE@XZ)
                            104. 00 0000 002B 0000:??_GCGXDocument@@UAEPAXI@Z (REF 000B: ??1CGXDocument@@UAE@XZ)
                            105. 00 0000 002B 0000:??_GCGXDIB@@UAEPAXI@Z (REF 000B: ??1CGXDIB@@UAE@XZ)
                            106. 00 0000 002B 0000:??_GCGXDIBPool@@UAEPAXI@Z (REF 000B: ??1CGXDIBPool@@UAE@XZ)
                            107. 00 0000 002B 0000:??_GCGXDelayedRange@@UAEPAXI@Z (REF 000B: ??1CGXDelayedRange@@UAE@XZ)
                            108. 00 0000 002B 0000:??_GCGXDelayedRangePool@@UAEPAXI@Z (REF 000B: ??1CGXDelayedRangePool@@UAE@XZ)
                            109. 00 0000 002B 0000:??_GCGXDataDib@@UAEPAXI@Z (REF 000B: ??1CGXDataDib@@UAE@XZ)
                            110. 00 0000 002B 0000:??_GCGXRecordWnd@@UAEPAXI@Z (REF 000B: ??1CGXRecordWnd@@UAE@XZ)
                            111. 00 0000 002B 0000:??_GCGXRecordView@@MAEPAXI@Z (REF 000B: ??1CGXRecordView@@MAE@XZ)
                            112. 00 0000 002B 0000:??_GCGXDbParam@@UAEPAXI@Z (REF 000B: ??1CGXDbParam@@UAE@XZ)
                            113. 00 0000 002B 0000:??_GCGXDynamicRecordset@@UAEPAXI@Z (REF 000B: ??1CGXDynamicRecordset@@UAE@XZ)
                            114. 00 0000 002B 0000:??_GCGXDaoRecordWnd@@UAEPAXI@Z (REF 000B: ??1CGXDaoRecordWnd@@UAE@XZ)
                            115. 00 0000 002B 0000:??_GCGXDaoRecordView@@MAEPAXI@Z (REF 000B: ??1CGXDaoRecordView@@MAE@XZ)
                            116. 00 0000 002B 0000:??_GCGXData@@UAEPAXI@Z (REF 000B: ??1CGXData@@UAE@XZ)
                            117. 00 0000 002B 0000:??_GCGXStylePtrArrayPtrArray@@UAEPAXI@Z (REF 000B: ??1CGXStylePtrArrayPtrArray@@UAE@XZ)
                            118. 00 0000 002B 0000:??_GCGXDaoParam@@UAEPAXI@Z (REF 000B: ??1CGXDaoParam@@UAE@XZ)
                            119. 00 0000 002B 0000:??_GCGXCoveredCellPool@@UAEPAXI@Z (REF 000B: ??1CGXCoveredCellPool@@UAE@XZ)
                            120. 00 0000 002B 0000:??_GCGXPtrArrayPtrArray@@UAEPAXI@Z (REF 000B: ??1CGXPtrArrayPtrArray@@UAE@XZ)
                            121. 00 0000 002B 0000:??_GCGXVScrollEdit@@UAEPAXI@Z (REF 000B: ??1CGXVScrollEdit@@UAE@XZ)
                            122. 00 0000 002B 0000:??_GCGXCurrencyEdit@@UAEPAXI@Z (REF 000B: ??1CGXCurrencyEdit@@UAE@XZ)
                            123. 00 0000 002B 0000:??_GCGXCaptiveCurEdit@@UAEPAXI@Z (REF 000B: ??1CGXCaptiveCurEdit@@UAE@XZ)
                            124. 00 0000 002B 0000:??_GCGXBCurrencyEdit@@UAEPAXI@Z (REF 000B: ??1CGXBCurrencyEdit@@UAE@XZ)
                            125. 00 0000 002B 0000:??_GCGXBDropEdit@@UAEPAXI@Z (REF 000B: ??1CGXBDropEdit@@UAE@XZ)
                            126. 00 0000 002B 0000:??_GCGXCellTipWnd@@UAEPAXI@Z (REF 000B: ??1CGXCellTipWnd@@UAE@XZ)
                            127. 00 0000 002B 0000:??_GCGXTextCellTipWnd@@UAEPAXI@Z (REF 000B: ??1CGXTextCellTipWnd@@UAE@XZ)
                            128. 00 0000 002B 0000:??_GCGXStaticBitmapCellTipWnd@@UAEPAXI@Z (REF 000B: ??1CGXStaticBitmapCellTipWnd@@UAE@XZ)
                            129. 00 0000 002B 0000:??_GCGXCellTipPlugin@@UAEPAXI@Z (REF 000B: ??1CGXCellTipPlugin@@UAE@XZ)
                            130. 00 0000 002B 0000:??_GCGXCellTipWndFactory@@UAEPAXI@Z (REF 000B: ??1CGXCellTipWndFactory@@UAE@XZ)
                            131. 00 0000 002B 0000:??_G?$CMap@KAAKPAVCGXCellTipWnd@@AAPAV1@@@UAEPAXI@Z (REF 000B: ??1?$CMap@KAAKPAVCGXCellTipWnd@@AAPAV1@@@UAE@XZ)
                            132. 00 0000 002B 0000:??_GCGXTabbedLBoxHeader@@UAEPAXI@Z (REF 000B: ??1CGXTabbedLBoxHeader@@UAE@XZ)
                            133. 00 0000 002B 0000:??_GCGXRichEditCtrl@@UAEPAXI@Z (REF 000B: ??1CGXRichEditCtrl@@UAE@XZ)
                            134. 00 0000 002B 0000:??_GCGXDataUndoMoveCellsInfo@@UAEPAXI@Z (REF 000B: ??1CGXDataUndoMoveCellsInfo@@UAE@XZ)
                            135. 00 0000 002B 0000:??_GCGXPasswordControl@@UAEPAXI@Z (REF 000B: ??1CGXPasswordControl@@UAE@XZ)
                            136. 00 0000 002B 0000:??_GCGXMapCellToOb@@UAEPAXI@Z (REF 000B: ??1CGXMapCellToOb@@UAE@XZ)
                            137. 00 0000 002B 0000:??_GCGXCollMapDWordToLong@@UAEPAXI@Z (REF 000B: ??1CGXCollMapDWordToLong@@UAE@XZ)
                            138. 00 0000 002B 0000:??_GCMapNdxToOb@@UAEPAXI@Z (REF 000B: ??1CMapNdxToOb@@UAE@XZ)
                            139. 00 0000 002B 0000:??_GCGXMapByte8ToPtr@@UAEPAXI@Z (REF 000B: ??1CGXMapByte8ToPtr@@UAE@XZ)
                            140. 00 0000 002B 0000:??_GCGXMapFontData@@UAEPAXI@Z (REF 000B: ??1CGXMapFontData@@UAE@XZ)
                            141. 00 0000 002B 0000:??_GCGXAutoDeleteObList@@EAEPAXI@Z (REF 000B: ??1CGXAutoDeleteObList@@EAE@XZ)
                            142. 00 0000 002B 0000:??_G?$CMap@KAAKPAVCGXOleViewer@@AAPAV1@@@UAEPAXI@Z (REF 000B: ??1?$CMap@KAAKPAVCGXOleViewer@@AAPAV1@@@UAE@XZ)
                            143. 00 0000 002B 0000:??_G?$CMap@PBU_GUID@@AAPBU1@PAUIUnknown@@AAPAU2@@@UAEPAXI@Z (REF 000B: ??1?$CMap@PBU_GUID@@AAPBU1@PAUIUnknown@@AAPAU2@@@UAE@XZ)
                            144. 00 0000 002B 0000:??_G?$CMap@PBQAXAAPBQAXPAXAAPAX@@UAEPAXI@Z (REF 000B: ??1?$CMap@PBQAXAAPBQAXPAXAAPAX@@UAE@XZ)
                            145. 00 0000 002B 0000:??_GCGXCommand@@UAEPAXI@Z (REF 000B: ??1CGXCommand@@UAE@XZ)
                            146. 00 0000 002B 0000:??_GCGXBlockCmd@@UAEPAXI@Z (REF 000B: ??1CGXBlockCmd@@UAE@XZ)
                            147. 00 0000 002B 0000:??_GCGXSetRowHeightCmd@@UAEPAXI@Z (REF 000B: ??1CGXSetRowHeightCmd@@UAE@XZ)
                            148. 00 0000 002B 0000:??_GCGXHideRowsCmd@@UAEPAXI@Z (REF 000B: ??1CGXHideRowsCmd@@UAE@XZ)
                            149. 00 0000 002B 0000:??_GCGXSetDefaultRowHeightCmd@@UAEPAXI@Z (REF 000B: ??1CGXSetDefaultRowHeightCmd@@UAE@XZ)
                            150. 00 0000 002B 0000:??_GCGXSetColWidthCmd@@UAEPAXI@Z (REF 000B: ??1CGXSetColWidthCmd@@UAE@XZ)
                            151. 00 0000 002B 0000:??_GCGXHideColsCmd@@UAEPAXI@Z (REF 000B: ??1CGXHideColsCmd@@UAE@XZ)
                            152. 00 0000 002B 0000:??_GCGXSetDefaultColWidthCmd@@UAEPAXI@Z (REF 000B: ??1CGXSetDefaultColWidthCmd@@UAE@XZ)
                            153. 00 0000 002B 0000:??_GCGXMoveRowsCmd@@UAEPAXI@Z (REF 000B: ??1CGXMoveRowsCmd@@UAE@XZ)
                            154. 00 0000 002B 0000:??_GCGXMoveColsCmd@@UAEPAXI@Z (REF 000B: ??1CGXMoveColsCmd@@UAE@XZ)
                            155. 00 0000 002B 0000:??_GCGXRemoveRowsCmd@@UAEPAXI@Z (REF 000B: ??1CGXRemoveRowsCmd@@UAE@XZ)
                            156. 00 0000 002B 0000:??_GCGXRemoveColsCmd@@UAEPAXI@Z (REF 000B: ??1CGXRemoveColsCmd@@UAE@XZ)
                            157. 00 0000 002B 0000:??_GCGXInsertRowsCmd@@UAEPAXI@Z (REF 000B: ??1CGXInsertRowsCmd@@UAE@XZ)
                            158. 00 0000 002B 0000:??_GCGXInsertColsCmd@@UAEPAXI@Z (REF 000B: ??1CGXInsertColsCmd@@UAE@XZ)
                            159. 00 0000 002B 0000:??_GCGXSetCoveredCellsCmd@@UAEPAXI@Z (REF 000B: ??1CGXSetCoveredCellsCmd@@UAE@XZ)
                            160. 00 0000 002B 0000:??_GCGXSetStyleRangeCmd@@UAEPAXI@Z (REF 000B: ??1CGXSetStyleRangeCmd@@UAE@XZ)
                            161. 00 0000 002B 0000:??_GCGXSetFrozenRowsCmd@@UAEPAXI@Z (REF 000B: ??1CGXSetFrozenRowsCmd@@UAE@XZ)
                            162. 00 0000 002B 0000:??_GCGXSetFrozenColsCmd@@UAEPAXI@Z (REF 000B: ??1CGXSetFrozenColsCmd@@UAE@XZ)
                            163. 00 0000 002B 0000:??_GCGXMoveDataRowsCmd@@UAEPAXI@Z (REF 000B: ??1CGXMoveDataRowsCmd@@UAE@XZ)
                            164. 00 0000 002B 0000:??_GCGXMoveDataColsCmd@@UAEPAXI@Z (REF 000B: ??1CGXMoveDataColsCmd@@UAE@XZ)
                            165. 00 0000 002B 0000:??_GCGXChangeStylesMapCmd@@UAEPAXI@Z (REF 000B: ??1CGXChangeStylesMapCmd@@UAE@XZ)
                            166. 00 0000 002B 0000:??_GCGXChangePropertiesCmd@@UAEPAXI@Z (REF 000B: ??1CGXChangePropertiesCmd@@UAE@XZ)
                            167. 00 0000 002B 0000:??_GCGXChangeBaseStyleCmd@@UAEPAXI@Z (REF 000B: ??1CGXChangeBaseStyleCmd@@UAE@XZ)
                            168. 00 0000 002B 0000:??_GCGXMoveCellsCmd@@UAEPAXI@Z (REF 000B: ??1CGXMoveCellsCmd@@UAE@XZ)
                            169. 00 0000 002B 0000:??_GCGXSetRangeNameCmd@@UAEPAXI@Z (REF 000B: ??1CGXSetRangeNameCmd@@UAE@XZ)
                            170. 00 0000 002B 0000:??_GCGXDeleteRangeNameCmd@@UAEPAXI@Z (REF 000B: ??1CGXDeleteRangeNameCmd@@UAE@XZ)
                            171. 00 0000 002B 0000:??_GCGXMaskData@@UAEPAXI@Z (REF 000B: ??1CGXMaskData@@UAE@XZ)
                            172. 00 0000 002B 0000:??_GCGXMaskControl@@UAEPAXI@Z (REF 000B: ??1CGXMaskControl@@UAE@XZ)
                            173. 00 0000 002B 0000:??_GCGXListBox@@UAEPAXI@Z (REF 000B: ??1CGXListBox@@UAE@XZ)
                            174. 00 0000 002B 0000:??_GCGXWChildFrame@@UAEPAXI@Z (REF 000B: ??1CGXWChildFrame@@UAE@XZ)
                            175. 00 0000 002B 0000:??_GCGXSpinEdit@@UAEPAXI@Z (REF 000B: ??1CGXSpinEdit@@UAE@XZ)
                            176. 00 0000 002B 0000:??_GCGXEditControl@@UAEPAXI@Z (REF 000B: ??1CGXEditControl@@UAE@XZ)
                            177. 00 0000 002B 0000:??_GCGXHotSpotEdit@@UAEPAXI@Z (REF 000B: ??1CGXHotSpotEdit@@UAE@XZ)
                            178. 00 0000 002B 0000:??_GCGXGridCombo@@UAEPAXI@Z (REF 000B: ??1CGXGridCombo@@UAE@XZ)
                            179. 00 0000 002B 0000:??_GCGXTabbedComboBoxWnd@@UAEPAXI@Z (REF 000B: ??1CGXTabbedComboBoxWnd@@UAE@XZ)
                            180. 00 0000 002B 0000:??_GCGXTabbedCBEditWnd@@UAEPAXI@Z (REF 000B: ??1CGXTabbedCBEditWnd@@UAE@XZ)
                            181. 00 0000 002B 0000:??_GCGXComboEditPart@@UAEPAXI@Z (REF 000B: ??1CGXComboEditPart@@UAE@XZ)
                            182. 00 0000 002B 0000:??_GCGXComboBoxWnd@@UAEPAXI@Z (REF 000B: ??1CGXComboBoxWnd@@UAE@XZ)
                            183. 00 0000 002B 0000:??_GCGXTabbedComboBox@@UAEPAXI@Z (REF 000B: ??1CGXTabbedComboBox@@UAE@XZ)
                            184. 00 0000 002B 0000:??_GCGXTabbedComboLBox@@UAEPAXI@Z (REF 000B: ??1CGXTabbedComboLBox@@UAE@XZ)
                            185. 00 0000 002B 0000:??_GCGXCheckListComboLBox@@UAEPAXI@Z (REF 000B: ??1CGXCheckListComboLBox@@UAE@XZ)
                            186. 00 0000 002B 0000:??_GCGXCheckListComboBox@@UAEPAXI@Z (REF 000B: ??1CGXCheckListComboBox@@UAE@XZ)
                            187. 00 0000 002B 0000:??_GCGXComboListBox@@UAEPAXI@Z (REF 000B: ??1CGXComboListBox@@UAE@XZ)
                            188. 00 0000 002B 0000:??_GCGXComboBox@@UAEPAXI@Z (REF 000B: ??1CGXComboBox@@UAE@XZ)
                            189. 00 0000 002B 0000:??_GCGXBCalculator@@UAEPAXI@Z (REF 000B: ??1CGXBCalculator@@UAE@XZ)
                            190. 00 0000 002B 0000:??_GCGXBCalcBtnArray@CGXBCalculator@@UAEPAXI@Z (REF 000B: ??1CGXBCalcBtnArray@CGXBCalculator@@UAE@XZ)
                            191. 00 0000 002B 0000:??_GCGXBPopupCalculator@@UAEPAXI@Z (REF 000B: ??1CGXBPopupCalculator@@UAE@XZ)
                            192. 00 0000 002B 0000:??_GCGXBCalcBtn@@UAEPAXI@Z (REF 000B: ??1CGXBCalcBtn@@UAE@XZ)
                            193. 00 0000 002B 0000:??_GCGXBrowseParam@@UAEPAXI@Z (REF 000B: ??1CGXBrowseParam@@UAE@XZ)
                            194. 00 0000 002B 0000:??_GCGXBrowserWnd@@UAEPAXI@Z (REF 000B: ??1CGXBrowserWnd@@UAE@XZ)
                            195. 00 0000 002B 0000:??_GCGXBrowserView@@MAEPAXI@Z (REF 000B: ??1CGXBrowserView@@MAE@XZ)
                            196. 00 0000 002B 0000:??_GCGXRecSetInfo@@UAEPAXI@Z (REF 000B: ??1CGXRecSetInfo@@UAE@XZ)
                            197. 00 0000 002B 0000:??_GCGXAutoScrollPlugin@@UAEPAXI@Z (REF 000B: ??1CGXAutoScrollPlugin@@UAE@XZ)
                            198. 00 0000 002B 0000:??_G?$CMap@KAAKPAVCGXTabWndMgr@@AAPAV1@@@UAEPAXI@Z (REF 000B: ??1?$CMap@KAAKPAVCGXTabWndMgr@@AAPAV1@@@UAE@XZ)
                            199. 00 0000 002B 0000:??_GGX_REGEX_STATE@@UAEPAXI@Z (REF 000B: ??1GX_REGEX_STATE@@UAE@XZ)
                            200. 00 0000 002B 0000:??_GCGXDefaultWorksheetFunctions@@UAEPAXI@Z (REF 000B: ??1CGXDefaultWorksheetFunctions@@UAE@XZ)
                            201. 00 0000 002B 0000:??_GGX_ENGINE_STATE@@UAEPAXI@Z (REF 000B: ??1GX_ENGINE_STATE@@UAE@XZ)
                            202. 00 0000 002B 0000:??_GCGXFormulaSheet@@UAEPAXI@Z (REF 000B: ??1CGXFormulaSheet@@UAE@XZ)
                            203. 00 0000 002B 0000:??_GCGXUndoEngineCellsInfo@@UAEPAXI@Z (REF 000B: ??1CGXUndoEngineCellsInfo@@UAE@XZ)
                            204. 00 0000 002B 0000:??_GGX_PARSE_STATE@@UAEPAXI@Z (REF 000B: ??1GX_PARSE_STATE@@UAE@XZ)
                            205. 00 0000 002B 0000:??_GCGXWorksheetFunctions@@UAEPAXI@Z (REF 000B: ??1CGXWorksheetFunctions@@UAE@XZ)
                            206. 00 0000 002B 0000:??_GGX_ENGINE_MEMOBJ_STATE@@UAEPAXI@Z (REF 000B: ??1GX_ENGINE_MEMOBJ_STATE@@UAE@XZ)
                            207. 00 0000 002B 0000:??_GGX_EVAL_STATE@@UAEPAXI@Z (REF 000B: ??1GX_EVAL_STATE@@UAE@XZ)
                            208. 00 0000 002B 0000:??_G?$CTypedPtrMap@VCMapPtrToPtr@@PAVAFX_MODULE_STATE@@PAUGX_ENGINE_MEMOBJ_STATE@@@@UAEPAXI@Z (REF 000B: ??1?$CTypedPtrMap@VCMapPtrToPtr@@PAVAFX_MODULE_STATE@@PAUGX_ENGINE_MEMOBJ_STATE@@@@UAE@XZ)
                          0C8B4DFC51E8:
                            0. 00 0000 002E 0000:??_GCGXToolTipCtrlProxy@@UAEPAXI@Z (REF 000B: ??1CGXToolTipCtrlProxy@@UAE@XZ)
                            1. 00 0000 002E 0000:??_GCGXNoToolTipCtrlProxy@@UAEPAXI@Z (REF 000B: ??1CGXNoToolTipCtrlProxy@@UAE@XZ)
                            2. 00 0000 002E 0000:??_G?$CGXNodeManagerNor@VCGXTabWndAdapter@@@@UAEPAXI@Z (REF 000B: ??1?$CGXNodeManagerNor@VCGXTabWndAdapter@@@@UAE@XZ)
                            3. 00 0000 002E 0000:??_GCGXGridTabWndAdapter@@UAEPAXI@Z (REF 000B: ??1CGXGridTabWndAdapter@@UAE@XZ)
                            4. 00 0000 002E 0000:??_GCGXTabWndAdapter@@UAEPAXI@Z (REF 000B: ??1CGXTabWndAdapter@@UAE@XZ)
                            5. 00 0000 002E 0000:??_GUserAttrInfo@CGXStylesMap@@QAEPAXI@Z (REF 000B: ??1UserAttrInfo@CGXStylesMap@@QAE@XZ)
                            6. 00 0000 002E 0000:??_GBaseStyleInfo@CGXStylesMap@@QAEPAXI@Z (REF 000B: ??1BaseStyleInfo@CGXStylesMap@@QAE@XZ)
                            7. 00 0000 002E 0000:??_GCString@@QAEPAXI@Z (REF 000B: ??1CString@@QAE@XZ)
                            8. 00 0000 002E 0000:??_GCGXInsideWndState@@QAEPAXI@Z (REF 000B: ??1CGXInsideWndState@@QAE@XZ)
                            9. 00 0000 002E 0000:??_GCGXSortKey@@QAEPAXI@Z (REF 000B: ??1CGXSortKey@@QAE@XZ)
                            10. 00 0000 002E 0000:??_GUserPropertyInfo@CGXProperties@@QAEPAXI@Z (REF 000B: ??1UserPropertyInfo@CGXProperties@@QAE@XZ)
                            11. 00 0000 002E 0000:??_G?$CGXCaptiveManager@VCOleVariant@@@@UAEPAXI@Z (REF 000B: ??1?$CGXCaptiveManager@VCOleVariant@@@@UAE@XZ)
                            12. 00 0000 002E 0000:??_G__captive@?$CGXCaptiveManager@VCOleVariant@@@@UAEPAXI@Z (REF 000B: ??1__captive@?$CGXCaptiveManager@VCOleVariant@@@@UAE@XZ)
                            13. 00 0000 002E 0000:??_GCGXOleDataSourceProxy@@UAEPAXI@Z (REF 000B: ??1CGXOleDataSourceProxy@@UAE@XZ)
                            14. 00 0000 002E 0000:??_GCGXNoOleDataSourceProxy@@UAEPAXI@Z (REF 000B: ??1CGXNoOleDataSourceProxy@@UAE@XZ)
                            15. 00 0000 002E 0000:??_GCGXOleDataObjectProxy@@UAEPAXI@Z (REF 000B: ??1CGXOleDataObjectProxy@@UAE@XZ)
                            16. 00 0000 002E 0000:??_GCGXNoOleDataObjectProxy@@UAEPAXI@Z (REF 000B: ??1CGXNoOleDataObjectProxy@@UAE@XZ)
                            17. 00 0000 002E 0000:??_GCOleDataObject@@QAEPAXI@Z (REF 000B: ??1COleDataObject@@QAE@XZ)
                            18. 00 0000 002E 0000:??_GCGXDrawingAndFormatting@@UAEPAXI@Z (REF 000B: ??1CGXDrawingAndFormatting@@UAE@XZ)
                            19. 00 0000 002E 0000:??_GCGXODBCGrid@@MAEPAXI@Z (REF 000B: ??1CGXODBCGrid@@MAE@XZ)
                            20. 00 0000 002E 0000:??_GCGXDaoBitmap@@UAEPAXI@Z (REF 000B: ??1CGXDaoBitmap@@UAE@XZ)
                            21. 00 0000 002E 0000:??_GCGXDaoGrid@@MAEPAXI@Z (REF 000B: ??1CGXDaoGrid@@MAE@XZ)
                            22. 00 0000 002E 0000:??_GCGXDaoBlob@@UAEPAXI@Z (REF 000B: ??1CGXDaoBlob@@UAE@XZ)
                            23. 00 0000 002E 0000:??_GCOleVariant@@QAEPAXI@Z (REF 000B: ??1COleVariant@@QAE@XZ)
                            24. 00 0000 002E 0000:??_GCGXWndWrapper@@UAEPAXI@Z (REF 000B: ??1CGXWndWrapper@@UAE@XZ)
                            25. 00 0000 002E 0000:??_GFormat@CGXBCurrencyEdit@@UAEPAXI@Z (REF 000B: ??1Format@CGXBCurrencyEdit@@UAE@XZ)
                            26. 00 0000 002E 0000:??_GCGXControl@@UAEPAXI@Z (REF 000B: ??1CGXControl@@UAE@XZ)
                            27. 00 0000 002E 0000:??_GCGXCellTipBase@@UAEPAXI@Z (REF 000B: ??1CGXCellTipBase@@UAE@XZ)
                            28. 00 0000 002E 0000:??_GCGXCellTipWndManager@@UAEPAXI@Z (REF 000B: ??1CGXCellTipWndManager@@UAE@XZ)
                            29. 00 0000 002E 0000:??_G?$CGXNodeManager@VCGXCellTipWnd@@@@UAEPAXI@Z (REF 000B: ??1?$CGXNodeManager@VCGXCellTipWnd@@@@UAE@XZ)
                            30. 00 0000 002E 0000:??_GCGXCellTipStatic@@UAEPAXI@Z (REF 000B: ??1CGXCellTipStatic@@UAE@XZ)
                            31. 00 0000 002E 0000:??_GCGXStatic@@UAEPAXI@Z (REF 000B: ??1CGXStatic@@UAE@XZ)
                            32. 00 0000 002E 0000:??_GCGXRadioButtonEx@@UAEPAXI@Z (REF 000B: ??1CGXRadioButtonEx@@UAE@XZ)
                            33. 00 0000 002E 0000:??_GCGXRadioButton@@UAEPAXI@Z (REF 000B: ??1CGXRadioButton@@UAE@XZ)
                            34. 00 0000 002E 0000:??_GCGXPushbutton@@UAEPAXI@Z (REF 000B: ??1CGXPushbutton@@UAE@XZ)
                            35. 00 0000 002E 0000:??_GCGXProgressCtrl@@UAEPAXI@Z (REF 000B: ??1CGXProgressCtrl@@UAE@XZ)
                            36. 00 0000 002E 0000:??_GCGXGridCore@@UAEPAXI@Z (REF 000B: ??1CGXGridCore@@UAE@XZ)
                            37. 00 0000 002E 0000:??_GCGXOlePreview@@UAEPAXI@Z (REF 000B: ??1CGXOlePreview@@UAE@XZ)
                            38. 00 0000 002E 0000:??_GCGXViewerManager@@UAEPAXI@Z (REF 000B: ??1CGXViewerManager@@UAE@XZ)
                            39. 00 0000 002E 0000:??_GCGXViewerFactory@@QAEPAXI@Z (REF 000B: ??1CGXViewerFactory@@QAE@XZ)
                            40. 00 0000 002E 0000:??_GCGXOleViewer@@UAEPAXI@Z (REF 000B: ??1CGXOleViewer@@UAE@XZ)
                            41. 00 0000 002E 0000:??_GCGXGenericViewerImpl@@UAEPAXI@Z (REF 000B: ??1CGXGenericViewerImpl@@UAE@XZ)
                            42. 00 0000 002E 0000:??_G?$CGXNodeManager@VCGXOleViewer@@@@UAEPAXI@Z (REF 000B: ??1?$CGXNodeManager@VCGXOleViewer@@@@UAE@XZ)
                            43. 00 0000 002E 0000:??_G?$CGXInterfaceManager@UIUnknown@@@@UAEPAXI@Z (REF 000B: ??1?$CGXInterfaceManager@UIUnknown@@@@UAE@XZ)
                            44. 00 0000 002E 0000:??_G?$CGXHandleManager@PAX@@UAEPAXI@Z (REF 000B: ??1?$CGXHandleManager@PAX@@UAE@XZ)
                            45. 00 0000 002E 0000:??_GCGXCommandFactory@@UAEPAXI@Z (REF 000B: ??1CGXCommandFactory@@UAE@XZ)
                            46. 00 0000 002E 0000:??_GCGXAbstractCommandFactory@@UAEPAXI@Z (REF 000B: ??1CGXAbstractCommandFactory@@UAE@XZ)
                            47. 00 0000 002E 0000:??_GCGXClientSite@@QAEPAXI@Z (REF 000B: ??1CGXClientSite@@QAE@XZ)
                            48. 00 0000 002E 0000:??_GCGXAdviseSink@@QAEPAXI@Z (REF 000B: ??1CGXAdviseSink@@QAE@XZ)
                            49. 00 0000 002E 0000:??_GCGXCheckBoxEx@@UAEPAXI@Z (REF 000B: ??1CGXCheckBoxEx@@UAE@XZ)
                            50. 00 0000 002E 0000:??_GCGXChild@@UAEPAXI@Z (REF 000B: ??1CGXChild@@UAE@XZ)
                            51. 00 0000 002E 0000:??_GCGXHotSpotButton@@UAEPAXI@Z (REF 000B: ??1CGXHotSpotButton@@UAE@XZ)
                            52. 00 0000 002E 0000:??_GCGXHeader@@UAEPAXI@Z (REF 000B: ??1CGXHeader@@UAE@XZ)
                            53. 00 0000 002E 0000:??_GCGXComboBoxWndButton@@UAEPAXI@Z (REF 000B: ??1CGXComboBoxWndButton@@UAE@XZ)
                            54. 00 0000 002E 0000:??_GCGXComboBoxButton@@UAEPAXI@Z (REF 000B: ??1CGXComboBoxButton@@UAE@XZ)
                            55. 00 0000 002E 0000:??_GCGXButton@@UAEPAXI@Z (REF 000B: ??1CGXButton@@UAE@XZ)
                            56. 00 0000 002E 0000:??_GCGXBitmapButtonChild@@UAEPAXI@Z (REF 000B: ??1CGXBitmapButtonChild@@UAE@XZ)
                            57. 00 0000 002E 0000:??_GCGXArrowButton@@UAEPAXI@Z (REF 000B: ??1CGXArrowButton@@UAE@XZ)
                            58. 00 0000 002E 0000:??_GCGXUpArrowButton@@UAEPAXI@Z (REF 000B: ??1CGXUpArrowButton@@UAE@XZ)
                            59. 00 0000 002E 0000:??_GCGXDownArrowButton@@UAEPAXI@Z (REF 000B: ??1CGXDownArrowButton@@UAE@XZ)
                            60. 00 0000 002E 0000:??_GCGXCheckBox@@UAEPAXI@Z (REF 000B: ??1CGXCheckBox@@UAE@XZ)
                            61. 00 0000 002E 0000:??_GCGXBitmapButton@@UAEPAXI@Z (REF 000B: ??1CGXBitmapButton@@UAE@XZ)
                            62. 00 0000 002E 0000:??_GCGXBrowseGridArrowRowHeader@@UAEPAXI@Z (REF 000B: ??1CGXBrowseGridArrowRowHeader@@UAE@XZ)
                            63. 00 0000 002E 0000:??_GCGXBrowserGrid@@MAEPAXI@Z (REF 000B: ??1CGXBrowserGrid@@MAE@XZ)
                            64. 00 0000 002E 0000:??_G?$CGXNodeManager@VCGXTabWndMgr@@@@UAEPAXI@Z (REF 000B: ??1?$CGXNodeManager@VCGXTabWndMgr@@@@UAE@XZ)
                        C1E0:
                          028B4DFC8B510883E2:
                            0. 12 F9CD 0032 0000:?SetIncludeUnderline@CGXFont@@QAEAAV1@H@Z
                          038B4DFC8B510883E2:
                            0. 12 19C9 0032 0000:?SetIncludeStrikeOut@CGXFont@@QAEAAV1@H@Z
                        D1E08B4DFC8B510883E2FD:
                          0. 11 4F8C 0031 0000:?SetIncludeItalic@CGXFont@@QAEAAV1@H@Z
                    FC:
                      8BE55DC3:
                        0. 00 0000 0016 (?)0000:??0IAdviseSink@@QAE@XZ (REF 000B: ??0IUnknown@@QAE@XZ)
                        1. 00 0000 0016 0000:??0CODBCFieldInfo@@QAE@XZ (REF 000B: ??0CString@@QAE@XZ)
                      C7:
                        00........:
                          6A:
                            086A008B4DFC83:
                              0. 04 17BC 0062 0000:??0CGXFont@@QAE@XZ
                            286A008B4DFC83:
                              0. 04 B419 0F9A 0000:??0GX_REGEX_STATE@@QAE@XZ 00A3:??1GX_REGEX_STATE@@UAE@XZ 00BF:?GXGetRegexState@@YAPAVGX_REGEX_STATE@@XZ 0155:?_gx_XSre_comp@@YAPADPAD@Z (l)081F:?chset@@YAXD@Z 085A:?_gx_XSre_exec@@YAHPAD@Z (l)09EA:?pmatch@@YAPADPAD0@Z 0DE8:?_gx_XSre_modw@@YAXPAD@Z 0E74:?_gx_XSre_subs@@YAHPAD0@Z 0F95:?_gx_XSre_fail@@YAXPADD@Z (0F75: C3)
                              1. 04 B419 10EF 0000:??0GX_REGEX_STATE@@QAE@XZ 00A3:??1GX_REGEX_STATE@@UAE@XZ 00BF:?GXGetRegexState@@YAPAVGX_REGEX_STATE@@XZ 0155:?_gx_XSre_comp@@YAPAGPAG@Z (l)08A8:?chset@@YAXG@Z 08F0:?_gx_XSre_exec@@YAHPAG@Z (l)0A91:?pmatch@@YAPAGPAG0@Z 0F08:?_gx_XSre_modw@@YAXPAG@Z 0FA0:?_gx_XSre_subs@@YAHPAG0@Z 10EA:?_gx_XSre_fail@@YAXPAGG@Z (0F75: 08)
                          8B:
                            45FC8BE55DC3:
                              55:
                                0. 12 070F 086A 0000:??0CGXWorksheetFunctions@@QAE@XZ 001F:?LookupFunction@CGXWorksheetFunctions@@UAEPAU_gx_keyword@@PBD@Z 002E:?SortTable@CGXWorksheetFunctions@@SAXPAU_gx_keyword@@H@Z (l)0053:?fn_fn_cmp@@YAHPBX0@Z 006E:?Lookup@CGXWorksheetFunctions@@SAPAU_gx_keyword@@PBDPAU2@H@Z (l)0097:?fn_text_cmp@@YAHPBX0@Z 00AE:?_gx_fn_lookup@@YAPAU_gx_keyword@@PBD@Z 00E5:?_gx_get_one_number@@YANQAU_gx_operand@@@Z 01C6:?_gx_cvt2constant@@YAHPAU_gx_operand@@@Z 0386:?_gx_cvt2int@@YAHN@Z 03B1:?_gx_fn_get_value@@YAHHHPAN@Z 05A6:?_gx_fn_get_string@@YAHHHPAD@Z 06B5:?_gx_fn_xsstrcpy@@YAXPADPBDH@Z 071D:?_gx_fn_xsstrcat@@YAXPADPBDH@Z 07CA:?_gx_function_error@@YAXH@Z 07E6:?_gx_propagate_error@@YAXPAU_gx_operand@@@Z 0801:?_gx_clean_fn_args@@YAXXZ (0832: C4)
                                1. 12 070F 087C 0000:??0CGXWorksheetFunctions@@QAE@XZ 001F:?LookupFunction@CGXWorksheetFunctions@@UAEPAU_gx_keyword@@PBG@Z 002E:?SortTable@CGXWorksheetFunctions@@SAXPAU_gx_keyword@@H@Z (l)0053:?fn_fn_cmp@@YAHPBX0@Z 006E:?Lookup@CGXWorksheetFunctions@@SAPAU_gx_keyword@@PBGPAU2@H@Z (l)0097:?fn_text_cmp@@YAHPBX0@Z 00AE:?_gx_fn_lookup@@YAPAU_gx_keyword@@PBG@Z 00E5:?_gx_get_one_number@@YANQAU_gx_operand@@@Z 01C6:?_gx_cvt2constant@@YAHPAU_gx_operand@@@Z 0386:?_gx_cvt2int@@YAHN@Z 03B1:?_gx_fn_get_value@@YAHHHPAN@Z 05A8:?_gx_fn_get_string@@YAHHHPAG@Z 06B7:?_gx_fn_xsstrcpy@@YAXPAGPBGH@Z 0726:?_gx_fn_xsstrcat@@YAXPAGPBGH@Z 07DC:?_gx_function_error@@YAXH@Z 07F8:?_gx_propagate_error@@YAXPAU_gx_operand@@@Z 0813:?_gx_clean_fn_args@@YAXXZ (0832: E8)
                                2. 12 070F 0872 0000:??0CGXWorksheetFunctions@@QAE@XZ 001F:?LookupFunction@CGXWorksheetFunctions@@UAEPAU_gx_keyword@@PBD@Z 002E:?SortTable@CGXWorksheetFunctions@@SAXPAU_gx_keyword@@H@Z (l)0054:?fn_fn_cmp@@YAHPBX0@Z 006F:?Lookup@CGXWorksheetFunctions@@SAPAU_gx_keyword@@PBDPAU2@H@Z (l)0099:?fn_text_cmp@@YAHPBX0@Z 00B0:?_gx_fn_lookup@@YAPAU_gx_keyword@@PBD@Z 00E7:?_gx_get_one_number@@YANQAU_gx_operand@@@Z 01C8:?_gx_cvt2constant@@YAHPAU_gx_operand@@@Z 0389:?_gx_cvt2int@@YAHN@Z 03B4:?_gx_fn_get_value@@YAHHHPAN@Z 05AD:?_gx_fn_get_string@@YAHHHPAD@Z 06BD:?_gx_fn_xsstrcpy@@YAXPADPBDH@Z 0725:?_gx_fn_xsstrcat@@YAXPADPBDH@Z 07D2:?_gx_function_error@@YAXH@Z 07EE:?_gx_propagate_error@@YAXPAU_gx_operand@@@Z 0809:?_gx_clean_fn_args@@YAXXZ (0832: 6A)
                                3. 12 070F 0885 0000:??0CGXWorksheetFunctions@@QAE@XZ 001F:?LookupFunction@CGXWorksheetFunctions@@UAEPAU_gx_keyword@@PBG@Z 002E:?SortTable@CGXWorksheetFunctions@@SAXPAU_gx_keyword@@H@Z (l)0054:?fn_fn_cmp@@YAHPBX0@Z 0070:?Lookup@CGXWorksheetFunctions@@SAPAU_gx_keyword@@PBGPAU2@H@Z (l)009A:?fn_text_cmp@@YAHPBX0@Z 00B2:?_gx_fn_lookup@@YAPAU_gx_keyword@@PBG@Z 00E9:?_gx_get_one_number@@YANQAU_gx_operand@@@Z 01CA:?_gx_cvt2constant@@YAHPAU_gx_operand@@@Z 038B:?_gx_cvt2int@@YAHN@Z 03B6:?_gx_fn_get_value@@YAHHHPAN@Z 05AF:?_gx_fn_get_string@@YAHHHPAG@Z 06C0:?_gx_fn_xsstrcpy@@YAXPAGPBGH@Z 072F:?_gx_fn_xsstrcat@@YAXPAGPBGH@Z 07E5:?_gx_function_error@@YAXH@Z 0801:?_gx_propagate_error@@YAXPAU_gx_operand@@@Z 081C:?_gx_clean_fn_args@@YAXXZ (0832: 18)
                                4. 0B C269 0312 0000:??0CGXDataDib@@QAE@XZ 001F:??1CGXDataDib@@UAE@XZ 003B:?Draw@CGXDataDib@@SGPAXPAVCDC@@ABVCOleVariant@@PAUtagRECT@@HI2PAXH@Z 00B3:?LocateBitmap@CGXDataDib@@SGPAXABVCOleVariant@@H@Z (02E6: 00)
                                5. 0B C269 0314 0000:??0CGXDataDib@@QAE@XZ 001F:??1CGXDataDib@@UAE@XZ 003B:?Draw@CGXDataDib@@SGPAXPAVCDC@@ABVCOleVariant@@PAUtagRECT@@HI2PAXH@Z 00B3:?LocateBitmap@CGXDataDib@@SGPAXABVCOleVariant@@H@Z (02E6: C2)
                              ..:
                                0. 00 0000 001F 0000:??0CGXGridOptimizedUpdateImp@@QAE@XZ (REF 000B: ??0CGXAbstractGridOptimizedUpdateImp@@QAE@XZ)
                                1. 00 0000 001F 0000:??0CGXTabWndInterface@@QAE@XZ (REF 000B: ??0CGXAbstractTabWndInterface@@QAE@XZ)
                                2. 00 0000 001F 0000:??0CGXOleDateTimeImp@@QAE@XZ (REF 0014: ??_7CGXOleDateTimeImp@@6B@)
                                3. 00 0000 001F 0000:??0CGXNoOleDateTimeImp@@QAE@XZ (REF 0014: ??_7CGXNoOleDateTimeImp@@6B@)
                                4. 00 0000 001F 0000:??0CGXTabGridCreator@@QAE@XZ (REF 000B: ??0?$CGXCreator@VCGXTabWndAdapter@@@@QAE@XZ)
                                5. 00 0000 001F 0000:??0CGXStyleSerializeImp@@QAE@XZ (REF 000B: ??0CGXAbstractStyleSerializeImp@@QAE@XZ)
                                6. 00 0000 001F 0000:??0CGXSerializeOG5CompatibleImp@@QAE@XZ (REF 000B: ??0CGXAbstractSerializeOG5CompatibleImp@@QAE@XZ)
                                7. 00 0000 001F 0000:??0CGXStyleCompareSubsetImp@@QAE@XZ (REF 000B: ??0CGXAbstractStyleCompareSubsetImp@@QAE@XZ)
                                8. 00 0000 001F 0000:??0CGXSpanCellPoolImp@@QAE@XZ (REF 000B: ??0CGXAbstractSpanCellPoolImp@@QAE@XZ)
                                9. 00 0000 001F 0000:??0CGXDWordArrayPtrArray@@QAE@XZ (REF 0014: ??_7CGXDWordArrayPtrArray@@6B@)
                                10. 00 0000 001F 0000:??0CGXGridSortMoveDataImp@@QAE@XZ (REF 000B: ??0CGXAbstractGridSortMoveDataImp@@QAE@XZ)
                                11. 00 0000 001F 0000:??0CGXGridSortImp@@QAE@XZ (REF 000B: ??0CGXAbstractGridSortImp@@QAE@XZ)
                                12. 00 0000 001F 0000:??0CGXGridUserResizeCellsImp@@QAE@XZ (REF 000B: ??0CGXAbstractGridUserResizeCellsImp@@QAE@XZ)
                                13. 00 0000 001F 0000:??0CGXGridUserSelectRangeImp@@QAE@XZ (REF 000B: ??0CGXAbstractGridUserSelectRangeImp@@QAE@XZ)
                                14. 00 0000 001F 0000:??0CGXGridExcelLikeFrameImp@@QAE@XZ (REF 000B: ??0CGXAbstractGridExcelLikeFrameImp@@QAE@XZ)
                                15. 00 0000 001F 0000:??0CGXGridUserDragSelectRangeImp@@QAE@XZ (REF 000B: ??0CGXAbstractGridUserDragSelectRangeImp@@QAE@XZ)
                                16. 00 0000 001F 0000:??0CGXGridProfileImp@@QAE@XZ (REF 000B: ??0CGXAbstractGridProfileImp@@QAE@XZ)
                                17. 00 0000 001F 0000:??0CGXPrintDeviceImp@@QAE@XZ (REF 000B: ??0CGXAbstractPrintDeviceImp@@QAE@XZ)
                                18. 00 0000 001F 0000:??0CGXGridDocSerializeImp@@QAE@XZ (REF 000B: ??0CGXAbstractGridDocSerializeImp@@QAE@XZ)
                                19. 00 0000 001F 0000:??0CGXStylePtrArray@@QAE@XZ (REF 0014: ??_7CGXStylePtrArray@@6B@)
                                20. 00 0000 001F 0000:??0CGXGridParamCopyOperatorImp@@QAE@XZ (REF 000B: ??0CGXAbstractGridParamCopyOperatorImp@@QAE@XZ)
                                21. 00 0000 001F 0000:??0CGXGridMergeCellsImp@@QAE@XZ (REF 000B: ??0CGXAbstractGridMergeCellsImp@@QAE@XZ)
                                22. 00 0000 001F 0000:??0CGXGridMoveRowsColsImp@@QAE@XZ (REF 000B: ??0CGXAbstractGridMoveRowsColsImp@@QAE@XZ)
                                23. 00 0000 001F 0000:??0CGXGridMarkEditHeaderImp@@QAE@XZ (REF 000B: ??0CGXAbstractGridMarkEditHeaderImp@@QAE@XZ)
                                24. 00 0000 001F 0000:??0CGXRecordInfoWndInterface@@QAE@XZ (REF 0014: ??_7CGXRecordInfoWndInterface@@6B@)
                                25. 00 0000 001F 0000:??0CGXRecordInfoSplitterWndInterface@@QAE@XZ (REF 0014: ??_7CGXRecordInfoSplitterWndInterface@@6B@)
                                26. 00 0000 001F 0000:??0CGXGridUpdateHintImp@@QAE@XZ (REF 000B: ??0CGXAbstractGridUpdateHintImp@@QAE@XZ)
                                27. 00 0000 001F 0000:??0CGXGridHideCellsImp@@QAE@XZ (REF 000B: ??0CGXAbstractGridHideCellsImp@@QAE@XZ)
                                28. 00 0000 001F 0000:??0CGXGridFreezeMenuHelperImp@@QAE@XZ (REF 000B: ??0CGXAbstractGridFreezeMenuHelperImp@@QAE@XZ)
                                29. 00 0000 001F 0000:??0CGXNumberFormattingImp@@QAE@XZ (REF 000B: ??0CGXAbstractNumberFormattingImp@@QAE@XZ)
                                30. 00 0000 001F 0000:??0CGXGridFloatCellsImp@@QAE@XZ (REF 000B: ??0CGXAbstractGridFloatCellsImp@@QAE@XZ)
                                31. 00 0000 001F 0000:??0CGXGridTextDataExchangeImp@@QAE@XZ (REF 000B: ??0CGXAbstractGridTextDataExchangeImp@@QAE@XZ)
                                32. 00 0000 001F 0000:??0CGXGridStyleDataExchangeImp@@QAE@XZ (REF 000B: ??0CGXAbstractGridStyleDataExchangeImp@@QAE@XZ)
                                33. 00 0000 001F 0000:??0CGXCaptiveDateTimeCtrl@@QAE@XZ (REF 000B: ??0CGXBDateTimeCtrl@@QAE@XZ)
                                34. 00 0000 001F 0000:??0CGXBDTGadgetArray@CGXBDateTimeCtrl@@QAE@XZ (REF 0014: ??_7CGXBDTGadgetArray@CGXBDateTimeCtrl@@6B@)
                                35. 00 0000 001F 0000:??0CGXDrawRotatedTextImp@@QAE@XZ (REF 000B: ??0CGXAbstractDrawRotatedTextImp@@QAE@XZ)
                                36. 00 0000 001F 0000:??0CGXGridOldDrawingImp@@QAE@XZ (REF 000B: ??0CGXAbstractGridOldDrawingImp@@QAE@XZ)
                                37. 00 0000 001F 0000:??0CGXDelayedRangePoolImp@@QAE@XZ (REF 000B: ??0CGXAbstractDelayedRangePoolImp@@QAE@XZ)
                                38. 00 0000 001F 0000:??0CGXStylePtrArrayPtrArray@@QAE@XZ (REF 0014: ??_7CGXStylePtrArrayPtrArray@@6B@)
                                39. 00 0000 001F 0000:??0CGXDrawSpannedCellsImp@@QAE@XZ (REF 000B: ??0CGXAbstractDrawSpannedCellsImp@@QAE@XZ)
                                40. 00 0000 001F 0000:??0CGXCoveredCellPoolImp@@QAE@XZ (REF 000B: ??0CGXAbstractCoveredCellPoolImp@@QAE@XZ)
                                41. 00 0000 001F 0000:??0CGXGridCoveredCellsImp@@QAE@XZ (REF 000B: ??0CGXAbstractGridCoveredCellsImp@@QAE@XZ)
                                42. 00 0000 001F 0000:??0CGXPtrArrayPtrArray@@QAE@XZ (REF 0014: ??_7CGXPtrArrayPtrArray@@6B@)
                                43. 00 0000 001F 0000:??0CGXCaptiveCurEdit@@QAE@XZ (REF 000B: ??0CGXBCurrencyEdit@@QAE@XZ)
                                44. 00 0000 001F 0000:??0CGXGridRangeNameImp@@QAE@XZ (REF 000B: ??0CGXAbstractGridRangeNameImp@@QAE@XZ)
                                45. 00 0000 001F 0000:??0CGXDataCopyMoveCellsImp@@QAE@XZ (REF 000B: ??0CGXAbstractDataCopyMoveCellsImp@@QAE@XZ)
                                46. 00 0000 001F 0000:??0CGXGridDirectCopyMoveCellsImp@@QAE@XZ (REF 000B: ??0CGXAbstractGridDirectCopyMoveCellsImp@@QAE@XZ)
                                47. 00 0000 001F 0000:??0CGXGridPrintImp@@QAE@XZ (REF 000B: ??0CGXAbstractGridPrintImp@@QAE@XZ)
                                48. 00 0000 001F 0000:??0CGXGridFindReplaceImp@@QAE@XZ (REF 000B: ??0CGXAbstractGridFindReplaceImp@@QAE@XZ)
                                49. 00 0000 001F 0000:??0CGXGridResizeToFitImp@@QAE@XZ (REF 000B: ??0CGXAbstractGridResizeToFitImp@@QAE@XZ)
                                50. 00 0000 001F 0000:??0CGXGridCutPasteImp@@QAE@XZ (REF 000B: ??0CGXAbstractGridCutPasteImp@@QAE@XZ)
                                51. 00 0000 001F 0000:??0CGXGridClearCellsImp@@QAE@XZ (REF 000B: ??0CGXAbstractGridClearCellsImp@@QAE@XZ)
                                52. 00 0000 001F 0000:??0CGXCalcSizeImp@@QAE@XZ (REF 000B: ??0CGXAbstractCalcSizeImp@@QAE@XZ)
                                53. 00 0000 001F 0000:??0CGXBCalcBtnArray@CGXBCalculator@@QAE@XZ (REF 0014: ??_7CGXBCalcBtnArray@CGXBCalculator@@6B@)
                                54. 00 0000 001F 0000:??0CGXControlFactory@@QAE@XZ (REF 000B: ??0CGXAbstractControlFactory@@QAE@XZ)
                                55. 00 0000 001F 0000:??0CGXLongOperationImp@@QAE@XZ (REF 000B: ??0CGXAbstractLongOperationImp@@QAE@XZ)
                            4DFCC741:
                              04:
                                0000:
                                  0. 86 0CA4 26C6 0000:??0GX_PARSE_STATE@@QAE@XZ 00A0:??1GX_PARSE_STATE@@UAE@XZ 0101:?GXGetParseState@@YAPAVGX_PARSE_STATE@@XZ 0194:?_gx_get_token@@YA?AUgxSToken@@H@Z (l)0258:$yy_match$94197 (l)0305:$yy_find_action$94212 (l)037A:$do_action$94215 (l)1C50:?yy_get_next_buffer@@YAHXZ (l)1F46:?yy_get_previous_state@@YAHXZ (l)2033:?yy_try_NUL_trans@@YAHH@Z 20E3:?yyrestart@@YAXPAU_iobuf@@@Z 212C:?yy_switch_to_buffer@@YAXPAUyy_buffer_state@@@Z 21A9:?yy_load_buffer_state@@YAXXZ 2212:?yy_create_buffer@@YAPAUyy_buffer_state@@PAU_iobuf@@H@Z 228F:?yy_delete_buffer@@YAXPAUyy_buffer_state@@@Z 22D9:?yy_init_buffer@@YAXPAUyy_buffer_state@@PAU_iobuf@@@Z 2306:?yy_flush_buffer@@YAXPAUyy_buffer_state@@@Z 2366:?yy_scan_buffer@@YAPAUyy_buffer_state@@PAGI@Z 2431:?yy_scan_string@@YAPAUyy_buffer_state@@PBG@Z 246D:?yy_scan_bytes@@YAPAUyy_buffer_state@@PBGH@Z (l)2522:?yy_fatal_error@@YAXQBG@Z (l)253F:?yy_flex_alloc@@YAPAXI@Z (l)2550:?yy_flex_realloc@@YAPAXPAXI@Z (l)2565:?yy_flex_free@@YAXPAX@Z 2576:_yywrap 2580:?_gx_scanner_init@@YAXPBG@Z (l)25E6:?my_yyinput@@YAHPAGH@Z (l)266A:?mk_token@@YA?AUgxSToken@@HHW4TokType@@@Z (261F: C3)
                                  1. 86 0CA4 26D3 0000:??0GX_PARSE_STATE@@QAE@XZ 00A0:??1GX_PARSE_STATE@@UAE@XZ 0101:?GXGetParseState@@YAPAVGX_PARSE_STATE@@XZ 0194:?_gx_get_token@@YA?AUgxSToken@@H@Z (l)025E:$yy_match$94737 (l)030C:$yy_find_action$94752 (l)0381:$do_action$94755 (l)1C58:?yy_get_next_buffer@@YAHXZ (l)1F4E:?yy_get_previous_state@@YAHXZ (l)203B:?yy_try_NUL_trans@@YAHH@Z 20EB:?yyrestart@@YAXPAU_iobuf@@@Z 2134:?yy_switch_to_buffer@@YAXPAUyy_buffer_state@@@Z 21B1:?yy_load_buffer_state@@YAXXZ 221A:?yy_create_buffer@@YAPAUyy_buffer_state@@PAU_iobuf@@H@Z 2297:?yy_delete_buffer@@YAXPAUyy_buffer_state@@@Z 22E1:?yy_init_buffer@@YAXPAUyy_buffer_state@@PAU_iobuf@@@Z 230E:?yy_flush_buffer@@YAXPAUyy_buffer_state@@@Z 236E:?yy_scan_buffer@@YAPAUyy_buffer_state@@PAGI@Z 2439:?yy_scan_string@@YAPAUyy_buffer_state@@PBG@Z 2475:?yy_scan_bytes@@YAPAUyy_buffer_state@@PBGH@Z (l)252A:?yy_fatal_error@@YAXQBG@Z (l)2548:?yy_flex_alloc@@YAPAXI@Z (l)255A:?yy_flex_realloc@@YAPAXPAXI@Z (l)2570:?yy_flex_free@@YAXPAX@Z 2581:_yywrap 258B:?_gx_scanner_init@@YAXPBG@Z (l)25F2:?my_yyinput@@YAHPAGH@Z (l)2677:?mk_token@@YA?AUgxSToken@@HHW4TokType@@@Z (261F: 08)
                                  2. 84 4BF6 265D 0000:??0GX_PARSE_STATE@@QAE@XZ 009E:??1GX_PARSE_STATE@@UAE@XZ 00FF:?GXGetParseState@@YAPAVGX_PARSE_STATE@@XZ 0192:?_gx_get_token@@YA?AUgxSToken@@H@Z (l)0254:$yy_match$94185 (l)0300:$yy_find_action$94200 (l)036F:$do_action$94203 (l)1C21:?yy_get_next_buffer@@YAHXZ (l)1F03:?yy_get_previous_state@@YAHXZ (l)1FED:?yy_try_NUL_trans@@YAHH@Z 209D:?yyrestart@@YAXPAU_iobuf@@@Z 20E6:?yy_switch_to_buffer@@YAXPAUyy_buffer_state@@@Z 2161:?yy_load_buffer_state@@YAXXZ 21C8:?yy_create_buffer@@YAPAUyy_buffer_state@@PAU_iobuf@@H@Z 2244:?yy_delete_buffer@@YAXPAUyy_buffer_state@@@Z 228E:?yy_init_buffer@@YAXPAUyy_buffer_state@@PAU_iobuf@@@Z 22BB:?yy_flush_buffer@@YAXPAUyy_buffer_state@@@Z 2317:?yy_scan_buffer@@YAPAUyy_buffer_state@@PADI@Z 23DC:?yy_scan_string@@YAPAUyy_buffer_state@@PBD@Z 2415:?yy_scan_bytes@@YAPAUyy_buffer_state@@PBDH@Z (l)24BC:?yy_fatal_error@@YAXQBD@Z (l)24D9:?yy_flex_alloc@@YAPAXI@Z (l)24EA:?yy_flex_realloc@@YAPAXPAXI@Z (l)24FF:?yy_flex_free@@YAXPAX@Z 2510:_yywrap 251A:?_gx_scanner_init@@YAXPBD@Z (l)2580:?my_yyinput@@YAHPADH@Z (l)2601:?mk_token@@YA?AUgxSToken@@HHW4TokType@@@Z (25B8: C3)
                                  3. 84 4BF6 2668 0000:??0GX_PARSE_STATE@@QAE@XZ 009E:??1GX_PARSE_STATE@@UAE@XZ 00FF:?GXGetParseState@@YAPAVGX_PARSE_STATE@@XZ 0192:?_gx_get_token@@YA?AUgxSToken@@H@Z (l)025A:$yy_match$94725 (l)0307:$yy_find_action$94740 (l)0376:$do_action$94743 (l)1C29:?yy_get_next_buffer@@YAHXZ (l)1F0B:?yy_get_previous_state@@YAHXZ (l)1FF5:?yy_try_NUL_trans@@YAHH@Z 20A5:?yyrestart@@YAXPAU_iobuf@@@Z 20EE:?yy_switch_to_buffer@@YAXPAUyy_buffer_state@@@Z 2169:?yy_load_buffer_state@@YAXXZ 21D0:?yy_create_buffer@@YAPAUyy_buffer_state@@PAU_iobuf@@H@Z 224C:?yy_delete_buffer@@YAXPAUyy_buffer_state@@@Z 2296:?yy_init_buffer@@YAXPAUyy_buffer_state@@PAU_iobuf@@@Z 22C3:?yy_flush_buffer@@YAXPAUyy_buffer_state@@@Z 231F:?yy_scan_buffer@@YAPAUyy_buffer_state@@PADI@Z 23E4:?yy_scan_string@@YAPAUyy_buffer_state@@PBD@Z 241D:?yy_scan_bytes@@YAPAUyy_buffer_state@@PBDH@Z (l)24C4:?yy_fatal_error@@YAXQBD@Z (l)24E2:?yy_flex_alloc@@YAPAXI@Z (l)24F4:?yy_flex_realloc@@YAPAXPAXI@Z (l)250A:?yy_flex_free@@YAXPAX@Z 251B:_yywrap 2525:?_gx_scanner_init@@YAXPBD@Z (l)258B:?my_yyinput@@YAHPADH@Z (l)260C:?mk_token@@YA?AUgxSToken@@HHW4TokType@@@Z (25B8: 55)
                                  4. 27 6C81 0047 0000:??0?$CArray@PAVCGXTabCreateInfo@@PAV1@@@QAE@XZ
                                  5. 09 C7F5 0029 0000:??0CGXCellTipWndFactory@@QAE@XZ (REF 0014: ??_7CGXCellTipWndFactory@@6B@)
                                  6. 09 C7F5 0029 0000:??0CGXDataUndoMoveCellsInfo@@QAE@XZ (REF 0014: ??_7CGXDataUndoMoveCellsInfo@@6B@)
                                0100:
                                  0. 20 AC4D 042E 0000:??0CGXClientSite@@QAE@PAVCGXOleViewer@@@Z 0034:??1CGXClientSite@@QAE@XZ 0048:?QueryInterface@CGXClientSite@@UAGJABU_GUID@@PAPAX@Z 0099:?AddRef@CGXClientSite@@UAGKXZ 00A6:?Release@CGXClientSite@@UAGKXZ 00F7:?SaveObject@CGXClientSite@@UAGJXZ 0205:?GetMoniker@CGXClientSite@@UAGJKKPAPAUIMoniker@@@Z 021E:?GetContainer@CGXClientSite@@UAGJPAPAUIOleContainer@@@Z 0237:?ShowObject@CGXClientSite@@UAGJXZ 024D:?OnShowWindow@CGXClientSite@@UAGJH@Z 0266:?RequestNewObjectLayout@CGXClientSite@@UAGJXZ 027F:?GetViewer@CGXClientSite@@QAEPAVCGXOleViewer@@XZ 0290:??0CGXAdviseSink@@QAE@PAVCGXOleViewer@@@Z 02C4:??1CGXAdviseSink@@QAE@XZ 02D8:?QueryInterface@CGXAdviseSink@@UAGJABU_GUID@@PAPAX@Z 0329:?AddRef@CGXAdviseSink@@UAGKXZ 0336:?Release@CGXAdviseSink@@UAGKXZ 0387:?OnDataChange@CGXAdviseSink@@UAGXPAUtagFORMATETC@@PAUtagSTGMEDIUM@@@Z 03A0:?OnViewChange@CGXAdviseSink@@UAGXKJ@Z 03B9:?OnRename@CGXAdviseSink@@UAGXPAUIMoniker@@@Z 03D2:?OnSave@CGXAdviseSink@@UAGXXZ 03EB:?OnClose@CGXAdviseSink@@UAGXXZ 041D:?GetViewer@CGXAdviseSink@@QAEPAVCGXOleViewer@@XZ
                              080000:
                                0. 1D A44B 003D 0000:??0CGXUndoEngineCellsInfo@@QAE@XZ
                              3C:
                                0000:
                                  0. 15 7E78 3747 0000:??0CGXGridLineColorBox@@QAE@XZ 0029:??1CGXGridLineColorBox@@UAE@XZ 0045:?GetMessageMap@CGXGridLineColorBox@@MBEPBUAFX_MSGMAP@@XZ 0055:?GetCurSel@CGXGridLineColorBox@@QBEHXZ 0066:?SetCurSel@CGXGridLineColorBox@@QAEXH@Z 007C:?OnLButtonDown@CGXGridLineColorBox@@IAEXIVCPoint@@@Z 0131:?OnPaint@CGXGridLineColorBox@@IAEXXZ 01A9:?GetButtonRect@CGXGridLineColorBox@@QBE?AVCRect@@H@Z 02ED:?HitTest@CGXGridLineColorBox@@QBEHABVCPoint@@AAH@Z 035A:?DrawColorButton@CGXGridLineColorBox@@QBEXPAVCDC@@H@Z 04C5:??0CGXDisplayPropertiesDialog@@QAE@PAVCGXProperties@@PAVCGXStylesMap@@PAHHIPAVCWnd@@@Z 05A4:?DoDataExchange@CGXDisplayPropertiesDialog@@MAEXPAVCDataExchange@@@Z 0677:?UpdateSettings@CGXDisplayPropertiesDialog@@IAEXH@Z 0684:?GetMessageMap@CGXDisplayPropertiesDialog@@MBEPBUAFX_MSGMAP@@XZ 0694:?OnInitDialog@CGXDisplayPropertiesDialog@@MAEHXZ 0AD1:?OnCheckedCtl@CGXDisplayPropertiesDialog@@IAEXXZ 0B02:?OnOK@CGXDisplayPropertiesDialog@@MAEXXZ 0B4C:?OnCancel@CGXDisplayPropertiesDialog@@MAEXXZ 0B82:?OnShowWindow@CGXDisplayPropertiesDialog@@IAEXHI@Z 0BC4:?OnClickedBtnPrinter@CGXDisplayPropertiesDialog@@IAEXXZ 0C51:?OnChangedColor@CGXDisplayPropertiesDialog@@IAEJIJ@Z 0CDE:?OnSelchangeIdcListcolors@CGXDisplayPropertiesDialog@@IAEXXZ 0D4C:?OnNcActivate@CGXDisplayPropertiesDialog@@IAEHH@Z 0D75:?GetStyleRowCol@CGXUserPropertyGrid@@UAEHKKAAVCGXStyle@@W4GXModifyType@@H@Z 0E82:?StoreStyleRowCol@CGXUserPropertyGrid@@UAEHKKPBVCGXStyle@@W4GXModifyType@@H@Z 0F2F:?OnInitialUpdate@CGXUserPropertyGrid@@UAEXXZ 1597:?CanSelectCurrentCell@CGXUserPropertyGrid@@UAEHHKKKK@Z 15CA:??0CGXPrintPropertiesDialog@@QAE@PAVCGXProperties@@PAVCGXStylesMap@@PAHPAVCWnd@@@Z 1753:?DoDataExchange@CGXPrintPropertiesDialog@@MAEXPAVCDataExchange@@@Z 18B4:?GetMessageMap@CGXPrintPropertiesDialog@@MBEPBUAFX_MSGMAP@@XZ 18C4:?UpdateSettings@CGXPrintPropertiesDialog@@IAEXH@Z 1EAF:?UpdatePreview@CGXPrintPropertiesDialog@@IAEXXZ 1ED6:?OnInitDialog@CGXPrintPropertiesDialog@@MAEHXZ 2125:?OnBtnPrinter@CGXPrintPropertiesDialog@@IAEXXZ 21B2:?OnCheckedCtl@CGXPrintPropertiesDialog@@IAEXXZ 21D9:?OnOK@CGXPrintPropertiesDialog@@MAEXXZ 2200:?OnDestroy@CGXPrintPropertiesDialog@@IAEXXZ 2213:?OnCancel@CGXPrintPropertiesDialog@@MAEXXZ 2226:?OnShowWindow@CGXPrintPropertiesDialog@@IAEXHI@Z 226B:??0CGXPrintPropertiesWnd@@QAE@XZ 2294:??1CGXPrintPropertiesWnd@@UAE@XZ 22BA:?GetMessageMap@CGXPrintPropertiesWnd@@MBEPBUAFX_MSGMAP@@XZ 22CA:?OnPaint@CGXPrintPropertiesWnd@@IAEXXZ 234D:??0CGXHeaderFooterDialog@@QAE@PAVCGXProperties@@PAHPAVCWnd@@@Z 249C:?DoDataExchange@CGXHeaderFooterDialog@@MAEXPAVCDataExchange@@@Z 252C:?GetTabWnd@CGXHeaderFooterDialog@@QAEAAVCGXTabWnd@@XZ 2544:?UpdateSettings@CGXHeaderFooterDialog@@MAEXH@Z 28B4:?GetMessageMap@CGXHeaderFooterDialog@@MBEPBUAFX_MSGMAP@@XZ 28C4:?OnCtlColor@CGXHeaderFooterDialog@@IAEPAUHBRUSH__@@PAVCDC@@PAVCWnd@@I@Z 28E5:?OnInitDialog@CGXHeaderFooterDialog@@MAEHXZ 2D17:?OnClickedBtnFont@CGXHeaderFooterDialog@@IAEXXZ 2D3E:?OnShowWindow@CGXHeaderFooterDialog@@IAEXHI@Z 2D80:?OnClickedBtnPrinter@CGXHeaderFooterDialog@@IAEXXZ 2E0D:?OnOK@CGXHeaderFooterDialog@@MAEXXZ 2E3A:?OnCancel@CGXHeaderFooterDialog@@MAEXXZ 2E4D:?DoFontDialog@CGXHeaderFooterDialog@@IAEXPAVCGXGridWnd@@@Z 314B:?GetMessageMap@CGXHeaderFooterGrid@@MBEPBUAFX_MSGMAP@@XZ 315B:?OnInitCurrentCell@CGXHeaderFooterGrid@@UAEXKK@Z 31AB:?OnActivateGrid@CGXHeaderFooterGrid@@UAEHH@Z 3204:?OnInitialUpdate@CGXHeaderFooterGrid@@UAEXXZ (3711: C3)
                                  1. 15 7E78 376B 0000:??0CGXGridLineColorBox@@QAE@XZ 0029:??1CGXGridLineColorBox@@UAE@XZ 0045:?GetMessageMap@CGXGridLineColorBox@@MBEPBUAFX_MSGMAP@@XZ 0055:?GetCurSel@CGXGridLineColorBox@@QBEHXZ 0066:?SetCurSel@CGXGridLineColorBox@@QAEXH@Z 007C:?OnLButtonDown@CGXGridLineColorBox@@IAEXIVCPoint@@@Z 0131:?OnPaint@CGXGridLineColorBox@@IAEXXZ 01A9:?GetButtonRect@CGXGridLineColorBox@@QBE?AVCRect@@H@Z 02ED:?HitTest@CGXGridLineColorBox@@QBEHABVCPoint@@AAH@Z 035A:?DrawColorButton@CGXGridLineColorBox@@QBEXPAVCDC@@H@Z 04C5:??0CGXDisplayPropertiesDialog@@QAE@PAVCGXProperties@@PAVCGXStylesMap@@PAHHIPAVCWnd@@@Z 05A4:?DoDataExchange@CGXDisplayPropertiesDialog@@MAEXPAVCDataExchange@@@Z 0677:?UpdateSettings@CGXDisplayPropertiesDialog@@IAEXH@Z 0684:?GetMessageMap@CGXDisplayPropertiesDialog@@MBEPBUAFX_MSGMAP@@XZ 0694:?OnInitDialog@CGXDisplayPropertiesDialog@@MAEHXZ 0AD1:?OnCheckedCtl@CGXDisplayPropertiesDialog@@IAEXXZ 0B02:?OnOK@CGXDisplayPropertiesDialog@@MAEXXZ 0B4C:?OnCancel@CGXDisplayPropertiesDialog@@MAEXXZ 0B82:?OnShowWindow@CGXDisplayPropertiesDialog@@IAEXHI@Z 0BC4:?OnClickedBtnPrinter@CGXDisplayPropertiesDialog@@IAEXXZ 0C51:?OnChangedColor@CGXDisplayPropertiesDialog@@IAEJIJ@Z 0CDE:?OnSelchangeIdcListcolors@CGXDisplayPropertiesDialog@@IAEXXZ 0D4C:?OnNcActivate@CGXDisplayPropertiesDialog@@IAEHH@Z 0D75:?GetStyleRowCol@CGXUserPropertyGrid@@UAEHKKAAVCGXStyle@@W4GXModifyType@@H@Z 0E82:?StoreStyleRowCol@CGXUserPropertyGrid@@UAEHKKPBVCGXStyle@@W4GXModifyType@@H@Z 0F2F:?OnInitialUpdate@CGXUserPropertyGrid@@UAEXXZ 1597:?CanSelectCurrentCell@CGXUserPropertyGrid@@UAEHHKKKK@Z 15CA:??0CGXPrintPropertiesDialog@@QAE@PAVCGXProperties@@PAVCGXStylesMap@@PAHPAVCWnd@@@Z 1753:?DoDataExchange@CGXPrintPropertiesDialog@@MAEXPAVCDataExchange@@@Z 18B4:?GetMessageMap@CGXPrintPropertiesDialog@@MBEPBUAFX_MSGMAP@@XZ 18C4:?UpdateSettings@CGXPrintPropertiesDialog@@IAEXH@Z 1EC7:?UpdatePreview@CGXPrintPropertiesDialog@@IAEXXZ 1EEE:?OnInitDialog@CGXPrintPropertiesDialog@@MAEHXZ 213D:?OnBtnPrinter@CGXPrintPropertiesDialog@@IAEXXZ 21CA:?OnCheckedCtl@CGXPrintPropertiesDialog@@IAEXXZ 21F1:?OnOK@CGXPrintPropertiesDialog@@MAEXXZ 2218:?OnDestroy@CGXPrintPropertiesDialog@@IAEXXZ 222B:?OnCancel@CGXPrintPropertiesDialog@@MAEXXZ 223E:?OnShowWindow@CGXPrintPropertiesDialog@@IAEXHI@Z 2283:??0CGXPrintPropertiesWnd@@QAE@XZ 22AC:??1CGXPrintPropertiesWnd@@UAE@XZ 22D2:?GetMessageMap@CGXPrintPropertiesWnd@@MBEPBUAFX_MSGMAP@@XZ 22E2:?OnPaint@CGXPrintPropertiesWnd@@IAEXXZ 2365:??0CGXHeaderFooterDialog@@QAE@PAVCGXProperties@@PAHPAVCWnd@@@Z 24B4:?DoDataExchange@CGXHeaderFooterDialog@@MAEXPAVCDataExchange@@@Z 2544:?GetTabWnd@CGXHeaderFooterDialog@@QAEAAVCGXTabWnd@@XZ 255C:?UpdateSettings@CGXHeaderFooterDialog@@MAEXH@Z 28D8:?GetMessageMap@CGXHeaderFooterDialog@@MBEPBUAFX_MSGMAP@@XZ 28E8:?OnCtlColor@CGXHeaderFooterDialog@@IAEPAUHBRUSH__@@PAVCDC@@PAVCWnd@@I@Z 2909:?OnInitDialog@CGXHeaderFooterDialog@@MAEHXZ 2D3B:?OnClickedBtnFont@CGXHeaderFooterDialog@@IAEXXZ 2D62:?OnShowWindow@CGXHeaderFooterDialog@@IAEXHI@Z 2DA4:?OnClickedBtnPrinter@CGXHeaderFooterDialog@@IAEXXZ 2E31:?OnOK@CGXHeaderFooterDialog@@MAEXXZ 2E5E:?OnCancel@CGXHeaderFooterDialog@@MAEXXZ 2E71:?DoFontDialog@CGXHeaderFooterDialog@@IAEXPAVCGXGridWnd@@@Z 316F:?GetMessageMap@CGXHeaderFooterGrid@@MBEPBUAFX_MSGMAP@@XZ 317F:?OnInitCurrentCell@CGXHeaderFooterGrid@@UAEXKK@Z 31CF:?OnActivateGrid@CGXHeaderFooterGrid@@UAEHH@Z 3228:?OnInitialUpdate@CGXHeaderFooterGrid@@UAEXXZ (3711: 8B)
                                ..:
                                  0. 00 0000 0029 0000:??0CGXHeaderFooterGrid@@QAE@XZ
                              40:
                                0000:
                                  0. 15 7E78 37D8 0000:??0CGXGridLineColorBox@@QAE@XZ 0029:??1CGXGridLineColorBox@@UAE@XZ 0045:?_GetBaseMessageMap@CGXGridLineColorBox@@KGPBUAFX_MSGMAP@@XZ 004F:?GetMessageMap@CGXGridLineColorBox@@MBEPBUAFX_MSGMAP@@XZ 005F:?GetCurSel@CGXGridLineColorBox@@QBEHXZ 0070:?SetCurSel@CGXGridLineColorBox@@QAEXH@Z 0086:?OnLButtonDown@CGXGridLineColorBox@@IAEXIVCPoint@@@Z 013B:?OnPaint@CGXGridLineColorBox@@IAEXXZ 01B3:?GetButtonRect@CGXGridLineColorBox@@QBE?AVCRect@@H@Z 02F7:?HitTest@CGXGridLineColorBox@@QBEHABVCPoint@@AAH@Z 0364:?DrawColorButton@CGXGridLineColorBox@@QBEXPAVCDC@@H@Z 04CF:??0CGXDisplayPropertiesDialog@@QAE@PAVCGXProperties@@PAVCGXStylesMap@@PAHHIPAVCWnd@@@Z 05AE:?DoDataExchange@CGXDisplayPropertiesDialog@@MAEXPAVCDataExchange@@@Z 0681:?UpdateSettings@CGXDisplayPropertiesDialog@@IAEXH@Z 068E:?_GetBaseMessageMap@CGXDisplayPropertiesDialog@@KGPBUAFX_MSGMAP@@XZ 0698:?GetMessageMap@CGXDisplayPropertiesDialog@@MBEPBUAFX_MSGMAP@@XZ 06A8:?OnInitDialog@CGXDisplayPropertiesDialog@@MAEHXZ 0AE5:?OnCheckedCtl@CGXDisplayPropertiesDialog@@IAEXXZ 0B16:?OnOK@CGXDisplayPropertiesDialog@@MAEXXZ 0B60:?OnCancel@CGXDisplayPropertiesDialog@@MAEXXZ 0B96:?OnShowWindow@CGXDisplayPropertiesDialog@@IAEXHI@Z 0BD8:?OnClickedBtnPrinter@CGXDisplayPropertiesDialog@@IAEXXZ 0C65:?OnChangedColor@CGXDisplayPropertiesDialog@@IAEJIJ@Z 0CF2:?OnSelchangeIdcListcolors@CGXDisplayPropertiesDialog@@IAEXXZ 0D60:?OnNcActivate@CGXDisplayPropertiesDialog@@IAEHH@Z 0D89:?GetStyleRowCol@CGXUserPropertyGrid@@UAEHKKAAVCGXStyle@@W4GXModifyType@@H@Z 0E96:?StoreStyleRowCol@CGXUserPropertyGrid@@UAEHKKPBVCGXStyle@@W4GXModifyType@@H@Z 0F43:?OnInitialUpdate@CGXUserPropertyGrid@@UAEXXZ 15AB:?CanSelectCurrentCell@CGXUserPropertyGrid@@UAEHHKKKK@Z 15DE:??0CGXPrintPropertiesDialog@@QAE@PAVCGXProperties@@PAVCGXStylesMap@@PAHPAVCWnd@@@Z 176A:?DoDataExchange@CGXPrintPropertiesDialog@@MAEXPAVCDataExchange@@@Z 18CE:?_GetBaseMessageMap@CGXPrintPropertiesDialog@@KGPBUAFX_MSGMAP@@XZ 18D8:?GetMessageMap@CGXPrintPropertiesDialog@@MBEPBUAFX_MSGMAP@@XZ 18E8:?UpdateSettings@CGXPrintPropertiesDialog@@IAEXH@Z 1F01:?UpdatePreview@CGXPrintPropertiesDialog@@IAEXXZ 1F28:?OnInitDialog@CGXPrintPropertiesDialog@@MAEHXZ 2177:?OnBtnPrinter@CGXPrintPropertiesDialog@@IAEXXZ 2204:?OnCheckedCtl@CGXPrintPropertiesDialog@@IAEXXZ 222B:?OnOK@CGXPrintPropertiesDialog@@MAEXXZ 2252:?OnDestroy@CGXPrintPropertiesDialog@@IAEXXZ 2265:?OnCancel@CGXPrintPropertiesDialog@@MAEXXZ 2278:?OnShowWindow@CGXPrintPropertiesDialog@@IAEXHI@Z 22BD:??0CGXPrintPropertiesWnd@@QAE@XZ 22E6:??1CGXPrintPropertiesWnd@@UAE@XZ 230C:?_GetBaseMessageMap@CGXPrintPropertiesWnd@@KGPBUAFX_MSGMAP@@XZ 2316:?GetMessageMap@CGXPrintPropertiesWnd@@MBEPBUAFX_MSGMAP@@XZ 2326:?OnPaint@CGXPrintPropertiesWnd@@IAEXXZ 23A9:??0CGXHeaderFooterDialog@@QAE@PAVCGXProperties@@PAHPAVCWnd@@@Z 24FB:?DoDataExchange@CGXHeaderFooterDialog@@MAEXPAVCDataExchange@@@Z 258B:?GetTabWnd@CGXHeaderFooterDialog@@QAEAAVCGXTabWnd@@XZ 25A3:?UpdateSettings@CGXHeaderFooterDialog@@MAEXH@Z 2928:?_GetBaseMessageMap@CGXHeaderFooterDialog@@KGPBUAFX_MSGMAP@@XZ 2932:?GetMessageMap@CGXHeaderFooterDialog@@MBEPBUAFX_MSGMAP@@XZ 2942:?OnCtlColor@CGXHeaderFooterDialog@@IAEPAUHBRUSH__@@PAVCDC@@PAVCWnd@@I@Z 2963:?OnInitDialog@CGXHeaderFooterDialog@@MAEHXZ 2D9E:?OnClickedBtnFont@CGXHeaderFooterDialog@@IAEXXZ 2DC5:?OnShowWindow@CGXHeaderFooterDialog@@IAEXHI@Z 2E07:?OnClickedBtnPrinter@CGXHeaderFooterDialog@@IAEXXZ 2E94:?OnOK@CGXHeaderFooterDialog@@MAEXXZ 2EC1:?OnCancel@CGXHeaderFooterDialog@@MAEXXZ 2ED4:?DoFontDialog@CGXHeaderFooterDialog@@IAEXPAVCGXGridWnd@@@Z 31D2:?_GetBaseMessageMap@CGXHeaderFooterGrid@@KGPBUAFX_MSGMAP@@XZ 31DC:?GetMessageMap@CGXHeaderFooterGrid@@MBEPBUAFX_MSGMAP@@XZ 31EC:?OnInitCurrentCell@CGXHeaderFooterGrid@@UAEXKK@Z 323C:?OnActivateGrid@CGXHeaderFooterGrid@@UAEHH@Z 3295:?OnInitialUpdate@CGXHeaderFooterGrid@@UAEXXZ (3773: 8B)
                                  1. 15 7E78 37A9 0000:??0CGXGridLineColorBox@@QAE@XZ 0029:??1CGXGridLineColorBox@@UAE@XZ 0045:?_GetBaseMessageMap@CGXGridLineColorBox@@KGPBUAFX_MSGMAP@@XZ 004F:?GetMessageMap@CGXGridLineColorBox@@MBEPBUAFX_MSGMAP@@XZ 005F:?GetCurSel@CGXGridLineColorBox@@QBEHXZ 0070:?SetCurSel@CGXGridLineColorBox@@QAEXH@Z 0086:?OnLButtonDown@CGXGridLineColorBox@@IAEXIVCPoint@@@Z 013B:?OnPaint@CGXGridLineColorBox@@IAEXXZ 01B3:?GetButtonRect@CGXGridLineColorBox@@QBE?AVCRect@@H@Z 02F7:?HitTest@CGXGridLineColorBox@@QBEHABVCPoint@@AAH@Z 0364:?DrawColorButton@CGXGridLineColorBox@@QBEXPAVCDC@@H@Z 04D0:??0CGXDisplayPropertiesDialog@@QAE@PAVCGXProperties@@PAVCGXStylesMap@@PAHHIPAVCWnd@@@Z 05AF:?DoDataExchange@CGXDisplayPropertiesDialog@@MAEXPAVCDataExchange@@@Z 0682:?UpdateSettings@CGXDisplayPropertiesDialog@@IAEXH@Z 068F:?_GetBaseMessageMap@CGXDisplayPropertiesDialog@@KGPBUAFX_MSGMAP@@XZ 0699:?GetMessageMap@CGXDisplayPropertiesDialog@@MBEPBUAFX_MSGMAP@@XZ 06A9:?OnInitDialog@CGXDisplayPropertiesDialog@@MAEHXZ 0AE6:?OnCheckedCtl@CGXDisplayPropertiesDialog@@IAEXXZ 0B17:?OnOK@CGXDisplayPropertiesDialog@@MAEXXZ 0B61:?OnCancel@CGXDisplayPropertiesDialog@@MAEXXZ 0B97:?OnShowWindow@CGXDisplayPropertiesDialog@@IAEXHI@Z 0BD9:?OnClickedBtnPrinter@CGXDisplayPropertiesDialog@@IAEXXZ 0C66:?OnChangedColor@CGXDisplayPropertiesDialog@@IAEJIJ@Z 0CF3:?OnSelchangeIdcListcolors@CGXDisplayPropertiesDialog@@IAEXXZ 0D61:?OnNcActivate@CGXDisplayPropertiesDialog@@IAEHH@Z 0D8A:?GetStyleRowCol@CGXUserPropertyGrid@@UAEHKKAAVCGXStyle@@W4GXModifyType@@H@Z 0E97:?StoreStyleRowCol@CGXUserPropertyGrid@@UAEHKKPBVCGXStyle@@W4GXModifyType@@H@Z 0F44:?OnInitialUpdate@CGXUserPropertyGrid@@UAEXXZ 15AC:?CanSelectCurrentCell@CGXUserPropertyGrid@@UAEHHKKKK@Z 15DF:??0CGXPrintPropertiesDialog@@QAE@PAVCGXProperties@@PAVCGXStylesMap@@PAHPAVCWnd@@@Z 176B:?DoDataExchange@CGXPrintPropertiesDialog@@MAEXPAVCDataExchange@@@Z 18CF:?_GetBaseMessageMap@CGXPrintPropertiesDialog@@KGPBUAFX_MSGMAP@@XZ 18D9:?GetMessageMap@CGXPrintPropertiesDialog@@MBEPBUAFX_MSGMAP@@XZ 18E9:?UpdateSettings@CGXPrintPropertiesDialog@@IAEXH@Z 1EE2:?UpdatePreview@CGXPrintPropertiesDialog@@IAEXXZ 1F09:?OnInitDialog@CGXPrintPropertiesDialog@@MAEHXZ 2158:?OnBtnPrinter@CGXPrintPropertiesDialog@@IAEXXZ 21E5:?OnCheckedCtl@CGXPrintPropertiesDialog@@IAEXXZ 220C:?OnOK@CGXPrintPropertiesDialog@@MAEXXZ 2233:?OnDestroy@CGXPrintPropertiesDialog@@IAEXXZ 2246:?OnCancel@CGXPrintPropertiesDialog@@MAEXXZ 2259:?OnShowWindow@CGXPrintPropertiesDialog@@IAEXHI@Z 229E:??0CGXPrintPropertiesWnd@@QAE@XZ 22C7:??1CGXPrintPropertiesWnd@@UAE@XZ 22ED:?_GetBaseMessageMap@CGXPrintPropertiesWnd@@KGPBUAFX_MSGMAP@@XZ 22F7:?GetMessageMap@CGXPrintPropertiesWnd@@MBEPBUAFX_MSGMAP@@XZ 2307:?OnPaint@CGXPrintPropertiesWnd@@IAEXXZ 238A:??0CGXHeaderFooterDialog@@QAE@PAVCGXProperties@@PAHPAVCWnd@@@Z 24DC:?DoDataExchange@CGXHeaderFooterDialog@@MAEXPAVCDataExchange@@@Z 256C:?GetTabWnd@CGXHeaderFooterDialog@@QAEAAVCGXTabWnd@@XZ 2584:?UpdateSettings@CGXHeaderFooterDialog@@MAEXH@Z 28F9:?_GetBaseMessageMap@CGXHeaderFooterDialog@@KGPBUAFX_MSGMAP@@XZ 2903:?GetMessageMap@CGXHeaderFooterDialog@@MBEPBUAFX_MSGMAP@@XZ 2913:?OnCtlColor@CGXHeaderFooterDialog@@IAEPAUHBRUSH__@@PAVCDC@@PAVCWnd@@I@Z 2934:?OnInitDialog@CGXHeaderFooterDialog@@MAEHXZ 2D6F:?OnClickedBtnFont@CGXHeaderFooterDialog@@IAEXXZ 2D96:?OnShowWindow@CGXHeaderFooterDialog@@IAEXHI@Z 2DD8:?OnClickedBtnPrinter@CGXHeaderFooterDialog@@IAEXXZ 2E65:?OnOK@CGXHeaderFooterDialog@@MAEXXZ 2E92:?OnCancel@CGXHeaderFooterDialog@@MAEXXZ 2EA5:?DoFontDialog@CGXHeaderFooterDialog@@IAEXPAVCGXGridWnd@@@Z 31A3:?_GetBaseMessageMap@CGXHeaderFooterGrid@@KGPBUAFX_MSGMAP@@XZ 31AD:?GetMessageMap@CGXHeaderFooterGrid@@MBEPBUAFX_MSGMAP@@XZ 31BD:?OnInitCurrentCell@CGXHeaderFooterGrid@@UAEXKK@Z 320D:?OnActivateGrid@CGXHeaderFooterGrid@@UAEHH@Z 3266:?OnInitialUpdate@CGXHeaderFooterGrid@@UAEXXZ (3773: C3)
                                ..:
                                  0. 00 0000 0029 0000:??0CGXHeaderFooterGrid@@QAE@XZ
                              440000:
                                0. 1A C5D2 03E7 0000:??0CGXScrollTipPlugin@@QAE@PAVCGXGridCore@@@Z 0034:??1CGXScrollTipPlugin@@UAE@XZ 00AD:?GetMessageMap@CGXScrollTipPlugin@@MBEPBUAFX_MSGMAP@@XZ 00BD:?OnVScroll@CGXScrollTipPlugin@@IAEXIIPAVCScrollBar@@@Z 0200:?OnHScroll@CGXScrollTipPlugin@@IAEXIIPAVCScrollBar@@@Z 0337:?EnableScrollTips@CGXGridCore@@QAEXXZ
                              480000:
                                0. 1A A7FA 03F1 0000:??0CGXScrollTipPlugin@@QAE@PAVCGXGridCore@@@Z 0034:??1CGXScrollTipPlugin@@UAE@XZ 00AD:?_GetBaseMessageMap@CGXScrollTipPlugin@@KGPBUAFX_MSGMAP@@XZ 00B7:?GetMessageMap@CGXScrollTipPlugin@@MBEPBUAFX_MSGMAP@@XZ 00C7:?OnVScroll@CGXScrollTipPlugin@@IAEXIIPAVCScrollBar@@@Z 020A:?OnHScroll@CGXScrollTipPlugin@@IAEXIIPAVCScrollBar@@@Z 0341:?EnableScrollTips@CGXGridCore@@QAEXXZ
                        4004000000008B4DFCC701:
                          0. 00 0000 0029 0000:??0CGXDaoBlob@@QAE@XZ
                  4D:
                    0889018B4DFCE8........8B550C89:
                      0. 07 85B1 0027 0000:?GetTopLeftRowCol@CGXGridCore@@QAEXPAK0@Z
                    FC83C104E8........8B4DFC83C11C:
                      0. 01 3E9B 0040 0000:??0CGXGridExcelLikeFillImp@@QAE@XZ
                  80:
                    B40200008BE55DC3:
                      0. 00 0000 0019 0000:?GetMaxColWidth@CGXBrowserGrid@@QAEHXZ
                    C00100008BE55DC3:
                      0. 00 0000 0019 0000:?IsLockUpdate@CGXGridCore@@QAEHXZ
                  C8:
                    B8E803000099F7F98B:
                      55080FAFC28B:
                        0. 05 1E44 0025 0000:?Width_DPtoLP@CGXGridCore@@QAEJH@Z (REF 000B: ?GetFontWidth@CGXGridCore@@QAEHXZ)
                        1. 05 1E44 0025 0000:?Height_DPtoLP@CGXGridCore@@QAEJH@Z (REF 000B: ?GetFontHeight@CGXGridCore@@QAEHXZ)
                      C88B450899F7:
                        0. 07 F6F9 0027 0000:?Width_LPtoDP@CGXGridCore@@QAEHJ@Z (REF 000B: ?GetFontWidth@CGXGridCore@@QAEHXZ)
                        1. 07 F6F9 0027 0000:?Height_LPtoDP@CGXGridCore@@QAEHJ@Z (REF 000B: ?GetFontHeight@CGXGridCore@@QAEHXZ)
                    E8........:
                      50:
                        E8........83C4048B:
                          0. 03 C861 0023 (?)0000:?GetDWordValue@CGXStyle@@QBEKXZ (REF 0018: _atol)
                          1. 03 C861 0023 0000:?GetShortValue@CGXStyle@@QBEFXZ (REF 0018: _atoi)
                        FF15........83C404:
                          0. 04 A1B6 0024 (?)0000:?GetDWordValue@CGXStyle@@QBEKXZ (REF 0019: atol)
                          1. 04 A1B6 0024 0000:?GetShortValue@CGXStyle@@QBEFXZ (REF 0019: atoi)
                      8BE55DC3558BEC6AFF68:
                        0. 00 0000 4BC5 0000:?CanChangeTab@CGXGridCore@@UAEHXZ 001A:?OnTabChanged@CGXGridCore@@UAEXH@Z 013F:?OnInfoWndMoveRecord@CGXGridCore@@UAEXHJ@Z 02BC:?UpdateRecordInfoWnd@CGXGridCore@@UAEXXZ 0337:?CanActivateGrid@CGXGridCore@@UAEHH@Z 04BA:?DoGetScrollBarCtrl@CGXGridCore@@MBEPAVCScrollBar@@H@Z 0557:?OnGridPrepareDC@CGXGridCore@@UAEXPAVCDC@@PAUCPrintInfo@@@Z 068E:?OnActivateGrid@CGXGridCore@@MAEHH@Z 097B:?DoNotifyDestroy@CGXGridCore@@MAEHXZ 09C3:?DoVScroll@CGXGridCore@@MAEHIIPAVCScrollBar@@@Z 0F02:?DoHScroll@CGXGridCore@@MAEHIIPAVCScrollBar@@@Z 1441:?DoSetCursor@CGXGridCore@@MAEHPAVCWnd@@II@Z 147B:?DoMouseMove@CGXGridCore@@MAEHIVCPoint@@@Z 207A:?OnMouseMoveOver@CGXGridCore@@MAEHKKIVCPoint@@@Z 2089:?DoLButtonDown@CGXGridCore@@MAEHIVCPoint@@@Z (l)29A1:?_doButtonDown1@@YGHPAVCGXGridCore@@IVCPoint@@IAAHAAK3@Z 2A45:?DoLButtonUp@CGXGridCore@@MAEHIVCPoint@@@Z 2E39:?DoMButtonDown@CGXGridCore@@MAEHIVCPoint@@@Z (l)2FC6:?_doButtonDown@@YGHPAVCGXGridCore@@IVCPoint@@I@Z 30AE:?DoMButtonUp@CGXGridCore@@MAEHIVCPoint@@@Z (l)324F:?_doButtonUp@@YGHPAVCGXGridCore@@IVCPoint@@AAHAAK3AAG@Z 33D4:?DoRButtonDown@CGXGridCore@@MAEHIVCPoint@@@Z 3561:?DoRButtonUp@CGXGridCore@@MAEHIVCPoint@@@Z 3702:?DoLButtonDblClk@CGXGridCore@@MAEHIVCPoint@@@Z 39E2:?DoMButtonDblClk@CGXGridCore@@MAEHIVCPoint@@@Z 3C2E:?DoRButtonDblClk@CGXGridCore@@MAEHIVCPoint@@@Z 3E7A:?LockResize@CGXGridCore@@QAEXH@Z 3EA3:?DoSize@CGXGridCore@@MAEHIHH@Z 438E:?DoShowWindow@CGXGridCore@@MAEHHI@Z 43DA:?DoCtlColor@CGXGridCore@@MAEPAUHBRUSH__@@PAVCDC@@PAVCWnd@@I@Z 44DF:?DoCancelMode@CGXGridCore@@MAEHXZ 4649:?DoCommand@CGXGridCore@@MAEHIJ@Z 46A1:?OnGridWinIniChange@CGXGridCore@@MAEXPBD@Z 4710:?OnGridSysColorChange@CGXGridCore@@MAEXXZ 47AD:?DoGetDlgCode@CGXGridCore@@MAEII@Z 47C3:?DoMouseActivate@CGXGridCore@@MAEHPAVCWnd@@IIAAH@Z 4918:?OnGridSetFocus@CGXGridCore@@MAEXPAVCWnd@@@Z 49C2:?OnGridKillFocus@CGXGridCore@@MAEXPAVCWnd@@@Z 4A1F:?OnGridTimer@CGXGridCore@@MAEXI@Z 4A2C:?OnGridPreTranslateMessage@CGXGridCore@@MAEHPAUtagMSG@@@Z 4AB7:?OnGridWindowProc@CGXGridCore@@MAEHIIJAAJ@Z 4B5D:?AddPlugin@CGXGridCore@@QAEXPAVCGXPluginComponent@@@Z (4BA4: 00) (REF 03DE: PeekMessageA)
                        1. 00 0000 4BC5 0000:?CanChangeTab@CGXGridCore@@UAEHXZ 001A:?OnTabChanged@CGXGridCore@@UAEXH@Z 013F:?OnInfoWndMoveRecord@CGXGridCore@@UAEXHJ@Z 02BC:?UpdateRecordInfoWnd@CGXGridCore@@UAEXXZ 0337:?CanActivateGrid@CGXGridCore@@UAEHH@Z 04BA:?DoGetScrollBarCtrl@CGXGridCore@@MBEPAVCScrollBar@@H@Z 0557:?OnGridPrepareDC@CGXGridCore@@UAEXPAVCDC@@PAUCPrintInfo@@@Z 068E:?OnActivateGrid@CGXGridCore@@MAEHH@Z 097B:?DoNotifyDestroy@CGXGridCore@@MAEHXZ 09C3:?DoVScroll@CGXGridCore@@MAEHIIPAVCScrollBar@@@Z 0F02:?DoHScroll@CGXGridCore@@MAEHIIPAVCScrollBar@@@Z 1441:?DoSetCursor@CGXGridCore@@MAEHPAVCWnd@@II@Z 147B:?DoMouseMove@CGXGridCore@@MAEHIVCPoint@@@Z 207A:?OnMouseMoveOver@CGXGridCore@@MAEHKKIVCPoint@@@Z 2089:?DoLButtonDown@CGXGridCore@@MAEHIVCPoint@@@Z (l)29A1:?_doButtonDown1@@YGHPAVCGXGridCore@@IVCPoint@@IAAHAAK3@Z 2A45:?DoLButtonUp@CGXGridCore@@MAEHIVCPoint@@@Z 2E39:?DoMButtonDown@CGXGridCore@@MAEHIVCPoint@@@Z (l)2FC6:?_doButtonDown@@YGHPAVCGXGridCore@@IVCPoint@@I@Z 30AE:?DoMButtonUp@CGXGridCore@@MAEHIVCPoint@@@Z (l)324F:?_doButtonUp@@YGHPAVCGXGridCore@@IVCPoint@@AAHAAK3AAG@Z 33D4:?DoRButtonDown@CGXGridCore@@MAEHIVCPoint@@@Z 3561:?DoRButtonUp@CGXGridCore@@MAEHIVCPoint@@@Z 3702:?DoLButtonDblClk@CGXGridCore@@MAEHIVCPoint@@@Z 39E2:?DoMButtonDblClk@CGXGridCore@@MAEHIVCPoint@@@Z 3C2E:?DoRButtonDblClk@CGXGridCore@@MAEHIVCPoint@@@Z 3E7A:?LockResize@CGXGridCore@@QAEXH@Z 3EA3:?DoSize@CGXGridCore@@MAEHIHH@Z 438E:?DoShowWindow@CGXGridCore@@MAEHHI@Z 43DA:?DoCtlColor@CGXGridCore@@MAEPAUHBRUSH__@@PAVCDC@@PAVCWnd@@I@Z 44DF:?DoCancelMode@CGXGridCore@@MAEHXZ 4649:?DoCommand@CGXGridCore@@MAEHIJ@Z 46A1:?OnGridWinIniChange@CGXGridCore@@MAEXPBG@Z 4710:?OnGridSysColorChange@CGXGridCore@@MAEXXZ 47AD:?DoGetDlgCode@CGXGridCore@@MAEII@Z 47C3:?DoMouseActivate@CGXGridCore@@MAEHPAVCWnd@@IIAAH@Z 4918:?OnGridSetFocus@CGXGridCore@@MAEXPAVCWnd@@@Z 49C2:?OnGridKillFocus@CGXGridCore@@MAEXPAVCWnd@@@Z 4A1F:?OnGridTimer@CGXGridCore@@MAEXI@Z 4A2C:?OnGridPreTranslateMessage@CGXGridCore@@MAEHPAUtagMSG@@@Z 4AB7:?OnGridWindowProc@CGXGridCore@@MAEHIIJAAJ@Z 4B5D:?AddPlugin@CGXGridCore@@QAEXPAVCGXPluginComponent@@@Z (4BA4: 00) (REF 03DE: PeekMessageW)
                        2. 00 0000 4BD8 0000:?CanChangeTab@CGXGridCore@@UAEHXZ 001A:?OnTabChanged@CGXGridCore@@UAEXH@Z 013F:?OnInfoWndMoveRecord@CGXGridCore@@UAEXHJ@Z 02BC:?UpdateRecordInfoWnd@CGXGridCore@@UAEXXZ 0337:?CanActivateGrid@CGXGridCore@@UAEHH@Z 04BA:?DoGetScrollBarCtrl@CGXGridCore@@MBEPAVCScrollBar@@H@Z 0557:?OnGridPrepareDC@CGXGridCore@@UAEXPAVCDC@@PAUCPrintInfo@@@Z 068E:?OnActivateGrid@CGXGridCore@@MAEHH@Z 097B:?DoNotifyDestroy@CGXGridCore@@MAEHXZ 09C3:?DoVScroll@CGXGridCore@@MAEHIIPAVCScrollBar@@@Z 0F02:?DoHScroll@CGXGridCore@@MAEHIIPAVCScrollBar@@@Z 1441:?DoSetCursor@CGXGridCore@@MAEHPAVCWnd@@II@Z 147B:?DoMouseMove@CGXGridCore@@MAEHIVCPoint@@@Z 207C:?OnMouseMoveOver@CGXGridCore@@MAEHKKIVCPoint@@@Z 208B:?DoLButtonDown@CGXGridCore@@MAEHIVCPoint@@@Z (l)29A7:?_doButtonDown1@@YGHPAVCGXGridCore@@IVCPoint@@IAAHAAK3@Z 2A4B:?DoLButtonUp@CGXGridCore@@MAEHIVCPoint@@@Z 2E40:?DoMButtonDown@CGXGridCore@@MAEHIVCPoint@@@Z (l)2FCE:?_doButtonDown@@YGHPAVCGXGridCore@@IVCPoint@@I@Z 30B6:?DoMButtonUp@CGXGridCore@@MAEHIVCPoint@@@Z (l)3259:?_doButtonUp@@YGHPAVCGXGridCore@@IVCPoint@@AAHAAK3AAG@Z 33DE:?DoRButtonDown@CGXGridCore@@MAEHIVCPoint@@@Z 356C:?DoRButtonUp@CGXGridCore@@MAEHIVCPoint@@@Z 370F:?DoLButtonDblClk@CGXGridCore@@MAEHIVCPoint@@@Z 39F0:?DoMButtonDblClk@CGXGridCore@@MAEHIVCPoint@@@Z 3C3E:?DoRButtonDblClk@CGXGridCore@@MAEHIVCPoint@@@Z 3E8C:?LockResize@CGXGridCore@@QAEXH@Z 3EB5:?DoSize@CGXGridCore@@MAEHIHH@Z 43A0:?DoShowWindow@CGXGridCore@@MAEHHI@Z 43EC:?DoCtlColor@CGXGridCore@@MAEPAUHBRUSH__@@PAVCDC@@PAVCWnd@@I@Z 44F1:?DoCancelMode@CGXGridCore@@MAEHXZ 465B:?DoCommand@CGXGridCore@@MAEHIJ@Z 46B3:?OnGridWinIniChange@CGXGridCore@@MAEXPBD@Z 4722:?OnGridSysColorChange@CGXGridCore@@MAEXXZ 47BF:?DoGetDlgCode@CGXGridCore@@MAEII@Z 47D5:?DoMouseActivate@CGXGridCore@@MAEHPAVCWnd@@IIAAH@Z 492B:?OnGridSetFocus@CGXGridCore@@MAEXPAVCWnd@@@Z 49D5:?OnGridKillFocus@CGXGridCore@@MAEXPAVCWnd@@@Z 4A32:?OnGridTimer@CGXGridCore@@MAEXI@Z 4A3F:?OnGridPreTranslateMessage@CGXGridCore@@MAEHPAUtagMSG@@@Z 4ACA:?OnGridWindowProc@CGXGridCore@@MAEHIIJAAJ@Z 4B70:?AddPlugin@CGXGridCore@@QAEXPAVCGXPluginComponent@@@Z (4BA4: 8B) (REF 03DE: PeekMessageA)
                        3. 00 0000 4BD8 0000:?CanChangeTab@CGXGridCore@@UAEHXZ 001A:?OnTabChanged@CGXGridCore@@UAEXH@Z 013F:?OnInfoWndMoveRecord@CGXGridCore@@UAEXHJ@Z 02BC:?UpdateRecordInfoWnd@CGXGridCore@@UAEXXZ 0337:?CanActivateGrid@CGXGridCore@@UAEHH@Z 04BA:?DoGetScrollBarCtrl@CGXGridCore@@MBEPAVCScrollBar@@H@Z 0557:?OnGridPrepareDC@CGXGridCore@@UAEXPAVCDC@@PAUCPrintInfo@@@Z 068E:?OnActivateGrid@CGXGridCore@@MAEHH@Z 097B:?DoNotifyDestroy@CGXGridCore@@MAEHXZ 09C3:?DoVScroll@CGXGridCore@@MAEHIIPAVCScrollBar@@@Z 0F02:?DoHScroll@CGXGridCore@@MAEHIIPAVCScrollBar@@@Z 1441:?DoSetCursor@CGXGridCore@@MAEHPAVCWnd@@II@Z 147B:?DoMouseMove@CGXGridCore@@MAEHIVCPoint@@@Z 207C:?OnMouseMoveOver@CGXGridCore@@MAEHKKIVCPoint@@@Z 208B:?DoLButtonDown@CGXGridCore@@MAEHIVCPoint@@@Z (l)29A7:?_doButtonDown1@@YGHPAVCGXGridCore@@IVCPoint@@IAAHAAK3@Z 2A4B:?DoLButtonUp@CGXGridCore@@MAEHIVCPoint@@@Z 2E40:?DoMButtonDown@CGXGridCore@@MAEHIVCPoint@@@Z (l)2FCE:?_doButtonDown@@YGHPAVCGXGridCore@@IVCPoint@@I@Z 30B6:?DoMButtonUp@CGXGridCore@@MAEHIVCPoint@@@Z (l)3259:?_doButtonUp@@YGHPAVCGXGridCore@@IVCPoint@@AAHAAK3AAG@Z 33DE:?DoRButtonDown@CGXGridCore@@MAEHIVCPoint@@@Z 356C:?DoRButtonUp@CGXGridCore@@MAEHIVCPoint@@@Z 370F:?DoLButtonDblClk@CGXGridCore@@MAEHIVCPoint@@@Z 39F0:?DoMButtonDblClk@CGXGridCore@@MAEHIVCPoint@@@Z 3C3E:?DoRButtonDblClk@CGXGridCore@@MAEHIVCPoint@@@Z 3E8C:?LockResize@CGXGridCore@@QAEXH@Z 3EB5:?DoSize@CGXGridCore@@MAEHIHH@Z 43A0:?DoShowWindow@CGXGridCore@@MAEHHI@Z 43EC:?DoCtlColor@CGXGridCore@@MAEPAUHBRUSH__@@PAVCDC@@PAVCWnd@@I@Z 44F1:?DoCancelMode@CGXGridCore@@MAEHXZ 465B:?DoCommand@CGXGridCore@@MAEHIJ@Z 46B3:?OnGridWinIniChange@CGXGridCore@@MAEXPBG@Z 4722:?OnGridSysColorChange@CGXGridCore@@MAEXXZ 47BF:?DoGetDlgCode@CGXGridCore@@MAEII@Z 47D5:?DoMouseActivate@CGXGridCore@@MAEHPAVCWnd@@IIAAH@Z 492B:?OnGridSetFocus@CGXGridCore@@MAEXPAVCWnd@@@Z 49D5:?OnGridKillFocus@CGXGridCore@@MAEXPAVCWnd@@@Z 4A32:?OnGridTimer@CGXGridCore@@MAEXI@Z 4A3F:?OnGridPreTranslateMessage@CGXGridCore@@MAEHPAUtagMSG@@@Z 4ACA:?OnGridWindowProc@CGXGridCore@@MAEHIIJAAJ@Z 4B70:?AddPlugin@CGXGridCore@@QAEXPAVCGXPluginComponent@@@Z (4BA4: 8B) (REF 03DE: PeekMessageW)
                  E55DC3:
                    0. 00 0000 0013 0000:??1CCommonDialog@@UAE@XZ (REF 000B: ??1CDialog@@UAE@XZ)
                    1. 00 0000 0013 (?)0000:??B?$CTypedSimpleList@PAUCRuntimeClass@@@@QAEPAUCRuntimeClass@@XZ (REF 000B: ?GetHead@CSimpleList@@QBEPAXXZ)
                    2. 00 0000 0013 0000:??1?$CProcessLocal@UGX_SPLITTER_DATA@@@@QAE@XZ (REF 000B: ??1CProcessLocalObject@@QAE@XZ)
                    3. 00 0000 0013 0000:??C?$CProcessLocal@UGX_SPLITTER_DATA@@@@QAEPAUGX_SPLITTER_DATA@@XZ (REF 000B: ?GetData@?$CProcessLocal@UGX_SPLITTER_DATA@@@@QAEPAUGX_SPLITTER_DATA@@XZ)
                    4. 00 0000 0013 0000:?GetHead@CGXRangeList@@QAEAAPAVCGXRange@@XZ (REF 000B: ?GetHead@CPtrList@@QAEAAPAXXZ)
                    5. 00 0000 0013 0000:?GetHead@CGXRangeList@@QBEPAVCGXRange@@XZ (REF 000B: ?GetHead@CPtrList@@QBEPAXXZ)
                    6. 00 0000 0013 0000:?GetTail@CGXRangeList@@QAEAAPAVCGXRange@@XZ (REF 000B: ?GetTail@CPtrList@@QAEAAPAXXZ)
                    7. 00 0000 0013 0000:??C?$CGXProcessLocal@UGX_SCROLLTIP_STATE@@@@QAEPAUGX_SCROLLTIP_STATE@@XZ (REF 000B: ?GetData@?$CGXProcessLocal@UGX_SCROLLTIP_STATE@@@@QAEPAUGX_SCROLLTIP_STATE@@XZ)
                    8. 00 0000 0013 0000:?RemoveTail@CGXRangeList@@QAEPAVCGXRange@@XZ (REF 000B: ?RemoveTail@CPtrList@@QAEPAXXZ)
                    9. 00 0000 0013 0000:??1CGXHeaderFooterGrid@@UAE@XZ (REF 000B: ??1CGXGridWnd@@UAE@XZ)
                    10. 00 0000 0013 0000:??1CGXMapDWordToLong@@UAE@XZ (REF 000B: ??1CGXCollMapDWordToLong@@UAE@XZ)
                    11. 00 0000 0013 0000:??C?$CGXProcessLocal@UGX_INTELLI_STATE@@@@QAEPAUGX_INTELLI_STATE@@XZ (REF 000B: ?GetData@?$CGXProcessLocal@UGX_INTELLI_STATE@@@@QAEPAUGX_INTELLI_STATE@@XZ)
                    12. 00 0000 0013 0000:??1CGXMultiDocTemplate@@UAE@XZ (REF 000B: ??1CMultiDocTemplate@@UAE@XZ)
                    13. 00 0000 0013 0000:??1CGXSingleDocTemplate@@UAE@XZ (REF 000B: ??1CSingleDocTemplate@@UAE@XZ)
                    14. 00 0000 0013 0000:??1CGXCaptiveDateTimeCtrl@@UAE@XZ (REF 000B: ??1CGXBDateTimeCtrl@@UAE@XZ)
                    15. 00 0000 0013 0000:??1CGXCaptiveCurEdit@@UAE@XZ (REF 000B: ??1CGXBCurrencyEdit@@UAE@XZ)
                    16. 00 0000 0013 0000:??1CGXMapCellToOb@@UAE@XZ (REF 000B: ??1CMapNdxToOb@@UAE@XZ)
                    17. 00 0000 0013 0000:??1CGXCommandFactory@@UAE@XZ (REF 000B: ??1CGXAbstractCommandFactory@@UAE@XZ)
                    18. 00 0000 0013 0000:??1CGXCheckBoxEx@@UAE@XZ (REF 000B: ??1CGXCheckBox@@UAE@XZ)
                    19. 00 0000 0013 0000:??1CGXButton@@UAE@XZ (REF 000B: ??1CGXChild@@UAE@XZ)
                    20. 00 0000 0013 0000:??1CMDIChildWnd@@UAE@XZ (REF 000B: ??1CFrameWnd@@UAE@XZ)
                    21. 00 0000 0013 0000:??1CGXHeader@@UAE@XZ (REF 000B: ??1CGXStatic@@UAE@XZ)
                    22. 00 0000 0013 0000:??1CGXTabbedComboLBox@@UAE@XZ (REF 000B: ??1CGXComboListBox@@UAE@XZ)
                    23. 00 0000 0013 0000:??1CCheckListBox@@UAE@XZ (REF 000B: ??1CListBox@@UAE@XZ)
                    24. 00 0000 0013 0000:??1CGXDefaultWorksheetFunctions@@UAE@XZ (REF 000B: ??1CGXWorksheetFunctions@@UAE@XZ)
                    25. 00 0000 0013 0000:??C?$CGXProcessLocal@UGX_ENGINE_MEMOBJ_STATE@@@@QAEPAUGX_ENGINE_MEMOBJ_STATE@@XZ (REF 000B: ?GetData@?$CGXProcessLocal@UGX_ENGINE_MEMOBJ_STATE@@@@QAEPAUGX_ENGINE_MEMOBJ_STATE@@XZ)
                    26. 00 0000 0013 (!)0000:? (REF 000B: ??1CCommonDialog@@UAE@XZ)
                F7D81BC0408BE55DC3:
                  0. 00 0000 0018 0000:?NoPortableIsEmptyBits@STYLEBITS@CGXStyle@@QBEHXZ
            55FCB9010000008B42088B520CE8........8BE55DC3:
              0. 00 0000 001E 0000:?GetFontKey@CGXFont@@QBE_JXZ
            E55D:
              C2:
                0400:
                  0. 00 0000 000D (?)0000:?OnChar@CGXBDTGadget@@UAEXI@Z
                0800558BEC83EC08894DF88B45F88B108B4DF8FF52:
                  0. FF 85BA 3DB3 0000:?OnTestGridDimension@CGXGridCore@@UAEXKK@Z 000D:?SetRowCount@CGXGridCore@@UAEHKI@Z 0089:?SetColCount@CGXGridCore@@UAEHKI@Z 0108:?GetRowCount@CGXGridCore@@UAEKXZ 015E:?GetColCount@CGXGridCore@@UAEKXZ 01B4:?StoreRowCount@CGXGridCore@@MAEHK@Z 0279:?StoreColCount@CGXGridCore@@MAEHK@Z 033E:?UpdateChangedRowCount@CGXGridCore@@MAEXKIH@Z 04B7:?UpdateChangedColCount@CGXGridCore@@MAEXKIH@Z 0630:?SetFrozenRows@CGXGridCore@@UAEHKKIW4GXCmdType@@@Z 0715:?SetFrozenCols@CGXGridCore@@UAEHKKIW4GXCmdType@@@Z 07FA:?StoreFrozenRows@CGXGridCore@@MAEHKK@Z 0883:?StoreFrozenCols@CGXGridCore@@MAEHKK@Z 090C:?GetFrozenRows@CGXGridCore@@UAEKXZ 0958:?GetFrozenCols@CGXGridCore@@UAEKXZ 09A4:?GetHeaderRows@CGXGridCore@@UAEKXZ 09BB:?GetHeaderCols@CGXGridCore@@UAEKXZ 09D2:?IsFrozenRow@CGXGridCore@@QAEHK@Z 0A0D:?IsFrozenCol@CGXGridCore@@QAEHK@Z 0A48:?UpdateFrozenCols@CGXGridCore@@MAEXKKIH@Z 0BAA:?UpdateFrozenRows@CGXGridCore@@MAEXKKIH@Z 0CBB:?SetTopRow@CGXGridCore@@UAEXKIH@Z 0F11:?SetLeftCol@CGXGridCore@@UAEXKIH@Z 1167:?SetTopLeftRowCol@CGXGridCore@@QAEXKKI@Z 11A4:?GetClientRow@CGXGridCore@@QAEKK@Z 1229:?GetClientCol@CGXGridCore@@QAEKK@Z 12AE:?GetRow@CGXGridCore@@QAEKK@Z 131B:?GetCol@CGXGridCore@@QAEKK@Z 1388:?StoreInsertRows@CGXGridCore@@MAEHKKH@Z 15D5:?UpdateInsertRows@CGXGridCore@@MAEXKKIH@Z 17D1:?StoreInsertCols@CGXGridCore@@MAEHKKH@Z 1A3B:?UpdateInsertCols@CGXGridCore@@MAEXKKIH@Z 1C38:?InsertRows@CGXGridCore@@UAEHKKPAHPAVCObArray@@1KIW4GXCmdType@@@Z 2070:?InsertCols@CGXGridCore@@UAEHKKPAHPAVCObArray@@1KIW4GXCmdType@@@Z 24A8:?StoreRemoveRows@CGXGridCore@@MAEHKKH@Z 274C:?UpdateRemoveRows@CGXGridCore@@MAEXKKPAHIH@Z 2993:?StoreRemoveCols@CGXGridCore@@MAEHKKH@Z 2C6C:?UpdateRemoveCols@CGXGridCore@@MAEXKKPAHIH@Z 2EA7:?RemoveRows@CGXGridCore@@UAEHKKIW4GXCmdType@@@Z 335B:?RemoveCols@CGXGridCore@@UAEHKKIW4GXCmdType@@@Z 380F:?StoreMoveRows@CGXGridCore@@MAEHKKKH@Z 385E:?UpdateMoveRows@CGXGridCore@@MAEXKKKIH@Z 38AE:?StoreMoveCols@CGXGridCore@@MAEHKKKH@Z 38FE:?UpdateMoveCols@CGXGridCore@@MAEXKKKIH@Z 394E:?MoveRows@CGXGridCore@@UAEHKKKIW4GXCmdType@@@Z 39A2:?MoveCols@CGXGridCore@@UAEHKKKIW4GXCmdType@@@Z 39F6:?OnSelDragStart@CGXGridCore@@MAEHKK@Z 3A3E:?OnSelDragRowsStart@CGXGridCore@@MAEHKK@Z 3A9A:?OnSelDragColsStart@CGXGridCore@@MAEHKK@Z 3AF6:?OnSelDragMove@CGXGridCore@@MAEHKKKK@Z 3B46:?OnSelDragRowsMove@CGXGridCore@@MAEHKKK@Z 3B58:?OnSelDragColsMove@CGXGridCore@@MAEHKKK@Z 3B6A:?OnSelDragDrop@CGXGridCore@@MAEHKKKK@Z 3BBA:?OnSelDragRowsDrop@CGXGridCore@@MAEHKKK@Z 3BCC:?OnSelDragColsDrop@CGXGridCore@@MAEHKKK@Z 3BDE:?OnSelDragCancel@CGXGridCore@@MAEXXZ 3C18:?CanFreezeCols@CGXGridCore@@UAEHXZ 3C44:?CanUnfreezeCols@CGXGridCore@@UAEHXZ 3C71:?FreezeCols@CGXGridCore@@UAEXXZ 3CAB:?UnfreezeCols@CGXGridCore@@UAEXXZ 3CE5:?CanFreezeRows@CGXGridCore@@UAEHXZ 3D12:?CanUnfreezeRows@CGXGridCore@@UAEHXZ 3D3F:?FreezeRows@CGXGridCore@@UAEXXZ 3D79:?UnfreezeRows@CGXGridCore@@UAEXXZ
                0C00:
                  0. 00 0000 000D (?)0000:?OnLButtonDown@CGXBDTGadget@@UAEXIVCPoint@@@Z
              C3:
                0. 00 0000 000B (?)0000:?OnCancelMode@CGXBDTGadget@@UAEXXZ
          8D4D08E8........C1E8048BE55DC20800:
            0. 00 0000 0018 0000:?HashKey@CMapNdxToOb@@QBEIVGXNDX@@@Z
          B8........8BE55DC3558BEC:
            51894DFC:
              8B:
                45:
                  08508B4DFCE8:
                    0. 00 0000 06D6 0000:?GetControlClass@CGXHeader@@UBEPAUCGXControlClass@@XZ 0010:??0CGXHeader@@QAE@PAVCGXGridCore@@@Z 0035:?Draw@CGXHeader@@UAEXPAVCDC@@VCRect@@KKABVCGXStyle@@PBV4@@Z 06B8:?InvertBorders@CGXHeader@@UAEXPAVCDC@@ABVCRect@@@Z (02CD: 89)
                    1. 00 0000 0452 0000:?GetControlClass@CGXStatic@@UBEPAUCGXControlClass@@XZ 0010:??0CGXStatic@@QAE@PAVCGXGridCore@@@Z 0035:?GetCellRect@CGXStatic@@UAE?AVCRect@@KKPAUtagRECT@@PBVCGXStyle@@@Z 0195:?AddBorders@CGXStatic@@UAE?AVCSize@@V2@ABVCGXStyle@@@Z 0281:?Draw@CGXStatic@@UAEXPAVCDC@@VCRect@@KKABVCGXStyle@@PBV4@@Z 036B:?CalcSize@CGXStatic@@UAE?AVCSize@@PAVCDC@@KKABVCGXStyle@@PBV4@H@Z 0404:?CanFloatCell@CGXStatic@@UAEHKKABVCGXStyle@@H@Z (02CD: 45)
                    2. 00 0000 0453 0000:?GetControlClass@CGXStatic@@UBEPAUCGXControlClass@@XZ 0010:??0CGXStatic@@QAE@PAVCGXGridCore@@@Z 0035:?GetCellRect@CGXStatic@@UAE?AVCRect@@KKPAUtagRECT@@PBVCGXStyle@@@Z 0195:?AddBorders@CGXStatic@@UAE?AVCSize@@V2@ABVCGXStyle@@@Z 0281:?Draw@CGXStatic@@UAEXPAVCDC@@VCRect@@KKABVCGXStyle@@PBV4@@Z 036C:?CalcSize@CGXStatic@@UAE?AVCSize@@PAVCDC@@KKABVCGXStyle@@PBV4@H@Z 0405:?CanFloatCell@CGXStatic@@UAEHKKABVCGXStyle@@H@Z (02CD: 39)
                    3. 00 0000 02EE 0000:?GetControlClass@CGXDaoBitmap@@UBEPAUCGXControlClass@@XZ 0010:??0CGXDaoBitmap@@QAE@PAVCGXGridCore@@@Z 0035:?Draw@CGXDaoBitmap@@UAEXPAVCDC@@VCRect@@KKABVCGXStyle@@PBV4@@Z (02CD: 00)
                    4. 00 0000 02EF 0000:?GetControlClass@CGXDaoBitmap@@UBEPAUCGXControlClass@@XZ 0010:??0CGXDaoBitmap@@QAE@PAVCGXGridCore@@@Z 0035:?Draw@CGXDaoBitmap@@UAEXPAVCDC@@VCRect@@KKABVCGXStyle@@PBV4@@Z (02CD: 24)
                  14508B4D10518B:
                    0. 0B 6546 07C2 0000:?GetControlClass@CGXCheckBoxEx@@UBEPAUCGXControlClass@@XZ 0010:??0CGXCheckBoxEx@@QAE@PAVCGXGridCore@@HII@Z 0055:?GetModify@CGXCheckBoxEx@@UAEHXZ 0066:?SetModify@CGXCheckBoxEx@@UAEXH@Z 007C:?Store@CGXCheckBoxEx@@UAEHXZ 0184:?Init@CGXCheckBoxEx@@UAEXKK@Z 01B6:?Draw@CGXCheckBoxEx@@UAEXPAVCDC@@VCRect@@KKABVCGXStyle@@PBV4@@Z 025D:?LButtonDown@CGXCheckBoxEx@@UAEHIVCPoint@@I@Z 04B5:?KeyPressed@CGXCheckBoxEx@@UAEHIIII@Z 0556:?OnClickedButton@CGXCheckBoxEx@@UAEXPAVCGXChild@@@Z 077A:?SetActive@CGXCheckBoxEx@@UAEXH@Z 07B1:?IsActive@CGXCheckBoxEx@@UAEHXZ
                  FCC7400C000000:
                    0. 3A 491C 0B10 0000:?GetRuntimeClass@CGXSortInfoArray@@UBEPAUCRuntimeClass@@XZ 0010:??0CGXSortInfo@@QAE@XZ 004F:??0CGXSortInfoArray@@QAE@XZ 0096:??1CGXSortInfoArray@@UAE@XZ 0106:?SetSize@CGXSortInfoArray@@QAEXHH@Z 040B:?Append@CGXSortInfoArray@@QAEHABV1@@Z 04A0:?Copy@CGXSortInfoArray@@QAEXABV1@@Z 0519:?FreeExtra@CGXSortInfoArray@@QAEXXZ 05F3:?SetAtGrow@CGXSortInfoArray@@QAEXHUCGXSortInfo@@@Z 066D:?InsertAt@CGXSortInfoArray@@QAEXHUCGXSortInfo@@H@Z 07BE:?RemoveAt@CGXSortInfoArray@@QAEXHH@Z 08A4:?InsertAt@CGXSortInfoArray@@QAEXHPAV1@@Z 09AA:?Dump@CGXSortInfoArray@@UBEXAAVCDumpContext@@@Z 09FF:?AssertValid@CGXSortInfoArray@@UBEXXZ
                4DFC:
                  83C1:
                    04E8:
                      0. 00 0000 0FE6 0000:?GetRuntimeClass@CGXDynamicRecordset@@UBEPAUCRuntimeClass@@XZ 0010:??0CGXFieldInfo@@QAE@XZ 0046:??0CGXFieldDesc@@QAE@XZ 0066:??1CGXFieldDesc@@QAE@XZ 028F:??0CGXDynamicRecordset@@QAE@PAVCDatabase@@@Z 0318:??1CGXDynamicRecordset@@UAE@XZ 03B5:?Close@CGXDynamicRecordset@@UAEXXZ 041A:?GetDefaultConnect@CGXDynamicRecordset@@UAE?AVCString@@XZ 0479:?GetDefaultSQL@CGXDynamicRecordset@@UAE?AVCString@@XZ 04AC:?PreBindFields@CGXDynamicRecordset@@UAEXXZ 0ABB:?DoFieldExchange@CGXDynamicRecordset@@UAEXPAVCFieldExchange@@@Z 0CB4:?GetFieldData@CGXDynamicRecordset@@QAEHHAAVCString@@H@Z 0CFB:?SetFieldData@CGXDynamicRecordset@@QAEHHPBDPAVCString@@H@Z 0D46:?AssertValid@CGXDynamicRecordset@@UBEXXZ 0D59:?Dump@CGXDynamicRecordset@@UBEXAAVCDumpContext@@@Z 0D72:?SetSqlQuery@CGXDynamicRecordset@@QAEXPBD@Z 0D91:?GetSqlQuery@CGXDynamicRecordset@@QBEABVCString@@XZ 0DA4:?GetField@CGXDynamicRecordset@@QBEAAUCGXFieldDesc@@I@Z 0DF0:?SetConnectString@CGXDynamicRecordset@@QAEXPBD@Z 0E0F:?GetConnectString@CGXDynamicRecordset@@QBEABVCString@@XZ 0E22:?FillChoiceList@CGXDynamicRecordset@@QAEXAAVCString@@H@Z (0FC2: 5D)
                      1. 00 0000 1013 0000:?GetRuntimeClass@CGXDynamicRecordset@@UBEPAUCRuntimeClass@@XZ 0010:??0CGXFieldInfo@@QAE@XZ 0046:??0CGXFieldDesc@@QAE@XZ 0066:??1CGXFieldDesc@@QAE@XZ 028F:??0CGXDynamicRecordset@@QAE@PAVCDatabase@@@Z 0318:??1CGXDynamicRecordset@@UAE@XZ 03B5:?Close@CGXDynamicRecordset@@UAEXXZ 041A:?GetDefaultConnect@CGXDynamicRecordset@@UAE?AVCString@@XZ 0479:?GetDefaultSQL@CGXDynamicRecordset@@UAE?AVCString@@XZ 04AC:?PreBindFields@CGXDynamicRecordset@@UAEXXZ 0AE6:?DoFieldExchange@CGXDynamicRecordset@@UAEXPAVCFieldExchange@@@Z 0CDF:?GetFieldData@CGXDynamicRecordset@@QAEHHAAVCString@@H@Z 0D26:?SetFieldData@CGXDynamicRecordset@@QAEHHPBGPAVCString@@H@Z 0D71:?AssertValid@CGXDynamicRecordset@@UBEXXZ 0D84:?Dump@CGXDynamicRecordset@@UBEXAAVCDumpContext@@@Z 0D9D:?SetSqlQuery@CGXDynamicRecordset@@QAEXPBG@Z 0DBC:?GetSqlQuery@CGXDynamicRecordset@@QBEABVCString@@XZ 0DCF:?GetField@CGXDynamicRecordset@@QBEAAUCGXFieldDesc@@I@Z 0E1B:?SetConnectString@CGXDynamicRecordset@@QAEXPBG@Z 0E3A:?GetConnectString@CGXDynamicRecordset@@QBEABVCString@@XZ 0E4D:?FillChoiceList@CGXDynamicRecordset@@QAEXAAVCString@@H@Z (0FC2: E8)
                    08E8:
                      0. 00 0000 392E 0000:?GetRuntimeClass@CGXSplitterWnd@@UBEPAUCRuntimeClass@@XZ 0010:??0CGXInsideWndState@@QAE@XZ 0073:??1CGXInsideWndState@@QAE@XZ 00E2:??0GX_SPLITTER_DATA@@QAE@XZ 01A0:??0CGXSplitterWnd@@QAE@XZ 036A:??1CGXSplitterWnd@@UAE@XZ 0401:?GetMessageMap@CGXSplitterWnd@@MBEPBUAFX_MSGMAP@@XZ 0411:?GetSplitterBoxRect@CGXSplitterWnd@@QBE?AVCRect@@H@Z 057B:?OnDrawInsideSplitter@CGXSplitterWnd@@UAEXPAVCDC@@W4GXSplitterBoxPos@@PAUCGXInsideWndState@@@Z 0719:?StartTracking@CGXSplitterWnd@@UAEXH@Z 09F4:?StopTracking@CGXSplitterWnd@@UAEXH@Z 0A4F:?GetHitRect@CGXSplitterWnd@@UAEXHAAVCRect@@@Z 0E0E:?HitTest@CGXSplitterWnd@@UBEHVCPoint@@@Z 1145:?RecalcLayout@CGXSplitterWnd@@UAEXXZ (l)255C:?LayoutRowCol@@YGXPAUCRowColInfo@CSplitterWnd@@HHH@Z (l)2880:?DeferClientPos@@YGXPAUAFX_SIZEPARENTPARAMS@@PAVCWnd@@HHHHH@Z 2A17:?OnPaint@CGXSplitterWnd@@IAEXXZ 2D91:?OnMouseMove@CGXSplitterWnd@@IAEXIVCPoint@@@Z 34B9:?SetSplitCursor@CGXSplitterWnd@@UAEXH@Z 36BC:?OnLButtonDown@CGXSplitterWnd@@IAEXIVCPoint@@@Z 3726:?OnLButtonDblClk@CGXSplitterWnd@@IAEXIVCPoint@@@Z 391C:?OnMouseWheel@CGXSplitterWnd@@IAEHIFVCPoint@@@Z
                  E8........8B:
                    0. 04 0B2A 2654 0000:?GetRuntimeClass@CGXGridDropTargetPlugin@@UBEPAUCRuntimeClass@@XZ 0010:??0CGXGridDropTarget@@QAE@XZ 0039:??1CGXGridDropTarget@@UAE@XZ 008A:?Register@CGXGridDropTarget@@QAEHPAVCGXGridCore@@K@Z 02A3:?OnDragScroll@CGXGridDropTarget@@UAEKPAVCWnd@@KVCPoint@@@Z 02E0:?OnDragEnter@CGXGridDropTarget@@UAEKPAVCWnd@@PAVCOleDataObject@@KVCPoint@@@Z 036F:?OnDragOver@CGXGridDropTarget@@UAEKPAVCWnd@@PAVCOleDataObject@@KVCPoint@@@Z 03FE:?OnDrop@CGXGridDropTarget@@UAEHPAVCWnd@@PAVCOleDataObject@@KVCPoint@@@Z 048D:?OnDropEx@CGXGridDropTarget@@UAEKPAVCWnd@@PAVCOleDataObject@@KKVCPoint@@@Z 0520:?OnDragLeave@CGXGridDropTarget@@UAEXPAVCWnd@@@Z 0554:?AssertValid@CGXGridDropTarget@@UBEXXZ 0567:?Dump@CGXGridDropTarget@@UBEXAAVCDumpContext@@@Z 0580:??0CGXOleDataObjectProxy@@QAE@PAVCOleDataObject@@H@Z 063C:??1CGXOleDataObjectProxy@@UAE@XZ 06BB:?GetData@CGXOleDataObjectProxy@@UAEHGPAUtagSTGMEDIUM@@PAUtagFORMATETC@@@Z 06E0:?IsDataAvailable@CGXOleDataObjectProxy@@UAEHGPAUtagFORMATETC@@@Z 0701:?GetOleDataObject@CGXOleDataObjectProxy@@QBEPAVCOleDataObject@@XZ 0712:?EnableOleDropTarget@CGXGridCore@@QAEXK@Z 07CB:??0CGXGridDropTargetPlugin@@QAE@PAVCGXGridCore@@@Z 0841:??1CGXGridDropTargetPlugin@@UAE@XZ 08C4:?PlugIn@CGXGridDropTargetPlugin@@UAEHPAVCWnd@@@Z 097D:?OnGridDragScroll@CGXGridDropTargetPlugin@@UAEKPAVCGXGridCore@@KVCPoint@@@Z 09C1:?OnGridDragEnter@CGXGridDropTargetPlugin@@UAEKPAVCGXGridCore@@PAVCGXNoOleDataObjectProxy@@KVCPoint@@@Z 0B6E:?OnGridDragOver@CGXGridDropTargetPlugin@@UAEKPAVCGXGridCore@@PAVCGXNoOleDataObjectProxy@@KVCPoint@@@Z 0C0B:?OnGridDropEx@CGXGridDropTargetPlugin@@UAEKPAVCGXGridCore@@PAVCGXNoOleDataObjectProxy@@KKVCPoint@@@Z 0C28:?OnGridDragLeave@CGXGridDropTargetPlugin@@UAEXPAVCGXGridCore@@@Z 0CB5:?OnGridDrop@CGXGridDropTargetPlugin@@UAEHPAVCGXGridCore@@PAVCGXNoOleDataObjectProxy@@KVCPoint@@@Z 11BC:?OnDndDropData@CGXGridDropTargetPlugin@@UAEHPAVCGXGridCore@@PAVCGXNoOleDataObjectProxy@@KK@Z 1656:?OnDndQueryAcceptData@CGXGridDropTargetPlugin@@UAEHPAVCGXGridCore@@PAVCGXNoOleDataObjectProxy@@@Z 16F6:?OnDndCalculateFocusRect@CGXGridDropTargetPlugin@@UAEHPAVCGXGridCore@@PAVCGXNoOleDataObjectProxy@@AAK2@Z 1910:?DndDrawMoveRect@CGXGridDropTargetPlugin@@UAEXPAVCGXGridCore@@VCPoint@@HH@Z 204B:?DoDragScroll@CGXGridDropTargetPlugin@@UAEHPAVCGXGridCore@@VCPoint@@@Z 24DF:?IsOverAnotherApplication@CGXGridDropTargetPlugin@@UAEHPAVCGXGridCore@@UtagPOINT@@@Z 252E:?GetMessageMap@CGXGridDropTargetPlugin@@MBEPBUAFX_MSGMAP@@XZ 253E:?OnTimer@CGXGridDropTargetPlugin@@IAEXI@Z 25E7:?OnDestroy@CGXGridDropTargetPlugin@@IAEXXZ (0125: E8)
                    1. 04 0B2A 014B 0000:?GetRuntimeClass@CGXPluginComponent@@UBEPAUCRuntimeClass@@XZ 0010:??0CGXPluginComponent@@QAE@XZ 0043:??1CGXPluginComponent@@UAE@XZ 0069:?GetMessageMap@CGXPluginComponent@@MBEPBUAFX_MSGMAP@@XZ 0079:?PlugIn@CGXPluginComponent@@UAEHPAVCWnd@@@Z 0099:?HandleMessage@CGXPluginComponent@@QAEHIIJPAJ@Z 00D2:?DefWindowProcA@CGXPluginComponent@@MAEJIIJ@Z 00E1:?AssertValid@CGXPluginComponent@@MBEXXZ 0125:?Dump@CGXPluginComponent@@MBEXAAVCDumpContext@@@Z (0125: 04) (REF 012D: $SG94012)
                    2. 04 0B2A 014B 0000:?GetRuntimeClass@CGXPluginComponent@@UBEPAUCRuntimeClass@@XZ 0010:??0CGXPluginComponent@@QAE@XZ 0043:??1CGXPluginComponent@@UAE@XZ 0069:?GetMessageMap@CGXPluginComponent@@MBEPBUAFX_MSGMAP@@XZ 0079:?PlugIn@CGXPluginComponent@@UAEHPAVCWnd@@@Z 0099:?HandleMessage@CGXPluginComponent@@QAEHIIJPAJ@Z 00D2:?DefWindowProcW@CGXPluginComponent@@MAEJIIJ@Z 00E1:?AssertValid@CGXPluginComponent@@MBEXXZ 0125:?Dump@CGXPluginComponent@@MBEXAAVCDumpContext@@@Z (0125: 04) (REF 012D: $SG94024)
                    3. 04 0B2A 05D3 0000:?GetRuntimeClass@CGXView@@UBEPAUCRuntimeClass@@XZ 0010:??0CGXView@@IAE@XZ 0043:??1CGXView@@MAE@XZ 00C5:?OnPreparePrinting@CGXView@@MAEHPAUCPrintInfo@@@Z 0130:?OnFilePrintSetup@CGXView@@IAEXXZ 01B9:?UpdatePrinterDevice@CGXView@@IAEXPAVCGXPrintDevice@@@Z 01E3:?DoPrintDialog@CGXView@@QAEHPAVCPrintDialog@@@Z 0245:?DoPreparePrinting@CGXView@@QAEHPAUCPrintInfo@@@Z 02A6:?GetPrintDevice@CGXView@@QAEPAVCGXPrintDevice@@XZ 02B7:?SetPrintDevice@CGXView@@QAEXPAVCGXPrintDevice@@H@Z 035C:?OnModifiedPrintDevice@CGXView@@UAEXXZ 0367:?AssertValid@CGXView@@MBEXXZ 0394:?Dump@CGXView@@MBEXAAVCDumpContext@@@Z 03E4:?GetMessageMap@CGXView@@MBEPBUAFX_MSGMAP@@XZ 03F4:?OnInitialUpdate@CGXView@@MAEXXZ 0454:?GetParentSplitter@CGXView@@SGPAVCSplitterWnd@@PBVCWnd@@H@Z 046D:?GetParentDynamicSplitter@CGXView@@SGPAVCSplitterWnd@@PBVCWnd@@H@Z 04A3:?GetParentTabViewID@CGXView@@SGIPBVCWnd@@@Z 04FC:?GetScrollBarCtrl@CGXView@@UBEPAVCScrollBar@@H@Z 05A3:?OnChangedTab@CGXView@@IAEJIJ@Z 05B2:?OnNeedChangeTab@CGXView@@IAEJIJ@Z 05C4:?OnCanActivate@CGXView@@IAEJIJ@Z (0125: EC)
              B8........8BE55DC3:
                0. 1B 0244 0640 0000:?GetRuntimeClass@CGXMultiDocTemplate@@UBEPAUCRuntimeClass@@XZ 0010:?GetRuntimeClass@CGXSingleDocTemplate@@UBEPAUCRuntimeClass@@XZ 0020:??0CGXMultiDocTemplate@@QAE@IPAUCRuntimeClass@@00@Z 0051:?OpenDocumentFile@CGXMultiDocTemplate@@UAEPAVCDocument@@PBDH@Z 027F:??0CGXSingleDocTemplate@@QAE@IPAUCRuntimeClass@@00@Z 02B0:?OpenDocumentFile@CGXSingleDocTemplate@@UAEPAVCDocument@@PBDH@Z (REF 0084: $SG93996)
                1. 1B 0244 0640 0000:?GetRuntimeClass@CGXMultiDocTemplate@@UBEPAUCRuntimeClass@@XZ 0010:?GetRuntimeClass@CGXSingleDocTemplate@@UBEPAUCRuntimeClass@@XZ 0020:??0CGXMultiDocTemplate@@QAE@IPAUCRuntimeClass@@00@Z 0051:?OpenDocumentFile@CGXMultiDocTemplate@@UAEPAVCDocument@@PBGH@Z 027F:??0CGXSingleDocTemplate@@QAE@IPAUCRuntimeClass@@00@Z 02B0:?OpenDocumentFile@CGXSingleDocTemplate@@UAEPAVCDocument@@PBGH@Z (REF 0084: $SG94008)
                2. 0B 529F 40D1 0000:?GetRuntimeClass@CGXComboBoxWnd@@UBEPAUCRuntimeClass@@XZ 0010:?GetControlClass@CGXComboBoxWnd@@UBEPAUCGXControlClass@@XZ 0020:??0CGXComboEditPart@@QAE@XZ 003F:??1CGXComboEditPart@@UAE@XZ 005B:?GetMessageMap@CGXComboEditPart@@MBEPBUAFX_MSGMAP@@XZ 006B:?OnKillFocus@CGXComboEditPart@@IAEXPAVCWnd@@@Z 00F5:?OnKeyDown@CGXComboEditPart@@IAEXIII@Z 0172:??0CGXComboBoxWnd@@QAE@PAVCGXGridCore@@@Z 0300:??1CGXComboBoxWnd@@UAE@XZ 03B7:?GetWndPtr@CGXComboBoxWnd@@UBEPAVCWnd@@XZ 03C8:?Create@CGXComboBoxWnd@@QAEHKI@Z 04FE:?GetMessageMap@CGXComboBoxWnd@@MBEPBUAFX_MSGMAP@@XZ 050E:?SetActive@CGXComboBoxWnd@@UAEXH@Z 0584:?IsActive@CGXComboBoxWnd@@UAEHXZ 0598:?SetModify@CGXComboBoxWnd@@UAEXH@Z 05B1:?GetModify@CGXComboBoxWnd@@UAEHXZ 05C5:?GetCellRect@CGXComboBoxWnd@@UAE?AVCRect@@KKPAUtagRECT@@PBVCGXStyle@@@Z 0694:?AddBorders@CGXComboBoxWnd@@UAE?AVCSize@@V2@ABVCGXStyle@@@Z 06D4:?OnInitChildren@CGXComboBoxWnd@@MAEXKKABVCRect@@@Z 09A7:?Init@CGXComboBoxWnd@@UAEXKK@Z 0BA1:?GetWindowTextA@CGXComboBoxWnd@@QBEXAAVCString@@@Z 0C05:?GetCurrentText@CGXComboBoxWnd@@UAEXAAVCString@@@Z 0C35:?SetCurrentText@CGXComboBoxWnd@@UAEXABVCString@@@Z 0CDC:?ValidateString@CGXComboBoxWnd@@UAEHABVCString@@@Z 0DDD:?SetValue@CGXComboBoxWnd@@UAEXPBD@Z 0E8A:?GetValue@CGXComboBoxWnd@@UAEHAAVCString@@@Z 0F1E:?GetControlText@CGXComboBoxWnd@@UAEHAAVCString@@KKPBDABVCGXStyle@@@Z 1070:?ConvertControlTextToValue@CGXComboBoxWnd@@UAEHAAVCString@@KKPBVCGXStyle@@@Z 120D:?Store@CGXComboBoxWnd@@UAEHXZ 134F:?Draw@CGXComboBoxWnd@@UAEXPAVCDC@@VCRect@@KKABVCGXStyle@@PBV4@@Z 208E:?OnGetListboxRect@CGXComboBoxWnd@@UAE?AVCRect@@ABV2@@Z 20BA:?CalcSize@CGXComboBoxWnd@@UAE?AVCSize@@PAVCDC@@KKABVCGXStyle@@PBV4@H@Z 2362:?Hide@CGXComboBoxWnd@@UAEXXZ 23F1:?LButtonUp@CGXComboBoxWnd@@UAEHIVCPoint@@I@Z 246C:?LButtonDblClk@CGXComboBoxWnd@@UAEHIVCPoint@@@Z 24E4:?OnClickedButton@CGXComboBoxWnd@@UAEXPAVCGXChild@@@Z 2690:?SetActiveAndDropDown@CGXComboBoxWnd@@IAEXXZ 275D:?OnGridKeyDown@CGXComboBoxWnd@@UAEHIII@Z 2932:?OnGridSysKeyDown@CGXComboBoxWnd@@UAEHIII@Z 29E2:?OnGridChar@CGXComboBoxWnd@@UAEHIII@Z 2AC2:?OnGridDoubleByteChar@CGXComboBoxWnd@@UAEHABVCString@@II@Z 2E81:?FindTextA@CGXComboBoxWnd@@UAEHABUGX_FR_STATE@@KKHH@Z 31F9:?ReplaceSel@CGXComboBoxWnd@@UAEXPBD@Z 33AE:?ReplaceAll@CGXComboBoxWnd@@UAEHABUGX_FR_STATE@@KK@Z 378E:?GetSelectedText@CGXComboBoxWnd@@UAEHAAVCString@@@Z 3941:?SetCellColor@CGXComboBoxWnd@@QAEXK@Z 395A:?OnKillFocus@CGXComboBoxWnd@@IAEXPAVCWnd@@@Z 3982:?OnEraseBkgnd@CGXComboBoxWnd@@IAEHPAVCDC@@@Z 39FA:?GetEditSel@CGXComboBoxWnd@@QAEXAAH0@Z 3A75:?SetEditSel@CGXComboBoxWnd@@QAEHHH@Z 3ABD:?OnKeyDown@CGXComboBoxWnd@@MAEHIII@Z 3E35:?PreTranslateMessage@CGXComboBoxWnd@@MAEHPAUtagMSG@@@Z 3E9A:?OnCommand@CGXComboBoxWnd@@UAEHIJ@Z 4088:?OnSetfocus@CGXComboBoxWnd@@MAEXXZ 40C2:?CanFloatCell@CGXComboBoxWnd@@UAEHKKABVCGXStyle@@H@Z (40A5: 00)
                3. 0B 529F 4117 0000:?GetRuntimeClass@CGXComboBoxWnd@@UBEPAUCRuntimeClass@@XZ 0010:?GetControlClass@CGXComboBoxWnd@@UBEPAUCGXControlClass@@XZ 0020:??0CGXComboEditPart@@QAE@XZ 003F:??1CGXComboEditPart@@UAE@XZ 005B:?GetMessageMap@CGXComboEditPart@@MBEPBUAFX_MSGMAP@@XZ 006B:?OnKillFocus@CGXComboEditPart@@IAEXPAVCWnd@@@Z 00F5:?OnKeyDown@CGXComboEditPart@@IAEXIII@Z 0172:??0CGXComboBoxWnd@@QAE@PAVCGXGridCore@@@Z 0300:??1CGXComboBoxWnd@@UAE@XZ 03B7:?GetWndPtr@CGXComboBoxWnd@@UBEPAVCWnd@@XZ 03C8:?Create@CGXComboBoxWnd@@QAEHKI@Z 04FE:?GetMessageMap@CGXComboBoxWnd@@MBEPBUAFX_MSGMAP@@XZ 050E:?SetActive@CGXComboBoxWnd@@UAEXH@Z 0584:?IsActive@CGXComboBoxWnd@@UAEHXZ 0598:?SetModify@CGXComboBoxWnd@@UAEXH@Z 05B1:?GetModify@CGXComboBoxWnd@@UAEHXZ 05C5:?GetCellRect@CGXComboBoxWnd@@UAE?AVCRect@@KKPAUtagRECT@@PBVCGXStyle@@@Z 0694:?AddBorders@CGXComboBoxWnd@@UAE?AVCSize@@V2@ABVCGXStyle@@@Z 06D4:?OnInitChildren@CGXComboBoxWnd@@MAEXKKABVCRect@@@Z 09B0:?Init@CGXComboBoxWnd@@UAEXKK@Z 0BAA:?GetWindowTextW@CGXComboBoxWnd@@QBEXAAVCString@@@Z 0C0E:?GetCurrentText@CGXComboBoxWnd@@UAEXAAVCString@@@Z 0C3E:?SetCurrentText@CGXComboBoxWnd@@UAEXABVCString@@@Z 0CE5:?ValidateString@CGXComboBoxWnd@@UAEHABVCString@@@Z 0DE6:?SetValue@CGXComboBoxWnd@@UAEXPBG@Z 0E93:?GetValue@CGXComboBoxWnd@@UAEHAAVCString@@@Z 0F27:?GetControlText@CGXComboBoxWnd@@UAEHAAVCString@@KKPBGABVCGXStyle@@@Z 1079:?ConvertControlTextToValue@CGXComboBoxWnd@@UAEHAAVCString@@KKPBVCGXStyle@@@Z 1216:?Store@CGXComboBoxWnd@@UAEHXZ 1358:?Draw@CGXComboBoxWnd@@UAEXPAVCDC@@VCRect@@KKABVCGXStyle@@PBV4@@Z 20AC:?OnGetListboxRect@CGXComboBoxWnd@@UAE?AVCRect@@ABV2@@Z 20D8:?CalcSize@CGXComboBoxWnd@@UAE?AVCSize@@PAVCDC@@KKABVCGXStyle@@PBV4@H@Z 2383:?Hide@CGXComboBoxWnd@@UAEXXZ 2412:?LButtonUp@CGXComboBoxWnd@@UAEHIVCPoint@@I@Z 248D:?LButtonDblClk@CGXComboBoxWnd@@UAEHIVCPoint@@@Z 2505:?OnClickedButton@CGXComboBoxWnd@@UAEXPAVCGXChild@@@Z 26B1:?SetActiveAndDropDown@CGXComboBoxWnd@@IAEXXZ 277E:?OnGridKeyDown@CGXComboBoxWnd@@UAEHIII@Z 2953:?OnGridSysKeyDown@CGXComboBoxWnd@@UAEHIII@Z 2A03:?OnGridChar@CGXComboBoxWnd@@UAEHIII@Z 2AE5:?OnGridDoubleByteChar@CGXComboBoxWnd@@UAEHABVCString@@II@Z 2EA4:?FindTextW@CGXComboBoxWnd@@UAEHABUGX_FR_STATE@@KKHH@Z 3224:?ReplaceSel@CGXComboBoxWnd@@UAEXPBG@Z 33D9:?ReplaceAll@CGXComboBoxWnd@@UAEHABUGX_FR_STATE@@KK@Z 37D4:?GetSelectedText@CGXComboBoxWnd@@UAEHAAVCString@@@Z 3987:?SetCellColor@CGXComboBoxWnd@@QAEXK@Z 39A0:?OnKillFocus@CGXComboBoxWnd@@IAEXPAVCWnd@@@Z 39C8:?OnEraseBkgnd@CGXComboBoxWnd@@IAEHPAVCDC@@@Z 3A40:?GetEditSel@CGXComboBoxWnd@@QAEXAAH0@Z 3ABB:?SetEditSel@CGXComboBoxWnd@@QAEHHH@Z 3B03:?OnKeyDown@CGXComboBoxWnd@@MAEHIII@Z 3E7B:?PreTranslateMessage@CGXComboBoxWnd@@MAEHPAUtagMSG@@@Z 3EE0:?OnCommand@CGXComboBoxWnd@@UAEHIJ@Z 40CE:?OnSetfocus@CGXComboBoxWnd@@MAEXXZ 4108:?CanFloatCell@CGXComboBoxWnd@@UAEHKKABVCGXStyle@@H@Z (40A5: EC)
                4. 04 AA49 5FE5 0000:?GetControlClass@CGXDateTimeCtrl@@UBEPAUCGXControlClass@@XZ 0010:?GetRuntimeClass@CGXDateTimeCtrl@@UBEPAUCRuntimeClass@@XZ 0063:?SetValue@CGXCaptiveDateTimeCtrl@@IAEXPBG@Z 0169:?LayoutGadgets@CGXCaptiveDateTimeCtrl@@IAEXPAVCDC@@VCRect@@@Z 02EC:?LayoutGadgets@CGXCaptiveDateTimeCtrl@@MAEXXZ 02F7:??0CGXDateTimeCtrl@@QAE@PAVCGXGridCore@@I@Z 0457:??1CGXDateTimeCtrl@@UAE@XZ 0562:?GetWndPtr@CGXDateTimeCtrl@@UBEPAVCWnd@@XZ 0575:?AddUserAttributes@CGXDateTimeCtrl@@SGXPAVCGXStylesMap@@@Z 0855:?CreateControl@CGXDateTimeCtrl@@QAEHKPAUtagRECT@@@Z 0957:?GetMessageMap@CGXDateTimeCtrl@@MBEPBUAFX_MSGMAP@@XZ 0967:?SetFormat@CGXDateTimeCtrl@@UAEHAAVCGXBDateTimeCtrl@@ABVCGXStyle@@@Z 0AAA:?GetCellRect@CGXDateTimeCtrl@@UAE?AVCRect@@KKPAUtagRECT@@PBVCGXStyle@@@Z 0AF1:?AddBorders@CGXDateTimeCtrl@@UAE?AVCSize@@V2@ABVCGXStyle@@@Z 0B31:?Draw@CGXDateTimeCtrl@@UAEXPAVCDC@@VCRect@@KKABVCGXStyle@@PBV4@@Z 16EB:?DrawSpinGadget@CGXDateTimeCtrl@@UAEXPAVCDC@@PAVCGXDTSpinGadget@@VCRect@@@Z 17EB:?DrawNumericGadget@CGXDateTimeCtrl@@UAEXPAVCDC@@PAVCGXDTNumericGadget@@VCRect@@@Z 192A:?DrawListGadget@CGXDateTimeCtrl@@UAEXPAVCDC@@PAVCGXDTListGadget@@VCRect@@@Z 1A10:?DrawStaticGadget@CGXDateTimeCtrl@@UAEXPAVCDC@@PAVCGXDTStaticGadget@@VCRect@@@Z 1A5E:?DrawButtonGadget@CGXDateTimeCtrl@@UAEXPAVCDC@@PAVCGXDTButtonGadget@@VCRect@@@Z 1C6F:?Init@CGXDateTimeCtrl@@UAEXKK@Z 1ED1:?SetActive@CGXDateTimeCtrl@@UAEXH@Z 1EE7:?IsActive@CGXDateTimeCtrl@@UAEHXZ 1EF8:?SetModify@CGXDateTimeCtrl@@UAEXH@Z 1F0E:?GetModify@CGXDateTimeCtrl@@UAEHXZ 1F1F:?SetCurrentText@CGXDateTimeCtrl@@UAEXABVCString@@@Z 1FC7:?ValidateString@CGXDateTimeCtrl@@UAEHABVCString@@@Z 1FD9:?GetCurrentText@CGXDateTimeCtrl@@UAEXAAVCString@@@Z 20AC:?GetValue@CGXDateTimeCtrl@@UAEHAAVCString@@@Z 2195:?SetValue@CGXDateTimeCtrl@@UAEXPBG@Z 22B8:?Store@CGXDateTimeCtrl@@UAEHXZ 23B4:?GetControlText@CGXDateTimeCtrl@@UAEHAAVCString@@KKPBGABVCGXStyle@@@Z 271E:?CalcSize@CGXDateTimeCtrl@@UAE?AVCSize@@PAVCDC@@KKABVCGXStyle@@PBV4@H@Z 2A07:?ConvertControlTextToValue@CGXDateTimeCtrl@@UAEHAAVCString@@KKPBVCGXStyle@@@Z 2E14:?ParseTextWithCurrentFormat@CGXDateTimeCtrl@@UAEHABVCString@@PBVCGXStyle@@AAVCStringArray@@@Z 31EB:?Hide@CGXDateTimeCtrl@@UAEXXZ 3288:?LButtonUp@CGXDateTimeCtrl@@UAEHIVCPoint@@I@Z 33A0:?LButtonDblClk@CGXDateTimeCtrl@@UAEHIVCPoint@@@Z 3421:?PositionGadget@CGXDateTimeCtrl@@UAEXIVCPoint@@H@Z 36FC:?OnStartEditing@CGXDateTimeCtrl@@UAEHXZ 3812:?OnGridKeyDown@CGXDateTimeCtrl@@UAEHIII@Z 3C05:?OnGridChar@CGXDateTimeCtrl@@UAEHIII@Z 3CEA:?OnGridDoubleByteChar@CGXDateTimeCtrl@@UAEHABVCString@@II@Z 3E34:?OnGridSysKeyDown@CGXDateTimeCtrl@@UAEHIII@Z 3F1D:?OnKeyDown@CGXDateTimeCtrl@@MAEXIII@Z 422F:?OnChar@CGXDateTimeCtrl@@MAEXIII@Z 441C:?OnKeyUp@CGXDateTimeCtrl@@MAEXIII@Z 44A5:?OnSysKeyDown@CGXDateTimeCtrl@@MAEXIII@Z 453D:?OnSysChar@CGXDateTimeCtrl@@MAEXIII@Z 4598:?OnSysKeyUp@CGXDateTimeCtrl@@MAEXIII@Z 45F3:?OnLButtonUp@CGXDateTimeCtrl@@IAEXIVCPoint@@@Z 4670:?FindTextW@CGXDateTimeCtrl@@UAEHABUGX_FR_STATE@@KKHH@Z 4E75:?ReplaceSel@CGXDateTimeCtrl@@UAEXPBG@Z 4E9C:?ReplaceAll@CGXDateTimeCtrl@@UAEHABUGX_FR_STATE@@KK@Z 5724:?GetSelectedText@CGXDateTimeCtrl@@UAEHAAVCString@@@Z 5844:?OnKillFocus@CGXDateTimeCtrl@@IAEXPAVCWnd@@@Z 586F:?OnEraseBkgnd@CGXDateTimeCtrl@@IAEHPAVCDC@@@Z 592A:?OnShowWindow@CGXDateTimeCtrl@@IAEXHI@Z 5947:?OnSetFocus@CGXDateTimeCtrl@@IAEXPAVCWnd@@@Z 596D:?CanCopy@CGXDateTimeCtrl@@UAEHXZ 5980:?Copy@CGXDateTimeCtrl@@UAEHXZ 59F9:?CanCut@CGXDateTimeCtrl@@UAEHXZ 5A0C:?Cut@CGXDateTimeCtrl@@UAEHXZ 5A1F:?CanPaste@CGXDateTimeCtrl@@UAEHXZ 5ACC:?Paste@CGXDateTimeCtrl@@UAEHXZ 5BC9:?OnValidate@CGXDateTimeCtrl@@UAEHXZ 5C12:?CanFloatCell@CGXDateTimeCtrl@@UAEHKKABVCGXStyle@@H@Z 5C21:?OnChanging@CGXDateTimeCtrl@@UAEHABVCOleDateTime@@@Z 5CAD:?OnChanged@CGXDateTimeCtrl@@UAEXXZ 5CFE:?GetSortKey@CGXDateTimeCtrl@@UAEXKKABUCGXSortInfo@@ABVCGXStyle@@AAVCString@@@Z 5D94:?StoreStyle@CGXDateTimeCtrl@@UAEHKKPBVCGXStyle@@W4GXModifyType@@H0@Z (5F3D: F4)
                5. 04 AA49 5F62 0000:?GetControlClass@CGXDateTimeCtrl@@UBEPAUCGXControlClass@@XZ 0010:?GetRuntimeClass@CGXDateTimeCtrl@@UBEPAUCRuntimeClass@@XZ 0063:?SetValue@CGXCaptiveDateTimeCtrl@@IAEXPBD@Z 016C:?LayoutGadgets@CGXCaptiveDateTimeCtrl@@IAEXPAVCDC@@VCRect@@@Z 02EF:?LayoutGadgets@CGXCaptiveDateTimeCtrl@@MAEXXZ 02FA:??0CGXDateTimeCtrl@@QAE@PAVCGXGridCore@@I@Z 045A:??1CGXDateTimeCtrl@@UAE@XZ 0565:?GetWndPtr@CGXDateTimeCtrl@@UBEPAVCWnd@@XZ 0578:?AddUserAttributes@CGXDateTimeCtrl@@SGXPAVCGXStylesMap@@@Z 0858:?CreateControl@CGXDateTimeCtrl@@QAEHKPAUtagRECT@@@Z 095A:?GetMessageMap@CGXDateTimeCtrl@@MBEPBUAFX_MSGMAP@@XZ 096A:?SetFormat@CGXDateTimeCtrl@@UAEHAAVCGXBDateTimeCtrl@@ABVCGXStyle@@@Z 0AAD:?GetCellRect@CGXDateTimeCtrl@@UAE?AVCRect@@KKPAUtagRECT@@PBVCGXStyle@@@Z 0AF4:?AddBorders@CGXDateTimeCtrl@@UAE?AVCSize@@V2@ABVCGXStyle@@@Z 0B34:?Draw@CGXDateTimeCtrl@@UAEXPAVCDC@@VCRect@@KKABVCGXStyle@@PBV4@@Z 16D3:?DrawSpinGadget@CGXDateTimeCtrl@@UAEXPAVCDC@@PAVCGXDTSpinGadget@@VCRect@@@Z 17D3:?DrawNumericGadget@CGXDateTimeCtrl@@UAEXPAVCDC@@PAVCGXDTNumericGadget@@VCRect@@@Z 1912:?DrawListGadget@CGXDateTimeCtrl@@UAEXPAVCDC@@PAVCGXDTListGadget@@VCRect@@@Z 19F8:?DrawStaticGadget@CGXDateTimeCtrl@@UAEXPAVCDC@@PAVCGXDTStaticGadget@@VCRect@@@Z 1A46:?DrawButtonGadget@CGXDateTimeCtrl@@UAEXPAVCDC@@PAVCGXDTButtonGadget@@VCRect@@@Z 1C57:?Init@CGXDateTimeCtrl@@UAEXKK@Z 1EB9:?SetActive@CGXDateTimeCtrl@@UAEXH@Z 1ECF:?IsActive@CGXDateTimeCtrl@@UAEHXZ 1EE0:?SetModify@CGXDateTimeCtrl@@UAEXH@Z 1EF6:?GetModify@CGXDateTimeCtrl@@UAEHXZ 1F07:?SetCurrentText@CGXDateTimeCtrl@@UAEXABVCString@@@Z 1FAF:?ValidateString@CGXDateTimeCtrl@@UAEHABVCString@@@Z 1FC1:?GetCurrentText@CGXDateTimeCtrl@@UAEXAAVCString@@@Z 2094:?GetValue@CGXDateTimeCtrl@@UAEHAAVCString@@@Z 217D:?SetValue@CGXDateTimeCtrl@@UAEXPBD@Z 22A3:?Store@CGXDateTimeCtrl@@UAEHXZ 239F:?GetControlText@CGXDateTimeCtrl@@UAEHAAVCString@@KKPBDABVCGXStyle@@@Z 26E2:?CalcSize@CGXDateTimeCtrl@@UAE?AVCSize@@PAVCDC@@KKABVCGXStyle@@PBV4@H@Z 29A7:?ConvertControlTextToValue@CGXDateTimeCtrl@@UAEHAAVCString@@KKPBVCGXStyle@@@Z 2DB4:?ParseTextWithCurrentFormat@CGXDateTimeCtrl@@UAEHABVCString@@PBVCGXStyle@@AAVCStringArray@@@Z 3155:?Hide@CGXDateTimeCtrl@@UAEXXZ 31F2:?LButtonUp@CGXDateTimeCtrl@@UAEHIVCPoint@@I@Z 330A:?LButtonDblClk@CGXDateTimeCtrl@@UAEHIVCPoint@@@Z 338B:?PositionGadget@CGXDateTimeCtrl@@UAEXIVCPoint@@H@Z 3666:?OnStartEditing@CGXDateTimeCtrl@@UAEHXZ 377C:?OnGridKeyDown@CGXDateTimeCtrl@@UAEHIII@Z 3B6F:?OnGridChar@CGXDateTimeCtrl@@UAEHIII@Z 3C52:?OnGridDoubleByteChar@CGXDateTimeCtrl@@UAEHABVCString@@II@Z 3D9A:?OnGridSysKeyDown@CGXDateTimeCtrl@@UAEHIII@Z 3E83:?OnKeyDown@CGXDateTimeCtrl@@MAEXIII@Z 4195:?OnChar@CGXDateTimeCtrl@@MAEXIII@Z 4382:?OnKeyUp@CGXDateTimeCtrl@@MAEXIII@Z 440B:?OnSysKeyDown@CGXDateTimeCtrl@@MAEXIII@Z 44A3:?OnSysChar@CGXDateTimeCtrl@@MAEXIII@Z 44FE:?OnSysKeyUp@CGXDateTimeCtrl@@MAEXIII@Z 4559:?OnLButtonUp@CGXDateTimeCtrl@@IAEXIVCPoint@@@Z 45D6:?FindTextA@CGXDateTimeCtrl@@UAEHABUGX_FR_STATE@@KKHH@Z 4DDE:?ReplaceSel@CGXDateTimeCtrl@@UAEXPBD@Z 4E05:?ReplaceAll@CGXDateTimeCtrl@@UAEHABUGX_FR_STATE@@KK@Z 5690:?GetSelectedText@CGXDateTimeCtrl@@UAEHAAVCString@@@Z 57B0:?OnKillFocus@CGXDateTimeCtrl@@IAEXPAVCWnd@@@Z 57DB:?OnEraseBkgnd@CGXDateTimeCtrl@@IAEHPAVCDC@@@Z 5896:?OnShowWindow@CGXDateTimeCtrl@@IAEXHI@Z 58B3:?OnSetFocus@CGXDateTimeCtrl@@IAEXPAVCWnd@@@Z 58D9:?CanCopy@CGXDateTimeCtrl@@UAEHXZ 58EC:?Copy@CGXDateTimeCtrl@@UAEHXZ 5965:?CanCut@CGXDateTimeCtrl@@UAEHXZ 5978:?Cut@CGXDateTimeCtrl@@UAEHXZ 598B:?CanPaste@CGXDateTimeCtrl@@UAEHXZ 5A38:?Paste@CGXDateTimeCtrl@@UAEHXZ 5B46:?OnValidate@CGXDateTimeCtrl@@UAEHXZ 5B8F:?CanFloatCell@CGXDateTimeCtrl@@UAEHKKABVCGXStyle@@H@Z 5B9E:?OnChanging@CGXDateTimeCtrl@@UAEHABVCOleDateTime@@@Z 5C2A:?OnChanged@CGXDateTimeCtrl@@UAEXXZ 5C7B:?GetSortKey@CGXDateTimeCtrl@@UAEXKKABUCGXSortInfo@@ABVCGXStyle@@AAVCString@@@Z 5D11:?StoreStyle@CGXDateTimeCtrl@@UAEHKKPBVCGXStyle@@W4GXModifyType@@H0@Z (5F3D: 00)
                6. 08 AAD6 28FC 0000:?GetControlClass@CGXComboBox@@UBEPAUCGXControlClass@@XZ 0010:?GetRuntimeClass@CGXComboBox@@UBEPAUCRuntimeClass@@XZ 0020:?GetRuntimeClass@CGXComboListBox@@UBEPAUCRuntimeClass@@XZ 0030:??0CGXComboListBox@@QAE@PAVCWnd@@@Z 0082:?Create@CGXComboListBox@@QAEXKABUtagRECT@@PAVCWnd@@I@Z 00DE:??1CGXComboListBox@@UAE@XZ 00FA:?GetMessageMap@CGXComboListBox@@MBEPBUAFX_MSGMAP@@XZ 010A:?OnKeyDown@CGXComboListBox@@IAEXIII@Z 016F:?OnLButtonDown@CGXComboListBox@@IAEXIVCPoint@@@Z 01A8:?OnLButtonUp@CGXComboListBox@@IAEXIVCPoint@@@Z 01F3:?OnEraseBkgnd@CGXComboListBox@@IAEHPAVCDC@@@Z 0277:?OnKeyUp@CGXComboListBox@@IAEXIII@Z 035D:?OnKillFocus@CGXComboListBox@@IAEXPAVCWnd@@@Z 0393:?OnSysKeyUp@CGXComboListBox@@IAEXIII@Z 03D9:?OnSysKeyDown@CGXComboListBox@@IAEXIII@Z 0404:??0CGXComboBox@@QAE@PAVCGXGridCore@@III@Z 05BB:??1CGXComboBox@@UAE@XZ 0691:?Init@CGXComboBox@@UAEXKK@Z 06E4:?OnNotifyMsg@CGXComboBox@@UAEXPAUtagMSG@@@Z 0729:?Reset@CGXComboBox@@UAEXXZ 0750:?SetActive@CGXComboBox@@UAEXH@Z 0799:?GetMessageMap@CGXComboBox@@MBEPBUAFX_MSGMAP@@XZ 07A9:?GetCellRect@CGXComboBox@@UAE?AVCRect@@KKPAUtagRECT@@PBVCGXStyle@@@Z 0846:?AddBorders@CGXComboBox@@UAE?AVCSize@@V2@ABVCGXStyle@@@Z 0886:?OnInitChildren@CGXComboBox@@MAEXKKABVCRect@@@Z 0B78:?CalcSize@CGXComboBox@@UAE?AVCSize@@PAVCDC@@KKABVCGXStyle@@PBV4@H@Z 0DC0:?GetValue@CGXComboBox@@UAEHAAVCString@@@Z 0F26:?GetControlText@CGXComboBox@@UAEHAAVCString@@KKPBGABVCGXStyle@@@Z 1087:?ConvertControlTextToValue@CGXComboBox@@UAEHAAVCString@@KKPBVCGXStyle@@@Z 1239:?Store@CGXComboBox@@UAEHXZ 124C:?ValidateString@CGXComboBox@@UAEHABVCString@@@Z 135E:?ReplaceSel@CGXComboBox@@UAEXPBG@Z 13B1:?MouseActivate@CGXComboBox@@UAEHPAVCWnd@@IIAAH@Z 1410:?OnGridSysKeyDown@CGXComboBox@@UAEHIII@Z 14C7:?OnGridChar@CGXComboBox@@UAEHIII@Z 15AB:?OnSysKeyDown@CGXComboBox@@IAEXIII@Z 163B:?OnClickedButton@CGXComboBox@@MAEXPAVCGXChild@@@Z 16C8:?GetDroppedState@CGXComboBox@@UAEHXZ 16E4:?ShowDropDown@CGXComboBox@@UAEXH@Z 1D78:?OnGetListboxRect@CGXComboBox@@MAE?AVCRect@@ABV2@@Z 1DE1:?CreateDropDown@CGXComboBox@@UAEPAVCGXGridCombo@@PAVCWnd@@ABVCRect@@@Z 1E60:?CreateListBox@CGXComboBox@@UAEPAVCWnd@@PAV2@I@Z 1F3A:?OnFillDroppedList@CGXComboBox@@MAEXPAVCListBox@@@Z 2153:?OnStoreDroppedList@CGXComboBox@@MAEXPAVCListBox@@@Z 22A1:?OnListBoxEnd@CGXComboBox@@IAEJIJ@Z 2405:?DestroyDropDownWnd@CGXComboBox@@MAEXPAVCWnd@@@Z 245E:?OnListBoxCancel@CGXComboBox@@IAEJIJ@Z 25AD:?OnListBoxChanged@CGXComboBox@@IAEJIJ@Z 25FE:?OnListBoxKillFocus@CGXComboBox@@IAEJIJ@Z 26AD:?OnSetFocus@CGXComboBox@@IAEXPAVCWnd@@@Z 26E9:?Draw@CGXComboBox@@UAEXPAVCDC@@VCRect@@KKABVCGXStyle@@PBV4@@Z 28ED:?CanFloatCell@CGXComboBox@@UAEHKKABVCGXStyle@@H@Z (062C: 00)
                7. 08 AAD6 2906 0000:?GetControlClass@CGXComboBox@@UBEPAUCGXControlClass@@XZ 0010:?GetRuntimeClass@CGXComboBox@@UBEPAUCRuntimeClass@@XZ 0020:?GetRuntimeClass@CGXComboListBox@@UBEPAUCRuntimeClass@@XZ 0030:??0CGXComboListBox@@QAE@PAVCWnd@@@Z 0082:?Create@CGXComboListBox@@QAEXKABUtagRECT@@PAVCWnd@@I@Z 00DE:??1CGXComboListBox@@UAE@XZ 00FA:?GetMessageMap@CGXComboListBox@@MBEPBUAFX_MSGMAP@@XZ 010A:?OnKeyDown@CGXComboListBox@@IAEXIII@Z 0174:?OnLButtonDown@CGXComboListBox@@IAEXIVCPoint@@@Z 01AD:?OnLButtonUp@CGXComboListBox@@IAEXIVCPoint@@@Z 01F8:?OnEraseBkgnd@CGXComboListBox@@IAEHPAVCDC@@@Z 027C:?OnKeyUp@CGXComboListBox@@IAEXIII@Z 0362:?OnKillFocus@CGXComboListBox@@IAEXPAVCWnd@@@Z 0398:?OnSysKeyUp@CGXComboListBox@@IAEXIII@Z 03DE:?OnSysKeyDown@CGXComboListBox@@IAEXIII@Z 0409:??0CGXComboBox@@QAE@PAVCGXGridCore@@III@Z 05C0:??1CGXComboBox@@UAE@XZ 0696:?Init@CGXComboBox@@UAEXKK@Z 06E9:?OnNotifyMsg@CGXComboBox@@UAEXPAUtagMSG@@@Z 072E:?Reset@CGXComboBox@@UAEXXZ 0755:?SetActive@CGXComboBox@@UAEXH@Z 079E:?GetMessageMap@CGXComboBox@@MBEPBUAFX_MSGMAP@@XZ 07AE:?GetCellRect@CGXComboBox@@UAE?AVCRect@@KKPAUtagRECT@@PBVCGXStyle@@@Z 084B:?AddBorders@CGXComboBox@@UAE?AVCSize@@V2@ABVCGXStyle@@@Z 088B:?OnInitChildren@CGXComboBox@@MAEXKKABVCRect@@@Z 0B74:?CalcSize@CGXComboBox@@UAE?AVCSize@@PAVCDC@@KKABVCGXStyle@@PBV4@H@Z 0DB9:?GetValue@CGXComboBox@@UAEHAAVCString@@@Z 0F1F:?GetControlText@CGXComboBox@@UAEHAAVCString@@KKPBDABVCGXStyle@@@Z 1080:?ConvertControlTextToValue@CGXComboBox@@UAEHAAVCString@@KKPBVCGXStyle@@@Z 1232:?Store@CGXComboBox@@UAEHXZ 1245:?ValidateString@CGXComboBox@@UAEHABVCString@@@Z 1357:?ReplaceSel@CGXComboBox@@UAEXPBD@Z 13AA:?MouseActivate@CGXComboBox@@UAEHPAVCWnd@@IIAAH@Z 1409:?OnGridSysKeyDown@CGXComboBox@@UAEHIII@Z 14C0:?OnGridChar@CGXComboBox@@UAEHIII@Z 15A3:?OnSysKeyDown@CGXComboBox@@IAEXIII@Z 1633:?OnClickedButton@CGXComboBox@@MAEXPAVCGXChild@@@Z 16C0:?GetDroppedState@CGXComboBox@@UAEHXZ 16DC:?ShowDropDown@CGXComboBox@@UAEXH@Z 1D82:?OnGetListboxRect@CGXComboBox@@MAE?AVCRect@@ABV2@@Z 1DEB:?CreateDropDown@CGXComboBox@@UAEPAVCGXGridCombo@@PAVCWnd@@ABVCRect@@@Z 1E6A:?CreateListBox@CGXComboBox@@UAEPAVCWnd@@PAV2@I@Z 1F44:?OnFillDroppedList@CGXComboBox@@MAEXPAVCListBox@@@Z 215D:?OnStoreDroppedList@CGXComboBox@@MAEXPAVCListBox@@@Z 22AB:?OnListBoxEnd@CGXComboBox@@IAEJIJ@Z 240F:?DestroyDropDownWnd@CGXComboBox@@MAEXPAVCWnd@@@Z 2468:?OnListBoxCancel@CGXComboBox@@IAEJIJ@Z 25B7:?OnListBoxChanged@CGXComboBox@@IAEJIJ@Z 2608:?OnListBoxKillFocus@CGXComboBox@@IAEJIJ@Z 26B7:?OnSetFocus@CGXComboBox@@IAEXPAVCWnd@@@Z 26F3:?Draw@CGXComboBox@@UAEXPAVCDC@@VCRect@@KKABVCGXStyle@@PBV4@@Z 28F7:?CanFloatCell@CGXComboBox@@UAEHKKABVCGXStyle@@H@Z (062C: 45)
                8. 08 AAD6 0C40 0000:?GetControlClass@CGXCheckListComboBox@@UBEPAUCGXControlClass@@XZ 0010:?GetRuntimeClass@CGXCheckListComboBox@@UBEPAUCRuntimeClass@@XZ 0020:?GetRuntimeClass@CGXCheckListComboLBox@@UBEPAUCRuntimeClass@@XZ 0030:??0CGXCheckListComboLBox@@QAE@PAVCWnd@@@Z 0078:?Create@CGXCheckListComboLBox@@QAEXKABUtagRECT@@PAVCWnd@@I@Z 00CA:??1CGXCheckListComboLBox@@UAE@XZ 00E6:?GetMessageMap@CGXCheckListComboLBox@@MBEPBUAFX_MSGMAP@@XZ 00F6:?OnKeyDown@CGXCheckListComboLBox@@IAEXIII@Z 0142:?OnLButtonDown@CGXCheckListComboLBox@@IAEXIVCPoint@@@Z 017B:?OnLButtonUp@CGXCheckListComboLBox@@IAEXIVCPoint@@@Z 01A6:?OnEraseBkgnd@CGXCheckListComboLBox@@IAEHPAVCDC@@@Z 022A:?OnProcessChar@CGXCheckListComboBox@@UAEHIII@Z 0247:?CalcEditStyle@CGXCheckListComboBox@@UAEKPAUtagRECT@@AAH@Z 026F:?OnKeyUp@CGXCheckListComboLBox@@IAEXIII@Z 031D:?OnKillFocus@CGXCheckListComboLBox@@IAEXPAVCWnd@@@Z 0353:?OnSysKeyUp@CGXCheckListComboLBox@@IAEXIII@Z 0399:?OnSysKeyDown@CGXCheckListComboLBox@@IAEXIII@Z 03C4:??0CGXCheckListComboBox@@QAE@PAVCGXGridCore@@II@Z 03FD:??1CGXCheckListComboBox@@UAE@XZ 0423:?GetMessageMap@CGXCheckListComboBox@@MBEPBUAFX_MSGMAP@@XZ 0433:?GetControlText@CGXCheckListComboBox@@UAEHAAVCString@@KKPBGABVCGXStyle@@@Z 04BA:?CreateListBox@CGXCheckListComboBox@@UAEPAVCWnd@@PAV2@I@Z 0594:?OnFillDroppedList@CGXCheckListComboBox@@UAEXPAVCListBox@@@Z 074C:?OnStoreDroppedList@CGXCheckListComboBox@@UAEXPAVCListBox@@@Z 091B:?OnListBoxEnd@CGXCheckListComboBox@@IAEJIJ@Z 0A58:?OnListBoxCancel@CGXCheckListComboBox@@IAEJIJ@Z 0A75:?OnListBoxChanged@CGXCheckListComboBox@@IAEJIJ@Z 0A84:?OnListBoxKillFocus@CGXCheckListComboBox@@IAEJIJ@Z 0AD8:?KeyPressed@CGXCheckListComboBox@@UAEHIIII@Z 0B0A:?OnSetFocus@CGXCheckListComboBox@@IAEXPAVCWnd@@@Z 0B32:?Draw@CGXCheckListComboBox@@UAEXPAVCDC@@VCRect@@KKABVCGXStyle@@PBV4@@Z 0C0E:?LButtonUp@CGXCheckListComboBox@@UAEHIVCPoint@@I@Z 0C33:?SetActive@CGXCheckListComboBox@@UAEXH@Z (062C: 8B)
                9. 08 AAD6 7863 0000:?GetRuntimeClass@CGXBDTListGadget@@UBEPAUCRuntimeClass@@XZ 0010:?GetRuntimeClass@CGXBDTSpinGadget@@UBEPAUCRuntimeClass@@XZ 0020:?GetRuntimeClass@CGXBDTButtonGadget@@UBEPAUCRuntimeClass@@XZ 0030:?GetRuntimeClass@CGXBDTStaticGadget@@UBEPAUCRuntimeClass@@XZ 0040:?GetRuntimeClass@CGXBDTNumericGadget@@UBEPAUCRuntimeClass@@XZ 0093:?GetRuntimeClass@CGXBDateTimeCtrl@@UBEPAUCRuntimeClass@@XZ 00A3:?GetMessageMap@CGXBDateTimeCtrl@@MBEPBUAFX_MSGMAP@@XZ 00B3:??0CGXBDateTimeCtrl@@QAE@XZ 0290:??1CGXBDateTimeCtrl@@UAE@XZ 0375:?CreateEx@CGXBDateTimeCtrl@@QAEHKKABUtagRECT@@PAVCWnd@@IPAUCCreateContext@@@Z 0600:?Create@CGXBDateTimeCtrl@@QAEHKABUtagRECT@@PAVCWnd@@IPAUCCreateContext@@@Z 062B:?OnCreatePopupCalendar@CGXBDateTimeCtrl@@MAEXXZ 06A8:?InvalidateGadget@CGXBDateTimeCtrl@@QAEXPAVCGXBDTGadget@@H@Z 071C:?InvalidateGadget@CGXBDateTimeCtrl@@QAEXHH@Z 074A:?GadgetFromPoint@CGXBDateTimeCtrl@@QAEHVCPoint@@@Z 08A2:?BringIntoView@CGXBDateTimeCtrl@@QAEXPAVCGXBDTGadget@@@Z 09BC:?BringIntoView@CGXBDateTimeCtrl@@QAEXH@Z 09E6:?SetFormat@CGXBDateTimeCtrl@@QAEXW4FormatType@1@@Z 0A35:?SetFormat@CGXBDateTimeCtrl@@QAEXPBG@Z 0A63:?GetFormat@CGXBDateTimeCtrl@@QBEXAAW4FormatType@1@@Z 0A7B:?GetFormat@CGXBDateTimeCtrl@@QBEXAAVCString@@@Z 0B15:?SizeToContent@CGXBDateTimeCtrl@@QAEXXZ 0C96:?EnableFastEntry@CGXBDateTimeCtrl@@QAEXH@Z 0CAC:?IsFastEntryEnabled@CGXBDateTimeCtrl@@UBEHXZ 0CBD:?IsFocusOnRightMostGadget@CGXBDateTimeCtrl@@QBEHXZ 0D1D:?IsFocusOnLeftMostGadget@CGXBDateTimeCtrl@@QBEHXZ 0D70:?SetModified@CGXBDateTimeCtrl@@QAEXH@Z 0DA3:?SetModified@CGXBDateTimeCtrl@@QAEXHH@Z 0DFC:?IsModified@CGXBDateTimeCtrl@@QBEHXZ 0E16:?IsModified@CGXBDateTimeCtrl@@QBEXAAH0@Z 0E4B:?IsEditing@CGXBDateTimeCtrl@@QBEHXZ 0E65:?SetDateTime@CGXBDateTimeCtrl@@QAEHABVCOleDateTime@@@Z 0ED9:?SetDate@CGXBDateTimeCtrl@@QAEHABVCOleDateTime@@@Z 0FA9:?SetTime@CGXBDateTimeCtrl@@QAEHABVCOleDateTime@@@Z 1079:?GetDateTime@CGXBDateTimeCtrl@@QBEABVCOleDateTime@@XZ 108A:?SetMinMax@CGXBDateTimeCtrl@@QAEHABVCOleDateTime@@0W4ValidationMode@1@@Z 1354:?GetMinMax@CGXBDateTimeCtrl@@QBE?AW4ValidationMode@1@AAVCOleDateTime@@0@Z 1385:?Validate@CGXBDateTimeCtrl@@QBEHABVCOleDateTime@@@Z 1529:?GetNoEdit@CGXBDateTimeCtrl@@QBEHXZ 153A:?SetNoEdit@CGXBDateTimeCtrl@@QAEXH@Z 1561:?OnChanging@CGXBDateTimeCtrl@@UAEHABVCOleDateTime@@@Z 1573:?OnChanged@CGXBDateTimeCtrl@@UAEXXZ 15BD:?LayoutGadgets@CGXBDateTimeCtrl@@MAEXXZ 178D:?Draw@CGXBDateTimeCtrl@@MAEXAAVCDC@@@Z 1997:?AdvanceGadget@CGXBDateTimeCtrl@@IAEXXZ 1A5A:?RetreatGadget@CGXBDateTimeCtrl@@IAEXXZ 1B10:?SpinnerEvent@CGXBDateTimeCtrl@@IAEHIHJ@Z 1B6A:?PopupCalendar@CGXBDateTimeCtrl@@MAEHIHJ@Z 1D46:?UpdateGadgets@CGXBDateTimeCtrl@@IAEXI@Z 1F9F:?UpdateGadgets@CGXBDateTimeCtrl@@IAEXABVCOleDateTime@@@Z 20AF:?Validate@CGXBDateTimeCtrl@@MBEHAAVCOleDateTime@@H@Z 23B9:?OnNotify@CGXBDateTimeCtrl@@MAEHIHJ@Z 248B:?CaptureMouse@CGXBDateTimeCtrl@@IAEXPAVCGXBDTGadget@@H@Z 2532:?ResetGadgets@CGXBDateTimeCtrl@@IAEXXZ 25EB:?Tidy@CGXBDateTimeCtrl@@IAEXXZ 2671:?OnPaint@CGXBDateTimeCtrl@@IAEXXZ 28E7:?OnSetFocus@CGXBDateTimeCtrl@@IAEXPAVCWnd@@@Z 2A91:?OnKillFocus@CGXBDateTimeCtrl@@IAEXPAVCWnd@@@Z 2AE5:?OnChar@CGXBDateTimeCtrl@@IAEXIII@Z 2C53:?OnKeyDown@CGXBDateTimeCtrl@@IAEXIII@Z 2E97:?OnSysKeyDown@CGXBDateTimeCtrl@@IAEXIII@Z 2EF5:?OnGetDlgCode@CGXBDateTimeCtrl@@IAEIXZ 2F05:?OnLButtonDown@CGXBDateTimeCtrl@@IAEXIVCPoint@@@Z 30AA:?OnLButtonUp@CGXBDateTimeCtrl@@IAEXIVCPoint@@@Z 3139:?OnMouseMove@CGXBDateTimeCtrl@@IAEXIVCPoint@@@Z 31C8:?OnCancelMode@CGXBDateTimeCtrl@@IAEXXZ 3219:?OnCalendarOK@CGXBDateTimeCtrl@@IAEJIJ@Z 3339:?OnCalendarCancel@CGXBDateTimeCtrl@@IAEJIJ@Z 3388:?OnSize@CGXBDateTimeCtrl@@IAEXIHH@Z 33C1:?OnSysColorChange@CGXBDateTimeCtrl@@IAEXXZ 3429:?OnSettingChange@CGXBDateTimeCtrl@@IAEJIJ@Z 3440:?OnSetFont@CGXBDateTimeCtrl@@IAEJIJ@Z 3470:?OnDestroy@CGXBDateTimeCtrl@@IAEXXZ 348B:?OnEnable@CGXBDateTimeCtrl@@IAEXH@Z 34A2:?OnNcCalcSize@CGXBDateTimeCtrl@@IAEXHPAUtagNCCALCSIZE_PARAMS@@@Z 34F5:?OnNcPaint@CGXBDateTimeCtrl@@IAEXXZ 35F8:?GXBGetTmFromOleDate@@YGHNAAUtm@@@Z (l)3878:$DoTime$95044 38EC:?ParseDateTimeFormat@CGXBDateTimeCtrl@@IAEXXZ 3A1A:?ParseHours@CGXBDateTimeCtrl@@IAEXAAPBG0I@Z 3B43:?ParseMinutes@CGXBDateTimeCtrl@@IAEXAAPBG0I@Z 3C3B:?ParseSeconds@CGXBDateTimeCtrl@@IAEXAAPBG0I@Z 3D33:?ParseAmPm@CGXBDateTimeCtrl@@IAEXAAPBG0I@Z 3F1D:?ParseDay@CGXBDateTimeCtrl@@IAEXAAPBG0I@Z 4187:?ParseMonth@CGXBDateTimeCtrl@@IAEXAAPBG0I@Z 43F7:?ParseYear@CGXBDateTimeCtrl@@IAEXAAPBG0I@Z 4555:?ParseEra@CGXBDateTimeCtrl@@IAEXAAPBG0I@Z 4597:?ParseQuotedText@CGXBDateTimeCtrl@@IAEXAAPBG0I@Z 4644:?FlushStatic@CGXBDateTimeCtrl@@IAEXPBG0@Z 4722:?CheckLeadZero@CGXBDateTimeCtrl@@IBEHAAPBGG@Z 4770:?ChangeHour@CGXBDateTimeCtrl@@IAEHIHJ@Z 49DA:?ChangeMinute@CGXBDateTimeCtrl@@IAEHIHJ@Z 4C06:?ChangeSecond@CGXBDateTimeCtrl@@IAEHIHJ@Z 4E32:?ChangeAmPm@CGXBDateTimeCtrl@@IAEHIHJ@Z 5050:?ChangeDay@CGXBDateTimeCtrl@@IAEHIHJ@Z 5498:?ChangeMonth@CGXBDateTimeCtrl@@IAEHIHJ@Z 56EB:?ChangeYear@CGXBDateTimeCtrl@@IAEHIHJ@Z 59C2:?GetRuntimeClass@CGXBDTGadget@@UBEPAUCRuntimeClass@@XZ 59D2:??0CGXBDTGadget@@QAE@XZ 5A5B:??1CGXBDTGadget@@UAE@XZ 5AAC:?Initialise@CGXBDTGadget@@QAEHPAVCGXBDateTimeCtrl@@H@Z 5AD0:?GetStyle@CGXBDTGadget@@QBEHXZ 5AE1:?SetStyle@CGXBDTGadget@@QAEXH@Z 5AF7:?SetValue@CGXBDTGadget@@QAEXH@Z 5B0D:?GetValue@CGXBDTGadget@@QBEHXZ 5B1E:?GetID@CGXBDTGadget@@QBEHXZ 5B2F:?GetRect@CGXBDTGadget@@QBEABVCRect@@XZ 5B40:?SetRect@CGXBDTGadget@@QAEXABUtagRECT@@@Z 5B5C:?Enable@CGXBDTGadget@@UAEHH@Z 5B9D:?Notify@CGXBDTGadget@@IAEHIHJ@Z 5BCA:?Invalidate@CGXBDTGadget@@IAEXH@Z 5BEA:?CaptureMouse@CGXBDTGadget@@IAEXH@Z 5C0A:?GetBkColor@CGXBDTGadget@@IBEKXZ 5C21:?StartTimer@CGXBDTGadget@@IAEXI@Z 5C6D:?StopTimer@CGXBDTGadget@@IAEXXZ 5CF4:?TimerProc@CGXBDTGadget@@KGXPAUHWND__@@IIK@Z 5D20:??0CGXBDTSpinGadget@@QAE@XZ 5D5D:??1CGXBDTSpinGadget@@UAE@XZ 5D79:?CalcSize@CGXBDTSpinGadget@@MAEXAAVCDC@@@Z 5DA5:?Draw@CGXBDTSpinGadget@@MAEXAAVCDC@@@Z 5EA5:?OnLButtonDown@CGXBDTSpinGadget@@MAEXIVCPoint@@@Z 5F9A:?OnLButtonUp@CGXBDTSpinGadget@@MAEXIVCPoint@@@Z 600A:?OnMouseMove@CGXBDTSpinGadget@@MAEXIVCPoint@@@Z 613C:?OnCancelMode@CGXBDTSpinGadget@@MAEXXZ 61AA:?OnTimer@CGXBDTSpinGadget@@MAEXXZ 6283:?DrawPart@CGXBDTSpinGadget@@IAEXAAVCDC@@AAVCRect@@HH@Z 64A4:?CheckHit@CGXBDTSpinGadget@@IBEHVCPoint@@@Z 6505:??0CGXBDTListGadget@@QAE@XZ 6588:??1CGXBDTListGadget@@UAE@XZ 65EB:?Initialise@CGXBDTListGadget@@QAEHPAVCGXBDateTimeCtrl@@ABVCStringArray@@HH@Z 662D:?CalcSize@CGXBDTListGadget@@MAEXAAVCDC@@@Z 66D8:?Draw@CGXBDTListGadget@@MAEXAAVCDC@@@Z 6754:?Enable@CGXBDTListGadget@@MAEHH@Z 6788:?OnKeyDown@CGXBDTListGadget@@MAEXI@Z 68E2:?OnChar@CGXBDTListGadget@@MAEXI@Z 6B20:?OnTimer@CGXBDTListGadget@@MAEXXZ 6B48:?FindMatch@CGXBDTListGadget@@IAEHPBGH@Z 6C20:??0CGXBDTNumericGadget@@QAE@XZ 6C71:??1CGXBDTNumericGadget@@UAE@XZ 6C8D:?Initialise@CGXBDTNumericGadget@@QAEHPAVCGXBDateTimeCtrl@@HHHHH@Z 6D1C:?CalcSize@CGXBDTNumericGadget@@MAEXAAVCDC@@@Z 6D5C:?Draw@CGXBDTNumericGadget@@MAEXAAVCDC@@@Z 6E5B:?Enable@CGXBDTNumericGadget@@MAEHH@Z 6E85:?OnKeyDown@CGXBDTNumericGadget@@MAEXI@Z 7004:?OnChar@CGXBDTNumericGadget@@MAEXI@Z 710C:?OnCancelMode@CGXBDTNumericGadget@@MAEXXZ 7128:?Validate@CGXBDTNumericGadget@@IAEHXZ 71B7:??0CGXBDTButtonGadget@@QAE@XZ 7222:??1CGXBDTButtonGadget@@UAE@XZ 7276:?Initialise@CGXBDTButtonGadget@@QAEHPAVCGXBDateTimeCtrl@@PBGH@Z 72C1:?CalcSize@CGXBDTButtonGadget@@MAEXAAVCDC@@@Z 72ED:?Draw@CGXBDTButtonGadget@@MAEXAAVCDC@@@Z 74FE:?OnLButtonDown@CGXBDTButtonGadget@@MAEXIVCPoint@@@Z 752E:?OnLButtonUp@CGXBDTButtonGadget@@MAEXIVCPoint@@@Z 75C1:?OnMouseMove@CGXBDTButtonGadget@@MAEXIVCPoint@@@Z 7640:?OnCancelMode@CGXBDTButtonGadget@@MAEXXZ 7699:?OnSysColorChange@CGXBDTButtonGadget@@MAEXXZ 76CB:??0CGXBDTStaticGadget@@QAE@XZ 772C:??1CGXBDTStaticGadget@@UAE@XZ 7780:?Initialise@CGXBDTStaticGadget@@QAEHPAVCGXBDateTimeCtrl@@PBGH@Z 77B9:?GetCaption@CGXBDTStaticGadget@@QBE?AVCString@@XZ 77EA:?CalcSize@CGXBDTStaticGadget@@MAEXAAVCDC@@@Z 782C:?Draw@CGXBDTStaticGadget@@MAEXAAVCDC@@@Z (062C: D4)
                10. 08 AAD6 617B 0000:?GetRuntimeClass@CGXCommand@@UBEPAUCRuntimeClass@@XZ 0010:?GetRuntimeClass@CGXBlockCmd@@UBEPAUCRuntimeClass@@XZ 0020:?GetRuntimeClass@CGXSetRowHeightCmd@@UBEPAUCRuntimeClass@@XZ 0030:?GetRuntimeClass@CGXSetColWidthCmd@@UBEPAUCRuntimeClass@@XZ 0040:?GetRuntimeClass@CGXHideRowsCmd@@UBEPAUCRuntimeClass@@XZ 0050:?GetRuntimeClass@CGXHideColsCmd@@UBEPAUCRuntimeClass@@XZ 0060:?GetRuntimeClass@CGXSetDefaultRowHeightCmd@@UBEPAUCRuntimeClass@@XZ 0070:?GetRuntimeClass@CGXSetDefaultColWidthCmd@@UBEPAUCRuntimeClass@@XZ 0080:?GetRuntimeClass@CGXMoveRowsCmd@@UBEPAUCRuntimeClass@@XZ 0090:?GetRuntimeClass@CGXMoveColsCmd@@UBEPAUCRuntimeClass@@XZ 00A0:?GetRuntimeClass@CGXRemoveRowsCmd@@UBEPAUCRuntimeClass@@XZ 00B0:?GetRuntimeClass@CGXRemoveColsCmd@@UBEPAUCRuntimeClass@@XZ 00C0:?GetRuntimeClass@CGXInsertRowsCmd@@UBEPAUCRuntimeClass@@XZ 00D0:?GetRuntimeClass@CGXInsertColsCmd@@UBEPAUCRuntimeClass@@XZ 00E0:?GetRuntimeClass@CGXSetCoveredCellsCmd@@UBEPAUCRuntimeClass@@XZ 00F0:?GetRuntimeClass@CGXSetStyleRangeCmd@@UBEPAUCRuntimeClass@@XZ 0100:?GetRuntimeClass@CGXSetFrozenColsCmd@@UBEPAUCRuntimeClass@@XZ 0110:?GetRuntimeClass@CGXSetFrozenRowsCmd@@UBEPAUCRuntimeClass@@XZ 0120:?GetRuntimeClass@CGXMoveDataRowsCmd@@UBEPAUCRuntimeClass@@XZ 0130:?GetRuntimeClass@CGXMoveDataColsCmd@@UBEPAUCRuntimeClass@@XZ 0140:?GetRuntimeClass@CGXChangeStylesMapCmd@@UBEPAUCRuntimeClass@@XZ 0150:?GetRuntimeClass@CGXChangePropertiesCmd@@UBEPAUCRuntimeClass@@XZ 0160:?GetRuntimeClass@CGXChangeBaseStyleCmd@@UBEPAUCRuntimeClass@@XZ 0170:?GetRuntimeClass@CGXMoveCellsCmd@@UBEPAUCRuntimeClass@@XZ 0180:?GetRuntimeClass@CGXSetRangeNameCmd@@UBEPAUCRuntimeClass@@XZ 0190:?GetRuntimeClass@CGXDeleteRangeNameCmd@@UBEPAUCRuntimeClass@@XZ 01FC:?GetDescription@CGXSetRowHeightCmd@@UBEPBDXZ 029A:?GetDescription@CGXSetColWidthCmd@@UBEPBDXZ 0338:?GetDescription@CGXHideColsCmd@@UBEPBDXZ 03D6:?GetDescription@CGXHideRowsCmd@@UBEPBDXZ 0474:?GetDescription@CGXSetDefaultRowHeightCmd@@UBEPBDXZ 0512:?GetDescription@CGXSetDefaultColWidthCmd@@UBEPBDXZ 05B0:?GetDescription@CGXMoveRowsCmd@@UBEPBDXZ 064E:?GetDescription@CGXMoveColsCmd@@UBEPBDXZ 06EC:?GetDescription@CGXRemoveRowsCmd@@UBEPBDXZ 078A:?GetDescription@CGXRemoveColsCmd@@UBEPBDXZ 0828:?GetDescription@CGXInsertRowsCmd@@UBEPBDXZ 08C6:?GetDescription@CGXInsertColsCmd@@UBEPBDXZ 0964:?GetDescription@CGXSetCoveredCellsCmd@@UBEPBDXZ 0A02:?GetDescription@CGXSetStyleRangeCmd@@UBEPBDXZ 0AA0:?GetDescription@CGXSetFrozenColsCmd@@UBEPBDXZ 0B3E:?GetDescription@CGXSetFrozenRowsCmd@@UBEPBDXZ 0BDC:?GetDescription@CGXMoveDataRowsCmd@@UBEPBDXZ 0C7A:?GetDescription@CGXMoveDataColsCmd@@UBEPBDXZ 0D18:?GetDescription@CGXChangeStylesMapCmd@@UBEPBDXZ 0DB6:?GetDescription@CGXChangePropertiesCmd@@UBEPBDXZ 0E54:?GetDescription@CGXMoveCellsCmd@@UBEPBDXZ 0EF2:?GetDescription@CGXSetRangeNameCmd@@UBEPBDXZ 0F90:?GetDescription@CGXDeleteRangeNameCmd@@UBEPBDXZ 0FD2:??0CGXCommand@@QAE@XZ 1019:??1CGXCommand@@UAE@XZ 1092:??0CGXBlockCmd@@QAE@PBD@Z 1127:??1CGXBlockCmd@@UAE@XZ 11F0:?Execute@CGXBlockCmd@@UAEHPAVCGXGridCore@@W4GXCmdType@@@Z 1548:?GetDescription@CGXBlockCmd@@UBEPBDXZ 155E:??0CGXSetRowHeightCmd@@QAE@KKPAH@Z 15ED:??1CGXSetRowHeightCmd@@UAE@XZ 164D:?Execute@CGXSetRowHeightCmd@@UAEHPAVCGXGridCore@@W4GXCmdType@@@Z 1685:??0CGXHideRowsCmd@@QAE@KKPAH@Z 1714:??1CGXHideRowsCmd@@UAE@XZ 1774:?Execute@CGXHideRowsCmd@@UAEHPAVCGXGridCore@@W4GXCmdType@@@Z 17AC:??0CGXSetDefaultRowHeightCmd@@QAE@H@Z 1829:?Execute@CGXSetDefaultRowHeightCmd@@UAEHPAVCGXGridCore@@W4GXCmdType@@@Z 1851:??0CGXSetColWidthCmd@@QAE@KKPAH@Z 18E0:??1CGXSetColWidthCmd@@UAE@XZ 1940:?Execute@CGXSetColWidthCmd@@UAEHPAVCGXGridCore@@W4GXCmdType@@@Z 1978:??0CGXHideColsCmd@@QAE@KKPAH@Z 1A07:??1CGXHideColsCmd@@UAE@XZ 1A67:?Execute@CGXHideColsCmd@@UAEHPAVCGXGridCore@@W4GXCmdType@@@Z 1A9F:??0CGXSetDefaultColWidthCmd@@QAE@H@Z 1B1C:?Execute@CGXSetDefaultColWidthCmd@@UAEHPAVCGXGridCore@@W4GXCmdType@@@Z 1B44:??0CGXMoveRowsCmd@@QAE@KKK@Z 1BDD:?Execute@CGXMoveRowsCmd@@UAEHPAVCGXGridCore@@W4GXCmdType@@@Z 1C13:??0CGXMoveColsCmd@@QAE@KKK@Z 1CAC:?Execute@CGXMoveColsCmd@@UAEHPAVCGXGridCore@@W4GXCmdType@@@Z 1CE2:??0CGXRemoveRowsCmd@@QAE@KK@Z 1D6A:?Execute@CGXRemoveRowsCmd@@UAEHPAVCGXGridCore@@W4GXCmdType@@@Z 1D96:??0CGXRemoveColsCmd@@QAE@KK@Z 1E1E:?Execute@CGXRemoveColsCmd@@UAEHPAVCGXGridCore@@W4GXCmdType@@@Z 1E4D:??0CGXInsertRowsCmd@@QAE@KKPAHPAVCObArray@@1K@Z 1EA4:??1CGXInsertRowsCmd@@UAE@XZ 20BC:?Execute@CGXInsertRowsCmd@@UAEHPAVCGXGridCore@@W4GXCmdType@@@Z 2107:??0CGXInsertColsCmd@@QAE@KKPAHPAVCObArray@@1K@Z 215E:??1CGXInsertColsCmd@@UAE@XZ 2376:?Execute@CGXInsertColsCmd@@UAEHPAVCGXGridCore@@W4GXCmdType@@@Z 23C1:??0CGXSetCoveredCellsCmd@@QAE@KKKK@Z 2463:?Execute@CGXSetCoveredCellsCmd@@UAEHPAVCGXGridCore@@W4GXCmdType@@@Z 24A0:??0CGXSetStyleRangeCmd@@QAE@ABVCGXRange@@HPAVCObArray@@@Z 251A:??1CGXSetStyleRangeCmd@@UAE@XZ 269F:?Execute@CGXSetStyleRangeCmd@@UAEHPAVCGXGridCore@@W4GXCmdType@@@Z 26D6:??0CGXSetFrozenRowsCmd@@QAE@KK@Z 2709:?Execute@CGXSetFrozenRowsCmd@@UAEHPAVCGXGridCore@@W4GXCmdType@@@Z 2738:??0CGXSetFrozenColsCmd@@QAE@KK@Z 276B:?Execute@CGXSetFrozenColsCmd@@UAEHPAVCGXGridCore@@W4GXCmdType@@@Z 279A:??0CGXMoveDataRowsCmd@@QAE@ABVCGXRange@@PAVCDWordArray@@@Z 280B:??1CGXMoveDataRowsCmd@@UAE@XZ 2884:?Execute@CGXMoveDataRowsCmd@@UAEHPAVCGXGridCore@@W4GXCmdType@@@Z 28B3:??0CGXMoveDataColsCmd@@QAE@ABVCGXRange@@PAVCDWordArray@@@Z 2924:??1CGXMoveDataColsCmd@@UAE@XZ 299D:?Execute@CGXMoveDataColsCmd@@UAEHPAVCGXGridCore@@W4GXCmdType@@@Z 29CC:??0CGXChangeStylesMapCmd@@QAE@ABVCGXStylesMap@@@Z 2A68:??1CGXChangeStylesMapCmd@@UAE@XZ 2AE1:?Execute@CGXChangeStylesMapCmd@@UAEHPAVCGXGridCore@@W4GXCmdType@@@Z 2B06:??0CGXChangePropertiesCmd@@QAE@ABVCGXProperties@@@Z 2BA2:??1CGXChangePropertiesCmd@@UAE@XZ 2C1B:?Execute@CGXChangePropertiesCmd@@UAEHPAVCGXGridCore@@W4GXCmdType@@@Z 2C40:??0CGXChangeBaseStyleCmd@@QAE@GABVCGXStyle@@ABVCString@@@Z 2D02:??1CGXChangeBaseStyleCmd@@UAE@XZ 2D8A:?Execute@CGXChangeBaseStyleCmd@@UAEHPAVCGXGridCore@@W4GXCmdType@@@Z 2DB9:?GetDescription@CGXChangeBaseStyleCmd@@UBEPBDXZ 2DCF:??0CGXMoveCellsCmd@@QAE@VCGXRange@@KKPAVCObject@@@Z 2E52:??1CGXMoveCellsCmd@@UAE@XZ 2ECB:?Execute@CGXMoveCellsCmd@@UAEHPAVCGXGridCore@@W4GXCmdType@@@Z 2F63:??0CGXSetRangeNameCmd@@QAE@VCString@@HABVCGXRange@@@Z 2FFE:??1CGXSetRangeNameCmd@@UAE@XZ 3052:?Execute@CGXSetRangeNameCmd@@UAEHPAVCGXGridCore@@W4GXCmdType@@@Z 30B3:??0CGXDeleteRangeNameCmd@@QAE@VCString@@ABVCGXRange@@PAVCObject@@@Z 314E:??1CGXDeleteRangeNameCmd@@UAE@XZ 31D6:?Execute@CGXDeleteRangeNameCmd@@UAEHPAVCGXGridCore@@W4GXCmdType@@@Z 3211:??0CGXCommandFactory@@QAE@XZ 3230:?CreateBlockCmd@CGXCommandFactory@@UAEPAVCGXCommand@@PBD@Z 32A7:?CreateSetRowHeightCmd@CGXCommandFactory@@UAEPAVCGXCommand@@KKPAH@Z 3326:?CreateHideRowsCmd@CGXCommandFactory@@UAEPAVCGXCommand@@KKPAH@Z 33A5:?CreateSetDefaultRowHeightCmd@CGXCommandFactory@@UAEPAVCGXCommand@@H@Z 341C:?CreateSetColWidthCmd@CGXCommandFactory@@UAEPAVCGXCommand@@KKPAH@Z 349B:?CreateHideColsCmd@CGXCommandFactory@@UAEPAVCGXCommand@@KKPAH@Z 351A:?CreateSetDefaultColWidthCmd@CGXCommandFactory@@UAEPAVCGXCommand@@H@Z 3591:?CreateMoveRowsCmd@CGXCommandFactory@@UAEPAVCGXCommand@@KKK@Z 3610:?CreateMoveColsCmd@CGXCommandFactory@@UAEPAVCGXCommand@@KKK@Z 368F:?CreateRemoveRowsCmd@CGXCommandFactory@@UAEPAVCGXCommand@@KK@Z 370A:?CreateRemoveColsCmd@CGXCommandFactory@@UAEPAVCGXCommand@@KK@Z 3785:?CreateInsertRowsCmd@CGXCommandFactory@@UAEPAVCGXCommand@@KKPAHPAVCObArray@@1K@Z 3810:?CreateInsertColsCmd@CGXCommandFactory@@UAEPAVCGXCommand@@KKPAHPAVCObArray@@1K@Z 389B:?CreateSetCoveredCellsCmd@CGXCommandFactory@@UAEPAVCGXCommand@@KKKK@Z 391E:?CreateSetStyleRangeCmd@CGXCommandFactory@@UAEPAVCGXCommand@@ABVCGXRange@@HPAVCObArray@@@Z 399D:?CreateSetFrozenRowsCmd@CGXCommandFactory@@UAEPAVCGXCommand@@KK@Z 3A18:?CreateSetFrozenColsCmd@CGXCommandFactory@@UAEPAVCGXCommand@@KK@Z 3A93:?CreateMoveDataRowsCmd@CGXCommandFactory@@UAEPAVCGXCommand@@ABVCGXRange@@PAVCDWordArray@@@Z 3B0E:?CreateMoveDataColsCmd@CGXCommandFactory@@UAEPAVCGXCommand@@ABVCGXRange@@PAVCDWordArray@@@Z 3B89:?CreateChangeStylesMapCmd@CGXCommandFactory@@UAEPAVCGXCommand@@ABVCGXStylesMap@@@Z 3C00:?CreateChangePropertiesCmd@CGXCommandFactory@@UAEPAVCGXCommand@@ABVCGXProperties@@@Z 3C77:?CreateChangeBaseStyleCmd@CGXCommandFactory@@UAEPAVCGXCommand@@GABVCGXStyle@@ABVCString@@@Z 3CF7:?CreateMoveCellsCmd@CGXCommandFactory@@UAEPAVCGXCommand@@ABVCGXRange@@KKPAVCObject@@@Z 3D87:?CreateSetRangeNameCmd@CGXCommandFactory@@UAEPAVCGXCommand@@VCString@@HABVCGXRange@@@Z 3E30:?CreateDeleteRangeNameCmd@CGXCommandFactory@@UAEPAVCGXCommand@@VCString@@ABVCGXRange@@PAVCObject@@@Z 3ED9:?SetAdvancedUndo@CGXCommandFactory@@UAEHPAVCGXGridCore@@H@Z 3F16:?GetAdvancedUndoInfo@CGXCommandFactory@@UAEPAVCObject@@PAVCGXGridCore@@@Z 3F4C:?UndoAdvanced@CGXCommandFactory@@UAEHPAVCGXGridCore@@PAVCObject@@HH@Z 3F94:?CleanAdvancedUndo@CGXCommandFactory@@UAEXPAVCGXGridCore@@@Z 3FD9:?ExecuteCommand@CGXCommandFactory@@UAEHPAVCGXCommand@@PAVCGXGridCore@@W4GXCmdType@@@Z 4097:?AddCommand@CGXCommandFactory@@UAEXPAVCGXGridCore@@PAVCGXCommand@@W4GXCmdType@@@Z 429D:?RemoveCommand@CGXCommandFactory@@UAEXPAVCGXGridCore@@W4GXCmdType@@@Z 438A:?Undo@CGXCommandFactory@@UAEHPAVCGXGridCore@@@Z 4534:?Redo@CGXCommandFactory@@UAEHPAVCGXGridCore@@@Z 46A7:?BeginTrans@CGXCommandFactory@@UAEXPAVCGXGridCore@@PBD@Z 47BA:?CommitTrans@CGXCommandFactory@@UAEXPAVCGXGridCore@@@Z 489D:?Rollback@CGXCommandFactory@@UAEXPAVCGXGridCore@@@Z 49B4:?OnCellUndone@CGXCommandFactory@@UAEXPAVCGXGridCore@@KKH@Z 4A58:?CanUndo@CGXCommandFactory@@UAEHPAVCGXGridCore@@PAVCCmdUI@@@Z 4D7E:?CanRedo@CGXCommandFactory@@UAEHPAVCGXGridCore@@PAVCCmdUI@@@Z 5021:?ImplementUndoRedo@CGXGridCore@@QAEXXZ 50B0:?CreateRemoveRowsUndoInfo@CGXCommandFactory@@UAEHPAVCGXGridCore@@AAK11AAPAVCObArray@@2AAVCGXLongOperation@@@Z 5916:?CreateRemoveColsUndoInfo@CGXCommandFactory@@UAEHPAVCGXGridCore@@AAK11AAPAVCObArray@@2AAVCGXLongOperation@@@Z (062C: FC) (REF 021C: ?LoadStringA@CString@@QAEHI@Z)
                11. 08 AAD6 617B 0000:?GetRuntimeClass@CGXCommand@@UBEPAUCRuntimeClass@@XZ 0010:?GetRuntimeClass@CGXBlockCmd@@UBEPAUCRuntimeClass@@XZ 0020:?GetRuntimeClass@CGXSetRowHeightCmd@@UBEPAUCRuntimeClass@@XZ 0030:?GetRuntimeClass@CGXSetColWidthCmd@@UBEPAUCRuntimeClass@@XZ 0040:?GetRuntimeClass@CGXHideRowsCmd@@UBEPAUCRuntimeClass@@XZ 0050:?GetRuntimeClass@CGXHideColsCmd@@UBEPAUCRuntimeClass@@XZ 0060:?GetRuntimeClass@CGXSetDefaultRowHeightCmd@@UBEPAUCRuntimeClass@@XZ 0070:?GetRuntimeClass@CGXSetDefaultColWidthCmd@@UBEPAUCRuntimeClass@@XZ 0080:?GetRuntimeClass@CGXMoveRowsCmd@@UBEPAUCRuntimeClass@@XZ 0090:?GetRuntimeClass@CGXMoveColsCmd@@UBEPAUCRuntimeClass@@XZ 00A0:?GetRuntimeClass@CGXRemoveRowsCmd@@UBEPAUCRuntimeClass@@XZ 00B0:?GetRuntimeClass@CGXRemoveColsCmd@@UBEPAUCRuntimeClass@@XZ 00C0:?GetRuntimeClass@CGXInsertRowsCmd@@UBEPAUCRuntimeClass@@XZ 00D0:?GetRuntimeClass@CGXInsertColsCmd@@UBEPAUCRuntimeClass@@XZ 00E0:?GetRuntimeClass@CGXSetCoveredCellsCmd@@UBEPAUCRuntimeClass@@XZ 00F0:?GetRuntimeClass@CGXSetStyleRangeCmd@@UBEPAUCRuntimeClass@@XZ 0100:?GetRuntimeClass@CGXSetFrozenColsCmd@@UBEPAUCRuntimeClass@@XZ 0110:?GetRuntimeClass@CGXSetFrozenRowsCmd@@UBEPAUCRuntimeClass@@XZ 0120:?GetRuntimeClass@CGXMoveDataRowsCmd@@UBEPAUCRuntimeClass@@XZ 0130:?GetRuntimeClass@CGXMoveDataColsCmd@@UBEPAUCRuntimeClass@@XZ 0140:?GetRuntimeClass@CGXChangeStylesMapCmd@@UBEPAUCRuntimeClass@@XZ 0150:?GetRuntimeClass@CGXChangePropertiesCmd@@UBEPAUCRuntimeClass@@XZ 0160:?GetRuntimeClass@CGXChangeBaseStyleCmd@@UBEPAUCRuntimeClass@@XZ 0170:?GetRuntimeClass@CGXMoveCellsCmd@@UBEPAUCRuntimeClass@@XZ 0180:?GetRuntimeClass@CGXSetRangeNameCmd@@UBEPAUCRuntimeClass@@XZ 0190:?GetRuntimeClass@CGXDeleteRangeNameCmd@@UBEPAUCRuntimeClass@@XZ 01FC:?GetDescription@CGXSetRowHeightCmd@@UBEPBGXZ 029A:?GetDescription@CGXSetColWidthCmd@@UBEPBGXZ 0338:?GetDescription@CGXHideColsCmd@@UBEPBGXZ 03D6:?GetDescription@CGXHideRowsCmd@@UBEPBGXZ 0474:?GetDescription@CGXSetDefaultRowHeightCmd@@UBEPBGXZ 0512:?GetDescription@CGXSetDefaultColWidthCmd@@UBEPBGXZ 05B0:?GetDescription@CGXMoveRowsCmd@@UBEPBGXZ 064E:?GetDescription@CGXMoveColsCmd@@UBEPBGXZ 06EC:?GetDescription@CGXRemoveRowsCmd@@UBEPBGXZ 078A:?GetDescription@CGXRemoveColsCmd@@UBEPBGXZ 0828:?GetDescription@CGXInsertRowsCmd@@UBEPBGXZ 08C6:?GetDescription@CGXInsertColsCmd@@UBEPBGXZ 0964:?GetDescription@CGXSetCoveredCellsCmd@@UBEPBGXZ 0A02:?GetDescription@CGXSetStyleRangeCmd@@UBEPBGXZ 0AA0:?GetDescription@CGXSetFrozenColsCmd@@UBEPBGXZ 0B3E:?GetDescription@CGXSetFrozenRowsCmd@@UBEPBGXZ 0BDC:?GetDescription@CGXMoveDataRowsCmd@@UBEPBGXZ 0C7A:?GetDescription@CGXMoveDataColsCmd@@UBEPBGXZ 0D18:?GetDescription@CGXChangeStylesMapCmd@@UBEPBGXZ 0DB6:?GetDescription@CGXChangePropertiesCmd@@UBEPBGXZ 0E54:?GetDescription@CGXMoveCellsCmd@@UBEPBGXZ 0EF2:?GetDescription@CGXSetRangeNameCmd@@UBEPBGXZ 0F90:?GetDescription@CGXDeleteRangeNameCmd@@UBEPBGXZ 0FD2:??0CGXCommand@@QAE@XZ 1019:??1CGXCommand@@UAE@XZ 1092:??0CGXBlockCmd@@QAE@PBG@Z 1127:??1CGXBlockCmd@@UAE@XZ 11F0:?Execute@CGXBlockCmd@@UAEHPAVCGXGridCore@@W4GXCmdType@@@Z 1548:?GetDescription@CGXBlockCmd@@UBEPBGXZ 155E:??0CGXSetRowHeightCmd@@QAE@KKPAH@Z 15ED:??1CGXSetRowHeightCmd@@UAE@XZ 164D:?Execute@CGXSetRowHeightCmd@@UAEHPAVCGXGridCore@@W4GXCmdType@@@Z 1685:??0CGXHideRowsCmd@@QAE@KKPAH@Z 1714:??1CGXHideRowsCmd@@UAE@XZ 1774:?Execute@CGXHideRowsCmd@@UAEHPAVCGXGridCore@@W4GXCmdType@@@Z 17AC:??0CGXSetDefaultRowHeightCmd@@QAE@H@Z 1829:?Execute@CGXSetDefaultRowHeightCmd@@UAEHPAVCGXGridCore@@W4GXCmdType@@@Z 1851:??0CGXSetColWidthCmd@@QAE@KKPAH@Z 18E0:??1CGXSetColWidthCmd@@UAE@XZ 1940:?Execute@CGXSetColWidthCmd@@UAEHPAVCGXGridCore@@W4GXCmdType@@@Z 1978:??0CGXHideColsCmd@@QAE@KKPAH@Z 1A07:??1CGXHideColsCmd@@UAE@XZ 1A67:?Execute@CGXHideColsCmd@@UAEHPAVCGXGridCore@@W4GXCmdType@@@Z 1A9F:??0CGXSetDefaultColWidthCmd@@QAE@H@Z 1B1C:?Execute@CGXSetDefaultColWidthCmd@@UAEHPAVCGXGridCore@@W4GXCmdType@@@Z 1B44:??0CGXMoveRowsCmd@@QAE@KKK@Z 1BDD:?Execute@CGXMoveRowsCmd@@UAEHPAVCGXGridCore@@W4GXCmdType@@@Z 1C13:??0CGXMoveColsCmd@@QAE@KKK@Z 1CAC:?Execute@CGXMoveColsCmd@@UAEHPAVCGXGridCore@@W4GXCmdType@@@Z 1CE2:??0CGXRemoveRowsCmd@@QAE@KK@Z 1D6A:?Execute@CGXRemoveRowsCmd@@UAEHPAVCGXGridCore@@W4GXCmdType@@@Z 1D96:??0CGXRemoveColsCmd@@QAE@KK@Z 1E1E:?Execute@CGXRemoveColsCmd@@UAEHPAVCGXGridCore@@W4GXCmdType@@@Z 1E4D:??0CGXInsertRowsCmd@@QAE@KKPAHPAVCObArray@@1K@Z 1EA4:??1CGXInsertRowsCmd@@UAE@XZ 20BC:?Execute@CGXInsertRowsCmd@@UAEHPAVCGXGridCore@@W4GXCmdType@@@Z 2107:??0CGXInsertColsCmd@@QAE@KKPAHPAVCObArray@@1K@Z 215E:??1CGXInsertColsCmd@@UAE@XZ 2376:?Execute@CGXInsertColsCmd@@UAEHPAVCGXGridCore@@W4GXCmdType@@@Z 23C1:??0CGXSetCoveredCellsCmd@@QAE@KKKK@Z 2463:?Execute@CGXSetCoveredCellsCmd@@UAEHPAVCGXGridCore@@W4GXCmdType@@@Z 24A0:??0CGXSetStyleRangeCmd@@QAE@ABVCGXRange@@HPAVCObArray@@@Z 251A:??1CGXSetStyleRangeCmd@@UAE@XZ 269F:?Execute@CGXSetStyleRangeCmd@@UAEHPAVCGXGridCore@@W4GXCmdType@@@Z 26D6:??0CGXSetFrozenRowsCmd@@QAE@KK@Z 2709:?Execute@CGXSetFrozenRowsCmd@@UAEHPAVCGXGridCore@@W4GXCmdType@@@Z 2738:??0CGXSetFrozenColsCmd@@QAE@KK@Z 276B:?Execute@CGXSetFrozenColsCmd@@UAEHPAVCGXGridCore@@W4GXCmdType@@@Z 279A:??0CGXMoveDataRowsCmd@@QAE@ABVCGXRange@@PAVCDWordArray@@@Z 280B:??1CGXMoveDataRowsCmd@@UAE@XZ 2884:?Execute@CGXMoveDataRowsCmd@@UAEHPAVCGXGridCore@@W4GXCmdType@@@Z 28B3:??0CGXMoveDataColsCmd@@QAE@ABVCGXRange@@PAVCDWordArray@@@Z 2924:??1CGXMoveDataColsCmd@@UAE@XZ 299D:?Execute@CGXMoveDataColsCmd@@UAEHPAVCGXGridCore@@W4GXCmdType@@@Z 29CC:??0CGXChangeStylesMapCmd@@QAE@ABVCGXStylesMap@@@Z 2A68:??1CGXChangeStylesMapCmd@@UAE@XZ 2AE1:?Execute@CGXChangeStylesMapCmd@@UAEHPAVCGXGridCore@@W4GXCmdType@@@Z 2B06:??0CGXChangePropertiesCmd@@QAE@ABVCGXProperties@@@Z 2BA2:??1CGXChangePropertiesCmd@@UAE@XZ 2C1B:?Execute@CGXChangePropertiesCmd@@UAEHPAVCGXGridCore@@W4GXCmdType@@@Z 2C40:??0CGXChangeBaseStyleCmd@@QAE@GABVCGXStyle@@ABVCString@@@Z 2D02:??1CGXChangeBaseStyleCmd@@UAE@XZ 2D8A:?Execute@CGXChangeBaseStyleCmd@@UAEHPAVCGXGridCore@@W4GXCmdType@@@Z 2DB9:?GetDescription@CGXChangeBaseStyleCmd@@UBEPBGXZ 2DCF:??0CGXMoveCellsCmd@@QAE@VCGXRange@@KKPAVCObject@@@Z 2E52:??1CGXMoveCellsCmd@@UAE@XZ 2ECB:?Execute@CGXMoveCellsCmd@@UAEHPAVCGXGridCore@@W4GXCmdType@@@Z 2F63:??0CGXSetRangeNameCmd@@QAE@VCString@@HABVCGXRange@@@Z 2FFE:??1CGXSetRangeNameCmd@@UAE@XZ 3052:?Execute@CGXSetRangeNameCmd@@UAEHPAVCGXGridCore@@W4GXCmdType@@@Z 30B3:??0CGXDeleteRangeNameCmd@@QAE@VCString@@ABVCGXRange@@PAVCObject@@@Z 314E:??1CGXDeleteRangeNameCmd@@UAE@XZ 31D6:?Execute@CGXDeleteRangeNameCmd@@UAEHPAVCGXGridCore@@W4GXCmdType@@@Z 3211:??0CGXCommandFactory@@QAE@XZ 3230:?CreateBlockCmd@CGXCommandFactory@@UAEPAVCGXCommand@@PBG@Z 32A7:?CreateSetRowHeightCmd@CGXCommandFactory@@UAEPAVCGXCommand@@KKPAH@Z 3326:?CreateHideRowsCmd@CGXCommandFactory@@UAEPAVCGXCommand@@KKPAH@Z 33A5:?CreateSetDefaultRowHeightCmd@CGXCommandFactory@@UAEPAVCGXCommand@@H@Z 341C:?CreateSetColWidthCmd@CGXCommandFactory@@UAEPAVCGXCommand@@KKPAH@Z 349B:?CreateHideColsCmd@CGXCommandFactory@@UAEPAVCGXCommand@@KKPAH@Z 351A:?CreateSetDefaultColWidthCmd@CGXCommandFactory@@UAEPAVCGXCommand@@H@Z 3591:?CreateMoveRowsCmd@CGXCommandFactory@@UAEPAVCGXCommand@@KKK@Z 3610:?CreateMoveColsCmd@CGXCommandFactory@@UAEPAVCGXCommand@@KKK@Z 368F:?CreateRemoveRowsCmd@CGXCommandFactory@@UAEPAVCGXCommand@@KK@Z 370A:?CreateRemoveColsCmd@CGXCommandFactory@@UAEPAVCGXCommand@@KK@Z 3785:?CreateInsertRowsCmd@CGXCommandFactory@@UAEPAVCGXCommand@@KKPAHPAVCObArray@@1K@Z 3810:?CreateInsertColsCmd@CGXCommandFactory@@UAEPAVCGXCommand@@KKPAHPAVCObArray@@1K@Z 389B:?CreateSetCoveredCellsCmd@CGXCommandFactory@@UAEPAVCGXCommand@@KKKK@Z 391E:?CreateSetStyleRangeCmd@CGXCommandFactory@@UAEPAVCGXCommand@@ABVCGXRange@@HPAVCObArray@@@Z 399D:?CreateSetFrozenRowsCmd@CGXCommandFactory@@UAEPAVCGXCommand@@KK@Z 3A18:?CreateSetFrozenColsCmd@CGXCommandFactory@@UAEPAVCGXCommand@@KK@Z 3A93:?CreateMoveDataRowsCmd@CGXCommandFactory@@UAEPAVCGXCommand@@ABVCGXRange@@PAVCDWordArray@@@Z 3B0E:?CreateMoveDataColsCmd@CGXCommandFactory@@UAEPAVCGXCommand@@ABVCGXRange@@PAVCDWordArray@@@Z 3B89:?CreateChangeStylesMapCmd@CGXCommandFactory@@UAEPAVCGXCommand@@ABVCGXStylesMap@@@Z 3C00:?CreateChangePropertiesCmd@CGXCommandFactory@@UAEPAVCGXCommand@@ABVCGXProperties@@@Z 3C77:?CreateChangeBaseStyleCmd@CGXCommandFactory@@UAEPAVCGXCommand@@GABVCGXStyle@@ABVCString@@@Z 3CF7:?CreateMoveCellsCmd@CGXCommandFactory@@UAEPAVCGXCommand@@ABVCGXRange@@KKPAVCObject@@@Z 3D87:?CreateSetRangeNameCmd@CGXCommandFactory@@UAEPAVCGXCommand@@VCString@@HABVCGXRange@@@Z 3E30:?CreateDeleteRangeNameCmd@CGXCommandFactory@@UAEPAVCGXCommand@@VCString@@ABVCGXRange@@PAVCObject@@@Z 3ED9:?SetAdvancedUndo@CGXCommandFactory@@UAEHPAVCGXGridCore@@H@Z 3F16:?GetAdvancedUndoInfo@CGXCommandFactory@@UAEPAVCObject@@PAVCGXGridCore@@@Z 3F4C:?UndoAdvanced@CGXCommandFactory@@UAEHPAVCGXGridCore@@PAVCObject@@HH@Z 3F94:?CleanAdvancedUndo@CGXCommandFactory@@UAEXPAVCGXGridCore@@@Z 3FD9:?ExecuteCommand@CGXCommandFactory@@UAEHPAVCGXCommand@@PAVCGXGridCore@@W4GXCmdType@@@Z 4097:?AddCommand@CGXCommandFactory@@UAEXPAVCGXGridCore@@PAVCGXCommand@@W4GXCmdType@@@Z 429D:?RemoveCommand@CGXCommandFactory@@UAEXPAVCGXGridCore@@W4GXCmdType@@@Z 438A:?Undo@CGXCommandFactory@@UAEHPAVCGXGridCore@@@Z 4534:?Redo@CGXCommandFactory@@UAEHPAVCGXGridCore@@@Z 46A7:?BeginTrans@CGXCommandFactory@@UAEXPAVCGXGridCore@@PBG@Z 47BA:?CommitTrans@CGXCommandFactory@@UAEXPAVCGXGridCore@@@Z 489D:?Rollback@CGXCommandFactory@@UAEXPAVCGXGridCore@@@Z 49B4:?OnCellUndone@CGXCommandFactory@@UAEXPAVCGXGridCore@@KKH@Z 4A58:?CanUndo@CGXCommandFactory@@UAEHPAVCGXGridCore@@PAVCCmdUI@@@Z 4D7E:?CanRedo@CGXCommandFactory@@UAEHPAVCGXGridCore@@PAVCCmdUI@@@Z 5021:?ImplementUndoRedo@CGXGridCore@@QAEXXZ 50B0:?CreateRemoveRowsUndoInfo@CGXCommandFactory@@UAEHPAVCGXGridCore@@AAK11AAPAVCObArray@@2AAVCGXLongOperation@@@Z 5916:?CreateRemoveColsUndoInfo@CGXCommandFactory@@UAEHPAVCGXGridCore@@AAK11AAPAVCObArray@@2AAVCGXLongOperation@@@Z (062C: FC) (REF 021C: ?LoadStringW@CString@@QAEHI@Z)
                12. 08 AAD6 785E 0000:?GetRuntimeClass@CGXBDTListGadget@@UBEPAUCRuntimeClass@@XZ 0010:?GetRuntimeClass@CGXBDTSpinGadget@@UBEPAUCRuntimeClass@@XZ 0020:?GetRuntimeClass@CGXBDTButtonGadget@@UBEPAUCRuntimeClass@@XZ 0030:?GetRuntimeClass@CGXBDTStaticGadget@@UBEPAUCRuntimeClass@@XZ 0040:?GetRuntimeClass@CGXBDTNumericGadget@@UBEPAUCRuntimeClass@@XZ 0093:?GetRuntimeClass@CGXBDateTimeCtrl@@UBEPAUCRuntimeClass@@XZ 00A3:?GetMessageMap@CGXBDateTimeCtrl@@MBEPBUAFX_MSGMAP@@XZ 00B3:??0CGXBDateTimeCtrl@@QAE@XZ 0290:??1CGXBDateTimeCtrl@@UAE@XZ 0375:?CreateEx@CGXBDateTimeCtrl@@QAEHKKABUtagRECT@@PAVCWnd@@IPAUCCreateContext@@@Z 0600:?Create@CGXBDateTimeCtrl@@QAEHKABUtagRECT@@PAVCWnd@@IPAUCCreateContext@@@Z 062B:?OnCreatePopupCalendar@CGXBDateTimeCtrl@@MAEXXZ 06A8:?InvalidateGadget@CGXBDateTimeCtrl@@QAEXPAVCGXBDTGadget@@H@Z 071C:?InvalidateGadget@CGXBDateTimeCtrl@@QAEXHH@Z 074A:?GadgetFromPoint@CGXBDateTimeCtrl@@QAEHVCPoint@@@Z 08A2:?BringIntoView@CGXBDateTimeCtrl@@QAEXPAVCGXBDTGadget@@@Z 09BC:?BringIntoView@CGXBDateTimeCtrl@@QAEXH@Z 09E6:?SetFormat@CGXBDateTimeCtrl@@QAEXW4FormatType@1@@Z 0A35:?SetFormat@CGXBDateTimeCtrl@@QAEXPBD@Z 0A63:?GetFormat@CGXBDateTimeCtrl@@QBEXAAW4FormatType@1@@Z 0A7B:?GetFormat@CGXBDateTimeCtrl@@QBEXAAVCString@@@Z 0B15:?SizeToContent@CGXBDateTimeCtrl@@QAEXXZ 0C96:?EnableFastEntry@CGXBDateTimeCtrl@@QAEXH@Z 0CAC:?IsFastEntryEnabled@CGXBDateTimeCtrl@@UBEHXZ 0CBD:?IsFocusOnRightMostGadget@CGXBDateTimeCtrl@@QBEHXZ 0D1D:?IsFocusOnLeftMostGadget@CGXBDateTimeCtrl@@QBEHXZ 0D70:?SetModified@CGXBDateTimeCtrl@@QAEXH@Z 0DA3:?SetModified@CGXBDateTimeCtrl@@QAEXHH@Z 0DFC:?IsModified@CGXBDateTimeCtrl@@QBEHXZ 0E16:?IsModified@CGXBDateTimeCtrl@@QBEXAAH0@Z 0E4B:?IsEditing@CGXBDateTimeCtrl@@QBEHXZ 0E65:?SetDateTime@CGXBDateTimeCtrl@@QAEHABVCOleDateTime@@@Z 0ED9:?SetDate@CGXBDateTimeCtrl@@QAEHABVCOleDateTime@@@Z 0FA9:?SetTime@CGXBDateTimeCtrl@@QAEHABVCOleDateTime@@@Z 1079:?GetDateTime@CGXBDateTimeCtrl@@QBEABVCOleDateTime@@XZ 108A:?SetMinMax@CGXBDateTimeCtrl@@QAEHABVCOleDateTime@@0W4ValidationMode@1@@Z 1354:?GetMinMax@CGXBDateTimeCtrl@@QBE?AW4ValidationMode@1@AAVCOleDateTime@@0@Z 1385:?Validate@CGXBDateTimeCtrl@@QBEHABVCOleDateTime@@@Z 1529:?GetNoEdit@CGXBDateTimeCtrl@@QBEHXZ 153A:?SetNoEdit@CGXBDateTimeCtrl@@QAEXH@Z 1561:?OnChanging@CGXBDateTimeCtrl@@UAEHABVCOleDateTime@@@Z 1573:?OnChanged@CGXBDateTimeCtrl@@UAEXXZ 15BD:?LayoutGadgets@CGXBDateTimeCtrl@@MAEXXZ 178D:?Draw@CGXBDateTimeCtrl@@MAEXAAVCDC@@@Z 1997:?AdvanceGadget@CGXBDateTimeCtrl@@IAEXXZ 1A5A:?RetreatGadget@CGXBDateTimeCtrl@@IAEXXZ 1B10:?SpinnerEvent@CGXBDateTimeCtrl@@IAEHIHJ@Z 1B6A:?PopupCalendar@CGXBDateTimeCtrl@@MAEHIHJ@Z 1D46:?UpdateGadgets@CGXBDateTimeCtrl@@IAEXI@Z 1F9F:?UpdateGadgets@CGXBDateTimeCtrl@@IAEXABVCOleDateTime@@@Z 20AF:?Validate@CGXBDateTimeCtrl@@MBEHAAVCOleDateTime@@H@Z 23B9:?OnNotify@CGXBDateTimeCtrl@@MAEHIHJ@Z 248B:?CaptureMouse@CGXBDateTimeCtrl@@IAEXPAVCGXBDTGadget@@H@Z 2532:?ResetGadgets@CGXBDateTimeCtrl@@IAEXXZ 25EB:?Tidy@CGXBDateTimeCtrl@@IAEXXZ 2671:?OnPaint@CGXBDateTimeCtrl@@IAEXXZ 28E7:?OnSetFocus@CGXBDateTimeCtrl@@IAEXPAVCWnd@@@Z 2A91:?OnKillFocus@CGXBDateTimeCtrl@@IAEXPAVCWnd@@@Z 2AE5:?OnChar@CGXBDateTimeCtrl@@IAEXIII@Z 2C47:?OnKeyDown@CGXBDateTimeCtrl@@IAEXIII@Z 2E8B:?OnSysKeyDown@CGXBDateTimeCtrl@@IAEXIII@Z 2EE9:?OnGetDlgCode@CGXBDateTimeCtrl@@IAEIXZ 2EF9:?OnLButtonDown@CGXBDateTimeCtrl@@IAEXIVCPoint@@@Z 309E:?OnLButtonUp@CGXBDateTimeCtrl@@IAEXIVCPoint@@@Z 312D:?OnMouseMove@CGXBDateTimeCtrl@@IAEXIVCPoint@@@Z 31BC:?OnCancelMode@CGXBDateTimeCtrl@@IAEXXZ 320D:?OnCalendarOK@CGXBDateTimeCtrl@@IAEJIJ@Z 332D:?OnCalendarCancel@CGXBDateTimeCtrl@@IAEJIJ@Z 337C:?OnSize@CGXBDateTimeCtrl@@IAEXIHH@Z 33B5:?OnSysColorChange@CGXBDateTimeCtrl@@IAEXXZ 341D:?OnSettingChange@CGXBDateTimeCtrl@@IAEJIJ@Z 3434:?OnSetFont@CGXBDateTimeCtrl@@IAEJIJ@Z 3464:?OnDestroy@CGXBDateTimeCtrl@@IAEXXZ 347F:?OnEnable@CGXBDateTimeCtrl@@IAEXH@Z 3496:?OnNcCalcSize@CGXBDateTimeCtrl@@IAEXHPAUtagNCCALCSIZE_PARAMS@@@Z 34E9:?OnNcPaint@CGXBDateTimeCtrl@@IAEXXZ 35EC:?GXBGetTmFromOleDate@@YGHNAAUtm@@@Z (l)386C:$DoTime$95032 38E0:?ParseDateTimeFormat@CGXBDateTimeCtrl@@IAEXXZ 3A08:?ParseHours@CGXBDateTimeCtrl@@IAEXAAPBD0I@Z 3B31:?ParseMinutes@CGXBDateTimeCtrl@@IAEXAAPBD0I@Z 3C29:?ParseSeconds@CGXBDateTimeCtrl@@IAEXAAPBD0I@Z 3D21:?ParseAmPm@CGXBDateTimeCtrl@@IAEXAAPBD0I@Z 3F09:?ParseDay@CGXBDateTimeCtrl@@IAEXAAPBD0I@Z 4173:?ParseMonth@CGXBDateTimeCtrl@@IAEXAAPBD0I@Z 43E3:?ParseYear@CGXBDateTimeCtrl@@IAEXAAPBD0I@Z 4541:?ParseEra@CGXBDateTimeCtrl@@IAEXAAPBD0I@Z 4583:?ParseQuotedText@CGXBDateTimeCtrl@@IAEXAAPBD0I@Z 4625:?FlushStatic@CGXBDateTimeCtrl@@IAEXPBD0@Z 46FF:?CheckLeadZero@CGXBDateTimeCtrl@@IBEHAAPBDD@Z 4746:?ChangeHour@CGXBDateTimeCtrl@@IAEHIHJ@Z 49B0:?ChangeMinute@CGXBDateTimeCtrl@@IAEHIHJ@Z 4BDC:?ChangeSecond@CGXBDateTimeCtrl@@IAEHIHJ@Z 4E08:?ChangeAmPm@CGXBDateTimeCtrl@@IAEHIHJ@Z 5026:?ChangeDay@CGXBDateTimeCtrl@@IAEHIHJ@Z 546E:?ChangeMonth@CGXBDateTimeCtrl@@IAEHIHJ@Z 56C1:?ChangeYear@CGXBDateTimeCtrl@@IAEHIHJ@Z 5998:?GetRuntimeClass@CGXBDTGadget@@UBEPAUCRuntimeClass@@XZ 59A8:??0CGXBDTGadget@@QAE@XZ 5A31:??1CGXBDTGadget@@UAE@XZ 5A82:?Initialise@CGXBDTGadget@@QAEHPAVCGXBDateTimeCtrl@@H@Z 5AA6:?GetStyle@CGXBDTGadget@@QBEHXZ 5AB7:?SetStyle@CGXBDTGadget@@QAEXH@Z 5ACD:?SetValue@CGXBDTGadget@@QAEXH@Z 5AE3:?GetValue@CGXBDTGadget@@QBEHXZ 5AF4:?GetID@CGXBDTGadget@@QBEHXZ 5B05:?GetRect@CGXBDTGadget@@QBEABVCRect@@XZ 5B16:?SetRect@CGXBDTGadget@@QAEXABUtagRECT@@@Z 5B32:?Enable@CGXBDTGadget@@UAEHH@Z 5B73:?Notify@CGXBDTGadget@@IAEHIHJ@Z 5BA0:?Invalidate@CGXBDTGadget@@IAEXH@Z 5BC0:?CaptureMouse@CGXBDTGadget@@IAEXH@Z 5BE0:?GetBkColor@CGXBDTGadget@@IBEKXZ 5BF7:?StartTimer@CGXBDTGadget@@IAEXI@Z 5C43:?StopTimer@CGXBDTGadget@@IAEXXZ 5CCA:?TimerProc@CGXBDTGadget@@KGXPAUHWND__@@IIK@Z 5CF6:??0CGXBDTSpinGadget@@QAE@XZ 5D33:??1CGXBDTSpinGadget@@UAE@XZ 5D4F:?CalcSize@CGXBDTSpinGadget@@MAEXAAVCDC@@@Z 5D7B:?Draw@CGXBDTSpinGadget@@MAEXAAVCDC@@@Z 5E7B:?OnLButtonDown@CGXBDTSpinGadget@@MAEXIVCPoint@@@Z 5F70:?OnLButtonUp@CGXBDTSpinGadget@@MAEXIVCPoint@@@Z 5FE0:?OnMouseMove@CGXBDTSpinGadget@@MAEXIVCPoint@@@Z 6112:?OnCancelMode@CGXBDTSpinGadget@@MAEXXZ 6180:?OnTimer@CGXBDTSpinGadget@@MAEXXZ 6259:?DrawPart@CGXBDTSpinGadget@@IAEXAAVCDC@@AAVCRect@@HH@Z 647A:?CheckHit@CGXBDTSpinGadget@@IBEHVCPoint@@@Z 64DB:??0CGXBDTListGadget@@QAE@XZ 655E:??1CGXBDTListGadget@@UAE@XZ 65C1:?Initialise@CGXBDTListGadget@@QAEHPAVCGXBDateTimeCtrl@@ABVCStringArray@@HH@Z 6603:?CalcSize@CGXBDTListGadget@@MAEXAAVCDC@@@Z 66AE:?Draw@CGXBDTListGadget@@MAEXAAVCDC@@@Z 672A:?Enable@CGXBDTListGadget@@MAEHH@Z 675E:?OnKeyDown@CGXBDTListGadget@@MAEXI@Z 68B8:?OnChar@CGXBDTListGadget@@MAEXI@Z 6B1B:?OnTimer@CGXBDTListGadget@@MAEXXZ 6B43:?FindMatch@CGXBDTListGadget@@IAEHPBDH@Z 6C1B:??0CGXBDTNumericGadget@@QAE@XZ 6C6C:??1CGXBDTNumericGadget@@UAE@XZ 6C88:?Initialise@CGXBDTNumericGadget@@QAEHPAVCGXBDateTimeCtrl@@HHHHH@Z 6D17:?CalcSize@CGXBDTNumericGadget@@MAEXAAVCDC@@@Z 6D57:?Draw@CGXBDTNumericGadget@@MAEXAAVCDC@@@Z 6E56:?Enable@CGXBDTNumericGadget@@MAEHH@Z 6E80:?OnKeyDown@CGXBDTNumericGadget@@MAEXI@Z 6FFF:?OnChar@CGXBDTNumericGadget@@MAEXI@Z 7107:?OnCancelMode@CGXBDTNumericGadget@@MAEXXZ 7123:?Validate@CGXBDTNumericGadget@@IAEHXZ 71B2:??0CGXBDTButtonGadget@@QAE@XZ 721D:??1CGXBDTButtonGadget@@UAE@XZ 7271:?Initialise@CGXBDTButtonGadget@@QAEHPAVCGXBDateTimeCtrl@@PBDH@Z 72BC:?CalcSize@CGXBDTButtonGadget@@MAEXAAVCDC@@@Z 72E8:?Draw@CGXBDTButtonGadget@@MAEXAAVCDC@@@Z 74F9:?OnLButtonDown@CGXBDTButtonGadget@@MAEXIVCPoint@@@Z 7529:?OnLButtonUp@CGXBDTButtonGadget@@MAEXIVCPoint@@@Z 75BC:?OnMouseMove@CGXBDTButtonGadget@@MAEXIVCPoint@@@Z 763B:?OnCancelMode@CGXBDTButtonGadget@@MAEXXZ 7694:?OnSysColorChange@CGXBDTButtonGadget@@MAEXXZ 76C6:??0CGXBDTStaticGadget@@QAE@XZ 7727:??1CGXBDTStaticGadget@@UAE@XZ 777B:?Initialise@CGXBDTStaticGadget@@QAEHPAVCGXBDateTimeCtrl@@PBDH@Z 77B4:?GetCaption@CGXBDTStaticGadget@@QBE?AVCString@@XZ 77E5:?CalcSize@CGXBDTStaticGadget@@MAEXAAVCDC@@@Z 7827:?Draw@CGXBDTStaticGadget@@MAEXAAVCDC@@@Z (062C: 74)
                13. 08 AAD6 0C45 0000:?GetControlClass@CGXCheckListComboBox@@UBEPAUCGXControlClass@@XZ 0010:?GetRuntimeClass@CGXCheckListComboBox@@UBEPAUCRuntimeClass@@XZ 0020:?GetRuntimeClass@CGXCheckListComboLBox@@UBEPAUCRuntimeClass@@XZ 0030:??0CGXCheckListComboLBox@@QAE@PAVCWnd@@@Z 0078:?Create@CGXCheckListComboLBox@@QAEXKABUtagRECT@@PAVCWnd@@I@Z 00CA:??1CGXCheckListComboLBox@@UAE@XZ 00E6:?GetMessageMap@CGXCheckListComboLBox@@MBEPBUAFX_MSGMAP@@XZ 00F6:?OnKeyDown@CGXCheckListComboLBox@@IAEXIII@Z 0147:?OnLButtonDown@CGXCheckListComboLBox@@IAEXIVCPoint@@@Z 0180:?OnLButtonUp@CGXCheckListComboLBox@@IAEXIVCPoint@@@Z 01AB:?OnEraseBkgnd@CGXCheckListComboLBox@@IAEHPAVCDC@@@Z 022F:?OnProcessChar@CGXCheckListComboBox@@UAEHIII@Z 024C:?CalcEditStyle@CGXCheckListComboBox@@UAEKPAUtagRECT@@AAH@Z 0274:?OnKeyUp@CGXCheckListComboLBox@@IAEXIII@Z 0322:?OnKillFocus@CGXCheckListComboLBox@@IAEXPAVCWnd@@@Z 0358:?OnSysKeyUp@CGXCheckListComboLBox@@IAEXIII@Z 039E:?OnSysKeyDown@CGXCheckListComboLBox@@IAEXIII@Z 03C9:??0CGXCheckListComboBox@@QAE@PAVCGXGridCore@@II@Z 0402:??1CGXCheckListComboBox@@UAE@XZ 0428:?GetMessageMap@CGXCheckListComboBox@@MBEPBUAFX_MSGMAP@@XZ 0438:?GetControlText@CGXCheckListComboBox@@UAEHAAVCString@@KKPBDABVCGXStyle@@@Z 04BF:?CreateListBox@CGXCheckListComboBox@@UAEPAVCWnd@@PAV2@I@Z 0599:?OnFillDroppedList@CGXCheckListComboBox@@UAEXPAVCListBox@@@Z 0751:?OnStoreDroppedList@CGXCheckListComboBox@@UAEXPAVCListBox@@@Z 0920:?OnListBoxEnd@CGXCheckListComboBox@@IAEJIJ@Z 0A5D:?OnListBoxCancel@CGXCheckListComboBox@@IAEJIJ@Z 0A7A:?OnListBoxChanged@CGXCheckListComboBox@@IAEJIJ@Z 0A89:?OnListBoxKillFocus@CGXCheckListComboBox@@IAEJIJ@Z 0ADD:?KeyPressed@CGXCheckListComboBox@@UAEHIIII@Z 0B0F:?OnSetFocus@CGXCheckListComboBox@@IAEXPAVCWnd@@@Z 0B37:?Draw@CGXCheckListComboBox@@UAEXPAVCDC@@VCRect@@KKABVCGXStyle@@PBV4@@Z 0C13:?LButtonUp@CGXCheckListComboBox@@UAEHIVCPoint@@I@Z 0C38:?SetActive@CGXCheckListComboBox@@UAEXH@Z
                14. 06 D72B 50C5 0000:?GetRuntimeClass@CGXCurrencyEdit@@UBEPAUCRuntimeClass@@XZ 0010:?GetControlClass@CGXCurrencyEdit@@UBEPAUCGXControlClass@@XZ 0020:??0CGXCurrencyEdit@@QAE@PAVCGXGridCore@@I@Z 0151:??1CGXCurrencyEdit@@UAE@XZ 0223:?CreateControl@CGXCurrencyEdit@@UAEHK@Z (l)0379:?AfxRegisterNamedWndClass@@YAHPBDIPAUHICON__@@PAUHBRUSH__@@1@Z 0425:?GetMessageMap@CGXCurrencyEdit@@MBEPBUAFX_MSGMAP@@XZ 0435:?SetActive@CGXCurrencyEdit@@UAEXH@Z 046F:?IsActive@CGXCurrencyEdit@@UAEHXZ 0480:?SetModify@CGXCurrencyEdit@@UAEXH@Z 0496:?GetModify@CGXCurrencyEdit@@UAEHXZ 04A7:?Init@CGXCurrencyEdit@@UAEXKK@Z 0675:?InitFromUserAttributes@CGXCurrencyEdit@@UAEXPAVCGXBCurrencyEdit@@PBVCGXStyle@@@Z 0A07:?SetCurrentText@CGXCurrencyEdit@@UAEXABVCString@@@Z 0A91:?GetCurrentText@CGXCurrencyEdit@@UAEXAAVCString@@@Z 0B0F:?GetValue@CGXCurrencyEdit@@UAEHAAVCString@@@Z 0DD8:?SetValue@CGXCurrencyEdit@@UAEXPBD@Z 0E6F:?Store@CGXCurrencyEdit@@UAEHXZ 0F5E:?Draw@CGXCurrencyEdit@@UAEXPAVCDC@@VCRect@@KKABVCGXStyle@@PBV4@@Z 186A:?Hide@CGXCurrencyEdit@@UAEXXZ 18EB:?LButtonUp@CGXCurrencyEdit@@UAEHIVCPoint@@I@Z 1A26:?LButtonDblClk@CGXCurrencyEdit@@UAEHIVCPoint@@@Z 1ABA:?OnGridKeyDown@CGXCurrencyEdit@@UAEHIII@Z 1CD3:?OnGridChar@CGXCurrencyEdit@@UAEHIII@Z 1D8B:?OnGridDoubleByteChar@CGXCurrencyEdit@@UAEHABVCString@@II@Z 1D9D:?Cut@CGXCurrencyEdit@@UAEHXZ 1DB0:?Copy@CGXCurrencyEdit@@UAEHXZ 1DC3:?Paste@CGXCurrencyEdit@@UAEHXZ 1DD6:?OnKeyDown@CGXCurrencyEdit@@IAEXIII@Z 2204:?OnChar@CGXCurrencyEdit@@IAEXIII@Z 23BF:?OnKeyUp@CGXCurrencyEdit@@IAEXIII@Z 241A:?OnSysKeyDown@CGXCurrencyEdit@@IAEXIII@Z 2475:?OnSysChar@CGXCurrencyEdit@@IAEXIII@Z 24D0:?OnSysKeyUp@CGXCurrencyEdit@@IAEXIII@Z 252B:?OnLButtonDown@CGXCurrencyEdit@@IAEXIVCPoint@@@Z 2660:?OnCommand@CGXCurrencyEdit@@UAEHIJ@Z 26E0:?FindTextA@CGXCurrencyEdit@@UAEHABUGX_FR_STATE@@KKHH@Z 32C7:?ReplaceSel@CGXCurrencyEdit@@UAEXPBD@Z 3375:?ReplaceAll@CGXCurrencyEdit@@UAEHABUGX_FR_STATE@@KK@Z 3FAD:?GetSelectedText@CGXCurrencyEdit@@UAEHAAVCString@@@Z 40AF:?CalcTextPosUnderPt@CGXCurrencyEdit@@QAEHVCPoint@@@Z 42AC:?OnKillFocus@CGXCurrencyEdit@@IAEXPAVCWnd@@@Z 42D7:?OnGetDlgCode@CGXCurrencyEdit@@IAEIXZ 42F0:?OnEraseBkgnd@CGXCurrencyEdit@@IAEHPAVCDC@@@Z 4302:?OnSetText@CGXCurrencyEdit@@IAEJIJ@Z 4433:?OnCalcSetText@CGXCurrencyEdit@@IAEJIJ@Z 4580:?GetControlText@CGXCurrencyEdit@@UAEHAAVCString@@KKPBDABVCGXStyle@@@Z 4876:?AddUserAttributes@CGXCurrencyEdit@@SGXPAVCGXStylesMap@@@Z 4A6D:?ConvertControlTextToValue@CGXCurrencyEdit@@UAEHAAVCString@@KKPBVCGXStyle@@@Z 4C9F:?GetSortKey@CGXCurrencyEdit@@UAEXKKABUCGXSortInfo@@ABVCGXStyle@@AAVCString@@@Z 4E15:?GetWndPtr@CGXCurrencyEdit@@UBEPAVCWnd@@XZ 4E28:?CanFloatCell@CGXCurrencyEdit@@UAEHKKABVCGXStyle@@H@Z 4E37:?OnGridSysKeyDown@CGXCurrencyEdit@@UAEHIII@Z 4F19:?HitTestBtn@CGXCurrencyEdit@@UBEHVCPoint@@H@Z 4F4D:?StoreStyle@CGXCurrencyEdit@@UAEHKKPBVCGXStyle@@W4GXModifyType@@H0@Z (1B0C: 01)
                15. 06 D72B 5126 0000:?GetRuntimeClass@CGXCurrencyEdit@@UBEPAUCRuntimeClass@@XZ 0010:?GetControlClass@CGXCurrencyEdit@@UBEPAUCGXControlClass@@XZ 0020:??0CGXCurrencyEdit@@QAE@PAVCGXGridCore@@I@Z 0151:??1CGXCurrencyEdit@@UAE@XZ 0223:?CreateControl@CGXCurrencyEdit@@UAEHK@Z (l)0379:?AfxRegisterNamedWndClass@@YAHPBGIPAUHICON__@@PAUHBRUSH__@@1@Z 0425:?GetMessageMap@CGXCurrencyEdit@@MBEPBUAFX_MSGMAP@@XZ 0435:?SetActive@CGXCurrencyEdit@@UAEXH@Z 046F:?IsActive@CGXCurrencyEdit@@UAEHXZ 0480:?SetModify@CGXCurrencyEdit@@UAEXH@Z 0496:?GetModify@CGXCurrencyEdit@@UAEHXZ 04A7:?Init@CGXCurrencyEdit@@UAEXKK@Z 0675:?InitFromUserAttributes@CGXCurrencyEdit@@UAEXPAVCGXBCurrencyEdit@@PBVCGXStyle@@@Z 0A23:?SetCurrentText@CGXCurrencyEdit@@UAEXABVCString@@@Z 0AAD:?GetCurrentText@CGXCurrencyEdit@@UAEXAAVCString@@@Z 0B2B:?GetValue@CGXCurrencyEdit@@UAEHAAVCString@@@Z 0DFA:?SetValue@CGXCurrencyEdit@@UAEXPBG@Z 0E91:?Store@CGXCurrencyEdit@@UAEHXZ 0F80:?Draw@CGXCurrencyEdit@@UAEXPAVCDC@@VCRect@@KKABVCGXStyle@@PBV4@@Z 186B:?Hide@CGXCurrencyEdit@@UAEXXZ 18EC:?LButtonUp@CGXCurrencyEdit@@UAEHIVCPoint@@I@Z 1A27:?LButtonDblClk@CGXCurrencyEdit@@UAEHIVCPoint@@@Z 1ABB:?OnGridKeyDown@CGXCurrencyEdit@@UAEHIII@Z 1CD4:?OnGridChar@CGXCurrencyEdit@@UAEHIII@Z 1D8C:?OnGridDoubleByteChar@CGXCurrencyEdit@@UAEHABVCString@@II@Z 1D9E:?Cut@CGXCurrencyEdit@@UAEHXZ 1DB1:?Copy@CGXCurrencyEdit@@UAEHXZ 1DC4:?Paste@CGXCurrencyEdit@@UAEHXZ 1DD7:?OnKeyDown@CGXCurrencyEdit@@IAEXIII@Z 2205:?OnChar@CGXCurrencyEdit@@IAEXIII@Z 23C0:?OnKeyUp@CGXCurrencyEdit@@IAEXIII@Z 241B:?OnSysKeyDown@CGXCurrencyEdit@@IAEXIII@Z 2476:?OnSysChar@CGXCurrencyEdit@@IAEXIII@Z 24D1:?OnSysKeyUp@CGXCurrencyEdit@@IAEXIII@Z 252C:?OnLButtonDown@CGXCurrencyEdit@@IAEXIVCPoint@@@Z 2661:?OnCommand@CGXCurrencyEdit@@UAEHIJ@Z 26E1:?FindTextW@CGXCurrencyEdit@@UAEHABUGX_FR_STATE@@KKHH@Z 32F4:?ReplaceSel@CGXCurrencyEdit@@UAEXPBG@Z 33A2:?ReplaceAll@CGXCurrencyEdit@@UAEHABUGX_FR_STATE@@KK@Z 4008:?GetSelectedText@CGXCurrencyEdit@@UAEHAAVCString@@@Z 410A:?CalcTextPosUnderPt@CGXCurrencyEdit@@QAEHVCPoint@@@Z 4307:?OnKillFocus@CGXCurrencyEdit@@IAEXPAVCWnd@@@Z 4332:?OnGetDlgCode@CGXCurrencyEdit@@IAEIXZ 434B:?OnEraseBkgnd@CGXCurrencyEdit@@IAEHPAVCDC@@@Z 435D:?OnSetText@CGXCurrencyEdit@@IAEJIJ@Z 448E:?OnCalcSetText@CGXCurrencyEdit@@IAEJIJ@Z 45DB:?GetControlText@CGXCurrencyEdit@@UAEHAAVCString@@KKPBGABVCGXStyle@@@Z 48D1:?AddUserAttributes@CGXCurrencyEdit@@SGXPAVCGXStylesMap@@@Z 4AC8:?ConvertControlTextToValue@CGXCurrencyEdit@@UAEHAAVCString@@KKPBVCGXStyle@@@Z 4D00:?GetSortKey@CGXCurrencyEdit@@UAEXKKABUCGXSortInfo@@ABVCGXStyle@@AAVCString@@@Z 4E76:?GetWndPtr@CGXCurrencyEdit@@UBEPAVCWnd@@XZ 4E89:?CanFloatCell@CGXCurrencyEdit@@UAEHKKABVCGXStyle@@H@Z 4E98:?OnGridSysKeyDown@CGXCurrencyEdit@@UAEHIII@Z 4F7A:?HitTestBtn@CGXCurrencyEdit@@UBEHVCPoint@@H@Z 4FAE:?StoreStyle@CGXCurrencyEdit@@UAEHKKPBVCGXStyle@@W4GXModifyType@@H0@Z (1B0C: 30)
                16. 06 D72B 3FBF 0000:?GetControlClass@CGXEditControl@@UBEPAUCGXControlClass@@XZ 0010:?GetRuntimeClass@CGXEditControl@@UBEPAUCRuntimeClass@@XZ 0020:??0CGXEditControl@@QAE@PAVCGXGridCore@@I@Z 014B:??1CGXEditControl@@UAE@XZ 01F0:?CreateControl@CGXEditControl@@MAEHKPAUtagRECT@@@Z 024D:?GetWndPtr@CGXEditControl@@UBEPAVCWnd@@XZ 025E:?GetMessageMap@CGXEditControl@@MBEPBUAFX_MSGMAP@@XZ 026E:?OnImeStartComposition@CGXEditControl@@IAEJIJ@Z 028D:?OnImeEndComposition@CGXEditControl@@IAEJIJ@Z 02AC:?SetActive@CGXEditControl@@UAEXH@Z 0376:?IsActive@CGXEditControl@@UAEHXZ 0387:?SetModify@CGXEditControl@@UAEXH@Z 03AC:?GetModify@CGXEditControl@@UAEHXZ 03E4:?Init@CGXEditControl@@UAEXKK@Z 050F:?SetCurrentText@CGXEditControl@@UAEXABVCString@@@Z 05EA:?GetCurrentText@CGXEditControl@@UAEXAAVCString@@@Z 066D:?GetValue@CGXEditControl@@UAEHAAVCString@@@Z 069E:?CanFloatCell@CGXEditControl@@UAEHKKABVCGXStyle@@H@Z 06F0:?OnEndEditing@CGXEditControl@@UAEHXZ 073A:?SetValue@CGXEditControl@@UAEXPBD@Z 08EF:?Store@CGXEditControl@@UAEHXZ 09E8:?Draw@CGXEditControl@@UAEXPAVCDC@@VCRect@@KKABVCGXStyle@@PBV4@@Z 1446:?Hide@CGXEditControl@@UAEXXZ 14B8:?LButtonUp@CGXEditControl@@UAEHIVCPoint@@I@Z 15E8:?LButtonDblClk@CGXEditControl@@UAEHIVCPoint@@@Z 16FB:?OnGridKeyDown@CGXEditControl@@UAEHIII@Z 19B0:?OnGridChar@CGXEditControl@@UAEHIII@Z 1A90:?OnGridDoubleByteChar@CGXEditControl@@UAEHABVCString@@II@Z 1CF1:?Cut@CGXEditControl@@UAEHXZ 1D04:?Copy@CGXEditControl@@UAEHXZ 1D17:?Paste@CGXEditControl@@UAEHXZ 1D32:?OnKeyDown@CGXEditControl@@IAEXIII@Z 2092:?OnChar@CGXEditControl@@IAEXIII@Z 21EC:?OnProcessChar@CGXEditControl@@UAEHIII@Z 2676:?OnKeyUp@CGXEditControl@@IAEXIII@Z 26F4:?OnSysKeyDown@CGXEditControl@@IAEXIII@Z 274C:?OnSysChar@CGXEditControl@@IAEXIII@Z 27A4:?OnSysKeyUp@CGXEditControl@@IAEXIII@Z 27FC:?OnLButtonDown@CGXEditControl@@IAEXIVCPoint@@@Z 2949:?OnCommand@CGXEditControl@@UAEHIJ@Z 2B17:?FindTextA@CGXEditControl@@UAEHABUGX_FR_STATE@@KKHH@Z 2E75:?ValidatePaste@CGXEditControl@@UAEHABVCString@@@Z 2FC4:?ReplaceSel@CGXEditControl@@UAEXPBD@Z 301E:?ReplaceAll@CGXEditControl@@UAEHABUGX_FR_STATE@@KK@Z 3469:?GetSelectedText@CGXEditControl@@UAEHAAVCString@@@Z 3562:?CalcTextPosUnderPt@CGXEditControl@@QAEHVCPoint@@@Z 3704:?SetWrapText@CGXEditControl@@QAEXH@Z 371D:?SetAllowEnter@CGXEditControl@@QAEXH@Z 3736:?SetVertScrollBar@CGXEditControl@@QAEXH@Z 374C:?SetCellColor@CGXEditControl@@QAEXK@Z 3765:?SetTextAlign@CGXEditControl@@QAEXI@Z 378A:?UpdateEditStyle@CGXEditControl@@IAEHXZ 3AA4:?GetLastVisibleLine@CGXEditControl@@IAEHPAUtagRECT@@@Z 3B92:?CalcEditStyle@CGXEditControl@@MAEKPAUtagRECT@@AAH@Z 3EA2:?OnKillFocus@CGXEditControl@@IAEXPAVCWnd@@@Z 3ECA:?OnGetDlgCode@CGXEditControl@@IAEIXZ 3EE3:?OnEraseBkgnd@CGXEditControl@@IAEHPAVCDC@@@Z 3F66:?OnShowWindow@CGXEditControl@@IAEXHI@Z 3F91:?OnSetFocus@CGXEditControl@@IAEXPAVCWnd@@@Z 3FB2:?OnContextMenu@CGXEditControl@@IAEXPAVCWnd@@VCPoint@@@Z (1B0C: 89)
                17. 06 D72B 3FF1 0000:?GetControlClass@CGXEditControl@@UBEPAUCGXControlClass@@XZ 0010:?GetRuntimeClass@CGXEditControl@@UBEPAUCRuntimeClass@@XZ 0020:??0CGXEditControl@@QAE@PAVCGXGridCore@@I@Z 014B:??1CGXEditControl@@UAE@XZ 01F0:?CreateControl@CGXEditControl@@MAEHKPAUtagRECT@@@Z 024D:?GetWndPtr@CGXEditControl@@UBEPAVCWnd@@XZ 025E:?GetMessageMap@CGXEditControl@@MBEPBUAFX_MSGMAP@@XZ 026E:?OnImeStartComposition@CGXEditControl@@IAEJIJ@Z 028D:?OnImeEndComposition@CGXEditControl@@IAEJIJ@Z 02AC:?SetActive@CGXEditControl@@UAEXH@Z 0376:?IsActive@CGXEditControl@@UAEHXZ 0387:?SetModify@CGXEditControl@@UAEXH@Z 03AC:?GetModify@CGXEditControl@@UAEHXZ 03E4:?Init@CGXEditControl@@UAEXKK@Z 050F:?SetCurrentText@CGXEditControl@@UAEXABVCString@@@Z 05EA:?GetCurrentText@CGXEditControl@@UAEXAAVCString@@@Z 066D:?GetValue@CGXEditControl@@UAEHAAVCString@@@Z 069E:?CanFloatCell@CGXEditControl@@UAEHKKABVCGXStyle@@H@Z 06F0:?OnEndEditing@CGXEditControl@@UAEHXZ 073A:?SetValue@CGXEditControl@@UAEXPBG@Z 08EF:?Store@CGXEditControl@@UAEHXZ 09E8:?Draw@CGXEditControl@@UAEXPAVCDC@@VCRect@@KKABVCGXStyle@@PBV4@@Z 144F:?Hide@CGXEditControl@@UAEXXZ 14C1:?LButtonUp@CGXEditControl@@UAEHIVCPoint@@I@Z 15F1:?LButtonDblClk@CGXEditControl@@UAEHIVCPoint@@@Z 1704:?OnGridKeyDown@CGXEditControl@@UAEHIII@Z 19B9:?OnGridChar@CGXEditControl@@UAEHIII@Z 1A9B:?OnGridDoubleByteChar@CGXEditControl@@UAEHABVCString@@II@Z 1CFC:?Cut@CGXEditControl@@UAEHXZ 1D0F:?Copy@CGXEditControl@@UAEHXZ 1D22:?Paste@CGXEditControl@@UAEHXZ 1D3D:?OnKeyDown@CGXEditControl@@IAEXIII@Z 209D:?OnChar@CGXEditControl@@IAEXIII@Z 21F7:?OnProcessChar@CGXEditControl@@UAEHIII@Z 2687:?OnKeyUp@CGXEditControl@@IAEXIII@Z 2705:?OnSysKeyDown@CGXEditControl@@IAEXIII@Z 275D:?OnSysChar@CGXEditControl@@IAEXIII@Z 27B5:?OnSysKeyUp@CGXEditControl@@IAEXIII@Z 280D:?OnLButtonDown@CGXEditControl@@IAEXIVCPoint@@@Z 295A:?OnCommand@CGXEditControl@@UAEHIJ@Z 2B28:?FindTextW@CGXEditControl@@UAEHABUGX_FR_STATE@@KKHH@Z 2E8C:?ValidatePaste@CGXEditControl@@UAEHABVCString@@@Z 2FDB:?ReplaceSel@CGXEditControl@@UAEXPBG@Z 3035:?ReplaceAll@CGXEditControl@@UAEHABUGX_FR_STATE@@KK@Z 349B:?GetSelectedText@CGXEditControl@@UAEHAAVCString@@@Z 3594:?CalcTextPosUnderPt@CGXEditControl@@QAEHVCPoint@@@Z 3736:?SetWrapText@CGXEditControl@@QAEXH@Z 374F:?SetAllowEnter@CGXEditControl@@QAEXH@Z 3768:?SetVertScrollBar@CGXEditControl@@QAEXH@Z 377E:?SetCellColor@CGXEditControl@@QAEXK@Z 3797:?SetTextAlign@CGXEditControl@@QAEXI@Z 37BC:?UpdateEditStyle@CGXEditControl@@IAEHXZ 3AD6:?GetLastVisibleLine@CGXEditControl@@IAEHPAUtagRECT@@@Z 3BC4:?CalcEditStyle@CGXEditControl@@MAEKPAUtagRECT@@AAH@Z 3ED4:?OnKillFocus@CGXEditControl@@IAEXPAVCWnd@@@Z 3EFC:?OnGetDlgCode@CGXEditControl@@IAEIXZ 3F15:?OnEraseBkgnd@CGXEditControl@@IAEHPAVCDC@@@Z 3F98:?OnShowWindow@CGXEditControl@@IAEXHI@Z 3FC3:?OnSetFocus@CGXEditControl@@IAEXPAVCWnd@@@Z 3FE4:?OnContextMenu@CGXEditControl@@IAEXPAVCWnd@@VCPoint@@@Z (1B0C: 55)
                18. 06 D72B 4EEB 0000:?GetControlClass@CGXRichEditCtrl@@UBEPAUCGXControlClass@@XZ 0010:?GetRuntimeClass@CGXRichEditCtrl@@UBEPAUCRuntimeClass@@XZ 0020:??0CGXRichEditCtrl@@QAE@PAVCGXGridCore@@@Z 015D:??1CGXRichEditCtrl@@UAE@XZ 02C2:?GetWndPtr@CGXRichEditCtrl@@UBEPAVCWnd@@XZ 02D3:?SetEventMask@CGXRichEditCtrl@@QAEKK@Z 02F5:?CreateControl@CGXRichEditCtrl@@QAEHKI@Z 040C:?GetMessageMap@CGXRichEditCtrl@@MBEPBUAFX_MSGMAP@@XZ 041C:?SetActive@CGXRichEditCtrl@@UAEXH@Z 0489:?IsActive@CGXRichEditCtrl@@UAEHXZ 049A:?SetModify@CGXRichEditCtrl@@UAEXH@Z 04B6:?GetModify@CGXRichEditCtrl@@UAEHXZ 04CC:?Init@CGXRichEditCtrl@@UAEXKK@Z 066A:?_GXEditStreamInCallback@@YGKKPAEJPAJ@Z 06F3:?_GXEditStreamOutCallback@@YGKKPAEJPAJ@Z 076C:?_GXEditStreamCountCallback@@YGKKPAEJPAJ@Z 077D:?SetRichText@CGXRichEditCtrl@@SGXPAVCRichEditCtrl@@PBD@Z 07CD:?GetRichText@CGXRichEditCtrl@@SG?AVCString@@PAVCRichEditCtrl@@AAV2@@Z 082D:?GetSelectedText@CGXRichEditCtrl@@UAEHAAVCString@@@Z 08F8:?GetCurrentText@CGXRichEditCtrl@@UAEXAAVCString@@@Z 097B:?SetCurrentText@CGXRichEditCtrl@@UAEXABVCString@@@Z 0A89:?GetControlText@CGXRichEditCtrl@@UAEHAAVCString@@KKPBDABVCGXStyle@@@Z 0B31:?ConvertControlTextToValue@CGXRichEditCtrl@@UAEHAAVCString@@KKPBVCGXStyle@@@Z 0D56:?SetControlText@CGXRichEditCtrl@@UAEHKKABVCString@@IPBVCGXStyle@@@Z 0EC9:?GetValue@CGXRichEditCtrl@@UAEHAAVCString@@@Z 0F36:?SetValue@CGXRichEditCtrl@@UAEXPBD@Z 0F53:?ValidateString@CGXRichEditCtrl@@UAEHABVCString@@@Z 0F65:?Store@CGXRichEditCtrl@@UAEHXZ 1053:?ConvertRTFToStyle@CGXRichEditCtrl@@UAEXABU_paraformat@@ABU_charformat@@PAVCGXStyle@@@Z 1208:?ConvertStyleToRTF@CGXRichEditCtrl@@UAEXAAU_paraformat@@AAU_charformat@@PBVCGXStyle@@@Z 145E:?StoreStyle@CGXRichEditCtrl@@UAEHKKPBVCGXStyle@@W4GXModifyType@@H0@Z 198E:?LoadStyle@CGXRichEditCtrl@@UAEHKKPAVCGXStyle@@@Z 1C4D:?GetCellRect@CGXRichEditCtrl@@UAE?AVCRect@@KKPAUtagRECT@@PBVCGXStyle@@@Z 1CF6:?AddBorders@CGXRichEditCtrl@@UAE?AVCSize@@V2@ABVCGXStyle@@@Z 1D88:?Draw@CGXRichEditCtrl@@UAEXPAVCDC@@VCRect@@KKABVCGXStyle@@PBV4@@Z 2A41:?Hide@CGXRichEditCtrl@@UAEXXZ 2A93:?LButtonUp@CGXRichEditCtrl@@UAEHIVCPoint@@I@Z 2BFF:?LButtonDblClk@CGXRichEditCtrl@@UAEHIVCPoint@@@Z 2D92:?FindTextA@CGXRichEditCtrl@@UAEHABUGX_FR_STATE@@KKHH@Z 3093:?ReplaceSel@CGXRichEditCtrl@@UAEXPBD@Z 30D8:?ReplaceAll@CGXRichEditCtrl@@UAEHABUGX_FR_STATE@@KK@Z 3446:?OnRequestResize@CGXRichEditCtrl@@IAEHPAUtagNMHDR@@PAJ@Z 38C9:?CalcSize@CGXRichEditCtrl@@UAE?AVCSize@@PAVCDC@@KKABVCGXStyle@@PBV4@H@Z 3C0E:?OnChildRequestResize@CGXRichEditCtrl@@IAEHIPAUtagNMHDR@@PAJ@Z 3C5A:?CanCopy@CGXRichEditCtrl@@UAEHXZ 3C6D:?Copy@CGXRichEditCtrl@@UAEHXZ 3CBA:?CanCut@CGXRichEditCtrl@@UAEHXZ 3CCD:?Cut@CGXRichEditCtrl@@UAEHXZ 3D0A:?CanPaste@CGXRichEditCtrl@@UAEHXZ 3D6B:?Paste@CGXRichEditCtrl@@UAEHXZ 3E4C:?OnGridKeyDown@CGXRichEditCtrl@@UAEHIII@Z 40CF:?OnGridChar@CGXRichEditCtrl@@UAEHIII@Z 416C:?OnGridDoubleByteChar@CGXRichEditCtrl@@UAEHABVCString@@II@Z 4336:?OnKeyDown@CGXRichEditCtrl@@IAEXIII@Z 470C:?OnChar@CGXRichEditCtrl@@IAEXIII@Z 4B65:?OnKeyUp@CGXRichEditCtrl@@IAEXIII@Z 4BBD:?OnSysKeyDown@CGXRichEditCtrl@@IAEXIII@Z 4C15:?OnSysChar@CGXRichEditCtrl@@IAEXIII@Z 4C6D:?OnSysKeyUp@CGXRichEditCtrl@@IAEXIII@Z 4CC5:?OnDeadChar@CGXRichEditCtrl@@IAEXIII@Z 4D1D:?OnSysDeadChar@CGXRichEditCtrl@@IAEXIII@Z 4D75:?OnEraseBkgnd@CGXRichEditCtrl@@IAEHPAVCDC@@@Z 4DED:?OnCommand@CGXRichEditCtrl@@UAEHIJ@Z 4E5E:?OnKillFocus@CGXRichEditCtrl@@IAEXPAVCWnd@@@Z 4E86:?OnGetDlgCode@CGXRichEditCtrl@@IAEIXZ 4E9F:?OnLButtonDown@CGXRichEditCtrl@@IAEXIVCPoint@@@Z 4ECA:?OnLButtonUp@CGXRichEditCtrl@@IAEXIVCPoint@@@Z (1B0C: 00)
                19. 06 D72B 5070 0000:?GetControlClass@CGXRichEditCtrl@@UBEPAUCGXControlClass@@XZ 0010:?GetRuntimeClass@CGXRichEditCtrl@@UBEPAUCRuntimeClass@@XZ 0020:??0CGXRichEditCtrl@@QAE@PAVCGXGridCore@@@Z 015D:??1CGXRichEditCtrl@@UAE@XZ 02C2:?GetWndPtr@CGXRichEditCtrl@@UBEPAVCWnd@@XZ 02D3:?SetEventMask@CGXRichEditCtrl@@QAEKK@Z 02F5:?CreateControl@CGXRichEditCtrl@@QAEHKI@Z 040C:?GetMessageMap@CGXRichEditCtrl@@MBEPBUAFX_MSGMAP@@XZ 041C:?SetActive@CGXRichEditCtrl@@UAEXH@Z 0489:?IsActive@CGXRichEditCtrl@@UAEHXZ 049A:?SetModify@CGXRichEditCtrl@@UAEXH@Z 04B6:?GetModify@CGXRichEditCtrl@@UAEHXZ 04CC:?Init@CGXRichEditCtrl@@UAEXKK@Z 066A:?_GXEditStreamInCallback@@YGKKPAEJPAJ@Z 06F3:?_GXEditStreamOutCallback@@YGKKPAEJPAJ@Z 077C:?_GXEditStreamCountCallback@@YGKKPAEJPAJ@Z 078D:?SetRichText@CGXRichEditCtrl@@SGXPAVCRichEditCtrl@@PBD@Z 07DD:?SetRichText@CGXRichEditCtrl@@SGXPAVCRichEditCtrl@@PBG@Z 08A4:?GetRichText@CGXRichEditCtrl@@SG?AVCString@@PAVCRichEditCtrl@@AAV2@@Z 0904:?GetSelectedText@CGXRichEditCtrl@@UAEHAAVCString@@@Z 09CF:?GetCurrentText@CGXRichEditCtrl@@UAEXAAVCString@@@Z 0A52:?SetCurrentText@CGXRichEditCtrl@@UAEXABVCString@@@Z 0B60:?GetControlText@CGXRichEditCtrl@@UAEHAAVCString@@KKPBGABVCGXStyle@@@Z 0C08:?ConvertControlTextToValue@CGXRichEditCtrl@@UAEHAAVCString@@KKPBVCGXStyle@@@Z 0E2D:?SetControlText@CGXRichEditCtrl@@UAEHKKABVCString@@IPBVCGXStyle@@@Z 0FA0:?GetValue@CGXRichEditCtrl@@UAEHAAVCString@@@Z 100D:?SetValue@CGXRichEditCtrl@@UAEXPBG@Z 102A:?ValidateString@CGXRichEditCtrl@@UAEHABVCString@@@Z 103C:?Store@CGXRichEditCtrl@@UAEHXZ 112A:?ConvertRTFToStyle@CGXRichEditCtrl@@UAEXABU_paraformat@@ABU_charformat@@PAVCGXStyle@@@Z 130A:?ConvertStyleToRTF@CGXRichEditCtrl@@UAEXAAU_paraformat@@AAU_charformat@@PBVCGXStyle@@@Z 156A:?StoreStyle@CGXRichEditCtrl@@UAEHKKPBVCGXStyle@@W4GXModifyType@@H0@Z 1A9A:?LoadStyle@CGXRichEditCtrl@@UAEHKKPAVCGXStyle@@@Z 1D59:?GetCellRect@CGXRichEditCtrl@@UAE?AVCRect@@KKPAUtagRECT@@PBVCGXStyle@@@Z 1E02:?AddBorders@CGXRichEditCtrl@@UAE?AVCSize@@V2@ABVCGXStyle@@@Z 1E94:?Draw@CGXRichEditCtrl@@UAEXPAVCDC@@VCRect@@KKABVCGXStyle@@PBV4@@Z 2B4D:?Hide@CGXRichEditCtrl@@UAEXXZ 2B9F:?LButtonUp@CGXRichEditCtrl@@UAEHIVCPoint@@I@Z 2D0B:?LButtonDblClk@CGXRichEditCtrl@@UAEHIVCPoint@@@Z 2E9E:?FindTextW@CGXRichEditCtrl@@UAEHABUGX_FR_STATE@@KKHH@Z 31CD:?ReplaceSel@CGXRichEditCtrl@@UAEXPBG@Z 3212:?ReplaceAll@CGXRichEditCtrl@@UAEHABUGX_FR_STATE@@KK@Z 35AE:?OnRequestResize@CGXRichEditCtrl@@IAEHPAUtagNMHDR@@PAJ@Z 3A31:?CalcSize@CGXRichEditCtrl@@UAE?AVCSize@@PAVCDC@@KKABVCGXStyle@@PBV4@H@Z 3D76:?OnChildRequestResize@CGXRichEditCtrl@@IAEHIPAUtagNMHDR@@PAJ@Z 3DC2:?CanCopy@CGXRichEditCtrl@@UAEHXZ 3DD5:?Copy@CGXRichEditCtrl@@UAEHXZ 3E22:?CanCut@CGXRichEditCtrl@@UAEHXZ 3E35:?Cut@CGXRichEditCtrl@@UAEHXZ 3E72:?CanPaste@CGXRichEditCtrl@@UAEHXZ 3ED3:?Paste@CGXRichEditCtrl@@UAEHXZ 3FB4:?OnGridKeyDown@CGXRichEditCtrl@@UAEHIII@Z 4237:?OnGridChar@CGXRichEditCtrl@@UAEHIII@Z 42D5:?OnGridDoubleByteChar@CGXRichEditCtrl@@UAEHABVCString@@II@Z 449F:?OnKeyDown@CGXRichEditCtrl@@IAEXIII@Z 4875:?OnChar@CGXRichEditCtrl@@IAEXIII@Z 4CD0:?OnKeyUp@CGXRichEditCtrl@@IAEXIII@Z 4D28:?OnSysKeyDown@CGXRichEditCtrl@@IAEXIII@Z 4D80:?OnSysChar@CGXRichEditCtrl@@IAEXIII@Z 4DD8:?OnSysKeyUp@CGXRichEditCtrl@@IAEXIII@Z 4E30:?OnDeadChar@CGXRichEditCtrl@@IAEXIII@Z 4E88:?OnSysDeadChar@CGXRichEditCtrl@@IAEXIII@Z 4EE0:?OnEraseBkgnd@CGXRichEditCtrl@@IAEHPAVCDC@@@Z 4F58:?OnCommand@CGXRichEditCtrl@@UAEHIJ@Z 4FC9:?OnKillFocus@CGXRichEditCtrl@@IAEXPAVCWnd@@@Z 4FF1:?OnGetDlgCode@CGXRichEditCtrl@@IAEIXZ 500A:?OnLButtonDown@CGXRichEditCtrl@@IAEXIVCPoint@@@Z 5035:?OnLButtonUp@CGXRichEditCtrl@@IAEXIVCPoint@@@Z 5056:?ConvertStyleToRTF@CGXRichEditCtrl@@UAEXAAU_paraformat@@AAU_charformatw@@PBVCGXStyle@@@Z 5063:?ConvertRTFToStyle@CGXRichEditCtrl@@UAEXABU_paraformat@@ABU_charformatw@@PAVCGXStyle@@@Z (1B0C: 1C)
                20. 06 D72B 1CDB 0000:?GetRuntimeClass@CGXListBox@@UBEPAUCRuntimeClass@@XZ 0010:?GetControlClass@CGXListBox@@UBEPAUCGXControlClass@@XZ 0020:??0CGXListBox@@QAE@PAVCGXGridCore@@I@Z 00D1:??1CGXListBox@@UAE@XZ 0161:?GetWndPtr@CGXListBox@@UBEPAVCWnd@@XZ 0172:?CreateControl@CGXListBox@@MAEHXZ 01B9:?GetMessageMap@CGXListBox@@MBEPBUAFX_MSGMAP@@XZ 01C9:?SetActive@CGXListBox@@UAEXH@Z 0236:?IsActive@CGXListBox@@UAEHXZ 0247:?SetModify@CGXListBox@@UAEXH@Z 025D:?GetModify@CGXListBox@@UAEHXZ 026E:?GetCurrentText@CGXListBox@@UAEXAAVCString@@@Z 0308:?SetCurrentText@CGXListBox@@UAEXABVCString@@@Z 0381:?Init@CGXListBox@@UAEXKK@Z 03DB:?FillListBox@CGXListBox@@UAEXXZ 0531:?CalcSize@CGXListBox@@UAE?AVCSize@@PAVCDC@@KKABVCGXStyle@@PBV4@H@Z 06A1:?Store@CGXListBox@@UAEHXZ 07E7:?GetCellRect@CGXListBox@@UAE?AVCRect@@KKPAUtagRECT@@PBVCGXStyle@@@Z 0890:?AddBorders@CGXListBox@@UAE?AVCSize@@V2@ABVCGXStyle@@@Z 0922:?Draw@CGXListBox@@UAEXPAVCDC@@VCRect@@KKABVCGXStyle@@PBV4@@Z 14ED:?Hide@CGXListBox@@UAEXXZ 1525:?LButtonUp@CGXListBox@@UAEHIVCPoint@@I@Z 1650:?LButtonDblClk@CGXListBox@@UAEHIVCPoint@@@Z 1792:?KeyPressed@CGXListBox@@UAEHIIII@Z 1832:?SetCellColor@CGXListBox@@IAEXK@Z 184B:?OnKillFocus@CGXListBox@@IAEXPAVCWnd@@@Z 1873:?OnCommand@CGXListBox@@UAEHIJ@Z 18F5:?OnGetDlgCode@CGXListBox@@IAEIXZ 190E:?OnKeyDown@CGXListBox@@IAEXIII@Z 1AAB:?OnKeyUp@CGXListBox@@IAEXIII@Z 1B03:?OnChar@CGXListBox@@IAEXIII@Z 1B5B:?OnSysChar@CGXListBox@@IAEXIII@Z 1BB3:?OnSysKeyDown@CGXListBox@@IAEXIII@Z 1C0B:?OnSysKeyUp@CGXListBox@@IAEXIII@Z 1C63:?OnEraseBkgnd@CGXListBox@@IAEHPAVCDC@@@Z (1B0C: 8B)
                21. 06 D72B 40D2 0000:?GetRuntimeClass@CGXBCalculator@@UBEPAUCRuntimeClass@@XZ 0010:?GetMessageMap@CGXBCalculator@@MBEPBUAFX_MSGMAP@@XZ 0020:??0CGXBCalculator@@QAE@XZ 0177:??1CGXBCalculator@@UAE@XZ 029B:?CreateEx@CGXBCalculator@@QAEHKKHHPAVCWnd@@IPAUCCreateContext@@@Z 040F:?Create@CGXBCalculator@@QAEHKHHPAVCWnd@@IPAUCCreateContext@@@Z 0444:?InvalidateBtn@CGXBCalculator@@QAEXHH@Z 04CA:?InvalidatePanel@CGXBCalculator@@QAEXH@Z 050B:?ResetCalc@CGXBCalculator@@QAEXXZ 0590:?SetValue@CGXBCalculator@@QAEXN@Z 05E6:?GetValue@CGXBCalculator@@QBENXZ 060A:?HitTest@CGXBCalculator@@QBEHVCPoint@@@Z 0693:?SetDecimalPlaces@CGXBCalculator@@QAEXH@Z 06EE:?GetDecimalPlaces@CGXBCalculator@@QBEHXZ 0712:?CreatePanel@CGXBCalculator@@MAEHPAVCWnd@@@Z 083D:?CreateBtns@CGXBCalculator@@MAEHPAVCWnd@@@Z 1455:?HandleEvent@CGXBCalculator@@MAEHW4CGXBCalcOp@1@@Z 1767:?CalcLayout@CGXBCalculator@@IAE?AVCSize@@K@Z 196B:?SizePanel@CGXBCalculator@@IAEXXZ 1A81:?SetDisplayString@CGXBCalculator@@IAEXXZ (l)1AC5:$revalidate$94762 1CAB:?FormatNo@CGXBCalculator@@IAEXPAGH@Z 1DB4:?PressBtn@CGXBCalculator@@IAEXH@Z 1ECC:?GetClassStyle@CGXBCalculator@@MBEIXZ 1ED9:?Draw@CGXBCalculator@@MAEXAAVCDC@@@Z 2036:?DrawPanel@CGXBCalculator@@IAEXAAVCDC@@@Z 21C8:?HandleDigit@CGXBCalculator@@IAEHW4CGXBCalcOp@1@@Z 2370:?HandleDecimalPoint@CGXBCalculator@@IAEHW4CGXBCalcOp@1@@Z 241A:?HandleBackspace@CGXBCalculator@@IAEHW4CGXBCalcOp@1@@Z 250B:?HandleOperator@CGXBCalculator@@IAEHW4CGXBCalcOp@1@@Z 2716:?HandleClear@CGXBCalculator@@IAEHW4CGXBCalcOp@1@@Z 2743:?HandleClearError@CGXBCalculator@@IAEHW4CGXBCalcOp@1@@Z 27A0:?OnPaint@CGXBCalculator@@IAEXXZ 298A:?OnSysColorChange@CGXBCalculator@@IAEXXZ 2A34:?OnNcPaint@CGXBCalculator@@IAEXXZ 2AF5:?OnNcCalcSize@CGXBCalculator@@IAEXHPAUtagNCCALCSIZE_PARAMS@@@Z 2B37:?OnLButtonDown@CGXBCalculator@@IAEXIVCPoint@@@Z 2C61:?OnLButtonUp@CGXBCalculator@@IAEXIVCPoint@@@Z 2D6F:?OnMouseMove@CGXBCalculator@@IAEXIVCPoint@@@Z 2E4C:?OnCancelMode@CGXBCalculator@@IAEXXZ 2EE9:?OnGetDlgCode@CGXBCalculator@@IAEIXZ 2EF9:?OnChar@CGXBCalculator@@IAEXIII@Z 2FE6:?OnKeyDown@CGXBCalculator@@IAEXIII@Z 30B2:?Dump@CGXBCalculator@@UBEXAAVCDumpContext@@@Z 31B8:?AssertValid@CGXBCalculator@@UBEXXZ 3245:?GetMessageMap@CGXBPopupCalculator@@MBEPBUAFX_MSGMAP@@XZ 3255:?GetRuntimeClass@CGXBPopupCalculator@@UBEPAUCRuntimeClass@@XZ 3265:??0CGXBPopupCalculator@@QAE@XZ 3291:??1CGXBPopupCalculator@@UAE@XZ 32AD:?Create@CGXBPopupCalculator@@QAEHKABUtagRECT@@PAVCWnd@@PAUCCreateContext@@@Z 32D4:?CreateEx@CGXBPopupCalculator@@QAEHKKABUtagRECT@@PAVCWnd@@PAUCCreateContext@@@Z 345D:?HandleEvent@CGXBPopupCalculator@@UAEHW4CGXBCalcOp@CGXBCalculator@@@Z 34AF:?Notify@CGXBPopupCalculator@@UAEXXZ 3501:?GetClassStyle@CGXBPopupCalculator@@MBEIXZ 3511:?PostNcDestroy@CGXBPopupCalculator@@MAEXXZ 3555:?OnKillFocus@CGXBPopupCalculator@@IAEXPAVCWnd@@@Z 3575:?OnKeyDown@CGXBPopupCalculator@@IAEXIII@Z 35D4:?OnSysKeyDown@CGXBPopupCalculator@@IAEXIII@Z 3620:?Dump@CGXBPopupCalculator@@UBEXAAVCDumpContext@@@Z 3660:?AssertValid@CGXBPopupCalculator@@UBEXXZ 36AD:?CGXBConvertDBU@@YG?AVCSize@@HHPAUHFONT__@@@Z 3797:??0CGXBCalcBtn@@QAE@XZ 3844:??1CGXBCalcBtn@@UAE@XZ 38B6:?Initialise@CGXBCalcBtn@@QAEHABVAttrib@1@W4CGXBCalcOp@CGXBCalculator@@PBGHH@Z 38E3:?Initialise@CGXBCalcBtn@@QAEHABVAttrib@1@W4CGXBCalcOp@CGXBCalculator@@PBGGHH@Z 3961:?Initialise@CGXBCalcBtn@@QAEHABVAttrib@1@W4CGXBCalcOp@CGXBCalculator@@PBG2HH@Z 39E3:?GetWidth@CGXBCalcBtn@@QBEHXZ 3A07:?GetRect@CGXBCalcBtn@@QBEABVCRect@@XZ 3A2B:?SetRect@CGXBCalcBtn@@QAEXABUtagRECT@@@Z 3A5A:?GetState@CGXBCalcBtn@@QBEHXZ 3A7E:?SetState@CGXBCalcBtn@@QAEXH@Z 3AA7:?SetKeyDownAccel@CGXBCalcBtn@@QAEXI@Z 3AD0:?IsKeyDownAccelerator@CGXBCalcBtn@@QBEHI@Z 3AFE:?IsAccelerator@CGXBCalcBtn@@QBEHPBG@Z 3B37:?GetOp@CGXBCalcBtn@@QBE?AW4CGXBCalcOp@CGXBCalculator@@XZ 3B5B:?Draw@CGXBCalcBtn@@UAEXAAVCDC@@@Z 3ED9:?Dump@CGXBCalcBtn@@UBEXAAVCDumpContext@@@Z 3F66:?AssertValid@CGXBCalcBtn@@UBEXXZ 3FA2:??0Attrib@CGXBCalcBtn@@QAE@XZ 3FD7:??0Attrib@CGXBCalcBtn@@QAE@KKPAUHFONT__@@PAPAUHBITMAP__@@@Z 400A:??0Attrib@CGXBCalcBtn@@QAE@ABV01@@Z 4048:??1Attrib@CGXBCalcBtn@@QAE@XZ 4053:??4Attrib@CGXBCalcBtn@@QAEABV01@ABV01@@Z 4091:?GetFont@Attrib@CGXBCalcBtn@@QBEPAUHFONT__@@XZ 40A1:?GetTextColor@Attrib@CGXBCalcBtn@@QBEKXZ 40B2:?GetBitmap@Attrib@CGXBCalcBtn@@QBEPAUHBITMAP__@@XZ (1B0C: 51)
                22. 06 D72B 409E 0000:?GetRuntimeClass@CGXBCalculator@@UBEPAUCRuntimeClass@@XZ 0010:?GetMessageMap@CGXBCalculator@@MBEPBUAFX_MSGMAP@@XZ 0020:??0CGXBCalculator@@QAE@XZ 0177:??1CGXBCalculator@@UAE@XZ 029B:?CreateEx@CGXBCalculator@@QAEHKKHHPAVCWnd@@IPAUCCreateContext@@@Z 040F:?Create@CGXBCalculator@@QAEHKHHPAVCWnd@@IPAUCCreateContext@@@Z 0444:?InvalidateBtn@CGXBCalculator@@QAEXHH@Z 04CA:?InvalidatePanel@CGXBCalculator@@QAEXH@Z 050B:?ResetCalc@CGXBCalculator@@QAEXXZ 0590:?SetValue@CGXBCalculator@@QAEXN@Z 05E6:?GetValue@CGXBCalculator@@QBENXZ 060A:?HitTest@CGXBCalculator@@QBEHVCPoint@@@Z 0693:?SetDecimalPlaces@CGXBCalculator@@QAEXH@Z 06EE:?GetDecimalPlaces@CGXBCalculator@@QBEHXZ 0712:?CreatePanel@CGXBCalculator@@MAEHPAVCWnd@@@Z 0816:?CreateBtns@CGXBCalculator@@MAEHPAVCWnd@@@Z 142B:?HandleEvent@CGXBCalculator@@MAEHW4CGXBCalcOp@1@@Z 173D:?CalcLayout@CGXBCalculator@@IAE?AVCSize@@K@Z 1941:?SizePanel@CGXBCalculator@@IAEXXZ 1A57:?SetDisplayString@CGXBCalculator@@IAEXXZ (l)1A9B:$revalidate$94750 1C81:?FormatNo@CGXBCalculator@@IAEXPADH@Z 1D84:?PressBtn@CGXBCalculator@@IAEXH@Z 1E9C:?GetClassStyle@CGXBCalculator@@MBEIXZ 1EA9:?Draw@CGXBCalculator@@MAEXAAVCDC@@@Z 2006:?DrawPanel@CGXBCalculator@@IAEXAAVCDC@@@Z 2198:?HandleDigit@CGXBCalculator@@IAEHW4CGXBCalcOp@1@@Z 233A:?HandleDecimalPoint@CGXBCalculator@@IAEHW4CGXBCalcOp@1@@Z 23E4:?HandleBackspace@CGXBCalculator@@IAEHW4CGXBCalcOp@1@@Z 24D5:?HandleOperator@CGXBCalculator@@IAEHW4CGXBCalcOp@1@@Z 26E0:?HandleClear@CGXBCalculator@@IAEHW4CGXBCalcOp@1@@Z 270D:?HandleClearError@CGXBCalculator@@IAEHW4CGXBCalcOp@1@@Z 276A:?OnPaint@CGXBCalculator@@IAEXXZ 2954:?OnSysColorChange@CGXBCalculator@@IAEXXZ 29FE:?OnNcPaint@CGXBCalculator@@IAEXXZ 2ABF:?OnNcCalcSize@CGXBCalculator@@IAEXHPAUtagNCCALCSIZE_PARAMS@@@Z 2B01:?OnLButtonDown@CGXBCalculator@@IAEXIVCPoint@@@Z 2C2B:?OnLButtonUp@CGXBCalculator@@IAEXIVCPoint@@@Z 2D39:?OnMouseMove@CGXBCalculator@@IAEXIVCPoint@@@Z 2E16:?OnCancelMode@CGXBCalculator@@IAEXXZ 2EB3:?OnGetDlgCode@CGXBCalculator@@IAEIXZ 2EC3:?OnChar@CGXBCalculator@@IAEXIII@Z 2FB3:?OnKeyDown@CGXBCalculator@@IAEXIII@Z 307F:?Dump@CGXBCalculator@@UBEXAAVCDumpContext@@@Z 3185:?AssertValid@CGXBCalculator@@UBEXXZ 3212:?GetMessageMap@CGXBPopupCalculator@@MBEPBUAFX_MSGMAP@@XZ 3222:?GetRuntimeClass@CGXBPopupCalculator@@UBEPAUCRuntimeClass@@XZ 3232:??0CGXBPopupCalculator@@QAE@XZ 325E:??1CGXBPopupCalculator@@UAE@XZ 327A:?Create@CGXBPopupCalculator@@QAEHKABUtagRECT@@PAVCWnd@@PAUCCreateContext@@@Z 32A1:?CreateEx@CGXBPopupCalculator@@QAEHKKABUtagRECT@@PAVCWnd@@PAUCCreateContext@@@Z 342A:?HandleEvent@CGXBPopupCalculator@@UAEHW4CGXBCalcOp@CGXBCalculator@@@Z 347C:?Notify@CGXBPopupCalculator@@UAEXXZ 34CE:?GetClassStyle@CGXBPopupCalculator@@MBEIXZ 34DE:?PostNcDestroy@CGXBPopupCalculator@@MAEXXZ 3522:?OnKillFocus@CGXBPopupCalculator@@IAEXPAVCWnd@@@Z 3542:?OnKeyDown@CGXBPopupCalculator@@IAEXIII@Z 35A1:?OnSysKeyDown@CGXBPopupCalculator@@IAEXIII@Z 35ED:?Dump@CGXBPopupCalculator@@UBEXAAVCDumpContext@@@Z 362D:?AssertValid@CGXBPopupCalculator@@UBEXXZ 367A:?CGXBConvertDBU@@YG?AVCSize@@HHPAUHFONT__@@@Z 3764:??0CGXBCalcBtn@@QAE@XZ 3811:??1CGXBCalcBtn@@UAE@XZ 3883:?Initialise@CGXBCalcBtn@@QAEHABVAttrib@1@W4CGXBCalcOp@CGXBCalculator@@PBDHH@Z 38B0:?Initialise@CGXBCalcBtn@@QAEHABVAttrib@1@W4CGXBCalcOp@CGXBCalculator@@PBDDHH@Z 392D:?Initialise@CGXBCalcBtn@@QAEHABVAttrib@1@W4CGXBCalcOp@CGXBCalculator@@PBD2HH@Z 39AF:?GetWidth@CGXBCalcBtn@@QBEHXZ 39D3:?GetRect@CGXBCalcBtn@@QBEABVCRect@@XZ 39F7:?SetRect@CGXBCalcBtn@@QAEXABUtagRECT@@@Z 3A26:?GetState@CGXBCalcBtn@@QBEHXZ 3A4A:?SetState@CGXBCalcBtn@@QAEXH@Z 3A73:?SetKeyDownAccel@CGXBCalcBtn@@QAEXI@Z 3A9C:?IsKeyDownAccelerator@CGXBCalcBtn@@QBEHI@Z 3ACA:?IsAccelerator@CGXBCalcBtn@@QBEHPBD@Z 3B03:?GetOp@CGXBCalcBtn@@QBE?AW4CGXBCalcOp@CGXBCalculator@@XZ 3B27:?Draw@CGXBCalcBtn@@UAEXAAVCDC@@@Z 3EA5:?Dump@CGXBCalcBtn@@UBEXAAVCDumpContext@@@Z 3F32:?AssertValid@CGXBCalcBtn@@UBEXXZ 3F6E:??0Attrib@CGXBCalcBtn@@QAE@XZ 3FA3:??0Attrib@CGXBCalcBtn@@QAE@KKPAUHFONT__@@PAPAUHBITMAP__@@@Z 3FD6:??0Attrib@CGXBCalcBtn@@QAE@ABV01@@Z 4014:??1Attrib@CGXBCalcBtn@@QAE@XZ 401F:??4Attrib@CGXBCalcBtn@@QAEABV01@ABV01@@Z 405D:?GetFont@Attrib@CGXBCalcBtn@@QBEPAUHFONT__@@XZ 406D:?GetTextColor@Attrib@CGXBCalcBtn@@QBEKXZ 407E:?GetBitmap@Attrib@CGXBCalcBtn@@QBEPAUHBITMAP__@@XZ (1B0C: 5C)
                23. 06 D72B 6598 0000:?GetControlClass@CGXMaskControl@@UBEPAUCGXControlClass@@XZ 0010:?GetRuntimeClass@CGXMaskControl@@UBEPAUCRuntimeClass@@XZ 0020:?CreateObject@CGXMaskData@@SGPAVCObject@@XZ 0084:?GetRuntimeClass@CGXMaskData@@UBEPAUCRuntimeClass@@XZ 0094:??0CGXMaskData@@QAE@XZ 013D:??1CGXMaskData@@UAE@XZ 01BE:?Empty@CGXMaskData@@UAEXXZ 01DF:?SetMask@CGXMaskData@@UAEXPBG@Z 043F:?IsMaskChar@CGXMaskData@@UBEHG@Z 04F3:?GetData@CGXMaskData@@UBEXAAVCString@@HHH@Z 0690:?IsLiteral@CGXMaskData@@UBEHH@Z 06CD:?SetData@CGXMaskData@@UAEHPBGHH@Z 0973:?ClearData@CGXMaskData@@UAEXXZ 0A9B:?IsCharValid@CGXMaskData@@UBEHHAAVCString@@@Z 0D28:?GetDisplayString@CGXMaskData@@UBEXAAVCString@@HH@Z 0DED:?SetDisplayString@CGXMaskData@@UAEHPBGHH@Z 1088:?SetPromptChar@CGXMaskData@@QAEHABVCString@@H@Z 11A5:?GetNextDataPos@CGXMaskData@@UBEHH@Z 1282:?GetPrevDataPos@CGXMaskData@@UBEHH@Z 134E:?FindLastFilledDataPos@CGXMaskData@@UBEHH@Z 162C:?PushChar@CGXMaskData@@UAEHHABVCString@@AAH@Z 1803:?PullChar@CGXMaskData@@UAEXHH@Z 19B2:?IsValidDisplayString@CGXMaskData@@UBEHXZ 1B49:?GetEditPos@CGXMaskData@@UBEHH@Z 1B7F:?GetCharPos@CGXMaskData@@UBEHH@Z 1BB5:??0CGXMaskControl@@QAE@PAVCGXGridCore@@IPAUCRuntimeClass@@@Z 1CF4:??1CGXMaskControl@@UAE@XZ 1DE3:?AddUserAttributes@CGXMaskControl@@SGXPAVCGXStylesMap@@@Z 1EB6:?GetWndPtr@CGXMaskControl@@UBEPAVCWnd@@XZ 1EC7:?AttachData@CGXMaskControl@@QAEXPAUCRuntimeClass@@@Z 1F7A:?CreateControl@CGXMaskControl@@UAEHKPAUtagRECT@@@Z 1FED:?GetMessageMap@CGXMaskControl@@MBEPBUAFX_MSGMAP@@XZ 1FFD:?SetActive@CGXMaskControl@@UAEXH@Z 206A:?IsActive@CGXMaskControl@@UAEHXZ 207B:?SetModify@CGXMaskControl@@UAEXH@Z 20A0:?GetModify@CGXMaskControl@@UAEHXZ 20D8:?InitMask@CGXMaskControl@@UAEXPAVCGXMaskData@@ABVCGXStyle@@@Z 21D5:?Init@CGXMaskControl@@UAEXKK@Z 22BC:?UpdateDisplay@CGXMaskControl@@IAEXPBG@Z 2362:?SetCurrentText@CGXMaskControl@@UAEXABVCString@@@Z 23D7:?GetCurrentText@CGXMaskControl@@UAEXAAVCString@@@Z 2425:?GetValue@CGXMaskControl@@UAEHAAVCString@@@Z 2462:?SetValue@CGXMaskControl@@UAEXPBG@Z 2529:?Store@CGXMaskControl@@UAEHXZ 2625:?GetControlText@CGXMaskControl@@UAEHAAVCString@@KKPBGABVCGXStyle@@@Z 26FD:?ConvertControlTextToValue@CGXMaskControl@@UAEHAAVCString@@KKPBVCGXStyle@@@Z (l)27F4:$exitcv$94703 2821:?Draw@CGXMaskControl@@UAEXPAVCDC@@VCRect@@KKABVCGXStyle@@PBV4@@Z 304A:?Hide@CGXMaskControl@@UAEXXZ 30BC:?LButtonUp@CGXMaskControl@@UAEHIVCPoint@@I@Z 3284:?LButtonDblClk@CGXMaskControl@@UAEHIVCPoint@@@Z 33EE:?OnGridKeyDown@CGXMaskControl@@UAEHIII@Z 367F:?OnGridChar@CGXMaskControl@@UAEHIII@Z 3761:?OnGridDoubleByteChar@CGXMaskControl@@UAEHABVCString@@II@Z 39AE:?GetCharSel@CGXMaskControl@@QBEXAAH0@Z 3A37:?SetCharSel@CGXMaskControl@@QAEXHHH@Z 3AA2:?SendEvent@CGXMaskControl@@QAEXI@Z 3AE6:?OnKeyDown@CGXMaskControl@@IAEXIII@Z 4281:?OnChar@CGXMaskControl@@IAEXIII@Z 46B3:?OnKeyUp@CGXMaskControl@@IAEXIII@Z 4713:?OnSysKeyDown@CGXMaskControl@@IAEXIII@Z 476B:?OnSysChar@CGXMaskControl@@IAEXIII@Z 47C3:?OnSysKeyUp@CGXMaskControl@@IAEXIII@Z 481B:?OnCommand@CGXMaskControl@@UAEHIJ@Z 488C:?FindTextW@CGXMaskControl@@UAEHABUGX_FR_STATE@@KKHH@Z 4C00:?ReplaceSel@CGXMaskControl@@UAEXPBG@Z 4E79:?ReplaceAll@CGXMaskControl@@UAEHABUGX_FR_STATE@@KK@Z 54E7:?GetSelectedText@CGXMaskControl@@UAEHAAVCString@@@Z 55E0:?CalcTextPosUnderPt@CGXMaskControl@@QAEHVCPoint@@@Z 5764:?SetCellColor@CGXMaskControl@@QAEXK@Z 577D:?SetTextAlign@CGXMaskControl@@QAEXI@Z 57A2:?UpdateEditStyle@CGXMaskControl@@IAEHXZ 5AAA:?GetLastVisibleLine@CGXMaskControl@@IAEHPAUtagRECT@@@Z 5B9E:?CalcEditStyle@CGXMaskControl@@MAEKPAUtagRECT@@AAH@Z 5E07:?OnKillFocus@CGXMaskControl@@IAEXPAVCWnd@@@Z 5E2F:?OnGetDlgCode@CGXMaskControl@@IAEIXZ 5E48:?OnEraseBkgnd@CGXMaskControl@@IAEHPAVCDC@@@Z 5EC0:?OnShowWindow@CGXMaskControl@@IAEXHI@Z 5EEB:?OnSetFocus@CGXMaskControl@@IAEXPAVCWnd@@@Z 5F0C:?OnContextMenu@CGXMaskControl@@IAEXPAVCWnd@@VCPoint@@@Z 5F38:?CanCopy@CGXMaskControl@@UAEHXZ 5F4B:?Copy@CGXMaskControl@@UAEHXZ 6141:?CanCut@CGXMaskControl@@UAEHXZ 6154:?Cut@CGXMaskControl@@UAEHXZ 6167:?CanPaste@CGXMaskControl@@UAEHXZ 61FC:?Paste@CGXMaskControl@@UAEHXZ 6328:?OnLButtonDown@CGXMaskControl@@IAEXIVCPoint@@@Z 6446:?OnLButtonUp@CGXMaskControl@@IAEXIVCPoint@@@Z 64F2:?OnValidate@CGXMaskControl@@UAEHXZ (1B0C: D8)
                24. 06 D72B 67D2 0000:?GetControlClass@CGXMaskControl@@UBEPAUCGXControlClass@@XZ 0010:?GetRuntimeClass@CGXMaskControl@@UBEPAUCRuntimeClass@@XZ 0020:?CreateObject@CGXMaskData@@SGPAVCObject@@XZ 0084:?GetRuntimeClass@CGXMaskData@@UBEPAUCRuntimeClass@@XZ 00B0:??0CGXMaskData@@QAE@XZ 0159:??1CGXMaskData@@UAE@XZ 01DA:?Empty@CGXMaskData@@UAEXXZ 01FB:?SetMask@CGXMaskData@@UAEXPBD@Z 0449:?IsMaskChar@CGXMaskData@@UBEHD@Z 04F4:?GetData@CGXMaskData@@UBEXAAVCString@@HHH@Z 0691:?IsLiteral@CGXMaskData@@UBEHH@Z 06CE:?SetData@CGXMaskData@@UAEHPBDHH@Z 096E:?ClearData@CGXMaskData@@UAEXXZ 0A96:?IsCharValid@CGXMaskData@@UBEHHAAVCString@@@Z 0E29:?GetDisplayString@CGXMaskData@@UBEXAAVCString@@HH@Z 0EEE:?SetDisplayString@CGXMaskData@@UAEHPBDHH@Z 1180:?SetPromptChar@CGXMaskData@@QAEHABVCString@@H@Z 12B2:?GetNextDataPos@CGXMaskData@@UBEHH@Z 138F:?GetPrevDataPos@CGXMaskData@@UBEHH@Z 145B:?FindLastFilledDataPos@CGXMaskData@@UBEHH@Z 1739:?PushChar@CGXMaskData@@UAEHHABVCString@@AAH@Z 1910:?PullChar@CGXMaskData@@UAEXHH@Z 1ABF:?IsValidDisplayString@CGXMaskData@@UBEHXZ 1C56:?GetEditPos@CGXMaskData@@UBEHH@Z 1D26:?GetCharPos@CGXMaskData@@UBEHH@Z 1DF4:??0CGXMaskControl@@QAE@PAVCGXGridCore@@IPAUCRuntimeClass@@@Z 1F33:??1CGXMaskControl@@UAE@XZ 2022:?AddUserAttributes@CGXMaskControl@@SGXPAVCGXStylesMap@@@Z 20F5:?GetWndPtr@CGXMaskControl@@UBEPAVCWnd@@XZ 2106:?AttachData@CGXMaskControl@@QAEXPAUCRuntimeClass@@@Z 21B9:?CreateControl@CGXMaskControl@@UAEHKPAUtagRECT@@@Z 222C:?GetMessageMap@CGXMaskControl@@MBEPBUAFX_MSGMAP@@XZ 223C:?SetActive@CGXMaskControl@@UAEXH@Z 22A9:?IsActive@CGXMaskControl@@UAEHXZ 22BA:?SetModify@CGXMaskControl@@UAEXH@Z 22DF:?GetModify@CGXMaskControl@@UAEHXZ 2317:?InitMask@CGXMaskControl@@UAEXPAVCGXMaskData@@ABVCGXStyle@@@Z 2414:?Init@CGXMaskControl@@UAEXKK@Z 24FB:?UpdateDisplay@CGXMaskControl@@IAEXPBD@Z 25A1:?SetCurrentText@CGXMaskControl@@UAEXABVCString@@@Z 2616:?GetCurrentText@CGXMaskControl@@UAEXAAVCString@@@Z 2664:?GetValue@CGXMaskControl@@UAEHAAVCString@@@Z 26A1:?SetValue@CGXMaskControl@@UAEXPBD@Z 2768:?Store@CGXMaskControl@@UAEHXZ 2864:?GetControlText@CGXMaskControl@@UAEHAAVCString@@KKPBDABVCGXStyle@@@Z 293C:?ConvertControlTextToValue@CGXMaskControl@@UAEHAAVCString@@KKPBVCGXStyle@@@Z (l)2A33:$exitcv$94745 2A60:?Draw@CGXMaskControl@@UAEXPAVCDC@@VCRect@@KKABVCGXStyle@@PBV4@@Z 3289:?Hide@CGXMaskControl@@UAEXXZ 32FB:?LButtonUp@CGXMaskControl@@UAEHIVCPoint@@I@Z 34C3:?LButtonDblClk@CGXMaskControl@@UAEHIVCPoint@@@Z 362D:?OnGridKeyDown@CGXMaskControl@@UAEHIII@Z 38BE:?OnGridChar@CGXMaskControl@@UAEHIII@Z 399E:?OnGridDoubleByteChar@CGXMaskControl@@UAEHABVCString@@II@Z 3BEB:?GetCharSel@CGXMaskControl@@QBEXAAH0@Z 3C74:?SetCharSel@CGXMaskControl@@QAEXHHH@Z 3CDF:?SendEvent@CGXMaskControl@@QAEXI@Z 3D23:?OnKeyDown@CGXMaskControl@@IAEXIII@Z 44BE:?OnChar@CGXMaskControl@@IAEXIII@Z 48EE:?OnKeyUp@CGXMaskControl@@IAEXIII@Z 494E:?OnSysKeyDown@CGXMaskControl@@IAEXIII@Z 49A6:?OnSysChar@CGXMaskControl@@IAEXIII@Z 49FE:?OnSysKeyUp@CGXMaskControl@@IAEXIII@Z 4A56:?OnCommand@CGXMaskControl@@UAEHIJ@Z 4AC7:?FindTextA@CGXMaskControl@@UAEHABUGX_FR_STATE@@KKHH@Z 4E33:?ReplaceSel@CGXMaskControl@@UAEXPBD@Z 50AC:?ReplaceAll@CGXMaskControl@@UAEHABUGX_FR_STATE@@KK@Z 5712:?GetSelectedText@CGXMaskControl@@UAEHAAVCString@@@Z 580B:?CalcTextPosUnderPt@CGXMaskControl@@QAEHVCPoint@@@Z 598F:?SetCellColor@CGXMaskControl@@QAEXK@Z 59A8:?SetTextAlign@CGXMaskControl@@QAEXI@Z 59CD:?UpdateEditStyle@CGXMaskControl@@IAEHXZ 5CD5:?GetLastVisibleLine@CGXMaskControl@@IAEHPAUtagRECT@@@Z 5DC9:?CalcEditStyle@CGXMaskControl@@MAEKPAUtagRECT@@AAH@Z 6032:?OnKillFocus@CGXMaskControl@@IAEXPAVCWnd@@@Z 605A:?OnGetDlgCode@CGXMaskControl@@IAEIXZ 6073:?OnEraseBkgnd@CGXMaskControl@@IAEHPAVCDC@@@Z 60EB:?OnShowWindow@CGXMaskControl@@IAEXHI@Z 6116:?OnSetFocus@CGXMaskControl@@IAEXPAVCWnd@@@Z 6137:?OnContextMenu@CGXMaskControl@@IAEXPAVCWnd@@VCPoint@@@Z 6163:?CanCopy@CGXMaskControl@@UAEHXZ 6176:?Copy@CGXMaskControl@@UAEHXZ 636A:?CanCut@CGXMaskControl@@UAEHXZ 637D:?Cut@CGXMaskControl@@UAEHXZ 6390:?CanPaste@CGXMaskControl@@UAEHXZ 6425:?Paste@CGXMaskControl@@UAEHXZ 6562:?OnLButtonDown@CGXMaskControl@@IAEXIVCPoint@@@Z 6680:?OnLButtonUp@CGXMaskControl@@IAEXIVCPoint@@@Z 672C:?OnValidate@CGXMaskControl@@UAEHXZ (1B0C: 0F)
                25. 06 D72B 41A6 0000:?GetControlClass@CGXTabbedComboBox@@UBEPAUCGXControlClass@@XZ 0010:?GetRuntimeClass@CGXTabbedComboBox@@UBEPAUCRuntimeClass@@XZ 0020:??0CGXTabbedComboBox@@QAE@PAVCGXGridCore@@II@Z 01CA:??1CGXTabbedComboBox@@UAE@XZ 0329:?AddUserAttributes@CGXTabbedComboBox@@SGXPAVCGXStylesMap@@@Z 0459:?GetMessageMap@CGXTabbedComboBox@@MBEPBUAFX_MSGMAP@@XZ 0469:?Init@CGXTabbedComboBox@@UAEXKK@Z 06DC:?StoreStyle@CGXTabbedComboBox@@UAEHKKPBVCGXStyle@@W4GXModifyType@@H0@Z 08DA:?Draw@CGXTabbedComboBox@@UAEXPAVCDC@@VCRect@@KKABVCGXStyle@@PBV4@@Z 0C24:?SetTabStops@CGXTabbedComboBox@@QAEXH@Z 0C7F:?AddTabStop@CGXTabbedComboBox@@QAEXHH@Z 0C9E:?GetValueToChoiceMap@CGXTabbedComboBox@@QAEPAVCMapStringToString@@ABVCGXStyle@@@Z 0F45:?ResetChoiceMap@CGXTabbedComboBox@@SGXPAVCGXGridParam@@H@Z 1148:?GetTextToChoiceMap@CGXTabbedComboBox@@QAEPAVCMapStringToString@@ABVCGXStyle@@@Z 13E0:?SetValue@CGXTabbedComboBox@@UAEXPBD@Z 16E4:?GetValue@CGXTabbedComboBox@@UAEHAAVCString@@@Z 19EF:?GetControlText@CGXTabbedComboBox@@UAEHAAVCString@@KKPBDABVCGXStyle@@@Z 1C9A:?ConvertControlTextToValue@CGXTabbedComboBox@@UAEHAAVCString@@KKPBVCGXStyle@@@Z 1F3B:?CheckAndFillCBEdit@CGXTabbedComboBox@@UAEXXZ 21A3:?OnChar@CGXTabbedComboBox@@IAEXIII@Z 221B:?KeyPressed@CGXTabbedComboBox@@UAEHIIII@Z 227B:?OnValidate@CGXTabbedComboBox@@UAEHXZ 231F:?ValidateString@CGXTabbedComboBox@@UAEHABVCString@@@Z 2608:?CalcSize@CGXTabbedComboBox@@UAE?AVCSize@@PAVCDC@@KKABVCGXStyle@@PBV4@H@Z 2982:?OnGetListboxRect@CGXTabbedComboBox@@UAE?AVCRect@@ABV2@@Z 2A1A:?CreateDropDown@CGXTabbedComboBox@@UAEPAVCGXGridCombo@@PAVCWnd@@ABVCRect@@@Z 2AB7:?CreateListBox@CGXTabbedComboBox@@UAEPAVCWnd@@PAV2@I@Z 2BAF:?OnFillDroppedList@CGXTabbedComboBox@@UAEXPAVCListBox@@@Z 343C:?OnStoreDroppedList@CGXTabbedComboBox@@UAEXPAVCListBox@@@Z 3533:?DestroyDropDownWnd@CGXTabbedComboBox@@UAEXPAVCWnd@@@Z 35A4:?ShowDropDown@CGXTabbedComboBox@@UAEXH@Z 3F1E:??0CGXTabbedComboLBox@@QAE@PAVCGXTabbedComboBox@@@Z 3F4C:?DrawItem@CGXTabbedComboLBox@@UAEXPAUtagDRAWITEMSTRUCT@@@Z 40C4:?MeasureItem@CGXTabbedComboLBox@@UAEXPAUtagMEASUREITEMSTRUCT@@@Z 4186:?CompareItem@CGXTabbedComboLBox@@UAEHPAUtagCOMPAREITEMSTRUCT@@@Z 4196:?GetMessageMap@CGXTabbedComboLBox@@MBEPBUAFX_MSGMAP@@XZ (1B0C: D7)
                26. 06 D72B 419E 0000:?GetControlClass@CGXTabbedComboBox@@UBEPAUCGXControlClass@@XZ 0010:?GetRuntimeClass@CGXTabbedComboBox@@UBEPAUCRuntimeClass@@XZ 0020:??0CGXTabbedComboBox@@QAE@PAVCGXGridCore@@II@Z 01CA:??1CGXTabbedComboBox@@UAE@XZ 0329:?AddUserAttributes@CGXTabbedComboBox@@SGXPAVCGXStylesMap@@@Z 0459:?GetMessageMap@CGXTabbedComboBox@@MBEPBUAFX_MSGMAP@@XZ 0469:?Init@CGXTabbedComboBox@@UAEXKK@Z 06DC:?StoreStyle@CGXTabbedComboBox@@UAEHKKPBVCGXStyle@@W4GXModifyType@@H0@Z 08DA:?Draw@CGXTabbedComboBox@@UAEXPAVCDC@@VCRect@@KKABVCGXStyle@@PBV4@@Z 0C2D:?SetTabStops@CGXTabbedComboBox@@QAEXH@Z 0C88:?AddTabStop@CGXTabbedComboBox@@QAEXHH@Z 0CA7:?GetValueToChoiceMap@CGXTabbedComboBox@@QAEPAVCMapStringToString@@ABVCGXStyle@@@Z 0F4E:?ResetChoiceMap@CGXTabbedComboBox@@SGXPAVCGXGridParam@@H@Z 1151:?GetTextToChoiceMap@CGXTabbedComboBox@@QAEPAVCMapStringToString@@ABVCGXStyle@@@Z 13E9:?SetValue@CGXTabbedComboBox@@UAEXPBG@Z 16ED:?GetValue@CGXTabbedComboBox@@UAEHAAVCString@@@Z 19F8:?GetControlText@CGXTabbedComboBox@@UAEHAAVCString@@KKPBGABVCGXStyle@@@Z 1CA3:?ConvertControlTextToValue@CGXTabbedComboBox@@UAEHAAVCString@@KKPBVCGXStyle@@@Z 1F44:?CheckAndFillCBEdit@CGXTabbedComboBox@@UAEXXZ 21AC:?OnChar@CGXTabbedComboBox@@IAEXIII@Z 2224:?KeyPressed@CGXTabbedComboBox@@UAEHIIII@Z 2284:?OnValidate@CGXTabbedComboBox@@UAEHXZ 2328:?ValidateString@CGXTabbedComboBox@@UAEHABVCString@@@Z 2611:?CalcSize@CGXTabbedComboBox@@UAE?AVCSize@@PAVCDC@@KKABVCGXStyle@@PBV4@H@Z 298B:?OnGetListboxRect@CGXTabbedComboBox@@UAE?AVCRect@@ABV2@@Z 2A23:?CreateDropDown@CGXTabbedComboBox@@UAEPAVCGXGridCombo@@PAVCWnd@@ABVCRect@@@Z 2AC0:?CreateListBox@CGXTabbedComboBox@@UAEPAVCWnd@@PAV2@I@Z 2BB8:?OnFillDroppedList@CGXTabbedComboBox@@UAEXPAVCListBox@@@Z 3449:?OnStoreDroppedList@CGXTabbedComboBox@@UAEXPAVCListBox@@@Z 3540:?DestroyDropDownWnd@CGXTabbedComboBox@@UAEXPAVCWnd@@@Z 35B1:?ShowDropDown@CGXTabbedComboBox@@UAEXH@Z 3F16:??0CGXTabbedComboLBox@@QAE@PAVCGXTabbedComboBox@@@Z 3F44:?DrawItem@CGXTabbedComboLBox@@UAEXPAUtagDRAWITEMSTRUCT@@@Z 40BC:?MeasureItem@CGXTabbedComboLBox@@UAEXPAUtagMEASUREITEMSTRUCT@@@Z 417E:?CompareItem@CGXTabbedComboLBox@@UAEHPAUtagCOMPAREITEMSTRUCT@@@Z 418E:?GetMessageMap@CGXTabbedComboLBox@@MBEPBUAFX_MSGMAP@@XZ (1B0C: C0)
                27. 06 D72B 3BD9 0000:?GetControlClass@CGXTabbedComboBoxWnd@@UBEPAUCGXControlClass@@XZ 0010:?GetRuntimeClass@CGXTabbedComboBoxWnd@@UBEPAUCRuntimeClass@@XZ 0020:??0CGXTabbedComboBoxWnd@@QAE@PAVCGXGridCore@@@Z 01C6:??1CGXTabbedComboBoxWnd@@UAE@XZ 02DC:?CreateControl@CGXTabbedComboBoxWnd@@UAEHKI@Z 0495:?AddUserAttributes@CGXTabbedComboBoxWnd@@SGXPAVCGXStylesMap@@@Z 05B6:?GetMessageMap@CGXTabbedComboBoxWnd@@MBEPBUAFX_MSGMAP@@XZ 05C6:?OnGridCtlColor@CGXTabbedComboBoxWnd@@UAEPAUHBRUSH__@@PAVCDC@@PAVCWnd@@I@Z 0AB6:?OnCommand@CGXTabbedComboBoxWnd@@UAEHIJ@Z 0B67:?OnShowWindow@CGXTabbedComboBoxWnd@@IAEXHI@Z 0BBB:?Hide@CGXTabbedComboBoxWnd@@UAEXXZ 0BFF:?Init@CGXTabbedComboBoxWnd@@UAEXKK@Z 0ED5:?LoadLBoxEntries@CGXTabbedComboBoxWnd@@QAEXXZ 1526:?StoreStyle@CGXTabbedComboBoxWnd@@UAEHKKPBVCGXStyle@@W4GXModifyType@@H0@Z 169D:?Draw@CGXTabbedComboBoxWnd@@UAEXPAVCDC@@VCRect@@KKABVCGXStyle@@PBV4@@Z 22B0:?SetTabStops@CGXTabbedComboBoxWnd@@QAEXH@Z 230B:?AddTabStop@CGXTabbedComboBoxWnd@@QAEXHH@Z 232A:?SetReadOnly@CGXTabbedComboBoxWnd@@QAEXH@Z 238F:?SetModify@CGXTabbedComboBoxWnd@@UAEXH@Z 23A8:?GetModify@CGXTabbedComboBoxWnd@@UAEHXZ 23BB:?DrawItem@CGXTabbedComboBoxWnd@@UAEXPAUtagDRAWITEMSTRUCT@@@Z 2575:?MeasureItem@CGXTabbedComboBoxWnd@@UAEXPAUtagMEASUREITEMSTRUCT@@@Z 266D:?CompareItem@CGXTabbedComboBoxWnd@@UAEHPAUtagCOMPAREITEMSTRUCT@@@Z 267D:?GetCurrentText@CGXTabbedComboBoxWnd@@UAEXAAVCString@@@Z 278D:?SetValue@CGXTabbedComboBoxWnd@@UAEXPBD@Z 28AB:?GetValue@CGXTabbedComboBoxWnd@@UAEHAAVCString@@@Z 2A81:?GetControlText@CGXTabbedComboBoxWnd@@UAEHAAVCString@@KKPBDABVCGXStyle@@@Z 2C37:?ConvertControlTextToValue@CGXTabbedComboBoxWnd@@UAEHAAVCString@@KKPBVCGXStyle@@@Z 2E37:?OnValidate@CGXTabbedComboBoxWnd@@UAEHXZ 2EDB:?ValidateString@CGXTabbedComboBoxWnd@@UAEHABVCString@@@Z 2F84:?LButtonUp@CGXTabbedComboBoxWnd@@UAEHIVCPoint@@I@Z 2FE6:?OnClickedButton@CGXTabbedComboBoxWnd@@UAEXPAVCGXChild@@@Z 3170:?SetActiveAndDropDown@CGXTabbedComboBoxWnd@@QAEXXZ 32F0:?OnKeyDown@CGXTabbedComboBoxWnd@@UAEHIII@Z 345A:?CalcSize@CGXTabbedComboBoxWnd@@UAE?AVCSize@@PAVCDC@@KKABVCGXStyle@@PBV4@H@Z 37E5:??0CGXTabbedCBEditWnd@@QAE@XZ 3804:??1CGXTabbedCBEditWnd@@UAE@XZ 3820:?GetMessageMap@CGXTabbedCBEditWnd@@MBEPBUAFX_MSGMAP@@XZ 3830:?OnKillFocus@CGXTabbedCBEditWnd@@IAEXPAVCWnd@@@Z 38BD:?OnKeyDown@CGXTabbedCBEditWnd@@IAEXIII@Z 393D:?DefWindowProcA@CGXTabbedCBEditWnd@@MAEJIIJ@Z 39C1:?OnChar@CGXTabbedCBEditWnd@@IAEXIII@Z (1B0C: 8D)
                28. 06 D72B 3C46 0000:?GetControlClass@CGXTabbedComboBoxWnd@@UBEPAUCGXControlClass@@XZ 0010:?GetRuntimeClass@CGXTabbedComboBoxWnd@@UBEPAUCRuntimeClass@@XZ 0020:??0CGXTabbedComboBoxWnd@@QAE@PAVCGXGridCore@@@Z 01C6:??1CGXTabbedComboBoxWnd@@UAE@XZ 02DC:?CreateControl@CGXTabbedComboBoxWnd@@UAEHKI@Z 0495:?AddUserAttributes@CGXTabbedComboBoxWnd@@SGXPAVCGXStylesMap@@@Z 05B6:?GetMessageMap@CGXTabbedComboBoxWnd@@MBEPBUAFX_MSGMAP@@XZ 05C6:?OnGridCtlColor@CGXTabbedComboBoxWnd@@UAEPAUHBRUSH__@@PAVCDC@@PAVCWnd@@I@Z 0B04:?OnCommand@CGXTabbedComboBoxWnd@@UAEHIJ@Z 0BB5:?OnShowWindow@CGXTabbedComboBoxWnd@@IAEXHI@Z 0C09:?Hide@CGXTabbedComboBoxWnd@@UAEXXZ 0C4D:?Init@CGXTabbedComboBoxWnd@@UAEXKK@Z 0F23:?LoadLBoxEntries@CGXTabbedComboBoxWnd@@QAEXXZ 1578:?StoreStyle@CGXTabbedComboBoxWnd@@UAEHKKPBVCGXStyle@@W4GXModifyType@@H0@Z 16EF:?Draw@CGXTabbedComboBoxWnd@@UAEXPAVCDC@@VCRect@@KKABVCGXStyle@@PBV4@@Z 2317:?SetTabStops@CGXTabbedComboBoxWnd@@QAEXH@Z 2372:?AddTabStop@CGXTabbedComboBoxWnd@@QAEXHH@Z 2391:?SetReadOnly@CGXTabbedComboBoxWnd@@QAEXH@Z 23F6:?SetModify@CGXTabbedComboBoxWnd@@UAEXH@Z 240F:?GetModify@CGXTabbedComboBoxWnd@@UAEHXZ 2422:?DrawItem@CGXTabbedComboBoxWnd@@UAEXPAUtagDRAWITEMSTRUCT@@@Z 25DC:?MeasureItem@CGXTabbedComboBoxWnd@@UAEXPAUtagMEASUREITEMSTRUCT@@@Z 26D4:?CompareItem@CGXTabbedComboBoxWnd@@UAEHPAUtagCOMPAREITEMSTRUCT@@@Z 26E4:?GetCurrentText@CGXTabbedComboBoxWnd@@UAEXAAVCString@@@Z 27F4:?SetValue@CGXTabbedComboBoxWnd@@UAEXPBG@Z 2912:?GetValue@CGXTabbedComboBoxWnd@@UAEHAAVCString@@@Z 2AE8:?GetControlText@CGXTabbedComboBoxWnd@@UAEHAAVCString@@KKPBGABVCGXStyle@@@Z 2C9E:?ConvertControlTextToValue@CGXTabbedComboBoxWnd@@UAEHAAVCString@@KKPBVCGXStyle@@@Z 2E9E:?OnValidate@CGXTabbedComboBoxWnd@@UAEHXZ 2F42:?ValidateString@CGXTabbedComboBoxWnd@@UAEHABVCString@@@Z 2FEB:?LButtonUp@CGXTabbedComboBoxWnd@@UAEHIVCPoint@@I@Z 304D:?OnClickedButton@CGXTabbedComboBoxWnd@@UAEXPAVCGXChild@@@Z 31D7:?SetActiveAndDropDown@CGXTabbedComboBoxWnd@@QAEXXZ 3357:?OnKeyDown@CGXTabbedComboBoxWnd@@UAEHIII@Z 34C1:?CalcSize@CGXTabbedComboBoxWnd@@UAE?AVCSize@@PAVCDC@@KKABVCGXStyle@@PBV4@H@Z 384C:??0CGXTabbedCBEditWnd@@QAE@XZ 386B:??1CGXTabbedCBEditWnd@@UAE@XZ 3887:?GetMessageMap@CGXTabbedCBEditWnd@@MBEPBUAFX_MSGMAP@@XZ 3897:?OnKillFocus@CGXTabbedCBEditWnd@@IAEXPAVCWnd@@@Z 3924:?OnKeyDown@CGXTabbedCBEditWnd@@IAEXIII@Z 39A4:?DefWindowProcW@CGXTabbedCBEditWnd@@MAEJIIJ@Z 3A2E:?OnChar@CGXTabbedCBEditWnd@@IAEXIII@Z (1B0C: FF)
                29. 06 D72B 0904 0000:?GetControlClass@CGXSpinEdit@@UBEPAUCGXControlClass@@XZ 0010:?GetRuntimeClass@CGXSpinEdit@@UBEPAUCRuntimeClass@@XZ 0020:??0CGXSpinEdit@@QAE@PAVCGXGridCore@@I@Z 0168:?AddUserAttributes@CGXSpinEdit@@SGXPAVCGXStylesMap@@@Z 025D:?Init@CGXSpinEdit@@UAEXKK@Z 02EC:?GetMessageMap@CGXSpinEdit@@MBEPBUAFX_MSGMAP@@XZ 02FC:?GetCellRect@CGXSpinEdit@@UAE?AVCRect@@KKPAUtagRECT@@PBVCGXStyle@@@Z 0364:?AddBorders@CGXSpinEdit@@UAE?AVCSize@@V2@ABVCGXStyle@@@Z 03A4:?OnInitChildren@CGXSpinEdit@@MAEXKKABVCRect@@@Z 0489:?LButtonDown@CGXSpinEdit@@MAEHIVCPoint@@I@Z 0660:?LButtonUp@CGXSpinEdit@@MAEHIVCPoint@@I@Z 0685:?OnClickedButton@CGXSpinEdit@@MAEXPAVCGXChild@@@Z 08F5:?CanFloatCell@CGXSpinEdit@@UAEHKKABVCGXStyle@@H@Z (REF 0008: ?ctrlCGXSpinEdit@CGXSpinEdit@@2UCGXControlClass@@A)
                30. 06 D72B 02BB 0000:?GetControlClass@CGXHotSpotEdit@@UBEPAUCGXControlClass@@XZ 0010:?GetRuntimeClass@CGXHotSpotEdit@@UBEPAUCRuntimeClass@@XZ 0020:??0CGXHotSpotEdit@@QAE@PAVCGXGridCore@@I@Z 00F5:?Init@CGXHotSpotEdit@@UAEXKK@Z 0148:?GetMessageMap@CGXHotSpotEdit@@MBEPBUAFX_MSGMAP@@XZ 0158:?GetCellRect@CGXHotSpotEdit@@UAE?AVCRect@@KKPAUtagRECT@@PBVCGXStyle@@@Z 01C0:?AddBorders@CGXHotSpotEdit@@UAE?AVCSize@@V2@ABVCGXStyle@@@Z 0200:?OnInitChildren@CGXHotSpotEdit@@MAEXKKABVCRect@@@Z 02AC:?CanFloatCell@CGXHotSpotEdit@@UAEHKKABVCGXStyle@@H@Z (REF 0008: ?ctrlCGXHotSpotEdit@CGXHotSpotEdit@@2UCGXControlClass@@A)
                31. 13 E06E 0117 0000:?GetControlClass@CGXVScrollEdit@@UBEPAUCGXControlClass@@XZ 0010:?GetRuntimeClass@CGXVScrollEdit@@UBEPAUCRuntimeClass@@XZ 0020:??0CGXVScrollEdit@@QAE@PAVCGXGridCore@@I@Z 0053:?GetMessageMap@CGXVScrollEdit@@MBEPBUAFX_MSGMAP@@XZ 0063:?CalcEditStyle@CGXVScrollEdit@@UAEKPAUtagRECT@@AAH@Z 008A:?CanFloatCell@CGXVScrollEdit@@UAEHKKABVCGXStyle@@H@Z 0099:?GetCellRect@CGXVScrollEdit@@UAE?AVCRect@@KKPAUtagRECT@@PBVCGXStyle@@@Z (00DF: E5)
                32. 13 E06E 0233 0000:?GetControlClass@CGXPasswordControl@@UBEPAUCGXControlClass@@XZ 0010:?GetRuntimeClass@CGXPasswordControl@@UBEPAUCRuntimeClass@@XZ 0020:??0CGXPasswordControl@@QAE@PAVCGXGridCore@@I@Z 0076:?GetMessageMap@CGXPasswordControl@@MBEPBUAFX_MSGMAP@@XZ 0086:?GetControlText@CGXPasswordControl@@UAEHAAVCString@@KKPBGABVCGXStyle@@@Z 0102:?SetValue@CGXPasswordControl@@UAEXPBG@Z 01BA:?CalcEditStyle@CGXPasswordControl@@UAEKPAUtagRECT@@AAH@Z 01E3:?Copy@CGXPasswordControl@@UAEHXZ 01F3:?Cut@CGXPasswordControl@@UAEHXZ 0203:?OnLButtonDown@CGXPasswordControl@@IAEXIVCPoint@@@Z 0224:?CanFloatCell@CGXPasswordControl@@UAEHKKABVCGXStyle@@H@Z (00DF: 50)
                33. 13 E06E 022F 0000:?GetControlClass@CGXPasswordControl@@UBEPAUCGXControlClass@@XZ 0010:?GetRuntimeClass@CGXPasswordControl@@UBEPAUCRuntimeClass@@XZ 0020:??0CGXPasswordControl@@QAE@PAVCGXGridCore@@I@Z 0074:?GetMessageMap@CGXPasswordControl@@MBEPBUAFX_MSGMAP@@XZ 0084:?GetControlText@CGXPasswordControl@@UAEHAAVCString@@KKPBDABVCGXStyle@@@Z 00FF:?SetValue@CGXPasswordControl@@UAEXPBD@Z 01B6:?CalcEditStyle@CGXPasswordControl@@UAEKPAUtagRECT@@AAH@Z 01DF:?Copy@CGXPasswordControl@@UAEHXZ 01EF:?Cut@CGXPasswordControl@@UAEHXZ 01FF:?OnLButtonDown@CGXPasswordControl@@IAEXIVCPoint@@@Z 0220:?CanFloatCell@CGXPasswordControl@@UAEHKKABVCGXStyle@@H@Z (00DF: 25)
            6AFF68........64A1:
              0. 04 9F62 0B66 0000:?GetControlClass@CGXWndWrapper@@UBEPAUCGXControlClass@@XZ 0010:??0CGXWndWrapper@@QAE@PAVCGXGridCore@@PAVCWnd@@HHH@Z 00D2:??0CGXWndWrapper@@IAE@PAVCGXGridCore@@@Z 0157:??1CGXWndWrapper@@UAE@XZ 01F9:?GetWndPtr@CGXWndWrapper@@UBEPAVCWnd@@XZ 020A:?SetActive@CGXWndWrapper@@UAEXH@Z 0220:?IsActive@CGXWndWrapper@@UAEHXZ 0252:?Init@CGXWndWrapper@@UAEXKK@Z 02BA:?Draw@CGXWndWrapper@@UAEXPAVCDC@@VCRect@@KKABVCGXStyle@@PBV4@@Z 08F8:?Hide@CGXWndWrapper@@UAEXXZ 0930:?LButtonUp@CGXWndWrapper@@UAEHIVCPoint@@I@Z 0A20:?KeyPressed@CGXWndWrapper@@UAEHIIII@Z 0B05:?InvertBorders@CGXWndWrapper@@UAEXPAVCDC@@ABVCRect@@@Z 0B2B:?OnEndEditing@CGXWndWrapper@@UAEHXZ (05E5: CC)
              1. 04 9F62 0B68 0000:?GetControlClass@CGXWndWrapper@@UBEPAUCGXControlClass@@XZ 0010:??0CGXWndWrapper@@QAE@PAVCGXGridCore@@PAVCWnd@@HHH@Z 00D2:??0CGXWndWrapper@@IAE@PAVCGXGridCore@@@Z 0157:??1CGXWndWrapper@@UAE@XZ 01F9:?GetWndPtr@CGXWndWrapper@@UBEPAVCWnd@@XZ 020A:?SetActive@CGXWndWrapper@@UAEXH@Z 0220:?IsActive@CGXWndWrapper@@UAEHXZ 0252:?Init@CGXWndWrapper@@UAEXKK@Z 02BA:?Draw@CGXWndWrapper@@UAEXPAVCDC@@VCRect@@KKABVCGXStyle@@PBV4@@Z 08FA:?Hide@CGXWndWrapper@@UAEXXZ 0932:?LButtonUp@CGXWndWrapper@@UAEHIVCPoint@@I@Z 0A22:?KeyPressed@CGXWndWrapper@@UAEHIIII@Z 0B07:?InvertBorders@CGXWndWrapper@@UAEXPAVCDC@@ABVCRect@@@Z 0B2D:?OnEndEditing@CGXWndWrapper@@UAEHXZ (05E5: 8D)
              2. 04 9F62 09E2 0000:?GetControlClass@CGXProgressCtrl@@UBEPAUCGXControlClass@@XZ 0010:??0CGXProgressCtrl@@QAE@PAVCGXGridCore@@@Z 0085:??1CGXProgressCtrl@@UAE@XZ 00A1:?AddUserAttributes@CGXProgressCtrl@@SGXPAVCGXStylesMap@@@Z 00D5:?SetProgressValue@CGXProgressCtrl@@SGHPAVCGXGridCore@@KKJ@Z 010A:?OnGetCaption@CGXProgressCtrl@@MAEXAAVCString@@KKABVCGXStyle@@@Z 0185:?OnGetCaptionColor@CGXProgressCtrl@@MAEKHABVCGXStyle@@@Z 01B1:?OnGetCaptionTextColor@CGXProgressCtrl@@MAEKHABVCGXStyle@@@Z 01DD:?Draw@CGXProgressCtrl@@UAEXPAVCDC@@VCRect@@KKABVCGXStyle@@PBV4@@Z 0709:?StoreStyle@CGXProgressCtrl@@UAEHKKPBVCGXStyle@@W4GXModifyType@@H0@Z 08BF:?GetUpdateRect@CGXProgressCtrl@@IAE?AVCRect@@JV2@ABVCGXStyle@@@Z 0997:?UpdateUnitFactor@CGXProgressCtrl@@IAEXVCRect@@J@Z (05E5: 00) (REF 025A: _atol)
              3. 04 9F62 09EA 0000:?GetControlClass@CGXProgressCtrl@@UBEPAUCGXControlClass@@XZ 0010:??0CGXProgressCtrl@@QAE@PAVCGXGridCore@@@Z 0085:??1CGXProgressCtrl@@UAE@XZ 00A1:?AddUserAttributes@CGXProgressCtrl@@SGXPAVCGXStylesMap@@@Z 00D5:?SetProgressValue@CGXProgressCtrl@@SGHPAVCGXGridCore@@KKJ@Z 010A:?OnGetCaption@CGXProgressCtrl@@MAEXAAVCString@@KKABVCGXStyle@@@Z 0185:?OnGetCaptionColor@CGXProgressCtrl@@MAEKHABVCGXStyle@@@Z 01B1:?OnGetCaptionTextColor@CGXProgressCtrl@@MAEKHABVCGXStyle@@@Z 01DD:?Draw@CGXProgressCtrl@@UAEXPAVCDC@@VCRect@@KKABVCGXStyle@@PBV4@@Z 070C:?StoreStyle@CGXProgressCtrl@@UAEHKKPBVCGXStyle@@W4GXModifyType@@H0@Z 08C6:?GetUpdateRect@CGXProgressCtrl@@IAE?AVCRect@@JV2@ABVCGXStyle@@@Z 099F:?UpdateUnitFactor@CGXProgressCtrl@@IAEXVCRect@@J@Z (05E5: 00) (REF 025B: atol)
              4. 04 9F62 087B 0000:?GetRuntimeClass@CGXCollMapDWordToPtr@@UBEPAUCRuntimeClass@@XZ 0010:??0CGXCollMapDWordToPtr@@QAE@H@Z 00BC:?InitHashTable@CGXCollMapDWordToPtr@@QAEXIH@Z 01B5:?RemoveAll@CGXCollMapDWordToPtr@@QAEXXZ 0223:??1CGXCollMapDWordToPtr@@UAE@XZ 029A:?NewAssoc@CGXCollMapDWordToPtr@@IAEPAUCAssoc@1@XZ 03BE:?FreeAssoc@CGXCollMapDWordToPtr@@IAEXPAUCAssoc@1@@Z 0417:?GetAssocAt@CGXCollMapDWordToPtr@@IBEPAUCAssoc@1@KAAI@Z 0481:?Lookup@CGXCollMapDWordToPtr@@QBEHKAAPAX@Z 04D0:??ACGXCollMapDWordToPtr@@QAEAAPAXK@Z 0568:?RemoveKey@CGXCollMapDWordToPtr@@QAEHK@Z 0601:?GetNextAssoc@CGXCollMapDWordToPtr@@QBEXAAPAU__POSITION@@AAKAAPAX@Z 0762:?Dump@CGXCollMapDWordToPtr@@UBEXAAVCDumpContext@@@Z 0813:?AssertValid@CGXCollMapDWordToPtr@@UBEXXZ (05E5: 57)
              5. 04 9F62 0936 0000:?GetRuntimeClass@CGXCollMapStringToWord@@UBEPAUCRuntimeClass@@XZ 0010:??0CGXCollMapStringToWord@@QAE@H@Z 00BC:?InitHashTable@CGXCollMapStringToWord@@QAEXI@Z 0180:?RemoveAll@CGXCollMapStringToWord@@QAEXXZ (l)023D:?DestructElement@@YAXPAVCString@@@Z 024C:??1CGXCollMapStringToWord@@UAE@XZ 02C6:?NewAssoc@CGXCollMapStringToWord@@IAEPAUCAssoc@1@XZ 03ED:?FreeAssoc@CGXCollMapStringToWord@@IAEXPAUCAssoc@1@@Z 0455:?GetAssocAt@CGXCollMapStringToWord@@IBEPAUCAssoc@1@PBGAAI@Z 04CD:?Lookup@CGXCollMapStringToWord@@QBEHPBGAAG@Z 051E:??ACGXCollMapStringToWord@@QAEAAGPBG@Z 05BA:?RemoveKey@CGXCollMapStringToWord@@QAEHPBG@Z 0661:?GetNextAssoc@CGXCollMapStringToWord@@QBEXAAPAU__POSITION@@AAVCString@@AAG@Z 07C8:?Dump@CGXCollMapStringToWord@@UBEXAAVCDumpContext@@@Z 08CE:?AssertValid@CGXCollMapStringToWord@@UBEXXZ (05E5: 4D) (REF 03BD: ?_afxPchNil@@3PBGB)
              6. 04 9F62 0936 0000:?GetRuntimeClass@CGXCollMapStringToWord@@UBEPAUCRuntimeClass@@XZ 0010:??0CGXCollMapStringToWord@@QAE@H@Z 00BC:?InitHashTable@CGXCollMapStringToWord@@QAEXI@Z 0180:?RemoveAll@CGXCollMapStringToWord@@QAEXXZ (l)023D:?DestructElement@@YAXPAVCString@@@Z 024C:??1CGXCollMapStringToWord@@UAE@XZ 02C6:?NewAssoc@CGXCollMapStringToWord@@IAEPAUCAssoc@1@XZ 03ED:?FreeAssoc@CGXCollMapStringToWord@@IAEXPAUCAssoc@1@@Z 0455:?GetAssocAt@CGXCollMapStringToWord@@IBEPAUCAssoc@1@PBDAAI@Z 04CD:?Lookup@CGXCollMapStringToWord@@QBEHPBDAAG@Z 051E:??ACGXCollMapStringToWord@@QAEAAGPBD@Z 05BA:?RemoveKey@CGXCollMapStringToWord@@QAEHPBD@Z 0661:?GetNextAssoc@CGXCollMapStringToWord@@QBEXAAPAU__POSITION@@AAVCString@@AAG@Z 07C8:?Dump@CGXCollMapStringToWord@@UBEXAAVCDumpContext@@@Z 08CE:?AssertValid@CGXCollMapStringToWord@@UBEXXZ (05E5: 4D) (REF 03BD: ?_afxPchNil@@3PBDB)
              7. 04 9F62 0928 0000:?GetRuntimeClass@CGXCollMapStringToHandle@@UBEPAUCRuntimeClass@@XZ 0010:??0CGXCollMapStringToHandle@@QAE@H@Z 00BC:?InitHashTable@CGXCollMapStringToHandle@@QAEXI@Z 0180:?RemoveAll@CGXCollMapStringToHandle@@QAEXXZ (l)023D:?DestructElement@@YAXPAVCString@@@Z 024C:??1CGXCollMapStringToHandle@@UAE@XZ 02C6:?NewAssoc@CGXCollMapStringToHandle@@IAEPAUCAssoc@1@XZ 03E4:?FreeAssoc@CGXCollMapStringToHandle@@IAEXPAUCAssoc@1@@Z 044C:?GetAssocAt@CGXCollMapStringToHandle@@IBEPAUCAssoc@1@PBGAAI@Z 04C4:?Lookup@CGXCollMapStringToHandle@@QBEHPBGAAPAX@Z 0513:??ACGXCollMapStringToHandle@@QAEAAPAXPBG@Z 05AF:?RemoveKey@CGXCollMapStringToHandle@@QAEHPBG@Z 0656:?GetNextAssoc@CGXCollMapStringToHandle@@QBEXAAPAU__POSITION@@AAVCString@@AAPAX@Z 07BB:?Dump@CGXCollMapStringToHandle@@UBEXAAVCDumpContext@@@Z 08C0:?AssertValid@CGXCollMapStringToHandle@@UBEXXZ (05E5: F8) (REF 03BD: ?_afxPchNil@@3PBGB)
              8. 04 9F62 0928 0000:?GetRuntimeClass@CGXCollMapStringToHandle@@UBEPAUCRuntimeClass@@XZ 0010:??0CGXCollMapStringToHandle@@QAE@H@Z 00BC:?InitHashTable@CGXCollMapStringToHandle@@QAEXI@Z 0180:?RemoveAll@CGXCollMapStringToHandle@@QAEXXZ (l)023D:?DestructElement@@YAXPAVCString@@@Z 024C:??1CGXCollMapStringToHandle@@UAE@XZ 02C6:?NewAssoc@CGXCollMapStringToHandle@@IAEPAUCAssoc@1@XZ 03E4:?FreeAssoc@CGXCollMapStringToHandle@@IAEXPAUCAssoc@1@@Z 044C:?GetAssocAt@CGXCollMapStringToHandle@@IBEPAUCAssoc@1@PBDAAI@Z 04C4:?Lookup@CGXCollMapStringToHandle@@QBEHPBDAAPAX@Z 0513:??ACGXCollMapStringToHandle@@QAEAAPAXPBD@Z 05AF:?RemoveKey@CGXCollMapStringToHandle@@QAEHPBD@Z 0656:?GetNextAssoc@CGXCollMapStringToHandle@@QBEXAAPAU__POSITION@@AAVCString@@AAPAX@Z 07BB:?Dump@CGXCollMapStringToHandle@@UBEXAAVCDumpContext@@@Z 08C0:?AssertValid@CGXCollMapStringToHandle@@UBEXXZ (05E5: F8) (REF 03BD: ?_afxPchNil@@3PBDB)
              9. 04 9F62 1C57 0000:?GetControlClass@CGXCheckBox@@UBEPAUCGXControlClass@@XZ 0010:??0CGXCheckBox@@QAE@PAVCGXGridCore@@HII@Z 0106:??1CGXCheckBox@@UAE@XZ 014E:?AddUserAttributes@CGXCheckBox@@SGXPAVCGXStylesMap@@@Z 0173:?LoadBitmapA@CGXCheckBox@@UAEHXZ 0348:?OnGridSysColorChange@CGXCheckBox@@UAEXXZ 0361:?GetColorValue@CGXCheckBox@@UAEKKH@Z 03F9:?ComputeCheckBoxRect@CGXCheckBox@@UAE?AVCRect@@PAVCDC@@V2@PBDK@Z 077D:?DrawCheckBox@CGXCheckBox@@UAEXPAVCDC@@VCRect@@IKPBD@Z 0A52:?GetState@CGXCheckBox@@UAEIKKABVCGXStyle@@@Z 0BFE:?Draw@CGXCheckBox@@UAEXPAVCDC@@VCRect@@KKABVCGXStyle@@PBV4@@Z 0E5C:?CalcSize@CGXCheckBox@@UAE?AVCSize@@PAVCDC@@KKABVCGXStyle@@PBV4@H@Z 1484:?LButtonDown@CGXCheckBox@@UAEHIVCPoint@@I@Z 16C2:?LButtonUp@CGXCheckBox@@UAEHIVCPoint@@I@Z 1739:?MouseMove@CGXCheckBox@@UAEHIVCPoint@@I@Z 17CA:?LButtonDblClk@CGXCheckBox@@UAEHIVCPoint@@@Z 1833:?KeyPressed@CGXCheckBox@@UAEHIIII@Z 188C:?OnClickedButton@CGXCheckBox@@UAEXPAVCGXChild@@@Z 1A8F:?ConvertControlTextToValue@CGXCheckBox@@UAEHAAVCString@@KKPBVCGXStyle@@@Z 1C2B:?OnGridCancelMode@CGXCheckBox@@UAEXXZ (05E5: 2B)
              10. 04 9F62 1C5C 0000:?GetControlClass@CGXCheckBox@@UBEPAUCGXControlClass@@XZ 0010:??0CGXCheckBox@@QAE@PAVCGXGridCore@@HII@Z 0106:??1CGXCheckBox@@UAE@XZ 014E:?AddUserAttributes@CGXCheckBox@@SGXPAVCGXStylesMap@@@Z 0173:?LoadBitmapW@CGXCheckBox@@UAEHXZ 0348:?OnGridSysColorChange@CGXCheckBox@@UAEXXZ 0361:?GetColorValue@CGXCheckBox@@UAEKKH@Z 03F9:?ComputeCheckBoxRect@CGXCheckBox@@UAE?AVCRect@@PAVCDC@@V2@PBGK@Z 077E:?DrawCheckBox@CGXCheckBox@@UAEXPAVCDC@@VCRect@@IKPBG@Z 0A53:?GetState@CGXCheckBox@@UAEIKKABVCGXStyle@@@Z 0BFF:?Draw@CGXCheckBox@@UAEXPAVCDC@@VCRect@@KKABVCGXStyle@@PBV4@@Z 0E5E:?CalcSize@CGXCheckBox@@UAE?AVCSize@@PAVCDC@@KKABVCGXStyle@@PBV4@H@Z 1489:?LButtonDown@CGXCheckBox@@UAEHIVCPoint@@I@Z 16C7:?LButtonUp@CGXCheckBox@@UAEHIVCPoint@@I@Z 173E:?MouseMove@CGXCheckBox@@UAEHIVCPoint@@I@Z 17CF:?LButtonDblClk@CGXCheckBox@@UAEHIVCPoint@@@Z 1838:?KeyPressed@CGXCheckBox@@UAEHIIII@Z 1891:?OnClickedButton@CGXCheckBox@@UAEXPAVCGXChild@@@Z 1A94:?ConvertControlTextToValue@CGXCheckBox@@UAEHAAVCString@@KKPBVCGXStyle@@@Z 1C30:?OnGridCancelMode@CGXCheckBox@@UAEXXZ (05E5: 9C)
              11. 04 9F62 1C4B 0000:?GetControlClass@CGXCheckBox@@UBEPAUCGXControlClass@@XZ 0010:??0CGXCheckBox@@QAE@PAVCGXGridCore@@HII@Z 0106:??1CGXCheckBox@@UAE@XZ 014E:?AddUserAttributes@CGXCheckBox@@SGXPAVCGXStylesMap@@@Z 0173:?LoadBitmapA@CGXCheckBox@@UAEHXZ 033C:?OnGridSysColorChange@CGXCheckBox@@UAEXXZ 0355:?GetColorValue@CGXCheckBox@@UAEKKH@Z 03ED:?ComputeCheckBoxRect@CGXCheckBox@@UAE?AVCRect@@PAVCDC@@V2@PBDK@Z 0771:?DrawCheckBox@CGXCheckBox@@UAEXPAVCDC@@VCRect@@IKPBD@Z 0A46:?GetState@CGXCheckBox@@UAEIKKABVCGXStyle@@@Z 0BF2:?Draw@CGXCheckBox@@UAEXPAVCDC@@VCRect@@KKABVCGXStyle@@PBV4@@Z 0E50:?CalcSize@CGXCheckBox@@UAE?AVCSize@@PAVCDC@@KKABVCGXStyle@@PBV4@H@Z 1478:?LButtonDown@CGXCheckBox@@UAEHIVCPoint@@I@Z 16B6:?LButtonUp@CGXCheckBox@@UAEHIVCPoint@@I@Z 172D:?MouseMove@CGXCheckBox@@UAEHIVCPoint@@I@Z 17BE:?LButtonDblClk@CGXCheckBox@@UAEHIVCPoint@@@Z 1827:?KeyPressed@CGXCheckBox@@UAEHIIII@Z 1880:?OnClickedButton@CGXCheckBox@@UAEXPAVCGXChild@@@Z 1A83:?ConvertControlTextToValue@CGXCheckBox@@UAEHAAVCString@@KKPBVCGXStyle@@@Z 1C1F:?OnGridCancelMode@CGXCheckBox@@UAEXXZ (05E5: A8)
              12. 04 9F62 1C4E 0000:?GetControlClass@CGXCheckBox@@UBEPAUCGXControlClass@@XZ 0010:??0CGXCheckBox@@QAE@PAVCGXGridCore@@HII@Z 0106:??1CGXCheckBox@@UAE@XZ 014E:?AddUserAttributes@CGXCheckBox@@SGXPAVCGXStylesMap@@@Z 0173:?LoadBitmapW@CGXCheckBox@@UAEHXZ 033C:?OnGridSysColorChange@CGXCheckBox@@UAEXXZ 0355:?GetColorValue@CGXCheckBox@@UAEKKH@Z 03ED:?ComputeCheckBoxRect@CGXCheckBox@@UAE?AVCRect@@PAVCDC@@V2@PBGK@Z 0771:?DrawCheckBox@CGXCheckBox@@UAEXPAVCDC@@VCRect@@IKPBG@Z 0A46:?GetState@CGXCheckBox@@UAEIKKABVCGXStyle@@@Z 0BF2:?Draw@CGXCheckBox@@UAEXPAVCDC@@VCRect@@KKABVCGXStyle@@PBV4@@Z 0E50:?CalcSize@CGXCheckBox@@UAE?AVCSize@@PAVCDC@@KKABVCGXStyle@@PBV4@H@Z 147B:?LButtonDown@CGXCheckBox@@UAEHIVCPoint@@I@Z 16B9:?LButtonUp@CGXCheckBox@@UAEHIVCPoint@@I@Z 1730:?MouseMove@CGXCheckBox@@UAEHIVCPoint@@I@Z 17C1:?LButtonDblClk@CGXCheckBox@@UAEHIVCPoint@@@Z 182A:?KeyPressed@CGXCheckBox@@UAEHIIII@Z 1883:?OnClickedButton@CGXCheckBox@@UAEXPAVCGXChild@@@Z 1A86:?ConvertControlTextToValue@CGXCheckBox@@UAEHAAVCString@@KKPBVCGXStyle@@@Z 1C22:?OnGridCancelMode@CGXCheckBox@@UAEXXZ (05E5: A4)
              13. 04 9F62 71C8 0000:?GetRuntimeClass@CGXBCurrencyEdit@@UBEPAUCRuntimeClass@@XZ 0010:??0Format@CGXBCurrencyEdit@@QAE@H@Z 013E:?InitializeFromSystemDefaults@Format@CGXBCurrencyEdit@@QAEXXZ 025B:?SetPaddingCharacter@Format@CGXBCurrencyEdit@@QAEHG@Z 02D6:?GetBackgroundColor@Format@CGXBCurrencyEdit@@QBEHAAK@Z 0304:?SetBackgroundColor@Format@CGXBCurrencyEdit@@QAEXK@Z 0328:?GetNegativeColor@Format@CGXBCurrencyEdit@@QBEHAAK@Z 0356:?SetNegativeColor@Format@CGXBCurrencyEdit@@QAEXK@Z 037A:?GetPositiveColor@Format@CGXBCurrencyEdit@@QBEHAAK@Z 03A8:?SetPositiveColor@Format@CGXBCurrencyEdit@@QAEXK@Z 03CC:?SetGrouping@Format@CGXBCurrencyEdit@@QAEHPBG@Z 044A:?FindDecimalSeparator@Format@CGXBCurrencyEdit@@UBEHPBGG@Z 0497:?FindFirstAndLastDigits@Format@CGXBCurrencyEdit@@UBEHPBGAAH1@Z 05D8:?ParseValue@Format@CGXBCurrencyEdit@@UBEHPBGAANAAH@Z (l)0AE6:?RemoveFromString@@YAHAAVCString@@G@Z (l)0B77:?IsAllDigits@@YAHPBG@Z 0BBA:?FormatValue@Format@CGXBCurrencyEdit@@UBEXNAAVCString@@H@Z (l)119B:?GroupDigits@@YAXAAVCString@@PBVFormat@CGXBCurrencyEdit@@PBG@Z (l)1241:?GroupDigits@@YAXAAVCString@@PBVFormat@CGXBCurrencyEdit@@H@Z 1378:??4Format@CGXBCurrencyEdit@@UAEAAV01@ABV01@@Z 147E:??8Format@CGXBCurrencyEdit@@UBEHABV01@@Z 15FC:?SetPositiveFormat@Format@CGXBCurrencyEdit@@QAEXH@Z 1658:?SetNegativeFormat@Format@CGXBCurrencyEdit@@QAEXH@Z 16B4:??0CGXBCurrencyEdit@@QAE@XZ 1800:??0CGXBCurrencyEdit@@QAE@PAVFormat@0@@Z 1915:??1CGXBCurrencyEdit@@UAE@XZ 19A2:?GetMessageMap@CGXBCurrencyEdit@@MBEPBUAFX_MSGMAP@@XZ 19B2:?CreatePopupMenu@CGXBCurrencyEdit@@MBEPAVCMenu@@XZ (l)1C35:?GetClipboardText@@YAHAAVCString@@@Z 1C9D:?DeletePopupMenu@CGXBCurrencyEdit@@MBEXPAVCMenu@@@Z 1CD7:?SaveDataForUndo@CGXBCurrencyEdit@@MAEXPBGH@Z 1D73:?Initialize@CGXBCurrencyEdit@@QAEHPAVCWnd@@I@Z (l)1FA0:?IsEditControl@@YAHPAVCWnd@@@Z (l)200F:?AfxGetWindowClassName@@YAXPAVCWnd@@AAVCString@@@Z (l)205B:?AfxRegisterNamedWndClass@@YAHPBGIPAUHICON__@@PAUHBRUSH__@@1@Z 210A:?SetWindowTextNoParse@CGXBCurrencyEdit@@IAEXPBG@Z 2141:?GetValue@CGXBCurrencyEdit@@QBEXAAN@Z 2183:?SetValue@CGXBCurrencyEdit@@QAEXNH@Z 21D1:?SetValue@CGXBCurrencyEdit@@IAEXNHH@Z 22D3:?SetFormat@CGXBCurrencyEdit@@QAEXABVFormat@1@@Z 23B7:?GetFormat@CGXBCurrencyEdit@@QAEXAAVFormat@1@@Z 23D9:?GetBackgroundColor@CGXBCurrencyEdit@@IBEKXZ 2434:?GetTextColor@CGXBCurrencyEdit@@IBEKXZ 2505:?EraseBackground@CGXBCurrencyEdit@@MAEXPAVCDC@@@Z 25A6:?GetAlignment@CGXBCurrencyEdit@@QBE?AW4Align@1@XZ 25E2:?SetAlignment@CGXBCurrencyEdit@@QAEXW4Align@1@@Z 2638:?CalculateTextRect@CGXBCurrencyEdit@@IAEXAAVCRect@@@Z 27B9:?MoveCaret@CGXBCurrencyEdit@@IAEXHH@Z 29B1:?DoInsert@CGXBCurrencyEdit@@MAEXPBG@Z (l)3351:?CountDigits@@YAHPBG@Z 33A0:?DoDelete@CGXBCurrencyEdit@@MAEXXZ (l)3845:?GetDigitAfterIndex@@YAHHPBG@Z (l)3928:?GetDigitIndex@@YAHHPBG@Z 3995:?DoBackspace@CGXBCurrencyEdit@@MAEXXZ (l)3DC7:?GetDigitBeforeIndex@@YAHHPBG@Z 3EAD:?PointToCaretPos@CGXBCurrencyEdit@@IAEHABVCPoint@@@Z 3FD4:?StartEdit@CGXBCurrencyEdit@@MAEXH@Z 40AE:?StopEdit@CGXBCurrencyEdit@@MAEXXZ 40C7:?IsReadOnly@CGXBCurrencyEdit@@QBEHXZ 40E5:?SetReadOnly@CGXBCurrencyEdit@@QAEXH@Z 4125:?SetSel@CGXBCurrencyEdit@@IAEHHH@Z 4219:?ReplaceSelString@CGXBCurrencyEdit@@IBEXPBGAAVCString@@@Z 4354:?GetSelectedText@CGXBCurrencyEdit@@IBEXAAVCString@@@Z 4442:?DrawDecimalSeparatorLine@CGXBCurrencyEdit@@MAEXAAVCDC@@H@Z 4514:?PaintingCore@CGXBCurrencyEdit@@IAEXAAVCDC@@@Z 48A9:?IsEntireNumberSelected@CGXBCurrencyEdit@@IBEHPAH@Z 49FF:?ShowCalculator@CGXBCurrencyEdit@@MAEHXZ 4B10:?SetMargins@CGXBCurrencyEdit@@QAEXII@Z 4B4D:?NotifyParent@CGXBCurrencyEdit@@IAEXI@Z 4BAB:?HandleNegativeSignKey@CGXBCurrencyEdit@@MAEXXZ 4DF7:?MoveCaretToNumber@CGXBCurrencyEdit@@IAEXXZ 4F57:?ToggleOverstrikeMode@CGXBCurrencyEdit@@MAEXXZ 4F74:?PrepareTextForPaste@CGXBCurrencyEdit@@MAEHAAVCString@@@Z (l)4FA0:?RemoveAllButDigits@@YAHAAVCString@@@Z 502D:?OnGetFont@CGXBCurrencyEdit@@IAEJIJ@Z 5043:?OnSetFont@CGXBCurrencyEdit@@IAEJIJ@Z 506E:?OnSetText@CGXBCurrencyEdit@@IAEJIJ@Z 50EC:?OnPaste@CGXBCurrencyEdit@@IAEJIJ@Z 5103:?OnCanUndo@CGXBCurrencyEdit@@IAEJIJ@Z 5116:?OnUndo@CGXBCurrencyEdit@@IAEJIJ@Z 512D:?OnGetSel@CGXBCurrencyEdit@@IAEJIJ@Z 51B2:?OnSetSel@CGXBCurrencyEdit@@IAEJIJ@Z 51D1:?OnSetReadOnly@CGXBCurrencyEdit@@IAEJIJ@Z 5204:?OnEmptyUndoBuffer@CGXBCurrencyEdit@@IAEJIJ@Z 521D:?OnEditUndo@CGXBCurrencyEdit@@IAEXXZ 52D3:?OnEditPaste@CGXBCurrencyEdit@@IAEXXZ 5368:?OnEditCopy@CGXBCurrencyEdit@@IAEXXZ (l)53DB:?SetClipboardText@@YAHPBG@Z 549C:?OnEditClear@CGXBCurrencyEdit@@IAEXXZ 554D:?OnEditSelectAll@CGXBCurrencyEdit@@IAEXXZ 5560:?OnCut@CGXBCurrencyEdit@@IAEJIJ@Z 5577:?OnEditCut@CGXBCurrencyEdit@@IAEXXZ 5606:?OnCopy@CGXBCurrencyEdit@@IAEJIJ@Z 561D:?OnSetRedraw@CGXBCurrencyEdit@@IAEJIJ@Z 563B:?OnSetMargins@CGXBCurrencyEdit@@IAEJIJ@Z 571E:?OnRButtonUp@CGXBCurrencyEdit@@IAEXIVCPoint@@@Z 5794:?OnSetFocus@CGXBCurrencyEdit@@IAEXPAVCWnd@@@Z 57D2:?OnKillFocus@CGXBCurrencyEdit@@IAEXPAVCWnd@@@Z 5806:?OnGetDlgCode@CGXBCurrencyEdit@@IAEIXZ 5816:?OnKeyDown@CGXBCurrencyEdit@@IAEXIII@Z 5AA0:?OnChar@CGXBCurrencyEdit@@IAEXIII@Z 5C21:?OnSysKeyDown@CGXBCurrencyEdit@@IAEXIII@Z 5CC3:?OnLButtonDblClk@CGXBCurrencyEdit@@IAEXIVCPoint@@@Z 5CEC:?OnPaint@CGXBCurrencyEdit@@IAEXXZ 5E6F:?OnLButtonDown@CGXBCurrencyEdit@@IAEXIVCPoint@@@Z 5EDD:?OnMouseMove@CGXBCurrencyEdit@@IAEXIVCPoint@@@Z 5F21:?OnLButtonUp@CGXBCurrencyEdit@@IAEXIVCPoint@@@Z 6029:?GetRuntimeClass@CGXBDropEdit@@UBEPAUCRuntimeClass@@XZ 6039:?GetMessageMap@CGXBDropEdit@@MBEPBUAFX_MSGMAP@@XZ 6049:??0CGXBDropEdit@@QAE@XZ 60C6:??1CGXBDropEdit@@UAE@XZ 611A:?AttachEdit@CGXBDropEdit@@QAEHHPAVCWnd@@@Z 61CD:?Create@CGXBDropEdit@@QAEHKABUtagRECT@@PAVCWnd@@I@Z 623E:?SetRightAlign@CGXBDropEdit@@QAEXH@Z 62C3:?IsRightAligned@CGXBDropEdit@@QBEHXZ 62E2:?SetBorder@CGXBDropEdit@@QAEXGG@Z 635C:?GetBorders@CGXBDropEdit@@QBEKXZ 6380:?SetBitmap@CGXBDropEdit@@QAEHPBG@Z 6434:?SetBitmap@CGXBDropEdit@@QAEHI@Z 6452:?SetBitmap@CGXBDropEdit@@QAEHXZ 6467:?GetBitmap@CGXBDropEdit@@QBEPAUHBITMAP__@@XZ 6478:?HitTestBtn@CGXBDropEdit@@UBEHVCPoint@@H@Z 6512:?InvalidateBtn@CGXBDropEdit@@QAEXXZ 656F:?OnClicked@CGXBDropEdit@@MAEXXZ 65BB:?DrawBtn@CGXBDropEdit@@MAEXAAVCDC@@VCRect@@@Z 67A8:?OnNcCalcSize@CGXBDropEdit@@IAEXHPAUtagNCCALCSIZE_PARAMS@@@Z 68B7:?OnNcHitTest@CGXBDropEdit@@IAEIVCPoint@@@Z 6905:?OnNcLButtonDown@CGXBDropEdit@@IAEXIVCPoint@@@Z 69AD:?OnMouseMove@CGXBDropEdit@@IAEXIVCPoint@@@Z 6A71:?OnLButtonUp@CGXBDropEdit@@IAEXIVCPoint@@@Z 6B18:?OnCancelMode@CGXBDropEdit@@IAEXXZ 6B7D:?OnNcPaint@CGXBDropEdit@@IAEXXZ 6DC3:?OnEnable@CGXBDropEdit@@IAEXH@Z 6DE4:?OnSysColorChange@CGXBDropEdit@@IAEXXZ 6E6F:?OnKeyDown@CGXBDropEdit@@IAEXIII@Z 6EA6:?OnSysKeyDown@CGXBDropEdit@@IAEXIII@Z 6EDD:?Dump@CGXBDropEdit@@UBEXAAVCDumpContext@@@Z 6F6B:?AssertValid@CGXBDropEdit@@UBEXXZ 6F7E:?CGXBDrawDisabled@@YGXAAVCDC@@HHHH@Z (05E5: E8)
              14. 04 9F62 7129 0000:?GetRuntimeClass@CGXBCurrencyEdit@@UBEPAUCRuntimeClass@@XZ 0010:??0Format@CGXBCurrencyEdit@@QAE@H@Z 0138:?InitializeFromSystemDefaults@Format@CGXBCurrencyEdit@@QAEXXZ 0253:?SetPaddingCharacter@Format@CGXBCurrencyEdit@@QAEHD@Z 02C7:?GetBackgroundColor@Format@CGXBCurrencyEdit@@QBEHAAK@Z 02F5:?SetBackgroundColor@Format@CGXBCurrencyEdit@@QAEXK@Z 0319:?GetNegativeColor@Format@CGXBCurrencyEdit@@QBEHAAK@Z 0347:?SetNegativeColor@Format@CGXBCurrencyEdit@@QAEXK@Z 036B:?GetPositiveColor@Format@CGXBCurrencyEdit@@QBEHAAK@Z 0399:?SetPositiveColor@Format@CGXBCurrencyEdit@@QAEXK@Z 03BD:?SetGrouping@Format@CGXBCurrencyEdit@@QAEHPBD@Z 043B:?FindDecimalSeparator@Format@CGXBCurrencyEdit@@UBEHPBDD@Z 0480:?FindFirstAndLastDigits@Format@CGXBCurrencyEdit@@UBEHPBDAAH1@Z 05A7:?ParseValue@Format@CGXBCurrencyEdit@@UBEHPBDAANAAH@Z (l)0AB0:?RemoveFromString@@YAHAAVCString@@D@Z (l)0B30:?IsAllDigits@@YAHPBD@Z 0B6F:?FormatValue@Format@CGXBCurrencyEdit@@UBEXNAAVCString@@H@Z (l)113E:?GroupDigits@@YAXAAVCString@@PBVFormat@CGXBCurrencyEdit@@PBD@Z (l)11E4:?GroupDigits@@YAXAAVCString@@PBVFormat@CGXBCurrencyEdit@@H@Z 1315:??4Format@CGXBCurrencyEdit@@UAEAAV01@ABV01@@Z 1415:??8Format@CGXBCurrencyEdit@@UBEHABV01@@Z 1587:?SetPositiveFormat@Format@CGXBCurrencyEdit@@QAEXH@Z 15E3:?SetNegativeFormat@Format@CGXBCurrencyEdit@@QAEXH@Z 163F:??0CGXBCurrencyEdit@@QAE@XZ 178B:??0CGXBCurrencyEdit@@QAE@PAVFormat@0@@Z 18A0:??1CGXBCurrencyEdit@@UAE@XZ 192D:?GetMessageMap@CGXBCurrencyEdit@@MBEPBUAFX_MSGMAP@@XZ 193D:?CreatePopupMenu@CGXBCurrencyEdit@@MBEPAVCMenu@@XZ (l)1BC0:?GetClipboardText@@YAHAAVCString@@@Z 1C28:?DeletePopupMenu@CGXBCurrencyEdit@@MBEXPAVCMenu@@@Z 1C62:?SaveDataForUndo@CGXBCurrencyEdit@@MAEXPBDH@Z 1CFE:?Initialize@CGXBCurrencyEdit@@QAEHPAVCWnd@@I@Z (l)1F2B:?IsEditControl@@YAHPAVCWnd@@@Z (l)1F9A:?AfxGetWindowClassName@@YAXPAVCWnd@@AAVCString@@@Z (l)1FE6:?AfxRegisterNamedWndClass@@YAHPBDIPAUHICON__@@PAUHBRUSH__@@1@Z 2095:?SetWindowTextNoParse@CGXBCurrencyEdit@@IAEXPBD@Z 20CC:?GetValue@CGXBCurrencyEdit@@QBEXAAN@Z 210E:?SetValue@CGXBCurrencyEdit@@QAEXNH@Z 215C:?SetValue@CGXBCurrencyEdit@@IAEXNHH@Z 225E:?SetFormat@CGXBCurrencyEdit@@QAEXABVFormat@1@@Z 2342:?GetFormat@CGXBCurrencyEdit@@QAEXAAVFormat@1@@Z 2364:?GetBackgroundColor@CGXBCurrencyEdit@@IBEKXZ 23BF:?GetTextColor@CGXBCurrencyEdit@@IBEKXZ 2490:?EraseBackground@CGXBCurrencyEdit@@MAEXPAVCDC@@@Z 2531:?GetAlignment@CGXBCurrencyEdit@@QBE?AW4Align@1@XZ 256D:?SetAlignment@CGXBCurrencyEdit@@QAEXW4Align@1@@Z 25C3:?CalculateTextRect@CGXBCurrencyEdit@@IAEXAAVCRect@@@Z 2744:?MoveCaret@CGXBCurrencyEdit@@IAEXHH@Z 293C:?DoInsert@CGXBCurrencyEdit@@MAEXPBD@Z (l)32CE:?CountDigits@@YAHPBD@Z 3319:?DoDelete@CGXBCurrencyEdit@@MAEXXZ (l)37C1:?GetDigitAfterIndex@@YAHHPBD@Z (l)38A4:?GetDigitIndex@@YAHHPBD@Z 390B:?DoBackspace@CGXBCurrencyEdit@@MAEXXZ (l)3D3D:?GetDigitBeforeIndex@@YAHHPBD@Z 3E23:?PointToCaretPos@CGXBCurrencyEdit@@IAEHABVCPoint@@@Z 3F48:?StartEdit@CGXBCurrencyEdit@@MAEXH@Z 4022:?StopEdit@CGXBCurrencyEdit@@MAEXXZ 403B:?IsReadOnly@CGXBCurrencyEdit@@QBEHXZ 4059:?SetReadOnly@CGXBCurrencyEdit@@QAEXH@Z 4099:?SetSel@CGXBCurrencyEdit@@IAEHHH@Z 418D:?ReplaceSelString@CGXBCurrencyEdit@@IBEXPBDAAVCString@@@Z 42C8:?GetSelectedText@CGXBCurrencyEdit@@IBEXAAVCString@@@Z 43B6:?DrawDecimalSeparatorLine@CGXBCurrencyEdit@@MAEXAAVCDC@@H@Z 4488:?PaintingCore@CGXBCurrencyEdit@@IAEXAAVCDC@@@Z 481D:?IsEntireNumberSelected@CGXBCurrencyEdit@@IBEHPAH@Z 4973:?ShowCalculator@CGXBCurrencyEdit@@MAEHXZ 4A84:?SetMargins@CGXBCurrencyEdit@@QAEXII@Z 4AC1:?NotifyParent@CGXBCurrencyEdit@@IAEXI@Z 4B1F:?HandleNegativeSignKey@CGXBCurrencyEdit@@MAEXXZ 4D6B:?MoveCaretToNumber@CGXBCurrencyEdit@@IAEXXZ 4ECB:?ToggleOverstrikeMode@CGXBCurrencyEdit@@MAEXXZ 4EE8:?PrepareTextForPaste@CGXBCurrencyEdit@@MAEHAAVCString@@@Z (l)4F14:?RemoveAllButDigits@@YAHAAVCString@@@Z 4F99:?OnGetFont@CGXBCurrencyEdit@@IAEJIJ@Z 4FAF:?OnSetFont@CGXBCurrencyEdit@@IAEJIJ@Z 4FDA:?OnSetText@CGXBCurrencyEdit@@IAEJIJ@Z 5058:?OnPaste@CGXBCurrencyEdit@@IAEJIJ@Z 506F:?OnCanUndo@CGXBCurrencyEdit@@IAEJIJ@Z 5082:?OnUndo@CGXBCurrencyEdit@@IAEJIJ@Z 5099:?OnGetSel@CGXBCurrencyEdit@@IAEJIJ@Z 511E:?OnSetSel@CGXBCurrencyEdit@@IAEJIJ@Z 513D:?OnSetReadOnly@CGXBCurrencyEdit@@IAEJIJ@Z 5170:?OnEmptyUndoBuffer@CGXBCurrencyEdit@@IAEJIJ@Z 5189:?OnEditUndo@CGXBCurrencyEdit@@IAEXXZ 523F:?OnEditPaste@CGXBCurrencyEdit@@IAEXXZ 52D4:?OnEditCopy@CGXBCurrencyEdit@@IAEXXZ (l)5347:?SetClipboardText@@YAHPBD@Z 5404:?OnEditClear@CGXBCurrencyEdit@@IAEXXZ 54B5:?OnEditSelectAll@CGXBCurrencyEdit@@IAEXXZ 54C8:?OnCut@CGXBCurrencyEdit@@IAEJIJ@Z 54DF:?OnEditCut@CGXBCurrencyEdit@@IAEXXZ 556E:?OnCopy@CGXBCurrencyEdit@@IAEJIJ@Z 5585:?OnSetRedraw@CGXBCurrencyEdit@@IAEJIJ@Z 55A3:?OnSetMargins@CGXBCurrencyEdit@@IAEJIJ@Z 5686:?OnRButtonUp@CGXBCurrencyEdit@@IAEXIVCPoint@@@Z 56FC:?OnSetFocus@CGXBCurrencyEdit@@IAEXPAVCWnd@@@Z 573A:?OnKillFocus@CGXBCurrencyEdit@@IAEXPAVCWnd@@@Z 576E:?OnGetDlgCode@CGXBCurrencyEdit@@IAEIXZ 577E:?OnKeyDown@CGXBCurrencyEdit@@IAEXIII@Z 5A08:?OnChar@CGXBCurrencyEdit@@IAEXIII@Z 5B82:?OnSysKeyDown@CGXBCurrencyEdit@@IAEXIII@Z 5C24:?OnLButtonDblClk@CGXBCurrencyEdit@@IAEXIVCPoint@@@Z 5C4D:?OnPaint@CGXBCurrencyEdit@@IAEXXZ 5DD0:?OnLButtonDown@CGXBCurrencyEdit@@IAEXIVCPoint@@@Z 5E3E:?OnMouseMove@CGXBCurrencyEdit@@IAEXIVCPoint@@@Z 5E82:?OnLButtonUp@CGXBCurrencyEdit@@IAEXIVCPoint@@@Z 5F8A:?GetRuntimeClass@CGXBDropEdit@@UBEPAUCRuntimeClass@@XZ 5F9A:?GetMessageMap@CGXBDropEdit@@MBEPBUAFX_MSGMAP@@XZ 5FAA:??0CGXBDropEdit@@QAE@XZ 6027:??1CGXBDropEdit@@UAE@XZ 607B:?AttachEdit@CGXBDropEdit@@QAEHHPAVCWnd@@@Z 612E:?Create@CGXBDropEdit@@QAEHKABUtagRECT@@PAVCWnd@@I@Z 619F:?SetRightAlign@CGXBDropEdit@@QAEXH@Z 6224:?IsRightAligned@CGXBDropEdit@@QBEHXZ 6243:?SetBorder@CGXBDropEdit@@QAEXGG@Z 62BD:?GetBorders@CGXBDropEdit@@QBEKXZ 62E1:?SetBitmap@CGXBDropEdit@@QAEHPBD@Z 6395:?SetBitmap@CGXBDropEdit@@QAEHI@Z 63B3:?SetBitmap@CGXBDropEdit@@QAEHXZ 63C8:?GetBitmap@CGXBDropEdit@@QBEPAUHBITMAP__@@XZ 63D9:?HitTestBtn@CGXBDropEdit@@UBEHVCPoint@@H@Z 6473:?InvalidateBtn@CGXBDropEdit@@QAEXXZ 64D0:?OnClicked@CGXBDropEdit@@MAEXXZ 651C:?DrawBtn@CGXBDropEdit@@MAEXAAVCDC@@VCRect@@@Z 6709:?OnNcCalcSize@CGXBDropEdit@@IAEXHPAUtagNCCALCSIZE_PARAMS@@@Z 6818:?OnNcHitTest@CGXBDropEdit@@IAEIVCPoint@@@Z 6866:?OnNcLButtonDown@CGXBDropEdit@@IAEXIVCPoint@@@Z 690E:?OnMouseMove@CGXBDropEdit@@IAEXIVCPoint@@@Z 69D2:?OnLButtonUp@CGXBDropEdit@@IAEXIVCPoint@@@Z 6A79:?OnCancelMode@CGXBDropEdit@@IAEXXZ 6ADE:?OnNcPaint@CGXBDropEdit@@IAEXXZ 6D24:?OnEnable@CGXBDropEdit@@IAEXH@Z 6D45:?OnSysColorChange@CGXBDropEdit@@IAEXXZ 6DD0:?OnKeyDown@CGXBDropEdit@@IAEXIII@Z 6E07:?OnSysKeyDown@CGXBDropEdit@@IAEXIII@Z 6E3E:?Dump@CGXBDropEdit@@UBEXAAVCDumpContext@@@Z 6ECC:?AssertValid@CGXBDropEdit@@UBEXXZ 6EDF:?CGXBDrawDisabled@@YGXAAVCDC@@HHHH@Z (05E5: FC)
              15. 04 9F62 444F 0000:?GetControlClass@CGXOlePreview@@UBEPAUCGXControlClass@@XZ 0010:??0CGXOlePreview@@QAE@PAVCGXBrowserGrid@@PAVCGXViewerFactory@@@Z 0168:??1CGXOlePreview@@UAE@XZ 01E9:?LButtonDblClk@CGXOlePreview@@UAEHIVCPoint@@@Z 020A:?PreRender@CGXOlePreview@@UAEPAUHWND__@@XZ 02A5:?PostRender@CGXOlePreview@@UAEXPAUHWND__@@@Z 0336:?SetActiveViewer@CGXOlePreview@@QAEXPAVCGXOleViewer@@@Z 034C:?GetActiveViewer@CGXOlePreview@@QBEPAVCGXOleViewer@@XZ 035D:?GetViewerManager@CGXOlePreview@@QBEPAVCGXViewerManager@@XZ 036E:?SetModify@CGXOlePreview@@UAEXH@Z 0384:?GetModify@CGXOlePreview@@UAEHXZ 0395:?Store@CGXOlePreview@@UAEHXZ 05B3:?Init@CGXOlePreview@@UAEXKK@Z 060E:?GetCellRect@CGXOlePreview@@UAE?AVCRect@@KKPAUtagRECT@@PBVCGXStyle@@@Z 0676:?AddBorders@CGXOlePreview@@UAE?AVCSize@@V2@ABVCGXStyle@@@Z 06B6:?OnInitChildren@CGXOlePreview@@UAEXKKABVCRect@@@Z 075C:?CanFloatCell@CGXOlePreview@@UAEHKKABVCGXStyle@@H@Z 076B:?PreDoVerb@CGXOlePreview@@UAEXXZ 078C:?PostDoVerb@CGXOlePreview@@UAEXXZ 07AD:?OnClickedButton@CGXOlePreview@@UAEXPAVCGXChild@@@Z 0908:?GetOleViewer@CGXOlePreview@@UAEPAVCGXOleViewer@@XZ 0A01:?OnLeftCell@CGXOlePreview@@UAEHKK@Z 0A62:?OnCancelEditing@CGXOlePreview@@UAEHXZ 0AAF:?Paste@CGXOlePreview@@UAEHXZ 0BC0:?CanPaste@CGXOlePreview@@UAEHXZ 0C0B:?CanCopy@CGXOlePreview@@UAEHXZ 0C77:?Copy@CGXOlePreview@@UAEHXZ 0E9B:?CanCut@CGXOlePreview@@UAEHXZ 0F07:?OnActiveViewerPresent@CGXOlePreview@@UAEXXZ 0F72:?Cut@CGXOlePreview@@UAEHXZ 10EA:?CanCopyCanCutHelper@CGXOlePreview@@UAEHXZ 1165:?SetActive@CGXOlePreview@@UAEXH@Z 117B:?IsActive@CGXOlePreview@@UAEHXZ 118C:?SetCurrentText@CGXOlePreview@@UAEXABVCString@@@Z 1199:?SetControlText@CGXOlePreview@@UAEHKKABVCString@@IPBVCGXStyle@@@Z 11A8:?OnGridKeyDown@CGXOlePreview@@UAEHIII@Z 12CA:??0CGXViewerManager@@QAE@PAVCGXViewerFactory@@@Z 132B:??1CGXViewerManager@@UAE@XZ 13AA:?InternalCheck@CGXViewerManager@@QBEXXZ 13DE:?GetViewerFactory@CGXViewerManager@@QAEPAVCGXViewerFactory@@XZ 13F7:?CreateObject@CGXViewerManager@@UAEPAVCGXOleViewer@@K@Z 148B:?CreateViewer@CGXViewerManager@@UAEPAVCGXOleViewer@@K@Z 14A7:??0CGXViewerFactory@@QAE@XZ 14B5:??1CGXViewerFactory@@QAE@XZ 14C0:?CreateViewer@CGXViewerFactory@@QAEPAVCGXOleViewer@@K@Z 153C:??0CGXGenericViewerImpl@@QAE@XZ 15BB:??1CGXGenericViewerImpl@@UAE@XZ 1669:?GetVerb@CGXGenericViewerImpl@@UAEJXZ 1676:?_GXReadAccessHeader@@YAHPAXPAU_GUID@@@Z 17D5:?_GXWriteAccessHeader@@YAHPAXPAUIOleObject@@@Z 19DA:?_GXSkipAccessHeader@@YAPAXPAXPAK@Z 1AFE:?_GXCreateOle1Stream@@YAPAU_ole1stream@@PAUIStream@@K@Z 1B98:?_GXDeleteOleStream@@YAXPAU_ole1stream@@@Z 1C22:?_GXGet@@YGKPAU_OLESTREAM@@PAXK@Z 1C91:?_GXPut@@YGKPAU_OLESTREAM@@PBXK@Z 1CFB:?Render@CGXGenericViewerImpl@@UAEXPBVCGXStyle@@PAVCGXGridCore@@PAVCGXControl@@H@Z 1D7A:?CreateNew@CGXGenericViewerImpl@@UAEHPAVCGXGridCore@@@Z 24B0:?ActivateExisting@CGXGenericViewerImpl@@UAEXXZ 25F3:?AccessData@CGXGenericViewerImpl@@UAEPAXPBVCGXStyle@@PAVCGXGridCore@@PAVCGXControl@@@Z 29EB:?GetClientSite@CGXGenericViewerImpl@@UAEPAUIOleClientSite@@XZ 2A63:?GetAdviseSink@CGXGenericViewerImpl@@UAEPAUIAdviseSink@@XZ 2ADB:?GetInterfaceManager@CGXGenericViewerImpl@@UAEAAV?$CGXInterfaceManager@UIUnknown@@@@XZ 2AEC:?SpawnViewer@CGXGenericViewerImpl@@UAEHPAXPAVCGXGridCore@@H@Z 32F6:?SaveFromStorage@CGXGenericViewerImpl@@UAEXXZ 3C63:?Close@CGXGenericViewerImpl@@UAEXXZ 3D7F:?Clear@CGXGenericViewerImpl@@UAEXXZ 3DD0:?GetData@CGXGenericViewerImpl@@UAEAAVCOleVariant@@XZ 3DE1:?GetStorage@CGXGenericViewerImpl@@UAEPAUIStorage@@XZ 3E03:?GetOleObject@CGXGenericViewerImpl@@UAEPAUIOleObject@@XZ 3E25:?CanPaste@CGXGenericViewerImpl@@UAEHXZ 3E61:?Paste@CGXGenericViewerImpl@@UAEPAVCOleVariant@@XZ 4281:?CanCopy@CGXGenericViewerImpl@@UAEHXZ 4297:?CanCopyCanCutHelper@CGXGenericViewerImpl@@UAEHXZ 42CB:?Copy@CGXGenericViewerImpl@@UAEPAUIDataObject@@PBVCGXStyle@@PAVCGXGridCore@@PAVCGXControl@@@Z 43CF:?CanCut@CGXGenericViewerImpl@@UAEHXZ 43E5:?Cut@CGXGenericViewerImpl@@UAEPAUIDataObject@@PBVCGXStyle@@PAVCGXGridCore@@PAVCGXControl@@@Z (05E5: E5) (REF 0252: PeekMessageA)
              16. 04 9F62 0E57 0000:?GetControlClass@CGXRadioButton@@UBEPAUCGXControlClass@@XZ 0010:?GXDrawRadioButtons@@YGHPAVCDC@@VCRect@@PBD2H@Z (l)0371:?DrawRadioButton@@YAXPAVCDC@@VCRect@@HH0@Z 051A:?GXHitTestRadioButtons@@YGHPAVCDC@@VCRect@@PBDVCPoint@@@Z 0739:??0CGXRadioButton@@QAE@PAVCGXGridCore@@H@Z 0767:?Draw@CGXRadioButton@@UAEXPAVCDC@@VCRect@@KKABVCGXStyle@@PBV4@@Z 08EE:?CalcSize@CGXRadioButton@@UAE?AVCSize@@PAVCDC@@KKABVCGXStyle@@PBV4@H@Z 0AD5:?LButtonDown@CGXRadioButton@@UAEHIVCPoint@@I@Z 0AFA:?LButtonUp@CGXRadioButton@@UAEHIVCPoint@@I@Z 0D17:?KeyPressed@CGXRadioButton@@UAEHIIII@Z (05E5: 83)
              17. 04 9F62 0E5A 0000:?GetControlClass@CGXRadioButton@@UBEPAUCGXControlClass@@XZ 0010:?GXDrawRadioButtons@@YGHPAVCDC@@VCRect@@PBD2H@Z (l)0372:?DrawRadioButton@@YAXPAVCDC@@VCRect@@HH0@Z 051B:?GXHitTestRadioButtons@@YGHPAVCDC@@VCRect@@PBDVCPoint@@@Z 073A:??0CGXRadioButton@@QAE@PAVCGXGridCore@@H@Z 0768:?Draw@CGXRadioButton@@UAEXPAVCDC@@VCRect@@KKABVCGXStyle@@PBV4@@Z 08EF:?CalcSize@CGXRadioButton@@UAE?AVCSize@@PAVCDC@@KKABVCGXStyle@@PBV4@H@Z 0AD6:?LButtonDown@CGXRadioButton@@UAEHIVCPoint@@I@Z 0AFB:?LButtonUp@CGXRadioButton@@UAEHIVCPoint@@I@Z 0D19:?KeyPressed@CGXRadioButton@@UAEHIIII@Z (05E5: B8)
              18. 04 9F62 0E6E 0000:?GetControlClass@CGXRadioButton@@UBEPAUCGXControlClass@@XZ 0010:?GXDrawRadioButtons@@YGHPAVCDC@@VCRect@@PBG2H@Z (l)037C:?DrawRadioButton@@YAXPAVCDC@@VCRect@@HH0@Z 0525:?GXHitTestRadioButtons@@YGHPAVCDC@@VCRect@@PBGVCPoint@@@Z 074D:??0CGXRadioButton@@QAE@PAVCGXGridCore@@H@Z 077B:?Draw@CGXRadioButton@@UAEXPAVCDC@@VCRect@@KKABVCGXStyle@@PBV4@@Z 0902:?CalcSize@CGXRadioButton@@UAE?AVCSize@@PAVCDC@@KKABVCGXStyle@@PBV4@H@Z 0AEC:?LButtonDown@CGXRadioButton@@UAEHIVCPoint@@I@Z 0B11:?LButtonUp@CGXRadioButton@@UAEHIVCPoint@@I@Z 0D2E:?KeyPressed@CGXRadioButton@@UAEHIIII@Z (05E5: 66)
              19. 04 9F62 0E82 0000:?GetControlClass@CGXRadioButton@@UBEPAUCGXControlClass@@XZ 0010:?GXDrawRadioButtons@@YGHPAVCDC@@VCRect@@PBG2H@Z (l)0382:?DrawRadioButton@@YAXPAVCDC@@VCRect@@HH0@Z 052B:?GXHitTestRadioButtons@@YGHPAVCDC@@VCRect@@PBGVCPoint@@@Z 0758:??0CGXRadioButton@@QAE@PAVCGXGridCore@@H@Z 0786:?Draw@CGXRadioButton@@UAEXPAVCDC@@VCRect@@KKABVCGXStyle@@PBV4@@Z 090D:?CalcSize@CGXRadioButton@@UAE?AVCSize@@PAVCDC@@KKABVCGXStyle@@PBV4@H@Z 0AFC:?LButtonDown@CGXRadioButton@@UAEHIVCPoint@@I@Z 0B21:?LButtonUp@CGXRadioButton@@UAEHIVCPoint@@I@Z 0D40:?KeyPressed@CGXRadioButton@@UAEHIIII@Z (05E5: 09)
              20. 04 9F62 1931 0000:?GetControlClass@CGXRadioButtonEx@@UBEPAUCGXControlClass@@XZ 0010:?GXDrawRadioButtonsHorz@@YGHPAVCDC@@VCRect@@PBD2H@Z (l)03D9:?DrawRadioButton@@YAXPAVCDC@@VCRect@@HH0@Z 0582:?GXHitTestRadioButtonsHorz@@YGHPAVCDC@@VCRect@@PBDVCPoint@@@Z 07DB:??0CGXRadioButtonEx@@QAE@PAVCGXGridCore@@H@Z 081D:?Draw@CGXRadioButtonEx@@UAEXPAVCDC@@VCRect@@KKABVCGXStyle@@PBV4@@Z (l)0A82:?GXDrawRadioButtonsVert@@YGHPAVCDC@@VCRect@@PBD2H@Z 0DEF:?CalcSize@CGXRadioButtonEx@@UAE?AVCSize@@PAVCDC@@KKABVCGXStyle@@PBV4@H@Z 0FB0:?LButtonDown@CGXRadioButtonEx@@UAEHIVCPoint@@I@Z 0FD5:?LButtonUp@CGXRadioButtonEx@@UAEHIVCPoint@@I@Z (l)1304:?GXHitTestRadioButtonsVert@@YGHPAVCDC@@VCRect@@PBDVCPoint@@@Z 1523:?KeyPressed@CGXRadioButtonEx@@UAEHIIII@Z 16FC:?Init@CGXRadioButtonEx@@UAEXKK@Z 172E:?SetActive@CGXRadioButtonEx@@UAEXH@Z 1765:?IsActive@CGXRadioButtonEx@@UAEHXZ 1776:?GetModify@CGXRadioButtonEx@@UAEHXZ 1787:?SetModify@CGXRadioButtonEx@@UAEXH@Z 179D:?Store@CGXRadioButtonEx@@UAEHXZ 18A8:?AddUserAttributes@CGXRadioButtonEx@@SGXPAVCGXStylesMap@@@Z 1921:?IsWindowlessControl@CGXRadioButtonEx@@UAEHXZ (05E5: 4D) (REF 0008: ?ctrlCGXRadioButtonEx@CGXRadioButtonEx@@2UCGXControlClass@@A)
              21. 04 9F62 1935 0000:?GetControlClass@CGXRadioButtonEx@@UBEPAUCGXControlClass@@XZ 0010:?GXDrawRadioButtonsHorz@@YGHPAVCDC@@VCRect@@PBD2H@Z (l)03DA:?DrawRadioButton@@YAXPAVCDC@@VCRect@@HH0@Z 0583:?GXHitTestRadioButtonsHorz@@YGHPAVCDC@@VCRect@@PBDVCPoint@@@Z 07DC:??0CGXRadioButtonEx@@QAE@PAVCGXGridCore@@H@Z 081E:?Draw@CGXRadioButtonEx@@UAEXPAVCDC@@VCRect@@KKABVCGXStyle@@PBV4@@Z (l)0A83:?GXDrawRadioButtonsVert@@YGHPAVCDC@@VCRect@@PBD2H@Z 0DF1:?CalcSize@CGXRadioButtonEx@@UAE?AVCSize@@PAVCDC@@KKABVCGXStyle@@PBV4@H@Z 0FB2:?LButtonDown@CGXRadioButtonEx@@UAEHIVCPoint@@I@Z 0FD7:?LButtonUp@CGXRadioButtonEx@@UAEHIVCPoint@@I@Z (l)1307:?GXHitTestRadioButtonsVert@@YGHPAVCDC@@VCRect@@PBDVCPoint@@@Z 1526:?KeyPressed@CGXRadioButtonEx@@UAEHIIII@Z 1700:?Init@CGXRadioButtonEx@@UAEXKK@Z 1732:?SetActive@CGXRadioButtonEx@@UAEXH@Z 1769:?IsActive@CGXRadioButtonEx@@UAEHXZ 177A:?GetModify@CGXRadioButtonEx@@UAEHXZ 178B:?SetModify@CGXRadioButtonEx@@UAEXH@Z 17A1:?Store@CGXRadioButtonEx@@UAEHXZ 18AC:?AddUserAttributes@CGXRadioButtonEx@@SGXPAVCGXStylesMap@@@Z 1925:?IsWindowlessControl@CGXRadioButtonEx@@UAEHXZ (05E5: 8B)
              22. 04 9F62 4366 0000:?GetControlClass@CGXOlePreview@@UBEPAUCGXControlClass@@XZ 0010:??0CGXOlePreview@@QAE@PAVCGXBrowserGrid@@PAVCGXViewerFactory@@@Z 0168:??1CGXOlePreview@@UAE@XZ 01E9:?LButtonDblClk@CGXOlePreview@@UAEHIVCPoint@@@Z 020A:?PreRender@CGXOlePreview@@UAEPAUHWND__@@XZ 02A5:?PostRender@CGXOlePreview@@UAEXPAUHWND__@@@Z 0336:?SetActiveViewer@CGXOlePreview@@QAEXPAVCGXOleViewer@@@Z 034C:?GetActiveViewer@CGXOlePreview@@QBEPAVCGXOleViewer@@XZ 035D:?GetViewerManager@CGXOlePreview@@QBEPAVCGXViewerManager@@XZ 036E:?SetModify@CGXOlePreview@@UAEXH@Z 0384:?GetModify@CGXOlePreview@@UAEHXZ 0395:?Store@CGXOlePreview@@UAEHXZ 05B3:?Init@CGXOlePreview@@UAEXKK@Z 060E:?GetCellRect@CGXOlePreview@@UAE?AVCRect@@KKPAUtagRECT@@PBVCGXStyle@@@Z 0676:?AddBorders@CGXOlePreview@@UAE?AVCSize@@V2@ABVCGXStyle@@@Z 06B6:?OnInitChildren@CGXOlePreview@@UAEXKKABVCRect@@@Z 075C:?CanFloatCell@CGXOlePreview@@UAEHKKABVCGXStyle@@H@Z 076B:?PreDoVerb@CGXOlePreview@@UAEXXZ 078C:?PostDoVerb@CGXOlePreview@@UAEXXZ 07AD:?OnClickedButton@CGXOlePreview@@UAEXPAVCGXChild@@@Z 0908:?GetOleViewer@CGXOlePreview@@UAEPAVCGXOleViewer@@XZ 0A01:?OnLeftCell@CGXOlePreview@@UAEHKK@Z 0A62:?OnCancelEditing@CGXOlePreview@@UAEHXZ 0AAF:?Paste@CGXOlePreview@@UAEHXZ 0BC0:?CanPaste@CGXOlePreview@@UAEHXZ 0C0B:?CanCopy@CGXOlePreview@@UAEHXZ 0C77:?Copy@CGXOlePreview@@UAEHXZ 0E9B:?CanCut@CGXOlePreview@@UAEHXZ 0F07:?OnActiveViewerPresent@CGXOlePreview@@UAEXXZ 0F72:?Cut@CGXOlePreview@@UAEHXZ 10EA:?CanCopyCanCutHelper@CGXOlePreview@@UAEHXZ 1165:?SetActive@CGXOlePreview@@UAEXH@Z 117B:?IsActive@CGXOlePreview@@UAEHXZ 118C:?SetCurrentText@CGXOlePreview@@UAEXABVCString@@@Z 1199:?SetControlText@CGXOlePreview@@UAEHKKABVCString@@IPBVCGXStyle@@@Z 11A8:?OnGridKeyDown@CGXOlePreview@@UAEHIII@Z 12CA:??0CGXViewerManager@@QAE@PAVCGXViewerFactory@@@Z 132B:??1CGXViewerManager@@UAE@XZ 13AA:?InternalCheck@CGXViewerManager@@QBEXXZ 13DE:?GetViewerFactory@CGXViewerManager@@QAEPAVCGXViewerFactory@@XZ 13F7:?CreateObject@CGXViewerManager@@UAEPAVCGXOleViewer@@K@Z 148B:?CreateViewer@CGXViewerManager@@UAEPAVCGXOleViewer@@K@Z 14A7:??0CGXViewerFactory@@QAE@XZ 14B5:??1CGXViewerFactory@@QAE@XZ 14C0:?CreateViewer@CGXViewerFactory@@QAEPAVCGXOleViewer@@K@Z 153C:??0CGXGenericViewerImpl@@QAE@XZ 15BB:??1CGXGenericViewerImpl@@UAE@XZ 1669:?GetVerb@CGXGenericViewerImpl@@UAEJXZ 1676:?_GXReadAccessHeader@@YAHPAXPAU_GUID@@@Z 1769:?_GXWriteAccessHeader@@YAHPAXPAUIOleObject@@@Z 18F1:?_GXSkipAccessHeader@@YAPAXPAXPAK@Z 1A15:?_GXCreateOle1Stream@@YAPAU_ole1stream@@PAUIStream@@K@Z 1AAF:?_GXDeleteOleStream@@YAXPAU_ole1stream@@@Z 1B39:?_GXGet@@YGKPAU_OLESTREAM@@PAXK@Z 1BA8:?_GXPut@@YGKPAU_OLESTREAM@@PBXK@Z 1C12:?Render@CGXGenericViewerImpl@@UAEXPBVCGXStyle@@PAVCGXGridCore@@PAVCGXControl@@H@Z 1C91:?CreateNew@CGXGenericViewerImpl@@UAEHPAVCGXGridCore@@@Z 23C7:?ActivateExisting@CGXGenericViewerImpl@@UAEXXZ 250A:?AccessData@CGXGenericViewerImpl@@UAEPAXPBVCGXStyle@@PAVCGXGridCore@@PAVCGXControl@@@Z 2902:?GetClientSite@CGXGenericViewerImpl@@UAEPAUIOleClientSite@@XZ 297A:?GetAdviseSink@CGXGenericViewerImpl@@UAEPAUIAdviseSink@@XZ 29F2:?GetInterfaceManager@CGXGenericViewerImpl@@UAEAAV?$CGXInterfaceManager@UIUnknown@@@@XZ 2A03:?SpawnViewer@CGXGenericViewerImpl@@UAEHPAXPAVCGXGridCore@@H@Z 320D:?SaveFromStorage@CGXGenericViewerImpl@@UAEXXZ 3B7A:?Close@CGXGenericViewerImpl@@UAEXXZ 3C96:?Clear@CGXGenericViewerImpl@@UAEXXZ 3CE7:?GetData@CGXGenericViewerImpl@@UAEAAVCOleVariant@@XZ 3CF8:?GetStorage@CGXGenericViewerImpl@@UAEPAUIStorage@@XZ 3D1A:?GetOleObject@CGXGenericViewerImpl@@UAEPAUIOleObject@@XZ 3D3C:?CanPaste@CGXGenericViewerImpl@@UAEHXZ 3D78:?Paste@CGXGenericViewerImpl@@UAEPAVCOleVariant@@XZ 4198:?CanCopy@CGXGenericViewerImpl@@UAEHXZ 41AE:?CanCopyCanCutHelper@CGXGenericViewerImpl@@UAEHXZ 41E2:?Copy@CGXGenericViewerImpl@@UAEPAUIDataObject@@PBVCGXStyle@@PAVCGXGridCore@@PAVCGXControl@@@Z 42E6:?CanCut@CGXGenericViewerImpl@@UAEHXZ 42FC:?Cut@CGXGenericViewerImpl@@UAEPAUIDataObject@@PBVCGXStyle@@PAVCGXGridCore@@PAVCGXControl@@@Z (05E5: E5) (REF 0D3F: $SG100693)
              23. 04 9F62 1982 0000:?GetControlClass@CGXRadioButtonEx@@UBEPAUCGXControlClass@@XZ 0010:?GXDrawRadioButtonsHorz@@YGHPAVCDC@@VCRect@@PBG2H@Z (l)03F1:?DrawRadioButton@@YAXPAVCDC@@VCRect@@HH0@Z 059A:?GXHitTestRadioButtonsHorz@@YGHPAVCDC@@VCRect@@PBGVCPoint@@@Z 0801:??0CGXRadioButtonEx@@QAE@PAVCGXGridCore@@H@Z 0843:?Draw@CGXRadioButtonEx@@UAEXPAVCDC@@VCRect@@KKABVCGXStyle@@PBV4@@Z (l)0AA8:?GXDrawRadioButtonsVert@@YGHPAVCDC@@VCRect@@PBG2H@Z 0E26:?CalcSize@CGXRadioButtonEx@@UAE?AVCSize@@PAVCDC@@KKABVCGXStyle@@PBV4@H@Z 0FEF:?LButtonDown@CGXRadioButtonEx@@UAEHIVCPoint@@I@Z 1014:?LButtonUp@CGXRadioButtonEx@@UAEHIVCPoint@@I@Z (l)1345:?GXHitTestRadioButtonsVert@@YGHPAVCDC@@VCRect@@PBGVCPoint@@@Z 1572:?KeyPressed@CGXRadioButtonEx@@UAEHIIII@Z 174D:?Init@CGXRadioButtonEx@@UAEXKK@Z 177F:?SetActive@CGXRadioButtonEx@@UAEXH@Z 17B6:?IsActive@CGXRadioButtonEx@@UAEHXZ 17C7:?GetModify@CGXRadioButtonEx@@UAEHXZ 17D8:?SetModify@CGXRadioButtonEx@@UAEXH@Z 17EE:?Store@CGXRadioButtonEx@@UAEHXZ 18F9:?AddUserAttributes@CGXRadioButtonEx@@SGXPAVCGXStylesMap@@@Z 1972:?IsWindowlessControl@CGXRadioButtonEx@@UAEHXZ (05E5: 52)
              24. 04 9F62 14DF 0000:?GetRuntimeClass@CGXDWordArrayPtrArray@@UBEPAUCRuntimeClass@@XZ 0010:?CreateObject@CGXSpanCellPool@@SGPAVCObject@@XZ 0074:?GetRuntimeClass@CGXSpanCellPool@@UBEPAUCRuntimeClass@@XZ 00A2:??5@YGAAVCArchive@@AAV0@AAPAVCGXSpanCellPool@@@Z 00BE:?ImplementSpanCellPool@CGXSpanCellPool@@SGXXZ 014C:?CreateSpanCellPool@CGXSpanCellPoolImp@@UAEPAVCGXSpanCellPool@@XZ 01BA:?CopySpanCellPool@CGXSpanCellPoolImp@@UAEXAAVCGXSpanCellPool@@ABV2@@Z 01D6:?CreateSpanCellPool@CGXSpanCellPoolImp@@UAEPAVCGXSpanCellPool@@ABV2@@Z 025B:?InsertRows@CGXSpanCellPoolImp@@UAEXPAVCGXSpanCellPool@@KK@Z 0281:?RemoveRows@CGXSpanCellPoolImp@@UAEXPAVCGXSpanCellPool@@KK@Z 02A7:?MoveRows@CGXSpanCellPoolImp@@UAEXPAVCGXSpanCellPool@@KKK@Z 02D1:?InsertCols@CGXSpanCellPoolImp@@UAEXPAVCGXSpanCellPool@@KK@Z 02F7:?RemoveCols@CGXSpanCellPoolImp@@UAEXPAVCGXSpanCellPool@@KK@Z 031D:?MoveCols@CGXSpanCellPoolImp@@UAEXPAVCGXSpanCellPool@@KKK@Z 0347:?MakeEmpty@CGXSpanCellPool@@QAEXXZ 0368:?InitFromRangeList@CGXSpanCellPool@@QAEXPBVCGXRangeList@@@Z 03E4:?GetSpanCellsRowCol@CGXSpanCellPool@@UAEHKKAAVCGXRange@@@Z 0468:?StoreSpanCellsRowCol@CGXSpanCellPool@@UAEHKKKKH@Z 05AA:?Serialize@CGXSpanCellPool@@UAEXAAVCArchive@@@Z 05DD:??4CGXSpanCellPool@@UAEAAV0@ABV0@@Z 0626:?InsertRows@CGXSpanCellPool@@UAEXKK@Z 0659:?RemoveRows@CGXSpanCellPool@@UAEXKK@Z 068C:?MoveRows@CGXSpanCellPool@@UAEXKKK@Z 06C7:?InsertCols@CGXSpanCellPool@@UAEXKK@Z 06FA:?RemoveCols@CGXSpanCellPool@@UAEXKK@Z 072D:?MoveCols@CGXSpanCellPool@@UAEXKKK@Z (l)0768:?GetSpanCellsRowColImp@@YAHKKAAVCGXRange@@HPAVCGXDWordArrayPtrArray@@@Z (l)0851:?StoreSpanCellsRowColImp@@YAHKKKKHPAVCGXDWordArrayPtrArray@@@Z 0A94:??1CGXDWordArrayPtrArray@@UAE@XZ 0AE5:?DeleteAt@CGXDWordArrayPtrArray@@QAEXHH@Z 0B97:?DeleteAll@CGXDWordArrayPtrArray@@QAEXXZ 0C01:?Move@CGXDWordArrayPtrArray@@QAEXHHH@Z 0D1E:?Serialize@CGXDWordArrayPtrArray@@UAEXAAVCArchive@@@Z 0F2A:?InsertRows@CGXDWordArrayPtrArray@@QAEHKK@Z 0F90:?RemoveRows@CGXDWordArrayPtrArray@@QAEHKK@Z 100F:?MoveRows@CGXDWordArrayPtrArray@@QAEHKKK@Z 1084:?InsertCols@CGXDWordArrayPtrArray@@QAEHKK@Z 1134:?RemoveCols@CGXDWordArrayPtrArray@@QAEHKK@Z 1214:?MoveCols@CGXDWordArrayPtrArray@@QAEHKKK@Z 13C7:??4CGXDWordArrayPtrArray@@UAEAAV0@ABV0@@Z (05E5: 08)
              25. 04 9F62 4361 0000:?GetControlClass@CGXOlePreview@@UBEPAUCGXControlClass@@XZ 0010:??0CGXOlePreview@@QAE@PAVCGXBrowserGrid@@PAVCGXViewerFactory@@@Z 0168:??1CGXOlePreview@@UAE@XZ 01E9:?LButtonDblClk@CGXOlePreview@@UAEHIVCPoint@@@Z 020A:?PreRender@CGXOlePreview@@UAEPAUHWND__@@XZ 02A5:?PostRender@CGXOlePreview@@UAEXPAUHWND__@@@Z 0336:?SetActiveViewer@CGXOlePreview@@QAEXPAVCGXOleViewer@@@Z 034C:?GetActiveViewer@CGXOlePreview@@QBEPAVCGXOleViewer@@XZ 035D:?GetViewerManager@CGXOlePreview@@QBEPAVCGXViewerManager@@XZ 036E:?SetModify@CGXOlePreview@@UAEXH@Z 0384:?GetModify@CGXOlePreview@@UAEHXZ 0395:?Store@CGXOlePreview@@UAEHXZ 05B3:?Init@CGXOlePreview@@UAEXKK@Z 060E:?GetCellRect@CGXOlePreview@@UAE?AVCRect@@KKPAUtagRECT@@PBVCGXStyle@@@Z 0676:?AddBorders@CGXOlePreview@@UAE?AVCSize@@V2@ABVCGXStyle@@@Z 06B6:?OnInitChildren@CGXOlePreview@@UAEXKKABVCRect@@@Z 075C:?CanFloatCell@CGXOlePreview@@UAEHKKABVCGXStyle@@H@Z 076B:?PreDoVerb@CGXOlePreview@@UAEXXZ 078C:?PostDoVerb@CGXOlePreview@@UAEXXZ 07AD:?OnClickedButton@CGXOlePreview@@UAEXPAVCGXChild@@@Z 0908:?GetOleViewer@CGXOlePreview@@UAEPAVCGXOleViewer@@XZ 0A01:?OnLeftCell@CGXOlePreview@@UAEHKK@Z 0A62:?OnCancelEditing@CGXOlePreview@@UAEHXZ 0AAF:?Paste@CGXOlePreview@@UAEHXZ 0BC0:?CanPaste@CGXOlePreview@@UAEHXZ 0C0B:?CanCopy@CGXOlePreview@@UAEHXZ 0C77:?Copy@CGXOlePreview@@UAEHXZ 0E9B:?CanCut@CGXOlePreview@@UAEHXZ 0F07:?OnActiveViewerPresent@CGXOlePreview@@UAEXXZ 0F72:?Cut@CGXOlePreview@@UAEHXZ 10EA:?CanCopyCanCutHelper@CGXOlePreview@@UAEHXZ 1165:?SetActive@CGXOlePreview@@UAEXH@Z 117B:?IsActive@CGXOlePreview@@UAEHXZ 118C:?SetCurrentText@CGXOlePreview@@UAEXABVCString@@@Z 1199:?SetControlText@CGXOlePreview@@UAEHKKABVCString@@IPBVCGXStyle@@@Z 11A8:?OnGridKeyDown@CGXOlePreview@@UAEHIII@Z 12CA:??0CGXViewerManager@@QAE@PAVCGXViewerFactory@@@Z 132B:??1CGXViewerManager@@UAE@XZ 13AA:?InternalCheck@CGXViewerManager@@QBEXXZ 13DE:?GetViewerFactory@CGXViewerManager@@QAEPAVCGXViewerFactory@@XZ 13F7:?CreateObject@CGXViewerManager@@UAEPAVCGXOleViewer@@K@Z 148B:?CreateViewer@CGXViewerManager@@UAEPAVCGXOleViewer@@K@Z 14A7:??0CGXViewerFactory@@QAE@XZ 14B5:??1CGXViewerFactory@@QAE@XZ 14C0:?CreateViewer@CGXViewerFactory@@QAEPAVCGXOleViewer@@K@Z 153C:??0CGXGenericViewerImpl@@QAE@XZ 15BB:??1CGXGenericViewerImpl@@UAE@XZ 1669:?GetVerb@CGXGenericViewerImpl@@UAEJXZ 1676:?_GXReadAccessHeader@@YAHPAXPAU_GUID@@@Z 1768:?_GXWriteAccessHeader@@YAHPAXPAUIOleObject@@@Z 18EC:?_GXSkipAccessHeader@@YAPAXPAXPAK@Z 1A10:?_GXCreateOle1Stream@@YAPAU_ole1stream@@PAUIStream@@K@Z 1AAA:?_GXDeleteOleStream@@YAXPAU_ole1stream@@@Z 1B34:?_GXGet@@YGKPAU_OLESTREAM@@PAXK@Z 1BA3:?_GXPut@@YGKPAU_OLESTREAM@@PBXK@Z 1C0D:?Render@CGXGenericViewerImpl@@UAEXPBVCGXStyle@@PAVCGXGridCore@@PAVCGXControl@@H@Z 1C8C:?CreateNew@CGXGenericViewerImpl@@UAEHPAVCGXGridCore@@@Z 23C2:?ActivateExisting@CGXGenericViewerImpl@@UAEXXZ 2505:?AccessData@CGXGenericViewerImpl@@UAEPAXPBVCGXStyle@@PAVCGXGridCore@@PAVCGXControl@@@Z 28FD:?GetClientSite@CGXGenericViewerImpl@@UAEPAUIOleClientSite@@XZ 2975:?GetAdviseSink@CGXGenericViewerImpl@@UAEPAUIAdviseSink@@XZ 29ED:?GetInterfaceManager@CGXGenericViewerImpl@@UAEAAV?$CGXInterfaceManager@UIUnknown@@@@XZ 29FE:?SpawnViewer@CGXGenericViewerImpl@@UAEHPAXPAVCGXGridCore@@H@Z 3208:?SaveFromStorage@CGXGenericViewerImpl@@UAEXXZ 3B75:?Close@CGXGenericViewerImpl@@UAEXXZ 3C91:?Clear@CGXGenericViewerImpl@@UAEXXZ 3CE2:?GetData@CGXGenericViewerImpl@@UAEAAVCOleVariant@@XZ 3CF3:?GetStorage@CGXGenericViewerImpl@@UAEPAUIStorage@@XZ 3D15:?GetOleObject@CGXGenericViewerImpl@@UAEPAUIOleObject@@XZ 3D37:?CanPaste@CGXGenericViewerImpl@@UAEHXZ 3D73:?Paste@CGXGenericViewerImpl@@UAEPAVCOleVariant@@XZ 4193:?CanCopy@CGXGenericViewerImpl@@UAEHXZ 41A9:?CanCopyCanCutHelper@CGXGenericViewerImpl@@UAEHXZ 41DD:?Copy@CGXGenericViewerImpl@@UAEPAUIDataObject@@PBVCGXStyle@@PAVCGXGridCore@@PAVCGXControl@@@Z 42E1:?CanCut@CGXGenericViewerImpl@@UAEHXZ 42F7:?Cut@CGXGenericViewerImpl@@UAEPAUIDataObject@@PBVCGXStyle@@PAVCGXGridCore@@PAVCGXControl@@@Z (05E5: E5) (REF 0D3F: $SG100139)
              26. 04 9F62 0390 0000:?GetControlClass@CGXPushbutton@@UBEPAUCGXControlClass@@XZ 0010:??0CGXPushbutton@@QAE@PAVCGXGridCore@@@Z 00B9:??0CGXPushbutton@@QAE@PAVCGXGridCore@@PAVCGXButton@@@Z 00E7:?Init@CGXPushbutton@@UAEXKK@Z 0134:?OnInitChildren@CGXPushbutton@@MAEXKKABVCRect@@@Z 01CA:?Draw@CGXPushbutton@@UAEXPAVCDC@@VCRect@@KKABVCGXStyle@@PBV4@@Z 0292:?CalcSize@CGXPushbutton@@UAE?AVCSize@@PAVCDC@@KKABVCGXStyle@@PBV4@H@Z 0383:?InvertBorders@CGXPushbutton@@UAEXPAVCDC@@ABVCRect@@@Z (REF 019F: ??BCString@@QBEPBGXZ)
              27. 04 9F62 038F 0000:?GetControlClass@CGXPushbutton@@UBEPAUCGXControlClass@@XZ 0010:??0CGXPushbutton@@QAE@PAVCGXGridCore@@@Z 00B9:??0CGXPushbutton@@QAE@PAVCGXGridCore@@PAVCGXButton@@@Z 00E7:?Init@CGXPushbutton@@UAEXKK@Z 0134:?OnInitChildren@CGXPushbutton@@MAEXKKABVCRect@@@Z 01CA:?Draw@CGXPushbutton@@UAEXPAVCDC@@VCRect@@KKABVCGXStyle@@PBV4@@Z 0292:?CalcSize@CGXPushbutton@@UAE?AVCSize@@PAVCDC@@KKABVCGXStyle@@PBV4@H@Z 0382:?InvertBorders@CGXPushbutton@@UAEXPAVCDC@@ABVCRect@@@Z (REF 019F: ??BCString@@QBEPBDXZ)
              28. 04 9F62 023F 0000:?GetControlClass@CGXBitmapButton@@UBEPAUCGXControlClass@@XZ 0010:??0CGXBitmapButton@@QAE@PAVCGXGridCore@@III@Z 0130:?OnInitChildren@CGXBitmapButton@@MAEXKKABVCRect@@@Z 0167:?InvertBorders@CGXBitmapButton@@UAEXPAVCDC@@ABVCRect@@@Z 018D:?Draw@CGXBitmapButton@@UAEXPAVCDC@@VCRect@@KKABVCGXStyle@@PBV4@@Z 01EE:?CalcSize@CGXBitmapButton@@UAE?AVCSize@@PAVCDC@@KKABVCGXStyle@@PBV4@H@Z (REF 0008: ?ctrlCGXBitmapButton@CGXBitmapButton@@2UCGXControlClass@@A)
              29. 04 9F62 1962 0000:?GetControlClass@CGXRadioButtonEx@@UBEPAUCGXControlClass@@XZ 0010:?GXDrawRadioButtonsHorz@@YGHPAVCDC@@VCRect@@PBG2H@Z (l)03EA:?DrawRadioButton@@YAXPAVCDC@@VCRect@@HH0@Z 0593:?GXHitTestRadioButtonsHorz@@YGHPAVCDC@@VCRect@@PBGVCPoint@@@Z 07F5:??0CGXRadioButtonEx@@QAE@PAVCGXGridCore@@H@Z 0837:?Draw@CGXRadioButtonEx@@UAEXPAVCDC@@VCRect@@KKABVCGXStyle@@PBV4@@Z (l)0A9C:?GXDrawRadioButtonsVert@@YGHPAVCDC@@VCRect@@PBG2H@Z 0E14:?CalcSize@CGXRadioButtonEx@@UAE?AVCSize@@PAVCDC@@KKABVCGXStyle@@PBV4@H@Z 0FD8:?LButtonDown@CGXRadioButtonEx@@UAEHIVCPoint@@I@Z 0FFD:?LButtonUp@CGXRadioButtonEx@@UAEHIVCPoint@@I@Z (l)132C:?GXHitTestRadioButtonsVert@@YGHPAVCDC@@VCRect@@PBGVCPoint@@@Z 1554:?KeyPressed@CGXRadioButtonEx@@UAEHIIII@Z 172D:?Init@CGXRadioButtonEx@@UAEXKK@Z 175F:?SetActive@CGXRadioButtonEx@@UAEXH@Z 1796:?IsActive@CGXRadioButtonEx@@UAEHXZ 17A7:?GetModify@CGXRadioButtonEx@@UAEHXZ 17B8:?SetModify@CGXRadioButtonEx@@UAEXH@Z 17CE:?Store@CGXRadioButtonEx@@UAEHXZ 18D9:?AddUserAttributes@CGXRadioButtonEx@@SGXPAVCGXStylesMap@@@Z 1952:?IsWindowlessControl@CGXRadioButtonEx@@UAEHXZ (REF 0008: ?ctrlCGXRadioButtonEx@CGXRadioButtonEx@@2UCGXControlClass@@A)
              30. 04 9F62 02DD 0000:?GetRuntimeClass@CGXGridHint@@UBEPAUCRuntimeClass@@XZ 0010:??0CGXGridHint@@QAE@IH@Z 00EB:?AssertValid@CGXGridHint@@UBEXXZ 00FE:?Dump@CGXGridHint@@UBEXAAVCDumpContext@@@Z (REF 0008: ?classCGXGridHint@CGXGridHint@@2UCRuntimeClass@@B)
            83EC1856894DE86A0168:
              0. 00 0000 0508 0000:?GetRuntimeClass@CGXRecordInfoSplitterWnd@@UBEPAUCRuntimeClass@@XZ 0010:?UpdateRecordInfoWnd@CGXRecordInfoSplitterWndInterface@@UAEXPAVCGXGridCore@@@Z 0117:?SetActivePane@CGXRecordInfoSplitterWndInterface@@UAEXPAVCGXGridCore@@@Z 016D:??0CGXRecordInfoSplitterWnd@@QAE@PAUCRuntimeClass@@@Z 023E:??1CGXRecordInfoSplitterWnd@@UAE@XZ 025A:?GetMessageMap@CGXRecordInfoSplitterWnd@@MBEPBUAFX_MSGMAP@@XZ 026A:?RecalcLayout@CGXRecordInfoSplitterWnd@@UAEXXZ 04A6:?GetBeam@CGXRecordInfoSplitterWnd@@QAEPAVCGXRecordInfoBeam@@XZ 04BA:?SetActivePane@CGXRecordInfoSplitterWnd@@UAEXHHPAVCWnd@@@Z
            A1........5DC3558BEC51894D:
              0. 02 2CE3 3FD7 0000:?GetControlClass@CGXEditControl@@UBEPAUCGXControlClass@@XZ 0010:?_GetBaseClass@CGXEditControl@@KGPAUCRuntimeClass@@XZ 001A:?GetRuntimeClass@CGXEditControl@@UBEPAUCRuntimeClass@@XZ 002A:??0CGXEditControl@@QAE@PAVCGXGridCore@@I@Z 0158:??1CGXEditControl@@UAE@XZ 01FD:?CreateControl@CGXEditControl@@MAEHKPAUtagRECT@@@Z 025A:?GetWndPtr@CGXEditControl@@UBEPAVCWnd@@XZ 026B:?_GetBaseMessageMap@CGXEditControl@@KGPBUAFX_MSGMAP@@XZ 0275:?GetMessageMap@CGXEditControl@@MBEPBUAFX_MSGMAP@@XZ 0285:?OnImeStartComposition@CGXEditControl@@IAEJIJ@Z 02A4:?OnImeEndComposition@CGXEditControl@@IAEJIJ@Z 02C3:?SetActive@CGXEditControl@@UAEXH@Z 038D:?IsActive@CGXEditControl@@UAEHXZ 039E:?SetModify@CGXEditControl@@UAEXH@Z 03C3:?GetModify@CGXEditControl@@UAEHXZ 03FB:?Init@CGXEditControl@@UAEXKK@Z 0526:?SetCurrentText@CGXEditControl@@UAEXABVCString@@@Z 0601:?GetCurrentText@CGXEditControl@@UAEXAAVCString@@@Z 0684:?GetValue@CGXEditControl@@UAEHAAVCString@@@Z 06B5:?CanFloatCell@CGXEditControl@@UAEHKKABVCGXStyle@@H@Z 0707:?OnEndEditing@CGXEditControl@@UAEHXZ 0751:?SetValue@CGXEditControl@@UAEXPBD@Z 0906:?Store@CGXEditControl@@UAEHXZ 09FF:?Draw@CGXEditControl@@UAEXPAVCDC@@VCRect@@KKABVCGXStyle@@PBV4@@Z 145E:?Hide@CGXEditControl@@UAEXXZ 14D0:?LButtonUp@CGXEditControl@@UAEHIVCPoint@@I@Z 1600:?LButtonDblClk@CGXEditControl@@UAEHIVCPoint@@@Z 1713:?OnGridKeyDown@CGXEditControl@@UAEHIII@Z 19C8:?OnGridChar@CGXEditControl@@UAEHIII@Z 1AA8:?OnGridDoubleByteChar@CGXEditControl@@UAEHABVCString@@II@Z 1D09:?Cut@CGXEditControl@@UAEHXZ 1D1C:?Copy@CGXEditControl@@UAEHXZ 1D2F:?Paste@CGXEditControl@@UAEHXZ 1D4A:?OnKeyDown@CGXEditControl@@IAEXIII@Z 20AA:?OnChar@CGXEditControl@@IAEXIII@Z 2204:?OnProcessChar@CGXEditControl@@UAEHIII@Z 268E:?OnKeyUp@CGXEditControl@@IAEXIII@Z 270C:?OnSysKeyDown@CGXEditControl@@IAEXIII@Z 2764:?OnSysChar@CGXEditControl@@IAEXIII@Z 27BC:?OnSysKeyUp@CGXEditControl@@IAEXIII@Z 2814:?OnLButtonDown@CGXEditControl@@IAEXIVCPoint@@@Z 2961:?OnCommand@CGXEditControl@@UAEHIJ@Z 2B2F:?FindTextA@CGXEditControl@@UAEHABUGX_FR_STATE@@KKHH@Z 2E8D:?ValidatePaste@CGXEditControl@@UAEHABVCString@@@Z 2FDC:?ReplaceSel@CGXEditControl@@UAEXPBD@Z 3036:?ReplaceAll@CGXEditControl@@UAEHABUGX_FR_STATE@@KK@Z 3481:?GetSelectedText@CGXEditControl@@UAEHAAVCString@@@Z 357A:?CalcTextPosUnderPt@CGXEditControl@@QAEHVCPoint@@@Z 371C:?SetWrapText@CGXEditControl@@QAEXH@Z 3735:?SetAllowEnter@CGXEditControl@@QAEXH@Z 374E:?SetVertScrollBar@CGXEditControl@@QAEXH@Z 3764:?SetCellColor@CGXEditControl@@QAEXK@Z 377D:?SetTextAlign@CGXEditControl@@QAEXI@Z 37A2:?UpdateEditStyle@CGXEditControl@@IAEHXZ 3ABC:?GetLastVisibleLine@CGXEditControl@@IAEHPAUtagRECT@@@Z 3BAA:?CalcEditStyle@CGXEditControl@@MAEKPAUtagRECT@@AAH@Z 3EBA:?OnKillFocus@CGXEditControl@@IAEXPAVCWnd@@@Z 3EE2:?OnGetDlgCode@CGXEditControl@@IAEIXZ 3EFB:?OnEraseBkgnd@CGXEditControl@@IAEHPAVCDC@@@Z 3F7E:?OnShowWindow@CGXEditControl@@IAEXHI@Z 3FA9:?OnSetFocus@CGXEditControl@@IAEXPAVCWnd@@@Z 3FCA:?OnContextMenu@CGXEditControl@@IAEXPAVCWnd@@VCPoint@@@Z (3FB3: 0C)
              1. 02 2CE3 4016 0000:?GetControlClass@CGXEditControl@@UBEPAUCGXControlClass@@XZ 0010:?_GetBaseClass@CGXEditControl@@KGPAUCRuntimeClass@@XZ 001A:?GetRuntimeClass@CGXEditControl@@UBEPAUCRuntimeClass@@XZ 002A:??0CGXEditControl@@QAE@PAVCGXGridCore@@I@Z 0158:??1CGXEditControl@@UAE@XZ 01FD:?CreateControl@CGXEditControl@@MAEHKPAUtagRECT@@@Z 025A:?GetWndPtr@CGXEditControl@@UBEPAVCWnd@@XZ 026B:?_GetBaseMessageMap@CGXEditControl@@KGPBUAFX_MSGMAP@@XZ 0275:?GetMessageMap@CGXEditControl@@MBEPBUAFX_MSGMAP@@XZ 0285:?OnImeStartComposition@CGXEditControl@@IAEJIJ@Z 02A4:?OnImeEndComposition@CGXEditControl@@IAEJIJ@Z 02C3:?SetActive@CGXEditControl@@UAEXH@Z 038D:?IsActive@CGXEditControl@@UAEHXZ 039E:?SetModify@CGXEditControl@@UAEXH@Z 03C3:?GetModify@CGXEditControl@@UAEHXZ 03FB:?Init@CGXEditControl@@UAEXKK@Z 0526:?SetCurrentText@CGXEditControl@@UAEXABVCString@@@Z 0601:?GetCurrentText@CGXEditControl@@UAEXAAVCString@@@Z 0684:?GetValue@CGXEditControl@@UAEHAAVCString@@@Z 06B5:?CanFloatCell@CGXEditControl@@UAEHKKABVCGXStyle@@H@Z 0709:?OnEndEditing@CGXEditControl@@UAEHXZ 0753:?SetValue@CGXEditControl@@UAEXPBG@Z 0908:?Store@CGXEditControl@@UAEHXZ 0A01:?Draw@CGXEditControl@@UAEXPAVCDC@@VCRect@@KKABVCGXStyle@@PBV4@@Z 1469:?Hide@CGXEditControl@@UAEXXZ 14DB:?LButtonUp@CGXEditControl@@UAEHIVCPoint@@I@Z 160B:?LButtonDblClk@CGXEditControl@@UAEHIVCPoint@@@Z 171E:?OnGridKeyDown@CGXEditControl@@UAEHIII@Z 19D4:?OnGridChar@CGXEditControl@@UAEHIII@Z 1AB6:?OnGridDoubleByteChar@CGXEditControl@@UAEHABVCString@@II@Z 1D17:?Cut@CGXEditControl@@UAEHXZ 1D2A:?Copy@CGXEditControl@@UAEHXZ 1D3D:?Paste@CGXEditControl@@UAEHXZ 1D58:?OnKeyDown@CGXEditControl@@IAEXIII@Z 20B8:?OnChar@CGXEditControl@@IAEXIII@Z 2212:?OnProcessChar@CGXEditControl@@UAEHIII@Z 26A2:?OnKeyUp@CGXEditControl@@IAEXIII@Z 2720:?OnSysKeyDown@CGXEditControl@@IAEXIII@Z 2778:?OnSysChar@CGXEditControl@@IAEXIII@Z 27D0:?OnSysKeyUp@CGXEditControl@@IAEXIII@Z 2828:?OnLButtonDown@CGXEditControl@@IAEXIVCPoint@@@Z 2975:?OnCommand@CGXEditControl@@UAEHIJ@Z 2B43:?FindTextW@CGXEditControl@@UAEHABUGX_FR_STATE@@KKHH@Z 2EAA:?ValidatePaste@CGXEditControl@@UAEHABVCString@@@Z 2FF9:?ReplaceSel@CGXEditControl@@UAEXPBG@Z 3053:?ReplaceAll@CGXEditControl@@UAEHABUGX_FR_STATE@@KK@Z 34C0:?GetSelectedText@CGXEditControl@@UAEHAAVCString@@@Z 35B9:?CalcTextPosUnderPt@CGXEditControl@@QAEHVCPoint@@@Z 375B:?SetWrapText@CGXEditControl@@QAEXH@Z 3774:?SetAllowEnter@CGXEditControl@@QAEXH@Z 378D:?SetVertScrollBar@CGXEditControl@@QAEXH@Z 37A3:?SetCellColor@CGXEditControl@@QAEXK@Z 37BC:?SetTextAlign@CGXEditControl@@QAEXI@Z 37E1:?UpdateEditStyle@CGXEditControl@@IAEHXZ 3AFB:?GetLastVisibleLine@CGXEditControl@@IAEHPAUtagRECT@@@Z 3BE9:?CalcEditStyle@CGXEditControl@@MAEKPAUtagRECT@@AAH@Z 3EF9:?OnKillFocus@CGXEditControl@@IAEXPAVCWnd@@@Z 3F21:?OnGetDlgCode@CGXEditControl@@IAEIXZ 3F3A:?OnEraseBkgnd@CGXEditControl@@IAEHPAVCDC@@@Z 3FBD:?OnShowWindow@CGXEditControl@@IAEXHI@Z 3FE8:?OnSetFocus@CGXEditControl@@IAEXPAVCWnd@@@Z 4009:?OnContextMenu@CGXEditControl@@IAEXPAVCWnd@@VCPoint@@@Z (3FB3: 50)
              2. 02 2CE3 4F07 0000:?GetControlClass@CGXRichEditCtrl@@UBEPAUCGXControlClass@@XZ 0010:?_GetBaseClass@CGXRichEditCtrl@@KGPAUCRuntimeClass@@XZ 001A:?GetRuntimeClass@CGXRichEditCtrl@@UBEPAUCRuntimeClass@@XZ 002A:??0CGXRichEditCtrl@@QAE@PAVCGXGridCore@@@Z 016A:??1CGXRichEditCtrl@@UAE@XZ 02CF:?GetWndPtr@CGXRichEditCtrl@@UBEPAVCWnd@@XZ 02E0:?SetEventMask@CGXRichEditCtrl@@QAEKK@Z 0302:?CreateControl@CGXRichEditCtrl@@QAEHKI@Z 0419:?_GetBaseMessageMap@CGXRichEditCtrl@@KGPBUAFX_MSGMAP@@XZ 0423:?GetMessageMap@CGXRichEditCtrl@@MBEPBUAFX_MSGMAP@@XZ 0433:?SetActive@CGXRichEditCtrl@@UAEXH@Z 04A0:?IsActive@CGXRichEditCtrl@@UAEHXZ 04B1:?SetModify@CGXRichEditCtrl@@UAEXH@Z 04CD:?GetModify@CGXRichEditCtrl@@UAEHXZ 04E3:?Init@CGXRichEditCtrl@@UAEXKK@Z 0681:?_GXEditStreamInCallback@@YGKKPAEJPAJ@Z 070B:?_GXEditStreamOutCallback@@YGKKPAEJPAJ@Z 0784:?_GXEditStreamCountCallback@@YGKKPAEJPAJ@Z 0795:?SetRichText@CGXRichEditCtrl@@SGXPAVCRichEditCtrl@@PBD@Z 07E5:?GetRichText@CGXRichEditCtrl@@SG?AVCString@@PAVCRichEditCtrl@@AAV2@@Z 0845:?GetSelectedText@CGXRichEditCtrl@@UAEHAAVCString@@@Z 0910:?GetCurrentText@CGXRichEditCtrl@@UAEXAAVCString@@@Z 0993:?SetCurrentText@CGXRichEditCtrl@@UAEXABVCString@@@Z 0AA1:?GetControlText@CGXRichEditCtrl@@UAEHAAVCString@@KKPBDABVCGXStyle@@@Z 0B49:?ConvertControlTextToValue@CGXRichEditCtrl@@UAEHAAVCString@@KKPBVCGXStyle@@@Z 0D6E:?SetControlText@CGXRichEditCtrl@@UAEHKKABVCString@@IPBVCGXStyle@@@Z 0EE1:?GetValue@CGXRichEditCtrl@@UAEHAAVCString@@@Z 0F4E:?SetValue@CGXRichEditCtrl@@UAEXPBD@Z 0F6B:?ValidateString@CGXRichEditCtrl@@UAEHABVCString@@@Z 0F7D:?Store@CGXRichEditCtrl@@UAEHXZ 106B:?ConvertRTFToStyle@CGXRichEditCtrl@@UAEXABU_paraformat@@ABU_charformat@@PAVCGXStyle@@@Z 1220:?ConvertStyleToRTF@CGXRichEditCtrl@@UAEXAAU_paraformat@@AAU_charformat@@PBVCGXStyle@@@Z 1476:?StoreStyle@CGXRichEditCtrl@@UAEHKKPBVCGXStyle@@W4GXModifyType@@H0@Z 19A6:?LoadStyle@CGXRichEditCtrl@@UAEHKKPAVCGXStyle@@@Z 1C65:?GetCellRect@CGXRichEditCtrl@@UAE?AVCRect@@KKPAUtagRECT@@PBVCGXStyle@@@Z 1D0E:?AddBorders@CGXRichEditCtrl@@UAE?AVCSize@@V2@ABVCGXStyle@@@Z 1DA0:?Draw@CGXRichEditCtrl@@UAEXPAVCDC@@VCRect@@KKABVCGXStyle@@PBV4@@Z 2A5A:?Hide@CGXRichEditCtrl@@UAEXXZ 2AAC:?LButtonUp@CGXRichEditCtrl@@UAEHIVCPoint@@I@Z 2C18:?LButtonDblClk@CGXRichEditCtrl@@UAEHIVCPoint@@@Z 2DAB:?FindTextA@CGXRichEditCtrl@@UAEHABUGX_FR_STATE@@KKHH@Z 30AC:?ReplaceSel@CGXRichEditCtrl@@UAEXPBD@Z 30F1:?ReplaceAll@CGXRichEditCtrl@@UAEHABUGX_FR_STATE@@KK@Z 345F:?OnRequestResize@CGXRichEditCtrl@@IAEHPAUtagNMHDR@@PAJ@Z 38E5:?CalcSize@CGXRichEditCtrl@@UAE?AVCSize@@PAVCDC@@KKABVCGXStyle@@PBV4@H@Z 3C2A:?OnChildRequestResize@CGXRichEditCtrl@@IAEHIPAUtagNMHDR@@PAJ@Z 3C76:?CanCopy@CGXRichEditCtrl@@UAEHXZ 3C89:?Copy@CGXRichEditCtrl@@UAEHXZ 3CD6:?CanCut@CGXRichEditCtrl@@UAEHXZ 3CE9:?Cut@CGXRichEditCtrl@@UAEHXZ 3D26:?CanPaste@CGXRichEditCtrl@@UAEHXZ 3D87:?Paste@CGXRichEditCtrl@@UAEHXZ 3E68:?OnGridKeyDown@CGXRichEditCtrl@@UAEHIII@Z 40EB:?OnGridChar@CGXRichEditCtrl@@UAEHIII@Z 4188:?OnGridDoubleByteChar@CGXRichEditCtrl@@UAEHABVCString@@II@Z 4352:?OnKeyDown@CGXRichEditCtrl@@IAEXIII@Z 4728:?OnChar@CGXRichEditCtrl@@IAEXIII@Z 4B81:?OnKeyUp@CGXRichEditCtrl@@IAEXIII@Z 4BD9:?OnSysKeyDown@CGXRichEditCtrl@@IAEXIII@Z 4C31:?OnSysChar@CGXRichEditCtrl@@IAEXIII@Z 4C89:?OnSysKeyUp@CGXRichEditCtrl@@IAEXIII@Z 4CE1:?OnDeadChar@CGXRichEditCtrl@@IAEXIII@Z 4D39:?OnSysDeadChar@CGXRichEditCtrl@@IAEXIII@Z 4D91:?OnEraseBkgnd@CGXRichEditCtrl@@IAEHPAVCDC@@@Z 4E09:?OnCommand@CGXRichEditCtrl@@UAEHIJ@Z 4E7A:?OnKillFocus@CGXRichEditCtrl@@IAEXPAVCWnd@@@Z 4EA2:?OnGetDlgCode@CGXRichEditCtrl@@IAEIXZ 4EBB:?OnLButtonDown@CGXRichEditCtrl@@IAEXIVCPoint@@@Z 4EE6:?OnLButtonUp@CGXRichEditCtrl@@IAEXIVCPoint@@@Z (3FB3: 10)
              3. 02 2CE3 508D 0000:?GetControlClass@CGXRichEditCtrl@@UBEPAUCGXControlClass@@XZ 0010:?_GetBaseClass@CGXRichEditCtrl@@KGPAUCRuntimeClass@@XZ 001A:?GetRuntimeClass@CGXRichEditCtrl@@UBEPAUCRuntimeClass@@XZ 002A:??0CGXRichEditCtrl@@QAE@PAVCGXGridCore@@@Z 016A:??1CGXRichEditCtrl@@UAE@XZ 02CF:?GetWndPtr@CGXRichEditCtrl@@UBEPAVCWnd@@XZ 02E0:?SetEventMask@CGXRichEditCtrl@@QAEKK@Z 0302:?CreateControl@CGXRichEditCtrl@@QAEHKI@Z 0419:?_GetBaseMessageMap@CGXRichEditCtrl@@KGPBUAFX_MSGMAP@@XZ 0423:?GetMessageMap@CGXRichEditCtrl@@MBEPBUAFX_MSGMAP@@XZ 0433:?SetActive@CGXRichEditCtrl@@UAEXH@Z 04A0:?IsActive@CGXRichEditCtrl@@UAEHXZ 04B1:?SetModify@CGXRichEditCtrl@@UAEXH@Z 04CD:?GetModify@CGXRichEditCtrl@@UAEHXZ 04E3:?Init@CGXRichEditCtrl@@UAEXKK@Z 0681:?_GXEditStreamInCallback@@YGKKPAEJPAJ@Z 070B:?_GXEditStreamOutCallback@@YGKKPAEJPAJ@Z 0794:?_GXEditStreamCountCallback@@YGKKPAEJPAJ@Z 07A5:?SetRichText@CGXRichEditCtrl@@SGXPAVCRichEditCtrl@@PBD@Z 07F5:?SetRichText@CGXRichEditCtrl@@SGXPAVCRichEditCtrl@@PBG@Z 08BD:?GetRichText@CGXRichEditCtrl@@SG?AVCString@@PAVCRichEditCtrl@@AAV2@@Z 091D:?GetSelectedText@CGXRichEditCtrl@@UAEHAAVCString@@@Z 09E8:?GetCurrentText@CGXRichEditCtrl@@UAEXAAVCString@@@Z 0A6B:?SetCurrentText@CGXRichEditCtrl@@UAEXABVCString@@@Z 0B79:?GetControlText@CGXRichEditCtrl@@UAEHAAVCString@@KKPBGABVCGXStyle@@@Z 0C21:?ConvertControlTextToValue@CGXRichEditCtrl@@UAEHAAVCString@@KKPBVCGXStyle@@@Z 0E46:?SetControlText@CGXRichEditCtrl@@UAEHKKABVCString@@IPBVCGXStyle@@@Z 0FB9:?GetValue@CGXRichEditCtrl@@UAEHAAVCString@@@Z 1026:?SetValue@CGXRichEditCtrl@@UAEXPBG@Z 1043:?ValidateString@CGXRichEditCtrl@@UAEHABVCString@@@Z 1055:?Store@CGXRichEditCtrl@@UAEHXZ 1143:?ConvertRTFToStyle@CGXRichEditCtrl@@UAEXABU_paraformat@@ABU_charformat@@PAVCGXStyle@@@Z 1323:?ConvertStyleToRTF@CGXRichEditCtrl@@UAEXAAU_paraformat@@AAU_charformat@@PBVCGXStyle@@@Z 1583:?StoreStyle@CGXRichEditCtrl@@UAEHKKPBVCGXStyle@@W4GXModifyType@@H0@Z 1AB3:?LoadStyle@CGXRichEditCtrl@@UAEHKKPAVCGXStyle@@@Z 1D72:?GetCellRect@CGXRichEditCtrl@@UAE?AVCRect@@KKPAUtagRECT@@PBVCGXStyle@@@Z 1E1B:?AddBorders@CGXRichEditCtrl@@UAE?AVCSize@@V2@ABVCGXStyle@@@Z 1EAD:?Draw@CGXRichEditCtrl@@UAEXPAVCDC@@VCRect@@KKABVCGXStyle@@PBV4@@Z 2B67:?Hide@CGXRichEditCtrl@@UAEXXZ 2BB9:?LButtonUp@CGXRichEditCtrl@@UAEHIVCPoint@@I@Z 2D25:?LButtonDblClk@CGXRichEditCtrl@@UAEHIVCPoint@@@Z 2EB8:?FindTextW@CGXRichEditCtrl@@UAEHABUGX_FR_STATE@@KKHH@Z 31E7:?ReplaceSel@CGXRichEditCtrl@@UAEXPBG@Z 322C:?ReplaceAll@CGXRichEditCtrl@@UAEHABUGX_FR_STATE@@KK@Z 35C8:?OnRequestResize@CGXRichEditCtrl@@IAEHPAUtagNMHDR@@PAJ@Z 3A4E:?CalcSize@CGXRichEditCtrl@@UAE?AVCSize@@PAVCDC@@KKABVCGXStyle@@PBV4@H@Z 3D93:?OnChildRequestResize@CGXRichEditCtrl@@IAEHIPAUtagNMHDR@@PAJ@Z 3DDF:?CanCopy@CGXRichEditCtrl@@UAEHXZ 3DF2:?Copy@CGXRichEditCtrl@@UAEHXZ 3E3F:?CanCut@CGXRichEditCtrl@@UAEHXZ 3E52:?Cut@CGXRichEditCtrl@@UAEHXZ 3E8F:?CanPaste@CGXRichEditCtrl@@UAEHXZ 3EF0:?Paste@CGXRichEditCtrl@@UAEHXZ 3FD1:?OnGridKeyDown@CGXRichEditCtrl@@UAEHIII@Z 4254:?OnGridChar@CGXRichEditCtrl@@UAEHIII@Z 42F2:?OnGridDoubleByteChar@CGXRichEditCtrl@@UAEHABVCString@@II@Z 44BC:?OnKeyDown@CGXRichEditCtrl@@IAEXIII@Z 4892:?OnChar@CGXRichEditCtrl@@IAEXIII@Z 4CED:?OnKeyUp@CGXRichEditCtrl@@IAEXIII@Z 4D45:?OnSysKeyDown@CGXRichEditCtrl@@IAEXIII@Z 4D9D:?OnSysChar@CGXRichEditCtrl@@IAEXIII@Z 4DF5:?OnSysKeyUp@CGXRichEditCtrl@@IAEXIII@Z 4E4D:?OnDeadChar@CGXRichEditCtrl@@IAEXIII@Z 4EA5:?OnSysDeadChar@CGXRichEditCtrl@@IAEXIII@Z 4EFD:?OnEraseBkgnd@CGXRichEditCtrl@@IAEHPAVCDC@@@Z 4F75:?OnCommand@CGXRichEditCtrl@@UAEHIJ@Z 4FE6:?OnKillFocus@CGXRichEditCtrl@@IAEXPAVCWnd@@@Z 500E:?OnGetDlgCode@CGXRichEditCtrl@@IAEIXZ 5027:?OnLButtonDown@CGXRichEditCtrl@@IAEXIVCPoint@@@Z 5052:?OnLButtonUp@CGXRichEditCtrl@@IAEXIVCPoint@@@Z 5073:?ConvertStyleToRTF@CGXRichEditCtrl@@UAEXAAU_paraformat@@AAU_charformatw@@PBVCGXStyle@@@Z 5080:?ConvertRTFToStyle@CGXRichEditCtrl@@UAEXABU_paraformat@@ABU_charformatw@@PAVCGXStyle@@@Z (3FB3: FF)
              4. 02 2CE3 65CF 0000:?GetControlClass@CGXMaskControl@@UBEPAUCGXControlClass@@XZ 0010:?_GetBaseClass@CGXMaskControl@@KGPAUCRuntimeClass@@XZ 001A:?GetRuntimeClass@CGXMaskControl@@UBEPAUCRuntimeClass@@XZ 002A:?CreateObject@CGXMaskData@@SGPAVCObject@@XZ 008E:?_GetBaseClass@CGXMaskData@@KGPAUCRuntimeClass@@XZ 0098:?GetRuntimeClass@CGXMaskData@@UBEPAUCRuntimeClass@@XZ 00A8:??0CGXMaskData@@QAE@XZ 0151:??1CGXMaskData@@UAE@XZ 01D2:?Empty@CGXMaskData@@UAEXXZ 01F3:?SetMask@CGXMaskData@@UAEXPBG@Z 0454:?IsMaskChar@CGXMaskData@@UBEHG@Z 0508:?GetData@CGXMaskData@@UBEXAAVCString@@HHH@Z 06A5:?IsLiteral@CGXMaskData@@UBEHH@Z 06E2:?SetData@CGXMaskData@@UAEHPBGHH@Z 0989:?ClearData@CGXMaskData@@UAEXXZ 0AB1:?IsCharValid@CGXMaskData@@UBEHHAAVCString@@@Z 0D45:?GetDisplayString@CGXMaskData@@UBEXAAVCString@@HH@Z 0E0A:?SetDisplayString@CGXMaskData@@UAEHPBGHH@Z 10A7:?SetPromptChar@CGXMaskData@@QAEHABVCString@@H@Z 11C4:?GetNextDataPos@CGXMaskData@@UBEHH@Z 12A1:?GetPrevDataPos@CGXMaskData@@UBEHH@Z 136D:?FindLastFilledDataPos@CGXMaskData@@UBEHH@Z 164B:?PushChar@CGXMaskData@@UAEHHABVCString@@AAH@Z 1822:?PullChar@CGXMaskData@@UAEXHH@Z 19D1:?IsValidDisplayString@CGXMaskData@@UBEHXZ 1B69:?GetEditPos@CGXMaskData@@UBEHH@Z 1B9F:?GetCharPos@CGXMaskData@@UBEHH@Z 1BD5:??0CGXMaskControl@@QAE@PAVCGXGridCore@@IPAUCRuntimeClass@@@Z 1D17:??1CGXMaskControl@@UAE@XZ 1E06:?AddUserAttributes@CGXMaskControl@@SGXPAVCGXStylesMap@@@Z 1ED9:?GetWndPtr@CGXMaskControl@@UBEPAVCWnd@@XZ 1EEA:?AttachData@CGXMaskControl@@QAEXPAUCRuntimeClass@@@Z 1F9D:?CreateControl@CGXMaskControl@@UAEHKPAUtagRECT@@@Z 2013:?_GetBaseMessageMap@CGXMaskControl@@KGPBUAFX_MSGMAP@@XZ 201D:?GetMessageMap@CGXMaskControl@@MBEPBUAFX_MSGMAP@@XZ 202D:?SetActive@CGXMaskControl@@UAEXH@Z 209A:?IsActive@CGXMaskControl@@UAEHXZ 20AB:?SetModify@CGXMaskControl@@UAEXH@Z 20D0:?GetModify@CGXMaskControl@@UAEHXZ 2108:?InitMask@CGXMaskControl@@UAEXPAVCGXMaskData@@ABVCGXStyle@@@Z 2205:?Init@CGXMaskControl@@UAEXKK@Z 22EC:?UpdateDisplay@CGXMaskControl@@IAEXPBG@Z 2392:?SetCurrentText@CGXMaskControl@@UAEXABVCString@@@Z 2407:?GetCurrentText@CGXMaskControl@@UAEXAAVCString@@@Z 2455:?GetValue@CGXMaskControl@@UAEHAAVCString@@@Z 2492:?SetValue@CGXMaskControl@@UAEXPBG@Z 2559:?Store@CGXMaskControl@@UAEHXZ 2655:?GetControlText@CGXMaskControl@@UAEHAAVCString@@KKPBGABVCGXStyle@@@Z 272E:?ConvertControlTextToValue@CGXMaskControl@@UAEHAAVCString@@KKPBVCGXStyle@@@Z (l)2825:$exitcv$95249 2852:?Draw@CGXMaskControl@@UAEXPAVCDC@@VCRect@@KKABVCGXStyle@@PBV4@@Z 307C:?Hide@CGXMaskControl@@UAEXXZ 30EE:?LButtonUp@CGXMaskControl@@UAEHIVCPoint@@I@Z 32B6:?LButtonDblClk@CGXMaskControl@@UAEHIVCPoint@@@Z 3420:?OnGridKeyDown@CGXMaskControl@@UAEHIII@Z 36B1:?OnGridChar@CGXMaskControl@@UAEHIII@Z 3793:?OnGridDoubleByteChar@CGXMaskControl@@UAEHABVCString@@II@Z 39E0:?GetCharSel@CGXMaskControl@@QBEXAAH0@Z 3A69:?SetCharSel@CGXMaskControl@@QAEXHHH@Z 3AD4:?SendEvent@CGXMaskControl@@QAEXI@Z 3B18:?OnKeyDown@CGXMaskControl@@IAEXIII@Z 42B3:?OnChar@CGXMaskControl@@IAEXIII@Z 46E5:?OnKeyUp@CGXMaskControl@@IAEXIII@Z 4745:?OnSysKeyDown@CGXMaskControl@@IAEXIII@Z 479D:?OnSysChar@CGXMaskControl@@IAEXIII@Z 47F5:?OnSysKeyUp@CGXMaskControl@@IAEXIII@Z 484D:?OnCommand@CGXMaskControl@@UAEHIJ@Z 48BE:?FindTextW@CGXMaskControl@@UAEHABUGX_FR_STATE@@KKHH@Z 4C36:?ReplaceSel@CGXMaskControl@@UAEXPBG@Z 4EAF:?ReplaceAll@CGXMaskControl@@UAEHABUGX_FR_STATE@@KK@Z 551E:?GetSelectedText@CGXMaskControl@@UAEHAAVCString@@@Z 5617:?CalcTextPosUnderPt@CGXMaskControl@@QAEHVCPoint@@@Z 579B:?SetCellColor@CGXMaskControl@@QAEXK@Z 57B4:?SetTextAlign@CGXMaskControl@@QAEXI@Z 57D9:?UpdateEditStyle@CGXMaskControl@@IAEHXZ 5AE1:?GetLastVisibleLine@CGXMaskControl@@IAEHPAUtagRECT@@@Z 5BD5:?CalcEditStyle@CGXMaskControl@@MAEKPAUtagRECT@@AAH@Z 5E3E:?OnKillFocus@CGXMaskControl@@IAEXPAVCWnd@@@Z 5E66:?OnGetDlgCode@CGXMaskControl@@IAEIXZ 5E7F:?OnEraseBkgnd@CGXMaskControl@@IAEHPAVCDC@@@Z 5EF7:?OnShowWindow@CGXMaskControl@@IAEXHI@Z 5F22:?OnSetFocus@CGXMaskControl@@IAEXPAVCWnd@@@Z 5F43:?OnContextMenu@CGXMaskControl@@IAEXPAVCWnd@@VCPoint@@@Z 5F6F:?CanCopy@CGXMaskControl@@UAEHXZ 5F82:?Copy@CGXMaskControl@@UAEHXZ 6178:?CanCut@CGXMaskControl@@UAEHXZ 618B:?Cut@CGXMaskControl@@UAEHXZ 619E:?CanPaste@CGXMaskControl@@UAEHXZ 6233:?Paste@CGXMaskControl@@UAEHXZ 635F:?OnLButtonDown@CGXMaskControl@@IAEXIVCPoint@@@Z 647D:?OnLButtonUp@CGXMaskControl@@IAEXIVCPoint@@@Z 6529:?OnValidate@CGXMaskControl@@UAEHXZ (3FB3: 00)
              5. 02 2CE3 6802 0000:?GetControlClass@CGXMaskControl@@UBEPAUCGXControlClass@@XZ 0010:?_GetBaseClass@CGXMaskControl@@KGPAUCRuntimeClass@@XZ 001A:?GetRuntimeClass@CGXMaskControl@@UBEPAUCRuntimeClass@@XZ 002A:?CreateObject@CGXMaskData@@SGPAVCObject@@XZ 008E:?_GetBaseClass@CGXMaskData@@KGPAUCRuntimeClass@@XZ 0098:?GetRuntimeClass@CGXMaskData@@UBEPAUCRuntimeClass@@XZ 00C4:??0CGXMaskData@@QAE@XZ 016D:??1CGXMaskData@@UAE@XZ 01EE:?Empty@CGXMaskData@@UAEXXZ 020F:?SetMask@CGXMaskData@@UAEXPBD@Z 045D:?IsMaskChar@CGXMaskData@@UBEHD@Z 0508:?GetData@CGXMaskData@@UBEXAAVCString@@HHH@Z 06A5:?IsLiteral@CGXMaskData@@UBEHH@Z 06E2:?SetData@CGXMaskData@@UAEHPBDHH@Z 0982:?ClearData@CGXMaskData@@UAEXXZ 0AAA:?IsCharValid@CGXMaskData@@UBEHHAAVCString@@@Z 0E44:?GetDisplayString@CGXMaskData@@UBEXAAVCString@@HH@Z 0F09:?SetDisplayString@CGXMaskData@@UAEHPBDHH@Z 119B:?SetPromptChar@CGXMaskData@@QAEHABVCString@@H@Z 12D1:?GetNextDataPos@CGXMaskData@@UBEHH@Z 13AE:?GetPrevDataPos@CGXMaskData@@UBEHH@Z 147A:?FindLastFilledDataPos@CGXMaskData@@UBEHH@Z 1758:?PushChar@CGXMaskData@@UAEHHABVCString@@AAH@Z 192F:?PullChar@CGXMaskData@@UAEXHH@Z 1ADE:?IsValidDisplayString@CGXMaskData@@UBEHXZ 1C75:?GetEditPos@CGXMaskData@@UBEHH@Z 1D45:?GetCharPos@CGXMaskData@@UBEHH@Z 1E13:??0CGXMaskControl@@QAE@PAVCGXGridCore@@IPAUCRuntimeClass@@@Z 1F55:??1CGXMaskControl@@UAE@XZ 2044:?AddUserAttributes@CGXMaskControl@@SGXPAVCGXStylesMap@@@Z 2117:?GetWndPtr@CGXMaskControl@@UBEPAVCWnd@@XZ 2128:?AttachData@CGXMaskControl@@QAEXPAUCRuntimeClass@@@Z 21DB:?CreateControl@CGXMaskControl@@UAEHKPAUtagRECT@@@Z 2251:?_GetBaseMessageMap@CGXMaskControl@@KGPBUAFX_MSGMAP@@XZ 225B:?GetMessageMap@CGXMaskControl@@MBEPBUAFX_MSGMAP@@XZ 226B:?SetActive@CGXMaskControl@@UAEXH@Z 22D8:?IsActive@CGXMaskControl@@UAEHXZ 22E9:?SetModify@CGXMaskControl@@UAEXH@Z 230E:?GetModify@CGXMaskControl@@UAEHXZ 2346:?InitMask@CGXMaskControl@@UAEXPAVCGXMaskData@@ABVCGXStyle@@@Z 2443:?Init@CGXMaskControl@@UAEXKK@Z 252A:?UpdateDisplay@CGXMaskControl@@IAEXPBD@Z 25D0:?SetCurrentText@CGXMaskControl@@UAEXABVCString@@@Z 2645:?GetCurrentText@CGXMaskControl@@UAEXAAVCString@@@Z 2693:?GetValue@CGXMaskControl@@UAEHAAVCString@@@Z 26D0:?SetValue@CGXMaskControl@@UAEXPBD@Z 2797:?Store@CGXMaskControl@@UAEHXZ 2893:?GetControlText@CGXMaskControl@@UAEHAAVCString@@KKPBDABVCGXStyle@@@Z 296B:?ConvertControlTextToValue@CGXMaskControl@@UAEHAAVCString@@KKPBVCGXStyle@@@Z (l)2A62:$exitcv$95291 2A8F:?Draw@CGXMaskControl@@UAEXPAVCDC@@VCRect@@KKABVCGXStyle@@PBV4@@Z 32B9:?Hide@CGXMaskControl@@UAEXXZ 332B:?LButtonUp@CGXMaskControl@@UAEHIVCPoint@@I@Z 34F3:?LButtonDblClk@CGXMaskControl@@UAEHIVCPoint@@@Z 365D:?OnGridKeyDown@CGXMaskControl@@UAEHIII@Z 38EE:?OnGridChar@CGXMaskControl@@UAEHIII@Z 39CE:?OnGridDoubleByteChar@CGXMaskControl@@UAEHABVCString@@II@Z 3C1B:?GetCharSel@CGXMaskControl@@QBEXAAH0@Z 3CA4:?SetCharSel@CGXMaskControl@@QAEXHHH@Z 3D0F:?SendEvent@CGXMaskControl@@QAEXI@Z 3D53:?OnKeyDown@CGXMaskControl@@IAEXIII@Z 44EE:?OnChar@CGXMaskControl@@IAEXIII@Z 491E:?OnKeyUp@CGXMaskControl@@IAEXIII@Z 497E:?OnSysKeyDown@CGXMaskControl@@IAEXIII@Z 49D6:?OnSysChar@CGXMaskControl@@IAEXIII@Z 4A2E:?OnSysKeyUp@CGXMaskControl@@IAEXIII@Z 4A86:?OnCommand@CGXMaskControl@@UAEHIJ@Z 4AF7:?FindTextA@CGXMaskControl@@UAEHABUGX_FR_STATE@@KKHH@Z 4E63:?ReplaceSel@CGXMaskControl@@UAEXPBD@Z 50DC:?ReplaceAll@CGXMaskControl@@UAEHABUGX_FR_STATE@@KK@Z 5742:?GetSelectedText@CGXMaskControl@@UAEHAAVCString@@@Z 583B:?CalcTextPosUnderPt@CGXMaskControl@@QAEHVCPoint@@@Z 59BF:?SetCellColor@CGXMaskControl@@QAEXK@Z 59D8:?SetTextAlign@CGXMaskControl@@QAEXI@Z 59FD:?UpdateEditStyle@CGXMaskControl@@IAEHXZ 5D05:?GetLastVisibleLine@CGXMaskControl@@IAEHPAUtagRECT@@@Z 5DF9:?CalcEditStyle@CGXMaskControl@@MAEKPAUtagRECT@@AAH@Z 6062:?OnKillFocus@CGXMaskControl@@IAEXPAVCWnd@@@Z 608A:?OnGetDlgCode@CGXMaskControl@@IAEIXZ 60A3:?OnEraseBkgnd@CGXMaskControl@@IAEHPAVCDC@@@Z 611B:?OnShowWindow@CGXMaskControl@@IAEXHI@Z 6146:?OnSetFocus@CGXMaskControl@@IAEXPAVCWnd@@@Z 6167:?OnContextMenu@CGXMaskControl@@IAEXPAVCWnd@@VCPoint@@@Z 6193:?CanCopy@CGXMaskControl@@UAEHXZ 61A6:?Copy@CGXMaskControl@@UAEHXZ 639A:?CanCut@CGXMaskControl@@UAEHXZ 63AD:?Cut@CGXMaskControl@@UAEHXZ 63C0:?CanPaste@CGXMaskControl@@UAEHXZ 6455:?Paste@CGXMaskControl@@UAEHXZ 6592:?OnLButtonDown@CGXMaskControl@@IAEXIVCPoint@@@Z 66B0:?OnLButtonUp@CGXMaskControl@@IAEXIVCPoint@@@Z 675C:?OnValidate@CGXMaskControl@@UAEHXZ (3FB3: 40)
            B8........5DC3558BEC51894D:
              0. 02 2CE3 5FA9 0000:?GetControlClass@CGXDateTimeCtrl@@UBEPAUCGXControlClass@@XZ 0010:?_GetBaseClass@CGXDateTimeCtrl@@KGPAUCRuntimeClass@@XZ 001A:?GetRuntimeClass@CGXDateTimeCtrl@@UBEPAUCRuntimeClass@@XZ 006D:?SetValue@CGXCaptiveDateTimeCtrl@@IAEXPBD@Z 0178:?LayoutGadgets@CGXCaptiveDateTimeCtrl@@IAEXPAVCDC@@VCRect@@@Z 02FB:?LayoutGadgets@CGXCaptiveDateTimeCtrl@@MAEXXZ 0306:??0CGXDateTimeCtrl@@QAE@PAVCGXGridCore@@I@Z 0466:??1CGXDateTimeCtrl@@UAE@XZ 0571:?GetWndPtr@CGXDateTimeCtrl@@UBEPAVCWnd@@XZ 0584:?AddUserAttributes@CGXDateTimeCtrl@@SGXPAVCGXStylesMap@@@Z 0864:?CreateControl@CGXDateTimeCtrl@@QAEHKPAUtagRECT@@@Z 0966:?_GetBaseMessageMap@CGXDateTimeCtrl@@KGPBUAFX_MSGMAP@@XZ 0970:?GetMessageMap@CGXDateTimeCtrl@@MBEPBUAFX_MSGMAP@@XZ 0980:?SetFormat@CGXDateTimeCtrl@@UAEHAAVCGXBDateTimeCtrl@@ABVCGXStyle@@@Z 0AC4:?GetCellRect@CGXDateTimeCtrl@@UAE?AVCRect@@KKPAUtagRECT@@PBVCGXStyle@@@Z 0B0B:?AddBorders@CGXDateTimeCtrl@@UAE?AVCSize@@V2@ABVCGXStyle@@@Z 0B4B:?Draw@CGXDateTimeCtrl@@UAEXPAVCDC@@VCRect@@KKABVCGXStyle@@PBV4@@Z 16EB:?DrawSpinGadget@CGXDateTimeCtrl@@UAEXPAVCDC@@PAVCGXDTSpinGadget@@VCRect@@@Z 17EB:?DrawNumericGadget@CGXDateTimeCtrl@@UAEXPAVCDC@@PAVCGXDTNumericGadget@@VCRect@@@Z 192D:?DrawListGadget@CGXDateTimeCtrl@@UAEXPAVCDC@@PAVCGXDTListGadget@@VCRect@@@Z 1A13:?DrawStaticGadget@CGXDateTimeCtrl@@UAEXPAVCDC@@PAVCGXDTStaticGadget@@VCRect@@@Z 1A61:?DrawButtonGadget@CGXDateTimeCtrl@@UAEXPAVCDC@@PAVCGXDTButtonGadget@@VCRect@@@Z 1C72:?Init@CGXDateTimeCtrl@@UAEXKK@Z 1ED7:?SetActive@CGXDateTimeCtrl@@UAEXH@Z 1EED:?IsActive@CGXDateTimeCtrl@@UAEHXZ 1EFE:?SetModify@CGXDateTimeCtrl@@UAEXH@Z 1F14:?GetModify@CGXDateTimeCtrl@@UAEHXZ 1F25:?SetCurrentText@CGXDateTimeCtrl@@UAEXABVCString@@@Z 1FCD:?ValidateString@CGXDateTimeCtrl@@UAEHABVCString@@@Z 1FDF:?GetCurrentText@CGXDateTimeCtrl@@UAEXAAVCString@@@Z 20B2:?GetValue@CGXDateTimeCtrl@@UAEHAAVCString@@@Z 219B:?SetValue@CGXDateTimeCtrl@@UAEXPBD@Z 22C3:?Store@CGXDateTimeCtrl@@UAEHXZ 23BF:?GetControlText@CGXDateTimeCtrl@@UAEHAAVCString@@KKPBDABVCGXStyle@@@Z 2707:?CalcSize@CGXDateTimeCtrl@@UAE?AVCSize@@PAVCDC@@KKABVCGXStyle@@PBV4@H@Z 29CE:?ConvertControlTextToValue@CGXDateTimeCtrl@@UAEHAAVCString@@KKPBVCGXStyle@@@Z 2DDC:?ParseTextWithCurrentFormat@CGXDateTimeCtrl@@UAEHABVCString@@PBVCGXStyle@@AAVCStringArray@@@Z 317D:?Hide@CGXDateTimeCtrl@@UAEXXZ 321A:?LButtonUp@CGXDateTimeCtrl@@UAEHIVCPoint@@I@Z 3332:?LButtonDblClk@CGXDateTimeCtrl@@UAEHIVCPoint@@@Z 33B3:?PositionGadget@CGXDateTimeCtrl@@UAEXIVCPoint@@H@Z 36A3:?OnStartEditing@CGXDateTimeCtrl@@UAEHXZ 37B9:?OnGridKeyDown@CGXDateTimeCtrl@@UAEHIII@Z 3BAC:?OnGridChar@CGXDateTimeCtrl@@UAEHIII@Z 3C8F:?OnGridDoubleByteChar@CGXDateTimeCtrl@@UAEHABVCString@@II@Z 3DD7:?OnGridSysKeyDown@CGXDateTimeCtrl@@UAEHIII@Z 3EC0:?OnKeyDown@CGXDateTimeCtrl@@MAEXIII@Z 41D2:?OnChar@CGXDateTimeCtrl@@MAEXIII@Z 43BF:?OnKeyUp@CGXDateTimeCtrl@@MAEXIII@Z 4448:?OnSysKeyDown@CGXDateTimeCtrl@@MAEXIII@Z 44E0:?OnSysChar@CGXDateTimeCtrl@@MAEXIII@Z 453B:?OnSysKeyUp@CGXDateTimeCtrl@@MAEXIII@Z 4596:?OnLButtonUp@CGXDateTimeCtrl@@IAEXIVCPoint@@@Z 4613:?FindTextA@CGXDateTimeCtrl@@UAEHABUGX_FR_STATE@@KKHH@Z 4E21:?ReplaceSel@CGXDateTimeCtrl@@UAEXPBD@Z 4E48:?ReplaceAll@CGXDateTimeCtrl@@UAEHABUGX_FR_STATE@@KK@Z 56D7:?GetSelectedText@CGXDateTimeCtrl@@UAEHAAVCString@@@Z 57F7:?OnKillFocus@CGXDateTimeCtrl@@IAEXPAVCWnd@@@Z 5822:?OnEraseBkgnd@CGXDateTimeCtrl@@IAEHPAVCDC@@@Z 58DD:?OnShowWindow@CGXDateTimeCtrl@@IAEXHI@Z 58FA:?OnSetFocus@CGXDateTimeCtrl@@IAEXPAVCWnd@@@Z 5920:?CanCopy@CGXDateTimeCtrl@@UAEHXZ 5933:?Copy@CGXDateTimeCtrl@@UAEHXZ 59AC:?CanCut@CGXDateTimeCtrl@@UAEHXZ 59BF:?Cut@CGXDateTimeCtrl@@UAEHXZ 59D2:?CanPaste@CGXDateTimeCtrl@@UAEHXZ 5A7F:?Paste@CGXDateTimeCtrl@@UAEHXZ 5B8D:?OnValidate@CGXDateTimeCtrl@@UAEHXZ 5BD6:?CanFloatCell@CGXDateTimeCtrl@@UAEHKKABVCGXStyle@@H@Z 5BE5:?OnChanging@CGXDateTimeCtrl@@UAEHABVCOleDateTime@@@Z 5C71:?OnChanged@CGXDateTimeCtrl@@UAEXXZ 5CC2:?GetSortKey@CGXDateTimeCtrl@@UAEXKKABUCGXSortInfo@@ABVCGXStyle@@AAVCString@@@Z 5D58:?StoreStyle@CGXDateTimeCtrl@@UAEHKKPBVCGXStyle@@W4GXModifyType@@H0@Z (01E4: 4D)
              1. 02 2CE3 0247 0000:?GetControlClass@CGXPasswordControl@@UBEPAUCGXControlClass@@XZ 0010:?_GetBaseClass@CGXPasswordControl@@KGPAUCRuntimeClass@@XZ 001A:?GetRuntimeClass@CGXPasswordControl@@UBEPAUCRuntimeClass@@XZ 002A:??0CGXPasswordControl@@QAE@PAVCGXGridCore@@I@Z 0080:?_GetBaseMessageMap@CGXPasswordControl@@KGPBUAFX_MSGMAP@@XZ 008A:?GetMessageMap@CGXPasswordControl@@MBEPBUAFX_MSGMAP@@XZ 009A:?GetControlText@CGXPasswordControl@@UAEHAAVCString@@KKPBGABVCGXStyle@@@Z 0116:?SetValue@CGXPasswordControl@@UAEXPBG@Z 01CE:?CalcEditStyle@CGXPasswordControl@@UAEKPAUtagRECT@@AAH@Z 01F7:?Copy@CGXPasswordControl@@UAEHXZ 0207:?Cut@CGXPasswordControl@@UAEHXZ 0217:?OnLButtonDown@CGXPasswordControl@@IAEXIVCPoint@@@Z 0238:?CanFloatCell@CGXPasswordControl@@UAEHKKABVCGXStyle@@H@Z (01E4: C3)
              2. 02 2CE3 0243 0000:?GetControlClass@CGXPasswordControl@@UBEPAUCGXControlClass@@XZ 0010:?_GetBaseClass@CGXPasswordControl@@KGPAUCRuntimeClass@@XZ 001A:?GetRuntimeClass@CGXPasswordControl@@UBEPAUCRuntimeClass@@XZ 002A:??0CGXPasswordControl@@QAE@PAVCGXGridCore@@I@Z 007E:?_GetBaseMessageMap@CGXPasswordControl@@KGPBUAFX_MSGMAP@@XZ 0088:?GetMessageMap@CGXPasswordControl@@MBEPBUAFX_MSGMAP@@XZ 0098:?GetControlText@CGXPasswordControl@@UAEHAAVCString@@KKPBDABVCGXStyle@@@Z 0113:?SetValue@CGXPasswordControl@@UAEXPBD@Z 01CA:?CalcEditStyle@CGXPasswordControl@@UAEKPAUtagRECT@@AAH@Z 01F3:?Copy@CGXPasswordControl@@UAEHXZ 0203:?Cut@CGXPasswordControl@@UAEHXZ 0213:?OnLButtonDown@CGXPasswordControl@@IAEXIVCPoint@@@Z 0234:?CanFloatCell@CGXPasswordControl@@UAEHKKABVCGXStyle@@H@Z (01E4: 51)
              3. 02 2CE3 41E6 0000:?GetControlClass@CGXTabbedComboBox@@UBEPAUCGXControlClass@@XZ 0010:?_GetBaseClass@CGXTabbedComboBox@@KGPAUCRuntimeClass@@XZ 001A:?GetRuntimeClass@CGXTabbedComboBox@@UBEPAUCRuntimeClass@@XZ 002A:??0CGXTabbedComboBox@@QAE@PAVCGXGridCore@@II@Z 01D4:??1CGXTabbedComboBox@@UAE@XZ 0333:?AddUserAttributes@CGXTabbedComboBox@@SGXPAVCGXStylesMap@@@Z 0463:?_GetBaseMessageMap@CGXTabbedComboBox@@KGPBUAFX_MSGMAP@@XZ 046D:?GetMessageMap@CGXTabbedComboBox@@MBEPBUAFX_MSGMAP@@XZ 047D:?Init@CGXTabbedComboBox@@UAEXKK@Z 06F5:?StoreStyle@CGXTabbedComboBox@@UAEHKKPBVCGXStyle@@W4GXModifyType@@H0@Z 08F5:?Draw@CGXTabbedComboBox@@UAEXPAVCDC@@VCRect@@KKABVCGXStyle@@PBV4@@Z 0C40:?SetTabStops@CGXTabbedComboBox@@QAEXH@Z 0C9B:?AddTabStop@CGXTabbedComboBox@@QAEXHH@Z 0CBA:?GetValueToChoiceMap@CGXTabbedComboBox@@QAEPAVCMapStringToString@@ABVCGXStyle@@@Z 0F64:?ResetChoiceMap@CGXTabbedComboBox@@SGXPAVCGXGridParam@@H@Z 1167:?GetTextToChoiceMap@CGXTabbedComboBox@@QAEPAVCMapStringToString@@ABVCGXStyle@@@Z 1402:?SetValue@CGXTabbedComboBox@@UAEXPBD@Z 1706:?GetValue@CGXTabbedComboBox@@UAEHAAVCString@@@Z 1A11:?GetControlText@CGXTabbedComboBox@@UAEHAAVCString@@KKPBDABVCGXStyle@@@Z 1CC0:?ConvertControlTextToValue@CGXTabbedComboBox@@UAEHAAVCString@@KKPBVCGXStyle@@@Z 1F64:?CheckAndFillCBEdit@CGXTabbedComboBox@@UAEXXZ 21CD:?OnChar@CGXTabbedComboBox@@IAEXIII@Z 2245:?KeyPressed@CGXTabbedComboBox@@UAEHIIII@Z 22A5:?OnValidate@CGXTabbedComboBox@@UAEHXZ 2349:?ValidateString@CGXTabbedComboBox@@UAEHABVCString@@@Z 2632:?CalcSize@CGXTabbedComboBox@@UAE?AVCSize@@PAVCDC@@KKABVCGXStyle@@PBV4@H@Z 29AE:?OnGetListboxRect@CGXTabbedComboBox@@UAE?AVCRect@@ABV2@@Z 2A46:?CreateDropDown@CGXTabbedComboBox@@UAEPAVCGXGridCombo@@PAVCWnd@@ABVCRect@@@Z 2AE3:?CreateListBox@CGXTabbedComboBox@@UAEPAVCWnd@@PAV2@I@Z 2BDB:?OnFillDroppedList@CGXTabbedComboBox@@UAEXPAVCListBox@@@Z 346D:?OnStoreDroppedList@CGXTabbedComboBox@@UAEXPAVCListBox@@@Z 3564:?DestroyDropDownWnd@CGXTabbedComboBox@@UAEXPAVCWnd@@@Z 35D5:?ShowDropDown@CGXTabbedComboBox@@UAEXH@Z 3F54:??0CGXTabbedComboLBox@@QAE@PAVCGXTabbedComboBox@@@Z 3F82:?DrawItem@CGXTabbedComboLBox@@UAEXPAUtagDRAWITEMSTRUCT@@@Z 40FA:?MeasureItem@CGXTabbedComboLBox@@UAEXPAUtagMEASUREITEMSTRUCT@@@Z 41BC:?CompareItem@CGXTabbedComboLBox@@UAEHPAUtagCOMPAREITEMSTRUCT@@@Z 41CC:?_GetBaseMessageMap@CGXTabbedComboLBox@@KGPBUAFX_MSGMAP@@XZ 41D6:?GetMessageMap@CGXTabbedComboLBox@@MBEPBUAFX_MSGMAP@@XZ (01E4: 45) (REF 04A9: ??BCGXAbstractUserAttribute@@QBEPBDXZ)
              4. 02 2CE3 4289 0000:?GetControlClass@CGXTabbedComboBox@@UBEPAUCGXControlClass@@XZ 0010:?_GetBaseClass@CGXTabbedComboBox@@KGPAUCRuntimeClass@@XZ 001A:?GetRuntimeClass@CGXTabbedComboBox@@UBEPAUCRuntimeClass@@XZ 002A:??0CGXTabbedComboBox@@QAE@PAVCGXGridCore@@II@Z 01D4:??1CGXTabbedComboBox@@UAE@XZ 0333:?AddUserAttributes@CGXTabbedComboBox@@SGXPAVCGXStylesMap@@@Z 0463:?_GetBaseMessageMap@CGXTabbedComboBox@@KGPBUAFX_MSGMAP@@XZ 046D:?GetMessageMap@CGXTabbedComboBox@@MBEPBUAFX_MSGMAP@@XZ 047D:?Init@CGXTabbedComboBox@@UAEXKK@Z 06F5:?StoreStyle@CGXTabbedComboBox@@UAEHKKPBVCGXStyle@@W4GXModifyType@@H0@Z 08F5:?Draw@CGXTabbedComboBox@@UAEXPAVCDC@@VCRect@@KKABVCGXStyle@@PBV4@@Z 0C49:?SetTabStops@CGXTabbedComboBox@@QAEXH@Z 0CA4:?AddTabStop@CGXTabbedComboBox@@QAEXHH@Z 0CC3:?GetValueToChoiceMap@CGXTabbedComboBox@@QAEPAVCMapStringToString@@ABVCGXStyle@@@Z 0F6D:?ResetChoiceMap@CGXTabbedComboBox@@SGXPAVCGXGridParam@@H@Z 1170:?GetTextToChoiceMap@CGXTabbedComboBox@@QAEPAVCMapStringToString@@ABVCGXStyle@@@Z 140B:?SetValue@CGXTabbedComboBox@@UAEXPBG@Z 170F:?GetValue@CGXTabbedComboBox@@UAEHAAVCString@@@Z 1A1A:?GetControlText@CGXTabbedComboBox@@UAEHAAVCString@@KKPBGABVCGXStyle@@@Z 1CC9:?ConvertControlTextToValue@CGXTabbedComboBox@@UAEHAAVCString@@KKPBVCGXStyle@@@Z 1F6D:?CheckAndFillCBEdit@CGXTabbedComboBox@@UAEXXZ 21D6:?OnChar@CGXTabbedComboBox@@IAEXIII@Z 224E:?KeyPressed@CGXTabbedComboBox@@UAEHIIII@Z 22AE:?OnValidate@CGXTabbedComboBox@@UAEHXZ 2352:?ValidateString@CGXTabbedComboBox@@UAEHABVCString@@@Z 263C:?CalcSize@CGXTabbedComboBox@@UAE?AVCSize@@PAVCDC@@KKABVCGXStyle@@PBV4@H@Z 29B9:?OnGetListboxRect@CGXTabbedComboBox@@UAE?AVCRect@@ABV2@@Z 2A51:?CreateDropDown@CGXTabbedComboBox@@UAEPAVCGXGridCombo@@PAVCWnd@@ABVCRect@@@Z 2AEE:?CreateListBox@CGXTabbedComboBox@@UAEPAVCWnd@@PAV2@I@Z 2BE6:?OnFillDroppedList@CGXTabbedComboBox@@UAEXPAVCListBox@@@Z 347D:?OnStoreDroppedList@CGXTabbedComboBox@@UAEXPAVCListBox@@@Z 3574:?DestroyDropDownWnd@CGXTabbedComboBox@@UAEXPAVCWnd@@@Z 35E5:?ShowDropDown@CGXTabbedComboBox@@UAEXH@Z 3FF7:??0CGXTabbedComboLBox@@QAE@PAVCGXTabbedComboBox@@@Z 4025:?DrawItem@CGXTabbedComboLBox@@UAEXPAUtagDRAWITEMSTRUCT@@@Z 419D:?MeasureItem@CGXTabbedComboLBox@@UAEXPAUtagMEASUREITEMSTRUCT@@@Z 425F:?CompareItem@CGXTabbedComboLBox@@UAEHPAUtagCOMPAREITEMSTRUCT@@@Z 426F:?_GetBaseMessageMap@CGXTabbedComboLBox@@KGPBUAFX_MSGMAP@@XZ 4279:?GetMessageMap@CGXTabbedComboLBox@@MBEPBUAFX_MSGMAP@@XZ (01E4: 45) (REF 04A9: ??BCGXAbstractUserAttribute@@QBEPBGXZ)
              5. 02 2CE3 3C0F 0000:?GetControlClass@CGXTabbedComboBoxWnd@@UBEPAUCGXControlClass@@XZ 0010:?_GetBaseClass@CGXTabbedComboBoxWnd@@KGPAUCRuntimeClass@@XZ 001A:?GetRuntimeClass@CGXTabbedComboBoxWnd@@UBEPAUCRuntimeClass@@XZ 002A:??0CGXTabbedComboBoxWnd@@QAE@PAVCGXGridCore@@@Z 01D0:??1CGXTabbedComboBoxWnd@@UAE@XZ 02E6:?CreateControl@CGXTabbedComboBoxWnd@@UAEHKI@Z 049F:?AddUserAttributes@CGXTabbedComboBoxWnd@@SGXPAVCGXStylesMap@@@Z 05C0:?_GetBaseMessageMap@CGXTabbedComboBoxWnd@@KGPBUAFX_MSGMAP@@XZ 05CA:?GetMessageMap@CGXTabbedComboBoxWnd@@MBEPBUAFX_MSGMAP@@XZ 05DA:?OnGridCtlColor@CGXTabbedComboBoxWnd@@UAEPAUHBRUSH__@@PAVCDC@@PAVCWnd@@I@Z 0ACF:?OnCommand@CGXTabbedComboBoxWnd@@UAEHIJ@Z 0B80:?OnShowWindow@CGXTabbedComboBoxWnd@@IAEXHI@Z 0BD4:?Hide@CGXTabbedComboBoxWnd@@UAEXXZ 0C18:?Init@CGXTabbedComboBoxWnd@@UAEXKK@Z 0EF3:?LoadLBoxEntries@CGXTabbedComboBoxWnd@@QAEXXZ 1548:?StoreStyle@CGXTabbedComboBoxWnd@@UAEHKKPBVCGXStyle@@W4GXModifyType@@H0@Z 16BF:?Draw@CGXTabbedComboBoxWnd@@UAEXPAVCDC@@VCRect@@KKABVCGXStyle@@PBV4@@Z 22D3:?SetTabStops@CGXTabbedComboBoxWnd@@QAEXH@Z 232E:?AddTabStop@CGXTabbedComboBoxWnd@@QAEXHH@Z 234D:?SetReadOnly@CGXTabbedComboBoxWnd@@QAEXH@Z 23B2:?SetModify@CGXTabbedComboBoxWnd@@UAEXH@Z 23CB:?GetModify@CGXTabbedComboBoxWnd@@UAEHXZ 23DE:?DrawItem@CGXTabbedComboBoxWnd@@UAEXPAUtagDRAWITEMSTRUCT@@@Z 2598:?MeasureItem@CGXTabbedComboBoxWnd@@UAEXPAUtagMEASUREITEMSTRUCT@@@Z 2690:?CompareItem@CGXTabbedComboBoxWnd@@UAEHPAUtagCOMPAREITEMSTRUCT@@@Z 26A0:?GetCurrentText@CGXTabbedComboBoxWnd@@UAEXAAVCString@@@Z 27B0:?SetValue@CGXTabbedComboBoxWnd@@UAEXPBD@Z 28CE:?GetValue@CGXTabbedComboBoxWnd@@UAEHAAVCString@@@Z 2AA4:?GetControlText@CGXTabbedComboBoxWnd@@UAEHAAVCString@@KKPBDABVCGXStyle@@@Z 2C5D:?ConvertControlTextToValue@CGXTabbedComboBoxWnd@@UAEHAAVCString@@KKPBVCGXStyle@@@Z 2E60:?OnValidate@CGXTabbedComboBoxWnd@@UAEHXZ 2F04:?ValidateString@CGXTabbedComboBoxWnd@@UAEHABVCString@@@Z 2FAD:?LButtonUp@CGXTabbedComboBoxWnd@@UAEHIVCPoint@@I@Z 300F:?OnClickedButton@CGXTabbedComboBoxWnd@@UAEXPAVCGXChild@@@Z 3199:?SetActiveAndDropDown@CGXTabbedComboBoxWnd@@QAEXXZ 3319:?OnKeyDown@CGXTabbedComboBoxWnd@@UAEHIII@Z 3483:?CalcSize@CGXTabbedComboBoxWnd@@UAE?AVCSize@@PAVCDC@@KKABVCGXStyle@@PBV4@H@Z 3810:??0CGXTabbedCBEditWnd@@QAE@XZ 382F:??1CGXTabbedCBEditWnd@@UAE@XZ 384B:?_GetBaseMessageMap@CGXTabbedCBEditWnd@@KGPBUAFX_MSGMAP@@XZ 3855:?GetMessageMap@CGXTabbedCBEditWnd@@MBEPBUAFX_MSGMAP@@XZ 3865:?OnKillFocus@CGXTabbedCBEditWnd@@IAEXPAVCWnd@@@Z 38F2:?OnKeyDown@CGXTabbedCBEditWnd@@IAEXIII@Z 3972:?DefWindowProcA@CGXTabbedCBEditWnd@@MAEJIIJ@Z 39F6:?OnChar@CGXTabbedCBEditWnd@@IAEXIII@Z (01E4: 00) (REF 03F2: $SG94559)
              6. 02 2CE3 3C7F 0000:?GetControlClass@CGXTabbedComboBoxWnd@@UBEPAUCGXControlClass@@XZ 0010:?_GetBaseClass@CGXTabbedComboBoxWnd@@KGPAUCRuntimeClass@@XZ 001A:?GetRuntimeClass@CGXTabbedComboBoxWnd@@UBEPAUCRuntimeClass@@XZ 002A:??0CGXTabbedComboBoxWnd@@QAE@PAVCGXGridCore@@@Z 01D0:??1CGXTabbedComboBoxWnd@@UAE@XZ 02E6:?CreateControl@CGXTabbedComboBoxWnd@@UAEHKI@Z 049F:?AddUserAttributes@CGXTabbedComboBoxWnd@@SGXPAVCGXStylesMap@@@Z 05C0:?_GetBaseMessageMap@CGXTabbedComboBoxWnd@@KGPBUAFX_MSGMAP@@XZ 05CA:?GetMessageMap@CGXTabbedComboBoxWnd@@MBEPBUAFX_MSGMAP@@XZ 05DA:?OnGridCtlColor@CGXTabbedComboBoxWnd@@UAEPAUHBRUSH__@@PAVCDC@@PAVCWnd@@I@Z 0B1E:?OnCommand@CGXTabbedComboBoxWnd@@UAEHIJ@Z 0BCF:?OnShowWindow@CGXTabbedComboBoxWnd@@IAEXHI@Z 0C23:?Hide@CGXTabbedComboBoxWnd@@UAEXXZ 0C67:?Init@CGXTabbedComboBoxWnd@@UAEXKK@Z 0F42:?LoadLBoxEntries@CGXTabbedComboBoxWnd@@QAEXXZ 159C:?StoreStyle@CGXTabbedComboBoxWnd@@UAEHKKPBVCGXStyle@@W4GXModifyType@@H0@Z 1713:?Draw@CGXTabbedComboBoxWnd@@UAEXPAVCDC@@VCRect@@KKABVCGXStyle@@PBV4@@Z 233C:?SetTabStops@CGXTabbedComboBoxWnd@@QAEXH@Z 2397:?AddTabStop@CGXTabbedComboBoxWnd@@QAEXHH@Z 23B6:?SetReadOnly@CGXTabbedComboBoxWnd@@QAEXH@Z 241B:?SetModify@CGXTabbedComboBoxWnd@@UAEXH@Z 2434:?GetModify@CGXTabbedComboBoxWnd@@UAEHXZ 2447:?DrawItem@CGXTabbedComboBoxWnd@@UAEXPAUtagDRAWITEMSTRUCT@@@Z 2601:?MeasureItem@CGXTabbedComboBoxWnd@@UAEXPAUtagMEASUREITEMSTRUCT@@@Z 26F9:?CompareItem@CGXTabbedComboBoxWnd@@UAEHPAUtagCOMPAREITEMSTRUCT@@@Z 2709:?GetCurrentText@CGXTabbedComboBoxWnd@@UAEXAAVCString@@@Z 2819:?SetValue@CGXTabbedComboBoxWnd@@UAEXPBG@Z 2937:?GetValue@CGXTabbedComboBoxWnd@@UAEHAAVCString@@@Z 2B0D:?GetControlText@CGXTabbedComboBoxWnd@@UAEHAAVCString@@KKPBGABVCGXStyle@@@Z 2CC6:?ConvertControlTextToValue@CGXTabbedComboBoxWnd@@UAEHAAVCString@@KKPBVCGXStyle@@@Z 2EC9:?OnValidate@CGXTabbedComboBoxWnd@@UAEHXZ 2F6D:?ValidateString@CGXTabbedComboBoxWnd@@UAEHABVCString@@@Z 3016:?LButtonUp@CGXTabbedComboBoxWnd@@UAEHIVCPoint@@I@Z 3078:?OnClickedButton@CGXTabbedComboBoxWnd@@UAEXPAVCGXChild@@@Z 3202:?SetActiveAndDropDown@CGXTabbedComboBoxWnd@@QAEXXZ 3382:?OnKeyDown@CGXTabbedComboBoxWnd@@UAEHIII@Z 34EC:?CalcSize@CGXTabbedComboBoxWnd@@UAE?AVCSize@@PAVCDC@@KKABVCGXStyle@@PBV4@H@Z 387A:??0CGXTabbedCBEditWnd@@QAE@XZ 3899:??1CGXTabbedCBEditWnd@@UAE@XZ 38B5:?_GetBaseMessageMap@CGXTabbedCBEditWnd@@KGPBUAFX_MSGMAP@@XZ 38BF:?GetMessageMap@CGXTabbedCBEditWnd@@MBEPBUAFX_MSGMAP@@XZ 38CF:?OnKillFocus@CGXTabbedCBEditWnd@@IAEXPAVCWnd@@@Z 395C:?OnKeyDown@CGXTabbedCBEditWnd@@IAEXIII@Z 39DC:?DefWindowProcW@CGXTabbedCBEditWnd@@MAEJIIJ@Z 3A66:?OnChar@CGXTabbedCBEditWnd@@IAEXIII@Z (01E4: 00) (REF 03F2: $SG94571)
              7. 02 2CE3 02CF 0000:?GetControlClass@CGXHotSpotEdit@@UBEPAUCGXControlClass@@XZ 0010:?_GetBaseClass@CGXHotSpotEdit@@KGPAUCRuntimeClass@@XZ 001A:?GetRuntimeClass@CGXHotSpotEdit@@UBEPAUCRuntimeClass@@XZ 002A:??0CGXHotSpotEdit@@QAE@PAVCGXGridCore@@I@Z 00FF:?Init@CGXHotSpotEdit@@UAEXKK@Z 0152:?_GetBaseMessageMap@CGXHotSpotEdit@@KGPBUAFX_MSGMAP@@XZ 015C:?GetMessageMap@CGXHotSpotEdit@@MBEPBUAFX_MSGMAP@@XZ 016C:?GetCellRect@CGXHotSpotEdit@@UAE?AVCRect@@KKPAUtagRECT@@PBVCGXStyle@@@Z 01D4:?AddBorders@CGXHotSpotEdit@@UAE?AVCSize@@V2@ABVCGXStyle@@@Z 0214:?OnInitChildren@CGXHotSpotEdit@@MAEXKKABVCRect@@@Z 02C0:?CanFloatCell@CGXHotSpotEdit@@UAEHKKABVCGXStyle@@H@Z (01E4: 89)
              8. 02 2CE3 091D 0000:?GetControlClass@CGXSpinEdit@@UBEPAUCGXControlClass@@XZ 0010:?_GetBaseClass@CGXSpinEdit@@KGPAUCRuntimeClass@@XZ 001A:?GetRuntimeClass@CGXSpinEdit@@UBEPAUCRuntimeClass@@XZ 002A:??0CGXSpinEdit@@QAE@PAVCGXGridCore@@I@Z 0172:?AddUserAttributes@CGXSpinEdit@@SGXPAVCGXStylesMap@@@Z 0267:?Init@CGXSpinEdit@@UAEXKK@Z 02F6:?_GetBaseMessageMap@CGXSpinEdit@@KGPBUAFX_MSGMAP@@XZ 0300:?GetMessageMap@CGXSpinEdit@@MBEPBUAFX_MSGMAP@@XZ 0310:?GetCellRect@CGXSpinEdit@@UAE?AVCRect@@KKPAUtagRECT@@PBVCGXStyle@@@Z 0378:?AddBorders@CGXSpinEdit@@UAE?AVCSize@@V2@ABVCGXStyle@@@Z 03B8:?OnInitChildren@CGXSpinEdit@@MAEXKKABVCRect@@@Z 049D:?LButtonDown@CGXSpinEdit@@MAEHIVCPoint@@I@Z 0678:?LButtonUp@CGXSpinEdit@@MAEHIVCPoint@@I@Z 069D:?OnClickedButton@CGXSpinEdit@@MAEXPAVCGXChild@@@Z 090E:?CanFloatCell@CGXSpinEdit@@UAEHKKABVCGXStyle@@H@Z (01E4: FF)
              9. 02 2CE3 29A1 0000:?GetControlClass@CGXComboBox@@UBEPAUCGXControlClass@@XZ 0010:?_GetBaseClass@CGXComboBox@@KGPAUCRuntimeClass@@XZ 001A:?GetRuntimeClass@CGXComboBox@@UBEPAUCRuntimeClass@@XZ 002A:?_GetBaseClass@CGXComboListBox@@KGPAUCRuntimeClass@@XZ 0034:?GetRuntimeClass@CGXComboListBox@@UBEPAUCRuntimeClass@@XZ 0044:??0CGXComboListBox@@QAE@PAVCWnd@@@Z 0096:?Create@CGXComboListBox@@QAEXKABUtagRECT@@PAVCWnd@@I@Z 00F2:??1CGXComboListBox@@UAE@XZ 010E:?_GetBaseMessageMap@CGXComboListBox@@KGPBUAFX_MSGMAP@@XZ 0118:?GetMessageMap@CGXComboListBox@@MBEPBUAFX_MSGMAP@@XZ 0128:?OnKeyDown@CGXComboListBox@@IAEXIII@Z 018E:?OnLButtonDown@CGXComboListBox@@IAEXIVCPoint@@@Z 01C7:?OnLButtonUp@CGXComboListBox@@IAEXIVCPoint@@@Z 0212:?OnEraseBkgnd@CGXComboListBox@@IAEHPAVCDC@@@Z 0296:?OnKeyUp@CGXComboListBox@@IAEXIII@Z 037C:?OnKillFocus@CGXComboListBox@@IAEXPAVCWnd@@@Z 03B2:?OnSysKeyUp@CGXComboListBox@@IAEXIII@Z 03F8:?OnSysKeyDown@CGXComboListBox@@IAEXIII@Z 0423:??0CGXComboBox@@QAE@PAVCGXGridCore@@III@Z 05DA:??1CGXComboBox@@UAE@XZ 06B0:?Init@CGXComboBox@@UAEXKK@Z 0703:?OnNotifyMsg@CGXComboBox@@UAEXPAUtagMSG@@@Z 0748:?Reset@CGXComboBox@@UAEXXZ 076F:?SetActive@CGXComboBox@@UAEXH@Z 07B8:?_GetBaseMessageMap@CGXComboBox@@KGPBUAFX_MSGMAP@@XZ 07C2:?GetMessageMap@CGXComboBox@@MBEPBUAFX_MSGMAP@@XZ 07D2:?GetCellRect@CGXComboBox@@UAE?AVCRect@@KKPAUtagRECT@@PBVCGXStyle@@@Z 086F:?AddBorders@CGXComboBox@@UAE?AVCSize@@V2@ABVCGXStyle@@@Z 08AF:?OnInitChildren@CGXComboBox@@MAEXKKABVCRect@@@Z 0BA1:?CalcSize@CGXComboBox@@UAE?AVCSize@@PAVCDC@@KKABVCGXStyle@@PBV4@H@Z 0DE9:?GetValue@CGXComboBox@@UAEHAAVCString@@@Z 0F4F:?GetControlText@CGXComboBox@@UAEHAAVCString@@KKPBGABVCGXStyle@@@Z 10B2:?ConvertControlTextToValue@CGXComboBox@@UAEHAAVCString@@KKPBVCGXStyle@@@Z 1264:?Store@CGXComboBox@@UAEHXZ 1277:?ValidateString@CGXComboBox@@UAEHABVCString@@@Z 1389:?ReplaceSel@CGXComboBox@@UAEXPBG@Z 13DC:?MouseActivate@CGXComboBox@@UAEHPAVCWnd@@IIAAH@Z 143B:?OnGridSysKeyDown@CGXComboBox@@UAEHIII@Z 14F2:?OnGridChar@CGXComboBox@@UAEHIII@Z 15D6:?OnSysKeyDown@CGXComboBox@@IAEXIII@Z 1666:?OnClickedButton@CGXComboBox@@MAEXPAVCGXChild@@@Z 16F3:?GetDroppedState@CGXComboBox@@UAEHXZ 170F:?ShowDropDown@CGXComboBox@@UAEXH@Z 1E1A:?OnGetListboxRect@CGXComboBox@@MAE?AVCRect@@ABV2@@Z 1E83:?CreateDropDown@CGXComboBox@@UAEPAVCGXGridCombo@@PAVCWnd@@ABVCRect@@@Z 1F02:?CreateListBox@CGXComboBox@@UAEPAVCWnd@@PAV2@I@Z 1FDC:?OnFillDroppedList@CGXComboBox@@MAEXPAVCListBox@@@Z 21F7:?OnStoreDroppedList@CGXComboBox@@MAEXPAVCListBox@@@Z 2345:?OnListBoxEnd@CGXComboBox@@IAEJIJ@Z 24A9:?DestroyDropDownWnd@CGXComboBox@@MAEXPAVCWnd@@@Z 2502:?OnListBoxCancel@CGXComboBox@@IAEJIJ@Z 2651:?OnListBoxChanged@CGXComboBox@@IAEJIJ@Z 26A2:?OnListBoxKillFocus@CGXComboBox@@IAEJIJ@Z 2751:?OnSetFocus@CGXComboBox@@IAEXPAVCWnd@@@Z 278D:?Draw@CGXComboBox@@UAEXPAVCDC@@VCRect@@KKABVCGXStyle@@PBV4@@Z 2992:?CanFloatCell@CGXComboBox@@UAEHKKABVCGXStyle@@H@Z (01E4: 48)
              10. 02 2CE3 2935 0000:?GetControlClass@CGXComboBox@@UBEPAUCGXControlClass@@XZ 0010:?_GetBaseClass@CGXComboBox@@KGPAUCRuntimeClass@@XZ 001A:?GetRuntimeClass@CGXComboBox@@UBEPAUCRuntimeClass@@XZ 002A:?_GetBaseClass@CGXComboListBox@@KGPAUCRuntimeClass@@XZ 0034:?GetRuntimeClass@CGXComboListBox@@UBEPAUCRuntimeClass@@XZ 0044:??0CGXComboListBox@@QAE@PAVCWnd@@@Z 0096:?Create@CGXComboListBox@@QAEXKABUtagRECT@@PAVCWnd@@I@Z 00F2:??1CGXComboListBox@@UAE@XZ 010E:?_GetBaseMessageMap@CGXComboListBox@@KGPBUAFX_MSGMAP@@XZ 0118:?GetMessageMap@CGXComboListBox@@MBEPBUAFX_MSGMAP@@XZ 0128:?OnKeyDown@CGXComboListBox@@IAEXIII@Z 0193:?OnLButtonDown@CGXComboListBox@@IAEXIVCPoint@@@Z 01CC:?OnLButtonUp@CGXComboListBox@@IAEXIVCPoint@@@Z 0217:?OnEraseBkgnd@CGXComboListBox@@IAEHPAVCDC@@@Z 029B:?OnKeyUp@CGXComboListBox@@IAEXIII@Z 0381:?OnKillFocus@CGXComboListBox@@IAEXPAVCWnd@@@Z 03B7:?OnSysKeyUp@CGXComboListBox@@IAEXIII@Z 03FD:?OnSysKeyDown@CGXComboListBox@@IAEXIII@Z 0428:??0CGXComboBox@@QAE@PAVCGXGridCore@@III@Z 05DF:??1CGXComboBox@@UAE@XZ 06B5:?Init@CGXComboBox@@UAEXKK@Z 0708:?OnNotifyMsg@CGXComboBox@@UAEXPAUtagMSG@@@Z 074D:?Reset@CGXComboBox@@UAEXXZ 0774:?SetActive@CGXComboBox@@UAEXH@Z 07BD:?_GetBaseMessageMap@CGXComboBox@@KGPBUAFX_MSGMAP@@XZ 07C7:?GetMessageMap@CGXComboBox@@MBEPBUAFX_MSGMAP@@XZ 07D7:?GetCellRect@CGXComboBox@@UAE?AVCRect@@KKPAUtagRECT@@PBVCGXStyle@@@Z 0874:?AddBorders@CGXComboBox@@UAE?AVCSize@@V2@ABVCGXStyle@@@Z 08B4:?OnInitChildren@CGXComboBox@@MAEXKKABVCRect@@@Z 0B9D:?CalcSize@CGXComboBox@@UAE?AVCSize@@PAVCDC@@KKABVCGXStyle@@PBV4@H@Z 0DE2:?GetValue@CGXComboBox@@UAEHAAVCString@@@Z 0F48:?GetControlText@CGXComboBox@@UAEHAAVCString@@KKPBDABVCGXStyle@@@Z 10AA:?ConvertControlTextToValue@CGXComboBox@@UAEHAAVCString@@KKPBVCGXStyle@@@Z 125C:?Store@CGXComboBox@@UAEHXZ 126F:?ValidateString@CGXComboBox@@UAEHABVCString@@@Z 1381:?ReplaceSel@CGXComboBox@@UAEXPBD@Z 13D4:?MouseActivate@CGXComboBox@@UAEHPAVCWnd@@IIAAH@Z 1433:?OnGridSysKeyDown@CGXComboBox@@UAEHIII@Z 14EA:?OnGridChar@CGXComboBox@@UAEHIII@Z 15CD:?OnSysKeyDown@CGXComboBox@@IAEXIII@Z 165D:?OnClickedButton@CGXComboBox@@MAEXPAVCGXChild@@@Z 16EA:?GetDroppedState@CGXComboBox@@UAEHXZ 1706:?ShowDropDown@CGXComboBox@@UAEXH@Z 1DAE:?OnGetListboxRect@CGXComboBox@@MAE?AVCRect@@ABV2@@Z 1E17:?CreateDropDown@CGXComboBox@@UAEPAVCGXGridCombo@@PAVCWnd@@ABVCRect@@@Z 1E96:?CreateListBox@CGXComboBox@@UAEPAVCWnd@@PAV2@I@Z 1F70:?OnFillDroppedList@CGXComboBox@@MAEXPAVCListBox@@@Z 218B:?OnStoreDroppedList@CGXComboBox@@MAEXPAVCListBox@@@Z 22D9:?OnListBoxEnd@CGXComboBox@@IAEJIJ@Z 243D:?DestroyDropDownWnd@CGXComboBox@@MAEXPAVCWnd@@@Z 2496:?OnListBoxCancel@CGXComboBox@@IAEJIJ@Z 25E5:?OnListBoxChanged@CGXComboBox@@IAEJIJ@Z 2636:?OnListBoxKillFocus@CGXComboBox@@IAEJIJ@Z 26E5:?OnSetFocus@CGXComboBox@@IAEXPAVCWnd@@@Z 2721:?Draw@CGXComboBox@@UAEXPAVCDC@@VCRect@@KKABVCGXStyle@@PBV4@@Z 2926:?CanFloatCell@CGXComboBox@@UAEHKKABVCGXStyle@@H@Z (01E4: 8B)
              11. 02 2CE3 0C6A 0000:?GetControlClass@CGXCheckListComboBox@@UBEPAUCGXControlClass@@XZ 0010:?_GetBaseClass@CGXCheckListComboBox@@KGPAUCRuntimeClass@@XZ 001A:?GetRuntimeClass@CGXCheckListComboBox@@UBEPAUCRuntimeClass@@XZ 002A:?_GetBaseClass@CGXCheckListComboLBox@@KGPAUCRuntimeClass@@XZ 0034:?GetRuntimeClass@CGXCheckListComboLBox@@UBEPAUCRuntimeClass@@XZ 0044:??0CGXCheckListComboLBox@@QAE@PAVCWnd@@@Z 008C:?Create@CGXCheckListComboLBox@@QAEXKABUtagRECT@@PAVCWnd@@I@Z 00DE:??1CGXCheckListComboLBox@@UAE@XZ 00FA:?_GetBaseMessageMap@CGXCheckListComboLBox@@KGPBUAFX_MSGMAP@@XZ 0104:?GetMessageMap@CGXCheckListComboLBox@@MBEPBUAFX_MSGMAP@@XZ 0114:?OnKeyDown@CGXCheckListComboLBox@@IAEXIII@Z 0161:?OnLButtonDown@CGXCheckListComboLBox@@IAEXIVCPoint@@@Z 019A:?OnLButtonUp@CGXCheckListComboLBox@@IAEXIVCPoint@@@Z 01C5:?OnEraseBkgnd@CGXCheckListComboLBox@@IAEHPAVCDC@@@Z 0249:?OnProcessChar@CGXCheckListComboBox@@UAEHIII@Z 0266:?CalcEditStyle@CGXCheckListComboBox@@UAEKPAUtagRECT@@AAH@Z 028E:?OnKeyUp@CGXCheckListComboLBox@@IAEXIII@Z 033C:?OnKillFocus@CGXCheckListComboLBox@@IAEXPAVCWnd@@@Z 0372:?OnSysKeyUp@CGXCheckListComboLBox@@IAEXIII@Z 03B8:?OnSysKeyDown@CGXCheckListComboLBox@@IAEXIII@Z 03E3:??0CGXCheckListComboBox@@QAE@PAVCGXGridCore@@II@Z 041C:??1CGXCheckListComboBox@@UAE@XZ 0442:?_GetBaseMessageMap@CGXCheckListComboBox@@KGPBUAFX_MSGMAP@@XZ 044C:?GetMessageMap@CGXCheckListComboBox@@MBEPBUAFX_MSGMAP@@XZ 045C:?GetControlText@CGXCheckListComboBox@@UAEHAAVCString@@KKPBGABVCGXStyle@@@Z 04E3:?CreateListBox@CGXCheckListComboBox@@UAEPAVCWnd@@PAV2@I@Z 05BD:?OnFillDroppedList@CGXCheckListComboBox@@UAEXPAVCListBox@@@Z 0776:?OnStoreDroppedList@CGXCheckListComboBox@@UAEXPAVCListBox@@@Z 0945:?OnListBoxEnd@CGXCheckListComboBox@@IAEJIJ@Z 0A82:?OnListBoxCancel@CGXCheckListComboBox@@IAEJIJ@Z 0A9F:?OnListBoxChanged@CGXCheckListComboBox@@IAEJIJ@Z 0AAE:?OnListBoxKillFocus@CGXCheckListComboBox@@IAEJIJ@Z 0B02:?KeyPressed@CGXCheckListComboBox@@UAEHIIII@Z 0B34:?OnSetFocus@CGXCheckListComboBox@@IAEXPAVCWnd@@@Z 0B5C:?Draw@CGXCheckListComboBox@@UAEXPAVCDC@@VCRect@@KKABVCGXStyle@@PBV4@@Z 0C38:?LButtonUp@CGXCheckListComboBox@@UAEHIVCPoint@@I@Z 0C5D:?SetActive@CGXCheckListComboBox@@UAEXH@Z (01E4: E8)
