0F:
  B7:
    41:
      5C0FB7495AC1E0100BC1C3:
        0. 00 0000 000E 0000:?GetBorders@SECDropEdit@@QBEKXZ
      600FB7495EC1E0100BC1C3:
        0. 00 0000 000E 0000:?GetBorders@SECDropEdit@@QBEKXZ
    4424:
      04:
        50E8........C20400:
          0. 00 0000 000E 0000:?AddToolBarResource@SECBmpMenuPlugIn@@QAEHI@Z (REF 0007: ?AddToolBarResource@SECBmpMenuPlugIn@@QAEHPBD@Z)
          1. 00 0000 000E 0000:?SetBitmap@SECDropEdit@@QAEHI@Z (REF 0007: ?SetBitmap@SECDropEdit@@QAEHPBD@Z)
          2. 00 0000 000E 0000:?LoadToolBar@SECCustomToolBar@@QAEHI@Z (REF 0007: ?LoadToolBar@SECCustomToolBar@@QAEHPBD@Z)
        56506A:
          028BF150E8........50FF15........508BCEE8:
            0. 04 C85F 0024 0000:?LoadBitmapW@CBitmap@@QAEHI@Z (REF 000D: ?AfxFindResourceHandle@@YGPAUHINSTANCE__@@PBG0@Z)
            1. 04 C85F 0024 0000:?LoadBitmapA@CBitmap@@QAEHI@Z (REF 000D: ?AfxFindResourceHandle@@YGPAUHINSTANCE__@@PBD0@Z)
          048BF150E8........50FF15........508BCEE8:
            0. 04 C85F 0024 0000:?LoadMenuW@CMenu@@QAEHI@Z (REF 000D: ?AfxFindResourceHandle@@YGPAUHINSTANCE__@@PBG0@Z)
            1. 04 C85F 0024 0000:?LoadMenuA@CMenu@@QAEHI@Z (REF 000D: ?AfxFindResourceHandle@@YGPAUHINSTANCE__@@PBD0@Z)
        FF74240850E8........C20800:
          0. 00 0000 0012 0000:?SetBitmap@SECBitmapDialog@@QAEHIH@Z
      08:
        500FB744240850E8........C20800:
          0. 00 0000 0014 0000:?AddToolBarResource@SECToolBarManager@@QAEHII@Z (REF 000D: ?AddToolBarResource@SECToolBarManager@@QAEHPBD0@Z)
          1. 00 0000 0014 0000:?LoadToolBarResource@SECToolBarManager@@QAEHII@Z (REF 000D: ?LoadToolBarResource@SECToolBarManager@@QAEHPBD0@Z)
        FF74240C50FF74240CE8........83C40CC3:
          0. 00 0000 0017 0000:?ShowContextMenu@SECTrayIcon@@SAXPAVCWnd@@II@Z
      0C500FB744240C50:
        E8........5959C20C00:
          0. 00 0000 0016 0000:?zcalloc@SECComp@@QAEPAXPAXGG@Z
        FF15........5959C20C00:
          0. 00 0000 0017 0000:?zcalloc@SECComp@@QAEPAXPAXGG@Z
    4C240433C083E923741883E903741383E919740E4949740A83E90B740583:
      0. 0A 78B1 002A 0000:?IsMaskChar@SECMaskEdit@@MAEHG@Z
    5424048B0152FF50:
      20C20400:
        0. 00 0000 000E 0000:?SetIcon@SECTrayIcon@@UAEXI@Z
      28C20400:
        0. 00 0000 000E 0000:?SetIcon@SECTrayIcon@@UAEXI@Z
    918A00000033C0:
      4A4A75146683B98600000008B8........7405B8:
        0. 00 0000 0024 0000:?SECpickTileSeparateCase@SECTiff@@IAEP81@AEXPAE0000KKHH@Z0@Z (0002: 04)
        1. 00 0000 0024 0000:?geti_pickTileSeparateCase@SECTiff@@IAEP81@AEXPAKPAE111KKJJ@ZPAUtiff@@1@Z (0002: 08)
      85D20F8C:
        A700000083FA017E7283FA02745583FA03741E:
          0. 18 0A71 00BB 0000:?SECpickTileContigCase@SECTiff@@IAEP81@AEXPAE00KKHH@Z0@Z
        C800000083FA010F8E8F00000083FA02747283:
          0. 21 6749 00DC 0000:?geti_pickTileContigCase@SECTiff@@IAEP81@AEXPAKPAE1KKJJ@ZPAUtiff@@1@Z
  BE4C240433C083E923741883E903741383E919740E4949740A83E90B740583:
    0. 0A 78B1 002A 0000:?IsMaskChar@SECMaskEdit@@MAEHD@Z
  BF4424:
    04506A026A:
      0751E8........83C410C20400:
        0. 00 0000 0016 0000:?SetWeight@SECAOleFont@@QAEXF@Z
      0851E8........83C410C20400:
        0. 00 0000 0016 0000:?SetCharset@SECAOleFont@@QAEXF@Z
    0C50FF74240CFF74240CFF15........C3:
      0. 00 0000 0015 (l)0000:?_tiffSeekProc@@YAJHJF@Z
33:
  C0:
    39:
      41:
        040F95C0C21800:
          0. 00 0000 000B 0000:?Draw@SECADib@@QAEHAAVCDC@@PBVCRect@@1HPAVCPalette@@H@Z
        180F94C0F6411401740380CC02508B44240883C1046A0351FF7004FF:
          0. 01 54B7 0028 0000:?Draw@ScrollButton@SECShortcutListCtrl@@UAEXPAVCDC@@@Z
        1C74198B54240433542408F6C60F740C6A335050505050E8:
          0. 03 2EB7 0023 0000:?OnBarStyleChange@SECStatusBar@@UAEXKK@Z
        20:
          0F95C0C3:
            0. 00 0000 0009 0000:?IsRegistered@COleObjectFactory@@UBEHXZ
          74198B54240433542408F6C60F740C6A335050505050E8:
            0. 03 2EB7 0023 0000:?OnBarStyleChange@SECStatusBar@@UAEXKK@Z
        240F95C0C3:
          0. 00 0000 0009 0000:?IsRegistered@COleObjectFactory@@UBEHXZ
        740F94C0894174C3:
          0. 00 0000 000C 0000:?ToggleOverstrikeMode@SECCurrencyEdit@@UAEXXZ
        780F94C0894178C3:
          0. 00 0000 000C 0000:?ToggleOverstrikeMode@SECCurrencyEdit@@UAEXXZ
      4424:
        04:
          0F95C0:
            8941:
              6C33C0C20800:
                0. 00 0000 0011 0000:?OnSetRedraw@SECCurrencyEdit@@QAEJIJ@Z
              7033C0C20800:
                0. 00 0000 0011 0000:?OnSetRedraw@SECCurrencyEdit@@QAEJIJ@Z
            C20400:
              0. 00 0000 000C 0000:?LoadState@SECControlBarManager@@UAEHPAVSECPersistentTreeNode@@@Z
          74:
            1139442408740B3944240C74056A0158EB0233C0C20C00:
              0. 00 0000 001E 0000:?OpenAdditionalViewPerFrame@SECWorkspaceManagerEx@@MAEHPBVCDocument@@PBVCFrameWnd@@PBVSECPersistentTreeNode@@@Z
            225068........68........50FF742414E8........8B1083:
              0. 0D B607 002D 0000:?GetChildTargetHeadNode@SECQueryChildTargetInfo@@MAEPAVSECLayoutNode@@PAV2@@Z
              1. 0D C068 002D 0000:?GetChildTargetChildCount@SECQueryChildTargetInfo@@MAEHPAVSECLayoutNode@@@Z
        080F:
          94C050FF742408E8........C20800:
            0. 00 0000 0016 0000:?InitializeLine@SECLNDynamicGrid2d@@UAEXPAUHWND__@@H@Z
          95C0C20800:
            0. 00 0000 000C 0000:?SaveState@SECControlBarManager@@UAEHAAVSECPTNFactory@@PAVSECPersistentTreeNode@@@Z
      81:
        180100000F95C0C3:
          0. 00 0000 000C 0000:?HasMenuBar@SECMDIFrameWnd@@QAEHXZ
        1C0100000F95C0C3:
          0. 00 0000 000C 0000:?HasMenuBar@SECMDIFrameWnd@@QAEHXZ
        2001000074248B4424048981B40000008B4424088981BC0000008B44:
          0. 29 12D0 0049 0000:?UpdateBorderSizes@SECLayoutNodeBorderSpace@@MAEXIIII@Z
        300200007405B800020000C20400:
          0. 00 0000 0012 0000:?GetGripperCloseState@SECLayoutNodeGripperEx@@MAEIW4BorderOrientation@SECLayoutNodeBorderSpace@@@Z
        340200007405B800020000C20400:
          0. 00 0000 0012 0000:?GetGripperCloseState@SECLayoutNodeGripperEx@@MAEIW4BorderOrientation@SECLayoutNodeBorderSpace@@@Z
        480100000F95C0C3:
          0. 00 0000 000C 0000:?IsStoringSubItemText@SECTreeBaseC@@UBEHXZ
        4C0100000F95C0C3:
          0. 00 0000 000C 0000:?IsStoringSubItemText@SECTreeBaseC@@UBEHXZ
        840100000F95C0C3:
          0. 00 0000 000C 0000:?IsStoringSubItemText@SECTreeBaseV@@UBEHXZ
        880100000F95C0C3:
          0. 00 0000 000C 0000:?IsStoringSubItemText@SECTreeBaseV@@UBEHXZ
        A00100000F94C050E8........C3:
          0. 00 0000 0012 0000:?OnViewWorkbook@SECWorkbook@@IAEXXZ
        A40100000F94C050E8........C3:
          0. 00 0000 0012 0000:?OnViewWorkbook@SECWorkbook@@IAEXXZ (REF 000D: ?SetWorkbookMode@SECWorkbook@@QAEXH@Z)
          1. 00 0000 0012 0000:?OnOptionsToggleIcons@SECWorkbook@@IAEXXZ (REF 000D: ?SetShowIcons@SECWorkbook@@QAEXH@Z)
        A80100000F94C050E8........C3:
          0. 00 0000 0012 0000:?OnOptionsToggleIcons@SECWorkbook@@IAEXXZ
        C40000000F95C0C3:
          0. 00 0000 000C 0000:?IsNodeAttached@SECLayoutNodeWnd@@UAEHXZ
        F40000000F95C0C3:
          0. 00 0000 000C 0000:?HasMenuBar@SECFrameWnd@@QAEHXZ
        F80000000F95C0C3:
          0. 00 0000 000C 0000:?HasMenuBar@SECFrameWnd@@QAEHXZ
    56394424:
      088BF10F94C050E8........8BCEE8........5EC20800:
        0. 00 0000 001D 0000:?OnShowWindow@SECCustomToolBar@@IAEXHI@Z
      0C8BF17409FF74240CE8........FF7424108BCE50FF742410E8:
        0. 00 0000 0028 0000:?DockControlBar@SECMDIFrameWnd@@QAEXPAVCControlBar@@IPBUtagRECT@@@Z (REF 0020: ?DockControlBar@SECMDIFrameWnd@@QAEXPAVCControlBar@@PAVCDockBar@@PBUtagRECT@@@Z)
        1. 00 0000 0028 0000:?DockControlBar@SECFrameWnd@@QAEXPAVCControlBar@@IPBUtagRECT@@@Z (REF 0020: ?DockControlBar@SECFrameWnd@@QAEXPAVCControlBar@@PAVCDockBar@@PBUtagRECT@@@Z)
    8379:
      40FF0F95C0C3:
        0. 00 0000 000A 0000:?HasActiveBar@SECShortcutBar@@QBEHXZ
      44FF0F95C0C3:
        0. 00 0000 000A 0000:?HasActiveBar@SECShortcutBar@@QBEHXZ
    89413889413489413089412CC3:
      0. 00 0000 000F 0000:?ClearInsets@SECGridBagConstraints@@QAEXXZ
    8B:
      1150:
        505050FF742418FF7424186A01FF92:
          04020000C20800:
            0. 00 0000 001B 0000:?InsertItem@SECListBaseC@@UAEHHPBG@Z
          0C020000C20800:
            0. 00 0000 001B 0000:?InsertItem@SECListBaseC@@UAEHHPBG@Z
          54020000C20800:
            0. 00 0000 001B 0000:?InsertItem@SECListBaseV@@UAEHHPBG@Z
          5C020000C20800:
            0. 00 0000 001B 0000:?InsertItem@SECListBaseV@@UAEHHPBG@Z
        FF7424105050FF742418FF7424186A03FF92:
          04020000C20C00:
            0. 00 0000 001E 0000:?InsertItem@SECListBaseC@@UAEHHPBGH@Z
          0C020000C20C00:
            0. 00 0000 001E 0000:?InsertItem@SECListBaseC@@UAEHHPBGH@Z
          54020000C20C00:
            0. 00 0000 001E 0000:?InsertItem@SECListBaseV@@UAEHHPBGH@Z
          5C020000C20C00:
            0. 00 0000 001E 0000:?InsertItem@SECListBaseV@@UAEHHPBGH@Z
      4C2404D16C240483E1010BC1D1E0FF4C2408837C2408007FE6D1E8C208:
        0. 01 78F0 0021 0000:?bi_reverse@SECComp@@QAEIIH@Z
    C2:
      0400:
        0. 00 0000 0005 0000:?SaveState@SECControlBarInfoEx@@UAEHPBG@Z
      0800:
        0. 00 0000 0005 (!)0000:?
      0C00:
        0. 00 0000 0005 (!)0000:?
      1000:
        0. 00 0000 0005 (!)0000:?
  D2:
    33C0:
      39911C01000074036A01583991200100007401403991240100007401:
        0. 0B 9B4B 002B 0000:?GetSplitterCount@SECLNSizable@@IAEHXZ
      837C2404027414837C240403740D3991:
        2802000075126A0158EB0D8B:
          0. 25 D83F 0045 0000:?GetGripperExpandState@SECLayoutNodeGripperEx@@MAEIW4BorderOrientation@SECLayoutNodeBorderSpace@@@Z
        2C02000075126A0158EB0D8B:
          0. 25 4E14 0045 0000:?GetGripperExpandState@SECLayoutNodeGripperEx@@MAEIW4BorderOrientation@SECLayoutNodeBorderSpace@@@Z
    3991DC000000750433C0EB2C3954240474088B81D8000000EB068B81D400:
      0. 07 B59E 003D 0000:?GetHeadOrTailChildLine@SECLNDynamicGrid2d@@MAEPAVSECLNDynamicGridLine@@H@Z
    56395424088BF1750583C8FFEB:
      4B8B8684000000535733FF488BCA78293B:
        0. 24 5D33 005F 0000:?InsertAsFirstRow@SECDockBar@@MAEHPAVCControlBar@@@Z
      518B8688000000535733FF488BCA782C3B:
        0. 27 E03B 0065 0000:?InsertAsFirstRow@SECDockBar@@MAEHPAVCControlBar@@@Z
    66395154750680495204EB04806152FB806152FC663951568B415074080D:
      0. 15 5E6C 0035 0000:?GetWindowStyle@SECAContainerProps@@QAEKXZ
51:
  0FB781880000000FAF44241C53558B6C2418894424248B44242056894C240C:
    0. FF E3F4 0785 0000:?geti_putRGBcontig8bitCMYKtile@SECTiff@@IAEXPAKPAE1KKJJ@Z
  51:
    53568BD9E8........8BF08BCEE8........A808746A55578B3D:
      0. 65 4CE1 00AB 0000:?DoDelete@SECListBoxEditor@@UAEHXZ
      1. 65 B31E 00AB 0000:?DoDelete@SECListBoxEditor@@UAEHXZ
    568BF1F646:
      4008740F6AFFFF15........33C0E9D80000005355578B7C24:
        0. 13 FF3C 00F8 0000:?HandleDigit@SECCalculator@@IAEHW4SECCalcOp@1@@Z
      4408740F6AFFFF15........33C0E9D90000005355578B7C24:
        0. 13 FF3C 00F9 0000:?HandleDigit@SECCalculator@@IAEHW4SECCalcOp@1@@Z
  5355:
    56:
      33ED578B3D........558BF15568:
        88010000FF:
          7678FFD78BD883FBFF:
            0. 64 2976 0097 0000:?OnMoveUp@SECUserToolsDlg@@IAEXXZ
          B680000000FFD78BD8:
            0. 80 06DA 00B3 0000:?OnMoveUp@SECUserToolsDlg@@IAEXXZ
        8B010000FF76:
          1C896C2420FFD78B:
            0. 82 A633 00A2 0000:?SetColor@SECColorsListBox@@QAEHHPBGK@Z (REF 0009: SendMessageW)
            1. 82 A633 00A2 0000:?SetColor@SECColorsListBox@@QAEHHPBDK@Z (REF 0009: SendMessageA)
          20896C2420FFD78B:
            0. 82 C648 00A2 0000:?SetColor@SECColorsListBox@@QAEHHPBGK@Z (REF 0009: SendMessageW)
            1. 82 C648 00A2 0000:?SetColor@SECColorsListBox@@QAEHHPBDK@Z (REF 0009: SendMessageA)
      57:
        33EDBF........555768........5551E8........BB........55:
          0. 07 F835 0066 0000:?LocateDockInitiatorParent@SECDefDockNodeBase@@UAEPAVISECDockInitiator@@XZ
        8B:
          3D........68........FF74241C33F689742418FFD78B6C2424:
            0. 0A 776E 00BA (l)0000:?JPEGPrintCTable@@YAXPAU_iobuf@@PAE@Z
          F1:
            68DCAA0000E8........8B1D........33ED39AE:
              900000008B:
                0. 4E D85A 006E 0000:?PopulateEventsCombo@SECAEventBar@@MAEXXZ
              940000008B:
                0. 4E 3CED 006E 0000:?PopulateEventsCombo@SECAEventBar@@MAEXXZ
            6A0DFF15........8B1D........8DBE:
              78150000576A:
                3C5089:
                  0. 07 8645 00FE 0000:?InitFonts@SECCalendar@@IAEXXZ
                5C5089:
                  0. 07 8645 00FE 0000:?InitFonts@SECCalendar@@IAEXXZ
              8C150000576A:
                3C5089:
                  0. 07 8645 00FE 0000:?InitFonts@SECCalendar@@IAEXXZ
                5C5089:
                  0. 07 8645 00FB 0000:?InitFonts@SECCalendar@@IAEXXZ
      8B:
        742414:
          33:
            DB578B3D........53536A0BFF76:
              1C895C2420FFD75353:
                0. 59 8A51 0089 0000:?ReplaceListBoxItem@SECWSLBEditorEx@@IAEHPAVCListBox@@HVCString@@@Z
              20895C2420FFD75353:
                0. 59 F4F4 0089 0000:?ReplaceListBoxItem@SECWSLBEditorEx@@IAEHPAVCListBox@@HVCString@@@Z
            ED578B3D........55556A0BFF76:
              1C896C2420FFD75555:
                0. 45 82B1 00A5 (l)0000:?ReplaceListBoxItem@@YAHPAVCListBox@@HPBDK@Z (REF 000D: SendMessageA)
                1. 45 82B1 00A5 (l)0000:?ReplaceListBoxItem@@YAHPAVCListBox@@HPBGK@Z (REF 000D: SendMessageW)
              20896C2420FFD75555:
                0. 45 DB82 00A5 (l)0000:?ReplaceListBoxItem@@YAHPAVCListBox@@HPBDK@Z (REF 000D: SendMessageA)
                1. 45 DB82 00A5 (l)0000:?ReplaceListBoxItem@@YAHPAVCListBox@@HPBGK@Z (REF 000D: SendMessageW)
          57894C24108B7E1C85F60F84D1010000833E000F84C80100:
            0. 14 4634 0218 0000:?inflate@SECComp@@QAEHPAUz_stream_s@@H@Z
        F18B4C241457BF800000008D5E788B0133ED5753896C2418FF50:
          34:
            0. A0 FACE 022D 0000:?DoLoadImage@SECPcx@@MAEHPAVCFile@@@Z
          3C:
            0. A0 FACE 022D 0000:?DoLoadImage@SECPcx@@MAEHPAVCFile@@@Z
    8B6C2414568B742414578B3D........FF761068........55FFD783C4:
      0. 02 BFAD 0BE4 0000:?TIFFPrintDirectory@SECTiff@@QAEXPAUtiff@@PAU_iobuf@@J@Z
  5533ED396C2414568BF1896C24087408C744240804000000396C241C740583:
    0. 1C 0DB2 00A6 0000:?OnEndKeyPressed@SECListBaseV@@MAEXHHHHII@Z
    1. 1C 4D2C 00A6 0000:?OnEndKeyPressed@SECListBaseC@@MAEXHHHHII@Z
    2. 1C 5333 00A6 0000:?OnEndKeyPressed@SECListBaseC@@MAEXHHHHII@Z
    3. 1C D83E 00A6 0000:?OnEndKeyPressed@SECListBaseV@@MAEXHHHHII@Z
  568BF1:
    518D46:
      548BCC8964240850E8........8B068BCEFF90D40000005E59:
        0. 01 EF04 0021 0000:?SaveWorkspace@SECWorkspaceManagerEx@@UAEHXZ
      588BCC8964240850E8........8B068BCEFF90DC0000005E59:
        0. 01 EF04 0021 0000:?SaveWorkspace@SECWorkspaceManagerEx@@UAEHXZ
    578DBE:
      8C0000008BCFE8........C1E81C83E0016A006A0089442410:
        0. 09 611F 004B 0000:?OnViewLayoutBar@SECScriptHostView@@IAEXXZ
      900000008BCFE8........C1E81C83E0016A006A0089442410:
        0. 09 611F 004B 0000:?OnViewLayoutBar@SECScriptHostView@@IAEXXZ
    8B06FF90:
      280100008BC8E8........C1E81C6A0083E0015989442404:
        0. 11 5355 0031 0000:?OnViewToolbox@SECScriptHostView@@IAEXXZ
      300100008BC8E8........C1E81C6A0083E0015989442404:
        0. 11 BF8B 0031 0000:?OnViewToolbox@SECScriptHostView@@IAEXXZ
    8D46:
      4050518D463C8BCC8964240C50E8........8B068BCEFF90F000:
        0. 05 F7AC 0025 0000:?UpdateDisplayStr@SECMaskEdit@@MAEXXZ
      4450518D46408BCC8964240C50E8........8B068BCEFF90F800:
        0. 05 F7AC 0025 0000:?UpdateDisplayStr@SECMaskEdit@@MAEXXZ
  8B49:
    1C6A00FF74240CE8........C20400:
      0. 00 0000 0012 0000:?Invalidate@SECACtrlItem@@QAEXPAVCView@@@Z
    206A00FF74240CE8........C20400:
      0. 00 0000 0012 0000:?Invalidate@SECACtrlItem@@QAEXPAVCView@@@Z
    24E8........8D4C2400518BC8E8........59C3:
      0. 00 0000 0017 0000:?GetMDIChild@SECCapMenuBtn@@QBEPAVCMDIChildWnd@@XZ
  FF15........C3:
    0. 00 0000 0008 0000:??1COleVariant@@QAE@XZ (REF 0003: VariantClear)
53:
  33DB395C240856578BF9740BFF742410E8........EB068B87:
    4C0100008B10:
      0. 21 91A6 0058 0000:?GetChildCount@SECTreeBaseC@@QAEIPAU_TREEITEM@@H@Z
    500100008B10:
      0. 21 91A6 0058 0000:?GetChildCount@SECTreeBaseC@@QAEIPAU_TREEITEM@@H@Z
    880100008B10:
      0. 21 91A6 0058 0000:?GetChildCount@SECTreeBaseV@@QAEIPAU_TREEITEM@@H@Z
    8C0100008B10:
      0. 21 91A6 0058 0000:?GetChildCount@SECTreeBaseV@@QAEIPAU_TREEITEM@@H@Z
  55:
    33DB33ED395C2414568BF174036A045D395C241C740383CD088B068BCEFF:
      0. 13 003D 008B 0000:?OnHomeKeyPressed@SECListBaseC@@MAEXHHHHII@Z
      1. 13 1E22 008B 0000:?OnHomeKeyPressed@SECListBaseC@@MAEXHHHHII@Z
      2. 13 5EBC 008B 0000:?OnHomeKeyPressed@SECListBaseV@@MAEXHHHHII@Z
      3. 13 8B30 008B 0000:?OnHomeKeyPressed@SECListBaseV@@MAEXHHHHII@Z
    56:
      33:
        DB578B3D........538BF153688B010000FF:
          76:
            3CFFD78BE883C8FF3B:
              0. 2D C2CA 004D 0000:?FindIndex@SECToolBarsBase@@IAEHI@Z
            40FFD78BE883C8FF3B:
              0. 2D E835 004D 0000:?FindIndex@SECToolBarsBase@@IAEHI@Z
            78FFD78BE885ED7E1F:
              0. 22 EF0F 004B 0000:?OnCancel@SECUserToolsDlg@@MAEXXZ
          B680000000FFD78BE885:
            0. 28 34B3 0051 0000:?OnCancel@SECUserToolsDlg@@MAEXXZ
        ED578B3D........558BF15568:
          88010000FF:
            7678FFD78BD883FBFF74:
              0. 52 59E4 0084 0000:?OnRemove@SECUserToolsDlg@@IAEXXZ
              1. 71 8964 00A3 0000:?OnMoveDown@SECUserToolsDlg@@IAEXXZ
            B680000000FFD78BD883:
              0. 90 3C08 00C2 0000:?OnMoveDown@SECUserToolsDlg@@IAEXXZ
              1. 61 EBB9 0093 0000:?OnRemove@SECUserToolsDlg@@IAEXXZ
          8B010000FF:
            7678FFD7555568880100:
              0. 25 DE7A 0045 0000:?OnUpdateMoveDown@SECUserToolsDlg@@IAEXPAVCCmdUI@@@Z
            B680000000FFD7555568:
              0. 2B DE73 004B 0000:?OnUpdateMoveDown@SECUserToolsDlg@@IAEXPAVCCmdUI@@@Z
      57:
        33:
          DB8BF933C0395C24148BB7:
            4C0100000F95C04E8BE87819538BCFE8:
              0. 00 0000 003C 0000:?SetVisibleAllRegWnd@SECCustomStatusBar@@MAEXH@Z
            500100000F95C04E8BE87819538BCFE8:
              0. 00 0000 003C 0000:?SetVisibleAllRegWnd@SECCustomStatusBar@@MAEXH@Z
          FF:
            33DB813D........470004008BF17C17E8........5768008800:
              0. 07 1557 004F 0000:?OnPreserveZeroBorderHelper@SECToolBar@@IAEJIJ@Z
            8BF1F644241401740CC786:
              B400000006000000EB19F644241402:
                0. 18 874E 0168 0000:?Initialize@SECTabControl@@UAEXK@Z
              B800000006000000EB19F644241402:
                0. 18 58DA 0168 0000:?Initialize@SECTabControl@@UAEXK@Z
        8B:
          2D........8BF133FF8B86:
            9400000057576888010000FF701CFFD5:
              0. 2C 47E0 00EC 0000:?Start@SECListBoxDragWnd@@IAEHXZ
            9800000057576888010000FF7020FFD5:
              0. 2C EF40 00EF 0000:?Start@SECListBoxDragWnd@@IAEHXZ
          7C2414:
            33DB8B0F0FB7018BF0258000000083E6108BE885F68D4102:
              0. 0F F6F8 0061 0000:?SecFindItemInMenuTemplate@@YAHAAPAUMENUITEMTEMPLATE@@I@Z
            8BF157E8........33ED:
              896C24148BC56BC0748D9C30:
                2C02:
                  0. 05 79AF 0092 0000:?ToggleSelectDate@SECCalendar@@UAEHAAVCOleDateTime@@@Z
                4002:
                  0. 05 79AF 0092 0000:?ToggleSelectDate@SECCalendar@@UAEHAAVCOleDateTime@@@Z
              8BC56BC0748D9C30:
                2C0200008BCB:
                  0. 01 3E9B 0061 0000:?ToggleHighlightDate@SECCalendar@@UAEHAAVCOleDateTime@@@Z
                400200008BCB:
                  0. 01 3E9B 0061 0000:?ToggleHighlightDate@SECCalendar@@UAEHAAVCOleDateTime@@@Z
          E9E8........8B3D........33DB538BF0536888010000FF76:
            1CFF:
              0. 08 A3BC 0092 0000:?OnEditingStopped@SECListBoxEditor@@UAEXXZ
            20FF:
              0. 08 A3BC 0092 0000:?OnEditingStopped@SECListBoxEditor@@UAEXXZ
          F1:
            BF........68415200008BCFE8........FF35........8B4E:
              3C:
                0. 07 4D8D 02A4 0000:?AddUserColoredItems@SECAColorEditor@@IAEXXZ
                1. 07 CE24 02A4 0000:?AddUserColoredItems@SECAColorEditor@@IAEXXZ
              40:
                0. 07 5DA0 02A4 0000:?AddUserColoredItems@SECAColorEditor@@IAEXXZ
                1. 07 FE53 02A4 0000:?AddUserColoredItems@SECAColorEditor@@IAEXXZ
            E8........:
              8DAE:
                B800000033DB6AFF538BCDE8........8B3D:
                  0. 00 0000 0076 0000:?OnOK@SECACustTBDlg@@MAEXXZ
                C000000033DB6AFF538BCDE8........8B3D:
                  0. 00 0000 007F 0000:?OnOK@SECACustTBDlg@@MAEXXZ
              F6C4087416837C2414080F84:
                01030000837C24142E:
                  0. 08 7997 0323 0000:?OnKeyDown@SECMaskEdit@@IAEXIII@Z
                FB020000837C24142E:
                  0. 08 838F 031D 0000:?OnKeyDown@SECMaskEdit@@IAEXIII@Z
          F9:
            33ED33DB39AF:
              F80000008DB7F80000007E15538BCFE8:
                0. 14 3E18 0034 0000:?GetFirstFocusGadget@SECDateTimeCtrl@@IAEHXZ
              FC0000008DB7FC0000007E15538BCFE8:
                0. 14 3E18 0034 0000:?GetFirstFocusGadget@SECDateTimeCtrl@@IAEHXZ
            E8........8B:
              E88B078BCFFF90:
                D000000085C075388B4F7085C9:
                  0. 03 4165 006D 0000:?OnDestroy@SECControlBar@@QAEXXZ
                D800000085C075388B4F7485C9:
                  0. 03 4165 006D 0000:?OnDestroy@SECControlBar@@QAEXXZ
              F08B078BCFFF90:
                280100008BD833ED3BDD744C39:
                  0. 07 2F9A 0072 0000:?ShowToolBoxConditional@SECScriptHostView@@UAEXH@Z
                300100008BD833ED3BDD744C39:
                  0. 07 2F9A 0072 0000:?ShowToolBoxConditional@SECScriptHostView@@UAEXH@Z
        E8........6A008BF8E8........8B77208B5C24148B2D........85:
          0. 18 4E35 007B 0000:?LocateRuntimeClass@SECDockState@@MAEPAUCRuntimeClass@@ABVCString@@@Z
        FF7424:
          148BF1E8........:
            85C0743F33EDBB........555368:
              0. 00 0000 0087 0000:?OnShowNode@SECDefDockNodeBase@@MAEHH@Z
            8B7E5C8B1D........8B2D........33C0:
              0. AF 030E 00CF 0000:?OnDraw@SECCalTitle@@UAEHPAVCDC@@@Z
              1. B5 052E 00D5 0000:?OnDraw@SECCalTitle@@UAEHPAVCDC@@@Z
              2. B5 3F9B 00D5 0000:?OnDraw@SECCalTitle@@UAEHPAVCDC@@@Z
              3. AF BCE2 00CF 0000:?OnDraw@SECCalTitle@@UAEHPAVCDC@@@Z
          188B7C24188BF157E8........81FF01020000740C81FF0402:
            0. 0B 2F87 0135 0000:?OnParentNotify@SECMDIChildWnd@@QAEXIJ@Z
      8B:
        742410:
          33DB:
            578B86800000008DAE800000003BC38BF9740950E8:
              0. 00 0000 02E9 0000:?TIFFFreeDirectory@SECTiff@@QAEXPAUtiff@@@Z
            8BE985F675056AFE58EB778B463C578B3D........85C0:
              0. 38 1016 0091 0000:?destroy@SECComp@@QAEHPAUgz_stream@@@Z
          578B7C2418:
            66837E3A018BE9741268........FF3655E8:
              0. 00 0000 00FC 0000:?Fax3SetupState@SECTiff@@QAEPAXPAUtiff@@J@Z
            FF761068........57E8........83C40CBB:
              0. 00 0000 0D0B 0000:?TIFFPrintDirectory@SECTiff@@QAEXPAUtiff@@PAU_iobuf@@J@Z
        F1:
          33ED57:
            39AE:
              A000000075508B8EA4000000568B01FF900C01000068:
                0. 07 5AB9 0065 0000:?InitItems@SECAEventBar@@QAEXXZ
              A400000075508B8EA8000000568B01FF901401000068:
                0. 07 5AB9 0065 0000:?InitItems@SECAEventBar@@QAEXXZ
            8B86:
              E00000008B3D........3BC5BB860000007415555553:
                0. 0E CD76 004B 0000:?DeactivateDockableFrame@SECMDIFrameWnd@@UAEXH@Z
              E40000008B3D........3BC5BB860000007415555553:
                0. 0E 9357 004B 0000:?DeactivateDockableFrame@SECMDIFrameWnd@@UAEXH@Z
          57:
            33:
              DB8B0633FFFF90:
                1802000085C07E338B4424143958047E2A57:
                  0. 03 7AD8 0052 0000:?GetItemAbovePoint@SECListBaseV@@UAEHABVCPoint@@@Z
                2002000085C07E338B4424143958047E2A57:
                  0. 03 7AD8 0052 0000:?GetItemAbovePoint@SECListBaseV@@UAEHABVCPoint@@@Z
                C801000085C07E338B4424143958047E2A57:
                  0. 03 7AD8 0052 0000:?GetItemAbovePoint@SECListBaseC@@UAEHABVCPoint@@@Z
                D001000085C07E338B4424143958047E2A57:
                  0. 03 7AD8 0052 0000:?GetItemAbovePoint@SECListBaseC@@UAEHABVCPoint@@@Z
              ED8B:
                0633FFFF90:
                  1802000085C07E318B4424143B68047D2857:
                    0. 03 7AD8 0050 0000:?GetItemAtPoint@SECListBaseV@@UAEHABVCPoint@@@Z
                  2002000085C07E318B4424143B68047D2857:
                    0. 03 7AD8 0050 0000:?GetItemAtPoint@SECListBaseV@@UAEHABVCPoint@@@Z
                  C801000085C07E318B4424143B68047D2857:
                    0. 03 7AD8 0050 0000:?GetItemAtPoint@SECListBaseC@@UAEHABVCPoint@@@Z
                  D001000085C07E318B4424143B68047D2857:
                    0. 03 7AD8 0050 0000:?GetItemAtPoint@SECListBaseC@@UAEHABVCPoint@@@Z
                86:
                  E00100008DBEE001000055568BCFC786E40100000000:
                    0. 2E A691 00A6 0000:?AddCaptionBtns@SECMDIMenuBar@@IAEXXZ
                  E40100008DBEE401000055568BCFC786E80100000000:
                    0. 2E F8D7 00A6 0000:?AddCaptionBtns@SECMDIMenuBar@@IAEXXZ
            8B:
              06FF50:
                2085C00F84AD01000068........8BCEFF742418E8:
                  0. 00 0000 01E9 0000:?LoadImageA@SECTiff@@UAEHPBD@Z (REF 0014: ??_C@_01LHO@r?$AA@)
                  1. 00 0000 01E9 0000:?LoadImageW@SECTiff@@UAEHPBG@Z (REF 0014: ??_C@_13ECDI@?$AAr?$AA?$AA@)
                2885C00F84AD01000068........8BCEFF742418E8:
                  0. 00 0000 01E9 0000:?LoadImageA@SECTiff@@UAEHPBD@Z (REF 0014: ??_C@_01LHO@r?$AA@)
                  1. 00 0000 01E9 0000:?LoadImageW@SECTiff@@UAEHPBG@Z (REF 0014: ??_C@_13ECDI@?$AAr?$AA?$AA@)
              BE:
                4C01000085FF75086A0158E991000000817C24140000FFFF:
                  0. 10 1A4A 00B0 0000:?InternalDeleteItem@SECTreeBaseC@@MAEHPAU_TREEITEM@@@Z
                5001000085FF75086A0158E991000000817C24140000FFFF:
                  0. 10 1A4A 00B0 0000:?InternalDeleteItem@SECTreeBaseC@@MAEHPAU_TREEITEM@@@Z
                8801000085FF75086A0158E991000000817C24140000FFFF:
                  0. 10 1A4A 00B0 0000:?InternalDeleteItem@SECTreeBaseV@@MAEHPAU_TREEITEM@@@Z
                8C01000085FF75086A0158E991000000817C24140000FFFF:
                  0. 10 1A4A 00B0 0000:?InternalDeleteItem@SECTreeBaseV@@MAEHPAU_TREEITEM@@@Z
            8D46:
              3C50FF761CFF15........8B46448B3D........68FFFFFF:
                0. 19 23B4 0086 0000:?OnInitMarquee@SECMarquee@@MAEHXZ
              4050FF7620FF15........8B46488B3D........68FFFFFF:
                0. 19 8071 0086 0000:?OnInitMarquee@SECMarquee@@MAEHXZ
          8B8E:
            E4000000578DBEE400000033DB3BCB741D68........E8:
              0. 00 0000 0163 0000:?OnNcActivate@SECMDIFrameWnd@@IAEHH@Z
            E8000000578DBEE800000033DB3BCB741D68........E8:
              0. 00 0000 0163 0000:?OnNcActivate@SECMDIFrameWnd@@IAEHH@Z
    578BF933ED8B47048B58:
      7085DB743F568BC38B1B68........8B70088BCE:
        0. 01 3E9B 005B 0000:?ReparentToolBars@SECToolBarManager@@MAEXXZ
      7485DB743F568BC38B1B68........8B70088BCE:
        0. 01 3E9B 005B 0000:?ReparentToolBars@SECToolBarManager@@MAEXXZ
    8B:
      5C240C568BF133ED578B46483BC574248B16535550FF523C8B56148D7E:
        0. A8 09BE 00C8 0000:?CreateDockingTargetBorders@SECFrameDockingFeatureBase@@MAEXPAVCWnd@@@Z
      6C240C:
        56:
          57:
            33DB8B85D800000033FF2D623A00008BF10F84B100000048:
              0. 04 01ED 0154 0000:?DynCreateControlBar@SECToolBarManager@@UAEPAVCControlBar@@PAVSECControlBarInfo@@@Z
            8B:
              D955E8........8D:
                45048D4B0450E8........8D75088D:
                  0. 21 2757 0041 0000:??4SECAObjectDef@@QAEAAV0@ABV0@@Z
                75288D7B28A5A5A5A58B45385F8943:
                  0. 18 DE63 0043 0000:??0SECCaptionControlMsgFilter@@QAE@ABV0@@Z
              F155E8........33FF39BE:
                94010000744A8BCEE8:
                  0. 00 0000 006B 0000:?DoPaint@SECCustomToolBar@@MAEXPAVCDC@@@Z
                98010000744A8BCEE8:
                  0. 00 0000 006B 0000:?DoPaint@SECCustomToolBar@@MAEXPAVCDC@@@Z
          8B:
            D9578BF58BFBA5A5A58D45108D4B1050A5E8........668B:
              0. 0E 821B 003B 0000:??4SEC_ToolEntry@@QAEAAU0@ABU0@@Z
            F1578B:
              5D048B06FF90:
                100300008B1650538BCEFF92000200:
                  0. 36 E69E 0056 0000:?InsertItem@SECListBaseC@@UAEHPBUtagLVITEMW@@@Z
                180300008B1650538BCEFF92080200:
                  0. 36 69A4 0056 0000:?InsertItem@SECListBaseC@@UAEHPBUtagLVITEMW@@@Z
                600300008B1650538BCEFF92500200:
                  0. 36 21B8 0056 0000:?InsertItem@SECListBaseV@@UAEHPBUtagLVITEMW@@@Z
                680300008B1650538BCEFF92580200:
                  0. 36 5F54 0056 0000:?InsertItem@SECListBaseV@@UAEHPBUtagLVITEMW@@@Z
              BE:
                C00000004F78128B86BC000000558B0CB88B01FF:
                  0. 48 AE90 0098 0000:?DoPaint@SECDockBar@@UAEXPAVCDC@@@Z
                C40000004F78128B86C0000000558B0CB88B01FF:
                  0. 48 7A88 0098 0000:?DoPaint@SECDockBar@@UAEXPAVCDC@@@Z
        8BD9:
          3BEB7478568D453857508D4B38E8........8B45408D7508:
            0. 6B DAEB 008B 0000:??4SECBar@@QAEABV0@ABV0@@Z
          56578D7B5C8BF5A5A58B0355A5A5FF90940000008B03558B:
            0. 46 1EC3 0066 0000:?SetInitialRect@SECLayoutNode@@UAEXABVCRect@@@Z
      E956837D40008D5D4074056A0158EB6A8D454C578D7424148BF8A5A5A5:
        0. 02 9619 0083 0000:?CreateScriptEngine@SECAScriptHost@@UAEJU_GUID@@@Z
  56:
    33DB57:
      5368........68........53FF7424208BF1E8........8B4E0883:
        0. 19 4DFF 007A 0000:?RefreshDrawingPostDock@SECDefDockNodeInitiatorBase@@UAEXPAVISECDockableNode@@PAVSECLNDockingMgr@@@Z
      8B3D........538BF1536A0BFF76:
        1CFFD78BCEE8........536A01:
          0. 0D C2A1 0069 0000:?OnLButtonDown@SECCurrencyEdit@@QAEXIVCPoint@@@Z
        20FFD78BCEE8........536A01:
          0. 0D 40E9 0069 0000:?OnLButtonDown@SECCurrencyEdit@@QAEXIVCPoint@@@Z
    57:
      33:
        DB:
          68........53536A016A026A015353536890010000538BF953536A:
            0. 09 9B73 0052 0000:?OnFontCreateAndSet@SECComboBtn@@MAEXXZ
            1. 09 C297 0052 0000:?OnFontCreateAndSet@SECComboBtn@@MAEXXZ
          BF........535768........5351E8........8B1083C4148BC8FF:
            0. 0A 196F 005F 0000:?LocateFloatInitiator@SECDefDockNodeInitiatorBase@@MAEPAVISECDockInitiator@@XZ
        FF397C2410744C57BE........68........5657FF742420E8:
          0. 00 0000 005F 0000:?TestOffNodeHit@?$SECLNOffNodeIFaceHitTest_T@VISECDockTarget@@@@MAEPAVISECDockTarget@@PAVSECLayoutNode@@ABVCPoint@@@Z
      6A:
        0068........68........6A0051E8........8BF083C4148BCE8B06:
          0. 4A 4599 006A 0000:?ResetMemoryManagement@SECDefReparentableNode@@MAEXXZ
        018BF1:
          33DB395C2414588986:
            780100008986740100008DBEBC010000:
              0. 0E 553F 006F 0000:?SetDefaultFont@SECACodeViewRTF@@IAEXH@Z
            7C0100008986780100008DBEC0010000:
              0. 0E C98F 006F 0000:?SetDefaultFont@SECACodeViewRTF@@IAEXH@Z
          5F39BE8800000075:
            398A5C241080FB0975108B86840000006A:
              0. 1F 6BA3 0116 0000:?InsertChar@SECATokenizer@@QAEHDH@Z
            3A8A5C241080FB0975108B86840000006A:
              0. 20 5535 0117 0000:?InsertChar@SECATokenizer@@QAEHDH@Z
            3D668B5C24106683FB0975108B86840000:
              0. 23 29E9 0127 0000:?InsertChar@SECATokenizer@@QAEHGH@Z
            3E668B5C24106683FB0975108B86840000:
              0. 24 034C 0128 0000:?InsertChar@SECATokenizer@@QAEHGH@Z
        02FF7424148BF1E8........6A028BF8FF74241457FF15........8B:
          0. 0A 6E93 0053 0000:?LoadBitmapA@SECToolBar@@QAEHPBD@Z (REF 000C: ?AfxFindResourceHandle@@YGPAUHINSTANCE__@@PBD0@Z)
          1. 0A 6E93 0053 0000:?LoadBitmapW@SECToolBar@@QAEHPBG@Z (REF 000C: ?AfxFindResourceHandle@@YGPAUHINSTANCE__@@PBG0@Z)
      8B:
        35........FF7424108BF96A006880010000FF77:
          1CFFD68BD883C8FF:
            0. 1B 8EBC 003B 0000:?AddColor@SECColorsListBox@@QAEHPBGK@Z (REF 0005: SendMessageW)
            1. 1B 8EBC 003B 0000:?AddColor@SECColorsListBox@@QAEHPBDK@Z (REF 0005: SendMessageA)
          20FFD68BD883C8FF:
            0. 1B BECD 003B 0000:?AddColor@SECColorsListBox@@QAEHPBGK@Z (REF 0005: SendMessageW)
            1. 1B BECD 003B 0000:?AddColor@SECColorsListBox@@QAEHPBDK@Z (REF 0005: SendMessageA)
        3D........:
          6A006A00FF35........8BF1FFD78BD86AFF538BCEE8:
            0. 00 0000 0033 0000:?LoadDefaultTable@SECShortcutTable@@QAEXXZ
          8B:
            D96A00FF73:
              1CFFD750E8........8BF085F6743168:
                0. 00 0000 0055 0000:?OnStyleChanging@SECToolBarsPage@@IAEXI@Z
              20FFD750E8........8BF085F67432FF35:
                0. 00 0000 0056 0000:?OnStyleChanging@SECToolBarsPage@@IAEXI@Z
            F168........33DBFF765CFFD75985C05975146A04E8:
              0. 00 0000 005F 0000:?CreateLangAwareObject@SECAContainerProps@@UAEPAVSECALangAwareObj@@XZ
        7C24:
          10:
            33DB:
              83FF308BF1720583FF39761E83FF60720583FF69761439:
                0. 07 BA0A 00BB 0000:?OnKeyDown@SECDTNumericGadget@@MAEXI@Z
              8B:
                B7700100003BF375:
                  126A1C57E8........8BF03BF375:
                    0. 2A 1230 007E 0000:?Fax3PreDecode@SECTiff@@QAEJPAUtiff@@@Z
                  396A2857E8........8BF03BF375:
                    0. 11 D789 00C8 0000:?Fax3PreEncode@SECTiff@@QAEJPAUtiff@@@Z
                F185FF7C158B06FF90:
                  080200003BF87D098B860C0100:
                    0. 0C BAA5 002C 0000:?GetColumnAt@SECListBaseV@@UBEPAVSECListColumn@@H@Z
                  100200003BF87D098B86100100:
                    0. 0C BAA5 002C 0000:?GetColumnAt@SECListBaseV@@UBEPAVSECListColumn@@H@Z
                  180200003BF87D098B86200100:
                    0. 0C BAA5 002C 0000:?GetItemAt@SECListBaseV@@QBEPAVSECListItem@@H@Z
                  200200003BF87D098B86240100:
                    0. 0C BAA5 002C 0000:?GetItemAt@SECListBaseV@@QBEPAVSECListItem@@H@Z
                  B80100003BF87D098B86080100:
                    0. 0C BAA5 002C 0000:?GetColumnAt@SECListBaseC@@UBEPAVSECListColumn@@H@Z
                  C00100003BF87D098B860C0100:
                    0. 0C BAA5 002C 0000:?GetColumnAt@SECListBaseC@@UBEPAVSECListColumn@@H@Z
                  C80100003BF87D098B861C0100:
                    0. 0C BAA5 002C 0000:?GetItemAt@SECListBaseC@@QBEPAVSECListItem@@H@Z
                  D00100003BF87D098B86200100:
                    0. 0C BAA5 002C 0000:?GetItemAt@SECListBaseC@@QBEPAVSECListItem@@H@Z
            6A:
              0C6A018BB7700100008BD957E8........6A0C6A01578BCB:
                0. 01 3E9B 0074 0000:?Fax4PostEncode@SECTiff@@QAEJPAUtiff@@@Z
              346A01FF77288BD9FF57208BF085F6741EFF7424188BCB6A:
                0. 38 3BEA 0064 0000:?inflate_blocks_new@SECComp@@QAEPAUinflate_blocks_state@@PAUz_stream_s@@P81@AEKKPAEG@ZG@Z
            83FF308BF1726F83FF39776A33DB395E3875116A01FF761C6A:
              0. 02 7199 00AA 0000:?OnChar@SECDTNumericGadget@@MAEXI@Z
            85FF8BF1:
              0F8CB90000008B46:
                3C3B78F80F8FAD0000008B5C24:
                  0. 65 7EDB 00D0 0000:?PullChar@SECMaskEdit@@MAEXHH@Z
                403B78F80F8FAD0000008B5C24:
                  0. 65 6805 00D0 0000:?PullChar@SECMaskEdit@@MAEXHH@Z
              74148D9EB00000006A00578BCBE8........85C075:
                0. 09 BE66 005B 0000:?RemoveConstraint@SECLNRelative@@UAEHPAVSECLNRelativeConstraint@@@Z
              7D0233FF8BCEE8........3BF87C098BCEE8:
                0. 00 0000 0066 0000:?MoveCaretTo@SECAColorEditor@@QAEXHHH@Z
            8B:
              0F0FB7018BF0258000000083E6108BD885F68D410275038D:
                0. 04 022D 004E (l)0000:?AdvanceItem@@YAXAAPAUMENUITEMTEMPLATE@@@Z
                1. 05 F24C 004F (l)0000:?AdvanceItem@@YAXAAPAUMENUITEMTEMPLATE@@@Z
              C74F85C0:
                7C368B4C241C8B5424188B742414B80001000066:
                  0. 34 A3D3 0054 0000:?checkcmap@SECTiff@@IAEGHPAG00@Z
                7E368B4C241C8B5424188B742414B80001000066:
                  0. 34 7C2A 0054 0000:?geti_checkcmap@SECTiff@@QAEGHPAG00@Z
              F1:
                33C0D9E83BF8C706........DD5E1089461889461C897E:
                  0. 10 0BD1 005D 0000:??0SECRandom@@QAE@I@Z
                3BF70F84:
                  A20000008B46043B47040F85920000008B4608:
                    0. 11 BCD9 00BC 0000:??8Format@SECCurrencyEdit@@UBEHABV01@@Z
                  A40000008B46043B47040F85940000008B4608:
                    0. 0E 20A0 00BE 0000:??8Format@SECCurrencyEdit@@UBEHABV01@@Z
                57E8........:
                  8BD883C8FF3BD874458B06578BCEFF905C:
                    0. 43 0BCC 0063 0000:?RemoveLayoutNode@SECLNDynamicGridLine@@UAEHPAVSECLayoutNode@@@Z
                  F686:
                    28010000088BD8741D817F04000200:
                      0. 13 1943 003F 0000:?PreTranslateMessage@SECListBoxEditor@@UAEHPAUtagMSG@@@Z
                    34010000088BD8741D817F04000200:
                      0. 13 6594 003F 0000:?PreTranslateMessage@SECListBoxEditor@@UAEHPAUtagMSG@@@Z
                8BDFE8........3BF87D178B06538BCEFF90:
                  000100008B:
                    0. 03 05DB 00C1 0000:?DeleteTab@SECTabControlBase@@UAEXH@Z
                  080100008B:
                    0. 03 05DB 00C1 0000:?DeleteTab@SECTabControlBase@@UAEXH@Z
                8D5F04C7471403000000C703090000008B86:
                  D400000089:
                    0. 76 B5E3 0096 0000:?LoadPaintContext@SECListBaseC@@MAEHPAVSECListPaintContext@@@Z
                  D800000089:
                    0. 76 6A9F 0096 0000:?LoadPaintContext@SECListBaseC@@MAEHPAVSECListPaintContext@@@Z
                    1. 76 B592 0096 0000:?LoadPaintContext@SECListBaseV@@MAEHPAVSECListPaintContext@@@Z
                  DC00000089:
                    0. 76 740E 0096 0000:?LoadPaintContext@SECListBaseV@@MAEHPAVSECListPaintContext@@@Z
          148BD9833FFF74518B4C24108B01FF50108BF085F674428BCEE8:
            0. 00 0000 0065 0000:?AddChildrenToListCtrl@SECTreeBaseC@@IAEXPAV_Node@@AAH@Z (000E: 10)
            1. 00 0000 0065 0000:?AddChildrenToListCtrl@SECTreeBaseV@@IAEXPAV_Node@@AAH@Z (000E: 60)
          188BF185FF89BE:
            94000000740C8B44241C8986A4000000EB0783:
              0. 11 3599 0059 0000:?OpenDocumentFile@SECMultiDocTemplate@@UAEPAVCDocument@@PBDHHH@Z (REF 0031: ?OpenDocumentFile@CMultiDocTemplate@@UAEPAVCDocument@@PBDH@Z)
              1. 11 3599 0059 0000:?OpenDocumentFile@SECMultiDocTemplate@@UAEPAVCDocument@@PBGHHH@Z (REF 0031: ?OpenDocumentFile@CMultiDocTemplate@@UAEPAVCDocument@@PBGH@Z)
            98000000740C8B44241C8986A8000000EB0783:
              0. 11 93E1 0059 0000:?OpenDocumentFile@SECMultiDocTemplate@@UAEPAVCDocument@@PBDHHH@Z (REF 0031: ?OpenDocumentFile@CMultiDocTemplate@@UAEPAVCDocument@@PBDH@Z)
              1. 11 93E1 0059 0000:?OpenDocumentFile@SECMultiDocTemplate@@UAEPAVCDocument@@PBGHHH@Z (REF 0031: ?OpenDocumentFile@CMultiDocTemplate@@UAEPAVCDocument@@PBGH@Z)
        D9E8........:
          8B35........6A1133FFFFD66685C07D036A085F6A10:
            0. 14 5DFC 003E 0000:?OnKeyDown@SECAColorEditor@@IAEXIII@Z
          FF74241C8B8B:
            1C0100008BF0FF74241C8B018BBE:
              2401:
                0. 19 3EF8 0039 0000:?OnCmdMsg@SECOleCntrFrameWnd@@UAEHIHPAXPAUAFX_CMDHANDLERINFO@@@Z
              C400:
                0. 19 FBEA 0039 0000:?OnCmdMsg@SECOleCntrFrameWnd@@UAEHIHPAXPAUAFX_CMDHANDLERINFO@@@Z
            200100008BF0FF74241C8B018BBE:
              2401:
                0. 19 868F 0039 0000:?OnCmdMsg@SECOleCntrFrameWnd@@UAEHIHPAXPAUAFX_CMDHANDLERINFO@@@Z
              C400:
                0. 19 439D 0039 0000:?OnCmdMsg@SECOleCntrFrameWnd@@UAEHIHPAXPAUAFX_CMDHANDLERINFO@@@Z
        F1:
          33:
            DB33FFE8........85C07E2F578BCEE8........395810740B8B:
              0. 0E 65AB 0067 0000:?ClearSelection@SECTabControlBase@@UAEXXZ
              1. 0E D986 0067 0000:?ClearSelection@SECTabControlBase@@UAEXXZ
            FF:
              33DB397E087437397E187E328B46148B0CB885C97422837908:
                0. 2D D7DC 004D 0000:?Delegate@SECMsgFilter@@UAEKIIJPAJ@Z
                1. 2D F5F9 004D 0000:?Delegate@SECMsgFilter@@UAEKIIJPAJ@Z
              397E:
                588B465C7E1A8D58108BCBE8........8BCBE8:
                  0. 14 9EA8 006B 0000:?AllocElements@SECStatusBar@@QAEHHH@Z
                5C8B46607E1A8D58108BCBE8........8BCBE8:
                  0. 14 275B 006C 0000:?AllocElements@SECStatusBar@@QAEHHH@Z
              6A01397E:
                505B74088D4E4CE8........8D463C50FF15:
                  0. 00 0000 005E 0000:?SetBitmap@SECDropEdit@@QAEHPBD@Z (REF 0032: ?SECLoadSysColorBitmap@@YAHAAVCBitmap@@PBD@Z)
                  1. 00 0000 005E 0000:?SetBitmap@SECDropEdit@@QAEHPBG@Z (REF 0032: ?SECLoadSysColorBitmap@@YAHAAVCBitmap@@PBG@Z)
                545B74088D4E50E8........8D464050FF15:
                  0. 00 0000 005E 0000:?SetBitmap@SECDropEdit@@QAEHPBD@Z (REF 0032: ?SECLoadSysColorBitmap@@YAHAAVCBitmap@@PBD@Z)
                  1. 00 0000 005E 0000:?SetBitmap@SECDropEdit@@QAEHPBG@Z (REF 0032: ?SECLoadSysColorBitmap@@YAHAAVCBitmap@@PBG@Z)
              83CBFF397E687E:
                2F8B4664FF742410837E5C00:
                  8D04B88B0050:
                    0. 03 3B03 0046 0000:?IsKeyword@SECATokenizer@@QAEHPBD@Z
                  FF34B88D04B8:
                    0. 03 3B03 0046 0000:?IsKeyword@SECATokenizer@@QAEHPBG@Z
                318B4664FF742410837E5C00:
                  8D04B88B0050:
                    0. 04 59AA 0048 0000:?IsKeyword@SECATokenizer@@QAEHPBD@Z
                  FF34B88D04B8:
                    0. 04 59AA 0048 0000:?IsKeyword@SECATokenizer@@QAEHPBG@Z
          68:
            39A80000E8........8B1D........6A008BF86A006888010000:
              0. 13 A30F 0061 0000:?OnShortcutRemove@SECShortcutDlg@@IAEXXZ
              1. 13 C4D6 0061 0000:?OnShortcutRemove@SECShortcutDlg@@IAEXXZ
            3AA80000E8........8B3D........8BD88B46:
              686A006A006888:
                0. 35 262E 0064 0000:?OnSelchangeShortcutNameList@SECShortcutDlg@@IAEXXZ
              6C6A006A006888:
                0. 35 1962 0064 0000:?OnSelchangeShortcutNameList@SECShortcutDlg@@IAEXXZ
          6A11FF15........6685C08BCE7D0AE8........E920010000E8:
            0. 00 0000 0144 0000:?OnChar@SECMaskEdit@@IAEXIII@Z
          83CBFF33FF53578D8ED0000000E8........53578D8EE4000000E8:
            0. 00 0000 008A 0000:?InitGridBagInfo@SECLNGridBag@@MAEXXZ
          E8........:
            33DB8BCE536842040000E8........8BC8E8:
              0. 0A 9334 00A7 0000:?OnInitDialog@SECDirSelectDlg@@MAEHXZ
            837C24100174:
              318B5C241485DB7E298B7C241885FF7E:
                0. 18 6B7C 0048 0000:?OnSize@SECShortcutBar@@IAEXIHH@Z
              348B5C241485DB7E2C8B7C241885FF7E:
                0. 18 5BE1 004B 0000:?OnSize@SECShortcutBar@@IAEXIHH@Z
            8B:
              400C85C0741D8B7C24188B5C24146A0057536A01FF:
                0. 06 FFDB 0049 0000:?LoadIconA@SECIcon@@UAEHPBDHH@Z (REF 0026: LoadImageA)
                1. 06 FFDB 0049 0000:?LoadIconW@SECIcon@@UAEHPBGHH@Z (REF 0026: LoadImageW)
              5C241033FF85C07427F6C3046A03750C6800040400:
                0. 10 4F0D 0086 0000:?SetExBarStyle@SECControlBar@@UAEXKH@Z (0055: 00)
                1. 10 4F0D 0087 0000:?SetExBarStyle@SECControlBar@@UAEXKH@Z (0055: 08)
              F885FF7433FF7608FF7604FF15........8BD885DB:
                0. 07 3D3A 0049 0000:?Apply@SECShortcutTable@@UAEHXZ
                1. 07 5C59 0049 0000:?Apply@SECShortcutTable@@UAEHXZ
          FF:
            15........50E8........3BC67506FF15........8B3D:
              0. 00 0000 013E 0000:?OnLButtonUp@SECControlBar@@QAEXIVCPoint@@@Z
            7424:
              10E8........8B:
                86:
                  C80000008DBEC00000002B0785C07E53:
                    0. 0F 412D 00AF 0000:?RecalcLayout@SECMDIFrameWnd@@UAEXH@Z
                  CC0000008DBEC40000002B0785C07E53:
                    0. 0F 4C0E 00AF 0000:?RecalcLayout@SECMDIFrameWnd@@UAEXH@Z
                  D00000008DBEC80000002B0785C07E53:
                    0. 0F 412D 00AF 0000:?RecalcLayout@SECFrameWnd@@UAEXH@Z
                  D40000008DBECC0000002B0785C07E53:
                    0. 0F 4C0E 00AF 0000:?RecalcLayout@SECFrameWnd@@UAEXH@Z
                F885FF746EBB0000FFFF3BFB7465578BCE:
                  0. 01 3E9B 0088 0000:?OnLeftKeyPressed@SECTreeBaseC@@MAEXHHHHII@Z (0058: EC)
                  1. 01 3E9B 0088 0000:?OnLeftKeyPressed@SECTreeBaseV@@MAEXHHHHII@Z (0058: F0)
              18FF742418FF742418E8........837C24100175:
                448BCEE8:
                  0. 00 0000 0067 0000:?OnActivate@SECFDIChildWnd@@IAEXIPAVCWnd@@H@Z
                458BCEE8:
                  0. 00 0000 0068 0000:?OnActivate@SECFDIChildWnd@@IAEXIPAVCWnd@@H@Z
        F9:
          33DB:
            33F6E8........85C07E26568BCFE8........8B40143B4424:
              0. 10 C0B2 0040 0000:?FindTab@SECTabControlBase@@QBEHQBVCObject@@AAH@Z
            8B:
              770885F674:
                148BC68B368B480885C974068B016A01FF1043:
                  0. 06 09CF 0030 0000:?DeleteManagedMemory@?$SECObjectMemoryManager_T@VSECDynGridInsertConstraints@@@@UAEHXZ (0009: C3)
                158BC68B368B480885C974078B016A01FF50:
                  04:
                    0. 07 62B1 0031 0000:?DeleteManagedMemory@?$SECObjectMemoryManager_T@VSECLayoutWndListener@@@@UAEHXZ
                  34:
                    0. 07 62B1 0031 0000:?DeleteManagedMemory@?$SECObjectMemoryManager_T@VSECLayoutNode@@@@UAEHXZ
              B7:
                F0000000F7DE395C24107E148B07538BCFFF90A0010000:
                  0. 11 1413 0031 0000:?GetColumnLeft@SECListBaseC@@UBEHH@Z
                F4000000F7DE395C24107E148B07538BCFFF90:
                  A8010000:
                    0. 11 1413 0031 0000:?GetColumnLeft@SECListBaseC@@UBEHH@Z
                  F0010000:
                    0. 11 1413 0031 0000:?GetColumnLeft@SECListBaseV@@UBEHH@Z
                F8000000F7DE395C24107E148B07538BCFFF90F8010000:
                  0. 11 1413 0031 0000:?GetColumnLeft@SECListBaseV@@UBEHH@Z
          83BF8800000001740883C8FFE9:
            100100008B477C8BF0037708837C:
              0. 13 4FDF 012C 0000:?MovePointByOneWord@SECATokenizer@@QAEHHH@Z
            2B0100008B477C8B4F08837C2410:
              0. 18 F874 0147 0000:?MovePointByOneWord@SECATokenizer@@QAEHHH@Z
          8B:
            07FF90:
              C00000008B4F3C8BF0568B590853E8........FF742410:
                0. 04 7440 005E 0000:?AddTab@SECTabControlBase@@UAEPAVSECTab@@PBDPAVCObject@@PAUHMENU__@@PAX@Z (REF 0024: ??4CString@@QAEABV0@PBD@Z)
                1. 04 7440 005E 0000:?AddTab@SECTabControlBase@@UAEPAVSECTab@@PBGPAVCObject@@PAUHMENU__@@PAX@Z (REF 0024: ??4CString@@QAEABV0@PBG@Z)
              C80000008B4F408BF0568B590853E8........FF742410:
                0. 04 7440 005E 0000:?AddTab@SECTabControlBase@@UAEPAVSECTab@@PBDPAVCObject@@PAUHMENU__@@PAX@Z (REF 0024: ??4CString@@QAEABV0@PBD@Z)
                1. 04 7440 005E 0000:?AddTab@SECTabControlBase@@UAEPAVSECTab@@PBGPAVCObject@@PAUHMENU__@@PAX@Z (REF 0024: ??4CString@@QAEABV0@PBG@Z)
            47:
              3C8B58F88B44241083FB018BF07C2F3BC37D298D70013BF37D:
                0. 2B 942B 004B 0000:?GetNextDataPos@SECMaskEdit@@MAEHH@Z
              408B58F88B44241083FB018BF07C2F3BC37D298D70013BF37D:
                0. 2B 7898 004B 0000:?GetNextDataPos@SECMaskEdit@@MAEHH@Z
            F78B5C2410F7DE8D87:
              AC0000001BF623F0837C24140089770489:
                0. 12 7E97 004C 0000:?InitForDrag@?$SECFloatableDockingNode_T@VSECReparentableGripperEx@@@@UAEPAVSECLayoutNode@@PAVSECLNDockingMgr@@HAAVSECDockInProgressInfo@@@Z
              B00000001BF623F0837C24140089770489:
                0. 12 7E97 004C 0000:?InitForDrag@?$SECFloatableDockingNode_T@VSECReparentableGripperEx@@@@UAEPAVSECLayoutNode@@PAVSECLNDockingMgr@@HAAVSECDockInProgressInfo@@@Z
          8DB7:
            140200008BCEE8........83F801750B6A008BCEE8:
              0. 05 EAEA 005E 0000:?OnLayoutBringToFront@SECScriptHostView@@IAEXXZ
            1C0200008BCEE8........83F801750B6A008BCEE8:
              0. 05 EAEA 005E 0000:?OnLayoutBringToFront@SECScriptHostView@@IAEXXZ
          E8........8B:
            35........6A06FFD66A058BD8FFD63BD87E046A06:
              0. 13 6BFE 0058 0000:?OnSetFocus@SECAColorEditor@@IAEXPAVCWnd@@@Z
              1. 13 993F 0058 0000:?OnSetFocus@SECAColorEditor@@IAEXPAVCWnd@@@Z
            700C6A02FF74241456FF15........8BD885DB7415:
              0. 05 8AA2 004E 0000:?LoadBitmapA@SECToolBar@@QAEHPBD@Z (REF 0016: FindResourceA)
              1. 05 8AA2 004E 0000:?LoadBitmapW@SECToolBar@@QAEHPBG@Z (REF 0016: FindResourceW)
            7424188BD885F6753039742410741E8B078BCFFF90:
              0. 5F 7F08 0089 0000:?OnUpdateFrameMenu@SECDockableFrame@@UAEXHPAVCWnd@@PAUHMENU__@@@Z
              1. 5F C663 0089 0000:?OnUpdateFrameMenu@SECDockableFrame@@UAEXHPAVCWnd@@PAUHMENU__@@@Z
          FF:
            15........50E8........8BCF8BD8E8........85C0751B8B44:
              0. 0D 3385 00EB 0000:?PickTextColors@SECListBaseC@@MAEXPAVSECListPaintContext@@@Z
              1. 0D 54F2 00EB 0000:?PickTextColors@SECListBaseV@@MAEXPAVSECListPaintContext@@@Z
              2. 0D B1CD 00EB 0000:?PickTextColors@SECListBaseC@@MAEXPAVSECListPaintContext@@@Z (009D: 6C)
              3. 0D B1CD 00EB 0000:?PickTextColors@SECListBaseV@@MAEXPAVSECListPaintContext@@@Z (009D: B4)
            742410E8........8BF0806651FE837C2414008B4650740680CC:
              0. 15 1A6D 0089 0000:?DisableItem@SECTreeBaseV@@QAEHPAU_TREEITEM@@H@Z
              1. 15 64E1 0089 0000:?DisableItem@SECTreeBaseC@@QAEHPAU_TREEITEM@@H@Z
              2. 15 A345 0089 0000:?DisableItem@SECTreeBaseV@@QAEHPAU_TREEITEM@@H@Z
              3. 15 AF98 0089 0000:?DisableItem@SECTreeBaseC@@QAEHPAU_TREEITEM@@H@Z
            B7:
              40010000E8........8B77588D0476C1E00350E8........33:
                0. 37 AB6A 0057 0000:?AllocatePaneInfo@SECCustomStatusBar@@IAEXXZ
              44010000E8........8B775C8D0476C1E00350E8........33:
                0. 37 757C 0057 0000:?AllocatePaneInfo@SECCustomStatusBar@@IAEXXZ
      FF7424106A0AE8........8B74241C59596A085BB8........33FF0FB6:
        0. 05 71BF 0057 (l)0000:?JPEGPrintQTable@@YAXPAU_iobuf@@PAE@Z
    6A:
      006A00FF7424148BF18B4E:
        3CFF7424208B01FF742420FF90D00000006A:
          0. 18 734E 0038 0000:?InsertTab@SECTabWndBase@@UAEPAVSECTab@@PAVCWnd@@HPBG@Z
        40FF7424208B01FF742420FF90D80000006A:
          0. 18 D9F2 0038 0000:?InsertTab@SECTabWndBase@@UAEPAVSECTab@@PAVCWnd@@HPBG@Z
      01:
        8BF1:
          5B:
            399E880000000F859F0000008B467C3B46180F8D9300000083:
              0. 2D 7C88 00B7 0000:?DeleteChar@SECATokenizer@@QAEXH@Z
            845E:
              400F848F000000FF15........315E408B86A40000008B:
                0. 09 1F5E 00AB 0000:?OnLButtonUp@SECCalculator@@IAEXIVCPoint@@@Z
              440F848F000000FF15........315E448B86A40000008B:
                0. 09 1F5E 00AB 0000:?OnLButtonUp@SECCalculator@@IAEXIVCPoint@@@Z
          6A00FF7424188D8E:
            A4000000E8........6A1CE8........8BD8:
              0. 06 D34D 0076 0000:?InsertTab@SECTabWnd@@UAEPAVSECTab@@PAVCWnd@@HPBD@Z (REF 006D: ?InsertTab@SECTabWndBase@@UAEPAVSECTab@@PAVCWnd@@HPBD@Z)
              1. 06 D34D 0076 0000:?InsertTab@SECTabWnd@@UAEPAVSECTab@@PAVCWnd@@HPBG@Z (REF 006D: ?InsertTab@SECTabWndBase@@UAEPAVSECTab@@PAVCWnd@@HPBG@Z)
            A8000000E8........6A1CE8........8BD8:
              0. 06 D34D 0079 0000:?InsertTab@SECTabWnd@@UAEPAVSECTab@@PAVCWnd@@HPBD@Z (REF 0070: ?InsertTab@SECTabWndBase@@UAEPAVSECTab@@PAVCWnd@@HPBD@Z)
              1. 06 D34D 0079 0000:?InsertTab@SECTabWnd@@UAEPAVSECTab@@PAVCWnd@@HPBG@Z (REF 0070: ?InsertTab@SECTabWndBase@@UAEPAVSECTab@@PAVCWnd@@HPBG@Z)
        BE........5B841D........7518081D........8BCEE8........68:
          0. 00 0000 0062 0000:?PickItemLinePen@SECListBaseV@@MAEXAAPAVCPen@@@Z (REF 0005: _?penDivider@?1??PickItemLinePen@SECListBaseV@@MAEXAAPAVCPen@@@Z@4V3@A)
          1. 00 0000 0062 0000:?PickColumnLinePen@SECListBaseV@@MAEXAAPAVCPen@@@Z (REF 0005: _?penDivider@?1??PickColumnLinePen@SECListBaseV@@MAEXAAPAVCPen@@@Z@4V3@A)
          2. 00 0000 0062 0000:?PickItemLinePen@SECListBaseC@@MAEXAAPAVCPen@@@Z (REF 0005: _?penDivider@?1??PickItemLinePen@SECListBaseC@@MAEXAAPAVCPen@@@Z@4V3@A)
          3. 00 0000 0062 0000:?PickColumnLinePen@SECListBaseC@@MAEXAAPAVCPen@@@Z (REF 0005: _?penDivider@?1??PickColumnLinePen@SECListBaseC@@MAEXAAPAVCPen@@@Z@4V3@A)
    8B:
      7424:
        0C57:
          33FF8BD9:
            397E087E1C8B46048B04B885C0740CFF7424148B13:
              0. 12 0487 0032 0000:?EnableChildren@SECMsgFilter@@UAEXABUDescriptorTable@1@H@Z
              1. 12 BCF0 0032 0000:?EnableChildren@SECMsgFilter@@UAEXABUDescriptorTable@1@H@Z
            85F675056AFE58EB7E8B463C85C0740750E8:
              0. 00 0000 0098 0000:?destroy@SECComp@@QAEHPAUgz_stream@@@Z
          83CFFF8BD985F6740B8B06578BCEFF90:
            CC0000008B4B5068:
              0. 00 0000 0058 0000:?SetWorkspaceActiveChildFrame@SECWorkspaceManagerEx@@MAEXPAVCFrameWnd@@@Z
            D40000008B4B5468:
              0. 00 0000 0058 0000:?SetWorkspaceActiveChildFrame@SECWorkspaceManagerEx@@MAEXPAVCFrameWnd@@@Z
          85F6:
            7426FF7604FF15........8BD833FF85DB761557FF7604:
              0. 02 ABB7 0046 (l)0000:?FindMenuItem@@YAHPAVCMenu@@IPAI@Z
            8B:
              7E1C8BD9744F85FF744B8B472485C0740750FF7628FF:
                0. 48 CC8D 0068 0000:?deflateEnd@SECComp@@QAEHPAUz_stream_s@@@Z
              D975086AFE58E9BA0000008A46543C77752E6A04568B:
                0. 02 034A 00D5 0000:?gzclose@SECComp@@QAEHPAX@Z
              F974148D9FB00000006A00568BCBE8........85C074:
                0. 09 C131 0048 0000:?SetConstraint@SECLNRelative@@UAEHPAVSECLNRelativeConstraint@@@Z
          8B:
            3D........68........:
              8B0633DB50FFD75985C0597507BB:
                0. 09 6500 009D 0000:?StrToKey@SECRegistry@@SAPAUHKEY__@@ABVCString@@@Z
              FF3633DBFFD75985C0597507BB00:
                0. 06 5DD9 0097 0000:?StrToKey@SECRegistry@@SAPAUHKEY__@@ABVCString@@@Z
            46048B7E1C8BD83B5C24187E048B5C241885DB750433C0EB:
              0. 13 456E 0056 0000:?read_buf@SECComp@@QAEJPAUz_stream_s@@PADJ@Z
            7C2414:
              33D289BE380100008B5E2C8B46208D4418FFF7F333:
                0. 6C 989B 008C 0000:?TIFFStartTile@SECTiff@@QAEHPAUtiff@@K@Z
              8BD98B86C000000003C7C1E00250FFB6C4000000E8:
                0. 00 0000 00B7 0000:?TIFFGrowStrips@SECTiff@@QAEJPAUtiff@@JPBD@Z (REF 009E: ??_C@_0CE@GIKD@?$CFs?3?5No?5space?5to?5expand?5strip?5arr@)
                1. 00 0000 00B7 0000:?TIFFGrowStrips@SECTiff@@QAEJPAUtiff@@JPBG@Z (REF 009E: ??_C@_1EI@ILEH@?$AA?$CF?$AAs?$AA?3?$AA?5?$AAN?$AAo?$AA?5?$AAs?$AAp?$AAa?$AAc?$AAe?$AA?5?$AAt?$AAo?$AA?5?$AAe?$AAx?$AAp?$AAa@)
            7E1C8B46108B5F103BD876028BD885DB742653FF770CFF76:
              0. 02 A1CD 0046 0000:?flush_pending@SECComp@@QAEXPAUz_stream_s@@@Z
            D9:
              56F6460E80740FE8........8BF889BE3C010000EB0DE8:
                0. 00 0000 0081 0000:?TIFFBufferSetup@SECTiff@@QAEJPAUtiff@@PBD@Z (REF 004C: ??_C@_0BP@BLFA@?$CFs?3?5No?5space?5for?5output?5buffer?$AA@)
                1. 00 0000 0081 0000:?TIFFBufferSetup@SECTiff@@QAEJPAUtiff@@PBG@Z (REF 004C: ??_C@_1DO@JDEK@?$AA?$CF?$AAs?$AA?3?$AA?5?$AAN?$AAo?$AA?5?$AAs?$AAp?$AAa?$AAc?$AAe?$AA?5?$AAf?$AAo?$AAr?$AA?5?$AAo?$AAu?$AAt@)
              8B0685C0740950E8........8326008B442418:
                837C2414:
                  0. 0A 7388 0048 0000:?setShortArray@SECTiff@@QAEXPAPAGPAGJ@Z
                8BCB8BF8:
                  0. 05 EE2C 004A 0000:?setLongArray@SECTiff@@QAEXPAPAKPAKJ@Z (0024: 00)
              F6466C048BBE70010000741E0FBF470283F80474157D05:
                0. 0F 0207 005E 0000:?Fax3PutEOL@SECTiff@@QAEXPAUtiff@@@Z
            F9:
              56FF77:
                1CFF15........8B5F6481E300A00000F687A500:
                  0. 08 B17E 00A1 0000:?GetInsideRect@SECControlBar@@UBEXAAVCRect@@@Z
                20FF15........8B5F6881E300A00000F687A900:
                  0. 08 B17E 00A1 0000:?GetInsideRect@SECControlBar@@UBEXAAVCRect@@@Z
              6A008B46208BC824C08946208B462C8BD825FFFF0FFF83:
                0. 2B 57EA 0055 0000:?ParseCreateStruct@SECTreeBaseC@@MAEXAAUtagCREATESTRUCTW@@@Z (REF 004B: ?ParseCreateStruct@SECListBaseC@@MAEXAAUtagCREATESTRUCTW@@@Z)
                1. 2B 57EA 0055 0000:?ParseCreateStruct@SECTreeBaseC@@MAEXAAUtagCREATESTRUCTA@@@Z (REF 004B: ?ParseCreateStruct@SECListBaseC@@MAEXAAUtagCREATESTRUCTA@@@Z)
                2. 2B 7CAD 0055 0000:?ParseCreateStruct@SECTreeBaseV@@MAEXAAUtagCREATESTRUCTW@@@Z (REF 004B: ?ParseCreateStruct@SECListBaseV@@MAEXAAUtagCREATESTRUCTW@@@Z)
                3. 2B 7CAD 0055 0000:?ParseCreateStruct@SECTreeBaseV@@MAEXAAUtagCREATESTRUCTA@@@Z (REF 004B: ?ParseCreateStruct@SECListBaseV@@MAEXAAUtagCREATESTRUCTA@@@Z)
                4. 2B B4B5 0055 0000:?ParseCreateStruct@SECTreeBaseV@@MAEXAAUtagCREATESTRUCTW@@@Z (REF 004B: ?ParseCreateStruct@SECListBaseV@@MAEXAAUtagCREATESTRUCTW@@@Z)
                5. 2B B4B5 0055 0000:?ParseCreateStruct@SECTreeBaseV@@MAEXAAUtagCREATESTRUCTA@@@Z (REF 004B: ?ParseCreateStruct@SECListBaseV@@MAEXAAUtagCREATESTRUCTA@@@Z)
                6. 2B E7A9 0055 0000:?ParseCreateStruct@SECTreeBaseC@@MAEXAAUtagCREATESTRUCTA@@@Z (REF 004B: ?ParseCreateStruct@SECListBaseC@@MAEXAAUtagCREATESTRUCTA@@@Z)
                7. 2B E7A9 0055 0000:?ParseCreateStruct@SECTreeBaseC@@MAEXAAUtagCREATESTRUCTW@@@Z (REF 004B: ?ParseCreateStruct@SECListBaseC@@MAEXAAUtagCREATESTRUCTW@@@Z)
          FFB6:
            84010000E8........83A68401000000598DBEBC010000:
              0. 07 FDD6 0069 0000:?SetMenuInfo@SECMenuBar@@UAAHHIZZ
            88010000E8........83A68801000000598DBEC0010000:
              0. 07 FDD6 0069 0000:?SetMenuInfo@SECMenuBar@@UAAHHIZZ
        1057:
          85F674:
            2633DB33FF803E00741D0FBE043750E8........85C0:
              0. 1C 90C5 003C (l)0000:?GetDigitIndex@@YAHHPBD@Z
            2733DB33FF803E00741E0FBE043750FF15........85:
              0. 1D A70F 003D (l)0000:?GetDigitIndex@@YAHHPBD@Z
          8B7C2410:
            33DB8D04:
              76C1E003505357E8........83C40C8BC6:
                0. 12 46E6 0059 0000:?ConstructElements@@YGXPAVSECABrowsedEvent@@H@Z
              B6C1E003505357E8........83C40C8BC6:
                0. 12 B6FC 0062 0000:?ConstructElements@@YGXPAVSECABrowseProp@@H@Z
            8BD9FF36FF37E8........:
              6A67568BCBE8:
                0. 03 0B89 0030 0000:?ParseEra@SECDateTimeCtrl@@IAEXAAPBD0I@Z
                1. 0C 39CB 002C 0000:?ParseEra@SECDateTimeCtrl@@IAEXAAPBG0I@Z
                2. 04 97D1 0031 0000:?ParseEra@SECDateTimeCtrl@@IAEXAAPBD0I@Z
              8B06668B0883C0028906:
                0. 1F C769 004F 0000:?ParseQuotedText@SECDateTimeCtrl@@IAEXAAPBG0I@Z
          FF7424188B7C24148BD95657E8........FF771C8BCBFF7628:
            0. 14 9A42 0034 0000:?inflate_blocks_free@SECComp@@QAEHPAUinflate_blocks_state@@PAUz_stream_s@@PAK@Z
        18578B7C241856FF7424188BD9576A006A006A136A13FF74242CE8:
          0. 00 0000 0051 0000:?inflate_trees_bits@SECComp@@QAEHPAG0PAPAUinflate_huft_s@@PAUz_stream_s@@@Z
      D9E8........8B70:
        4833C93BC174393BF17435390D........75068935:
          0. 00 0000 005A 0000:?LoadFromFrame@SECShortcutTable@@MAEHXZ
        4C33C93BC174393BF17435390D........75068935:
          0. 00 0000 005A 0000:?LoadFromFrame@SECShortcutTable@@MAEHXZ
      F1:
        33DB57:
          39:
            5E:
              4C74658B46508B7C24103BC374043BFB75613BC375043B:
                0. 13 8D9F 0085 0000:?Scroll@SECMarquee@@QAEHH@Z
              5074658B46548B7C24103BC374043BFB75613BC375043B:
                0. 13 CB9D 0085 0000:?Scroll@SECMarquee@@QAEHH@Z
            9E:
              9400000074075353E8........8B8E980000008DBE9800:
                0. 1F E207 003F 0000:?Tidy@SECDateTimeCtrl@@IAEXXZ
              9800000074075353E8........8B8E9C0000008DBE9C00:
                0. 1F E60D 003F 0000:?Tidy@SECDateTimeCtrl@@IAEXXZ
              F40000007518E8........8B8EF800000053538BF8E8:
                0. 00 0000 0075 0000:?OnSetText@SECMDIFrameWnd@@IAEJIJ@Z
              F80000007518E8........8B8EFC00000053538BF8E8:
                0. 00 0000 0075 0000:?OnSetText@SECMDIFrameWnd@@IAEJIJ@Z
          8B46083BC375:
            1BBF001000006A:
              0157E8........593BC35989:
                0. 16 8050 00C0 0000:?ResetScaner@SECATokenizer@@QAEXXZ
              0257E8........593BC35989:
                0. 1A 14FD 00C6 0000:?ResetScaner@SECATokenizer@@QAEXXZ
            1CBF001000006A:
              0157FF15........593BC359:
                0. 18 931D 00C2 0000:?ResetScaner@SECATokenizer@@QAEXXZ
              0257FF15........593BC359:
                0. 1C FD8C 00C8 0000:?ResetScaner@SECATokenizer@@QAEXXZ
        57:
          33:
            DB:
              33FF39:
                1E7E:
                  128BCB034E04E8........4783C30C3B3E7CEE5F:
                    0. 03 FC96 0023 0000:?Reset@SECCryptoBlackBox@@QAEXXZ
                  16FF7424108BCB034E04E8........4783C30C3B:
                    0. 09 38BE 0029 0000:?SetPtr@SECCryptoBlackBox@@QAEXJ@Z
                9E:
                  840000007E2A578BCEE8........85C0741583781C:
                    0. 21 E1AF 0041 0000:?GetDockedVisibleCount@SECDockBar@@UBEHXZ
                  880000007E2A578BCEE8........85C07415837820:
                    0. 21 6CF6 0041 0000:?GetDockedVisibleCount@SECDockBar@@UBEHXZ
                  F80000007E778B86F40000008B0C98E8........83:
                    0. 6F 01AA 008F 0000:?GetNullFields@SECDateTimeCtrl@@IBEGXZ
                  FC0000007E778B86F80000008B0C98E8........83:
                    0. 6F B5BC 008F 0000:?GetNullFields@SECDateTimeCtrl@@IBEGXZ
              8B06FF90:
                0802000085C07E:
                  308B06538BCEFF90100200008BF8:
                    0. 0A 8944 005F 0000:?FindColumn@SECListBaseV@@UBEHABVCString@@AAH1@Z
                  328B06538BCEFF90100200008B4C:
                    0. 0C 0C9E 0061 0000:?FindColumn@SECListBaseV@@UBEHABVCString@@AAH1@Z
                1002000085C07E:
                  318B06538BCEFF90180200008BF8:
                    0. 0B 4076 0060 0000:?FindColumn@SECListBaseV@@UBEHABVCString@@AAH1@Z
                  338B06538BCEFF90180200008B4C:
                    0. 0D 3FA5 0062 0000:?FindColumn@SECListBaseV@@UBEHABVCString@@AAH1@Z
                B801000085C07E:
                  308B06538BCEFF90C00100008BF8:
                    0. 0A 8944 005F 0000:?FindColumn@SECListBaseC@@UBEHABVCString@@AAH1@Z
                  328B06538BCEFF90C00100008B4C:
                    0. 0C 0C9E 0061 0000:?FindColumn@SECListBaseC@@UBEHABVCString@@AAH1@Z
                C001000085C07E:
                  318B06538BCEFF90C80100008BF8:
                    0. 0B 4076 0060 0000:?FindColumn@SECListBaseC@@UBEHABVCString@@AAH1@Z
                  338B06538BCEFF90C80100008B4C:
                    0. 0D 3FA5 0062 0000:?FindColumn@SECListBaseC@@UBEHABVCString@@AAH1@Z
              8DBE:
                140200008BCFE8........85C07E21558B6E3C538BCFE8:
                  0. 00 0000 0054 0000:?OnEditDelete@SECScriptHostView@@IAEXXZ
                1C0200008BCFE8........85C07E21558B6E40538BCFE8:
                  0. 00 0000 0054 0000:?OnEditDelete@SECScriptHostView@@IAEXXZ
            FF8B46303BC7741C8B1D........50FFD350FF15........FF76:
              0. 06 BF23 00CB 0000:?MakeBMI@SECTarga@@IAEXXZ
          6AFF8B5E088D430150E8........8B4E048B7424108D045B8D3C41:
            0. 0B 3A66 002B 0000:?Add@?$CArray@UtagACCEL@@AAU1@@@QAEHAAUtagACCEL@@@Z
          83:
            7E480075:
              648B4E046A015850894648E8........8B46048B1D:
                0. 00 0000 0073 0000:?EnableMainFrame@SECToolBarManager@@QAEXXZ
              658B4E046A015850894648E8........8B46048B1D:
                0. 00 0000 0074 0000:?EnableMainFrame@SECToolBarManager@@QAEXXZ
            BE:
              00020000007409F686:
                6E16000040752A8B5C24108B3E8BCBE8:
                  0. 00 0000 00A1 0000:?SetPage@SECCalendar@@QAEHABVCOleDateTime@@H@Z
                CE16000040752A8B5C24108B3E8BCBE8:
                  0. 00 0000 00A1 0000:?SetPage@SECCalendar@@QAEHABVCOleDateTime@@H@Z
              14020000007409F686:
                8216000040752A8B5C24108B3E8BCBE8:
                  0. 00 0000 00A1 0000:?SetPage@SECCalendar@@QAEHABVCOleDateTime@@H@Z
                E216000040752A8B5C24108B3E8BCBE8:
                  0. 00 0000 00A1 0000:?SetPage@SECCalendar@@QAEHABVCOleDateTime@@H@Z
              880000000175:
                498B7C241085FF7C418B4630483BF87D398B5C:
                  0. 08 A6B4 0062 0000:?TokenFromChar@SECATokenizer@@QAEHHH@Z
                548B5C241085DB7C4C8B4630483BD87D448B7C:
                  0. 08 3861 006D 0000:?TokenFromChar@SECATokenizer@@QAEHHH@Z
              F800000000750AE8........E9DD000000FF7424188B5C2418:
                0. 04 FD99 00FB 0000:?OnLButtonDown@SECDateTimeCtrl@@IAEXIVCPoint@@@Z
              FC00000000750AE8........E9DD000000FF7424188B5C2418:
                0. 04 FD99 00FB 0000:?OnLButtonDown@SECDateTimeCtrl@@IAEXIVCPoint@@@Z
          8B:
            06FF:
              50:
                088BD88B068BCEFF500C8BF88BCF8B07FF500C85C07403:
                  0. 30 B217 0050 0000:?SwapPrev@SECTreeNode@@QAEXXZ
                1CFF76508B1D........FFD3508D4E60E8........8B7E:
                  0. 05 6420 003D 0000:?InitializeGDIResources@SECBar@@UAEXXZ
                24FF76508B1D........FFD3508D4E60E8........8B7E:
                  0. 05 6420 003D 0000:?InitializeGDIResources@SECBar@@UAEXXZ
              90:
                180200008BD833FF85DB7E:
                  13578BCEE8........3B4424:
                    0. 1B 83BB 003B 0000:?DeleteItem@SECListBaseV@@UAEHPAVSECListItem@@@Z
                  15578BCEE8........85C074:
                    0. 0E 0ABA 002E 0000:?ClearMeasurements@SECListBaseV@@IAEXXZ
                200200008BD833FF85DB7E:
                  13578BCEE8........3B4424:
                    0. 1B AAD2 003B 0000:?DeleteItem@SECListBaseV@@UAEHPAVSECListItem@@@Z
                  15578BCEE8........85C074:
                    0. 0E 0ABA 002E 0000:?ClearMeasurements@SECListBaseV@@IAEXXZ
                2C0200008BF88B068BCEFF90A80200008B5C2410A80474:
                  0. 55 F51E 0075 0000:?SelectFocusItem@SECListBaseC@@UAEHHH@Z
                340200008BF88B068BCEFF90B00200008B5C2410A80474:
                  0. 55 BA5D 0075 0000:?SelectFocusItem@SECListBaseC@@UAEHHH@Z
                3C0100008B066A008BCEFF90140100008B068BCEFF9028:
                  0. 1C AD55 00CE 0000:?OnDestroy@SECScriptHostView@@IAEXXZ
                440100008B066A008BCEFF901C0100008B068BCEFF9030:
                  0. 1C 808B 00CE 0000:?OnDestroy@SECScriptHostView@@IAEXXZ
                7C0200008BF88B068BCEFF90F80200008B5C2410A80474:
                  0. 55 BF8E 0075 0000:?SelectFocusItem@SECListBaseV@@UAEHHH@Z
                840200008BF88B068BCEFF90000300008B5C2410A80474:
                  0. 55 2242 0075 0000:?SelectFocusItem@SECListBaseV@@UAEHHH@Z
                C80100008BD833FF85DB7E:
                  13578BCEE8........3B4424:
                    0. 1B 95B1 003B 0000:?DeleteItem@SECListBaseC@@UAEHPAVSECListItem@@@Z
                  15578BCEE8........85C074:
                    0. 0E 0ABA 002E 0000:?ClearMeasurements@SECListBaseC@@IAEXXZ
                D00100008BD833FF85DB7E:
                  13578BCEE8........3B4424:
                    0. 1B BCD8 003B 0000:?DeleteItem@SECListBaseC@@UAEHPAVSECListItem@@@Z
                  15578BCEE8........85C074:
                    0. 0E 0ABA 002E 0000:?ClearMeasurements@SECListBaseC@@IAEXXZ
            3D........:
              68........8B465C33DB50FFD75985C05975146A04:
                0. 01 3E9B 0061 0000:?CreateLangAwareObject@SECAContainerProps@@UAEPAVSECALangAwareObj@@XZ
              6A018B46085B85C0741C50FFD785C0894604740233:
                0. 35 1201 0055 0000:?Close@SECRegistry@@UAEHXZ
                1. 35 376A 0055 0000:?Close@SECRegistry@@UAEHXZ
              8D460850FFD78D461850FFD733DB68........8D4E:
                0. 08 F3C1 006D 0000:?InitBar@SECBar@@IAEXXZ
            46348D7E348BCFFF90D40000003B4424148B5C24107407837C24:
              0. 3C F7DA 0073 0000:?RegisterAndResetMemMgr@SECDockFloatingNode@@UAEXPAVSECLNDockingMgr@@PBV?$SECObjectMemoryManager_T@VSECLayoutNode@@@@@Z
            4C24108B7C24148B46088B56042BC18D1C492BC785C08D1C5A74:
              0. 13 36E7 0043 0000:?RemoveAt@?$CArray@UtagACCEL@@AAU1@@@QAEXHH@Z
              1. 14 7452 0044 0000:?RemoveAt@?$CArray@UtagACCEL@@AAU1@@@QAEXHH@Z
            4E:
              1485C974076A00E8........8B5E143B5C2410752A8B560833:
                0. 31 6BFF 00AA 0000:?RemoveItem@SECASelection@@QAEHPAVSECACtrlItem@@@Z
              448B01FF1033FF8BD83BF7742F8B461C3BC7742850FF15:
                0. 00 0000 0080 0000:?Hide@SECListTip@@QAEXXZ
              488B01FF1033FF8BD83BF7742F8B46203BC7742850FF15:
                0. 00 0000 0080 0000:?Hide@SECListTip@@QAEXXZ
            7C2410:
              33DB8B0657FF90:
                9C00000085C00F84870000008B07558B:
                  0. 31 E2E1 00AB 0000:?Undock@SECMultiDocTemplate@@UAEPAVCFrameWnd@@PAV2@@Z
                A400000085C00F84880000008B07558B:
                  0. 31 9DFC 00AC 0000:?Undock@SECMultiDocTemplate@@UAEPAVCFrameWnd@@PAV2@@Z
              6A018B86:
                80000000578D4E7C8B1CB8E8........53E8:
                  0. 00 0000 005E 0000:?RemoveTab@SECTabWnd@@UAEXH@Z
                84000000578D8E800000008B1CB8E8:
                  0. 02 9E9D 0061 0000:?RemoveTab@SECTabWnd@@UAEXH@Z
              8B5E:
                548BC33BF8743C8BCBF7D123C88B060BCF894E548B:
                  0. 2A D786 0056 0000:?SetTabStyle@SEC3DTabWnd@@QAEKK@Z
                588BC33BF8743C8BCBF7D123C88B060BCF894E588B:
                  0. 2A F6BD 0056 0000:?SetTabStyle@SEC3DTabWnd@@QAEKK@Z
                64578BC380E4F0894664E8........F6C304895E64:
                  0. 11 F85E 003B 0000:?OnWindowPosChanging@SECToolBar@@IAEXPAUtagWINDOWPOS@@@Z
                68578BC380E4F0894668E8........F6C304895E68:
                  0. 11 F57D 003B 0000:?OnWindowPosChanging@SECToolBar@@IAEXPAUtagWINDOWPOS@@@Z
            86:
              040200003B86940100007D1050E8........6A00508BCEE8:
                0. 00 0000 0080 0000:?OnActivationChanged@SECWorkbook@@IAEJIJ@Z
              080200003B86980100007D1050E8........6A00508BCEE8:
                0. 00 0000 0080 0000:?OnActivationChanged@SECWorkbook@@IAEJIJ@Z
            8E:
              A0000000E8........85C0740FFF7424108BC8E8........85:
                0. 1A B2E3 006D 0000:?GetControlBar@SECToolBarCmdPage@@IAEPAVSECCustomToolBar@@I@Z
              A4000000E8........85C0740FFF7424108BC8E8........85:
                0. 1A ED5A 006D 0000:?GetControlBar@SECToolBarCmdPage@@IAEPAVSECCustomToolBar@@I@Z
          8DBE:
            140200008BCFE8........83F80175:
              0B6A008BCFE8:
                0. 05 32F3 005B 0000:?OnLayoutSendToBack@SECScriptHostView@@IAEXXZ
              1433DB8BCF5353E8:
                0. 00 0000 006B 0000:?OnEditPaste@SECScriptHostView@@IAEXXZ
            1C0200008BCFE8........83F80175:
              0B6A008BCFE8:
                0. 05 32F3 005B 0000:?OnLayoutSendToBack@SECScriptHostView@@IAEXXZ
              1433DB8BCF5353E8:
                0. 00 0000 006B 0000:?OnEditPaste@SECScriptHostView@@IAEXXZ
            9000000085FF750433C0EB038B472050FF15........85C075:
              0. 0E 9A06 00BE 0000:?CreateToolBars@SECScriptHostView@@UAEXPAVCWnd@@@Z
          F646:
            4008740A6AFFFF15........EB28837E5400740C8D4E70E8:
              0. 00 0000 006C 0000:?HandleDecimalPoint@SECCalculator@@IAEHW4SECCalcOp@1@@Z
            4408740A6AFFFF15........EB28837E5400740C8D4E70E8:
              0. 00 0000 006C 0000:?HandleDecimalPoint@SECCalculator@@IAEHW4SECCalcOp@1@@Z
          FF76:
            408D7E40E8........6A006A0168B9000000FF761CFF15:
              0. 00 0000 003A 0000:?UpdateDisplay@SECMaskEdit@@MAEXXZ
            448D7E44E8........6A006A0168B9000000FF7620FF15:
              0. 00 0000 003A 0000:?UpdateDisplay@SECMaskEdit@@MAEXXZ
        83BE88000000010F85:
          3B01000033DB395C240C0F8C2F0100008B4630:
            0. 0D 0399 0153 0000:?StartScanFromLine@SECATokenizer@@QAEHH@Z
          5D01000033DB395C240C0F8C510100008B4630:
            0. 0D E416 0175 0000:?StartScanFromLine@SECATokenizer@@QAEHH@Z
        8B:
          4424108B4C240C578BD98BF883E33F24C08BD383E73FF7D22356:
            68:
              0. 0F F906 0067 0000:?ModifyBarStyle@SECShortcutBar@@QAEXKKH@Z
            6C:
              0. 0F 9961 0067 0000:?ModifyBarStyle@SECShortcutBar@@QAEXKKH@Z
          460485C0740B50E8........8366040059837C2410008B5C240C74:
            0. 09 5B52 0045 0000:?InitHashTable@?$CMap@PAVCFrameWnd@@PAV1@PAVSECPersistentTreeNode@@PAV2@@@QAEXIH@Z (001B: 00)
        B9........E8........33DB395E:
          50742C578D7E4C8BCFE8:
            0. 05 C93E 004B 0000:?OnSysColorChange@SECDropEdit@@IAEXXZ
          54742C578D7E508BCFE8:
            0. 05 6A9B 004B 0000:?OnSysColorChange@SECDropEdit@@IAEXXZ
    FF74240C8BF18B06FF50:
      408BD885DB741F578B3EFF7424108BCEFF742414:
        0. 0D B367 0041 0000:?OnScxSelectNewFrame@ScxMsgFilter@nsSysCommandEx@@UAEKAAVScxInfo@2@PAJ@Z
      488BD885DB741F578B3EFF7424108BCEFF742414:
        0. 0D E328 0041 0000:?OnScxSelectNewFrame@ScxMsgFilter@nsSysCommandEx@@UAEKAAVScxInfo@2@PAJ@Z
  57:
    6A09FF742410FF15........8BF833C0593BF8597405668907EB048B7C24:
      0. 15 3535 004F 0000:?UpdateMenuItem@SECShortcutTable@@MAEXPAGABVCString@@H@Z
    8B:
      7C24:
        0C8B:
          5F0885DB7E295633F685DB7E168B47048B0CB085C974078B01:
            0. 11 4B0F 0039 0000:?EmptyUserToolArray@@YAXAAVCObArray@@@Z
          D9837F1000750433C0EB2F55568BF76A06568BCB8BEEE8:
            0. 00 0000 0046 0000:?SelectAllVisibleChildren@SECTreeBaseV@@QAEHPAU_TREEITEM@@@Z (REF 001E: ?GetNextItem@SECTreeBaseV@@QBEPAU_TREEITEM@@PAU2@I@Z)
            1. 00 0000 0046 0000:?SelectAllVisibleChildren@SECTreeBaseC@@QAEHPAU_TREEITEM@@@Z (REF 001E: ?GetNextItem@SECTreeBaseC@@QBEPAU_TREEITEM@@PAU2@I@Z)
        1085FF740D8B44240C8B008B58F885DB750433C0EB:
          468B4C24148B:
            0. 0B 4DF9 0066 0000:?BuildBufferFromString@SECPersistentTreeNode@@IAEHABVCString@@PAPAEAAI@Z
          488B4C24148B:
            0. 0B 4DF9 0068 0000:?BuildBufferFromString@SECPersistentTreeNode@@IAEHABVCString@@PAPAEAAI@Z
      F9:
        33DB395F:
          0C7E2D568B47088B349883BE980000000074168B4E5CE8:
            0. 00 0000 003D 0000:?ApplyControlBarInfoMDIChildren@SECDockState@@MAEXPAVCFrameWnd@@@Z
          387E3B568B47348B349885F674298B46:
            1C85C0742250FF15:
              0. 00 0000 004B 0000:?BarNotify@SECToolBarManager@@QAEXHW4BarNotifyCode@SECCustomToolBar@@@Z
            2085C0742250FF15:
              0. 00 0000 004B 0000:?BarNotify@SECToolBarManager@@QAEXHW4BarNotifyCode@SECCustomToolBar@@@Z
        8B4C2410E8........8B5C240C8B038378F800750733C0E99F000000:
          0. 12 7EEA 00C4 0000:?GetAllStanzaEntries@SECPTNStrategyProfile@@MAEHABVCString@@AAVCStringList@@@Z
        E8........85C0744556BE........6A005668........6A0050E8:
          0. 00 0000 0059 0000:?DenyChildTargetHitTest@SECDefDockTargetBase@@UAEKABVCPoint@@PAVSECLayoutNode@@@Z
  6A006A0068:
    88010000FF:
      7178FF15........8B4C240833DB:
        83F8FF8B110F95:
          0. 08 B2EF 0028 0000:?OnUpdateFields@SECUserToolsDlg@@IAEXPAVCCmdUI@@@Z
        85C08B110F9FC3:
          0. 07 72C4 0027 0000:?OnUpdateMoveUp@SECUserToolsDlg@@IAEXPAVCCmdUI@@@Z
      B180000000FF15........8B4C240833DB:
        83F8FF8B:
          0. 0B 46A3 002B 0000:?OnUpdateFields@SECUserToolsDlg@@IAEXPAVCCmdUI@@@Z
        85C08B11:
          0. 0A 0E0F 002A 0000:?OnUpdateMoveUp@SECUserToolsDlg@@IAEXPAVCCmdUI@@@Z
    8B010000FF:
      7178FF15........8B4C240833DB83F8098B110F9C:
        0. 08 B2EF 0028 0000:?OnUpdateAdd@SECUserToolsDlg@@IAEXPAVCCmdUI@@@Z
      B180000000FF15........8B4C240833DB83F8098B:
        0. 0B 7191 002B 0000:?OnUpdateAdd@SECUserToolsDlg@@IAEXPAVCCmdUI@@@Z
  8A5C2408:
    0FBEC3568BF150:
      E8........85C059740980FB30740433C0EB066A:
        0. 0A 60AF 002A 0000:?SetPaddingCharacter@Format@SECCurrencyEdit@@QAEHD@Z
      FF15........85C059740980FB30740433C0EB06:
        0. 0B CBFB 002B 0000:?SetPaddingCharacter@Format@SECCurrencyEdit@@QAEHD@Z
    568BF1F6C3027424578D7EFC68........FF376A0C56E8:
      0. 07 B312 004B 0000:??_ESECCryptoRotor@@QAEPAXI@Z
  8B:
    1D........55568B:
      7424105733FF8BE9397E18754C8B4D443BCF7505397D:
        0. 3B 6C92 00B7 0000:?LoadBitmapA@SECBmpMgr@@IAEHPAUBmpInfo@1@H@Z (005B: 00)
      F1578B7C2414FF76:
        1C897E50FFD333ED85C074113BFD:
          0. 09 F60E 0055 0000:?SetAlwaysOnTop@SECSplashWnd@@UAEXH@Z
        20897E54FFD333ED85C074123BFD:
          0. 0A B386 0057 0000:?SetAlwaysOnTop@SECSplashWnd@@UAEXH@Z
    5C24:
      08:
        5556:
          57:
            8BF16A018B065D53FF90:
              AC0300008BF88BCE57895F388B06:
                0. 32 64FA 0052 0000:?NextPage@SECListView@@MAEHPAVCDC@@@Z
              B40300008BF88BCE57895F388B06:
                0. 32 53DA 0052 0000:?NextPage@SECListView@@MAEHPAVCDC@@@Z
            8D731868F80000006A008BE956E8........6A01834E34FF:
              0. 5C 5327 0090 0000:?TIFFDefaultDirectory@SECTiff@@QAEJPAUtiff@@@Z
          8B:
            8B700100005733C0668B7102668379020074200FBFD60FBF:
              0. 0A 95B7 00AE (l)0000:?decode_white_run@@YAHPAUtiff@@@Z
            F1:
              57:
                8B86AC0000008B0C988D3C98E8........8B0F0C0150:
                  0. 01 3E9B 0085 0000:?PressBtn@SECCalculator@@IAEXH@Z
                8D46:
                  5C506846A8000053E8........33FF393B745357:
                    0. 03 7AD8 00EB 0000:?DoDataExchange@SECUserToolsDlg@@MAEXPAVCDataExchange@@@Z
                  60506846A8000053E8........33FF393B745957:
                    0. 03 7AD8 00FA 0000:?DoDataExchange@SECUserToolsDlg@@MAEXPAVCDataExchange@@@Z
              68........538B06FF:
                507885C0894424107419FF33E8:
                  0. 00 0000 0056 0000:?BuildInspectMenu@ScxMsgFilter@nsSysCommandEx@@UAEPAUHMENU__@@ABVScxInfo@2@@Z
                908000000085C089442410741AFF:
                  0. 02 CBF8 005A 0000:?BuildInspectMenu@ScxMsgFilter@nsSysCommandEx@@UAEPAUHMENU__@@ABVScxInfo@2@@Z
        56:
          33F6573BDE8BF9750433C0EB:
            3B568BCFE8........85C07C248B:
              0. 1C CBF9 0054 0000:?OnGetText@SECStatusBar@@IAEJIJ@Z
              1. 1C E72F 0054 0000:?OnGetText@SECStatusBar@@IAEJIJ@Z
            3F568BCFE8........85C07C278B:
              0. 1F B5BA 0058 0000:?OnGetText@SECStatusBar@@IAEJIJ@Z
              1. 1F C617 0058 0000:?OnGetText@SECStatusBar@@IAEJIJ@Z
          57:
            6AFF8BF153E8........8BF885FF7C20578BCEE8........85:
              0. 07 3C19 004B 0000:?OnBarHideShow@SECDockBar@@UAEXPAVCControlBar@@@Z
            83FB028BF9740983FB01740485DB752F8BCFE8........5068:
              0. 00 0000 005C 0000:?OnSize@SECMDIChildWnd@@IAEXIHH@Z
            85DB8BF9740E8B4C24188B01FF108BF085F6750433C0EB698B:
              0. 49 C619 008E 0000:?CreateNodeDC@SECLayoutFactory@@QAEPAVSECLayoutNodeDCBase@@PAVCWnd@@PAVSECLayoutNode@@ABV?$SECClassFactory@VSECLayoutNodeDCBase@@@@PBD@Z (REF 0069: ??4CString@@QAEABV0@PBD@Z)
              1. 49 C619 008E 0000:?CreateNodeDC@SECLayoutFactory@@QAEPAVSECLayoutNodeDCBase@@PAVCWnd@@PAVSECLayoutNode@@ABV?$SECClassFactory@VSECLayoutNodeDCBase@@@@PBG@Z (REF 0069: ??4CString@@QAEABV0@PBG@Z)
              2. 49 F04F 008E 0000:?CreateNodeDC@SECLayoutFactory@@QAEPAVSECLayoutNodeDCBase@@PAVCWnd@@PAVSECLayoutNode@@ABV?$SECClassFactory@VSECLayoutNodeDCBase@@@@PBD@Z (REF 0069: ??4CString@@QAEABV0@PBD@Z)
              3. 49 F04F 008E 0000:?CreateNodeDC@SECLayoutFactory@@QAEPAVSECLayoutNodeDCBase@@PAVCWnd@@PAVSECLayoutNode@@ABV?$SECClassFactory@VSECLayoutNodeDCBase@@@@PBG@Z (REF 0069: ??4CString@@QAEABV0@PBG@Z)
            8B:
              038378F80074:
                228B714C85F6741BFF338BC68B368B7808FF:
                  0. 03 37C6 0039 0000:?FindKey@SECPersistentTreeNode@@IAEPAVSECPersTreeNodeKeyValuePair@1@ABVCString@@@Z
                238B714C85F6741CFF338BC68B368B7808FF:
                  0. 04 372A 003A 0000:?FindKey@SECPersistentTreeNode@@IAEPAVSECPersTreeNodeKeyValuePair@1@ABVCString@@@Z
                248B714C85F6741D8BC68B368B78088B0350:
                  0. 05 8864 003B 0000:?FindKey@SECPersistentTreeNode@@IAEPAVSECPersTreeNodeKeyValuePair@1@ABVCString@@@Z
                258B714C85F6741E8BC68B368B78088B0350:
                  0. 06 E967 003C 0000:?FindKey@SECPersistentTreeNode@@IAEPAVSECPersTreeNodeKeyValuePair@1@ABVCString@@@Z
              1383FAFF751A8B710833FF85F676118B41048B1085D27508:
                0. 47 5EDA 0067 0000:?GetNextAssoc@?$CMap@PAUHMENU__@@PAU1@PAUSECBmpMenuInfo@SECBmpMenuPlugIn@@PAU23@@@QBEXAAPAU__POSITION@@AAPAUHMENU__@@AAPAUSECBmpMenuInfo@SECBmpMenuPlugIn@@@Z
              3D........8BF153FF7604FFD785C0740B83C30853FF7604:
                0. 0C 6DFA 002C 0000:?ScreenToClient@SECLNHwndContainer@@UAEHPAUtagRECT@@@Z (REF 0009: ScreenToClient)
                1. 0C 6DFA 002C 0000:?ClientToScreen@SECLNHwndContainer@@UAEHPAUtagRECT@@@Z (REF 0009: ClientToScreen)
              7C24148BF157538B066A00FF90900000008B0657536A018B:
                0. 2C DD4D 004C 0000:?SetBorderSizing@SECFrameDockingFeature@@UAEHABVSECSetBorderSizingParms@@H@Z
              F133FF39:
                7C2414895E24741D397E187E188B46148B0CB885:
                  0. 17 1BBC 0037 0000:?SetWindow@SECMsgFilter@@UAEXPAVCWnd@@H@Z
                  1. 17 7391 0037 0000:?SetWindow@SECMsgFilter@@UAEXPAVCWnd@@H@Z
                BE:
                  900000007E398B86F40000008B0CB8E8:
                    0. 00 0000 00AB 0000:?GadgetFromPoint@SECDateTimeCtrl@@QAEHVCPoint@@@Z
                  940000007E398B86F80000008B0CB8E8:
                    0. 00 0000 00AB 0000:?GadgetFromPoint@SECDateTimeCtrl@@QAEHVCPoint@@@Z
              F9:
                538B07FF900C01000085C0740A538BCFE8........EB53:
                  0. 59 FA67 0079 0000:?RemoveLayoutNode@SECLNDynamicGrid2d@@UAEHPAVSECLayoutNode@@@Z
                899F:
                  54010000E8........8BF085F6741353568BCFE8:
                    0. 00 0000 0033 0000:?HideDisabledItems@SECTreeBaseC@@QAEXH@Z
                  58010000E8........8BF085F6741353568BCFE8:
                    0. 00 0000 0033 0000:?HideDisabledItems@SECTreeBaseC@@QAEXH@Z
                  90010000E8........8BF085F6741353568BCFE8:
                    0. 00 0000 0033 0000:?HideDisabledItems@SECTreeBaseV@@QAEXH@Z
                  94010000E8........8BF085F6741353568BCFE8:
                    0. 00 0000 0033 0000:?HideDisabledItems@SECTreeBaseV@@QAEXH@Z
          8B:
            74241057568BF953E8........6A02E8........598906C603:
              0. 10 1B2C 0030 0000:?GetBtnInfo@SECWndBtn@@UBEXPAEPAPAE@Z
            F1:
              57:
                33FF899E:
                  D801000039BE940100007E2B8B86900100008B:
                    0. 17 39A8 007A 0000:?EnableBitFlag@SECMenuBar@@UAEXKH@Z
                  DC01000039BE980100007E2B8B86940100008B:
                    0. 17 39A8 007A 0000:?EnableBitFlag@SECMenuBar@@UAEXKH@Z
                3B9E:
                  480100008DBE4801000074166A00E8........6A00:
                    0. 09 1077 0033 0000:?EnableConfigMode@SECCustomToolBar@@QAEXH@Z
                  4C0100008DBE4C01000074166A00E8........6A00:
                    0. 09 F1D4 0033 0000:?EnableConfigMode@SECCustomToolBar@@QAEXH@Z
                6A008DBE:
                  1C010000538BCFE8........85C07408508BCF:
                    0. 01 3E9B 003C 0000:?RemoveWindow@SECFDIFrameWnd@@QAEXPAVCWnd@@@Z
                  20010000538BCFE8........85C07408508BCF:
                    0. 01 3E9B 003C 0000:?RemoveWindow@SECFDIFrameWnd@@QAEXPAVCWnd@@@Z
                8B:
                  86:
                    900100008D3C988B06FF9094010000505656FF7424:
                      0. 0F 6479 003C 0000:?DragButton@SECCustomToolBar@@MAEHHVCPoint@@@Z
                    940100008D3C988B06FF909C010000505656FF7424:
                      0. 0F 7454 003C 0000:?DragButton@SECCustomToolBar@@MAEHHVCPoint@@@Z
                  8E:
                    1C01000085C9740D8B0153FF909000000085C0753B:
                      0. 11 41F0 006E 0000:?PreTranslateMessage@SECMDIFrameWnd@@UAEHPAUtagMSG@@@Z
                    2001000085C9740D8B0153FF909800000085C0753B:
                      0. 11 A5C9 006E 0000:?PreTranslateMessage@SECMDIFrameWnd@@UAEHPAUtagMSG@@@Z
                    E800000085C9740D8B0153FF909000000085C0753B:
                      0. 11 41F0 006E 0000:?PreTranslateMessage@SECFrameWnd@@UAEHPAUtagMSG@@@Z
                    EC00000085C9740D8B0153FF909800000085C0753B:
                      0. 11 A5C9 006E 0000:?PreTranslateMessage@SECFrameWnd@@UAEHPAUtagMSG@@@Z
              832300578B86:
                940100006A01485F781E8B8E900100008B0C:
                  0. 10 2E5E 0069 0000:?RemoveCapBtns@SECMDIMenuBar@@IAEXAAH0@Z
                980100006A01485F781E8B8E940100008B0C:
                  0. 10 5E9D 0069 0000:?RemoveCapBtns@SECMDIMenuBar@@IAEXAAH0@Z
              8B:
                03578BCBFF50043B86:
                  4C010000750F8B038BCBFF500C85:
                    0. 0B 7B1F 0067 0000:?AddNodeToListBox@SECTreeBaseC@@IAEHPAV_Node@@@Z
                  50010000750F8B038BCBFF500C85:
                    0. 0B 7B1F 0067 0000:?AddNodeToListBox@SECTreeBaseC@@IAEHPAV_Node@@@Z
                  88010000750F8B038BCBFF500C85:
                    0. 0B 7B1F 0067 0000:?AddNodeToListBox@SECTreeBaseV@@IAEHPAV_Node@@@Z
                  8C010000750F8B038BCBFF500C85:
                    0. 0B 7B1F 0067 0000:?AddNodeToListBox@SECTreeBaseV@@IAEHPAV_Node@@@Z
                C333D28B4E0857C1E804F7F18B4E0485C98BFA741A8B04:
                  0. 20 BF75 006D 0000:??A?$CMap@PAVCFrameWnd@@PAV1@PAVSECPersistentTreeNode@@PAV2@@@QAEAAPAVSECPersistentTreeNode@@PAVCFrameWnd@@@Z (REF 0040: ?InitHashTable@?$CMap@PAVCFrameWnd@@PAV1@PAVSECPersistentTreeNode@@PAV2@@@QAEXIH@Z)
                  1. 20 BF75 006D 0000:??A?$CMap@IIKK@@QAEAAKI@Z (REF 0040: ?InitHashTable@?$CMap@IIKK@@QAEXIH@Z)
                  2. 20 BF75 006D 0000:??A?$CMap@IIPAUBmpItem@SECBmpMgr@@PAU12@@@QAEAAPAUBmpItem@SECBmpMgr@@I@Z (REF 0040: ?InitHashTable@?$CMap@IIPAUBmpItem@SECBmpMgr@@PAU12@@@QAEXIH@Z)
                  3. 20 BF75 006D 0000:??A?$CMap@PAUHMENU__@@PAU1@PAUSECBmpMenuInfo@SECBmpMenuPlugIn@@PAU23@@@QAEAAPAUSECBmpMenuInfo@SECBmpMenuPlugIn@@PAUHMENU__@@@Z (REF 0040: ?InitHashTable@?$CMap@PAUHMENU__@@PAU1@PAUSECBmpMenuInfo@SECBmpMenuPlugIn@@PAU23@@@QAEXIH@Z)
                  4. 20 BF75 006D 0000:??A?$CMap@IIII@@QAEAAII@Z (REF 0040: ?InitHashTable@?$CMap@IIII@@QAEXIH@Z)
                  5. 20 BF75 006D 0000:??A?$CMap@IIPAUHMENU__@@PAU1@@@QAEAAPAUHMENU__@@I@Z (REF 0040: ?InitHashTable@?$CMap@IIPAUHMENU__@@PAU1@@@QAEXIH@Z)
                  6. 20 BF75 006D 0000:??A?$CMap@IIHH@@QAEAAHI@Z (REF 0040: ?InitHashTable@?$CMap@IIHH@@QAEXIH@Z)
                  7. 20 BF75 006D 0000:??A?$CMap@HHHAAH@@QAEAAHH@Z (REF 0040: ?InitHashTable@?$CMap@HHHAAH@@QAEXIH@Z)
        578BF985DB750433C0EB16568B37538BCFFF5620F7D81BC08BCF40:
          0. 0B E41B 002B 0000:?ToggleNodeVisible@SECFrameDockingFeatureBase@@UAEHPAVSECLayoutNode@@@Z
      0C:
        555685DB578BF17D0233DBFF742414:
          E8........3B5E30598BE87C:
            0. 13 D332 0078 0000:?FindMatch@SECDTListGadget@@IAEHPBDH@Z
          FF15........3B5E30598BE8:
            0. 14 CCCE 0079 0000:?FindMatch@SECDTListGadget@@IAEHPBGH@Z
        568B:
          736085F674438B442414FF7034E8........8B1659508BCEFF:
            0. 0B 5DE3 005B 0000:?LocateBorderTarget@SECDefDockNodeInitiatorBase@@MAEPAVISECDockTarget@@PAVSECLNDockingMgr@@PAVSECDockingNodeConstraints@@ABVSECDockInsertionConstraints@@@Z
          74240C83FBFF75038B5E2466837E6201755066837E40067549:
            0. 4B B9A7 0077 0000:?TIFFVStripSize@SECTiff@@QAEJPAUtiff@@K@Z
      10568B74240C399E880100007D1AFFB62001000068........FF3651:
        0. 01 3E9B 005E 0000:?DumpModeDecode@SECTiff@@QAEHPAUtiff@@PAEJG@Z
    C18B4C240833DB39:
      58:
        488B110F95C353FF52045BC20400:
          0. 00 0000 0019 0000:?OnUpdateViewEventBar@SECACodeView@@IAEXPAVCCmdUI@@@Z
        4C8B110F95C353FF52045BC20400:
          0. 00 0000 0019 0000:?OnUpdateViewEventBar@SECACodeView@@IAEXPAVCCmdUI@@@Z
      98:
        F80000008B110F95C353FF125BC20400:
          0. 00 0000 001B 0000:?OnUpdateFileSave@SECScriptHostDoc@@QAEXPAVCCmdUI@@@Z
        FC0000008B110F95C353FF125BC20400:
          0. 00 0000 001B 0000:?OnUpdateFileSave@SECScriptHostDoc@@QAEXPAVCCmdUI@@@Z
    D9:
      55568D43:
        788B8B9C000000578D73588BF88B2D........A5A5F7D9518B:
          0. 36 B771 0056 0000:?RefreshSplitterClientRects@SECSplitterBase@@MAEXXZ
        7C8B8BA0000000578D735C8BF88B2D........A5A5F7D9518B:
          0. 36 972A 0056 0000:?RefreshSplitterClientRects@SECSplitterBase@@MAEXXZ
      56:
        57:
          8BBB:
            D40000004F78238B83D0000000FF7424148B34B8FF7424148D:
              0. 05 F699 0039 0000:?HitTest@SECDockBar@@QAEPAVSplitter@1@VCPoint@@@Z
            D80000004F78238B83D4000000FF7424148B34B8FF7424148D:
              0. 05 F699 0039 0000:?HitTest@SECDockBar@@QAEPAVSplitter@1@VCPoint@@@Z
          8DB3:
            140200008BCEE8........8BCE33FFE8........85C07E1C57:
              0. 03 7AD8 003F 0000:?InvalidateSelectedItems@SECScriptHostView@@IAEXXZ
            1C0200008BCEE8........8BCE33FFE8........85C07E1C57:
              0. 03 7AD8 003F 0000:?InvalidateSelectedItems@SECScriptHostView@@IAEXXZ
          F643:
            65C0741D33F6397424107E0F568BCBE8........463B742410:
              0. 1A 77AF 0041 0000:?InvalidateToRow@SECDockBar@@QAEXH@Z
            69C0741D33F6397424107E0F568BCBE8........463B742410:
              0. 1A EDA0 0041 0000:?InvalidateToRow@SECDockBar@@QAEXH@Z
        83BB8800000001755E8B74241085F67E5657E8........8B7C24108D:
          0. 0A EBBC 0070 0000:?DeleteMultLines@SECATokenizer@@QAEXHHH@Z
      57:
        837B:
          DC00745E8B7C240C8B43:
            BC568D73BC578BCEFF904C0300008B06:
              0. 2F AB4D 006D 0000:?GetInsideRect@SECListBaseV@@UBEXPAUtagRECT@@@Z
            C0568D73C0578BCEFF90440300008B06:
              0. 2F 74F6 006D 0000:?GetInsideRect@SECListBaseV@@UBEXPAUtagRECT@@@Z
          E000745E8B7C240C8B43:
            C0568D73C0578BCEFF90FC0200008B06:
              0. 2F 3371 006D 0000:?GetInsideRect@SECListBaseC@@UBEXPAUtagRECT@@@Z
            C4568D73C4578BCEFF90F40200008B06:
              0. 2F E081 006D 0000:?GetInsideRect@SECListBaseC@@UBEXPAUtagRECT@@@Z
        8B03FF74240CFF90:
          100200008BF885FF7473568B742414F60604740B:
            0. 07 A880 008E 0000:?SetColumn@SECListBaseV@@UAEHHPBUtagLVCOLUMNA@@H@Z (REF 0027: ??4CString@@QAEABV0@PBD@Z)
            1. 07 A880 008E 0000:?SetColumn@SECListBaseV@@UAEHHPBUtagLVCOLUMNW@@H@Z (REF 0027: ??4CString@@QAEABV0@PBG@Z)
          180200008BF885FF7473568B742414F60604740B:
            0. 07 A880 008E 0000:?SetColumn@SECListBaseV@@UAEHHPBUtagLVCOLUMNA@@H@Z (REF 0027: ??4CString@@QAEABV0@PBD@Z)
            1. 07 A880 008E 0000:?SetColumn@SECListBaseV@@UAEHHPBUtagLVCOLUMNW@@H@Z (REF 0027: ??4CString@@QAEABV0@PBG@Z)
          1C010000FF7424108BF88B038BCBFF901C010000:
            0. 48 3105 0087 0000:?RemoveVSplitterAdjacentNodes@SECLNDynamicGridLine@@MAEHPAVSECLayoutNode@@0@Z
            1. 48 7955 0087 0000:?RemoveVSplitterAdjacentNodes@SECLNDynamicGridLine@@MAEHPAVSECLayoutNode@@0@Z
          C00100008BF885FF7473568B742414F60604740B:
            0. 07 A880 008E 0000:?SetColumn@SECListBaseC@@UAEHHPBUtagLVCOLUMNA@@H@Z (REF 0027: ??4CString@@QAEABV0@PBD@Z)
            1. 07 A880 008E 0000:?SetColumn@SECListBaseC@@UAEHHPBUtagLVCOLUMNW@@H@Z (REF 0027: ??4CString@@QAEABV0@PBG@Z)
          C80100008BF885FF7473568B742414F60604740B:
            0. 07 A880 008E 0000:?SetColumn@SECListBaseC@@UAEHHPBUtagLVCOLUMNA@@H@Z (REF 0027: ??4CString@@QAEABV0@PBD@Z)
            1. 07 A880 008E 0000:?SetColumn@SECListBaseC@@UAEHHPBUtagLVCOLUMNW@@H@Z (REF 0027: ??4CString@@QAEABV0@PBG@Z)
      8B4C24088B54240C8D43:
        5456578B3B89088D4B50518DB3DC0100008911:
          0. 49 D7FD 0069 0000:?SetSplitterPositions@SECLayoutNodeSplitter@@UAEXHH@Z
        5856578B3B89088D4B54518DB3E00100008911:
          0. 49 229F 0069 0000:?SetSplitterPositions@SECLayoutNodeSplitter@@UAEXHH@Z
55:
  56:
    578BF933EDE8........8B742414A808740C668B0650FF15........EB15:
      0. 03 A2C1 0167 0000:?IsCharValid@SECMaskEdit@@MAEHHAAG@Z
    8BF133ED:
      33C057396E5C8B4E780F94C050E8........8B46048B78:
        703BFD:
          0. 08 5E12 007D 0000:?ChangeBitmap@SECToolBarManager@@MAEHXZ
        743BFD:
          0. 08 5E12 007D 0000:?ChangeBitmap@SECToolBarManager@@MAEHXZ
      39:
        6E4874428B4E045755896E48E8........33FF396E107E2253:
          0. 09 FFAE 0050 0000:?DisableMainFrame@SECToolBarManager@@QAEXXZ
        AE:
          E0000000743A53578B3D........55556822020000FFB6BC:
            0. 2B 23DB 0054 0000:?OnActivateApp@SECMDIFrameWnd@@IAEXHPAUHTASK__@@@Z
          E4000000743A53578B3D........55556822020000FFB6C0:
            0. 2B 8897 0054 0000:?OnActivateApp@SECMDIFrameWnd@@IAEXHPAUHTASK__@@@Z
      5739AE:
        F8000000750AE8........E9DD0000008B44241083F825:
          0. 05 5275 00FC 0000:?OnKeyDown@SECDateTimeCtrl@@IAEXIII@Z
        FC000000750AE8........E9DD0000008B44241083F825:
          0. 05 5275 00FC 0000:?OnKeyDown@SECDateTimeCtrl@@IAEXIII@Z
  8BEC:
    33:
      C0:
        5DC20400:
          0. 00 0000 0009 0000:?UnlockResource@@YGHPAX@Z
        837D08000F95C05DC3:
          0. 00 0000 000E 0000:?GrayIf@@YAIH@Z
      D26A013991C40000005875333991B000000074593991B40000007460:
        0. 6D 9495 008D 0000:?GetAutoInsertPosition@SECLNBorderClient@@MAEHAAW4BorderPosition@1@@Z
    51:
      0FB7450C53560FB775102BF0578BD98D4601895DFC50E8........8B:
        0. 08 178B 00D3 0000:?geti_setupMap@SECTiff@@QAEHPAUtiff@@GGPAPAE@Z
      33C05339450856:
        57894DFC74608B5D108B7D0C83CEFF890389078B4D:
          0. 0C 02E7 008D 0000:?GetBarSizePos@SECDockBar@@QAEHPAVCControlBar@@AAH11@Z
          1. 0C 2DA7 008D 0000:?GetBarSizePos@SECDockBar@@QAEHPAVCControlBar@@AAH11@Z
        8BD98945FC75293905........74218B450C6A015E:
          0. 12 3142 008B 0000:?CalcDrawDragRectParms@SECDefDockNodeBase@@MAEPAVCBrush@@HAAVCSize@@AAVCRect@@PAPAV2@@Z
      51:
        53:
          33DB:
            395D0C56578B7D08894DFC0F84B00000008BCFE8:
              0. 11 55DD 0125 0000:?ResetStyleForEmbeddedFrameFloat@SECMDIFrameWnd@@MAEXPAVSECFrameWnd@@H@Z
              1. 11 9306 0125 0000:?ResetStyleForEmbeddedFrameFloat@SECMDIFrameWnd@@MAEXPAVSECFrameWnd@@H@Z
            568B750857894DFC895DF8668B465C663D060173258B4DFC:
              0. 02 26E3 0300 0000:?deflate_slow@SECComp@@QAEHPAUdeflate_internal_state@@H@Z
          56:
            33:
              DB57538BF153895DFC895DF8E8........8D45F88B3D:
                0. 00 0000 0076 0000:?OnCut@SECMaskEdit@@IAEJIJ@Z
              F633DB39750C894DF88975FC0F8EB6000000578B7D088D04:
                0. BA 229A 00DA 0000:?WrapToolBar@SECToolBar@@IAEHPAU_TBBUTTON@@HH@Z
                1. BA 8131 00DA 0000:?WrapToolBar@SECToolBar@@IAEHPAU_TBBUTTON@@HH@Z
            57:
              33FF397D088BD90F848D000000397D100F84840000008B75:
                0. 0F 1072 00AB 0000:?DockNode@SECDefDockTargetBase@@UAEHPAVISECDockableNode@@ABVCPoint@@PAVSECLNDockingMgr@@ABVSECDockInProgressInfo@@@Z
              6A018BF15B8BFB8A4E7BD3E76683FF200F86820000008D45:
                0. 0A E370 00A5 0000:?WriteColorMap@SECPcx@@IAEXXZ
              894DFCFF7508:
                E8........59:
                  BB........8B4DFC53FF750C:
                    0. 09 ADC8 027F 0000:?TIFFClientOpen@SECTiff@@QAEPAUtiff@@PBD0HP6AJHPAXJ@Z2P6AJHJF@ZP6AHH@ZP6AJH@ZP6AJHPAPAXPAJ@ZP6AXH1J@Z@Z (0254: FF)
                    1. 09 ADC8 0280 0000:?TIFFClientOpen@SECTiff@@QAEPAUtiff@@PBD0HP6AJHPAXJ@Z2P6AJHJF@ZP6AHH@ZP6AJH@ZP6AJHPAPAXPAJ@ZP6AXH1J@Z@Z (0254: FD)
                  BF........8B4DFC57FF750C:
                    0. 08 D315 0281 0000:?TIFFClientOpen@SECTiff@@QAEPAUtiff@@PBG0HP6AJHPAXJ@Z2P6AJHJF@ZP6AHH@ZP6AJH@ZP6AJHPAPAXPAJ@ZP6AXH1J@Z@Z
                FF15........59BF........8B4DFC57FF75:
                  0. 09 6867 0284 0000:?TIFFClientOpen@SECTiff@@QAEPAUtiff@@PBG0HP6AJHPAXJ@Z2P6AJHJF@ZP6AHH@ZP6AJH@ZP6AJHPAPAXPAJ@ZP6AXH1J@Z@Z
              8B:
                7D:
                  08:
                    33:
                      C0894DF83BF88945FC0F848B0100003947208947:
                        0. 06 125C 01B0 0000:?deflateInit2@SECComp@@QAEHPAUz_stream_s@@HHHHH@Z
                      DB8BF13BFB0F8419010000837D10010F8C0F0100:
                        0. 0A 0A23 0139 0000:?InsertBatch@SECTreeBaseC@@QAEHPAPAUtagTVITEMW@@PAU_TREEITEM@@HH@Z (REF 0067: ?BuildTreeNode@SECTreeBaseC@@IAEHPAUtagTVITEMW@@PAV_Node@@PAI@Z)
                        1. 0A 0A23 0139 0000:?InsertBatch@SECTreeBaseC@@QAEHPAPAUtagTVITEMA@@PAU_TREEITEM@@HH@Z (REF 0067: ?BuildTreeNode@SECTreeBaseC@@IAEHPAUtagTVITEMA@@PAV_Node@@PAI@Z)
                        2. 0A 3409 0139 0000:?InsertBatch@SECTreeBaseV@@QAEHPAPAUtagTVITEMA@@PAU_TREEITEM@@HH@Z (REF 0067: ?BuildTreeNode@SECTreeBaseV@@IAEHPAUtagTVITEMA@@PAV_Node@@PAI@Z)
                        3. 0A 3409 0139 0000:?InsertBatch@SECTreeBaseV@@QAEHPAPAUtagTVITEMW@@PAU_TREEITEM@@HH@Z (REF 0067: ?BuildTreeNode@SECTreeBaseV@@IAEHPAUtagTVITEMW@@PAV_Node@@PAI@Z)
                        4. 0A 4266 0139 0000:?InsertBatch@SECTreeBaseV@@QAEHPAPAUtagTVITEMA@@PAU_TREEITEM@@HH@Z (REF 0067: ?BuildTreeNode@SECTreeBaseV@@IAEHPAUtagTVITEMA@@PAV_Node@@PAI@Z)
                        5. 0A 4266 0139 0000:?InsertBatch@SECTreeBaseV@@QAEHPAPAUtagTVITEMW@@PAU_TREEITEM@@HH@Z (REF 0067: ?BuildTreeNode@SECTreeBaseV@@IAEHPAUtagTVITEMW@@PAV_Node@@PAI@Z)
                        6. 0A 5927 0139 0000:?InsertBatch@SECTreeBaseC@@QAEHPAPAUtagTVITEMA@@PAU_TREEITEM@@HH@Z (REF 0067: ?BuildTreeNode@SECTreeBaseC@@IAEHPAUtagTVITEMA@@PAV_Node@@PAI@Z)
                        7. 0A 5927 0139 0000:?InsertBatch@SECTreeBaseC@@QAEHPAPAUtagTVITEMW@@PAU_TREEITEM@@HH@Z (REF 0067: ?BuildTreeNode@SECTreeBaseC@@IAEHPAUtagTVITEMW@@PAV_Node@@PAI@Z)
                    3B7D0C8BF10F847E010000FF750C8BCFE8:
                      0. 0B AFA0 019D 0000:?SetNodeParent@SECTreeBaseC@@QAEHPAVSECTreeNode@@0HPAU_TREEITEM@@@Z (000F: 24)
                      1. 0B AFA0 019D 0000:?SetNodeParent@SECTreeBaseV@@QAEHPAVSECTreeNode@@0HPAU_TREEITEM@@@Z (000F: 74)
                    894DF88B0785C0740950E8........8327008B7510:
                      0. 38 45B1 00AD 0000:?setJPEGCTable@SECTiff@@QAEXPAPAPAEPAPAEJ@Z
                    8BF13BBE:
                      840000007D55578BCEE8........8B8E80:
                        0. 51 0035 0071 0000:?SetRowHeight@SECDockBar@@QAEXHH@Z
                      880000007D55578BCEE8........8B8E84:
                        0. 51 1368 0071 0000:?SetRowHeight@SECDockBar@@QAEXHH@Z
                  188BD9C745FC010000008B0785C07D048365FC00FF75:
                    0. DB 00FC 00FB 0000:?DistributeSplitterPixels@SECLayoutNodeSplitter@@MAEXAAH0HH0@Z
                    1. DB 3F8D 00FB 0000:?DistributeSplitterPixels@SECLayoutNodeSplitter@@MAEXAAH0HH0@Z
                F1:
                  33FF397E187507E8........EB6EE8........8BCE8B:
                    0. 02 FAF5 008F 0000:?GetRandomWeighted@SECRandom@@QAEIXZ
                  6A10FF15........8945F88B068BCEFF90:
                    180100008B:
                      0. 39 42C8 00A0 0000:?DrawHorzHierarchyLine@SECTreeBaseV@@MAEXPAVCDC@@HHHH@Z
                      1. 39 8942 00A0 0000:?DrawVertHierarchyLine@SECTreeBaseV@@MAEXPAVCDC@@HHHH@Z
                    200100008B:
                      0. 39 B1CB 00A0 0000:?DrawHorzHierarchyLine@SECTreeBaseV@@MAEXPAVCDC@@HHHH@Z
                      1. 39 D7BB 00A0 0000:?DrawVertHierarchyLine@SECTreeBaseV@@MAEXPAVCDC@@HHHH@Z
                    C80000008B:
                      0. 39 1C31 00A0 0000:?DrawHorzHierarchyLine@SECTreeBaseC@@MAEXPAVCDC@@HHHH@Z
                      1. 39 7A41 00A0 0000:?DrawVertHierarchyLine@SECTreeBaseC@@MAEXPAVCDC@@HHHH@Z
                    D00000008B:
                      0. 39 42C8 00A0 0000:?DrawHorzHierarchyLine@SECTreeBaseC@@MAEXPAVCDC@@HHHH@Z
                      1. 39 8942 00A0 0000:?DrawVertHierarchyLine@SECTreeBaseC@@MAEXPAVCDC@@HHHH@Z
                  E8........8BF88B066A018BCEFF50:
                    6833DB3BC3740D:
                      0. 03 AA8C 0109 0000:?DoScroll@SECPanView@@IAEHVCSize@@H@Z
                    7033DB3BC3740D:
                      0. 03 AA8C 0109 0000:?DoScroll@SECPanView@@IAEHVCSize@@H@Z
                F9:
                  8BF78B5D0CF7DE8D47546A011BF68BCB23F08B450889:
                    0. 5C 0DFB 007C 0000:?CreateFloatingNode@SECDockFloatingNode@@UAEHPAVSECLayoutNode@@PAVSECLNDockingMgr@@PAVISECLNContainer@@PBG@Z
                  FF750C897DF8E8........FF750C8BCF8945FCE8:
                    0. 00 0000 01EE 0000:?CalcButtonRect@SECTreeBaseC@@MBEXPAVCRect@@HABV2@@Z (0167: 58)
                    1. 00 0000 01EE 0000:?CalcButtonRect@SECTreeBaseV@@MBEXPAVCRect@@HABV2@@Z (0167: 94)
              8D45F8FF75148BF1FF7510FF750C50E8........8B388B8E:
                0. 40 A7C6 0060 0000:?OnAdjustFinalSplitterRect@SECLNVirtualSplitter@@MAE?AVCSize@@AAVCRect@@ABV3@H@Z
                1. 40 CD4F 0060 0000:?OnAdjustFinalSplitterRect@SECLNVirtualSplitter@@MAE?AVCSize@@AAVCRect@@ABV3@H@Z
              FF7508E8........FF75188BF88BCFE8........8B750C83:
                0. 13 E6A7 00BA 0000:?OnDrawClientEdge@SECLNBorderClientEdge@@MAEXPAUHDC__@@ABVCRect@@HW4BorderOrientation@SECLayoutNodeBorderSpace@@PAVCPen@@3@Z
            8B:
              7508:
                33DB57894DFC895DF866C7465E0200668B465C663D06:
                  0. 08 7EBF 0250 0000:?deflate_fast@SECComp@@QAEHPAUdeflate_internal_state@@H@Z
                57:
                  33DB6A0253894DF8FFB69C010000FF96A80100008B:
                    0. 4C 25C3 016F 0000:?TIFFLinkDirectory@SECTiff@@QAEJPAUtiff@@@Z
                  894DF8668B461E66894508668B4658668B5E28668B:
                    0. 53 8D24 015E 0000:?fill_window@SECComp@@QAEXPAUdeflate_internal_state@@@Z
                  FF750C56E8........8B3D........8B1E6A08FFD7:
                    0. 2C 70B1 0074 0000:?OnPrepareDC@SECScriptHostView@@UAEXPAVCDC@@PAUCPrintInfo@@@Z
                    1. 2C 8DC4 0074 0000:?OnPrepareDC@SECScriptHostView@@UAEXPAVCDC@@PAUCPrintInfo@@@Z
                8365080057894DF88B9E70010000668B4304668945FC:
                  0. 0C 9B68 014F 0000:?Fax3Decode1DRow@SECTiff@@QAEJPAUtiff@@PAEJ@Z
                894D:
                  F833DB83C9FFF60640578B7D0C895DFC7410394F:
                    0. 7E 8ECE 00E9 0000:?BuildTreeNode@SECTreeBaseC@@IAEHPAUtagTVITEMW@@PAV_Node@@PAI@Z (0034: 70)
                    1. 7E 8ECE 00E9 0000:?BuildTreeNode@SECTreeBaseV@@IAEHPAUtagTVITEMW@@PAV_Node@@PAI@Z (0034: D4)
                    2. 7E B1FF 00EB 0000:?BuildTreeNode@SECTreeBaseC@@IAEHPAUtagTVITEMW@@PAV_Node@@PAI@Z (0036: 78)
                    3. 7E B1FF 00EB 0000:?BuildTreeNode@SECTreeBaseV@@IAEHPAUtagTVITEMW@@PAV_Node@@PAI@Z (0036: DC)
                    4. 7E BB49 00E6 0000:?BuildTreeNode@SECTreeBaseC@@IAEHPAUtagTVITEMA@@PAV_Node@@PAI@Z (0031: 70)
                    5. 7E BB49 00E6 0000:?BuildTreeNode@SECTreeBaseV@@IAEHPAUtagTVITEMA@@PAV_Node@@PAI@Z (0031: D4)
                  FC578BCE8B06FF90:
                    00010000837D0C00750433FF:
                      0. 09 EF95 00D2 0000:?DockControlBarEx@SECFrameWnd@@UAEXPAVCControlBar@@IHHMH@Z
                    08010000837D0C00750433FF:
                      0. 09 EF95 00D2 0000:?DockControlBarEx@SECFrameWnd@@UAEXPAVCControlBar@@IHHMH@Z
                8BD9578BCE8B06FF90:
                  0001000083650800837D100074:
                    0. 07 4ECB 0101 0000:?DockControlBarEx@SECMDIFrameWnd@@UAEXPAVCControlBar@@ABUSECDockPos@@IABUSECDockSize@@@Z
                  0801000083650800837D100074:
                    0. 07 4ECB 0101 0000:?DockControlBarEx@SECMDIFrameWnd@@UAEXPAVCControlBar@@ABUSECDockPos@@IABUSECDockSize@@@Z
              F1:
                33DB57395E04742C5368........68........5356E8:
                  0. 00 0000 006F 0000:?RestoreLastRemoveLayoutNode@SECDefUndoableNode@@UAEHXZ
                57:
                  33DB33FF399E:
                    940100007E208B86900100008B0CB83B:
                      0. 20 1E3F 00C0 0000:?ResetMenus@SECMenuBar@@UAEXH@Z
                    980100007E208B86940100008B0CB83B:
                      0. 20 C884 00C0 0000:?ResetMenus@SECMenuBar@@UAEXH@Z
                  668B4620663D10000F86AF0000008D45FF6A01508BCE:
                    0. 01 3E9B 015A 0000:?LoadColorMap@SECPcx@@IAEXXZ
                  83BE880000000175:
                    328B5D088B467C538945F8E8:
                      0. 00 0000 0180 0000:?InsertText@SECATokenizer@@QAEHPBDHH@Z
                    338B5D088B467C538945F8E8:
                      0. 00 0000 0182 0000:?InsertText@SECATokenizer@@QAEHPBDHH@Z
                    358B467CFF75088945F8E8:
                      0. 00 0000 01A8 0000:?InsertText@SECATokenizer@@QAEHPBGHH@Z
                    378B467CFF75088945F8FF15:
                      0. 00 0000 01AB 0000:?InsertText@SECATokenizer@@QAEHPBGHH@Z
                  8B:
                    06FF:
                      50788BF885FF0F84A700000068........8BCF:
                        0. 01 3E9B 00C9 0000:?FilterStrict@ScxButtonMDIMaxChildMsgFilter@nsSysCommandEx@@UAEKIIJPAJ@Z
                      90800000008BF885FF0F84A700000068:
                        0. 00 0000 00CC 0000:?FilterStrict@ScxButtonMDIMaxChildMsgFilter@nsSysCommandEx@@UAEKIIJPAJ@Z
                    3D........8B868C00000085C0740450FFD7598B86:
                      0. FF 1CCD 07DB 0000:?ReadTgaHeader@SECTarga@@IAEFXZ
                    4D08BFA10000003BCF77330F849100000083F90C74:
                      0. 69 1DE6 010C 0000:?FilterStrict@SECCaptionControlMsgFilter@@UAEKIIJPAJ@Z
                      1. 69 96AF 010C 0000:?FilterStrict@SECCaptionControlMsgFilter@@UAEKIIJPAJ@Z
                    7D0C668B86:
                      B2000000668BC8660FAF8EB00000000F:
                        0. 42 3B72 0169 0000:?geti_putcontig8bitYCbCrtile@SECTiff@@IAEXPAKPAE1KKJJ@Z
                      D8000000668BC8660FAF8EDA0000000F:
                        0. 45 7F75 017C 0000:?SECputcontig8bitYCbCrtile@SECTiff@@IAEXPAE00KKHH@Z
                    868C00000085C0740750E8........598B86900000:
                      0. 07 3FCA 07D9 0000:?ReadTgaHeader@SECTarga@@IAEFXZ
                  FF75088B06FF90:
                    400400008B3D........6A1033DBFF:
                      0. 77 BDEC 029B 0000:?OnKeyDown@SECListBaseV@@IAEXIII@Z
                    480400008B3D........6A1033DBFF:
                      0. 77 9B0A 029B 0000:?OnKeyDown@SECListBaseV@@IAEXIII@Z
                    F00300008B3D........6A1033DBFF:
                      0. 77 ADF0 029B 0000:?OnKeyDown@SECListBaseC@@IAEXIII@Z
                    F80300008B3D........6A1033DBFF:
                      0. 77 7FDD 029B 0000:?OnKeyDown@SECListBaseC@@IAEXIII@Z
            8D45FC57508D45F8508BF1FF7508E8........8B7D0C8BD885:
              0. 3C 6441 005C 0000:?QueryInsertNewLine@SECDynGridLineTarget@@MAEHABVCPoint@@AAVSECDynGridInsertConstraints@@@Z
          8B:
            5D:
              0856:
                578B:
                  43148BF9F7D0A801744FFF770C8BCBE8:
                    0. 24 77E1 00AB 0000:?Serialize@?$CMap@PAU_TREEITEM@@AAPAU1@PAVCStringArray@@PAV2@@@UAEXAAVCArchive@@@Z
                    1. 24 D968 00AA 0000:?Serialize@?$CMap@IIKK@@UAEXAAVCArchive@@@Z (REF 0050: ?SerializeElements@@YGXAAVCArchive@@PAKH@Z)
                    2. 24 D968 00AA 0000:?Serialize@?$CMap@IIPAUBmpItem@SECBmpMgr@@PAU12@@@UAEXAAVCArchive@@@Z (REF 0050: ?SerializeElements@@YGXAAVCArchive@@PAPAUBmpItem@SECBmpMgr@@H@Z)
                    3. 24 D968 00AA 0000:?Serialize@?$CMap@PAUHMENU__@@PAU1@PAUSECBmpMenuInfo@SECBmpMenuPlugIn@@PAU23@@@UAEXAAVCArchive@@@Z (REF 0044: ?SerializeElements@@YGXAAVCArchive@@PAPAUHMENU__@@H@Z)
                    4. 24 D968 00AA 0000:?Serialize@?$CMap@IIPAUHMENU__@@PAU1@@@UAEXAAVCArchive@@@Z (REF 0050: ?SerializeElements@@YGXAAVCArchive@@PAPAUHMENU__@@H@Z)
                    5. 24 D968 00AA 0000:?Serialize@?$CMap@IIHH@@UAEXAAVCArchive@@@Z (REF 0050: ?SerializeElements@@YGXAAVCArchive@@PAHH@Z)
                    6. 24 D968 00AA 0000:?Serialize@?$CMap@PAVCFrameWnd@@PAV1@PAVSECPersistentTreeNode@@PAV2@@@UAEXAAVCArchive@@@Z (REF 0044: ?SerializeElements@@YGXAAVCArchive@@PAPAVCFrameWnd@@H@Z)
                    7. 24 D968 00AA 0000:?Serialize@?$CMap@IIII@@UAEXAAVCArchive@@@Z (REF 0098: ??A?$CMap@IIII@@QAEAAII@Z)
                  B3700100008D450C894DF8FF761CFF75106A0050:
                    0. 01 3E9B 00A4 0000:?Fax3Encode1DRow@SECTiff@@QAEJPAUtiff@@PAEJ@Z
                8BF157:
                  68........8B0653FF:
                    507885C08945080F84BB:
                      0. 06 F0C6 00E7 0000:?OnScxNewFrame@ScxMsgFilter@nsSysCommandEx@@UAEKAAVScxInfo@2@PAJ@Z
                    908000000085C0894508:
                      0. 09 412A 00EB 0000:?OnScxNewFrame@ScxMsgFilter@nsSysCommandEx@@UAEKAAVScxInfo@2@PAJ@Z
                  8B3D........8B46048B4E082BD88B450C2BC1:
                    0. 45 539D 007C 0000:?Move@SECDockContext@@QAEXVCPoint@@@Z
              10568BF1F6C34074:
                5CF6C3017410DB450CD88E9C000000E8:
                  0. 00 0000 00AB 0000:?CalcDynamicLayout@SECControlBar@@UAE?AVCSize@@HK@Z
                5FF6C3017410DB450CD88EA0000000E8:
                  0. 00 0000 00AE 0000:?CalcDynamicLayout@SECControlBar@@UAE?AVCSize@@HK@Z
            D9578BBBB400000085FF7449568BC78B4D088B3F8B70088D45:
              0. 06 E3FC 0065 0000:?ApplyAllConstraints@SECLNRelative@@MAEHAAV?$CTypedPtrMap@VCMapPtrToPtr@@PAVSECLayoutNode@@PAVCRect@@@@@Z
        56:
          57:
            33FF8BF1397D08750433C0EB648B068D4DF8518BCEFF7508FF:
              0. 5E 56E2 007E 0000:?ChangeChildNodePosition@SECLayoutNode@@UAEHPAV1@0H@Z
            8B:
              F1:
                33FF57578B46:
                  4C57FF700CFF7008FF7004FF305768:
                    0. 00 0000 007E 0000:?DoFakeButton@SECFakeButton@@QAEHXZ
                  5057FF700CFF7008FF7004FF305768:
                    0. 00 0000 007E 0000:?DoFakeButton@SECFakeButton@@QAEHXZ
                E8........:
                  8B78048B46048378F80074105068:
                    0. 06 B4DB 0070 0000:?SaveState@SECCustomToolBarInfoEx@@UAEHPBD@Z (REF 0026: ?WriteProfileStringA@CWinApp@@QAEHPBD00@Z)
                    1. 06 B4DB 0070 0000:?SaveState@SECCustomToolBarInfoEx@@UAEHPBG@Z (REF 0026: ?WriteProfileStringW@CWinApp@@QAEHPBG00@Z)
                  8D45FC8B3D........508D45F85068B00000:
                    0. 75 1995 0095 0000:?OnSetFocus@SECMaskEdit@@IAEXPAVCWnd@@@Z
                    1. 75 1E9C 0095 0000:?OnSetFocus@SECMaskEdit@@IAEXPAVCWnd@@@Z
                    2. 75 D95B 0095 0000:?OnLButtonDown@SECMaskEdit@@IAEXIVCPoint@@@Z
                    3. 75 DE52 0095 0000:?OnLButtonDown@SECMaskEdit@@IAEXIVCPoint@@@Z
              F98B4D0C85C974658B751085F6745E8B01FF108945108B06:
                0. 47 2CC3 007D 0000:?SearchDTByViewFrame@SECDocTemplateUtils@@MAEHAAV?$CTypedPtrList@VCPtrList@@PAVCDocTemplate@@@@PAVCView@@PAVCFrameWnd@@@Z
                1. 47 EDAD 007D 0000:?SearchDTByViewFrame@SECDocTemplateUtils@@MAEHAAV?$CTypedPtrList@VCPtrList@@PAVCDocTemplate@@@@PAVCView@@PAVCFrameWnd@@@Z
            FF:
              7104894DF868........E8........8BF05985F659750733:
                0. 1A 36E7 00C4 0000:?Create@SECTBBtnGroup@@UAEHPAVCWnd@@PAVSECToolBarManager@@I@Z
              750C8B:
                F1FF7508E8........8BF88D45F850FF15:
                  0. 24 CDAD 0044 0000:?QueryContinueDrag@SECOleDropSource@@UAEJHK@Z
                  1. 24 F67C 0044 0000:?QueryContinueDrag@SECOleDropSource@@UAEJHK@Z
                F98B8780000000FF75088DB7800000008BCEFF5008:
                  0. 40 99E3 0060 0000:?OnStartDragDrop@?$SECLocalDragDropTask_T@VSECLayoutWndListener@@@@MAEHIABVCPoint@@0@Z
                  1. 40 BA40 0060 0000:?OnStartDragDrop@?$SECLocalDragDropTask_T@VSECLayoutWndListener@@@@MAEHIABVCPoint@@0@Z
          6A018BF16A00FF75088B8E:
            34010000E8........85C0741B8D45:
              0. 0E 31E8 005E 0000:?LoadToolBar@SECCustomToolBar@@QAEHPBD@Z (REF 0016: ?AddToolbarResource@SECBmpMgr@@QAEHPBD0H@Z)
              1. 0E 31E8 005E 0000:?LoadToolBar@SECCustomToolBar@@QAEHPBG@Z (REF 0016: ?AddToolbarResource@SECBmpMgr@@QAEHPBG0H@Z)
            38010000E8........85C0741B8D45:
              0. 0E 31E8 005E 0000:?LoadToolBar@SECCustomToolBar@@QAEHPBD@Z (REF 0016: ?AddToolbarResource@SECBmpMgr@@QAEHPBD0H@Z)
              1. 0E 31E8 005E 0000:?LoadToolBar@SECCustomToolBar@@QAEHPBG@Z (REF 0016: ?AddToolbarResource@SECBmpMgr@@QAEHPBG0H@Z)
          894DF8E8........8B700C68F1000000FF750856FF15:
            0. 08 A296 00C4 0000:?LoadToolBar@SECToolBar@@QAEHPBD@Z (REF 001C: FindResourceA)
            1. 08 A296 00C4 0000:?LoadToolBar@SECToolBar@@QAEHPBG@Z (REF 001C: FindResourceW)
          8B:
            7508:
              6681BE100100004D4D75238B450C8B8E180100000FB750:
                0. 39 17F7 0059 0000:?TIFFFetchFloat@SECTiff@@QAEMPAUtiff@@PAUTIFFDirEntry@@@Z
              85F60F84F0000000837D0C000F86E60000008365FC0053:
                0. 06 3794 0106 0000:?AppendUserTools@@YAHPAVCMenu@@IABVCObArray@@@Z
              894DF8FF7604E8........8BC833D23BCA894DFC750733:
                0. 38 2456 0148 0000:?GetItem@SECListBaseC@@UBEHPAUtagLVITEMW@@HH@Z (00E4: 03) (REF 007F: wcsncpy)
                1. 38 2456 0148 0000:?GetItem@SECListBaseC@@UBEHPAUtagLVITEMA@@HH@Z (00E4: 03) (REF 007F: _mbsnbcpy)
                2. 38 2456 0148 0000:?GetItem@SECListBaseV@@UBEHPAUtagLVITEMW@@HH@Z (00E4: 04) (REF 007F: wcsncpy)
                3. 38 2456 0148 0000:?GetItem@SECListBaseV@@UBEHPAUtagLVITEMA@@HH@Z (00E4: 04) (REF 007F: _mbsnbcpy)
                4. 38 EEC2 0147 0000:?GetItem@SECListBaseC@@UBEHPAUtagLVITEMA@@HH@Z (00E3: 03) (REF 007E: __mbsnbcpy)
                5. 38 EEC2 0147 0000:?GetItem@SECListBaseC@@UBEHPAUtagLVITEMW@@HH@Z (00E3: 03) (REF 007E: _wcsncpy)
                6. 38 EEC2 0147 0000:?GetItem@SECListBaseV@@UBEHPAUtagLVITEMW@@HH@Z (00E3: 04) (REF 007E: _wcsncpy)
                7. 38 EEC2 0147 0000:?GetItem@SECListBaseV@@UBEHPAUtagLVITEMA@@HH@Z (00E3: 04) (REF 007E: __mbsnbcpy)
              8B460CF7D81BC085C089450874228D45FC8BCE508D45F8:
                0. 06 5C47 0045 0000:?FreeNodeRects@SECLNRelative@@MAEXAAV?$CTypedPtrMap@VCMapPtrToPtr@@PAVSECLayoutNode@@PAVCRect@@@@@Z
              8D45FC8365FC008365F80050FF7634FF7630E8:
                0. 18 7BD7 0071 0000:?get__NewEnum@SECACollection@@UAGPAUIUnknown@@XZ
            F1:
              57:
                8B:
                  06FF:
                    7508FF901C010000FF750C8BF88B068BCE897DFC:
                      0. 33 157F 00B6 0000:?SetVSplitterAdjacentNodes@SECLNDynamicGridLine@@MAEHPAVSECLayoutNode@@0@Z
                      1. 33 293F 00B6 0000:?SetVSplitterAdjacentNodes@SECLNDynamicGridLine@@MAEHPAVSECLayoutNode@@0@Z
                    90:
                      0003000083E003741785C00F868D00000083F8:
                        0. 87 D396 00B1 0000:?DrawSubItemIcon@SECListBaseV@@MAEXPAVSECListPaintContext@@@Z
                      A802000083E003741785C00F868D00000083F8:
                        0. 87 59AC 00B1 0000:?DrawSubItemIcon@SECListBaseC@@MAEXPAVSECListPaintContext@@@Z
                      B002000083E003741785C00F868D00000083F8:
                        0. 87 9108 00B1 0000:?DrawSubItemIcon@SECListBaseC@@MAEXPAVSECListPaintContext@@@Z
                      F802000083E003741785C00F868D00000083F8:
                        0. 87 268B 00B1 0000:?DrawSubItemIcon@SECListBaseV@@MAEXPAVSECListPaintContext@@@Z
                  46:
                    40A802741E83F00233FF894640668B463C668945F8:
                      0. 22 DAD1 0084 0000:?OnChar@SECCalculator@@IAEXIII@Z
                    44A802741E83F00233FF894644668B4640668945F8:
                      0. 22 DAD1 0084 0000:?OnChar@SECCalculator@@IAEXIII@Z
                F646:
                  4008740D6AFFFF15........E9:
                    AA0000008B46708D:
                      0. 11 2592 0137 0000:?HandleOperator@SECCalculator@@IAEHW4SECCalcOp@1@@Z
                    AC0000008B46708D:
                      0. 11 AD84 0139 0000:?HandleOperator@SECCalculator@@IAEHW4SECCalcOp@1@@Z
                  4408740D6AFFFF15........E9:
                    AD0000008B46708D:
                      0. 11 803A 013A 0000:?HandleOperator@SECCalculator@@IAEHW4SECCalcOp@1@@Z
                    AF0000008B46708D:
                      0. 11 082C 013C 0000:?HandleOperator@SECCalculator@@IAEHW4SECCalcOp@1@@Z
              837E:
                28000F84:
                  9C000000F6460F01746B8B4E2468:
                    0. 01 3E9B 00B3 0000:?SetCursor@SECWndBtn@@QAEHXZ
                  9D000000F6460F01746C8B4E2468:
                    0. 01 3E9B 00B4 0000:?SetCursor@SECWndBtn@@QAEHXZ
                6800752053E8........837E6C008BD8740D6A016A00:
                  0. 05 28B3 0068 0000:?OnSetText@SECCurrencyEdit@@QAEJIJ@Z
                6C00752053E8........837E70008BD8740D6A016A00:
                  0. 05 2590 0068 0000:?OnSetText@SECCurrencyEdit@@QAEJIJ@Z
              8B:
                06FF90:
                  B800000085C075:
                    268B4E3C8D45F8508D45FC50E8:
                      0. 00 0000 003D 0000:?Cut@SECAColorEditor@@QAEXXZ
                    7CFF761CFF15........8B4E3C:
                      0. 09 499C 0095 0000:?DeleteLine@SECAColorEditor@@QAEXH@Z
                  C000000085C075:
                    268B4E408D45F8508D45FC50E8:
                      0. 00 0000 003D 0000:?Cut@SECAColorEditor@@QAEXXZ
                    7CFF7620FF15........8B4E40:
                      0. 09 499C 0095 0000:?DeleteLine@SECAColorEditor@@QAEXH@Z
                46248B88:
                  B800000085C97427E8........85C0751EFF75:
                    0. 16 189B 008C 0000:?OnDrawFaceBlt@SECTBTextButton@@MAEXHHHHAAUSECBtnDrawData@@HH@Z
                  BC00000085C97427E8........85C0751EFF75:
                    0. 16 189B 008C 0000:?OnDrawFaceBlt@SECTBTextButton@@MAEXHHHHAAUSECBtnDrawData@@HH@Z
                4D08578B46:
                  3C8B7D0C8B098B40F88B49F88945FC85C089:
                    0. CE CF18 0133 0000:?SetData@SECMaskEdit@@UAEHABVCString@@HHH@Z
                  408B7D0C8B098B40F88B49F88945FC85C089:
                    0. CE 3EFE 0133 0000:?SetData@SECMaskEdit@@UAEHABVCString@@HHH@Z
                4E24E8........A8808B0674096A356A348D4DF8EB076A:
                  0. 20 10AA 0040 0000:?GetStandardButtonSize@SECCaptionMsgFilter@@UBE?AVCSize@@XZ
                  1. 20 A919 0040 0000:?GetStandardButtonSize@SECCaptionMsgFilter@@UBE?AVCSize@@XZ
              8D4DFC:
                578B06518D4DF833FF518BCEFF7510897DF8897DFC:
                  0. 15 3D76 0069 0000:?OnMouseMove@SECSplitterBase@@IAEXIVCPoint@@@Z
                  1. 15 F926 0069 0000:?OnMouseMove@SECSplitterBase@@IAEXIVCPoint@@@Z
                8B06518D4DF8518BCEFF7510FF750CFF90:
                  14010000:
                    0. 0F 45C4 0050 0000:?OnLButtonDown@SECSplitterBase@@IAEXIVCPoint@@@Z
                  1C010000:
                    0. 0F 45C4 0050 0000:?OnLButtonDown@SECSplitterBase@@IAEXIVCPoint@@@Z
              E8........:
                8365FC008945F8DF6DF8DC4E10E8........03:
                  0. 05 FC3D 0025 0000:?GetRandom@SECRandom@@QAEIXZ
                8B4E6868........E8........85C074348B4E:
                  0. 4E 6554 00EF 0000:?EndResize@SECDockContext@@QAEXXZ
                  1. 4E 7B5B 00EF 0000:?EndResize@SECDockContext@@QAEXXZ
              FF15........8365FC008945F8DF6DF8DC4E10E8:
                0. 06 7909 0026 0000:?GetRandom@SECRandom@@QAEIXZ
          8D45F8578BF950FF15........85FF750433C0EB038B47:
            1C8D4D:
              0. 05 53F8 0060 0000:?CurrentLine@SECACodeViewRTF@@IAEJAAJ@Z
            208D4D:
              0. 05 53F8 0060 0000:?CurrentLine@SECACodeViewRTF@@IAEJAAJ@Z
          BEF10000005756FF7508894DF8E8........568BF8FF750857FF:
            0. 01 54B7 00C8 0000:?LoadToolBar@SECToolBar@@QAEHPBD@Z (REF 0014: ?AfxFindResourceHandle@@YGPAUHINSTANCE__@@PBD0@Z)
            1. 01 54B7 00C8 0000:?LoadToolBar@SECToolBar@@QAEHPBG@Z (REF 0014: ?AfxFindResourceHandle@@YGPAUHINSTANCE__@@PBG0@Z)
        57:
          6A0068........68........6A00FF7510E8........8BF883C4:
            0. 2A A8DF 0063 0000:?QueryDenyChildHitTesting@SECDockInitiatorHitTester@@MAEKPAVISECLNContainer@@ABVCPoint@@PAVSECLayoutNode@@@Z (REF 0009: ??_R0?AVISECHookDockSourceHitTester@@@8)
            1. 2A A8DF 0063 0000:?QueryDenyChildHitTesting@SECLNTargetDockHitTester@@MAEKPAVISECLNContainer@@ABVCPoint@@PAVSECLayoutNode@@@Z (REF 0009: ??_R0?AVISECHookDockTargetHitTester@@@8)
          8BF9897DFC8B07FF90:
            D000000085C07412FF750C8BCFFF7508E8:
              0. 00 0000 013F 0000:?SetBarInfo@SECControlBar@@QAEXPAVSECControlBarInfo@@PAVCFrameWnd@@@Z
            D800000085C07412FF750C8BCFFF7508E8:
              0. 00 0000 0142 0000:?SetBarInfo@SECControlBar@@QAEXPAVSECControlBarInfo@@PAVCFrameWnd@@@Z
        668B450C53668945FC568D45F857508BD9FF7508E8........8B7B:
          0. 44 3EB4 006F 0000:?AssignAccel@SECShortcutTable@@QAEXKI@Z
        6A378D45F86A3650E8........8BC88B45088B1189108B49048948:
          0. 05 9FF8 0025 0000:?GetStandardButtonSize@SECCapConLstMDIMaxChildMsgFilter@@UBE?AVCSize@@XZ
        83:
          65FC00:
            53568BF1578B86:
              9401000085C07E5E8B4DFC8BD98B8E90:
                0. 1A AF5A 00DA 0000:?ItemFromPoint@SECCustomToolBar@@MBEHVCPoint@@AAVCRect@@@Z
              9801000085C07E5E8B4DFC8BD98B8E94:
                0. 1A AF5A 00DA 0000:?ItemFromPoint@SECCustomToolBar@@MBEHVCPoint@@AAVCRect@@@Z
            578BF98B87:
              2801000085C074108B8F4C0100003B4D0875:
                0. 09 87EE 0097 0000:?MenuFromResource@SECMDIFrameWnd@@MAEPAUHMENU__@@I@Z
              2C01000085C074108B8F500100003B4D0875:
                0. 09 4ACB 0098 0000:?MenuFromResource@SECMDIFrameWnd@@MAEPAUHMENU__@@I@Z
          7D:
            0800:
              535657894DFC740CFF7508E8........8BF8EB068BB9:
                4C:
                  0. 25 6F4A 0170 0000:?SortChildren@SECTreeBaseC@@QAEHPAU_TREEITEM@@HH@Z
                50:
                  0. 25 6F4A 0170 0000:?SortChildren@SECTreeBaseC@@QAEHPAU_TREEITEM@@HH@Z
                88:
                  0. 25 6F4A 0170 0000:?SortChildren@SECTreeBaseV@@QAEHPAU_TREEITEM@@HH@Z
                8C:
                  0. 25 6F4A 0170 0000:?SortChildren@SECTreeBaseV@@QAEHPAU_TREEITEM@@HH@Z
              56578BF17509C7460457000000EB:
                1C8B461C508945FCE8:
                  0. 00 0000 0098 0000:?GetBinaryValue@SECRegistry@@UAEHPBDAAVCByteArray@@@Z (0077: 00)
                1D8B461C508945FCFF:
                  0. 01 54B7 009A 0000:?GetBinaryValue@SECRegistry@@UAEHPBDAAVCByteArray@@@Z (0078: 00)
              750BC741045700000033C0EB1C6A048D55FC58528D55F8:
                0. 16 01EE 0036 0000:?GetDoubleWordValue@SECRegistry@@UAEHPBGAAK@Z
                1. 16 21B4 0036 (!)0000:?
                2. 16 21B4 0036 0000:?GetDoubleWordValue@SECRegistry@@UAEHPBDAAK@Z
            0C:
              01568BF17547FF15........0FB7C8C1E8108945FC8D45F8:
                0. 09 1198 0061 0000:?OnSetCursor@SECCustomStatusBar@@IAEHPAVCWnd@@II@Z
                1. 09 1CBB 0061 0000:?OnSetCursor@SECCustomStatusBar@@IAEHPAVCWnd@@II@Z
              02535657894DFCC745F801000000741A837D0C0374148B75:
                0. 71 162D 009D 0000:?RecalcGripperComponents@SECLayoutNodeGripper@@MAEXABVCRect@@W4BorderOrientation@SECLayoutNodeBorderSpace@@PAVSECGripperComponents@1@@Z
            20FF53568BF1578975FC750B8B4E24E8........8945208B7D:
              0. 18 3FF6 01E4 0000:?DrawFace@SECStdBtn@@MAEXAAUSECBtnDrawData@@HAAH111H@Z
        8B:
          01:
            5633F68D55FC56528975FCFF90740100003975087401408B4D:
              0. 14 7A14 003D 0000:?CalcAvgCellSize@SECLNDynamicGridLine@@UAEIH@Z
            8365F8008365FC008D55F852FF50188B4DF88B55FC8B4508F7:
              0. 0C 6114 002C 0000:?GetNonClientOffset@SECLNHwndContainer@@UAE?AVCPoint@@XZ
          41:
            088B51043BC276162BC2408365FC008945F8DF6DF8DC0D:
              0. 00 0000 0027 0000:?SetMultiplier@SECRandom@@QAEXXZ
            308B15........568B35........85C08975F875038955F885:
              0. 1B BC2C 0047 0000:?OnDrawBevel@SECPanel@@UAEHPAVCDC@@@Z
          45:
            08:
              5356:
                5785C08BF1750D8D45F850E8........8B18EB028B18:
                  0. 12 0891 0069 0000:?UpdateViewport@SECZoomView@@IAEXPAVCPoint@@@Z
                  1. 12 F609 0069 0000:?UpdateViewport@SECZoomView@@IAEXPAVCPoint@@@Z
                FF70:
                  1CFF15........50E8........8BD885DB747968:
                    0. 00 0000 009E 0000:?ToggleDockableAndFloating@ScxMsgFilter@nsSysCommandEx@@UAEXAAVCFrameWnd@@AAVSECMultiDocTemplate@@AAVScxInfo@2@@Z
                  20FF15........50E8........8BD885DB747968:
                    0. 00 0000 009E 0000:?ToggleDockableAndFloating@ScxMsgFilter@nsSysCommandEx@@UAEXAAVCFrameWnd@@AAVSECMultiDocTemplate@@AAVScxInfo@2@@Z
              5685C08BF1745F8B8E:
                B000000085C977398365FC008945F8:
                  0. 16 149A 0073 0000:?GetRowHeight@SECLNGrid@@MAEIIVCRect@@@Z
                B400000085C977398365FC008945F8:
                  0. 16 28DA 0073 0000:?GetColumnWidth@SECLNGrid@@MAEIIVCRect@@@Z
              6A466AFF8B50082B108D45F8508951:
                54E8........C9C204:
                  0. 01 78F0 0021 0000:?DoSize@SECCustomizeToolBar@@QAEXAAVCRect@@@Z
                58E8........C9C204:
                  0. 01 78F0 0021 0000:?DoSize@SECCustomizeToolBar@@QAEXAAVCRect@@@Z
              83:
                25........008945F88B450C8945FC8D45F850FF35:
                  0. 00 0000 0032 0000:?SetEventHandler@SECScriptHostDoc@@QAEHABVCString@@0@Z
                65F8008365FC008D55FC8B085268........50FF1185C0:
                  0. 2D 7A60 004D 0000:?CheckTypeInfo@@YAJPAUIOleObject@@@Z
              8B5514C1E0045356578D341033FF894DF8397E0474788B45:
                0. 6B 4ACB 009F 0000:?CanWrapRow@SECCustomToolBar@@IAEHHHHPAUWrapped@1@@Z
                1. 6B E0BB 009F 0000:?CanWrapRow@SECCustomToolBar@@IAEHHHHPAUWrapped@1@@Z
            0C:
              0FB7480C894DF88B480CC1E910894DFC8D4DF851FF30FF15:
                0. 00 0000 0036 0000:?ScreenPtFromMSG@?$SECStartDragCore_T@VSECLayoutWndListener@@@@MAE?AVCPoint@@PAUtagMSG@@@Z
              568945F88B45108945FC8D45F8:
                578BF150:
                  E8........FF75:
                    0. 0A A46A 0091 0000:?OnLButtonDown@SECPanWnd@@IAEXIVCPoint@@@Z
                    1. 0A D205 0091 0000:?OnLButtonDown@SECPanWnd@@IAEXIVCPoint@@@Z
                  FF76:
                    1CFF15:
                      0. 00 0000 0058 0000:?OnRButtonUp@SECCurrencyEdit@@QAEXIVCPoint@@@Z
                    20FF15:
                      0. 00 0000 0058 0000:?OnRButtonUp@SECCurrencyEdit@@QAEXIVCPoint@@@Z
                8BF150FF76:
                  1CFF15:
                    0. 00 0000 004A 0000:?OnLButtonDown@?$SECStartDragCore_T@VSECLayoutWndListener@@@@IAEXIVCPoint@@@Z (000E: 10)
                    1. 00 0000 004A 0000:?OnLButtonUp@?$SECStartDragCore_T@VSECLayoutWndListener@@@@IAEXIVCPoint@@@Z (000E: 14)
                    2. 00 0000 004A 0000:?OnLButtonDblClk@?$SECStartDragCore_T@VSECLayoutWndListener@@@@IAEXIVCPoint@@@Z (000E: 18)
                    3. 00 0000 004A 0000:?OnMouseMove@?$SECStartDragCore_T@VSECLayoutWndListener@@@@IAEXIVCPoint@@@Z (000E: 1C)
                  20FF15:
                    0. 00 0000 004A 0000:?OnLButtonDown@?$SECStartDragCore_T@VSECLayoutWndListener@@@@IAEXIVCPoint@@@Z (000E: 18)
                    1. 00 0000 004A 0000:?OnLButtonUp@?$SECStartDragCore_T@VSECLayoutWndListener@@@@IAEXIVCPoint@@@Z (000E: 1C)
                    2. 00 0000 004A 0000:?OnLButtonDblClk@?$SECStartDragCore_T@VSECLayoutWndListener@@@@IAEXIVCPoint@@@Z (000E: 20)
                    3. 00 0000 004A 0000:?OnMouseMove@?$SECStartDragCore_T@VSECLayoutWndListener@@@@IAEXIVCPoint@@@Z (000E: 24)
            10:
              0FB7C8C1E8108945FC8D45F850894DF8FF750CFF15:
                0. 00 0000 0031 0000:?SecGetScreenMousePoint@@YA?AVCPoint@@PAUHWND__@@J@Z
              53568BF15768........8D4DFC8945F8E8........FF75FC:
                0. 07 948C 00C4 0000:?GetADirectoryEntry@SECFileSystem@@IAEHAAVCString@@ABV2@K@Z
                1. 06 A477 00C3 0000:?GetADirectoryEntry@SECFileSystem@@IAEHAAVCString@@ABV2@K@Z
              8BD083E24075:
                3BA808740983B9:
                  5801000000751AA8107409:
                    0. 47 4CA2 008D 0000:?CalcDynamicLayout@SECCustomToolBar@@UAE?AVCSize@@HK@Z
                  5C01000000751AA8107409:
                    0. 47 2BB2 008D 0000:?CalcDynamicLayout@SECCustomToolBar@@UAE?AVCSize@@HK@Z
                44A808740983B9:
                  4801000000751AA8107409:
                    0. 50 CCD7 0096 0000:?CalcDynamicLayout@SECToolBar@@UAE?AVCSize@@HK@Z
                  4C01000000751AA8107409:
                    0. 50 4630 0096 0000:?CalcDynamicLayout@SECToolBar@@UAE?AVCSize@@HK@Z
              F7D81BC024FA83C010508D45F86AFF50E8........8BC88B:
                0. 10 D04B 0030 0000:?CalcFixedLayout@SECCustomToolBar@@UAE?AVCSize@@HH@Z
            14:
              53568BF18320008B4510578320008B06FF90:
                180100008B7D:
                  0. 1B 7BA1 01E6 0000:?NormalizeRow@SECDockBar@@MAEXHPAVCControlBar@@AAH1@Z
                200100008B7D:
                  0. 1B 780E 01E6 0000:?NormalizeRow@SECDockBar@@MAEXHPAVCControlBar@@AAH1@Z
              5685C08BF175298B450CFF75100FB70050E8........FF70:
                0. 05 0988 006E 0000:?cvtRational@SECTiff@@QAEJPAUtiff@@PAUTIFFDirEntry@@KKPAM@Z
            1C:
              576A04894DFC5F998BCFF7F989451C8B45188BC84885C90F:
                0. A2 9986 00C2 0000:?geti_put2bitcmaptile@SECTiff@@IAEXPAKPAE1KKJJ@Z
                1. A2 F4E2 00C2 0000:?geti_put2bitbwtile@SECTiff@@IAEXPAKPAE1KKJJ@Z
              894DFC6A089959F7F989451C8B45188BC84885C90F86EB00:
                0. F1 2C6C 0111 0000:?geti_put1bitbwtile@SECTiff@@IAEXPAKPAE1KKJJ@Z
                1. F1 D4C8 0111 0000:?geti_put1bitcmaptile@SECTiff@@IAEXPAKPAE1KKJJ@Z
          4D0C53565733FF33DB397D14897DFC74268B55108B410C8B720C:
            0. 41 E3E1 0077 0000:?OnAdjustFinalSplitterRect@SECSplitterBase@@MAE?AVCSize@@AAVCRect@@ABV3@H@Z
          51:
            44568B71488B493C8BC62BC275036A01583BCA73048BCAEB06:
              0. 26 1262 004C 0000:?CalcPercentComplete@SECProgressCtrl@@MAEMXZ
            48568B714C8B49408BC62BC275036A01583BCA73048BCAEB06:
              0. 26 1262 004C 0000:?CalcPercentComplete@SECProgressCtrl@@MAEMXZ
        8D:
          45:
            F8:
              50:
                6A066A02E8........8B45088B4DF889088B4DFC894804:
                  0. 04 26E6 0024 0000:?GetSize@SECAOleFont@@QAE?ATtagCY@@XZ
                E8........8B088B50048B45080108015004C9C20400:
                  0. 00 0000 001F 0000:?ClientToDevice@SECZoomView@@QAEXAAVCPoint@@@Z
              56508D45FC:
                5068........FF75088BF1:
                  E8........83C410:
                    0. 18 2946 0048 0000:?SetGrouping@Format@SECCurrencyEdit@@QAEHPBD@Z (REF 000F: ??_C@_05EAHD@?$CFi?$DL?$CFi?$AA@)
                    1. 18 2946 0048 0000:?SetGrouping@Format@SECCurrencyEdit@@QAEHPBG@Z (REF 000F: ??_C@_1M@HHE@?$AA?$CF?$AAi?$AA?$DL?$AA?$CF?$AAi?$AA?$AA@)
                  FF15........83C4:
                    0. 19 0FD3 0049 0000:?SetGrouping@Format@SECCurrencyEdit@@QAEHPBD@Z (REF 000F: ??_C@_05EAHD@?$CFi?$DL?$CFi?$AA@)
                    1. 19 0FD3 0049 0000:?SetGrouping@Format@SECCurrencyEdit@@QAEHPBG@Z (REF 000F: ??_C@_1M@HHE@?$AA?$CF?$AAi?$AA?$DL?$AA?$CF?$AAi?$AA?$AA@)
                8BF150E8........8B45FC3B45F87D2E8B4E:
                  3C:
                    0. 02 FEFA 004E 0000:?Unselect@SECAColorEditor@@QAEXXZ
                  40:
                    0. 02 FEFA 004E 0000:?Unselect@SECAColorEditor@@QAEXXZ
            FC56508D45F88BF150E8........:
              6A018BCEE8........837D:
                0. 07 DEF0 0049 0000:?ResetMenus@SECMDIMenuBar@@UAEXH@Z
              FF75088BCEE8........FF:
                0. 08 D11D 0031 0000:?GetBarInfoEx@SECMDIMenuBar@@UAEXPAVSECControlBarInfo@@@Z
          55088B01528D5510528D55FC528D55F852FF7510FF750CFF7508:
            0. 15 D301 003D 0000:?OnPostSysCommand@SECCaptionControlMsgFilter@@UAEXKVCPoint@@@Z
            1. 15 DFBB 003D 0000:?OnPostSysCommand@SECCaptionControlMsgFilter@@UAEXKVCPoint@@@Z
      53:
        33DB:
          33C9837D0C0156894DFC7605BB05400080F64510018B751474:
            0. 21 284B 00AB 0000:?GetInfoOfIndex@XProvideMultipleClassInfo@SECATopLevelItem@@UAGJKKPAPAUITypeInfo@@PAK1PAU_GUID@@2@Z
          395D:
            0856:
              578BF1750733C0E9A50000008B7D0C8D45FC508BCF:
                0. 04 A1EA 00C3 0000:?ResolveInsertionPosition@SECLNDynamicGridLine@@MAEHPAVSECLayoutNode@@ABVSECDynGridInsertConstraints@@@Z
              8BF1750433C0EB60575368........68........53:
                0. 04 EF25 0079 0000:?DockNode@SECFrameDockingFeature@@UAEHPAVSECLayoutNode@@AAVSECDockInsertionConstraints@@@Z
            1056578BF1895DFC74498B7D0C8B06897D0CFF90:
              180200:
                0. 0B B7A9 0098 0000:?CalcItemsInRange@SECListBaseV@@UAEHHHH@Z
              200200:
                0. 0B B7A9 0098 0000:?CalcItemsInRange@SECListBaseV@@UAEHHHH@Z
              C80100:
                0. 0B B7A9 0098 0000:?CalcItemsInRange@SECListBaseC@@UAEHHHH@Z
              D00100:
                0. 0B B7A9 0098 0000:?CalcItemsInRange@SECListBaseC@@UAEHHHH@Z
            14885DFF7E44568B7508576A015F2B7D108BC3B11199F7:
              0. 38 61F2 0058 0000:?HashString@SECCryptoBlackBox@@AAEXPADH0H@Z
        56:
          57:
            33FF:
              33DB813D........470004008BF17C17E8........5768:
                0. 0A 0003 006C 0000:?OnSetSizeHelper@SECToolBar@@IAEJAAVCSize@@J@Z
              397D088BF10F84B800000057FF7508E8........8BD883:
                0. 11 4C13 00DA 0000:?EnsureVisible@SECTreeBaseV@@QAEHPAU_TREEITEM@@H@Z (005B: 03)
                1. 11 4C13 00DA 0000:?EnsureVisible@SECTreeBaseC@@QAEHPAU_TREEITEM@@H@Z (005B: 02)
            68........:
              8D4DFCE8........FF75FC8B7D088B35:
                0. 0C 4C86 01F0 0000:?IsSupportedPropertyType@@YAHABVCString@@G@Z (00CE: 68)
                1. 0C 4C86 00FF 0000:?IsEditable@SECAPropBrowser@@IAEHABVSECABrowseProp@@@Z (00CE: 5B)
              FF750833F68975FCE8........8B7D0C595933DB:
                0. 06 FA77 00AE (l)0000:?JPEGPrintCTable@@YAXPAU_iobuf@@PAE@Z
            6A00FF75088BF1E8........85C0742D6A008BCEFF7508E8:
              0. 00 0000 0089 0000:?SelectItem@SECTreeBaseC@@QAEHPAU_TREEITEM@@@Z (0049: 5E)
              1. 00 0000 0089 0000:?SelectItem@SECTreeBaseV@@QAEHPAU_TREEITEM@@@Z (0049: 9A)
            837D0C0074276A018B450C:
              6BC006508B4D0851E8........85:
                0. 06 927E 0086 0000:?ConstructElements@@YGXPAUtagACCEL@@H@Z
              C1E002508B4D0851E8........85:
                0. 06 927E 0086 0000:?ConstructElements@@YGXPAPAVCFrameWnd@@H@Z (005F: 00)
            894DFC:
              68B601000068........8B45FC50E8........837D08:
                0. 09 B862 0079 0000:?SetAtGrow@?$CArray@USECCommand@@AAU1@@@QAEXHAAUSECCommand@@@Z (0039: 0C) (REF 0055: ?SetSize@?$CArray@USECCommand@@AAU1@@@QAEXHH@Z)
                1. 09 B862 0079 0000:?SetAtGrow@?$CArray@USECA_EventParam@@AAU1@@@QAEXHAAUSECA_EventParam@@@Z (0039: 0C) (REF 0055: ?SetSize@?$CArray@USECA_EventParam@@AAU1@@@QAEXHH@Z)
                2. 09 B862 0079 0000:?SetAtGrow@?$CArray@VSECABrowsedEvent@@AAV1@@@QAEXHAAVSECABrowsedEvent@@@Z (0039: 18)
                3. 09 B862 0079 0000:?SetAtGrow@?$CArray@USEC_ToolEntry@@AAU1@@@QAEXHAAUSEC_ToolEntry@@@Z (0039: 1C)
                4. 09 B862 0079 0000:?SetAtGrow@?$CArray@VSECABrowseProp@@AAV1@@@QAEXHAAVSECABrowseProp@@@Z (0039: 28)
                5. 09 B862 0079 0000:?SetAtGrow@?$CArray@UListData@SECAPropList@@AAU12@@@QAEXHAAUListData@SECAPropList@@@Z (0039: 04) (REF 0055: ?SetSize@?$CArray@UListData@SECAPropList@@AAU12@@@QAEXHH@Z)
                6. 09 B862 0077 0000:?SetAtGrow@?$CArray@VCString@@AAV1@@@QAEXHAAVCString@@@Z (0039: 04) (REF 0055: ?SetSize@?$CArray@VCString@@AAV1@@@QAEXHH@Z)
                7. 09 B862 0077 0000:?SetAtGrow@?$CArray@USECA_EnumType@@AAU1@@@QAEXHAAUSECA_EnumType@@@Z (0039: 04) (REF 0055: ?SetSize@?$CArray@USECA_EnumType@@AAU1@@@QAEXHH@Z)
                8. 09 B862 007F 0000:?SetAtGrow@?$CArray@UtagACCEL@@AAU1@@@QAEXHAAUtagACCEL@@@Z (0039: 8B) (REF 0055: ?SetSize@?$CArray@UtagACCEL@@AAU1@@@QAEXHH@Z)
                9. 09 B862 0071 0000:?SetAtGrow@?$CArray@PAUHMENU__@@PAU1@@@QAEXHPAUHMENU__@@@Z (0039: 8B) (REF 0055: ?SetSize@?$CArray@PAUHMENU__@@PAU1@@@QAEXHH@Z)
                10. 09 B862 0071 0000:?SetAtGrow@?$CArray@PAVSECACtrlItem@@PAV1@@@QAEXHPAVSECACtrlItem@@@Z (0039: 8B) (REF 0055: ?SetSize@?$CArray@PAVSECACtrlItem@@PAV1@@@QAEXHH@Z)
                11. 09 B862 0071 0000:?SetAtGrow@?$CArray@PAVSECMsgFilter@@PAV1@@@QAEXHPAVSECMsgFilter@@@Z (0039: 8B) (REF 0055: ?SetSize@?$CArray@PAVSECMsgFilter@@PAV1@@@QAEXHH@Z)
                12. 09 B862 0071 0000:?SetAtGrow@?$CArray@PAVSECBar@@PAV1@@@QAEXHPAVSECBar@@@Z (0039: 8B) (REF 0055: ?SetSize@?$CArray@PAVSECBar@@PAV1@@@QAEXHH@Z)
                13. 09 B862 0071 0000:?SetAtGrow@?$CArray@MM@@QAEXHM@Z (0039: 8B) (REF 0055: ?SetSize@?$CArray@MM@@QAEXHH@Z)
                14. 09 B862 0071 0000:?SetAtGrow@?$CArray@PAUDescriptor@SECMsgFilter@@PAU12@@@QAEXHPAUDescriptor@SECMsgFilter@@@Z (0039: 8B) (REF 0055: ?SetSize@?$CArray@PAUDescriptor@SECMsgFilter@@PAU12@@@QAEXHH@Z)
                15. 09 B862 0071 0000:?SetAtGrow@?$CArray@II@@QAEXHI@Z (0039: 8B) (REF 0055: ?SetSize@?$CArray@II@@QAEXHH@Z)
                16. 09 B862 0071 0000:?SetAtGrow@?$CArray@HH@@QAEXHH@Z (0039: 8B) (REF 0055: ?SetSize@?$CArray@HH@@QAEXHH@Z)
                17. 09 B862 0071 0000:?SetAtGrow@?$CArray@PAVSECBmpMenuItemInfo@@PAV1@@@QAEXHPAVSECBmpMenuItemInfo@@@Z (0039: 8B) (REF 0055: ?SetSize@?$CArray@PAVSECBmpMenuItemInfo@@PAV1@@@QAEXHH@Z)
              6A018B450883C0:
                0850E8........8B4D088B55FC8B42:
                  0. 2A B602 0078 0000:?FreeNode@?$CList@PAVSECBmpMenuItemInfo@@PAV1@@@IAEXPAUCNode@1@@Z
                0C50E8........6A018B4D0883C108:
                  0. 02 2EAE 0086 0000:?FreeAssoc@?$CMap@PAUHMENU__@@PAU1@PAUSECBmpMenuInfo@SECBmpMenuPlugIn@@PAU23@@@IAEXPAUCAssoc@1@@Z (REF 0014: ?DestructElements@@YGXPAPAUSECBmpMenuInfo@SECBmpMenuPlugIn@@H@Z)
                  1. 02 2EAE 0086 0000:?FreeAssoc@?$CMap@PAU_TREEITEM@@AAPAU1@PAVCStringArray@@PAV2@@@IAEXPAUCAssoc@1@@Z (REF 0014: ?DestructElements@@YGXPAPAVCStringArray@@H@Z)
              837D0800:
                751468:
                  D301000068........E8........85:
                    0. 15 F913 0045 0000:?GetNextChildPos@?$SECComposite_T@PAVSECLayoutNode@@@@UBEPAU__POSITION@@PAU2@@Z
                  DC01000068........E8........85:
                    0. 15 F913 0045 0000:?GetPrevChildPos@?$SECComposite_T@PAVSECLayoutNode@@@@UBEPAU__POSITION@@PAU2@@Z
                7C0B8B45FC8B4D083B48:
                  087C1468:
                    02010000:
                      0. 01 361F 004D 0000:?SetAt@?$CArray@PAVSECACtrlItem@@PAV1@@@QAEXHPAVSECACtrlItem@@@Z
                    06010000:
                      0. 01 361F 004C 0000:?ElementAt@?$CArray@UtagACCEL@@AAU1@@@QAEAAUtagACCEL@@H@Z (0019: 06)
                      1. 01 361F 004C 0000:?ElementAt@?$CArray@USECCommand@@AAU1@@@QAEAAUSECCommand@@H@Z (0019: 0C)
                      2. 01 361F 004C 0000:?ElementAt@?$CArray@VSECABrowsedEvent@@AAV1@@@QAEAAVSECABrowsedEvent@@H@Z (0019: 18)
                      3. 01 361F 004C 0000:?ElementAt@?$CArray@USEC_ToolEntry@@AAU1@@@QAEAAUSEC_ToolEntry@@H@Z (0019: 1C)
                      4. 01 361F 004C 0000:?ElementAt@?$CArray@VSECABrowseProp@@AAV1@@@QAEAAVSECABrowseProp@@H@Z (0019: 28)
                      5. 01 361F 004C 0000:?ElementAt@?$CArray@UListData@SECAPropList@@AAU12@@@QAEAAUListData@SECAPropList@@H@Z (0019: 04)
                    FE000000:
                      0. 01 361F 004A 0000:?GetAt@?$CArray@PAVSECBar@@PAV1@@@QBEPAVSECBar@@H@Z (001D: 8B)
                      1. 01 361F 004A 0000:?GetAt@?$CArray@MM@@QBEMH@Z (001D: D9)
                  587C1A8B55FC837A:
                    0. 07 8C69 0052 0000:?_GetPanePtr@SECStatusBar@@IBEPAUAFX_STATUSPANE@@H@Z
                  5C7C1A8B55FC837A:
                    0. 07 FA06 0052 0000:?_GetPanePtr@SECStatusBar@@IBEPAUAFX_STATUSPANE@@H@Z
              8B:
                45FC:
                  83:
                    380075116A6568........E8........85C0:
                      0. 15 8D3C 0035 0000:??C?$SECIteratorPtr@PAVSECBar@@@@QAEPAV?$SECIterator@PAVSECBar@@@@XZ
                    78040075116A:
                      5A68........E8........85:
                        0. 2B 92B8 004B 0000:?TestDragStartPoint@SECDragDropTaskBase@@UAEHIABVCPoint@@@Z
                      5D68........E8........85:
                        0. 2C D86B 004C 0000:?InitiateDrag@SECDragDropTaskBase@@UAEHIABVCPoint@@@Z
                      6068........E8........85:
                        0. 2C 6DB2 004C 0000:?TrackDrag@SECDragDropTaskBase@@UAEHIABVCPoint@@@Z
                      6368........E8........85:
                        0. 30 932A 0050 0000:?EndDrag@SECDragDropTaskBase@@UAEHIABVCPoint@@H@Z
                      6668........E8........85:
                        0. 2C 1609 004C 0000:?DragDropToggleEvent@SECDragDropTaskBase@@UAEHIABVCPoint@@@Z
                    B8:
                      B80000000074:
                        4168........8B4DFC8B89:
                          0. 05 95A0 0060 0000:?GetConfigFocus@SECCustomToolBar@@IBEPAV1@XZ
                        4368........8B4DFC8B89:
                          0. 05 95A0 0062 0000:?SetConfigFocus@SECCustomToolBar@@IAEXPAV1@@Z
                      BC0000000074:
                        4168........8B4DFC8B89:
                          0. 05 858D 0060 0000:?GetConfigFocus@SECCustomToolBar@@IBEPAV1@XZ
                        4368........8B4DFC8B89:
                          0. 05 858D 0062 0000:?SetConfigFocus@SECCustomToolBar@@IAEXPAV1@@Z
                  8B:
                    108B4DFCFF521885C0741468C200000068:
                      0. 00 0000 004E 0000:?Item@?$SECCArrayIterator@PAVSECBar@@PAV1@@SECArrayIteratorTypes@@UAEPAVSECBar@@XZ
                    4D088948088B55FC837A0800751468440100:
                      0. 02 09E0 0055 0000:?Init@?$Iterator_T@PAVSECLayoutNode@@@@UAEXPAV?$ICollection_T@PAVSECLayoutNode@@@@@Z
                4DFCE8........8B45FC8378:
                  0400754B8B4DFC8379:
                    0. 0A 6D0F 0111 0000:?AssertValid@?$CArray@UtagACCEL@@AAU1@@@UBEXXZ (00B4: 06)
                    1. 0A 6D0F 0111 0000:?AssertValid@?$CArray@USECCommand@@AAU1@@@UBEXXZ (00B4: 0C)
                    2. 0A 6D0F 0111 0000:?AssertValid@?$CArray@VSECABrowsedEvent@@AAV1@@@UBEXXZ (00B4: 18)
                    3. 0A 6D0F 0111 0000:?AssertValid@?$CArray@USEC_ToolEntry@@AAU1@@@UBEXXZ (00B4: 1C)
                    4. 0A 6D0F 0111 0000:?AssertValid@?$CArray@VSECAObjectDef@@AAV1@@@UBEXXZ (00B4: 24)
                    5. 0A 6D0F 0111 0000:?AssertValid@?$CArray@VSECABrowseProp@@AAV1@@@UBEXXZ (00B4: 28)
                    6. 0A 6D0F 0111 (!)0000:? (00B4: 02)
                    7. 0A 6D0F 0111 0000:?AssertValid@?$CArray@USECA_EnumType@@AAU1@@@UBEXXZ (00B4: 03)
                    8. 0A 6D0F 0111 0000:?AssertValid@?$CArray@UListData@SECAPropList@@AAU12@@@UBEXXZ (00B4: 04)
                  0800771468EA050000:
                    0. 01 361F 0068 0000:?AssertValid@?$CMap@PAVCFrameWnd@@PAV1@PAVSECPersistentTreeNode@@PAV2@@@UBEXXZ (0046: C3)
                  0C0075488B4DFC8379:
                    0. 0A F13C 00C6 0000:?AssertValid@?$CList@PAVSECBmpMenuItemInfo@@PAV1@@@UBEXXZ
              B80100000085C074:
                116A7068........E8........85:
                  0. 13 F565 0033 0000:?SetMessageHandled@SECWndListener@@UAEXH@Z
                1468:
                  5001000068........E8:
                    0. 00 0000 0037 0000:?GetSize@?$SECComposite_T@PAVSECLayoutNode@@@@UBEHXZ
                  5101000068........E8:
                    0. 00 0000 0036 0000:?iRemoveAt@?$SECComposite_T@PAVSECLayoutNode@@@@UAEXPAVCCIterPos@@@Z
                  5201000068........E8:
                    0. 00 0000 0036 0000:?iSet@?$SECComposite_T@PAVSECLayoutNode@@@@UAEXPAVCCIterPos@@PAVSECLayoutNode@@@Z
                  5301000068........E8:
                    0. 00 0000 0038 0000:?OnNextSearchNode@_Node@@UAEHGPAVSECTreeNode@@@Z (0015: C2)
                    1. 00 0000 0036 0000:?iInsert@?$SECComposite_T@PAVSECLayoutNode@@@@UAEXPAVCCIterPos@@PAVSECLayoutNode@@@Z (0015: 00)
                  5401000068........E8:
                    0. 00 0000 0034 0000:?RemoveAll@?$SECComposite_T@PAVSECLayoutNode@@@@UAEXXZ
                  5501000068........E8:
                    0. 00 0000 0038 0000:?iFindNext@?$SECComposite_T@PAVSECLayoutNode@@@@UBEHPAVCCIterPos@@PAVSECLayoutNode@@@Z
                  5601000068........E8:
                    0. 00 0000 0038 0000:?iFindPrev@?$SECComposite_T@PAVSECLayoutNode@@@@UBEHPAVCCIterPos@@PAVSECLayoutNode@@@Z
              FF7508FF15........8B:
                5D0C8B75108D78FF830BFF83:
                  0. 1D 209F 00B7 0000:?FindFirstAndLastDigits@Format@SECCurrencyEdit@@UBEHPBGAAH1@Z
                  1. 16 7323 0098 0000:?FindFirstAndLastDigits@Format@SECCurrencyEdit@@UBEHPBDAAH1@Z
                  2. 1E F4B2 00B9 0000:?FindFirstAndLastDigits@Format@SECCurrencyEdit@@UBEHPBGAAH1@Z
                7D0C8B75108D58FF830FFF83:
                  0. 15 96B7 0098 0000:?FindFirstAndLastDigits@Format@SECCurrencyEdit@@UBEHPBDAAH1@Z
            8B:
              7D:
                08:
                  33DB:
                    894DFC8B771C3BFB0F84960100003BF30F848E01:
                      0. 61 C79A 01BA 0000:?deflate@SECComp@@QAEHPAUz_stream_s@@H@Z
                    8BF13BFB750733C0E9C8000000395E48752568:
                      0. 00 0000 00E8 0000:?SetDockState@SECDockState@@UAEHPAVCFrameWnd@@@Z
                  85FF:
                    894DFC75046AFEEB31837F20007507C74720:
                      0. 00 0000 00B3 0000:?inflateInit2@SECComp@@QAEHPAUz_stream_s@@H@Z
                    8BF17438836508008D45088D9EF800000050578B:
                      0. 02 034A 007E 0000:?RestoreRemoveLayoutNode@SECLNDynamicGridLine@@UAEHPAVSECLayoutNode@@@Z
                  894DFC8B078BCFFF90:
                    000100008B750C85F675602175:
                      0. 02 729D 00B1 0000:?ReDockControlBar@SECFrameWnd@@QAEXPAVCControlBar@@PAVCDockBar@@PBUtagRECT@@@Z
                    080100008B750C85F675602175:
                      0. 02 729D 00B1 0000:?ReDockControlBar@SECFrameWnd@@QAEXPAVCControlBar@@PAVCDockBar@@PBUtagRECT@@@Z
                  8B5D10894DFC8BB7700100000FBF46023BD87E530FBF:
                    0. 21 C8FC 00DB 0000:?Fax3PutBits@SECTiff@@QAEXPAUtiff@@KJ@Z
                148D450833DB6A0150885DFF891FE8........59598B4D:
                  0. 0F 0077 015F 0000:?FindToken@@YAHPADPAPAD1PAJ1@Z
                  1. 0F DC2D 015E 0000:?FindToken@@YAHPADPAPAD1PAJ1@Z
              F1:
                68DBAA0000E8........8B7D088365FC008BD88D4DFC8B:
                  0. 0C 31C7 006F 0000:?AddDesignedObject@SECAEventBar@@QAEXABVCString@@PAUIUnknown@@@Z
                  1. 0C D4F8 006F 0000:?AddDesignedObject@SECAEventBar@@QAEXABVCString@@PAUIUnknown@@@Z
                6A11FF15........6685C08BCE7D0AE8........E92101:
                  0. 03 8AAD 014A 0000:?OnChar@SECMaskEdit@@IAEXIII@Z
                E8........8A5D088BF880FB20740980FB080F85:
                  810000:
                    0. 0F 01EB 00ED 0000:?StartEditing@SECListBoxEditor@@UAEHD@Z
                  820000:
                    0. 0F 65D6 00EE 0000:?StartEditing@SECListBoxEditor@@UAEHD@Z
              F9:
                33DB8BB7D400000085F674288BC68B368B40083B450874:
                  0. 0D B942 004C 0000:?CalcTotalVSplitterSize@SECLNDynamicGridLine@@MAEIPAVSECLayoutNode@@@Z
                83BF:
                  E000000000742CE8........FF75148B8FE0000000:
                    0. 23 8F37 00C5 0000:?OnCmdMsg@SECMDIFrameWnd@@UAEHIHPAXPAUAFX_CMDHANDLERINFO@@@Z
                    1. 23 E980 00C5 0000:?OnCmdMsg@SECMDIFrameWnd@@UAEHIHPAXPAUAFX_CMDHANDLERINFO@@@Z
                  E400000000742CE8........FF75148B8FE4000000:
                    0. 23 3B0E 00C5 0000:?OnCmdMsg@SECMDIFrameWnd@@UAEHIHPAXPAUAFX_CMDHANDLERINFO@@@Z
                    1. 23 5DB9 00C5 0000:?OnCmdMsg@SECMDIFrameWnd@@UAEHIHPAXPAUAFX_CMDHANDLERINFO@@@Z
                897DFCE8........8BF033DB3BF3751B8B078BCFFF90:
                  C0:
                    0. 06 E9BD 00BF 0000:?NotifyActiveView@SECMDIFrameWnd@@MAEXIPAVCWnd@@H@Z
                  C8:
                    0. 06 E9BD 00BF 0000:?NotifyActiveView@SECMDIFrameWnd@@MAEXIPAVCWnd@@H@Z
                8B87:
                  9C000000:
                    85C0740B57FFD085C00F84ED0000008B07:
                      0. 22 F0B5 0110 0000:?OnClose@SECMDIFrameWnd@@QAEXXZ
                    C787C00000000100000085C0740B57FFD0:
                      0. 2C 3A61 011A 0000:?OnClose@SECFrameWnd@@IAEXXZ
                  A0000000:
                    85C0740B57FFD085C00F84F00000008B07:
                      0. 22 63A0 0113 0000:?OnClose@SECMDIFrameWnd@@QAEXXZ
                    C787C40000000100000085C0740B57FFD0:
                      0. 2C 0BD0 011D 0000:?OnClose@SECFrameWnd@@IAEXXZ
                E8........8B:
                  75088BD86683FE20740A6683FE080F85:
                    86:
                      0. 11 0E5D 00F7 0000:?StartEditing@SECListBoxEditor@@UAEHG@Z
                    87:
                      0. 11 9078 00F8 0000:?StartEditing@SECListBoxEditor@@UAEHG@Z
                  B7:
                    C40000008BD885F68B83:
                      240100008945:
                        0. 06 1ACC 00A4 0000:?OnCmdMsg@SECFrameWnd@@UAEHIHPAXPAUAFX_CMDHANDLERINFO@@@Z
                      C40000008945:
                        0. 06 1ACC 00A4 0000:?OnCmdMsg@SECFrameWnd@@UAEHIHPAXPAUAFX_CMDHANDLERINFO@@@Z
                    C80000008BD885F68B83:
                      240100008945:
                        0. 06 1ACC 00A4 0000:?OnCmdMsg@SECFrameWnd@@UAEHIHPAXPAUAFX_CMDHANDLERINFO@@@Z
                      C40000008945:
                        0. 06 1ACC 00A4 0000:?OnCmdMsg@SECFrameWnd@@UAEHIHPAXPAUAFX_CMDHANDLERINFO@@@Z
          8B:
            35........33DB578B7D0853536A0B895DFCFF77:
              1CFFD65353:
                0. 65 678E 0093 0000:?ReplaceListBoxItem@SECWorkspaceListBoxEditor@@IAEHPAVCListBox@@HVCString@@K@Z
              20FFD65353:
                0. 65 BA4E 0093 0000:?ReplaceListBoxItem@SECWorkspaceListBoxEditor@@IAEHPAVCListBox@@HVCString@@K@Z
            75:
              08:
                33DB:
                  3BF3:
                    57894DFC0F84:
                      F9000000807E54720F85EF0000:
                        0. 3D F8F6 011A 0000:?gzread@SECComp@@QAEKPAX0J@Z
                      FA000000807E54720F85F00000:
                        0. 3D 8C7E 011B 0000:?gzread@SECComp@@QAEKPAX0J@Z
                    894DFC746B807E54777565895E04B800100000:
                      0. 0D 2F2A 0086 0000:?gzflush@SECComp@@QAEHPAXH@Z
                  894DFC395E2C74088B55108B463089028B06578B7D:
                    0. 21 6B62 0088 0000:?inflate_blocks_reset@SECComp@@QAEXPAUinflate_blocks_state@@PAUz_stream_s@@PAK@Z
                57:
                  33FF894DFC393E740B8BC683C0204783380075F78BC7:
                    0. 05 C736 0066 0000:?LoadBtnsFromBtnMap@SECMenuBar@@IAEHPBUSECBtnMapEntry@@@Z
                  85F68B7E1C894DFC0F84AA00000085FF0F84A2000000:
                    0. 8B 5CF1 00CC 0000:?inflateSync@SECComp@@QAEHPAUz_stream_s@@@Z
                  894DFC6A018A4E3A5F0FB74648D3E70FB78E90000000:
                    0. 1D 82F3 007B 0000:?TIFFWriteTransferFunction@SECTiff@@QAEJPAUtiff@@PAUTIFFDirEntry@@@Z
                  8B:
                    7D0C:
                      894DFC8B:
                        5E248B470C89450C8B46283BD87603:
                          0. 4E 3B87 00FF 0000:?inflate_flush@SECComp@@QAEHPAUinflate_blocks_state@@PAUz_stream_s@@H@Z
                        86300100006A000FB74F0250894708:
                          0. 03 5A80 008F 0000:?TIFFWriteData@SECTiff@@QAEJPAUtiff@@PAUTIFFDirEntry@@PAE@Z
                      8BD98B8614010000897D0C6685FF8945FC0F8E:
                        0. 56 28DF 010E 0000:?TIFFSetDirectory@SECTiff@@QAEJPAUtiff@@F@Z
                      8D45FC8365FC0050832700FF7608FF7614E8:
                        0. 00 0000 005A 0000:?Clone@SECAEnumVariant@@UAGJPAPAUIEnumVARIANT@@@Z
                    F98B4614F7D0A8017448FF770C8BCEE8........33:
                      0. 1F 5146 00A0 0000:?Serialize@?$CMap@HAAHHAAH@@UAEXAAVCArchive@@@Z
                      1. 1F B5D2 009F 0000:?Serialize@?$CMap@HHHAAH@@UAEXAAVCArchive@@@Z
                894DFC57:
                  6A028B8EA01600005883F90D7E55D3E08B4E10:
                    0. 65 C03A 024A 0000:?ct_align@SECComp@@QAEXPAUdeflate_internal_state@@@Z
                  8BCE8B06FF90:
                    000100008B7D0C85FF75318B4E:
                      0. 04 542B 0082 0000:?DockControlBar@SECFrameWnd@@QAEXPAVCControlBar@@PAVCDockBar@@PBUtagRECT@@@Z
                    080100008B7D0C85FF75318B4E:
                      0. 04 60BC 0082 0000:?DockControlBar@SECFrameWnd@@QAEXPAVCControlBar@@PAVCDockBar@@PBUtagRECT@@@Z
              0C578B7D08894DFC:
                0FB746028B1C85........0FAF5E04F6:
                  0. 4D 9AAB 00F3 0000:?TIFFFetchData@SECTiff@@QAEJPAUtiff@@PAUTIFFDirEntry@@PAE@Z
                FF36FF37E8........8B06:
                  508A18E8:
                    0. 00 0000 005D 0000:?ParseQuotedText@SECDateTimeCtrl@@IAEXAAPBD0I@Z
                  8B1D:
                    0. 00 0000 0060 0000:?ParseQuotedText@SECDateTimeCtrl@@IAEXAAPBD0I@Z
              10:
                578B7D0C8BD9668B0E668B560666890F668B4E088B4508:
                  0. 22 1719 02A0 0000:?TIFFWriteNormalTag@SECTiff@@QAEJPAUtiff@@PAUTIFFDirEntry@@PBUTIFFFieldInfo@@@Z
                8B450C57894DFC0FB7B9880000000FAF7D1C85F674628B:
                  0. BA 8879 00DA 0000:?geti_putRGBcontig16bittile@SECTiff@@IAEXPAKPAE1KKJJ@Z
            F1:
              33DB895DFC8B86:
                88000000C1E81583E001395D107407C745:
                  0. 5E C761 00BE 0000:?OnPgUpKeyPressed@SECListBaseC@@MAEXHHHHII@Z
                8C000000C1E81583E001395D107407C745:
                  0. 5E 23DE 00BE 0000:?OnPgUpKeyPressed@SECListBaseV@@MAEXHHHHII@Z
                  1. 5E 5C62 00BE 0000:?OnPgUpKeyPressed@SECListBaseC@@MAEXHHHHII@Z
                90000000C1E81583E001395D107407C745:
                  0. 5E A6C9 00BE 0000:?OnPgUpKeyPressed@SECListBaseV@@MAEXHHHHII@Z
              57:
                33FF8B5E:
                  5885DB7E2C8D45FC8BCE50576A00E8:
                    0. 15 4EE3 0043 0000:?ForcePaneOwnerdraw@SECCustomStatusBar@@IAEXXZ
                    1. 15 7E07 0043 0000:?ForcePaneOwnerdraw@SECCustomStatusBar@@IAEXXZ
                  5C85DB7E2C8D45FC8BCE50576A00E8:
                    0. 15 43C0 0043 0000:?ForcePaneOwnerdraw@SECCustomStatusBar@@IAEXXZ
                    1. 15 7324 0043 0000:?ForcePaneOwnerdraw@SECCustomStatusBar@@IAEXXZ
                83:
                  7E44007405E8........8B7D08FF35........8BCF8B:
                    0. 63 45E3 0083 0000:?OnDraw@SECPanel@@UAEHPAVCDC@@@Z
                    1. 63 71CA 0083 0000:?OnDraw@SECPanel@@UAEHPAVCDC@@@Z
                  BE88000000010F85:
                    560100008B7D088B46748B4E788B:
                      0. 49 9C0E 0175 0000:?GetCaretWord@SECATokenizer@@QAEHPAGH@Z
                    590100008B7D088B46748B4E788B:
                      0. 4A 80DC 0178 0000:?GetCaretWord@SECATokenizer@@QAEHPAGH@Z
                8B:
                  06:
                    834E:
                      50FFFF902C0200008BF88B068BCE897DFCFF90:
                        0. 48 C1DD 01F5 0000:?ProcessSelectChange@SECListBaseC@@MAEHHIIW4SECListSelectAction@@@Z
                      54FFFF90:
                        340200008BF88B068BCE897DFCFF90:
                          0. 48 EAFA 01F5 0000:?ProcessSelectChange@SECListBaseC@@MAEHHIIW4SECListSelectAction@@@Z
                        7C0200008BF88B068BCE897DFCFF90:
                          0. 48 D581 01F5 0000:?ProcessSelectChange@SECListBaseV@@MAEHHIIW4SECListSelectAction@@@Z
                      58FFFF90840200008BF88B068BCE897DFCFF90:
                        0. 48 3456 01F5 0000:?ProcessSelectChange@SECListBaseV@@MAEHHIIW4SECListSelectAction@@@Z
                    8B5E:
                      3CFF90100100008BCBE8........8BCEE8:
                        0. 00 0000 007D 0000:?ApplyContainerProperties@SECScriptHostView@@UAEXXZ
                      40FF90180100008BCBE8........8BCEE8:
                        0. 00 0000 007D 0000:?ApplyContainerProperties@SECScriptHostView@@UAEXXZ
                    FF:
                      50:
                        2885C0750433C0EB6E8B5E2C68........FF75:
                          0. 02 C1AA 008B 0000:?SaveImage@SECTiff@@UAEHPBD@Z (REF 001A: ??_C@_01LLF@w?$AA@)
                          1. 02 C1AA 008B 0000:?SaveImage@SECTiff@@UAEHPBG@Z (REF 001A: ??_C@_13FIHE@?$AAw?$AA?$AA@)
                        3085C0750433C0EB708B5E2C68........FF75:
                          0. 03 E2B8 008D 0000:?SaveImage@SECTiff@@UAEHPBD@Z (REF 001A: ??_C@_01LLF@w?$AA@)
                          1. 03 E2B8 008D 0000:?SaveImage@SECTiff@@UAEHPBG@Z (REF 001A: ??_C@_13FIHE@?$AAw?$AA?$AA@)
                        788945FC33C03945FC742E8B7D208B5D14578B:
                          0. 12 B6E8 004D 0000:?GetSysCommand@ScxButtonMDIMaxChildMsgFilter@nsSysCommandEx@@UAEHKVCPoint@@AAPAUHWND__@@AAI2AAJ@Z
                      90800000008945FC33C03945FC742E8B7D208B5D:
                        0. 15 ED1D 0050 0000:?GetSysCommand@ScxButtonMDIMaxChildMsgFilter@nsSysCommandEx@@UAEHKVCPoint@@AAPAUHWND__@@AAI2AAJ@Z
                  46:
                    403B45080F84F700000033DB3BC3745D8B065353FF:
                      0. 11 F5A2 0120 0000:?ActivateTab@SECTabWnd@@UAEXPAVCWnd@@H@Z
                    443B45080F84F700000033DB3BC3745D8B065353FF:
                      0. 11 5195 0120 0000:?ActivateTab@SECTabWnd@@UAEXPAVCWnd@@H@Z
                  7D088B46:
                    3C8BDF8B40F883F8018945FC7D078BC7E9:
                      88:
                        0. 4C 4A1A 00F5 0000:?SetCursorPos@SECMaskEdit@@MAEHHHH@Z
                      8C:
                        0. 50 2E32 00F9 0000:?SetCursorPos@SECMaskEdit@@MAEHHHH@Z
                    408BDF8B40F883F8018945FC7D078BC7E9:
                      88:
                        0. 4C 09F9 00F5 0000:?SetCursorPos@SECMaskEdit@@MAEHHHH@Z
                      8C:
                        0. 50 98D4 00F9 0000:?SetCursorPos@SECMaskEdit@@MAEHHHH@Z
          8D45:
            08578BF950E8........83BF:
              6815000000C745FC01000000:
                0. 05 6650 00F7 0000:?AddDateToList@SECCalendar@@IAEHVCOleDateTime@@@Z
              7C15000000C745FC01000000:
                0. 05 6650 00F7 0000:?AddDateToList@SECCalendar@@IAEHVCOleDateTime@@@Z
            FC6A008BF150E8........85C074666A006A006888010000:
              0. 05 13B0 0081 0000:?OnChkChange@SECToolBarsBase@@IAEXXZ
              1. 05 6895 0081 0000:?OnChkChange@SECToolBarsBase@@IAEXXZ
          FF75088BF18B5E288D4E2053E8........83650800837D100076:
            0. 15 B336 0077 0000:?AddBmpInfo@SECBmpMgr@@IAEXPAUBmpInfo@1@PBII@Z
        578BF933DB895DFC395F0C0F8ECC000000568B47088B4DFC8B3488:
          0. 3A 5A2C 00E8 0000:?SetControlBarInfoObjects@SECDockState@@MAEXPAVCFrameWnd@@H@Z
          1. 3A 6E33 00E8 0000:?SetControlBarInfoObjects@SECDockState@@MAEXPAVCFrameWnd@@H@Z
        8365FC00568B750857BF........576A008BD956E8........85C0:
          0. 11 1E17 01F1 0000:?TIFFWriteScanline@SECTiff@@QAEJPAUtiff@@PAXKG@Z
        8B:
          1D........33C056508BF1506888010000FF76:
            3C8945FCFFD383:
              0. 22 350E 0069 0000:?GetCurBar@SECToolBarsBase@@IAEHAAPAVCControlBar@@PAH@Z
            408945FCFFD383:
              0. 22 D4A0 0069 0000:?GetCurBar@SECToolBarsBase@@IAEHAAPAVCControlBar@@PAH@Z
          450C568B7508894DFC578B8EA016000083F90B7E5805FFFEFFFF:
            0. FF 2F86 023F 0000:?send_all_trees@SECComp@@QAEXPAUdeflate_internal_state@@HHH@Z
          5D:
            0856:
              57:
                837B0C00894DFC0F8545010000FF7308E8........8D:
                  0. FF 3D15 0169 0000:?LoadPaintContext@SECTreeBaseC@@MAEHPAVSECListPaintContext@@@Z
                  1. FF 67DA 0169 0000:?LoadPaintContext@SECTreeBaseC@@MAEHPAVSECListPaintContext@@@Z
                  2. FF 9E69 0169 0000:?LoadPaintContext@SECTreeBaseV@@MAEHPAVSECListPaintContext@@@Z
                  3. FF DFB3 0169 0000:?LoadPaintContext@SECTreeBaseV@@MAEHPAVSECListPaintContext@@@Z
                8B:
                  038378F80074:
                    398B713085F674328BC68B368B7808:
                      0. 07 2CBA 0054 0000:?FindChildNode@SECPersistentTreeNode@@QAEPAV1@ABVCString@@@Z
                    3A8B713085F674338BC68B368B7808:
                      0. 07 2CBA 0055 0000:?FindChildNode@SECPersistentTreeNode@@QAEPAV1@ABVCString@@@Z
                  7D0C8BF1FF37FF33E8........6A018BCE586A7957:
                    0. 07 0A52 00C2 0000:?ParseYear@SECDateTimeCtrl@@IAEXAAPBD0I@Z (009A: 00)
                    1. 07 0A52 00C3 0000:?ParseYear@SECDateTimeCtrl@@IAEXAAPBD0I@Z (009A: 0C)
                  F96AFF897DFC8B77083BDE7C0E8B75108D043350E8:
                    0. 00 0000 00A9 0000:?InsertAt@?$CArray@VSECAObjectDef@@AAV1@@@QAEXHAAVSECAObjectDef@@H@Z (0088: 00)
                    1. 00 0000 00AA 0000:?InsertAt@?$CArray@VSECAObjectDef@@AAV1@@@QAEXHAAVSECAObjectDef@@H@Z (0088: 0C)
                FF75108B7D0C894DFC5753E8........85C074498B75:
                  0. 10 D624 00BB 0000:?TIFFFetchStripThing@SECTiff@@QAEJPAUtiff@@PAUTIFFDirEntry@@JPAPAK@Z
              8B750C578B7D10575653894DFCE8........8B:
                43082B46:
                  0. 6D F0C1 008D 0000:?CalcGripperComponentsVert@SECLayoutNodeGripperEx@@MAEXABVCRect@@PAVSECGripperInternalZones@SECLayoutNodeGripper@@PAVSECGripperComponents@4@@Z
                46348B4B:
                  0. 71 020A 0091 0000:?CalcGripperComponentsHorz@SECLayoutNodeGripperEx@@MAEXABVCRect@@PAVSECGripperInternalZones@SECLayoutNodeGripper@@PAVSECGripperComponents@4@@Z
            0C56:
              57FF75108B7D08894DFC8BB7700100006A0053E8:
                0. 00 0000 0072 0000:?Fax4Decode@SECTiff@@QAEJPAUtiff@@PAEJG@Z (0051: 00)
                1. 00 0000 0099 0000:?Fax3Decode@SECTiff@@QAEJPAUtiff@@PAEJG@Z (0051: 8B)
              8B:
                7508578BF985DB897508740A8B038BCBFF5050894508:
                  0. 4C 5AFB 006C 0000:?SendDockingEventNotification@SECLNDockingMgr@@UAEHPAVSECLayoutNode@@00PAV?$SECObjectMemoryManager_T@VSECLayoutNode@@@@@Z
                F1578B7D086A018D:
                  4E7C5357897DFC894D08E8:
                    0. 00 0000 00C1 0000:?InsertRowBar@SECDockBar@@MAEHHPAVCControlBar@@@Z
                  8E800000005357897DFC894D08E8:
                    0. 00 0000 00C4 0000:?InsertRowBar@SECDockBar@@MAEHHPAVCControlBar@@@Z
            10568B750C57BF400A00003BF7894DFC7C1F8B4DFC8D836A02:
              0. 07 2320 0076 0000:?fax3_putspan@SECTiff@@QAEXPAUtiff@@JPBUtableentry@@@Z
            14568B750857894DFC837E:
              6C0074548B7E7085FF744D837F78:
                0. 06 9489 0141 0000:?FloatControlBar@SECFrameWnd@@UAEXPAVCControlBar@@VCPoint@@K@Z
              700074548B7E7485FF744D837F7C:
                0. 06 9489 0141 0000:?FloatControlBar@SECFrameWnd@@UAEXPAVCControlBar@@VCPoint@@K@Z
          D9:
            568B75108B4308578B7D088945FC3BF86AFF7C0B8D043750E8:
              0. 00 0000 0092 0000:?InsertAt@?$CArray@PAVSECBar@@PAV1@@@QAEXHPAVSECBar@@H@Z (0071: 00)
              1. 00 0000 0093 0000:?InsertAt@?$CArray@PAVSECBar@@PAV1@@@QAEXHPAVSECBar@@H@Z (0071: 0C)
            6A08895DFC0FB78B860000005899F7F98BCB40C1E00A50E8:
              0. 00 0000 01FD 0000:?geti_makebwmap@SECTiff@@QAEHPAUtiff@@PAE@Z (01DC: 00)
              1. 00 0000 02B0 0000:?geti_makecmap@SECTiff@@QAEHPAUtiff@@PAG11@Z (01DC: C1)
        8D45FC5650FF75088BF1E8........85C00F84900000006A018D8E:
          0. 08 654E 00B2 0000:?RemoveSheet@SECWorkbook@@MAEXPAVSECWorksheet@@@Z
          1. 08 7F2E 00B2 0000:?RemoveSheet@SECWorkbook@@MAEXPAVSECWorksheet@@@Z
      56:
        57:
          33FF8BF166397D0874548B46:
            3C8B40F83BC78945FC7E358B463C:
              0. 28 1715 006A 0000:?SetPromptChar@SECMaskEdit@@UAEXG@Z
            408B40F83BC78945FC7E358B4640:
              0. 28 53C5 006A 0000:?SetPromptChar@SECMaskEdit@@UAEXG@Z
          68........8D4DFCE8........FF75FC8B7508FF36E8:
            0. 08 9DC5 0209 0000:?IsSupportedPropertyType@@YAHABVCString@@G@Z (00DD: 68)
            1. 08 9DC5 0109 0000:?IsEditable@SECAPropBrowser@@IAEHABVSECABrowseProp@@@Z (00DD: C9)
          894DFC:
            6A20E8........85C059740B8BC8E8........8BF0EB02:
              0. 3C F0C7 0071 0000:?AddBitmap@SECBmpMgr@@QAEHPAUHBITMAP__@@0PBII@Z
            8B7DFC83C720B90B0000008D7508F3A55F5E8BE55DC22C:
              0. 01 78F0 0021 0000:?SetWindowPlacement@SECAContainerProps@@QAEXUtagWINDOWPLACEMENT@@@Z
          8B:
            7D088BF157E8........85C00F844701000085FF7E058D47FF:
              0. 37 0E69 0166 0000:?DeleteItem@SECListBaseV@@UAEHHH@Z
              1. 37 1545 0166 0000:?DeleteItem@SECListBaseC@@UAEHHH@Z
              2. 37 CA7A 0166 0000:?DeleteItem@SECListBaseC@@UAEHHH@Z
              3. 37 EA66 0166 0000:?DeleteItem@SECListBaseV@@UAEHHH@Z
            F1:
              6856A80000E8........33FF57576888010000FF70:
                1CFF15:
                  0. 00 0000 0098 0000:?OnSelChange@SECToolBarCmdPage@@IAEXXZ
                20FF15:
                  0. 00 0000 0098 0000:?OnSelChange@SECToolBarCmdPage@@IAEXXZ
              E8........:
                8365FC008DBE:
                  2C0200008D450C8BCF50E8:
                    0. 00 0000 00E0 0000:?OnLButtonDown@SECCalendar@@QAEXIVCPoint@@@Z
                  400200008D450C8BCF50E8:
                    0. 00 0000 00E0 0000:?OnLButtonDown@SECCalendar@@QAEXIVCPoint@@@Z
                8BF868........8BCFE8........85C0740C8B:
                  0. 0C 2395 00AB 0000:?AddDefaultIds@SECCommandList@@UAEHXZ
                  1. 0C CF4B 00AA 0000:?AddDefaultIds@SECCommandList@@UAEHXZ
            F9:
              8B:
                07FF50:
                  5485C08945FC74:
                    3D8B078D4DFC518BCFFF50588B:
                      0. 06 88DC 0078 0000:?GetFormByName@SECAFloatDocTemplate@@UAEPAUIDispatch@@ABVCString@@@Z
                    3F8B078D4DFC518BCFFF50588B:
                      0. 06 9846 007A 0000:?GetFormByName@SECAFloatDocTemplate@@UAEPAUIDispatch@@ABVCString@@@Z
                  5C85C08945FC74:
                    3E8B078D4DFC518BCFFF50608B:
                      0. 06 50C5 0079 0000:?GetFormByName@SECAFloatDocTemplate@@UAEPAUIDispatch@@ABVCString@@@Z
                    408B078D4DFC518BCFFF50608B:
                      0. 06 405F 007B 0000:?GetFormByName@SECAFloatDocTemplate@@UAEPAUIDispatch@@ABVCString@@@Z
                B7D400000085F67427538D9FEC0000008D4DFC8BC68B36:
                  0. 07 650C 0053 0000:?ClearCellList@SECLNDynamicGridLine@@MAEXXZ
              E8........8BF068........8BCEE8........85C0740C8B:
                0. 0C 513C 00A8 0000:?ApplyAcceleratorsToMenus@SECShortcutTable@@UAEHXZ
                1. 0C BDE2 00A7 0000:?ApplyAcceleratorsToMenus@SECShortcutTable@@UAEHXZ
          E8........8B70048BCEE8........85C08945FC74228D45FC8B:
            0. 03 FC64 0048 0000:?GetFloatingDocTemplate@SECAAppObj@@IAEPAVSECAFloatDocTemplate@@XZ
        68........8D4DFCE8........8B750833C06A20FF75FC89461089:
          0. 23 3E80 0058 0000:?GetDefaultFont@SECACodeViewRTF@@IAEXAAUSECACharFormat@@@Z
        894DFC8B4DFCE8........8BF08B4DFCE8........3BC61BC0F7D8:
          0. 05 D291 0025 0000:?IsDragDelayOver@SECListBoxDragWnd@@QBEHXZ
        8B:
          45085733FF578BF1576818040000FF76:
            1C898664010000FF15:
              0. 00 0000 0088 0000:?SetColumns@SECAToolBox@@UAEXI@Z
            20898668010000FF15:
              0. 00 0000 0088 0000:?SetColumns@SECAToolBox@@UAEXI@Z
          7508:
            57:
              33FF397E08894DFC7E228B46048B04B885C074128B4DFC:
                0. 1B 2D62 003B 0000:?EnableChildren@SECMsgFilter@@UAEXABUDescriptorTable@1@QBH@Z
                1. 1B 9515 003B 0000:?EnableChildren@SECMsgFilter@@UAEXABUDescriptorTable@1@QBH@Z
              894DFCFF7604E8........8BF885FF0F84:
                AD0000008B0E:
                  0. 7D 0DF8 00D1 0000:?GetItem@SECTreeBaseC@@UBEHPAUtagTVITEMA@@HH@Z (0026: 64) (REF 009D: __mbsnbcpy)
                  1. 7D 0DF8 00D1 0000:?GetItem@SECTreeBaseC@@UBEHPAUtagTVITEMW@@HH@Z (0026: 64) (REF 009D: _wcsncpy)
                  2. 7D 0DF8 00D1 0000:?GetItem@SECTreeBaseV@@UBEHPAUtagTVITEMW@@HH@Z (0026: C8) (REF 009D: _wcsncpy)
                  3. 7D 0DF8 00D1 0000:?GetItem@SECTreeBaseV@@UBEHPAUtagTVITEMA@@HH@Z (0026: C8) (REF 009D: __mbsnbcpy)
                AE0000008B0E:
                  0. 7E 552F 00D2 0000:?GetItem@SECTreeBaseC@@UBEHPAUtagTVITEMA@@HH@Z (0026: 6C) (REF 009E: _mbsnbcpy)
                  1. 7E 552F 00D2 0000:?GetItem@SECTreeBaseC@@UBEHPAUtagTVITEMW@@HH@Z (0026: 6C) (REF 009E: wcsncpy)
                  2. 7E 552F 00D2 0000:?GetItem@SECTreeBaseV@@UBEHPAUtagTVITEMW@@HH@Z (0026: D0) (REF 009E: wcsncpy)
                  3. 7E 552F 00D2 0000:?GetItem@SECTreeBaseV@@UBEHPAUtagTVITEMA@@HH@Z (0026: D0) (REF 009E: _mbsnbcpy)
              8B:
                7D0C8B4608D9EE48D95DFC3BF87F0D85FF7C098B4604:
                  0. 1C 07F7 0091 0000:?TrackMaxWeightArrayState@SECLNGridBag@@MAEXAAV?$CArray@MM@@HMAAHAAM@Z
                F98B068D4F045168........8BCEFF50:
                  548B068D4F08:
                    0. 02 262A 0077 0000:?LoadFromRegistry@SECWindowInfo@@UAEXAAVSECRegistry@@@Z
                  5C8B068D4F08:
                    0. 02 262A 0077 0000:?LoadFromRegistry@SECWindowInfo@@UAEXAAVSECRegistry@@@Z
            85F6894DFC7468807E547775628B450C538B5D10890685DB:
              0. 1B 1AD3 007F 0000:?gzwrite@SECComp@@QAEJPAXPAEJ@Z
          F1:
            57:
              33FF8B86:
                88000000897DFCC1E81583E001397D107407C745:
                  0. 5F 991B 00C0 0000:?OnPgDnKeyPressed@SECListBaseC@@MAEXHHHHII@Z
                8C000000897DFCC1E81583E001397D107407C745:
                  0. 5F 237B 00C0 0000:?OnPgDnKeyPressed@SECListBaseC@@MAEXHHHHII@Z
                  1. 5F 57CA 00C0 0000:?OnPgDnKeyPressed@SECListBaseV@@MAEXHHHHII@Z
                90000000897DFCC1E81583E001397D107407C745:
                  0. 5F A0FA 00C0 0000:?OnPgDnKeyPressed@SECListBaseV@@MAEXHHHHII@Z
              68........8D4DFCE8........FF75FCFF76:
                20E8:
                  0. 08 9DC5 0047 0000:?LoadItems@SECScriptHostDoc@@MAEHXZ (001A: 74)
                  1. 08 9DC5 0047 0000:?SaveItems@SECScriptHostDoc@@MAEHXZ (001A: 78)
                24FF15:
                  0. 00 0000 0048 0000:?LoadItems@SECScriptHostDoc@@MAEHXZ (0027: C3)
                  1. 00 0000 004B 0000:?SaveItems@SECScriptHostDoc@@MAEHXZ (0027: 5F)
              6A018B46:
                3C8D4E3CFF50088B8EEC000000E8........8B06:
                  0. 30 6721 011F 0000:?DeleteColumn@SECListBaseC@@UAEHH@Z
                408D4E40FF50088B8EF0000000E8........8B06:
                  0. 30 9004 011F 0000:?DeleteColumn@SECListBaseV@@UAEHH@Z
                  1. 30 AFE8 011F 0000:?DeleteColumn@SECListBaseC@@UAEHH@Z
                448D4E44FF50088B8EF4000000E8........8B06:
                  0. 30 E8E6 011F 0000:?DeleteColumn@SECListBaseV@@UAEHH@Z
              8B:
                46:
                  40A802741883F0028065FE008946408A463C8845FC8A:
                    0. 0F 73E5 0091 0000:?OnChar@SECCalculator@@IAEXIII@Z
                  44A802741883F0028065FE008946448A46408845FC8A:
                    0. 0C 0673 0095 0000:?OnChar@SECCalculator@@IAEXIII@Z
                7D088B86:
                  3401000085C08945FC74338B8E300100003B7C:
                    0. 0C 4B60 0063 0000:?AddToSelItemsArray@SECListBaseC@@IAEHH@Z
                  3801000085C08945FC74338B8E340100003B7C:
                    0. 0C 4B60 0063 0000:?AddToSelItemsArray@SECListBaseV@@IAEHH@Z (REF 002C: ?FindInSelItemsArray@SECListBaseV@@IBEHHAAH@Z)
                    1. 0C 4B60 0063 0000:?AddToSelItemsArray@SECListBaseC@@IAEHH@Z (REF 002C: ?FindInSelItemsArray@SECListBaseC@@IBEHHAAH@Z)
                  3C01000085C08945FC74338B8E380100003B7C:
                    0. 0C 4B60 0063 0000:?AddToSelItemsArray@SECListBaseV@@IAEHH@Z
            83:
              7E:
                440074056A0158EB398B068BCEFF50608D4DFC8945FC8B:
                  0. 0E FEC2 004E 0000:?IsModified@SECScriptHostDoc@@UAEHXZ
                480074056A0158EB398B068BCEFF50688D4DFC8945FC8B:
                  0. 0E 42EF 004E 0000:?IsModified@SECScriptHostDoc@@UAEHXZ
              BE:
                0401000000740733C0E9A6000000538D4DFCFF7508C786:
                  0. 09 BF6F 00C2 0000:?OpenDocument@SECScriptHostDoc@@QAEHPBDH@Z
                0801000000740733C0E9A7000000538D4DFCFF7508C786:
                  0. 09 902F 00C3 0000:?OpenDocument@SECScriptHostDoc@@QAEHPBDH@Z
                B0000000000F85BA0000008B8EE400000083A6B8000000:
                  0. 1C 9768 00D3 0000:?RecalcLayout@SECOleCntrFrameWnd@@UAEXH@Z
                B4000000000F85BA0000008B8EE800000083A6BC000000:
                  0. 1C C8D1 00D3 0000:?RecalcLayout@SECOleCntrFrameWnd@@UAEXH@Z
            8B06FF:
              50:
                608D4DFC8945FC8B06518BCEFF5064:
                  5EC9C3:
                    0. 00 0000 001D 0000:?GetThumbNailView@SECTNDocument@@MAEPAVSECTNView@@XZ
                  8BC8E8:
                    0. 00 0000 0024 0000:?GetFrame@SECScriptHostDoc@@UAEPAVCFrameWnd@@XZ
                688D4DFC8945FC8B06518BCEFF506C:
                  5EC9C3:
                    0. 00 0000 001D 0000:?GetThumbNailView@SECTNDocument@@MAEPAVSECTNView@@XZ
                  8BC8E8:
                    0. 00 0000 0024 0000:?GetFrame@SECScriptHostDoc@@UAEPAVCFrameWnd@@XZ
              90:
                B400000085C08945FC741D8B068D4DFC518BCEFF90:
                  0. 09 91B9 0047 0000:?ClearAllItems@SECScriptHostDoc@@MAEXXZ
                BC00000085C08945FC741D8B068D4DFC518BCEFF90:
                  0. 09 9528 0047 0000:?ClearAllItems@SECScriptHostDoc@@MAEXXZ
            8D:
              45FC57508D8E:
                98000000E8........83F8FF74378B8E5401:
                  0. 0C BBDF 0057 0000:?OnEditStockProp@SECAPropBrowser@@IAEXXZ
                A0000000E8........83F8FF74378B8E6401:
                  0. 0C BBDF 0057 0000:?OnEditStockProp@SECAPropBrowser@@IAEXXZ
              4D:
                08578B7D088B06518D4DFC51578BCEFF90A401000033C0:
                  0. 41 4C09 0061 0000:?SetVSplittersOnAdd@SECLNDynamicGridLine@@MAEHPAVSECLayoutNode@@@Z
                  1. 41 D8F6 0061 0000:?SetVSplittersOnRemove@SECLNDynamicGridLine@@MAEHPAVSECLayoutNode@@@Z
                FC8B0651:
                  8BCEFF900C01000085C0750583C8FFEB10FF75:
                    0. 13 3707 0033 0000:?AddLayoutNode@SECLNBorderClient@@UAEHPAVSECLayoutNode@@@Z
                  8D4D08518BCEFF7508FF90:
                    0C02000085C0740F:
                      0. 16 E161 0036 0000:?DeleteColumn@SECListBaseV@@UAEHABVCString@@@Z
                    1402000085C0740F:
                      0. 16 A8C0 0036 0000:?DeleteColumn@SECListBaseV@@UAEHABVCString@@@Z
                    BC01000085C0740F:
                      0. 16 C29E 0036 0000:?DeleteColumn@SECListBaseC@@UAEHABVCString@@@Z
                    C401000085C0740F:
                      0. 16 7AE9 0036 0000:?DeleteColumn@SECListBaseC@@UAEHABVCString@@@Z
            E8........85C074278B8E:
              900000008D45FC50E8........85:
                0. 06 B5AC 0048 0000:?GetBackgroundColor@SECCurrencyEdit@@IBEKXZ
              980000008D45FC50E8........85:
                0. 06 B5AC 0048 0000:?GetBackgroundColor@SECCurrencyEdit@@IBEKXZ
            FF15........50E8........3BC674078BCEE8........8D45:
              0. 0B 960C 0058 0000:?OnLButtonDown@SECTreeBaseV@@IAEXIVCPoint@@@Z (REF 002B: ?HitTest@SECTreeBaseV@@QAEPAU_TREEITEM@@VCPoint@@PAI@Z)
              1. 0B 960C 0058 0000:?OnLButtonDown@SECTreeBaseC@@IAEXIVCPoint@@@Z (REF 002B: ?HitTest@SECTreeBaseC@@QAEPAU_TREEITEM@@VCPoint@@PAI@Z)
        8D45FC8BF150FF76108D4E30E8........85C074108B45FCFF7508:
          0. 04 AD96 004F 0000:?SetTip@SECTrayIcon@@UAEXABVCString@@@Z
        E8........8B700485F6750433C0EB2B8BCEE8........85C08945:
          0. 0A FE82 0045 0000:?BuildDocTemplateList@SECDocTemplateUtils@@MAEHAAV?$CTypedPtrList@VCPtrList@@PAVCDocTemplate@@@@@Z
      578BF9E8........85C08945FC74208D45FC8BCF50E8........6A00:
        0. 09 275F 0036 0000:?CloseAllWindows@SECWorkspaceManager@@QAEXXZ
        1. 09 2A7C 0036 0000:?CloseAllWindows@SECWorkspaceManager@@QAEXXZ
      66:
        0FBE45108365FC0050FF750CFF7508E8........8B4508C9C20C00:
          0. 00 0000 0020 0000:??H@YG?AVCString@@ABV0@D@Z
        8B450C53568B7510578B7D08894DFC6A0166890666C7460203008A:
          0. 2D 0472 007C 0000:?TIFFWriteShortTable@SECTiff@@QAEJPAUtiff@@IPAUTIFFDirEntry@@KPAPAG@Z
      68........8B450850E8........25FF00000085C0740AB802000000:
        0. 06 3586 19BE 0000:?IsSupportedPropertyType@@YAHABVCString@@G@Z 01C4:??4SECABrowseProp@@QAEAAV0@ABV0@@Z 02F4:??0SECABrowseProp@@QAE@ABV0@@Z 0389:?BuildPropertyList@@YAJPAUIDispatch@@AAV?$CArray@VSECABrowseProp@@AAV1@@@PAUITypeInfo@@@Z 05BF:?EnumProperties@@YAJPAUIDispatch@@PAUISCollection@@AAV?$CArray@VSECABrowseProp@@AAV1@@@@Z 0BE3:?LoadConstants@@YAJPAUIDispatch@@ABVCString@@AAV?$CArray@USECA_EnumType@@AAU1@@@@Z 1181:?EnumMethods@@YAJPAUIDispatch@@PAUISCollection@@AAV?$CArray@VSECABrowseProp@@AAV1@@@@Z 1901:?NotIn@@YAHABV?$CArray@VSECABrowseProp@@AAV1@@@ABVSECABrowseProp@@@Z
      807D0800568BF174568B46:
        3C535733FF8B58F885DB7E368B463C8BCE:
          0. 28 6480 0068 0000:?SetPromptChar@SECMaskEdit@@UAEXD@Z
        40535733FF8B58F885DB7E368B46408BCE:
          0. 28 B500 0068 0000:?SetPromptChar@SECMaskEdit@@UAEXD@Z
      83:
        3D........0156578BF90F8E:
          8E0000008B879C00000085C0740B57:
            0. 2A 939D 00AE 0000:?OnClose@SECToplevelFrame@@IAEXXZ
          910000008B87A000000085C0740B57:
            0. 2A 04D4 00B1 0000:?OnClose@SECToplevelFrame@@IAEXXZ
        4DFCFF:
          535657E8........8B75088BF88D45FC508D460850518B1F:
            0. 09 8897 003F 0000:?HitTest@SECListBar@@QBEHPAUtagLVHITTESTINFO@@@Z
          56:
            8BF18D45FC508B4E:
              3CE8........85C074478B4E4068:
                0. 00 0000 0065 0000:?OnReActivateTab@SECTabWndBase@@UAEXXZ
              40E8........85C07448FF35:
                0. 00 0000 0066 0000:?OnReActivateTab@SECTabWndBase@@UAEXXZ
            8D45FC578BF150E8........8BCE33FFE8........85C0:
              0. 0A BB38 0065 0000:?OnLButtonDown@SEC3DTabControl@@IAEXIVCPoint@@@Z
          E8........8D4DFC8B10518BC8FF7510FF750CFF7508FF92:
            0. 08 57FE 0028 0000:?HitTest@SECListBar@@QBEHVCPoint@@PAI@Z
            1. 08 EBD3 0028 0000:?HitTest@SECListBar@@QBEHVCPoint@@PAI@Z
        65FC00:
          53:
            568B:
              75:
                083B750C8BD97734578B7D186A008BCBFF751CFF:
                  0. 07 3F97 0051 0000:?CreateNodeWndRange@SECLayoutFactory@@QAEHIIPAVCWnd@@PAVSECLayoutNode@@PAVCPtrArray@@ABV?$SECClassFactory@VSECLayoutNodeWnd@@@@@Z
                0C578BD98B460483F8010F86460100000FB74E02:
                  0. 0D 75C2 0290 0000:?TIFFFetchNormalTag@SECTiff@@QAEJPAUtiff@@PAUTIFFDirEntry@@@Z
              F1:
                33DB8B8E:
                  1C01000085C974208D55FC8B0152FF75:
                    0. 3D 4C56 0082 0000:?WindowProc@SECMDIFrameWnd@@UAEJIIJ@Z
                  2001000085C974208D55FC8B0152FF75:
                    0. 3D 4C10 0082 0000:?WindowProc@SECMDIFrameWnd@@UAEJIIJ@Z
                  E800000085C974208D55FC8B0152FF75:
                    0. 3D 993C 0082 0000:?WindowProc@SECFrameWnd@@UAEJIIJ@Z
                  EC00000085C974208D55FC8B0152FF75:
                    0. 3D 0355 0082 0000:?WindowProc@SECFrameWnd@@UAEJIIJ@Z
                578B4E1885C97E1E8B7E148BD78B0285C074088B:
                  0. 49 0708 00A3 0000:?GetChild@SECMsgFilter@@UAEPAV1@IPAUCRuntimeClass@@H@Z
                  1. 49 0BB2 00A3 0000:?GetChild@SECMsgFilter@@UAEPAV1@IPAUCRuntimeClass@@H@Z
            8B:
              5D0C56578BF18D7B01897D0C8B068BCEFF90:
                18020000:
                  0. 08 D91F 0090 0000:?RemoveChildrenFromListCtrl@SECTreeBaseV@@IAEXPAV_Node@@H@Z
                20020000:
                  0. 08 D91F 0090 0000:?RemoveChildrenFromListCtrl@SECTreeBaseV@@IAEXPAV_Node@@H@Z
                C8010000:
                  0. 08 D91F 0090 0000:?RemoveChildrenFromListCtrl@SECTreeBaseC@@IAEXPAV_Node@@H@Z
                D0010000:
                  0. 08 D91F 0090 0000:?RemoveChildrenFromListCtrl@SECTreeBaseC@@IAEXPAV_Node@@H@Z
              D956837B64007507C745FC020000008B45088B088379:
                0. 0C 2C97 009C 0000:?AddKeyValue@SECPersistentTreeNode@@UAEKABVCString@@0H@Z
          56:
            578BF9E8........8B750CA80874:
              0B:
                0FBE0650E8:
                  0. 00 0000 0157 0000:?IsCharValid@SECMaskEdit@@MAEHHAAD@Z
                668B0650E8:
                  0. 00 0000 0174 0000:?IsCharValid@SECMaskEdit@@MAEHHAAG@Z
              0C0FBE0650FF15:
                0. 00 0000 015B 0000:?IsCharValid@SECMaskEdit@@MAEHHAAD@Z
            8B750C578BB9:
              3401000085FF893E7E644F538B5D0883FF:
                0. 65 C8B4 0085 0000:?FindInSelItemsArray@SECListBaseC@@IBEHHAAH@Z
              3801000085FF893E7E644F538B5D0883FF:
                0. 65 714A 0085 0000:?FindInSelItemsArray@SECListBaseC@@IBEHHAAH@Z
              3C01000085FF893E7E644F538B5D0883FF:
                0. 65 AB41 0085 0000:?FindInSelItemsArray@SECListBaseV@@IBEHHAAH@Z
            F605........018BF17517800D........0168:
              0. 02 ABB7 0067 0000:?DefWindowProcA@SECDockableFrame@@UAEJIIJ@Z (0029: 20)
              1. 02 ABB7 0067 0000:?DefWindowProcW@SECDockableFrame@@UAEJIIJ@Z (0029: 24)
              2. 02 ABB7 0067 0000:?DefWindowProcA@SECMDIChildWnd@@UAEJIIJ@Z (0029: D0)
              3. 02 ABB7 0067 0000:?DefWindowProcW@SECMDIChildWnd@@UAEJIIJ@Z (0029: D4)
              4. 02 ABB7 0067 0000:?DefWindowProcA@SECMDIFrameWnd@@UAEJIIJ@Z (0029: F8)
              5. 02 ABB7 0067 0000:?DefWindowProcW@SECMDIFrameWnd@@UAEJIIJ@Z (0029: FC)
          6A00FF750CFF7508E8........8B4508C9C20800:
            0. 00 0000 001C 0000:?GetItemText@SECListBar@@QBE?AVCString@@H@Z
          81C1:
            9C000000518B4D08E8........8B4508C9C20400:
              0. 00 0000 001E 0000:?GetID@SECACtrlItem@@QBE?AVCString@@XZ
            A0000000518B4D08E8........8B4508C9C20400:
              0. 00 0000 001E 0000:?GetID@SECACtrlItem@@QBE?AVCString@@XZ
            AC000000518B4D08E8........8B4508C9C20400:
              0. 00 0000 001E 0000:?GetTitle@CFrameWnd@@QBE?AVCString@@XZ
            B0000000518B4D08E8........8B4508C9C20400:
              0. 00 0000 001E 0000:?GetTitle@CFrameWnd@@QBE?AVCString@@XZ
          83:
            7D:
              0800:
                578BF976698B450C53568D70048B9F:
                  9401000033:
                    0. 62 0EE1 0082 0000:?AddButtons@SECCustomToolBar@@QAEHIPAU_TBBUTTON@@@Z
                  9801000033:
                    0. 62 8D63 0082 0000:?AddButtons@SECCustomToolBar@@QAEHIPAU_TBBUTTON@@@Z
                750433C0EB158D45FC81C1B000000050FF7508E8:
                  0. 00 0000 002B 0000:?GetConstraints@SECLNGridBag@@UBEPAVSECGridBagConstraints@@PAVSECLayoutNode@@@Z
              0C0053568B751057763E8D5D10E8........8B400C0F:
                0. 06 41F1 005E 0000:?LoadAdditionalMenus@SECMDIFrameWnd@@QAAHIIZZ
            C1:
              04518B4D08E8........8B4508C9C20400:
                0. 00 0000 001B 0000:?GetNodeName@SECPersistentTreeNode@@QAE?AVCString@@XZ
              14518B4D08E8........8B4508C9C20400:
                0. 00 0000 001B 0000:?GetTextLabel@SECPanel@@QAE?AVCString@@XZ
              28518B4D08E8........8B4508C9C20400:
                0. 00 0000 001B 0000:?GetCaption@SECDTStaticGadget@@QBE?AVCString@@XZ
              38518B4D08E8........8B4508C9C20400:
                0. 00 0000 001B 0000:?GetLabel@SECBar@@QBE?AVCString@@XZ
              3C518B4D08E8........8B4508C9C20400:
                0. 00 0000 001B 0000:?GetActiveWorkspace@SECWorkspaceManager@@QBE?AVCString@@XZ
              60518B4D08E8........8B4508C9C20400:
                0. 00 0000 001B 0000:?GetWorkspaceListKey@SECWorkspaceManager@@MAE?AVCString@@XZ
              64518B4D08E8........8B4508C9C20400:
                0. 00 0000 001B 0000:?GetWorkspaceListKey@SECWorkspaceManager@@MAE?AVCString@@XZ
              68518B4D08E8........8B4508C9C20400:
                0. 00 0000 001B 0000:?GetWorkspaceDataKey@SECWorkspaceManager@@MAE?AVCString@@XZ
          8D:
            41086A00508D45FC508B4124FF71048B88:
              34010000E8:
                0. 00 0000 0032 0000:?LoadItemBitmap@SECStdBtn@@MAEXAAUSECBtnDrawData@@@Z
              38010000E8:
                0. 00 0000 0032 0000:?LoadItemBitmap@SECStdBtn@@MAEXAAUSECBtnDrawData@@@Z
            45:
              0C508B450C6A00FF30FF15........FF750CFF7508E8:
                0. 00 0000 002D 0000:?GetOleColorString@SECAPropBrowser@@IAE?AVCString@@ABK@Z
              FC:
                50FF7508E8........5985C059752B8B45FC56508B:
                  0. 0B B22A 004C 0000:?BuildEventList@@YAJPAUITypeInfo@@AAV?$CArray@VSECABrowsedEvent@@AAV1@@@@Z
                56508D71048D4508508BCEE8........85C074198B:
                  0. 14 A802 003D 0000:?DeleteItem@SECSubItemTextStorage@@QAEXPAU_TREEITEM@@@Z
          E8........FF75108D48:
            3CFF750C8B01FF7508FF501C8B45:
              0. 05 6F41 0025 0000:?GetItemText@SECListBar@@QBE?AVCString@@HH@Z
            40FF750C8B01FF7508FF501C8B45:
              0. 05 6F41 0025 0000:?GetItemText@SECListBar@@QBE?AVCString@@HH@Z
        7D:
          0800:
            535657:
              894DFC7509C7410457000000EB:
                1F8B5D0C8B730856:
                  0. 01 3E9B 0074 0000:?SetBinaryValue@SECRegistry@@UAEHPBDABVCByteArray@@@Z (0052: 00)
                208B5D0C8B730856:
                  0. 02 ABB7 0076 0000:?SetBinaryValue@SECRegistry@@UAEHPBDABVCByteArray@@@Z (0053: 00)
              8BF10F8C:
                D30000008B46:
                  3C8B40F83945080F8FC400:
                    0. 5C 7405 00EF 0000:?PushChar@SECMaskEdit@@MAEHHGH@Z
                  408B40F83945080F8FC400:
                    0. 5C D624 00EF 0000:?PushChar@SECMaskEdit@@MAEHHGH@Z
                D50000008B46:
                  3C8B40F83945080F8FC600:
                    0. 5E 71A6 00F1 0000:?PushChar@SECMaskEdit@@MAEHHDH@Z
                  408B40F83945080F8FC600:
                    0. 5E 752E 00F1 0000:?PushChar@SECMaskEdit@@MAEHHDH@Z
            56:
              578BF174:
                158D45FC8D7E04508BCFFF7508E8........85:
                  0. 26 1CF4 0053 0000:?RemoveRootRegisteredLayoutNode@SECLNDockingMgr@@QAEHPAVSECLayoutNode@@@Z
                1F8D45FC8DBEB0000000508BCFFF7508E8:
                  0. 00 0000 0055 0000:?RemoveConstraint@SECLNGridBag@@MAEHPAVSECLayoutNode@@@Z
              74188D45FC8DB1EC000000508BCEFF7508E8........85:
                0. 0B FC18 0042 0000:?RemoveExistingCell@SECLNDynamicGridLine@@MAEHPAVSECLayoutNode@@@Z
              8BF1750433C0EB43578D45FC6A00508BCEC745FC:
                0. 00 0000 0059 0000:?ApplyScaleToChildren@SECLayoutDockFactory@@MAEHPAVCWnd@@@Z
          10005356578B7D08894DFC8BB7700100000F8E9A0000008B5D0C:
            0. 05 D843 00C5 0000:?Fax3Encode@SECTiff@@QAEJPAUtiff@@PAEJG@Z
          180053568B75145768FFFFFF00894DFC6A0174698B7D108D46FB:
            0. 0D 47B1 0100 0000:?HLine3D@SEC3DTabWnd@@AAEXPAVCDC@@HHHH@Z
      894DFC:
        33C0:
          85C074:
            1A8B4D0C518B55105268........68........E8:
              0. 00 0000 24DA 0000:?send_bits@SECComp@@QAEXPAUdeflate_internal_state@@HH@Z 016C:?ct_static_init@SECComp@@QAEXXZ 0444:?ct_init@SECComp@@QAEXPAUdeflate_internal_state@@@Z 050B:?init_block@SECComp@@QAEXPAUdeflate_internal_state@@@Z 05D7:?pqdownheap@SECComp@@QAEXPAUdeflate_internal_state@@PAUct_data_s@@H@Z 077B:?gen_bitlen@SECComp@@QAEXPAUdeflate_internal_state@@PAUtree_desc_s@@@Z 0AED:?gen_codes@SECComp@@QAEXPAUct_data_s@@HPAG@Z 0C85:?build_tree@SECComp@@QAEXPAUdeflate_internal_state@@PAUtree_desc_s@@@Z 102C:?scan_tree@SECComp@@QAEXPAUdeflate_internal_state@@PAUct_data_s@@H@Z 11CF:?send_tree@SECComp@@QAEXPAUdeflate_internal_state@@PAUct_data_s@@H@Z 14A7:?build_bl_tree@SECComp@@QAEHPAUdeflate_internal_state@@@Z 158E:?send_all_trees@SECComp@@QAEXPAUdeflate_internal_state@@HHH@Z 173E:?ct_stored_block@SECComp@@QAEXPAUdeflate_internal_state@@PADKH@Z 17A3:?ct_align@SECComp@@QAEXPAUdeflate_internal_state@@@Z 18B1:?ct_flush_block@SECComp@@QAEKPAUdeflate_internal_state@@PADKH@Z 1B75:?ct_tally@SECComp@@QAEHPAUdeflate_internal_state@@JJ@Z 1E15:?compress_block@SECComp@@QAEXPAUdeflate_internal_state@@PAUct_data_s@@1@Z 20CC:?set_data_type@SECComp@@QAEXPAUdeflate_internal_state@@@Z 217A:?bi_reverse@SECComp@@QAEIIH@Z 21C2:?bi_flush@SECComp@@QAEXPAUdeflate_internal_state@@@Z 22B3:?bi_windup@SECComp@@QAEXPAUdeflate_internal_state@@@Z 238F:?copy_block@SECComp@@QAEXPAUdeflate_internal_state@@PADIH@Z (24B9: 00)
              1. 00 0000 24DE 0000:?send_bits@SECComp@@QAEXPAUdeflate_internal_state@@HH@Z 016C:?ct_static_init@SECComp@@QAEXXZ 0444:?ct_init@SECComp@@QAEXPAUdeflate_internal_state@@@Z 050B:?init_block@SECComp@@QAEXPAUdeflate_internal_state@@@Z 05D7:?pqdownheap@SECComp@@QAEXPAUdeflate_internal_state@@PAUct_data_s@@H@Z 077B:?gen_bitlen@SECComp@@QAEXPAUdeflate_internal_state@@PAUtree_desc_s@@@Z 0AED:?gen_codes@SECComp@@QAEXPAUct_data_s@@HPAG@Z 0C89:?build_tree@SECComp@@QAEXPAUdeflate_internal_state@@PAUtree_desc_s@@@Z 1030:?scan_tree@SECComp@@QAEXPAUdeflate_internal_state@@PAUct_data_s@@H@Z 11D3:?send_tree@SECComp@@QAEXPAUdeflate_internal_state@@PAUct_data_s@@H@Z 14AB:?build_bl_tree@SECComp@@QAEHPAUdeflate_internal_state@@@Z 1592:?send_all_trees@SECComp@@QAEXPAUdeflate_internal_state@@HHH@Z 1742:?ct_stored_block@SECComp@@QAEXPAUdeflate_internal_state@@PADKH@Z 17A7:?ct_align@SECComp@@QAEXPAUdeflate_internal_state@@@Z 18B5:?ct_flush_block@SECComp@@QAEKPAUdeflate_internal_state@@PADKH@Z 1B79:?ct_tally@SECComp@@QAEHPAUdeflate_internal_state@@JJ@Z 1E19:?compress_block@SECComp@@QAEXPAUdeflate_internal_state@@PAUct_data_s@@1@Z 20D0:?set_data_type@SECComp@@QAEXPAUdeflate_internal_state@@@Z 217E:?bi_reverse@SECComp@@QAEIIH@Z 21C6:?bi_flush@SECComp@@QAEXPAUdeflate_internal_state@@@Z 22B7:?bi_windup@SECComp@@QAEXPAUdeflate_internal_state@@@Z 2393:?copy_block@SECComp@@QAEXPAUdeflate_internal_state@@PADIH@Z (24B9: E5)
            1F8B4D0C518B55105268........A1........83:
              0. 05 B8A9 257D 0000:?send_bits@SECComp@@QAEXPAUdeflate_internal_state@@HH@Z 0172:?ct_static_init@SECComp@@QAEXXZ 044A:?ct_init@SECComp@@QAEXPAUdeflate_internal_state@@@Z 0511:?init_block@SECComp@@QAEXPAUdeflate_internal_state@@@Z 05DD:?pqdownheap@SECComp@@QAEXPAUdeflate_internal_state@@PAUct_data_s@@H@Z 0781:?gen_bitlen@SECComp@@QAEXPAUdeflate_internal_state@@PAUtree_desc_s@@@Z 0AFF:?gen_codes@SECComp@@QAEXPAUct_data_s@@HPAG@Z 0CA3:?build_tree@SECComp@@QAEXPAUdeflate_internal_state@@PAUtree_desc_s@@@Z 104A:?scan_tree@SECComp@@QAEXPAUdeflate_internal_state@@PAUct_data_s@@H@Z 11ED:?send_tree@SECComp@@QAEXPAUdeflate_internal_state@@PAUct_data_s@@H@Z 14E0:?build_bl_tree@SECComp@@QAEHPAUdeflate_internal_state@@@Z 15CD:?send_all_trees@SECComp@@QAEXPAUdeflate_internal_state@@HHH@Z 179B:?ct_stored_block@SECComp@@QAEXPAUdeflate_internal_state@@PADKH@Z 1800:?ct_align@SECComp@@QAEXPAUdeflate_internal_state@@@Z 191A:?ct_flush_block@SECComp@@QAEKPAUdeflate_internal_state@@PADKH@Z 1BF5:?ct_tally@SECComp@@QAEHPAUdeflate_internal_state@@JJ@Z 1E9D:?compress_block@SECComp@@QAEXPAUdeflate_internal_state@@PAUct_data_s@@1@Z 216F:?set_data_type@SECComp@@QAEXPAUdeflate_internal_state@@@Z 221D:?bi_reverse@SECComp@@QAEIIH@Z 2265:?bi_flush@SECComp@@QAEXPAUdeflate_internal_state@@@Z 2356:?bi_windup@SECComp@@QAEXPAUdeflate_internal_state@@@Z 2432:?copy_block@SECComp@@QAEXPAUdeflate_internal_state@@PADIH@Z (2557: 00)
              1. 05 B8A9 2581 0000:?send_bits@SECComp@@QAEXPAUdeflate_internal_state@@HH@Z 0172:?ct_static_init@SECComp@@QAEXXZ 044A:?ct_init@SECComp@@QAEXPAUdeflate_internal_state@@@Z 0511:?init_block@SECComp@@QAEXPAUdeflate_internal_state@@@Z 05DD:?pqdownheap@SECComp@@QAEXPAUdeflate_internal_state@@PAUct_data_s@@H@Z 0781:?gen_bitlen@SECComp@@QAEXPAUdeflate_internal_state@@PAUtree_desc_s@@@Z 0AFF:?gen_codes@SECComp@@QAEXPAUct_data_s@@HPAG@Z 0CA7:?build_tree@SECComp@@QAEXPAUdeflate_internal_state@@PAUtree_desc_s@@@Z 104E:?scan_tree@SECComp@@QAEXPAUdeflate_internal_state@@PAUct_data_s@@H@Z 11F1:?send_tree@SECComp@@QAEXPAUdeflate_internal_state@@PAUct_data_s@@H@Z 14E4:?build_bl_tree@SECComp@@QAEHPAUdeflate_internal_state@@@Z 15D1:?send_all_trees@SECComp@@QAEXPAUdeflate_internal_state@@HHH@Z 179F:?ct_stored_block@SECComp@@QAEXPAUdeflate_internal_state@@PADKH@Z 1804:?ct_align@SECComp@@QAEXPAUdeflate_internal_state@@@Z 191E:?ct_flush_block@SECComp@@QAEKPAUdeflate_internal_state@@PADKH@Z 1BF9:?ct_tally@SECComp@@QAEHPAUdeflate_internal_state@@JJ@Z 1EA1:?compress_block@SECComp@@QAEXPAUdeflate_internal_state@@PAUct_data_s@@1@Z 2173:?set_data_type@SECComp@@QAEXPAUdeflate_internal_state@@@Z 2221:?bi_reverse@SECComp@@QAEIIH@Z 2269:?bi_flush@SECComp@@QAEXPAUdeflate_internal_state@@@Z 235A:?bi_windup@SECComp@@QAEXPAUdeflate_internal_state@@@Z 2436:?copy_block@SECComp@@QAEXPAUdeflate_internal_state@@PADIH@Z (2557: E5)
          8BE55D:
            C2:
              0400:
                0. 00 0000 000F 0000:?ProcessAndDestroyEditLabel@SECListClient@@UAEHH@Z
              0800:
                0. 00 0000 000F 0000:?OnDragDropToggleEvent@?$SECStartDragCore_T@VSECLayoutWndListener@@@@MAEHIABVCPoint@@@Z
              0C00:
                0. 00 0000 000F 0000:?QueryDenyChildHitTesting@?$SECLNDockHitTester@VISECDockInitiator@@@@MAEKPAVISECLNContainer@@ABVCPoint@@PAVSECLayoutNode@@@Z
              1000:
                0. 00 0000 000F 0000:?GetItemRect@SECListClient@@UBEHHHPAUtagRECT@@I@Z
            C3:
              0. 00 0000 000D 0000:?CanDrag@SECCapMenuBtn@@UBEHXZ
        68........E8........83C4046A00E8........83C40433C0:
          0. 0E EE2D 01E9 0000:?LZWCheckPredictor@SECTiff@@QAEHPAUtiff@@PAULZWState@@P6AXPAEKJ@Z3@Z 0026:?LZWPreDecode@SECTiff@@QAEHPAUtiff@@@Z 0042:?codeLoop@SECTiff@@QAEXPAUtiff@@@Z 004F:?LZWDecode@SECTiff@@QAEJPAUtiff@@PAEJG@Z 006B:?LZWDecodeCompat@SECTiff@@QAEJPAUtiff@@PAEJG@Z 0087:?LZWDecodePredRow@SECTiff@@QAEJPAUtiff@@PAEJG@Z 00A3:?LZWDecodePredTile@SECTiff@@QAEJPAUtiff@@PAEJG@Z 00BF:?LZWPreEncode@SECTiff@@QAEHPAUtiff@@@Z 00DB:?LZWEncode@SECTiff@@QAEHPAUtiff@@PAEJG@Z 00F7:?LZWEncodePredRow@SECTiff@@QAEJPAUtiff@@PAEJG@Z 0113:?LZWEncodePredTile@SECTiff@@QAEJPAUtiff@@PAEJG@Z 012F:?LZWPostEncode@SECTiff@@QAEHPAUtiff@@@Z (l)014B:?cl_hash@@YAXPAULZWEncodeState@@@Z (l)01A2:?horAcc8@@YAXPAEKJ@Z (l)01A7:?LZWSwabArrayOfShort@@YAXPAGK@Z (l)01AC:?swabHorAcc16@@YAXPAEKJ@Z (l)01B1:?horAcc16@@YAXPAEKJ@Z (l)01B6:?horDiff8@@YAXPAEKJ@Z (l)01BB:?horDiff16@@YAXPAEKJ@Z 01C0:?LZWCleanup@SECTiff@@QAEXPAUtiff@@@Z 01CD:?TIFFInitLZW@SECTiff@@QAEJPAUtiff@@@Z
        6A:
          00:
            6A:
              018B45FC50E8........83C40C8BE55DC3:
                0. 00 0000 001B 0000:?FireOnLoad@SECAFormObj@@QAEXXZ
              028B45FC50E8........83C40C8BE55DC3:
                0. 00 0000 001B 0000:?FireOnUnload@SECAFormObj@@QAEXXZ
              086A0F6A088B450C508B4D08518B4DFCE8........8B:
                0. 3E 3B33 1EBD 0000:?deflateInit@SECComp@@QAEHPAUz_stream_s@@H@Z 0025:?deflateInit2@SECComp@@QAEHPAUz_stream_s@@HHHHH@Z 02CA:?deflateReset@SECComp@@QAEHPAUz_stream_s@@@Z 0395:?putShortMSB@SECComp@@QAEXPAUdeflate_internal_state@@G@Z 03F8:?flush_pending@SECComp@@QAEXPAUz_stream_s@@@Z 04AF:?deflate@SECComp@@QAEHPAUz_stream_s@@H@Z 07AA:?deflateEnd@SECComp@@QAEHPAUz_stream_s@@@Z 0875:?deflateCopy@SECComp@@QAEHPAUz_stream_s@@0@Z 08B4:?read_buf@SECComp@@QAEJPAUz_stream_s@@PADJ@Z 095A:?lm_init@SECComp@@QAEXPAUdeflate_internal_state@@@Z 0A37:?longest_match@SECComp@@QAEHPAUdeflate_internal_state@@H@Z 0E3B:?check_match@SECComp@@QAEXPAUdeflate_internal_state@@HHH@Z 0F57:?fill_window@SECComp@@QAEXPAUdeflate_internal_state@@@Z 12A9:?deflate_fast@SECComp@@QAEHPAUdeflate_internal_state@@H@Z 17B7:?deflate_slow@SECComp@@QAEHPAUdeflate_internal_state@@H@Z (1E5E: 00)
                1. 3E 3B33 1EBF 0000:?deflateInit@SECComp@@QAEHPAUz_stream_s@@H@Z 0025:?deflateInit2@SECComp@@QAEHPAUz_stream_s@@HHHHH@Z 02CA:?deflateReset@SECComp@@QAEHPAUz_stream_s@@@Z 0395:?putShortMSB@SECComp@@QAEXPAUdeflate_internal_state@@G@Z 03F8:?flush_pending@SECComp@@QAEXPAUz_stream_s@@@Z 04AF:?deflate@SECComp@@QAEHPAUz_stream_s@@H@Z 07AA:?deflateEnd@SECComp@@QAEHPAUz_stream_s@@@Z 0875:?deflateCopy@SECComp@@QAEHPAUz_stream_s@@0@Z 08B4:?read_buf@SECComp@@QAEJPAUz_stream_s@@PADJ@Z 095A:?lm_init@SECComp@@QAEXPAUdeflate_internal_state@@@Z 0A37:?longest_match@SECComp@@QAEHPAUdeflate_internal_state@@H@Z 0E3B:?check_match@SECComp@@QAEXPAUdeflate_internal_state@@HHH@Z 0F59:?fill_window@SECComp@@QAEXPAUdeflate_internal_state@@@Z 12AB:?deflate_fast@SECComp@@QAEHPAUdeflate_internal_state@@H@Z 17B9:?deflate_slow@SECComp@@QAEHPAUdeflate_internal_state@@H@Z (1E5E: C2)
                2. 3E 3B33 1F02 0000:?deflateInit@SECComp@@QAEHPAUz_stream_s@@H@Z 0025:?deflateInit2@SECComp@@QAEHPAUz_stream_s@@HHHHH@Z 02CA:?deflateReset@SECComp@@QAEHPAUz_stream_s@@@Z 0395:?putShortMSB@SECComp@@QAEXPAUdeflate_internal_state@@G@Z 03F8:?flush_pending@SECComp@@QAEXPAUz_stream_s@@@Z 04AF:?deflate@SECComp@@QAEHPAUz_stream_s@@H@Z 07AA:?deflateEnd@SECComp@@QAEHPAUz_stream_s@@@Z 0875:?deflateCopy@SECComp@@QAEHPAUz_stream_s@@0@Z 08B4:?read_buf@SECComp@@QAEJPAUz_stream_s@@PADJ@Z 095A:?lm_init@SECComp@@QAEXPAUdeflate_internal_state@@@Z 0A37:?longest_match@SECComp@@QAEHPAUdeflate_internal_state@@H@Z 0E3B:?check_match@SECComp@@QAEXPAUdeflate_internal_state@@HHH@Z 0F6E:?fill_window@SECComp@@QAEXPAUdeflate_internal_state@@@Z 12C0:?deflate_fast@SECComp@@QAEHPAUdeflate_internal_state@@H@Z 17E0:?deflate_slow@SECComp@@QAEHPAUdeflate_internal_state@@H@Z (1E5E: 8B)
                3. 3E 3B33 1F04 0000:?deflateInit@SECComp@@QAEHPAUz_stream_s@@H@Z 0025:?deflateInit2@SECComp@@QAEHPAUz_stream_s@@HHHHH@Z 02CA:?deflateReset@SECComp@@QAEHPAUz_stream_s@@@Z 0395:?putShortMSB@SECComp@@QAEXPAUdeflate_internal_state@@G@Z 03F8:?flush_pending@SECComp@@QAEXPAUz_stream_s@@@Z 04AF:?deflate@SECComp@@QAEHPAUz_stream_s@@H@Z 07AA:?deflateEnd@SECComp@@QAEHPAUz_stream_s@@@Z 0875:?deflateCopy@SECComp@@QAEHPAUz_stream_s@@0@Z 08B4:?read_buf@SECComp@@QAEJPAUz_stream_s@@PADJ@Z 095A:?lm_init@SECComp@@QAEXPAUdeflate_internal_state@@@Z 0A37:?longest_match@SECComp@@QAEHPAUdeflate_internal_state@@H@Z 0E3B:?check_match@SECComp@@QAEXPAUdeflate_internal_state@@HHH@Z 0F70:?fill_window@SECComp@@QAEXPAUdeflate_internal_state@@@Z 12C2:?deflate_fast@SECComp@@QAEHPAUdeflate_internal_state@@H@Z 17E2:?deflate_slow@SECComp@@QAEHPAUdeflate_internal_state@@H@Z (1E5E: 55)
              FF8B4DFCE8........8BE55DC3:
                0. 00 0000 0017 0000:?SetSelNone@SECCurrencyEdit@@IAEHXZ
            8B:
              45:
                08508B4DFC8B118B4DFCFF52:
                  0C8BE55DC20400:
                    0. 00 0000 001E 0000:?DockNode@SECFrameDockingFeatureBase@@UAEHPAVSECLayoutNode@@@Z
                  248BE55DC20400:
                    0. 00 0000 001E 0000:?ToggleFloat@?$SECFloatableDockingNode_T@VSECReparentableGripperEx@@@@UAEHPAVSECLNDockingMgr@@@Z
                FC8B108B4DFCFF:
                  128BE55DC3:
                    0. 00 0000 0017 0000:?GetBorderNodeChildCount@?$SECLNBorder_T@VSECLayoutNodeDCBase@@@@UAEHXZ
                  521C8BE55DC3:
                    0. 00 0000 0018 0000:?Collapse@SECTreeNode@@QAEXXZ
              4DFCE8........8B45FCC700........8B45FC8BE55D:
                0. 07 5DB9 04FC 0000:??0SECTNWinApp@@QAE@XZ 0021:?OnFileOpen@SECTNWinApp@@QAEXXZ (l)0339:?AppendFilterSuffix@@YAXAAVCString@@AAUtagOFNA@@PAVCDocTemplate@@PAV1@@Z (04A9: C6)
                1. 07 5DB9 04FE 0000:??0SECTNWinApp@@QAE@XZ 0021:?OnFileOpen@SECTNWinApp@@QAEXXZ (l)0339:?AppendFilterSuffix@@YAXAAVCString@@AAUtagOFNA@@PAVCDocTemplate@@PAV1@@Z (04A9: 4A)
                2. 07 5DB9 04FE 0000:??0SECTNWinApp@@QAE@XZ 0021:?OnFileOpen@SECTNWinApp@@QAEXXZ (l)0339:?AppendFilterSuffix@@YAXAAVCString@@AAUtagOFNW@@PAVCDocTemplate@@PAV1@@Z (04A9: 41)
                3. 07 5DB9 0500 0000:??0SECTNWinApp@@QAE@XZ 0021:?OnFileOpen@SECTNWinApp@@QAEXXZ (l)0339:?AppendFilterSuffix@@YAXAAVCString@@AAUtagOFNW@@PAVCDocTemplate@@PAV1@@Z (04A9: 0C)
          018B4508508B4DFC:
            8B118B4DFCFF522C8BE55DC20400:
              0. 00 0000 001E 0000:?SetParentNode@SECLayoutNode@@UAEXPAV1@@Z
            E8........8B45FC8BE55DC20400:
              0. 00 0000 001E 0000:??0SECAPicture@@QAE@PAUIDispatch@@@Z
          048B4508508B4DFCE8........8B4DFCC701........8B45:
            0. 18 0059 04FE 0000:??0SECToolBarRectTracker@@QAE@PBUtagRECT@@@Z 0027:?DrawTrackerRect@SECToolBarRectTracker@@UAEXPBUtagRECT@@PAVCWnd@@PAVCDC@@1@Z 0152:?Track@SECToolBarRectTracker@@QAEHPAVCWnd@@VCPoint@@@Z 0185:?HorzDrag@SECToolBarRectTracker@@QAEHPAVCWnd@@VCPoint@@@Z 01B0:?TrackHandle@SECToolBarRectTracker@@IAEHPAVCWnd@@VCPoint@@@Z (l)04AE:$ExitLoop$143003 (REF 02C7: GetMessageA)
            1. 18 0059 04FE (!)0000:? (!)0027:? (!)0152:? (!)0185:? (!)01B0:? (l!)04AE:? (REF 02C7: GetMessageW)
          0A8B4DFC83C104E8........8B45FC:
            8BE55DC3:
              0. 00 0000 001B 0000:??0SECBmpMenuInfo@SECBmpMenuPlugIn@@QAE@XZ
            C700........8B45FC:
              0. 0A 22CA 0349 0000:??0SECSubItemTextStorage@@QAE@XZ 0024:??1SECSubItemTextStorage@@UAE@XZ 00D7:?DeleteItem@SECSubItemTextStorage@@QAEXPAU_TREEITEM@@@Z 0144:?GetString@SECSubItemTextStorage@@QBEHPAU_TREEITEM@@HPADH@Z 020C:?AddOrModifyString@SECSubItemTextStorage@@QAEHPAU_TREEITEM@@HPBD@Z (031E: 00) (REF 01BE: ??BCString@@QBEPBDXZ)
              1. 0A 22CA 0349 0000:??0SECSubItemTextStorage@@QAE@XZ 0024:??1SECSubItemTextStorage@@UAE@XZ 00D7:?DeleteItem@SECSubItemTextStorage@@QAEXPAU_TREEITEM@@@Z 0144:?GetString@SECSubItemTextStorage@@QBEHPAU_TREEITEM@@HPAGH@Z 020C:?AddOrModifyString@SECSubItemTextStorage@@QAEHPAU_TREEITEM@@HPBG@Z (031E: 00) (REF 01BE: ??BCString@@QBEPBGXZ)
              2. 0A 22CA 034B 0000:??0SECSubItemTextStorage@@QAE@XZ 0024:??1SECSubItemTextStorage@@UAE@XZ 00D7:?DeleteItem@SECSubItemTextStorage@@QAEXPAU_TREEITEM@@@Z 0144:?GetString@SECSubItemTextStorage@@QBEHPAU_TREEITEM@@HPAGH@Z 020E:?AddOrModifyString@SECSubItemTextStorage@@QAEHPAU_TREEITEM@@HPBG@Z (031E: C2)
              3. 04 A1B6 0024 0000:??0?$SECObjectMemoryManager_T@V?$SECObjectMemoryManager_T@VSECLayoutNode@@@@@@QAE@XZ (REF 0010: ??0?$CTypedPtrList@VCPtrList@@PAV?$SECObjectMemoryManager_T@VSECLayoutNode@@@@@@QAE@H@Z)
              4. 04 A1B6 0024 0000:??0?$SECObjectMemoryManager_T@VSECDockingNodeConstraints@@@@QAE@XZ (REF 0010: ??0?$CTypedPtrList@VCPtrList@@PAVSECDockingNodeConstraints@@@@QAE@H@Z)
              5. 04 A1B6 0024 0000:??0?$SECObjectMemoryManager_T@VISECLNContainer@@@@QAE@XZ (REF 0010: ??0?$CTypedPtrList@VCPtrList@@PAVISECLNContainer@@@@QAE@H@Z)
              6. 04 A1B6 0024 0000:??0?$SECObjectMemoryManager_T@VSECLayoutWndListener@@@@QAE@XZ (REF 0010: ??0?$CTypedPtrList@VCPtrList@@PAVSECLayoutWndListener@@@@QAE@H@Z)
              7. 04 A1B6 0024 0000:??0?$SECObjectMemoryManager_T@VSECLayoutNode@@@@QAE@XZ (REF 0010: ??0?$CTypedPtrList@VCPtrList@@PAVSECLayoutNode@@@@QAE@H@Z)
              8. 04 A1B6 0024 0000:??0SECPTNFactory@@QAE@XZ (REF 0010: ??0?$CTypedPtrList@VCPtrList@@PAVSECPersistentTreeNode@@@@QAE@H@Z)
              9. 04 A1B6 0024 0000:??0?$SECObjectMemoryManager_T@VSECDynGridInsertConstraints@@@@QAE@XZ (REF 0010: ??0?$CTypedPtrList@VCPtrList@@PAVSECDynGridInsertConstraints@@@@QAE@H@Z)
          FF6A008B4DFCE8........8BE55DC3:
            0. 00 0000 0017 0000:?RemoveAll@?$CArray@MM@@QAEXXZ (REF 000F: ?SetSize@?$CArray@MM@@QAEXHH@Z)
            1. 00 0000 0017 0000:?RemoveAll@?$CArray@PAVSECBar@@PAV1@@@QAEXXZ (REF 000F: ?SetSize@?$CArray@PAVSECBar@@PAV1@@@QAEXHH@Z)
            2. 00 0000 0017 0000:?SetSelAll@SECCurrencyEdit@@IAEHXZ (REF 000F: ?SetSel@SECCurrencyEdit@@IAEHHH@Z)
            3. 00 0000 0017 0000:?RemoveAll@?$CArray@USEC_ToolEntry@@AAU1@@@QAEXXZ (REF 000F: ?SetSize@?$CArray@USEC_ToolEntry@@AAU1@@@QAEXHH@Z)
            4. 00 0000 0017 0000:?RemoveAll@?$CArray@PAVSECACtrlItem@@PAV1@@@QAEXXZ (REF 000F: ?SetSize@?$CArray@PAVSECACtrlItem@@PAV1@@@QAEXHH@Z)
            5. 00 0000 0017 0000:?RemoveAll@?$CArray@UListData@SECAPropList@@AAU12@@@QAEXXZ (REF 000F: ?SetSize@?$CArray@UListData@SECAPropList@@AAU12@@@QAEXHH@Z)
            6. 00 0000 0017 0000:?RemoveAll@?$CArray@VSECABrowsedEvent@@AAV1@@@QAEXXZ (REF 000F: ?SetSize@?$CArray@VSECABrowsedEvent@@AAV1@@@QAEXHH@Z)
            7. 00 0000 0017 0000:?RemoveAll@?$CArray@VCString@@AAV1@@@QAEXXZ (REF 000F: ?SetSize@?$CArray@VCString@@AAV1@@@QAEXHH@Z)
            8. 00 0000 0017 0000:?RemoveAll@?$CArray@USECCommand@@AAU1@@@QAEXXZ (REF 000F: ?SetSize@?$CArray@USECCommand@@AAU1@@@QAEXHH@Z)
        83:
          7D:
            08:
              00:
                74:
                  06837D1000750433C0EB3A8B4510508B4D0C518B:
                    0. 37 73D1 0057 0000:?HitTestNodeInterfaceOneTree@?$SECLNDockHitTester@VISECDockTarget@@@@MAEPAVISECDockTarget@@PAVSECLayoutNode@@ABVCPoint@@PAVISECLNContainer@@H@Z
                  0D8B4DFC83E9:
                    3CE8........EB0233C08BE55DC2:
                      0. 02 2768 0022 0000:?Capture@SECListBaseC@@UAEPAVCWnd@@H@Z
                    40E8........EB0233C08BE55DC2:
                      0. 02 2768 0022 0000:?Capture@SECListBaseV@@UAEPAVCWnd@@H@Z
                    44E8........EB0233C08BE55DC2:
                      0. 02 2768 0022 0000:?Capture@SECListBaseV@@UAEPAVCWnd@@H@Z
                  118B45FC8B482083C9208B55FC894A20EB0F8B45:
                    0. 13 3906 0033 0000:?Expand@_Node@@UAEXH@Z
                75:
                  0433C0EB:
                    0F8B4508508B4DFC83C108E8:
                      0. 06 6154 0026 0000:?GetChild@?$SECComposite_T@PAVSECLayoutNode@@@@UBEPAVSECLayoutNode@@QAU__POSITION@@@Z
                    276A008B4508508B4DFC83C108E8:
                      0. 00 0000 003E 0000:?FindChild@?$SECComposite_T@PAVSECLayoutNode@@@@UBEHPAVSECLayoutNode@@AAPAU__POSITION@@@Z
                    2D6A008B4508508B4DFC83C104E8:
                      0. 00 0000 0044 0000:?ManageMemory@?$SECObjectMemoryManager_T@VSECLayoutNode@@@@UAEHPAVSECLayoutNode@@@Z (REF 0035: ?AddTail@?$CTypedPtrList@VCPtrList@@PAVSECLayoutNode@@@@QAEPAU__POSITION@@PAVSECLayoutNode@@@Z)
                      1. 00 0000 0044 0000:?ManageMemory@?$SECObjectMemoryManager_T@VSECLayoutWndListener@@@@UAEHPAVSECLayoutWndListener@@@Z (REF 0035: ?AddTail@?$CTypedPtrList@VCPtrList@@PAVSECLayoutWndListener@@@@QAEPAU__POSITION@@PAVSECLayoutWndListener@@@Z)
                      2. 00 0000 0044 0000:?ManageMemory@?$SECObjectMemoryManager_T@VSECDynGridInsertConstraints@@@@UAEHPAVSECDynGridInsertConstraints@@@Z (REF 0035: ?AddTail@?$CTypedPtrList@VCPtrList@@PAVSECDynGridInsertConstraints@@@@QAEPAU__POSITION@@PAVSECDynGridInsertConstraints@@@Z)
                      3. 00 0000 0044 0000:?ManageMemory@?$SECObjectMemoryManager_T@V?$SECObjectMemoryManager_T@VSECLayoutNode@@@@@@UAEHPAV?$SECObjectMemoryManager_T@VSECLayoutNode@@@@@Z (REF 0035: ?AddTail@?$CTypedPtrList@VCPtrList@@PAV?$SECObjectMemoryManager_T@VSECLayoutNode@@@@@@QAEPAU__POSITION@@PAV?$SECObjectMemoryManager_T@VSECLayoutNode@@@@@Z)
                      4. 00 0000 0044 0000:?ManageMemory@?$SECObjectMemoryManager_T@VISECLNContainer@@@@UAEHPAVISECLNContainer@@@Z (REF 0035: ?AddTail@?$CTypedPtrList@VCPtrList@@PAVISECLNContainer@@@@QAEPAU__POSITION@@PAVISECLNContainer@@@Z)
                      5. 00 0000 0044 0000:?ManageMemory@?$SECObjectMemoryManager_T@VSECDockingNodeConstraints@@@@UAEHPAVSECDockingNodeConstraints@@@Z (REF 0035: ?AddTail@?$CTypedPtrList@VCPtrList@@PAVSECDockingNodeConstraints@@@@QAEPAU__POSITION@@PAVSECDockingNodeConstraints@@@Z)
                  0BE8........83C0348945088B450C508B4D088B:
                    0. 22 88FC 0042 0000:?Filter@SECMsgFilter@@QAEKPBUtagMSG@@PAJ@Z
              02752D8D450C508B4D08518B55FC8B028B4DFCFF90:
                18:
                  0. 20 E2E2 0040 0000:?OnNcLButtonDown@?$SECStartDragCore_T@VSECLayoutWndListener@@@@IAEXIVCPoint@@@Z
                20:
                  0. 20 E2E2 0040 0000:?OnNcLButtonDblClk@?$SECStartDragCore_T@VSECLayoutWndListener@@@@IAEXIVCPoint@@@Z
            0C0074118B45088A480D80C9018B5508884A0DEB0F8B45:
              0. 3A 69DC 1FFE 0000:?TIFFModeCCITTFax3@SECTiff@@QAEXPAUtiff@@J@Z 0033:?Fax3SetupState@SECTiff@@QAEPAXPAUtiff@@J@Z 01E8:?Fax3PreDecode@SECTiff@@QAEJPAUtiff@@@Z (l)02B8:?skiptoeol@@YAXPAUtiff@@H@Z (l)030B:$again$142033 (l)0575:?nextbit@@YAHPAUtiff@@@Z 062E:?Fax3Decode@SECTiff@@QAEJPAUtiff@@PAEJG@Z 073C:?Fax3Decode1DRow@SECTiff@@QAEJPAUtiff@@PAEJ@Z (l)08A1:$done$142216 (l)0938:?fillspan@@YAXPADHH@Z (l)09FB:?decode_white_run@@YAHPAUtiff@@@Z (l)0A2A:$nextbyte$142163 (l)0B2C:?decode_black_run@@YAHPAUtiff@@@Z (l)0B5E:$nextbyte$142183 0C6C:?Fax3Decode2DRow@SECTiff@@QAEJPAUtiff@@PAEK@Z (l)11AC:$bad$142324 (l)1236:?decode_uncomp_code@@YAHPAUtiff@@@Z 130E:?Fax3PutBits@SECTiff@@QAEXPAUtiff@@KJ@Z 149B:?fax3_putcode@SECTiff@@QAEXPAUtiff@@PBUtableentry@@@Z 14C7:?fax3_putspan@SECTiff@@QAEXPAUtiff@@JPBUtableentry@@@Z 1587:?Fax3PutEOL@SECTiff@@QAEXPAUtiff@@@Z 163B:?Fax3PreEncode@SECTiff@@QAEJPAUtiff@@@Z 1786:?Fax3Encode1DRow@SECTiff@@QAEJPAUtiff@@PAEJ@Z 183E:?Fax3Encode2DRow@SECTiff@@QAEJPAUtiff@@PAE1K@Z 1B28:?Fax3Encode@SECTiff@@QAEJPAUtiff@@PAEJG@Z 1C7C:?Fax3PostEncode@SECTiff@@QAEJPAUtiff@@@Z 1D1D:?Fax3Close@SECTiff@@QAEXPAUtiff@@@Z 1D8D:?Fax3Cleanup@SECTiff@@QAEXPAUtiff@@@Z (l)1DC5:?findspan@@YAHPAPAEHHPBE@Z (l)1EE1:$done$142537 (l)1EF6:?finddiff@@YAHPAEHHH@Z 1F3F:?TIFFInitCCITTFax3@SECTiff@@QAEJPAUtiff@@@Z (1FA3: 00) (REF 005A: $SG142084)
              1. 3A 69DC 1FFE 0000:?TIFFModeCCITTFax3@SECTiff@@QAEXPAUtiff@@J@Z 0033:?Fax3SetupState@SECTiff@@QAEPAXPAUtiff@@J@Z 01E8:?Fax3PreDecode@SECTiff@@QAEJPAUtiff@@@Z (l)02B8:?skiptoeol@@YAXPAUtiff@@H@Z (l)030B:$again$142261 (l)0575:?nextbit@@YAHPAUtiff@@@Z 062E:?Fax3Decode@SECTiff@@QAEJPAUtiff@@PAEJG@Z 073C:?Fax3Decode1DRow@SECTiff@@QAEJPAUtiff@@PAEJ@Z (l)08A1:$done$142444 (l)0938:?fillspan@@YAXPADHH@Z (l)09FB:?decode_white_run@@YAHPAUtiff@@@Z (l)0A2A:$nextbyte$142391 (l)0B2C:?decode_black_run@@YAHPAUtiff@@@Z (l)0B5E:$nextbyte$142411 0C6C:?Fax3Decode2DRow@SECTiff@@QAEJPAUtiff@@PAEK@Z (l)11AC:$bad$142552 (l)1236:?decode_uncomp_code@@YAHPAUtiff@@@Z 130E:?Fax3PutBits@SECTiff@@QAEXPAUtiff@@KJ@Z 149B:?fax3_putcode@SECTiff@@QAEXPAUtiff@@PBUtableentry@@@Z 14C7:?fax3_putspan@SECTiff@@QAEXPAUtiff@@JPBUtableentry@@@Z 1587:?Fax3PutEOL@SECTiff@@QAEXPAUtiff@@@Z 163B:?Fax3PreEncode@SECTiff@@QAEJPAUtiff@@@Z 1786:?Fax3Encode1DRow@SECTiff@@QAEJPAUtiff@@PAEJ@Z 183E:?Fax3Encode2DRow@SECTiff@@QAEJPAUtiff@@PAE1K@Z 1B28:?Fax3Encode@SECTiff@@QAEJPAUtiff@@PAEJG@Z 1C7C:?Fax3PostEncode@SECTiff@@QAEJPAUtiff@@@Z 1D1D:?Fax3Close@SECTiff@@QAEXPAUtiff@@@Z 1D8D:?Fax3Cleanup@SECTiff@@QAEXPAUtiff@@@Z (l)1DC5:?findspan@@YAHPAPAEHHPBE@Z (l)1EE1:$done$142765 (l)1EF6:?finddiff@@YAHPAEHHH@Z 1F3F:?TIFFInitCCITTFax3@SECTiff@@QAEJPAUtiff@@@Z (1FA3: 00) (REF 005A: $SG142312)
              2. 3A 69DC 1FFF 0000:?TIFFModeCCITTFax3@SECTiff@@QAEXPAUtiff@@J@Z 0033:?Fax3SetupState@SECTiff@@QAEPAXPAUtiff@@J@Z 01E8:?Fax3PreDecode@SECTiff@@QAEJPAUtiff@@@Z (l)02B8:?skiptoeol@@YAXPAUtiff@@H@Z (l)030B:$again$142792 (l)0575:?nextbit@@YAHPAUtiff@@@Z 062E:?Fax3Decode@SECTiff@@QAEJPAUtiff@@PAEJG@Z 073C:?Fax3Decode1DRow@SECTiff@@QAEJPAUtiff@@PAEJ@Z (l)08A1:$done$142975 (l)0938:?fillspan@@YAXPADHH@Z (l)09FB:?decode_white_run@@YAHPAUtiff@@@Z (l)0A2A:$nextbyte$142922 (l)0B2C:?decode_black_run@@YAHPAUtiff@@@Z (l)0B5E:$nextbyte$142942 0C6C:?Fax3Decode2DRow@SECTiff@@QAEJPAUtiff@@PAEK@Z (l)11AC:$bad$143083 (l)1236:?decode_uncomp_code@@YAHPAUtiff@@@Z 130E:?Fax3PutBits@SECTiff@@QAEXPAUtiff@@KJ@Z 149B:?fax3_putcode@SECTiff@@QAEXPAUtiff@@PBUtableentry@@@Z 14C7:?fax3_putspan@SECTiff@@QAEXPAUtiff@@JPBUtableentry@@@Z 1588:?Fax3PutEOL@SECTiff@@QAEXPAUtiff@@@Z 163C:?Fax3PreEncode@SECTiff@@QAEJPAUtiff@@@Z 1787:?Fax3Encode1DRow@SECTiff@@QAEJPAUtiff@@PAEJ@Z 183F:?Fax3Encode2DRow@SECTiff@@QAEJPAUtiff@@PAE1K@Z 1B29:?Fax3Encode@SECTiff@@QAEJPAUtiff@@PAEJG@Z 1C7D:?Fax3PostEncode@SECTiff@@QAEJPAUtiff@@@Z 1D1E:?Fax3Close@SECTiff@@QAEXPAUtiff@@@Z 1D8E:?Fax3Cleanup@SECTiff@@QAEXPAUtiff@@@Z (l)1DC6:?findspan@@YAHPAPAEHHPBE@Z (l)1EE2:$done$143296 (l)1EF7:?finddiff@@YAHPAEHHH@Z 1F40:?TIFFInitCCITTFax3@SECTiff@@QAEJPAUtiff@@@Z (1FA3: 04) (REF 005A: $SG142843)
              3. 3A 69DC 1FFF 0000:?TIFFModeCCITTFax3@SECTiff@@QAEXPAUtiff@@J@Z 0033:?Fax3SetupState@SECTiff@@QAEPAXPAUtiff@@J@Z 01E8:?Fax3PreDecode@SECTiff@@QAEJPAUtiff@@@Z (l)02B8:?skiptoeol@@YAXPAUtiff@@H@Z (l)030B:$again$143020 (l)0575:?nextbit@@YAHPAUtiff@@@Z 062E:?Fax3Decode@SECTiff@@QAEJPAUtiff@@PAEJG@Z 073C:?Fax3Decode1DRow@SECTiff@@QAEJPAUtiff@@PAEJ@Z (l)08A1:$done$143203 (l)0938:?fillspan@@YAXPADHH@Z (l)09FB:?decode_white_run@@YAHPAUtiff@@@Z (l)0A2A:$nextbyte$143150 (l)0B2C:?decode_black_run@@YAHPAUtiff@@@Z (l)0B5E:$nextbyte$143170 0C6C:?Fax3Decode2DRow@SECTiff@@QAEJPAUtiff@@PAEK@Z (l)11AC:$bad$143311 (l)1236:?decode_uncomp_code@@YAHPAUtiff@@@Z 130E:?Fax3PutBits@SECTiff@@QAEXPAUtiff@@KJ@Z 149B:?fax3_putcode@SECTiff@@QAEXPAUtiff@@PBUtableentry@@@Z 14C7:?fax3_putspan@SECTiff@@QAEXPAUtiff@@JPBUtableentry@@@Z 1588:?Fax3PutEOL@SECTiff@@QAEXPAUtiff@@@Z 163C:?Fax3PreEncode@SECTiff@@QAEJPAUtiff@@@Z 1787:?Fax3Encode1DRow@SECTiff@@QAEJPAUtiff@@PAEJ@Z 183F:?Fax3Encode2DRow@SECTiff@@QAEJPAUtiff@@PAE1K@Z 1B29:?Fax3Encode@SECTiff@@QAEJPAUtiff@@PAEJG@Z 1C7D:?Fax3PostEncode@SECTiff@@QAEJPAUtiff@@@Z 1D1E:?Fax3Close@SECTiff@@QAEXPAUtiff@@@Z 1D8E:?Fax3Cleanup@SECTiff@@QAEXPAUtiff@@@Z (l)1DC6:?findspan@@YAHPAPAEHHPBE@Z (l)1EE2:$done$143524 (l)1EF7:?finddiff@@YAHPAEHHH@Z 1F40:?TIFFInitCCITTFax3@SECTiff@@QAEJPAUtiff@@@Z (1FA3: 04) (REF 005A: $SG143071)
            1000740F8B450833C93B450C0F:
              9CC18BC1EB0B8B550833:
                0. 0D 762C 002D 0000:?SizeInsideLimit@SECLayoutNodeSplitter@@MAEHHHH@Z
              9FC18BC1EB0B8B550833:
                0. 0D A6A6 002D 0000:?SizeOutsideLimit@SECLayoutNodeSplitter@@MAEHHHH@Z
          C8FF8BE55DC20400:
            0. 00 0000 0010 0000:?GetSubItemHit@SECListClient@@UBEHH@Z
        8B:
          45:
            08:
              0FBF480E81E18000000085C974178B5508528B4DFCE8:
                0. 00 0000 06AE 0000:?PackBitsPreEncode@SECTiff@@QAEHPAUtiff@@@Z 004F:?PackBitsEncode@SECTiff@@QAEHPAUtiff@@PAEJG@Z (l)00EB:$again$141972 0474:?PackBitsEncodeChunk@SECTiff@@QAEHPAUtiff@@PAEJG@Z 04ED:?PackBitsDecode@SECTiff@@QAEHPAUtiff@@PAEJG@Z 0641:?TIFFInitPackBits@SECTiff@@QAEJPAUtiff@@@Z (068D: 00) (REF 0495: $SG142030)
                1. 00 0000 06AE 0000:?PackBitsPreEncode@SECTiff@@QAEHPAUtiff@@@Z 004F:?PackBitsEncode@SECTiff@@QAEHPAUtiff@@PAEJG@Z (l)00EB:$again$142200 0474:?PackBitsEncodeChunk@SECTiff@@QAEHPAUtiff@@PAEJG@Z 04ED:?PackBitsDecode@SECTiff@@QAEHPAUtiff@@PAEJG@Z 0641:?TIFFInitPackBits@SECTiff@@QAEJPAUtiff@@@Z (068D: 00) (REF 0495: $SG142258)
                2. 00 0000 06AF 0000:?PackBitsPreEncode@SECTiff@@QAEHPAUtiff@@@Z 004F:?PackBitsEncode@SECTiff@@QAEHPAUtiff@@PAEJG@Z (l)00EB:$again$142731 0474:?PackBitsEncodeChunk@SECTiff@@QAEHPAUtiff@@PAEJG@Z 04EE:?PackBitsDecode@SECTiff@@QAEHPAUtiff@@PAEJG@Z 0642:?TIFFInitPackBits@SECTiff@@QAEJPAUtiff@@@Z (068D: 04) (REF 0495: $SG142789)
                3. 00 0000 06AF 0000:?PackBitsPreEncode@SECTiff@@QAEHPAUtiff@@@Z 004F:?PackBitsEncode@SECTiff@@QAEHPAUtiff@@PAEJG@Z (l)00EB:$again$142959 0474:?PackBitsEncodeChunk@SECTiff@@QAEHPAUtiff@@PAEJG@Z 04EE:?PackBitsDecode@SECTiff@@QAEHPAUtiff@@PAEJG@Z 0642:?TIFFInitPackBits@SECTiff@@QAEJPAUtiff@@@Z (068D: 04) (REF 0495: $SG143017)
              25FFFF0000508B4DFCE8........8BE55DC20400:
                0. 00 0000 001E 0000:?LoadToolBar@SECToolBar@@QAEHI@Z
              50:
                68:
                  003000008B4DFCE8........8B4DFCC701:
                    0. 00 0000 009C 0000:??0SECAOleInsertCtlDlg@@QAE@PAVCWnd@@@Z 002A:?GetMessageMap@SECAOleInsertCtlDlg@@MBEPBUAFX_MSGMAP@@XZ 003A:?OnInitDialog@SECAOleInsertCtlDlg@@MAEHXZ (0078: 8B)
                    1. 00 0000 00A6 0000:??0SECAOleInsertCtlDlg@@QAE@PAVCWnd@@@Z 002A:?_GetBaseMessageMap@SECAOleInsertCtlDlg@@KGPBUAFX_MSGMAP@@XZ 0034:?GetMessageMap@SECAOleInsertCtlDlg@@MBEPBUAFX_MSGMAP@@XZ 0044:?OnInitDialog@SECAOleInsertCtlDlg@@MAEHXZ (0078: E8)
                  ........E8........83C4088BE55DC20400558B:
                    0. 1A 6EAD 006A 0000:?z_error@SECComp@@QAEXPAD@Z 001E:?zcalloc@SECComp@@QAEPAXPAXGG@Z 0047:?zcfree@SECComp@@QAEXPAX0@Z
                    1. 19 848F 0068 0000:?z_error@SECComp@@QAEXPAD@Z 001E:?zcalloc@SECComp@@QAEPAXPAXGG@Z 0046:?zcfree@SECComp@@QAEXPAX0@Z
                8B4DFC:
                  81:
                    C1:
                      00010000E8........8BE55DC20400:
                        0. 00 0000 001F 0000:?SetScript@SECScriptHostDoc@@QAEXABVCString@@@Z
                      3C03000051E8........83C4088BE55D:
                        0. 03 8E1E 0023 0000:?SetCurrentFile@SECTNFileDialog@@QAEXPBG@Z
                      4003000051FF15........83C4088BE5:
                        0. 04 057A 0024 0000:?SetCurrentFile@SECTNFileDialog@@QAEXPBG@Z
                      CC000000E8........8B008BE55DC204:
                        0. 01 78F0 0021 0000:?GetSplitter@SECDockBar@@QAEPAVSplitter@1@H@Z
                      D0000000E8........8B008BE55DC204:
                        0. 01 78F0 0021 0000:?GetSplitter@SECDockBar@@QAEPAVSplitter@1@H@Z
                      F801000051E8........83C4088BE55D:
                        0. 03 8E1E 0023 0000:?SetCurrentFile@SECTNFileDialog@@QAEXPBD@Z
                      FC:
                        000000E8........8BE55DC20400:
                          0. 00 0000 001F 0000:?SetScript@SECScriptHostDoc@@QAEXABVCString@@@Z
                        01000051E8........83C4088BE55D:
                          0. 03 8E1E 0023 0000:?SetCurrentFile@SECTNFileDialog@@QAEXPBD@Z
                    E9:
                      C00000008B55FC8B8240FFFFFFFF90FC:
                        0. 09 0912 0029 0000:?SetNewNodeOwnerHWND@?$SECReparentableLayoutNodeDC_T@VSECLayoutNodeDC@@@@UAEXPAUHWND__@@@Z
                      E80100008B55FC8B8218FEFFFFFF90FC:
                        0. 09 0912 0029 0000:?SetNewNodeOwnerHWND@?$SECReparentableLayoutNodeDC_T@VSECLayoutNodeGripperEx@@@@UAEXPAUHWND__@@@Z
                  83:
                    C1:
                      08E8........8B:
                        C8E8........8BE55D:
                          0. 03 8E1E 0023 0000:?SetMenuText@SECUserTool@@QAEPBGPBG@Z (REF 0012: ??4CString@@QAEABV0@PBG@Z)
                          1. 03 8E1E 0023 0000:?SetMenuText@SECUserTool@@QAEPBDPBD@Z (REF 0012: ??4CString@@QAEABV0@PBD@Z)
                        E55DC20400:
                          0. 00 0000 001C 0000:?SetTitle@SECAContainerProps@@QAEXPBG@Z (REF 0012: ??4CString@@QAEABV0@PBG@Z)
                          1. 00 0000 001C 0000:?SetTitle@SECAContainerProps@@QAEXPBD@Z (REF 0012: ??4CString@@QAEABV0@PBD@Z)
                      0CE8........8BC8E8........8BE55D:
                        0. 03 8E1E 0023 0000:?SetCommand@SECUserTool@@QAEPBGPBG@Z (REF 0012: ??4CString@@QAEABV0@PBG@Z)
                        1. 03 8E1E 0023 0000:?SetCommand@SECUserTool@@QAEPBDPBD@Z (REF 0012: ??4CString@@QAEABV0@PBD@Z)
                      10E8........8BC8E8........8BE55D:
                        0. 03 8E1E 0023 0000:?SetArgs@SECUserTool@@QAEPBGPBG@Z (REF 0012: ??4CString@@QAEABV0@PBG@Z)
                        1. 03 8E1E 0023 0000:?SetArgs@SECUserTool@@QAEPBDPBD@Z (REF 0012: ??4CString@@QAEABV0@PBD@Z)
                      14E8........8BC8E8........8BE55D:
                        0. 03 8E1E 0023 0000:?SetDirectory@SECUserTool@@QAEPBGPBG@Z (REF 0012: ??4CString@@QAEABV0@PBG@Z)
                        1. 03 8E1E 0023 0000:?SetDirectory@SECUserTool@@QAEPBDPBD@Z (REF 0012: ??4CString@@QAEABV0@PBD@Z)
                      208B55FC8B4220FF500C8BE55DC20400:
                        0. 00 0000 0020 0000:?IsContainerManaged@SECLNDockingMgr@@QAEHPAVISECLNContainer@@@Z
                      40E8........8BE55DC20400:
                        0. 00 0000 001C 0000:?SetBrowseCaption@SECBrowseEditBase@@QAEXPBG@Z (REF 0012: ??4CString@@QAEABV0@PBG@Z)
                        1. 00 0000 001C 0000:?SetBrowseCaption@SECBrowseEditBase@@QAEXPBD@Z (REF 0012: ??4CString@@QAEABV0@PBD@Z)
                      44E8........8BE55DC20400:
                        0. 00 0000 001C 0000:?SetBrowseCaption@SECBrowseEditBase@@QAEXPBG@Z (REF 0012: ??4CString@@QAEABV0@PBG@Z)
                        1. 00 0000 001C (?)0000:?SetFileFilters@SECBrowseFileEdit@@QAEXPBD@Z (REF 0012: ??4CString@@QAEABV0@PBD@Z)
                      48E8........8BE55DC20400:
                        0. 00 0000 001C 0000:?SetFileFilters@SECBrowseFileEdit@@QAEXPBG@Z (REF 0012: ??4CString@@QAEABV0@PBG@Z)
                        1. 00 0000 001C 0000:?SetFileFilters@SECBrowseFileEdit@@QAEXPBD@Z (REF 0012: ??4CString@@QAEABV0@PBD@Z)
                      58E8........8BE55DC20400:
                        0. 00 0000 001C 0000:?SetNodeTitle@SECLayoutNode@@QAEXPBG@Z (REF 0012: ??4CString@@QAEABV0@PBG@Z)
                        1. 00 0000 001C 0000:?SetNodeTitle@SECLayoutNode@@QAEXPBD@Z (REF 0012: ??4CString@@QAEABV0@PBD@Z)
                      60E8........8BE55DC20400558BEC83:
                        0. 25 0496 48BE 0000:?AddKeyword@SECATokenizer@@QAEHPBD@Z 001C:?IsKeyword@SECATokenizer@@QAEHPBD@Z 00AC:??0SECATokenizer@@QAE@XZ 0159:??0SECATokenizer@@QAE@PBD@Z 0217:??1SECATokenizer@@QAE@XZ 02A7:?GetObjectStatus@SECATokenizer@@QAEHXZ 02BB:?ResetScaner@SECATokenizer@@QAEXXZ 043B:?LoadText@SECATokenizer@@QAEHPBDH@Z 07FE:?Advance@SECATokenizer@@QAEXXZ 0825:?yylex@SECATokenizer@@IAEHXZ (l)145C:?IsDefTextChar@@YAHD@Z 14B3:?GetNumericConstant@SECATokenizer@@IAEHXZ 1A9E:?GetCurrWord@SECATokenizer@@QBEPBDXZ 1AC4:?StartScanFromLine@SECATokenizer@@QAEHH@Z 1D8D:?StartScanFromBegin@SECATokenizer@@QAEXXZ 1DE4:?GetCurrWordOffs@SECATokenizer@@QAEHXZ 1E06:?GetLineLen@SECATokenizer@@QBEHH@Z 1EB5:?GetCurrToken@SECATokenizer@@QBEHXZ 1ED7:?GetLineToPoint@SECATokenizer@@QBEHAAVCString@@@Z 200B:?GetLine@SECATokenizer@@QBEHAAVCString@@H@Z 2190:?GetLine@SECATokenizer@@QBEHPADHH@Z 2256:?LineFromChar@SECATokenizer@@QAEHH@Z 2336:?IndexFromInLinePos@SECATokenizer@@QAEHHH@Z 23D0:?SetLastToken@SECATokenizer@@QAEHH@Z 23FE:?TokenFromChar@SECATokenizer@@QAEHH@Z 249F:?TokenFromChar@SECATokenizer@@QAEHHH@Z 253B:?GetTextLength@SECATokenizer@@QBEHXZ 254C:?GetNumbOfLines@SECATokenizer@@QBEHXZ 2562:?GetChar@SECATokenizer@@QBEDH@Z 25B7:?GetChar@SECATokenizer@@QBEDHH@Z 2653:?GetCurrSel@SECATokenizer@@QBEKXZ 2699:?GetCurrSel@SECATokenizer@@QBEXAAH0@Z 26DA:?MovePointByOneLine@SECATokenizer@@QAEHHH@Z 278E:?MovePointByOneChar@SECATokenizer@@QAEHHH@Z 2803:?MovePointByOneWord@SECATokenizer@@QAEHHH@Z 2A3D:?SetPointOffset@SECATokenizer@@QAEHHH@Z 2B98:?SetPointOnEnd@SECATokenizer@@QAEHH@Z 2BEC:?SetPoint@SECATokenizer@@QAEHHHH@Z 2D45:?SetPointOnLine@SECATokenizer@@QAEHHH@Z 2E97:?SetPointOnLineEnd@SECATokenizer@@QAEHHH@Z 2F2B:?GetSelText@SECATokenizer@@QBEHAAVCString@@@Z 3071:?CloseCurrSel@SECATokenizer@@QAEXXZ 3094:?GetText@SECATokenizer@@QAEPBDXZ 30B5:?GetPointPos@SECATokenizer@@QBEXAAH0@Z 30FE:?GetPointPos@SECATokenizer@@QBEHXZ 3120:?GetLineIndex@SECATokenizer@@QBEHH@Z 3185:?GetCaretWord@SECATokenizer@@QAEHPADH@Z 33C3:?FindString@SECATokenizer@@QAEHPBDHHAAH1@Z 35B1:?InsertChar@SECATokenizer@@QAEHDH@Z 380A:?OverwriteChar@SECATokenizer@@QAEHDH@Z 3A13:?BackTab@SECATokenizer@@QAEXXZ 3AC5:?DeleteChar@SECATokenizer@@QAEXH@Z 3C3A:?DeleteLine@SECATokenizer@@QAEXHH@Z 3CAE:?DeleteMultLines@SECATokenizer@@QAEXHHH@Z 3D8E:?BackspaceChar@SECATokenizer@@QAEXH@Z 3DD2:?GetModify@SECATokenizer@@QAEHXZ 3DE3:?SetModify@SECATokenizer@@QAEXH@Z 3DF9:?InsertText@SECATokenizer@@QAEHPBDHH@Z 4184:?RemoveSelectedText@SECATokenizer@@QAEHH@Z 4309:?CanUndo@SECATokenizer@@QAEHXZ 432F:?Undo@SECATokenizer@@QAEHXZ 443F:?SetCanRestore@SECATokenizer@@QAEXH@Z 445B:?EnableUndo@SECATokenizer@@QAEXH@Z 4477:?IsUndoEnabled@SECATokenizer@@QBEHXZ 448D:??1SECAUndoEdit@@UAE@XZ 44DE:?CanUndo@SECAUndoEdit@@QBEHXZ 450C:?Push@SECAUndoEdit@@QAEXHHHPBD@Z 46BC:?Push@SECAUndoEdit@@QAEXAAUtagUndo@@@Z 46F7:?Pop@SECAUndoEdit@@QAEPBUtagUndo@@XZ 4792:?RemoveAll@SECAUndoEdit@@QAEXXZ 4858:?CanRestore@SECAUndoEdit@@QBEHXZ 4876:?SetCanRestore@SECAUndoEdit@@QAEXH@Z 4897:?EnableUndo@SECAUndoEdit@@QAEXH@Z 48AD:?IsUndoEnabled@SECAUndoEdit@@QBEHXZ (4878: C3)
                        1. 25 0496 4B29 0000:?AddKeyword@SECATokenizer@@QAEHPBG@Z 001C:?IsKeyword@SECATokenizer@@QAEHPBG@Z 00AC:??0SECATokenizer@@QAE@XZ 0159:??0SECATokenizer@@QAE@PBG@Z 0217:??1SECATokenizer@@QAE@XZ 02A7:?GetObjectStatus@SECATokenizer@@QAEHXZ 02BB:?ResetScaner@SECATokenizer@@QAEXXZ 043F:?LoadText@SECATokenizer@@QAEHPBGH@Z 0833:?Advance@SECATokenizer@@QAEXXZ 085A:?yylex@SECATokenizer@@IAEHXZ (l)153B:?IsDefTextChar@@YAHG@Z 159C:?GetNumericConstant@SECATokenizer@@IAEHXZ 1BD4:?GetCurrWord@SECATokenizer@@QBEPBGXZ 1BFA:?StartScanFromLine@SECATokenizer@@QAEHH@Z 1EE9:?StartScanFromBegin@SECATokenizer@@QAEXXZ 1F40:?GetCurrWordOffs@SECATokenizer@@QAEHXZ 1F62:?GetLineLen@SECATokenizer@@QBEHH@Z 2011:?GetCurrToken@SECATokenizer@@QBEHXZ 2033:?GetLineToPoint@SECATokenizer@@QBEHAAVCString@@@Z 2167:?GetLine@SECATokenizer@@QBEHAAVCString@@H@Z 22F7:?GetLine@SECATokenizer@@QBEHPAGHH@Z 23C8:?LineFromChar@SECATokenizer@@QAEHH@Z 24A8:?IndexFromInLinePos@SECATokenizer@@QAEHHH@Z 2542:?SetLastToken@SECATokenizer@@QAEHH@Z 2570:?TokenFromChar@SECATokenizer@@QAEHH@Z 2617:?TokenFromChar@SECATokenizer@@QAEHHH@Z 26B6:?GetTextLength@SECATokenizer@@QBEHXZ 26C7:?GetNumbOfLines@SECATokenizer@@QBEHXZ 26DD:?GetChar@SECATokenizer@@QBEGH@Z 2736:?GetChar@SECATokenizer@@QBEGHH@Z 27D4:?GetCurrSel@SECATokenizer@@QBEKXZ 281A:?GetCurrSel@SECATokenizer@@QBEXAAH0@Z 285B:?MovePointByOneLine@SECATokenizer@@QAEHHH@Z 290F:?MovePointByOneChar@SECATokenizer@@QAEHHH@Z 2984:?MovePointByOneWord@SECATokenizer@@QAEHHH@Z 2BE7:?SetPointOffset@SECATokenizer@@QAEHHH@Z 2D42:?SetPointOnEnd@SECATokenizer@@QAEHH@Z 2D96:?SetPoint@SECATokenizer@@QAEHHHH@Z 2EEF:?SetPointOnLine@SECATokenizer@@QAEHHH@Z 3041:?SetPointOnLineEnd@SECATokenizer@@QAEHHH@Z 30D5:?GetSelText@SECATokenizer@@QBEHAAVCString@@@Z 3226:?CloseCurrSel@SECATokenizer@@QAEXXZ 3249:?GetText@SECATokenizer@@QAEPBGXZ 326A:?GetPointPos@SECATokenizer@@QBEXAAH0@Z 32B3:?GetPointPos@SECATokenizer@@QBEHXZ 32D5:?GetLineIndex@SECATokenizer@@QBEHH@Z 333A:?GetCaretWord@SECATokenizer@@QAEHPAGH@Z 359B:?FindString@SECATokenizer@@QAEHPBGHHAAH1@Z 37A3:?InsertChar@SECATokenizer@@QAEHGH@Z 3A17:?OverwriteChar@SECATokenizer@@QAEHGH@Z 3C39:?BackTab@SECATokenizer@@QAEXXZ 3CEB:?DeleteChar@SECATokenizer@@QAEXH@Z 3E71:?DeleteLine@SECATokenizer@@QAEXHH@Z 3EE5:?DeleteMultLines@SECATokenizer@@QAEXHHH@Z 3FC5:?BackspaceChar@SECATokenizer@@QAEXH@Z 4009:?GetModify@SECATokenizer@@QAEHXZ 401A:?SetModify@SECATokenizer@@QAEXH@Z 4030:?InsertText@SECATokenizer@@QAEHPBGHH@Z 43DF:?RemoveSelectedText@SECATokenizer@@QAEHH@Z 4573:?CanUndo@SECATokenizer@@QAEHXZ 4599:?Undo@SECATokenizer@@QAEHXZ 46A9:?SetCanRestore@SECATokenizer@@QAEXH@Z 46C5:?EnableUndo@SECATokenizer@@QAEXH@Z 46E1:?IsUndoEnabled@SECATokenizer@@QBEHXZ 46F7:??1SECAUndoEdit@@UAE@XZ 4748:?CanUndo@SECAUndoEdit@@QBEHXZ 4776:?Push@SECAUndoEdit@@QAEXHHHPBG@Z 4927:?Push@SECAUndoEdit@@QAEXAAUtagUndo@@@Z 4962:?Pop@SECAUndoEdit@@QAEPBUtagUndo@@XZ 49FD:?RemoveAll@SECAUndoEdit@@QAEXXZ 4AC3:?CanRestore@SECAUndoEdit@@QBEHXZ 4AE1:?SetCanRestore@SECAUndoEdit@@QAEXH@Z 4B02:?EnableUndo@SECAUndoEdit@@QAEXH@Z 4B18:?IsUndoEnabled@SECAUndoEdit@@QBEHXZ (4878: E8)
                        2. 25 0496 48FF 0000:?AddKeyword@SECATokenizer@@QAEHPBD@Z 001C:?IsKeyword@SECATokenizer@@QAEHPBD@Z 00AC:??0SECATokenizer@@QAE@XZ 0159:??0SECATokenizer@@QAE@PBD@Z 0217:??1SECATokenizer@@QAE@XZ 02A8:?GetObjectStatus@SECATokenizer@@QAEHXZ 02BC:?ResetScaner@SECATokenizer@@QAEXXZ 043E:?LoadText@SECATokenizer@@QAEHPBDH@Z 0804:?Advance@SECATokenizer@@QAEXXZ 082B:?yylex@SECATokenizer@@IAEHXZ (l)146A:?IsDefTextChar@@YAHD@Z 14C1:?GetNumericConstant@SECATokenizer@@IAEHXZ 1ABC:?GetCurrWord@SECATokenizer@@QBEPBDXZ 1AE2:?StartScanFromLine@SECATokenizer@@QAEHH@Z 1DAB:?StartScanFromBegin@SECATokenizer@@QAEXXZ 1E02:?GetCurrWordOffs@SECATokenizer@@QAEHXZ 1E24:?GetLineLen@SECATokenizer@@QBEHH@Z 1ED3:?GetCurrToken@SECATokenizer@@QBEHXZ 1EF5:?GetLineToPoint@SECATokenizer@@QBEHAAVCString@@@Z 202B:?GetLine@SECATokenizer@@QBEHAAVCString@@H@Z 21B2:?GetLine@SECATokenizer@@QBEHPADHH@Z 2278:?LineFromChar@SECATokenizer@@QAEHH@Z 2358:?IndexFromInLinePos@SECATokenizer@@QAEHHH@Z 23F2:?SetLastToken@SECATokenizer@@QAEHH@Z 2420:?TokenFromChar@SECATokenizer@@QAEHH@Z 24C1:?TokenFromChar@SECATokenizer@@QAEHHH@Z 255D:?GetTextLength@SECATokenizer@@QBEHXZ 256E:?GetNumbOfLines@SECATokenizer@@QBEHXZ 2584:?GetChar@SECATokenizer@@QBEDH@Z 25D9:?GetChar@SECATokenizer@@QBEDHH@Z 2675:?GetCurrSel@SECATokenizer@@QBEKXZ 26BB:?GetCurrSel@SECATokenizer@@QBEXAAH0@Z 26FC:?MovePointByOneLine@SECATokenizer@@QAEHHH@Z 27B0:?MovePointByOneChar@SECATokenizer@@QAEHHH@Z 2825:?MovePointByOneWord@SECATokenizer@@QAEHHH@Z 2A66:?SetPointOffset@SECATokenizer@@QAEHHH@Z 2BC1:?SetPointOnEnd@SECATokenizer@@QAEHH@Z 2C15:?SetPoint@SECATokenizer@@QAEHHHH@Z 2D6E:?SetPointOnLine@SECATokenizer@@QAEHHH@Z 2EC0:?SetPointOnLineEnd@SECATokenizer@@QAEHHH@Z 2F54:?GetSelText@SECATokenizer@@QBEHAAVCString@@@Z 309C:?CloseCurrSel@SECATokenizer@@QAEXXZ 30BF:?GetText@SECATokenizer@@QAEPBDXZ 30E0:?GetPointPos@SECATokenizer@@QBEXAAH0@Z 3129:?GetPointPos@SECATokenizer@@QBEHXZ 314B:?GetLineIndex@SECATokenizer@@QBEHH@Z 31B0:?GetCaretWord@SECATokenizer@@QAEHPADH@Z 33F3:?FindString@SECATokenizer@@QAEHPBDHHAAH1@Z 35E3:?InsertChar@SECATokenizer@@QAEHDH@Z 383D:?OverwriteChar@SECATokenizer@@QAEHDH@Z 3A46:?BackTab@SECATokenizer@@QAEXXZ 3AF8:?DeleteChar@SECATokenizer@@QAEXH@Z 3C6D:?DeleteLine@SECATokenizer@@QAEXHH@Z 3CE1:?DeleteMultLines@SECATokenizer@@QAEXHHH@Z 3DC1:?BackspaceChar@SECATokenizer@@QAEXH@Z 3E05:?GetModify@SECATokenizer@@QAEHXZ 3E16:?SetModify@SECATokenizer@@QAEXH@Z 3E2C:?InsertText@SECATokenizer@@QAEHPBDHH@Z 41B9:?RemoveSelectedText@SECATokenizer@@QAEHH@Z 433E:?CanUndo@SECATokenizer@@QAEHXZ 4364:?Undo@SECATokenizer@@QAEHXZ 4474:?SetCanRestore@SECATokenizer@@QAEXH@Z 4490:?EnableUndo@SECATokenizer@@QAEXH@Z 44AC:?IsUndoEnabled@SECATokenizer@@QBEHXZ 44C2:??1SECAUndoEdit@@UAE@XZ 4513:?CanUndo@SECAUndoEdit@@QBEHXZ 4541:?Push@SECAUndoEdit@@QAEXHHHPBD@Z 46F7:?Push@SECAUndoEdit@@QAEXAAUtagUndo@@@Z 4732:?Pop@SECAUndoEdit@@QAEPBUtagUndo@@XZ 47CF:?RemoveAll@SECAUndoEdit@@QAEXXZ 4899:?CanRestore@SECAUndoEdit@@QBEHXZ 48B7:?SetCanRestore@SECAUndoEdit@@QAEXH@Z 48D8:?EnableUndo@SECAUndoEdit@@QAEXH@Z 48EE:?IsUndoEnabled@SECAUndoEdit@@QBEHXZ (4878: FC)
                        3. 25 0496 4B6F 0000:?AddKeyword@SECATokenizer@@QAEHPBG@Z 001C:?IsKeyword@SECATokenizer@@QAEHPBG@Z 00AC:??0SECATokenizer@@QAE@XZ 0159:??0SECATokenizer@@QAE@PBG@Z 0218:??1SECATokenizer@@QAE@XZ 02A9:?GetObjectStatus@SECATokenizer@@QAEHXZ 02BD:?ResetScaner@SECATokenizer@@QAEXXZ 0443:?LoadText@SECATokenizer@@QAEHPBGH@Z 083A:?Advance@SECATokenizer@@QAEXXZ 0861:?yylex@SECATokenizer@@IAEHXZ (l)154B:?IsDefTextChar@@YAHG@Z 15AC:?GetNumericConstant@SECATokenizer@@IAEHXZ 1BF1:?GetCurrWord@SECATokenizer@@QBEPBGXZ 1C17:?StartScanFromLine@SECATokenizer@@QAEHH@Z 1F06:?StartScanFromBegin@SECATokenizer@@QAEXXZ 1F5D:?GetCurrWordOffs@SECATokenizer@@QAEHXZ 1F7F:?GetLineLen@SECATokenizer@@QBEHH@Z 202E:?GetCurrToken@SECATokenizer@@QBEHXZ 2050:?GetLineToPoint@SECATokenizer@@QBEHAAVCString@@@Z 2186:?GetLine@SECATokenizer@@QBEHAAVCString@@H@Z 2318:?GetLine@SECATokenizer@@QBEHPAGHH@Z 23EA:?LineFromChar@SECATokenizer@@QAEHH@Z 24CA:?IndexFromInLinePos@SECATokenizer@@QAEHHH@Z 2564:?SetLastToken@SECATokenizer@@QAEHH@Z 2592:?TokenFromChar@SECATokenizer@@QAEHH@Z 2639:?TokenFromChar@SECATokenizer@@QAEHHH@Z 26D8:?GetTextLength@SECATokenizer@@QBEHXZ 26E9:?GetNumbOfLines@SECATokenizer@@QBEHXZ 26FF:?GetChar@SECATokenizer@@QBEGH@Z 2758:?GetChar@SECATokenizer@@QBEGHH@Z 27F6:?GetCurrSel@SECATokenizer@@QBEKXZ 283C:?GetCurrSel@SECATokenizer@@QBEXAAH0@Z 287D:?MovePointByOneLine@SECATokenizer@@QAEHHH@Z 2931:?MovePointByOneChar@SECATokenizer@@QAEHHH@Z 29A6:?MovePointByOneWord@SECATokenizer@@QAEHHH@Z 2C10:?SetPointOffset@SECATokenizer@@QAEHHH@Z 2D6B:?SetPointOnEnd@SECATokenizer@@QAEHH@Z 2DBF:?SetPoint@SECATokenizer@@QAEHHHH@Z 2F18:?SetPointOnLine@SECATokenizer@@QAEHHH@Z 306A:?SetPointOnLineEnd@SECATokenizer@@QAEHHH@Z 30FE:?GetSelText@SECATokenizer@@QBEHAAVCString@@@Z 3250:?CloseCurrSel@SECATokenizer@@QAEXXZ 3273:?GetText@SECATokenizer@@QAEPBGXZ 3294:?GetPointPos@SECATokenizer@@QBEXAAH0@Z 32DD:?GetPointPos@SECATokenizer@@QBEHXZ 32FF:?GetLineIndex@SECATokenizer@@QBEHH@Z 3364:?GetCaretWord@SECATokenizer@@QAEHPAGH@Z 35CA:?FindString@SECATokenizer@@QAEHPBGHHAAH1@Z 37D7:?InsertChar@SECATokenizer@@QAEHGH@Z 3A4C:?OverwriteChar@SECATokenizer@@QAEHGH@Z 3C6E:?BackTab@SECATokenizer@@QAEXXZ 3D20:?DeleteChar@SECATokenizer@@QAEXH@Z 3EA6:?DeleteLine@SECATokenizer@@QAEXHH@Z 3F1A:?DeleteMultLines@SECATokenizer@@QAEXHHH@Z 3FFA:?BackspaceChar@SECATokenizer@@QAEXH@Z 403E:?GetModify@SECATokenizer@@QAEHXZ 404F:?SetModify@SECATokenizer@@QAEXH@Z 4065:?InsertText@SECATokenizer@@QAEHPBGHH@Z 4417:?RemoveSelectedText@SECATokenizer@@QAEHH@Z 45AB:?CanUndo@SECATokenizer@@QAEHXZ 45D1:?Undo@SECATokenizer@@QAEHXZ 46E1:?SetCanRestore@SECATokenizer@@QAEXH@Z 46FD:?EnableUndo@SECATokenizer@@QAEXH@Z 4719:?IsUndoEnabled@SECATokenizer@@QBEHXZ 472F:??1SECAUndoEdit@@UAE@XZ 4780:?CanUndo@SECAUndoEdit@@QBEHXZ 47AE:?Push@SECAUndoEdit@@QAEXHHHPBG@Z 4967:?Push@SECAUndoEdit@@QAEXAAUtagUndo@@@Z 49A2:?Pop@SECAUndoEdit@@QAEPBUtagUndo@@XZ 4A3F:?RemoveAll@SECAUndoEdit@@QAEXXZ 4B09:?CanRestore@SECAUndoEdit@@QBEHXZ 4B27:?SetCanRestore@SECAUndoEdit@@QAEXH@Z 4B48:?EnableUndo@SECAUndoEdit@@QAEXH@Z 4B5E:?IsUndoEnabled@SECAUndoEdit@@QBEHXZ (4878: C4)
                    E9:
                      3C:
                        8B55FC8B42C4FF90C80100008B4014:
                          0. 06 6154 0026 0000:?GetSubItemHit@SECListBaseC@@UBEHH@Z
                        E8........8BE55DC20400:
                          0. 00 0000 001C 0000:?Client2Screen@SECListBaseC@@UAEXPAUtagRECT@@@Z
                      40:
                        8B55FC8B42C0FF90:
                          180200008B4014:
                            0. 06 6154 0026 0000:?GetSubItemHit@SECListBaseV@@UBEHH@Z
                          C80100008B4014:
                            0. 06 6154 0026 0000:?GetSubItemHit@SECListBaseC@@UBEHH@Z
                        E8........8BE55DC20400:
                          0. 00 0000 001C 0000:?Client2Screen@SECListBaseV@@UAEXPAUtagRECT@@@Z
                      44:
                        8B55FC8B42BCFF90180200008B4014:
                          0. 06 6154 0026 0000:?GetSubItemHit@SECListBaseV@@UBEHH@Z
                        E8........8BE55DC20400:
                          0. 00 0000 001C 0000:?Client2Screen@SECListBaseV@@UAEXPAUtagRECT@@@Z
                  8B:
                    118B4DFCFF:
                      5218F7D81BC0408BE55DC204:
                        0. 01 78F0 0021 0000:??9Format@SECCurrencyEdit@@UBEHABV01@@Z
                      92C40000008BE55DC2:
                        0400:
                          0. 00 0000 001F 0000:?PlugIn@SECWndPlugIn@@QAEHPAVCWnd@@@Z
                        0800:
                          0. 00 0000 001F 0000:?AttachWnd@SECWndListener@@UAEHPAVCWnd@@H@Z
                    5104528B45FC8B48088B55FC8B42088B10:
                      0. 09 2B97 0029 0000:?FindNext@?$Iterator_T@PAVSECLayoutNode@@@@UAEHPAVSECLayoutNode@@@Z
                      1. 09 5DF8 0029 0000:?Insert@?$Iterator_T@PAVSECLayoutNode@@@@UAEXPAVSECLayoutNode@@@Z
                      2. 09 8D9F 0029 0000:?Set@?$Iterator_T@PAVSECLayoutNode@@@@UAEXPAVSECLayoutNode@@@Z
                      3. 09 B126 0029 0000:?FindPrev@?$Iterator_T@PAVSECLayoutNode@@@@UAEHPAVSECLayoutNode@@@Z
                  E8........:
                    68........8B4DFC8B51085268:
                      0. 00 0000 007D 0000:?Dump@?$CArray@USECCommand@@AAU1@@@UBEXAAVCDumpContext@@@Z (REF 0066: ?DumpElements@@YGXAAVCDumpContext@@PBUSECCommand@@H@Z)
                      1. 00 0000 007D 0000:?Dump@?$CArray@UtagACCEL@@AAU1@@@UBEXAAVCDumpContext@@@Z (REF 0066: ?DumpElements@@YGXAAVCDumpContext@@PBUtagACCEL@@H@Z)
                      2. 00 0000 007D 0000:?Dump@?$CArray@PAUHMENU__@@PAU1@@@UBEXAAVCDumpContext@@@Z (REF 0066: ?DumpElements@@YGXAAVCDumpContext@@PBQAUHMENU__@@H@Z)
                      3. 00 0000 007D 0000:?Dump@?$CArray@PAVSECBmpMenuItemInfo@@PAV1@@@UBEXAAVCDumpContext@@@Z (REF 0066: ?DumpElements@@YGXAAVCDumpContext@@PBQAVSECBmpMenuItemInfo@@H@Z)
                      4. 00 0000 007D 0000:?Dump@?$CArray@HH@@UBEXAAVCDumpContext@@@Z (REF 0066: ?DumpElements@@YGXAAVCDumpContext@@PBHH@Z)
                      5. 00 0000 007D 0000:?Dump@?$CArray@PAUDescriptor@SECMsgFilter@@PAU12@@@UBEXAAVCDumpContext@@@Z (REF 0066: ?DumpElements@@YGXAAVCDumpContext@@PBQAUDescriptor@SECMsgFilter@@H@Z)
                      6. 00 0000 007D 0000:?Dump@?$CArray@II@@UBEXAAVCDumpContext@@@Z (REF 0066: ?DumpElements@@YGXAAVCDumpContext@@PBIH@Z)
                      7. 00 0000 007D 0000:?Dump@?$CArray@MM@@UBEXAAVCDumpContext@@@Z (REF 0066: ?DumpElements@@YGXAAVCDumpContext@@PBMH@Z)
                      8. 00 0000 007D 0000:?Dump@?$CArray@PAVSECBar@@PAV1@@@UBEXAAVCDumpContext@@@Z (REF 0066: ?DumpElements@@YGXAAVCDumpContext@@PBQAVSECBar@@H@Z)
                      9. 00 0000 007D 0000:?Dump@?$CArray@PAVSECMsgFilter@@PAV1@@@UBEXAAVCDumpContext@@@Z (REF 0066: ?DumpElements@@YGXAAVCDumpContext@@PBQAVSECMsgFilter@@H@Z)
                      10. 00 0000 007D 0000:?Dump@?$CArray@PAVSECACtrlItem@@PAV1@@@UBEXAAVCDumpContext@@@Z (REF 0066: ?DumpElements@@YGXAAVCDumpContext@@PBQAVSECACtrlItem@@H@Z)
                      11. 00 0000 007D 0000:?Dump@?$CArray@VSECAObjectDef@@AAV1@@@UBEXAAVCDumpContext@@@Z (REF 0066: ?DumpElements@@YGXAAVCDumpContext@@PBVSECAObjectDef@@H@Z)
                      12. 00 0000 007D 0000:?Dump@?$CArray@USEC_ToolEntry@@AAU1@@@UBEXAAVCDumpContext@@@Z (REF 0066: ?DumpElements@@YGXAAVCDumpContext@@PBUSEC_ToolEntry@@H@Z)
                      13. 00 0000 007D 0000:?Dump@?$CArray@VCString@@AAV1@@@UBEXAAVCDumpContext@@@Z (REF 0066: ?DumpElements@@YGXAAVCDumpContext@@PBVCString@@H@Z)
                      14. 00 0000 007D 0000:?Dump@?$CArray@UListData@SECAPropList@@AAU12@@@UBEXAAVCDumpContext@@@Z (REF 0066: ?DumpElements@@YGXAAVCDumpContext@@PBUListData@SECAPropList@@H@Z)
                      15. 00 0000 007D 0000:?Dump@?$CArray@USECA_EnumType@@AAU1@@@UBEXAAVCDumpContext@@@Z (REF 0066: ?DumpElements@@YGXAAVCDumpContext@@PBUSECA_EnumType@@H@Z)
                      16. 00 0000 007D 0000:?Dump@?$CArray@VSECABrowseProp@@AAV1@@@UBEXAAVCDumpContext@@@Z (REF 0066: ?DumpElements@@YGXAAVCDumpContext@@PBVSECABrowseProp@@H@Z)
                      17. 00 0000 007D 0000:?Dump@?$CArray@USECA_EventParam@@AAU1@@@UBEXAAVCDumpContext@@@Z (REF 0066: ?DumpElements@@YGXAAVCDumpContext@@PBUSECA_EventParam@@H@Z)
                      18. 00 0000 007D 0000:?Dump@?$CArray@VSECABrowsedEvent@@AAV1@@@UBEXAAVCDumpContext@@@Z (REF 0066: ?DumpElements@@YGXAAVCDumpContext@@PBVSECABrowsedEvent@@H@Z)
                    8B:
                      45FC8BE55DC20400:
                        0. 00 0000 001C 0000:??0SECReplaceString@@QAE@PBD@Z (REF 000F: ??0CString@@QAE@PBD@Z)
                        1. 00 0000 001C 0000:??0SECReplaceString@@QAE@PBG@Z (REF 000F: ??0CString@@QAE@PBG@Z)
                        2. 00 0000 001C 0000:??4SECReplaceString@@QAEAAV0@ABV0@@Z (REF 000F: ??4CString@@QAEABV0@ABV0@@Z)
                      4D:
                        08:
                          83C104518B4DFC83C104:
                            0. 01 3E9B 004C 0000:??4ListData@SECAPropList@@QAEAAU01@ABU01@@Z (002A: 00)
                            1. 01 3E9B 0074 0000:??4SECAObjectDef@@QAEAAV0@ABV0@@Z (002A: 4D)
                          C7814401000000000000:
                            0. 16 3A42 00F6 0000:?TIFFInitCCITTRLE@SECTiff@@QAEJPAUtiff@@@Z 007B:?TIFFInitCCITTRLEW@SECTiff@@QAEJPAUtiff@@@Z
                        0C:
                          89088BE55DC20800:
                            0. 00 0000 001E 0000:?SetAt@?$CMap@IIKK@@QAEXIK@Z (REF 000F: ??A?$CMap@IIKK@@QAEAAKI@Z)
                            1. 00 0000 001E 0000:?SetAt@?$CMap@IIPAUBmpItem@SECBmpMgr@@PAU12@@@QAEXIPAUBmpItem@SECBmpMgr@@@Z (REF 000F: ??A?$CMap@IIPAUBmpItem@SECBmpMgr@@PAU12@@@QAEAAPAUBmpItem@SECBmpMgr@@I@Z)
                            2. 00 0000 001E 0000:?SetAt@?$CMap@PAUHMENU__@@PAU1@PAUSECBmpMenuInfo@SECBmpMenuPlugIn@@PAU23@@@QAEXPAUHMENU__@@PAUSECBmpMenuInfo@SECBmpMenuPlugIn@@@Z (REF 000F: ??A?$CMap@PAUHMENU__@@PAU1@PAUSECBmpMenuInfo@SECBmpMenuPlugIn@@PAU23@@@QAEAAPAUSECBmpMenuInfo@SECBmpMenuPlugIn@@PAUHMENU__@@@Z)
                            3. 00 0000 001E 0000:?SetAt@?$CMap@IIII@@QAEXII@Z (REF 000F: ??A?$CMap@IIII@@QAEAAII@Z)
                            4. 00 0000 001E 0000:?SetAt@?$CMap@IIPAUHMENU__@@PAU1@@@QAEXIPAUHMENU__@@@Z (REF 000F: ??A?$CMap@IIPAUHMENU__@@PAU1@@@QAEAAPAUHMENU__@@I@Z)
                            5. 00 0000 001E 0000:?SetAt@?$CMap@IIHH@@QAEXIH@Z (REF 000F: ??A?$CMap@IIHH@@QAEAAHI@Z)
                            6. 00 0000 001E 0000:?SetAt@?$CMap@PAU_TREEITEM@@AAPAU1@PAVCStringArray@@PAV2@@@QAEXAAPAU_TREEITEM@@PAVCStringArray@@@Z (REF 000F: ??A?$CMap@PAU_TREEITEM@@AAPAU1@PAVCStringArray@@PAV2@@@QAEAAPAVCStringArray@@AAPAU_TREEITEM@@@Z)
                            7. 00 0000 001E 0000:?SetAt@?$CMap@PAVCFrameWnd@@PAV1@PAVSECPersistentTreeNode@@PAV2@@@QAEXPAVCFrameWnd@@PAVSECPersistentTreeNode@@@Z (REF 000F: ??A?$CMap@PAVCFrameWnd@@PAV1@PAVSECPersistentTreeNode@@PAV2@@@QAEAAPAVSECPersistentTreeNode@@PAVCFrameWnd@@@Z)
                          8B1189108BE55DC20800:
                            0. 00 0000 0020 0000:?SetAt@?$CMap@HHHAAH@@QAEXHAAH@Z (REF 000F: ??A?$CMap@HHHAAH@@QAEAAHH@Z)
                            1. 00 0000 0020 0000:?SetAt@?$CMap@HAAHHAAH@@QAEXAAH0@Z (REF 000F: ??A?$CMap@HAAHHAAH@@QAEAAHAAH@Z)
                        FC:
                          8B5508:
                            668B4204668941:
                              0. 16 7721 0036 0000:??4SECA_EventParam@@QAEAAU0@ABU0@@Z (REF 000F: ??4CString@@QAEABV0@ABV0@@Z)
                              1. 16 7721 0036 0000:??0SECA_EventParam@@QAE@ABU0@@Z (REF 000F: ??0CString@@QAE@ABV0@@Z)
                            8B42048941048B:
                              0. 08 C6F4 0028 0000:??0SECA_EnumType@@QAE@ABU0@@Z (REF 000F: ??0CString@@QAE@ABV0@@Z)
                              1. 08 C6F4 0028 0000:??4SECA_EnumType@@QAEAAU0@ABU0@@Z (REF 000F: ??4CString@@QAEABV0@ABV0@@Z)
                          C701........8B:
                            45FC8B:
                              0. 05 1E44 0025 0000:??0?$_CTypedPtrList@VCPtrList@@PAVSECPersTreeNodeKeyValuePair@SECPersistentTreeNode@@@@QAE@H@Z (REF 0018: ??_7?$_CTypedPtrList@VCPtrList@@PAVSECPersTreeNodeKeyValuePair@SECPersistentTreeNode@@@@6B@)
                              1. 05 1E44 0025 0000:??0?$CTypedPtrList@VCPtrList@@PAVSECPersistentTreeNode@@@@QAE@H@Z (REF 000F: ??0?$_CTypedPtrList@VCPtrList@@PAVSECPersistentTreeNode@@@@QAE@H@Z)
                              2. 05 1E44 0025 0000:??0?$_CTypedPtrList@VCPtrList@@PAVSECPersistentTreeNode@@@@QAE@H@Z (REF 0018: ??_7?$_CTypedPtrList@VCPtrList@@PAVSECPersistentTreeNode@@@@6B@)
                              3. 05 1E44 0025 0000:??0?$CTypedPtrList@VCPtrList@@PAVCDocTemplate@@@@QAE@H@Z (REF 000F: ??0?$_CTypedPtrList@VCPtrList@@PAVCDocTemplate@@@@QAE@H@Z)
                              4. 05 1E44 0025 0000:??0?$_CTypedPtrList@VCPtrList@@PAVCDocTemplate@@@@QAE@H@Z (REF 0018: ??_7?$_CTypedPtrList@VCPtrList@@PAVCDocTemplate@@@@6B@)
                              5. 05 1E44 0025 0000:??0?$CTypedPtrList@VCPtrList@@PAVCFrameWnd@@@@QAE@H@Z (REF 000F: ??0?$_CTypedPtrList@VCPtrList@@PAVCFrameWnd@@@@QAE@H@Z)
                              6. 05 1E44 0025 0000:??0?$_CTypedPtrList@VCPtrList@@PAVCFrameWnd@@@@QAE@H@Z (REF 0018: ??_7?$_CTypedPtrList@VCPtrList@@PAVCFrameWnd@@@@6B@)
                              7. 05 1E44 0025 0000:??0?$CTypedPtrList@VCPtrList@@PAVCWnd@@@@QAE@H@Z (REF 000F: ??0?$_CTypedPtrList@VCPtrList@@PAVCWnd@@@@QAE@H@Z)
                              8. 05 1E44 0025 0000:??0?$CTypedPtrList@VCPtrList@@PAVSECLayoutNode@@@@QAE@H@Z (REF 000F: ??0?$_CTypedPtrList@VCPtrList@@PAVSECLayoutNode@@@@QAE@H@Z)
                              9. 05 1E44 0025 0000:??0?$CTypedPtrList@VCPtrList@@PAVSECLayoutWndListener@@@@QAE@H@Z (REF 000F: ??0?$_CTypedPtrList@VCPtrList@@PAVSECLayoutWndListener@@@@QAE@H@Z)
                              10. 05 1E44 0025 0000:??0?$_CTypedPtrList@VCPtrList@@PAVCWnd@@@@QAE@H@Z (REF 0018: ??_7?$_CTypedPtrList@VCPtrList@@PAVCWnd@@@@6B@)
                              11. 05 1E44 0025 0000:??0?$_CTypedPtrList@VCPtrList@@PAVSECLayoutNode@@@@QAE@H@Z (REF 0018: ??_7?$_CTypedPtrList@VCPtrList@@PAVSECLayoutNode@@@@6B@)
                              12. 05 1E44 0025 0000:??0?$_CTypedPtrList@VCPtrList@@PAVSECLayoutWndListener@@@@QAE@H@Z (REF 0018: ??_7?$_CTypedPtrList@VCPtrList@@PAVSECLayoutWndListener@@@@6B@)
                              13. 05 1E44 0025 0000:??0?$CTypedPtrList@VCPtrList@@PAVSECLNRelativeConstraint@@@@QAE@H@Z (REF 000F: ??0?$_CTypedPtrList@VCPtrList@@PAVSECLNRelativeConstraint@@@@QAE@H@Z)
                              14. 05 1E44 0025 0000:??0?$CTypedPtrMap@VCMapPtrToPtr@@PAVSECLayoutNode@@PAVCRect@@@@QAE@H@Z (REF 0018: ??_7?$CTypedPtrMap@VCMapPtrToPtr@@PAVSECLayoutNode@@PAVCRect@@@@6B@)
                              15. 05 1E44 0025 0000:??0?$_CTypedPtrList@VCPtrList@@PAVSECLNRelativeConstraint@@@@QAE@H@Z (REF 0018: ??_7?$_CTypedPtrList@VCPtrList@@PAVSECLNRelativeConstraint@@@@6B@)
                              16. 05 1E44 0025 0000:??0?$CTypedPtrMap@VCMapPtrToPtr@@PAVSECLayoutNode@@PAVSECGridBagConstraints@@@@QAE@H@Z (REF 0018: ??_7?$CTypedPtrMap@VCMapPtrToPtr@@PAVSECLayoutNode@@PAVSECGridBagConstraints@@@@6B@)
                              17. 05 1E44 0025 0000:??0?$CTypedPtrMap@VCMapPtrToPtr@@PAVSECLayoutNode@@PAVSECLNDynamicGridLineCell@@@@QAE@H@Z (REF 0018: ??_7?$CTypedPtrMap@VCMapPtrToPtr@@PAVSECLayoutNode@@PAVSECLNDynamicGridLineCell@@@@6B@)
                              18. 05 1E44 0025 0000:??0?$CTypedPtrMap@VCMapPtrToPtr@@PAVSECLayoutNode@@PAVSECDynGridInsertConstraints@@@@QAE@H@Z (REF 0018: ??_7?$CTypedPtrMap@VCMapPtrToPtr@@PAVSECLayoutNode@@PAVSECDynGridInsertConstraints@@@@6B@)
                              19. 05 1E44 0025 0000:??0?$CTypedPtrList@VCPtrList@@PAVSECDynGridInsertConstraints@@@@QAE@H@Z (REF 000F: ??0?$_CTypedPtrList@VCPtrList@@PAVSECDynGridInsertConstraints@@@@QAE@H@Z)
                              20. 05 1E44 0025 0000:??0?$_CTypedPtrList@VCPtrList@@PAVSECDynGridInsertConstraints@@@@QAE@H@Z (REF 0018: ??_7?$_CTypedPtrList@VCPtrList@@PAVSECDynGridInsertConstraints@@@@6B@)
                              21. 05 1E44 0025 0000:??0?$CTypedPtrList@VCPtrList@@PAVSECLayoutMiniFloatWnd@@@@QAE@H@Z (REF 000F: ??0?$_CTypedPtrList@VCPtrList@@PAVSECLayoutMiniFloatWnd@@@@QAE@H@Z)
                              22. 05 1E44 0025 0000:??0?$_CTypedPtrList@VCPtrList@@PAVSECLayoutMiniFloatWnd@@@@QAE@H@Z (REF 0018: ??_7?$_CTypedPtrList@VCPtrList@@PAVSECLayoutMiniFloatWnd@@@@6B@)
                              23. 05 1E44 0025 0000:??0?$CTypedPtrMap@VCMapPtrToPtr@@PAVSECLayoutNode@@PAVISECLNContainer@@@@QAE@H@Z (REF 0018: ??_7?$CTypedPtrMap@VCMapPtrToPtr@@PAVSECLayoutNode@@PAVISECLNContainer@@@@6B@)
                              24. 05 1E44 0025 0000:??0?$CTypedPtrMap@VCMapPtrToPtr@@PAVSECLayoutNode@@PAVSECDockingNodeConstraints@@@@QAE@H@Z (REF 0018: ??_7?$CTypedPtrMap@VCMapPtrToPtr@@PAVSECLayoutNode@@PAVSECDockingNodeConstraints@@@@6B@)
                              25. 05 1E44 0025 0000:??0?$CTypedPtrList@VCPtrList@@PAVSECLNHwndContainer@@@@QAE@H@Z (REF 000F: ??0?$_CTypedPtrList@VCPtrList@@PAVSECLNHwndContainer@@@@QAE@H@Z)
                              26. 05 1E44 0025 0000:??0?$CTypedPtrList@VCPtrList@@PAV?$SECObjectMemoryManager_T@VSECLayoutNode@@@@@@QAE@H@Z (REF 000F: ??0?$_CTypedPtrList@VCPtrList@@PAV?$SECObjectMemoryManager_T@VSECLayoutNode@@@@@@QAE@H@Z)
                              27. 05 1E44 0025 0000:??0?$CTypedPtrList@VCPtrList@@PAVISECLNContainer@@@@QAE@H@Z (REF 000F: ??0?$_CTypedPtrList@VCPtrList@@PAVISECLNContainer@@@@QAE@H@Z)
                              28. 05 1E44 0025 0000:??0?$CTypedPtrList@VCPtrList@@PAVSECDockingNodeConstraints@@@@QAE@H@Z (REF 000F: ??0?$_CTypedPtrList@VCPtrList@@PAVSECDockingNodeConstraints@@@@QAE@H@Z)
                              29. 05 1E44 0025 0000:??0?$_CTypedPtrList@VCPtrList@@PAVSECLNHwndContainer@@@@QAE@H@Z (REF 0018: ??_7?$_CTypedPtrList@VCPtrList@@PAVSECLNHwndContainer@@@@6B@)
                              30. 05 1E44 0025 0000:??0?$_CTypedPtrList@VCPtrList@@PAV?$SECObjectMemoryManager_T@VSECLayoutNode@@@@@@QAE@H@Z (REF 0018: ??_7?$_CTypedPtrList@VCPtrList@@PAV?$SECObjectMemoryManager_T@VSECLayoutNode@@@@@@6B@)
                              31. 05 1E44 0025 0000:??0?$_CTypedPtrList@VCPtrList@@PAVISECLNContainer@@@@QAE@H@Z (REF 0018: ??_7?$_CTypedPtrList@VCPtrList@@PAVISECLNContainer@@@@6B@)
                              32. 05 1E44 0025 0000:??0?$_CTypedPtrList@VCPtrList@@PAVSECDockingNodeConstraints@@@@QAE@H@Z (REF 0018: ??_7?$_CTypedPtrList@VCPtrList@@PAVSECDockingNodeConstraints@@@@6B@)
                              33. 05 1E44 0025 0000:??0?$CTypedPtrMap@VCMapStringToPtr@@VCString@@PAUIDispatch@@@@QAE@H@Z (REF 0018: ??_7?$CTypedPtrMap@VCMapStringToPtr@@VCString@@PAUIDispatch@@@@6B@)
                              34. 05 1E44 0025 0000:??0?$CTypedPtrMap@VCMapStringToPtr@@VCString@@PAVCWnd@@@@QAE@H@Z (REF 0018: ??_7?$CTypedPtrMap@VCMapStringToPtr@@VCString@@PAVCWnd@@@@6B@)
                              35. 05 1E44 0025 0000:??0?$CTypedPtrMap@VCMapStringToPtr@@VCString@@PAUIUnknown@@@@QAE@H@Z (REF 0018: ??_7?$CTypedPtrMap@VCMapStringToPtr@@VCString@@PAUIUnknown@@@@6B@)
                              36. 05 1E44 0025 0000:??0?$CTypedPtrList@VCPtrList@@PAVSECPersTreeNodeKeyValuePair@SECPersistentTreeNode@@@@QAE@H@Z (REF 000F: ??0?$_CTypedPtrList@VCPtrList@@PAVSECPersTreeNodeKeyValuePair@SECPersistentTreeNode@@@@QAE@H@Z)
                            55FCC7:
                              0. 15 832A 005B 0000:??0SECTreePaintContext@@QAE@PAVCDC@@@Z
                      E55DC20400:
                        0. 00 0000 0019 0000:?GetNext@?$_CTypedPtrList@VCPtrList@@PAVSECPersistentTreeNode@@@@QAEAAPAVSECPersistentTreeNode@@AAPAU__POSITION@@@Z (REF 000F: ?GetNext@CPtrList@@QAEAAPAXAAPAU__POSITION@@@Z)
                        1. 00 0000 0019 0000:??A?$CArray@UtagACCEL@@AAU1@@@QAEAAUtagACCEL@@H@Z (REF 000F: ?ElementAt@?$CArray@UtagACCEL@@AAU1@@@QAEAAUtagACCEL@@H@Z)
                        2. 00 0000 0019 0000:??A?$CArray@USECCommand@@AAU1@@@QAEAAUSECCommand@@H@Z (REF 000F: ?ElementAt@?$CArray@USECCommand@@AAU1@@@QAEAAUSECCommand@@H@Z)
                        3. 00 0000 0019 0000:??A?$CArray@PAUHMENU__@@PAU1@@@QAEAAPAUHMENU__@@H@Z (REF 000F: ?ElementAt@?$CArray@PAUHMENU__@@PAU1@@@QAEAAPAUHMENU__@@H@Z)
                        4. 00 0000 0019 0000:??A?$CArray@PAVSECBmpMenuItemInfo@@PAV1@@@QAEAAPAVSECBmpMenuItemInfo@@H@Z (REF 000F: ?ElementAt@?$CArray@PAVSECBmpMenuItemInfo@@PAV1@@@QAEAAPAVSECBmpMenuItemInfo@@H@Z)
                        5. 00 0000 0019 0000:??A?$CArray@HH@@QAEAAHH@Z (REF 000F: ?ElementAt@?$CArray@HH@@QAEAAHH@Z)
                        6. 00 0000 0019 0000:?Copy@SECBtnArray@SECCustomToolBar@@QAEXABV12@@Z (REF 000F: ?Copy@CPtrArray@@QAEXABV1@@Z)
                        7. 00 0000 0019 0000:?GetAt@SECBtnInfoArray@@QBEPAUSECBtnInfo@@H@Z (REF 000F: ?GetAt@CPtrArray@@QBEPAXH@Z)
                        8. 00 0000 0019 0000:??A?$CArray@II@@QAEAAIH@Z (REF 000F: ?ElementAt@?$CArray@II@@QAEAAIH@Z)
                        9. 00 0000 0019 0000:??A?$CArray@PAUDescriptor@SECMsgFilter@@PAU12@@@QAEAAPAUDescriptor@SECMsgFilter@@H@Z (REF 000F: ?ElementAt@?$CArray@PAUDescriptor@SECMsgFilter@@PAU12@@@QAEAAPAUDescriptor@SECMsgFilter@@H@Z)
                        10. 00 0000 0019 0000:?AddHead@?$CTypedPtrList@VCPtrList@@PAVSECLayoutNode@@@@QAEPAU__POSITION@@PAVSECLayoutNode@@@Z (REF 000F: ?AddHead@CPtrList@@QAEPAU__POSITION@@PAX@Z)
                        11. 00 0000 0019 0000:?GetPrev@?$_CTypedPtrList@VCPtrList@@PAVSECLayoutNode@@@@QBEPAVSECLayoutNode@@AAPAU__POSITION@@@Z (REF 000F: ?GetPrev@CPtrList@@QBEPAXAAPAU__POSITION@@@Z)
                        12. 00 0000 0019 0000:?GetAt@?$_CTypedPtrList@VCPtrList@@PAVSECLayoutNode@@@@QAEAAPAVSECLayoutNode@@PAU__POSITION@@@Z (REF 000F: ?GetAt@CPtrList@@QAEAAPAXPAU__POSITION@@@Z)
                        13. 00 0000 0019 0000:?GetAt@?$_CTypedPtrList@VCPtrList@@PAVSECLayoutNode@@@@QBEPAVSECLayoutNode@@PAU__POSITION@@@Z (REF 000F: ?GetAt@CPtrList@@QBEPAXPAU__POSITION@@@Z)
                        14. 00 0000 0019 0000:??A?$CArray@MM@@QAEAAMH@Z (REF 000F: ?ElementAt@?$CArray@MM@@QAEAAMH@Z)
                        15. 00 0000 0019 0000:?ActivateTab@SECTabWnd@@UAEXPAVCWnd@@@Z (REF 000F: ?ActivateTab@SECTabWndBase@@UAEXPAVCWnd@@@Z)
                        16. 00 0000 0019 0000:?ActivateTab@SECTabWnd@@UAEXH@Z (REF 000F: ?ActivateTab@SECTabWndBase@@UAEXH@Z)
                        17. 00 0000 0019 0000:??A?$CArray@PAVSECBar@@PAV1@@@QAEAAPAVSECBar@@H@Z (REF 000F: ?ElementAt@?$CArray@PAVSECBar@@PAV1@@@QAEAAPAVSECBar@@H@Z)
                        18. 00 0000 0019 0000:??A?$CArray@PAVSECBar@@PAV1@@@QBEPAVSECBar@@H@Z (REF 000F: ?GetAt@?$CArray@PAVSECBar@@PAV1@@@QBEPAVSECBar@@H@Z)
                        19. 00 0000 0019 0000:??A?$CArray@PAVSECMsgFilter@@PAV1@@@QAEAAPAVSECMsgFilter@@H@Z (REF 000F: ?ElementAt@?$CArray@PAVSECMsgFilter@@PAV1@@@QAEAAPAVSECMsgFilter@@H@Z)
                        20. 00 0000 0019 0000:??A?$CArray@PAUDescriptor@SECMsgFilter@@PAU12@@@QBEPAUDescriptor@SECMsgFilter@@H@Z (REF 000F: ?GetAt@?$CArray@PAUDescriptor@SECMsgFilter@@PAU12@@@QBEPAUDescriptor@SECMsgFilter@@H@Z)
                        21. 00 0000 0019 0000:??A?$CArray@USEC_ToolEntry@@AAU1@@@QAEAAUSEC_ToolEntry@@H@Z (REF 000F: ?ElementAt@?$CArray@USEC_ToolEntry@@AAU1@@@QAEAAUSEC_ToolEntry@@H@Z)
                        22. 00 0000 0019 0000:??A?$CArray@VCString@@AAV1@@@QAEAAVCString@@H@Z (REF 000F: ?ElementAt@?$CArray@VCString@@AAV1@@@QAEAAVCString@@H@Z)
                        23. 00 0000 0019 0000:??A?$CArray@PAVSECACtrlItem@@PAV1@@@QAEAAPAVSECACtrlItem@@H@Z (REF 000F: ?ElementAt@?$CArray@PAVSECACtrlItem@@PAV1@@@QAEAAPAVSECACtrlItem@@H@Z)
                        24. 00 0000 0019 0000:??A?$CArray@UListData@SECAPropList@@AAU12@@@QAEAAUListData@SECAPropList@@H@Z (REF 000F: ?ElementAt@?$CArray@UListData@SECAPropList@@AAU12@@@QAEAAUListData@SECAPropList@@H@Z)
                        25. 00 0000 0019 0000:??A?$CArray@VSECABrowseProp@@AAV1@@@QAEAAVSECABrowseProp@@H@Z (REF 000F: ?ElementAt@?$CArray@VSECABrowseProp@@AAV1@@@QAEAAVSECABrowseProp@@H@Z)
                        26. 00 0000 0019 0000:??A?$CArray@VSECABrowsedEvent@@AAV1@@@QAEAAVSECABrowsedEvent@@H@Z (REF 000F: ?ElementAt@?$CArray@VSECABrowsedEvent@@AAV1@@@QAEAAVSECABrowsedEvent@@H@Z)
                        27. 00 0000 0019 (!)0000:? (REF 000F: ?AddTail@CPtrList@@QAEPAU__POSITION@@PAX@Z)
                E8........8B45FC8BE55DC20400:
                  0. 00 0000 0019 0000:??0AFX_CLASSINIT@@QAE@PAUCRuntimeClass@@@Z
              83:
                380074178B4D088B11528B4DFCE8........8B4508:
                  0. 1C E236 2A5A 0000:?setShortArray@SECTiff@@QAEXPAPAGPAGJ@Z 0069:?setLongArray@SECTiff@@QAEXPAPAKPAKJ@Z 00D3:?setFloatArray@SECTiff@@QAEXPAPAMPAMJ@Z 013D:?setJPEGQTable@SECTiff@@QAEXPAPAPAEPAPAEJ@Z 01FC:?setJPEGCTable@SECTiff@@QAEXPAPAPAEPAPAEJ@Z 0335:?setExtraSamples@SECTiff@@QAEJPAUTIFFDirectory@@PADPAG@Z 0405:?TIFFSetField1@SECTiff@@QAEJPAUtiff@@IPAD@Z (l)1182:$badvalue$142386 (l)11BD:$badvalue32$142483 (l)13ED:?setString@@YAXPAPADPAD@Z 1462:?OkToChangeTag@SECTiff@@QAEJPAUtiff@@I@Z 14B5:?TIFFSetField@SECTiff@@QAAJPAUtiff@@IZZ 153D:?TIFFVSetField@SECTiff@@QAEJPAUtiff@@IPAD@Z 15BD:?TIFFGetField1@SECTiff@@QAEXPAUTIFFDirectory@@IPAD@Z 21BE:?TIFFGetField@SECTiff@@QAAJPAUtiff@@IZZ 2273:?TIFFVGetField@SECTiff@@QAEJPAUtiff@@IPAD@Z 2320:?_TIFFgetfield@SECTiff@@QAAXPAUTIFFDirectory@@IZZ 2349:?TIFFFreeDirectory@SECTiff@@QAEXPAUtiff@@@Z 27C6:?TIFFDefaultDirectory@SECTiff@@QAEJPAUtiff@@@Z 28C8:?TIFFSetDirectory@SECTiff@@QAEJPAUtiff@@F@Z 2A3F:?TIFFLastDirectory@SECTiff@@QAEJPAUtiff@@@Z (13F0: 6A)
                  1. 1C E236 2A5B 0000:?setShortArray@SECTiff@@QAEXPAPAGPAGJ@Z 0069:?setLongArray@SECTiff@@QAEXPAPAKPAKJ@Z 00D3:?setFloatArray@SECTiff@@QAEXPAPAMPAMJ@Z 013D:?setJPEGQTable@SECTiff@@QAEXPAPAPAEPAPAEJ@Z 01FC:?setJPEGCTable@SECTiff@@QAEXPAPAPAEPAPAEJ@Z 0335:?setExtraSamples@SECTiff@@QAEJPAUTIFFDirectory@@PADPAG@Z 0405:?TIFFSetField1@SECTiff@@QAEJPAUtiff@@IPAD@Z (l)1182:$badvalue$142158 (l)11BD:$badvalue32$142255 (l)13ED:?setString@@YAXPAPAGPAG@Z 1463:?OkToChangeTag@SECTiff@@QAEJPAUtiff@@I@Z 14B6:?TIFFSetField@SECTiff@@QAAJPAUtiff@@IZZ 153E:?TIFFVSetField@SECTiff@@QAEJPAUtiff@@IPAD@Z 15BE:?TIFFGetField1@SECTiff@@QAEXPAUTIFFDirectory@@IPAD@Z 21BF:?TIFFGetField@SECTiff@@QAAJPAUtiff@@IZZ 2274:?TIFFVGetField@SECTiff@@QAEJPAUtiff@@IPAD@Z 2321:?_TIFFgetfield@SECTiff@@QAAXPAUTIFFDirectory@@IZZ 234A:?TIFFFreeDirectory@SECTiff@@QAEXPAUtiff@@@Z 27C7:?TIFFDefaultDirectory@SECTiff@@QAEJPAUtiff@@@Z 28C9:?TIFFSetDirectory@SECTiff@@QAEJPAUtiff@@F@Z 2A40:?TIFFLastDirectory@SECTiff@@QAEJPAUtiff@@@Z (13F0: 50)
                  2. 1C E236 2A5B 0000:?setShortArray@SECTiff@@QAEXPAPAGPAGJ@Z 0069:?setLongArray@SECTiff@@QAEXPAPAKPAKJ@Z 00D3:?setFloatArray@SECTiff@@QAEXPAPAMPAMJ@Z 013D:?setJPEGQTable@SECTiff@@QAEXPAPAPAEPAPAEJ@Z 01FC:?setJPEGCTable@SECTiff@@QAEXPAPAPAEPAPAEJ@Z 0335:?setExtraSamples@SECTiff@@QAEJPAUTIFFDirectory@@PADPAG@Z 0405:?TIFFSetField1@SECTiff@@QAEJPAUtiff@@IPAD@Z (l)1182:$badvalue$143145 (l)11BD:$badvalue32$143242 (l)13ED:?setString@@YAXPAPADPAD@Z 1463:?OkToChangeTag@SECTiff@@QAEJPAUtiff@@I@Z 14B6:?TIFFSetField@SECTiff@@QAAJPAUtiff@@IZZ 153E:?TIFFVSetField@SECTiff@@QAEJPAUtiff@@IPAD@Z 15BE:?TIFFGetField1@SECTiff@@QAEXPAUTIFFDirectory@@IPAD@Z 21BF:?TIFFGetField@SECTiff@@QAAJPAUtiff@@IZZ 2274:?TIFFVGetField@SECTiff@@QAEJPAUtiff@@IPAD@Z 2321:?_TIFFgetfield@SECTiff@@QAAXPAUTIFFDirectory@@IZZ 234A:?TIFFFreeDirectory@SECTiff@@QAEXPAUtiff@@@Z 27C7:?TIFFDefaultDirectory@SECTiff@@QAEJPAUtiff@@@Z 28C9:?TIFFSetDirectory@SECTiff@@QAEJPAUtiff@@F@Z 2A40:?TIFFLastDirectory@SECTiff@@QAEJPAUtiff@@@Z (13F0: 52)
                  3. 1C E236 2A5D 0000:?setShortArray@SECTiff@@QAEXPAPAGPAGJ@Z 0069:?setLongArray@SECTiff@@QAEXPAPAKPAKJ@Z 00D3:?setFloatArray@SECTiff@@QAEXPAPAMPAMJ@Z 013D:?setJPEGQTable@SECTiff@@QAEXPAPAPAEPAPAEJ@Z 01FC:?setJPEGCTable@SECTiff@@QAEXPAPAPAEPAPAEJ@Z 0335:?setExtraSamples@SECTiff@@QAEJPAUTIFFDirectory@@PADPAG@Z 0405:?TIFFSetField1@SECTiff@@QAEJPAUtiff@@IPAD@Z (l)1182:$badvalue$142917 (l)11BD:$badvalue32$143014 (l)13ED:?setString@@YAXPAPAGPAG@Z 1465:?OkToChangeTag@SECTiff@@QAEJPAUtiff@@I@Z 14B8:?TIFFSetField@SECTiff@@QAAJPAUtiff@@IZZ 1540:?TIFFVSetField@SECTiff@@QAEJPAUtiff@@IPAD@Z 15C0:?TIFFGetField1@SECTiff@@QAEXPAUTIFFDirectory@@IPAD@Z 21C1:?TIFFGetField@SECTiff@@QAAJPAUtiff@@IZZ 2276:?TIFFVGetField@SECTiff@@QAEJPAUtiff@@IPAD@Z 2323:?_TIFFgetfield@SECTiff@@QAAXPAUTIFFDirectory@@IZZ 234C:?TIFFFreeDirectory@SECTiff@@QAEXPAUtiff@@@Z 27C9:?TIFFDefaultDirectory@SECTiff@@QAEJPAUtiff@@@Z 28CB:?TIFFSetDirectory@SECTiff@@QAEJPAUtiff@@F@Z 2A42:?TIFFLastDirectory@SECTiff@@QAEJPAUtiff@@@Z (13F0: 45)
                78:
                  080074:
                    0C8B4D08518B4DFCE8........8B550883:
                      0. 32 384F 00E5 0000:?TIFFClose@SECTiff@@QAEXPAUtiff@@@Z (0092: 00)
                      1. 32 384F 00E6 0000:?TIFFClose@SECTiff@@QAEXPAUtiff@@@Z (0092: 04)
                    368B4D08518B4DFCE8........85C07504:
                      0. 1A 9397 00D3 0000:?TIFFFlush@SECTiff@@QAEJPAUtiff@@@Z 0051:?TIFFFlushData@SECTiff@@QAEJPAUtiff@@@Z
                  2C00740B8B4D108B55088B423089018B4D088339:
                    0. 39 711A 1AF7 0000:?inflate_blocks_reset@SECComp@@QAEXPAUinflate_blocks_state@@PAUz_stream_s@@PAK@Z 00ED:?inflate_blocks_new@SECComp@@QAEPAUinflate_blocks_state@@PAUz_stream_s@@P81@AEKKPAEG@ZG@Z 01B4:?inflate_blocks@SECComp@@QAEHPAUinflate_blocks_state@@PAUz_stream_s@@H@Z 1A97:?inflate_blocks_free@SECComp@@QAEHPAUinflate_blocks_state@@PAUz_stream_s@@PAK@Z (1A9D: 00)
                    1. 39 711A 1B3F 0000:?inflate_blocks_reset@SECComp@@QAEXPAUinflate_blocks_state@@PAUz_stream_s@@PAK@Z 00F3:?inflate_blocks_new@SECComp@@QAEPAUinflate_blocks_state@@PAUz_stream_s@@P81@AEKKPAEG@ZG@Z 01C0:?inflate_blocks@SECComp@@QAEHPAUinflate_blocks_state@@PAUz_stream_s@@H@Z 1AD9:?inflate_blocks_free@SECComp@@QAEHPAUinflate_blocks_state@@PAUz_stream_s@@PAK@Z (1A9D: 08)
                E00285C0743868........8B4DFC8B51FC526A0C8B:
                  0. 04 1815 0070 0000:??_ESECCryptoRotor@@QAEPAXI@Z
              8B:
                088B50048B45FC89481889501C8BE55DC20400:
                  0. 00 0000 001E 0000:?SetFormSize@SECAContainerProps@@QAEXABVCSize@@@Z
                4804:
                  518B4DFCE8........8BE55DC20400:
                    0. 00 0000 001C 0000:??4?$CCIterPos_T@PAVSECLayoutNode@@@@QAEAAV0@ABV0@@Z
                  8B55FC038A:
                    040100008B45088948048B4D088B:
                      0. 73 C798 0093 0000:?AdjustNewRectWithPendingDeltas@?$SECLNBorder_T@VSECLayoutNode@@@@MAEXAAVCRect@@@Z
                    080100008B45088948048B4D088B:
                      0. 73 CECD 0093 0000:?AdjustNewRectWithPendingDeltas@?$SECLNBorder_T@VSECLayoutNodeDCBase@@@@MAEXAAVCRect@@@Z
                4DFC:
                  81C1:
                    040200008B1089118B50048951048B5008:
                      0. 0F 32EB 002F 0000:?SetVirtualBoundingRect@SECLNVirtualSplitter@@QAEXABVCRect@@@Z
                    080200008B1089118B50048951048B5008:
                      0. 0F 32EB 002F 0000:?SetVirtualBoundingRect@SECLNVirtualSplitter@@QAEXABVCRect@@@Z
                    8C0000008B1089118B50048951048B5008:
                      0. 0F 32EB 002F 0000:?SetOldRect@SECLayoutNode@@UAEXABVCRect@@@Z
                    9C0000008B1089118B50048951048B5008:
                      0. 0F 32EB 002F 0000:?SetInvalidateRect@SECLayoutNode@@UAEXABVCRect@@@Z
                    A80000008B1089118B50048951048B5008:
                      0. 0F 32EB 002F 0000:?SetDraggedRect@SECACtrlItem@@QAEXABVCRect@@@Z
                    AC0000008B1089118B50048951048B5008:
                      0. 0F 32EB 002F 0000:?SetDraggedRect@SECACtrlItem@@QAEXABVCRect@@@Z
                  83C1:
                    5C8B1089118B50048951048B5008895108:
                      0. 0C 7657 002C 0000:?ResetInitialRect@SECLayoutNode@@UAEXABVCRect@@@Z
                    6C8B1089118B50048951048B5008895108:
                      0. 0C 7657 002C 0000:?SetCurrentRect@SECLayoutNode@@UAEXABVCRect@@@Z
                    7C8B1089118B50048951048B5008895108:
                      0. 0C 7657 002C 0000:?SetPreferredRect@SECLayoutNode@@UAEXABVCRect@@@Z
                  8B:
                    514889108B450C8B4DFC8B514C89108BE55D:
                      0. 03 2EB7 0023 0000:?GetNonClientOffset@SECLayoutNode@@QAEXAAH0@Z
                    8481:
                      080300008BE55DC20400:
                        0. 00 0000 001A 0000:?GetItemDefColor@SECAColorEditor@@MBEKH@Z
                      0C0300008BE55DC20400:
                        0. 00 0000 001A 0000:?GetItemDefColor@SECAColorEditor@@MBEKH@Z
                      200500008BE55DC20400:
                        0. 00 0000 001A 0000:?GetItemBkgrnd@SECAColorEditor@@MBEKH@Z
                      240500008BE55DC20400:
                        0. 00 0000 001A 0000:?GetItemBkgrnd@SECAColorEditor@@MBEKH@Z
                      340300008BE55DC20400:
                        0. 00 0000 001A 0000:?GetItemDefBkgrnd@SECAColorEditor@@MBEKH@Z
                      380300008BE55DC20400:
                        0. 00 0000 001A 0000:?GetItemDefBkgrnd@SECAColorEditor@@MBEKH@Z
                      4C0500008BE55DC20400:
                        0. 00 0000 001A 0000:?GetItemDefColor@SECAColorEditor@@MBEKH@Z
                      500500008BE55DC20400:
                        0. 00 0000 001A 0000:?GetItemDefColor@SECAColorEditor@@MBEKH@Z
                      780500008BE55DC20400:
                        0. 00 0000 001A 0000:?GetItemDefBkgrnd@SECAColorEditor@@MBEKH@Z
                      7C0500008BE55DC20400:
                        0. 00 0000 001A 0000:?GetItemDefBkgrnd@SECAColorEditor@@MBEKH@Z
                      B00200008BE55DC20400:
                        0. 00 0000 001A 0000:?GetItemColor@SECAColorEditor@@MBEKH@Z
                      B40200008BE55DC20400:
                        0. 00 0000 001A 0000:?GetItemColor@SECAColorEditor@@MBEKH@Z
                      DC0200008BE55DC20400:
                        0. 00 0000 001A 0000:?GetItemBkgrnd@SECAColorEditor@@MBEKH@Z
                      E00200008BE55DC20400:
                        0. 00 0000 001A 0000:?GetItemBkgrnd@SECAColorEditor@@MBEKH@Z
                      F40400008BE55DC20400:
                        0. 00 0000 001A 0000:?GetItemColor@SECAColorEditor@@MBEKH@Z
                      F80400008BE55DC20400:
                        0. 00 0000 001A 0000:?GetItemColor@SECAColorEditor@@MBEKH@Z
                    91B000000089108B450C8B4DFC8B91B80000:
                      0. 25 912F 0045 0000:?GetBorderMargins@?$SECLNBorder_T@VSECLayoutNode@@@@QAEXAAI000@Z
              A3........8BE55DC20400:
                0. 00 0000 0015 0000:?LockToolBar@SECCustomToolBar@@QAEXH@Z
              C6400C018B4D08C7811C010000........817D0C4D4D:
                0. 0D 463F 0674 0000:?TIFFInitOrder@SECTiff@@QAEXPAUtiff@@JJ@Z 0074:?_TIFFgetMode@SECTiff@@QAEIPBG0@Z 00EC:?TIFFClientOpen@SECTiff@@QAEPAUtiff@@PBG0HP6AJHPAXJ@Z2P6AJHJF@ZP6AHH@ZP6AJH@ZP6AJHPAPAXPAJ@ZP6AXH1J@Z@Z (l)0513:$bad$142002 (l)052D:$bad2$141982 0553:?TIFFScanlineSize@SECTiff@@QAEJPAUtiff@@@Z 05A7:?TIFFFileName@SECTiff@@QAEPBGPAUtiff@@@Z 05B9:?TIFFFileno@SECTiff@@QAEJPAUtiff@@@Z 05CC:?TIFFGetMode@SECTiff@@QAEIPAUtiff@@@Z 05DF:?TIFFIsTiled@SECTiff@@QAEJPAUtiff@@@Z 05FE:?TIFFCurrentRow@SECTiff@@QAEKPAUtiff@@@Z 0614:?TIFFCurrentDirectory@SECTiff@@QAEFPAUtiff@@@Z 062B:?TIFFCurrentStrip@SECTiff@@QAEJPAUtiff@@@Z 0641:?TIFFCurrentTile@SECTiff@@QAEKPAUtiff@@@Z 0657:?TIFFIsByteSwapped@SECTiff@@QAEJPAUtiff@@@Z (0640: D8)
                1. 0D 463F 0677 0000:?TIFFInitOrder@SECTiff@@QAEXPAUtiff@@JJ@Z 0074:?_TIFFgetMode@SECTiff@@QAEIPBG0@Z 00EC:?TIFFClientOpen@SECTiff@@QAEPAUtiff@@PBG0HP6AJHPAXJ@Z2P6AJHJF@ZP6AHH@ZP6AJH@ZP6AJHPAPAXPAJ@ZP6AXH1J@Z@Z (l)0516:$bad$142761 (l)0530:$bad2$142741 0556:?TIFFScanlineSize@SECTiff@@QAEJPAUtiff@@@Z 05AA:?TIFFFileName@SECTiff@@QAEPBGPAUtiff@@@Z 05BC:?TIFFFileno@SECTiff@@QAEJPAUtiff@@@Z 05CF:?TIFFGetMode@SECTiff@@QAEIPAUtiff@@@Z 05E2:?TIFFIsTiled@SECTiff@@QAEJPAUtiff@@@Z 0601:?TIFFCurrentRow@SECTiff@@QAEKPAUtiff@@@Z 0617:?TIFFCurrentDirectory@SECTiff@@QAEFPAUtiff@@@Z 062E:?TIFFCurrentStrip@SECTiff@@QAEJPAUtiff@@@Z 0644:?TIFFCurrentTile@SECTiff@@QAEKPAUtiff@@@Z 065A:?TIFFIsByteSwapped@SECTiff@@QAEJPAUtiff@@@Z (0640: 1B)
                2. 0D 463F 066E 0000:?TIFFInitOrder@SECTiff@@QAEXPAUtiff@@JJ@Z 0074:?_TIFFgetMode@SECTiff@@QAEIPBD0@Z 00E7:?TIFFClientOpen@SECTiff@@QAEPAUtiff@@PBD0HP6AJHPAXJ@Z2P6AJHJF@ZP6AHH@ZP6AJH@ZP6AJHPAPAXPAJ@ZP6AXH1J@Z@Z (l)050D:$bad$142230 (l)0527:$bad2$142210 054D:?TIFFScanlineSize@SECTiff@@QAEJPAUtiff@@@Z 05A1:?TIFFFileName@SECTiff@@QAEPBDPAUtiff@@@Z 05B3:?TIFFFileno@SECTiff@@QAEJPAUtiff@@@Z 05C6:?TIFFGetMode@SECTiff@@QAEIPAUtiff@@@Z 05D9:?TIFFIsTiled@SECTiff@@QAEJPAUtiff@@@Z 05F8:?TIFFCurrentRow@SECTiff@@QAEKPAUtiff@@@Z 060E:?TIFFCurrentDirectory@SECTiff@@QAEFPAUtiff@@@Z 0625:?TIFFCurrentStrip@SECTiff@@QAEJPAUtiff@@@Z 063B:?TIFFCurrentTile@SECTiff@@QAEKPAUtiff@@@Z 0651:?TIFFIsByteSwapped@SECTiff@@QAEJPAUtiff@@@Z (0640: 00)
                3. 0D 463F 066F 0000:?TIFFInitOrder@SECTiff@@QAEXPAUtiff@@JJ@Z 0074:?_TIFFgetMode@SECTiff@@QAEIPBD0@Z 00E7:?TIFFClientOpen@SECTiff@@QAEPAUtiff@@PBD0HP6AJHPAXJ@Z2P6AJHJF@ZP6AHH@ZP6AJH@ZP6AJHPAPAXPAJ@ZP6AXH1J@Z@Z (l)050E:$bad$142989 (l)0528:$bad2$142969 054E:?TIFFScanlineSize@SECTiff@@QAEJPAUtiff@@@Z 05A2:?TIFFFileName@SECTiff@@QAEPBDPAUtiff@@@Z 05B4:?TIFFFileno@SECTiff@@QAEJPAUtiff@@@Z 05C7:?TIFFGetMode@SECTiff@@QAEIPAUtiff@@@Z 05DA:?TIFFIsTiled@SECTiff@@QAEJPAUtiff@@@Z 05F9:?TIFFCurrentRow@SECTiff@@QAEKPAUtiff@@@Z 060F:?TIFFCurrentDirectory@SECTiff@@QAEFPAUtiff@@@Z 0626:?TIFFCurrentStrip@SECTiff@@QAEJPAUtiff@@@Z 063C:?TIFFCurrentTile@SECTiff@@QAEKPAUtiff@@@Z 0652:?TIFFIsByteSwapped@SECTiff@@QAEJPAUtiff@@@Z (0640: 04)
            0C50:
              6A:
                008B4D:
                  08518B55FC8B028B4DFCFF90:
                    100100008B:
                      0. 05 BEED 0025 0000:?SetFontUnselectedTab@SECTabControl@@QAEHPAVCFont@@H@Z
                    1C0100008B:
                      0. 05 BEED 0025 0000:?SetFontInactiveTab@SEC3DTabControl@@QAEHPAVCFont@@H@Z
                  FC8B118B4DFCFF92C40000008B450C508B:
                    0. 07 DB90 04F3 0000:?RealizeNodeHelper@SECLayoutNodeDCBase@@UAEHPAPAXPAUHDC__@@@Z 0031:?EraseNodeBkgnd@SECLayoutNodeDCBase@@UAEXHPAUHDC__@@@Z 004E:?PaintNode@SECLayoutNodeDCBase@@UAEXHPAUHDC__@@@Z 01B9:?CalcInvalidateRects@SECLayoutNodeDCBase@@SAHABVCRect@@0AAV2@111@Z 03EE:?OnDrawNode@SECLayoutNodeDCBase@@MAEXPAUHDC__@@ABVCRect@@@Z 03FB:?OnInvalidateRect@SECLayoutNodeDCBase@@MAEXABVCRect@@H@Z 0451:?PaintNode@SECLayoutNodeDC@@MAEXHPAUHDC__@@@Z 047A:?OnShowNode@SECLayoutNodeDC@@MAEHH@Z
                018B4D08518B55FC8B028B4DFCFF90:
                  100100008B:
                    0. 05 BEED 0025 0000:?SetFontSelectedTab@SECTabControl@@QAEHPAVCFont@@H@Z
                  1C0100008B:
                    0. 05 BEED 0025 0000:?SetFontActiveTab@SEC3DTabControl@@QAEHPAVCFont@@H@Z
                028B4D08518B55FC8B028B4DFCFF90100100008B:
                  0. 05 BEED 0025 0000:?SetFontActiveTab@SECTabControl@@QAEHPAVCFont@@H@Z
              8B4D08518B:
                4DFC:
                  81C180000000:
                    8B55FC8B82800000:
                      0. 0A 145A 002A 0000:?OnTrackMouseMove@?$SECLocalDragDropTask_T@VSECLayoutWndListener@@@@MAEHIABVCPoint@@@Z
                      1. 0A 3131 002A 0000:?OnDragDropToggleEvent@?$SECLocalDragDropTask_T@VSECLayoutWndListener@@@@MAEHIABVCPoint@@@Z
                    E8........8BE55D:
                      0. 03 2EB7 0023 0000:?TestDragStartPoint@?$SECLocalDragDropTask_T@VSECLayoutWndListener@@@@MAEHIABVCPoint@@@Z
                  E8........8BE55DC20800:
                    0. 00 0000 001D 0000:?SetAt@?$CTypedPtrMap@VCMapPtrToPtr@@PAVSECLayoutNode@@PAVCRect@@@@QAEXPAVSECLayoutNode@@PAVCRect@@@Z (REF 0013: ?SetAt@CMapPtrToPtr@@QAEXPAX0@Z)
                    1. 00 0000 001D (!)0000:? (REF 0013: ?Lookup@CMapPtrToPtr@@QBEHPAXAAPAX@Z)
                55FC8B028B4DFCFF900C01000085C074:
                  0. 3F 8D9F 005F 0000:?HandleLButtonDown@?$SECStartDragCore_T@VSECLayoutWndListener@@@@MAEHIABVCPoint@@@Z
                  1. 21 E474 0041 0000:?HandleLButonDblClk@?$SECStartDragCore_T@VSECLayoutWndListener@@@@MAEHIABVCPoint@@@Z
            1050:
              68:
                1B5000008B4DFCE8........8B4DFC8B55088951:
                  0. 0F 2818 05CF 0000:??0SECShortcutDlg@@QAE@AAVSECCommandList@@AAVSECShortcutTable@@PAVCWnd@@@Z 0046:?DoDataExchange@SECShortcutDlg@@MAEXPAVCDataExchange@@@Z 005F:?GetMessageMap@SECShortcutDlg@@MBEPBUAFX_MSGMAP@@XZ 006F:?OnInitDialog@SECShortcutDlg@@MAEHXZ 017D:?OnSelchangeShortcutNameList@SECShortcutDlg@@IAEXXZ 0265:?UpdateKeys@SECShortcutDlg@@QAEXXZ 03C7:?OnShortcutRemove@SECShortcutDlg@@IAEXXZ 0437:?OnShortcutCreate@SECShortcutDlg@@IAEXXZ 058A:?OnShortcutReset@SECShortcutDlg@@IAEXXZ
                  1. 0F 729E 05DC 0000:??0SECShortcutDlg@@QAE@AAVSECCommandList@@AAVSECShortcutTable@@PAVCWnd@@@Z 0046:?DoDataExchange@SECShortcutDlg@@MAEXPAVCDataExchange@@@Z 005F:?_GetBaseMessageMap@SECShortcutDlg@@KGPBUAFX_MSGMAP@@XZ 0069:?GetMessageMap@SECShortcutDlg@@MBEPBUAFX_MSGMAP@@XZ 0079:?OnInitDialog@SECShortcutDlg@@MAEHXZ 0187:?OnSelchangeShortcutNameList@SECShortcutDlg@@IAEXXZ 026F:?UpdateKeys@SECShortcutDlg@@QAEXXZ 03D1:?OnShortcutRemove@SECShortcutDlg@@IAEXXZ 0441:?OnShortcutCreate@SECShortcutDlg@@IAEXXZ 0597:?OnShortcutReset@SECShortcutDlg@@IAEXXZ
                1C5000008B4DFCE8........8B4DFC8B55088951:
                  0. 0F 58EE 042A 0000:??0SECAssignKeyDlg@@QAE@AAVSECCommandList@@AAVSECShortcutTable@@PAVCWnd@@@Z 003C:?DoDataExchange@SECAssignKeyDlg@@MAEXPAVCDataExchange@@@Z 007D:?GetMessageMap@SECAssignKeyDlg@@MBEPBUAFX_MSGMAP@@XZ 008D:?OnCommand@SECAssignKeyDlg@@MAEHIJ@Z 00E6:?UpdateKeyDescription@SECAssignKeyDlg@@IAEXXZ 0345:?OnOK@SECAssignKeyDlg@@MAEXXZ 03E2:?OnInitDialog@SECAssignKeyDlg@@MAEHXZ
                  1. 0F A5B5 0434 0000:??0SECAssignKeyDlg@@QAE@AAVSECCommandList@@AAVSECShortcutTable@@PAVCWnd@@@Z 003C:?DoDataExchange@SECAssignKeyDlg@@MAEXPAVCDataExchange@@@Z 007D:?_GetBaseMessageMap@SECAssignKeyDlg@@KGPBUAFX_MSGMAP@@XZ 0087:?GetMessageMap@SECAssignKeyDlg@@MBEPBUAFX_MSGMAP@@XZ 0097:?OnCommand@SECAssignKeyDlg@@MAEHIJ@Z 00F0:?UpdateKeyDescription@SECAssignKeyDlg@@IAEXXZ 034F:?OnOK@SECAssignKeyDlg@@MAEXXZ 03EC:?OnInitDialog@SECAssignKeyDlg@@MAEHXZ
              8B4D0C518B5508:
                528B4DFCE8........8BE55DC20C:
                  0. 01 78F0 0021 0000:?GetNextAssoc@?$CTypedPtrMap@VCMapPtrToPtr@@PAVSECLayoutNode@@PAVCRect@@@@QBEXAAPAU__POSITION@@AAPAVSECLayoutNode@@AAPAVCRect@@@Z (REF 0017: ?GetNextAssoc@CMapPtrToPtr@@QBEXAAPAU__POSITION@@AAPAX1@Z)
                  1. 01 78F0 0021 0000:?InsertAt@SECBtnArray@SECCustomToolBar@@QAEXHPAVSECStdBtn@@H@Z (REF 0017: ?InsertAt@CPtrArray@@QAEXHPAXH@Z)
                81E2FFFF0000528B45FC8B108B4D:
                  0. 0A 7BB8 002A 0000:?LoadIconA@SECIcon@@UAEHIHH@Z
            14508B4D10518B550C528B4508508B4DFCE8........8B:
              0. 04 5ADE 0031 0000:??0SECAFormPropPageFactory@SECAFormPropPage@@QAE@ABU_GUID@@PAUCRuntimeClass@@HPBD@Z (REF 0024: ??_7SECAFormPropPageFactory@SECAFormPropPage@@6B@)
              1. 04 5ADE 0031 (!)0000:? (REF 0024: ??_7SECAFormObjFactory@SECAFormObj@@6B@)
            18508B4D14518B5510528B450C:
              25FFFF0000508B4D0851:
                0. 04 4256 002E 0000:?Create@SECDialogBar@@QAEHPAVCWnd@@IIKI@Z
              508B4D08518B4DFCE8:
                0. 00 0000 0029 0000:?InsertTab@SECTabWnd@@UAEPAVSECTab@@PAUCRuntimeClass@@HPBDPAUCCreateContext@@I@Z (REF 001F: ?InsertTab@SECTabWndBase@@UAEPAVSECTab@@PAUCRuntimeClass@@HPBDPAUCCreateContext@@I@Z)
                1. 00 0000 0029 0000:?InsertTab@SECTabWnd@@UAEPAVSECTab@@PAUCRuntimeClass@@HPBGPAUCCreateContext@@I@Z (REF 001F: ?InsertTab@SECTabWndBase@@UAEPAVSECTab@@PAUCRuntimeClass@@HPBGPAUCCreateContext@@I@Z)
            FC:
              05:
                000100008BE55DC3:
                  0. 00 0000 0013 0000:?GetListAllocControlBars@SECFrameWnd@@QAEPAVCPtrList@@XZ
                040100008BE55DC3:
                  0. 00 0000 0013 0000:?GetListAllocControlBars@SECFrameWnd@@QAEPAVCPtrList@@XZ
                140200008BE55DC3:
                  0. 00 0000 0013 0000:?GetSelectedItems@SECScriptHostView@@QAEAAVSECASelection@@XZ
                1C0200008BE55DC3:
                  0. 00 0000 0013 0000:?GetSelectedItems@SECScriptHostView@@QAEAAVSECASelection@@XZ
                2C:
                  0100008BE55DC3:
                    0. 00 0000 0013 0000:?GetSelectionArray@SECListBaseC@@QAEPAVCDWordArray@@XZ
                  1600008BE55DC3:
                    0. 00 0000 0013 0000:?GetTitleFont@SECCalendar@@QAEPAVCFont@@XZ
                300100008BE55DC3:
                  0. 00 0000 0013 0000:?GetSelectionArray@SECListBaseV@@QAEPAVCDWordArray@@XZ
                34:
                  0100008BE55DC3:
                    0. 00 0000 0013 0000:?GetSelectionArray@SECListBaseV@@QAEPAVCDWordArray@@XZ
                  1600008BE55DC3:
                    0. 00 0000 0013 0000:?GetDayBarFont@SECCalendar@@QAEPAVCFont@@XZ
                3C1600008BE55DC3:
                  0. 00 0000 0013 0000:?GetDateFont@SECCalendar@@QAEPAVCFont@@XZ
                401600008BE55DC3:
                  0. 00 0000 0013 0000:?GetTitleFont@SECCalendar@@QAEPAVCFont@@XZ
                481600008BE55DC3:
                  0. 00 0000 0013 0000:?GetDayBarFont@SECCalendar@@QAEPAVCFont@@XZ
                50:
                  0100008BE55DC3:
                    0. 00 0000 0013 0000:?GetListAllocControlBars@SECMDIFrameWnd@@QAEPAVCPtrList@@XZ
                  1600008BE55DC3:
                    0. 00 0000 0013 0000:?GetDateFont@SECCalendar@@QAEPAVCFont@@XZ
                540100008BE55DC3:
                  0. 00 0000 0013 0000:?GetListAllocControlBars@SECMDIFrameWnd@@QAEPAVCPtrList@@XZ
                680300008BE55DC3:
                  0. 00 0000 0013 0000:?GetCurrentFont@SECAColorEditor@@MBEPBUtagLOGFONTA@@XZ
                6C0300008BE55DC3:
                  0. 00 0000 0013 0000:?GetCurrentFont@SECAColorEditor@@MBEPBUtagLOGFONTA@@XZ
                8C:
                  0000008B:
                    4D088B1089118B50048951048B500889:
                      0. 11 A8EF 0031 0000:?GetOldRect@SECLayoutNode@@UAE?AVCRect@@XZ
                    E55DC3:
                      0. 00 0000 0013 0000:?GetContainerProperties@SECScriptHostDoc@@QAEAAVSECAContainerProps@@XZ
                  1600008BE55DC3:
                    0. 00 0000 0013 0000:?GetTitleFont@SECCalendar@@QAEPAVCFont@@XZ
                900000008BE55DC3:
                  0. 00 0000 0013 0000:?GetContainerProperties@SECScriptHostDoc@@QAEAAVSECAContainerProps@@XZ
                941600008BE55DC3:
                  0. 00 0000 0013 0000:?GetDayBarFont@SECCalendar@@QAEPAVCFont@@XZ
                9C:
                  0000008B4D088B1089118B50048951048B500889:
                    0. 11 A8EF 0031 0000:?GetInvalidateRect@SECLayoutNode@@UAE?AVCRect@@XZ
                  1600008BE55DC3:
                    0. 00 0000 0013 0000:?GetDateFont@SECCalendar@@QAEPAVCFont@@XZ
                A0:
                  000000508B4D08E8........8BE55DC20400:
                    0. 00 0000 001E 0000:?GetWindowTextA@SECMarquee@@UAEXAAVCString@@@Z
                  1600008BE55DC3:
                    0. 00 0000 0013 0000:?GetTitleFont@SECCalendar@@QAEPAVCFont@@XZ
                A4000000508B4D08E8........8BE55DC20400:
                  0. 00 0000 001E 0000:?GetWindowTextA@SECMarquee@@UAEXAAVCString@@@Z
                A8:
                  000000:
                    508B4D08E8........8BE55DC20400:
                      0. 00 0000 001E 0000:?GetVisibleText@SECMarquee@@UAEXAAVCString@@@Z
                    8BE55DC3:
                      0. 00 0000 0013 0000:?GetDraggedRect@SECACtrlItem@@QAEABVCRect@@XZ
                  1600008BE55DC3:
                    0. 00 0000 0013 0000:?GetDayBarFont@SECCalendar@@QAEPAVCFont@@XZ
                AC:
                  0000008BE55DC3:
                    0. 00 0000 0013 0000:?GetDraggedRect@SECACtrlItem@@QAEABVCRect@@XZ
                  0500008BE55DC3:
                    0. 00 0000 0013 0000:?GetCurrentFont@SECAColorEditor@@MBEPBUtagLOGFONTW@@XZ
                B0:
                  0500008BE55DC3:
                    0. 00 0000 0013 0000:?GetCurrentFont@SECAColorEditor@@MBEPBUtagLOGFONTW@@XZ
                  1600008BE55DC3:
                    0. 00 0000 0013 0000:?GetDateFont@SECCalendar@@QAEPAVCFont@@XZ
                B80000008BE55DC3:
                  0. 00 0000 0013 0000:?GetUserPickedItems@SECACustTBDlg@@QAEAAV?$CArray@VCString@@AAV1@@@XZ
                C00000008BE55DC3:
                  0. 00 0000 0013 0000:?GetUserPickedItems@SECACustTBDlg@@QAEAAV?$CArray@VCString@@AAV1@@@XZ
                FC0000008BE55DC3:
                  0. 00 0000 0013 0000:?GetScript@SECScriptHostDoc@@QAEABVCString@@XZ
              2D:
                A40000008BE55DC3:
                  0. 00 0000 0013 0000:?GetWnd@SECMenuBarFeature@@MAEPAVCWnd@@XZ
                A80000008BE55DC3:
                  0. 00 0000 0013 0000:?GetWnd@SECMenuBarFeature@@MAEPAVCWnd@@XZ
              33C9:
                668B088BC18B55FC33C9668B4A0223C18BE55DC3:
                  0. 00 0000 0020 0000:?GetFields@SECNull@SECDateTimeCtrl@@QBEGXZ
                83:
                  78:
                    04000F95C18BC18BE55DC3:
                      0. 00 0000 0019 0000:??BSECIcon@@QBEHXZ
                    10000F95C18BC18BE55DC3:
                      0. 00 0000 0019 0000:?HasChildren@SECTreeNode@@QBEHXZ
                    48000F95C18BC18BE55DC3:
                      0. 00 0000 0019 0000:?IsEventBarVisible@SECACodeView@@IAEHXZ
                    4C000F95C18BC18BE55DC3:
                      0. 00 0000 0019 0000:?IsEventBarVisible@SECACodeView@@IAEHXZ
                  B8:
                    48010000000F95C18BC18BE55DC3:
                      0. 00 0000 001C 0000:?IsStoringSubItemText@SECTreeBaseC@@UBEHXZ
                    4C010000000F95C18BC18BE55DC3:
                      0. 00 0000 001C 0000:?IsStoringSubItemText@SECTreeBaseC@@UBEHXZ
                    84010000000F95C18BC18BE55DC3:
                      0. 00 0000 001C 0000:?IsStoringSubItemText@SECTreeBaseV@@UBEHXZ
                    88010000000F95C18BC18BE55DC3:
                      0. 00 0000 001C 0000:?IsStoringSubItemText@SECTreeBaseV@@UBEHXZ
                    D0000000000F95C18BC18BE55DC3:
                      0. 00 0000 001C 0000:?IsEditing@SECListBoxEditor@@QBEHXZ
                    DC000000000F95C18BC18BE55DC3:
                      0. 00 0000 001C 0000:?IsEditing@SECListBoxEditor@@QBEHXZ
              3B450874168B4DFC8B55088B0289018B4DFC8B55088B:
                0. 0E BB12 002E 0000:??4tagSelData@SECCurrencyEdit@@QAEAAU01@ABU01@@Z
              668B:
                40:
                  148BE55DC3:
                    0. 00 0000 0012 0000:?GetThousandSeparator@Format@SECCurrencyEdit@@QBEGXZ
                  168BE55DC3:
                    0. 00 0000 0012 0000:?GetDecimalSeparator@Format@SECCurrencyEdit@@QBEGXZ
                  188BE55DC3:
                    0. 00 0000 0012 0000:?GetPaddingCharacter@Format@SECCurrencyEdit@@QBEGXZ
                  488BE55DC3:
                    0. 00 0000 0012 0000:?GetPromptChar@SECMaskEdit@@UAEGXZ
                  4C8BE55DC3:
                    0. 00 0000 0012 0000:?GetPromptChar@SECMaskEdit@@UAEGXZ
                4D08668948148B55FC668B450C668942168BE55D:
                  0. 03 2EB7 0023 0000:?SetRules@SECCommandList@@UAEXGG@Z
                80:
                  9C0000008BE55DC3:
                    0. 00 0000 0015 0000:?GetNullChar@SECDateTimeCtrl@@QBEGXZ
                  A00000008BE55DC3:
                    0. 00 0000 0015 0000:?GetNullChar@SECDateTimeCtrl@@QBEGXZ
              83:
                78:
                  4400740A6A018B4DFCE8........8B4DFCE8:
                    0. 00 0000 0026 0000:?OnDestroy@SECCaptionControlMsgFilterTimer@@QAEXXZ
                  4800:
                    740A6A018B4DFCE8........8B4DFCE8:
                      0. 00 0000 0026 0000:?OnDestroy@SECCaptionControlMsgFilterTimer@@QAEXXZ
                    75328B4DFCC74148010000008B55FC8B423C:
                      0. 28 D485 0048 0000:?OnTimer@SECCaptionControlMsgFilterTimer@@QAEXI@Z
                  4C0075328B4DFCC7414C010000008B55FC8B4240:
                    0. 28 5ABF 0048 0000:?OnTimer@SECCaptionControlMsgFilterTimer@@QAEXI@Z
                  6C00740E8B4D08516A008B4DFCE8........8BE5:
                    0. 04 057A 0024 0000:?QueueRedraw@SECCurrencyEdit@@IAEXH@Z
                  7000740E8B4D08516A008B4DFCE8........8BE5:
                    0. 04 057A 0024 0000:?QueueRedraw@SECCurrencyEdit@@IAEXH@Z
                B8:
                  9400000000750E8B4DFC8B118B4DFCFF92D40000:
                    0. 0B E96C 0033 0000:?GetMenuFont@SECBmpMenuPlugIn@@IAEPAUHFONT__@@XZ
                  9800000000750E8B4DFC8B118B4DFCFF92D40000:
                    0. 0B F941 0033 0000:?GetMenuFont@SECBmpMenuPlugIn@@IAEPAUHFONT__@@XZ
                  9C00000000750E8B4DFC8B118B4DFCFF92D80000:
                    0. 0B C936 0033 0000:?GetDefaultMenuFont@SECBmpMenuPlugIn@@IAEPAUHFONT__@@XZ
                  A000000000750E8B4DFC8B118B4DFCFF92D80000:
                    0. 0B D91B 0033 0000:?GetDefaultMenuFont@SECBmpMenuPlugIn@@IAEPAUHFONT__@@XZ
                C0:
                  048BE55DC3:
                    0. 00 0000 0011 0000:?data@CPlex@@QAEPAXXZ
                  088BE55DC3:
                    0. 00 0000 0011 0000:?GetInitialTitle@SECAContainerProps@@QAEABVCString@@XZ
                  108BE55DC3:
                    0. 00 0000 0011 0000:?GetNameInScript@SECAContainerProps@@QAEABVCString@@XZ
                  188BE55DC3:
                    0. 00 0000 0011 0000:?GetFormSize@SECAContainerProps@@QAEABVCSize@@XZ
                  208BE55DC3:
                    0. 00 0000 0011 0000:?GetWindowPlacement@SECAContainerProps@@QAEABUtagWINDOWPLACEMENT@@XZ
                  2C8BE55DC3:
                    0. 00 0000 0011 0000:?GetChildList@SECPersistentTreeNode@@QAEPAV?$CTypedPtrList@VCPtrList@@PAVSECPersistentTreeNode@@@@XZ
                  448BE55DC3:
                    0. 00 0000 0011 0000:?GetRawData@SECMaskEdit@@UAEAAVCString@@XZ
                  488BE55DC3:
                    0. 00 0000 0011 0000:?GetRawData@SECMaskEdit@@UAEAAVCString@@XZ
                  588BE55DC3:
                    0. 00 0000 0011 0000:?GetFontUnselectedTab@SECTabControl@@QAEPAVCFont@@XZ
                  5C8B:
                    4D088B1089118B50048951048B5008895108:
                      0. 0C 7657 002C 0000:?GetInitialRect@SECLayoutNode@@UAEXAAVCRect@@@Z
                    E55DC3:
                      0. 00 0000 0011 0000:?GetFontUnselectedTab@SECTabControl@@QAEPAVCFont@@XZ
                  60:
                    508B4D08E8........8BE55DC20400:
                      0. 00 0000 001C 0000:?GetWindowTextA@SECProgressCtrl@@UAEXAAVCString@@@Z
                    8BE55DC3:
                      0. 00 0000 0011 0000:?GetFontSelectedTab@SECTabControl@@QAEPAVCFont@@XZ
                  64:
                    508B4D08E8........8BE55DC20400:
                      0. 00 0000 001C 0000:?GetWindowTextA@SECProgressCtrl@@UAEXAAVCString@@@Z
                    8BE55DC3:
                      0. 00 0000 0011 0000:?GetFontSelectedTab@SECTabControl@@QAEPAVCFont@@XZ
                  688BE55DC3:
                    0. 00 0000 0011 0000:?GetFontActiveTab@SECTabControl@@QAEPAVCFont@@XZ
                  6C8B:
                    4D088B1089118B50048951048B5008895108:
                      0. 0F 9770 002F 0000:?GetCurrentRect@SECLayoutNode@@UAE?AVCRect@@XZ
                    E55DC3:
                      0. 00 0000 0011 0000:?GetFontActiveTab@SECTabControl@@QAEPAVCFont@@XZ
                  7C8B:
                    4D088B1089118B50048951048B5008895108:
                      0. 0C 7657 002C 0000:?GetPreferredRect@SECLayoutNode@@UAEXAAVCRect@@@Z
                    E55DC3:
                      0. 00 0000 0011 0000:?GetDrawData@SECToolBarManager@@QAEAAUSECBtnDrawData@@XZ
              8A:
                40:
                  148BE55DC3:
                    0. 00 0000 0011 0000:?GetThousandSeparator@Format@SECCurrencyEdit@@QBEDXZ
                  158BE55DC3:
                    0. 00 0000 0011 0000:?GetDecimalSeparator@Format@SECCurrencyEdit@@QBEDXZ
                  168BE55DC3:
                    0. 00 0000 0011 0000:?GetPaddingCharacter@Format@SECCurrencyEdit@@QBEDXZ
                  488BE55DC3:
                    0. 00 0000 0011 0000:?GetPromptChar@SECMaskEdit@@UAEDXZ
                  4C8BE55DC3:
                    0. 00 0000 0011 0000:?GetPromptChar@SECMaskEdit@@UAEDXZ
                80:
                  9C0000008BE55DC3:
                    0. 00 0000 0014 0000:?GetNullChar@SECDateTimeCtrl@@QBEDXZ
                  A00000008BE55DC3:
                    0. 00 0000 0014 0000:?GetNullChar@SECDateTimeCtrl@@QBEDXZ
              8B:
                008BE55DC3:
                  0. 00 0000 0010 0000:?GetHead@CSimpleList@@QBEPAXXZ
                08:
                  51E8........8BE55DC3:
                    0. 00 0000 0016 0000:??BScxInfo@nsSysCommandEx@@QBEPAVCWnd@@XZ
                  83:
                    C1018B55FC890A8BE55DC3:
                      0. 00 0000 0018 0000:?NextImp@IArrayInterface@SECArrayIteratorTypes@@IAEXXZ
                    E9018B55FC890A8BE55DC3:
                      0. 00 0000 0018 0000:?PrevImp@IArrayInterface@SECArrayIteratorTypes@@IAEXXZ
                108B4DFCFF:
                  52:
                    088B45FC8B108B4DFCFF52208BE55D:
                      0. 01 EF04 0021 0000:?GetFirst@?$Iterator_T@PAVSECLayoutNode@@@@QAEPAVSECLayoutNode@@XZ
                    0C8B45FC8B108B4DFCFF52208BE55D:
                      0. 01 EF04 0021 0000:?GetNext@?$Iterator_T@PAVSECLayoutNode@@@@UAEPAVSECLayoutNode@@XZ
                    148B45FC8B108B4DFCFF52208BE55D:
                      0. 01 EF04 0021 0000:?GetPrev@?$Iterator_T@PAVSECLayoutNode@@@@UAEPAVSECLayoutNode@@XZ
                    1C8B45FC8B108B4DFCFF52208BE55D:
                      0. 01 EF04 0021 0000:?GetLast@?$Iterator_T@PAVSECLayoutNode@@@@UAEPAVSECLayoutNode@@XZ
                    308BE55DC3:
                      0. 00 0000 0016 0000:?GetParentNode@SECLayoutNode@@UAEPAV1@XZ
                    388BE55DC20400:
                      0. 00 0000 0018 0000:?GetDeferWindowCount@SECLayoutNodeWnd@@UAEHH@Z
                  92:
                    080100008BE55DC3:
                      0. 00 0000 0019 0000:?OnClicked@SECCurrencyEdit@@MAEXXZ
                    0C0100008BE55DC3:
                      0. 00 0000 0019 0000:?OnBarBeginDock@SECControlBar@@UAEXXZ
                    180100008BE55DC3:
                      0. 00 0000 0019 0000:?OnBarBeginFloat@SECControlBar@@UAEXXZ
                    240100008BE55DC3:
                      0. 00 0000 0019 0000:?OnBarBeginMDIFloat@SECControlBar@@UAEXXZ
                    4C0100008BE55DC3:
                      0. 00 0000 0019 0000:?GetForm@SECScriptHostDoc@@QAEPAVSECAFormObj@@XZ
                40:
                  048BE55DC3:
                    0. 00 0000 0011 0000:?GetHeadPosition@?$CList@PAVSECBmpMenuItemInfo@@PAV1@@@QBEPAU__POSITION@@XZ
                  08:
                    83E8018BE55DC3:
                      0. 00 0000 0014 0000:?GetUpperBound@?$CArray@MM@@QBEHXZ
                    8BE55DC3:
                      0. 00 0000 0011 0000:?GetSize@?$CArray@UtagACCEL@@AAU1@@@QBEHXZ
                  0C:
                    25000008008BE55DC3:
                      0. 00 0000 0016 0000:?IsHidden@SECStdBtn@@QBEHXZ
                    8BE55DC3:
                      0. 00 0000 0011 0000:?GetAutoRegister@?$SECDockingListener_T@V?$SECOleDragDropTask_T@VSECLayoutWndListener@@@@@@UAEHXZ
                    F7D81BC08BE55DC3:
                      0. 00 0000 0015 0000:?GetStartPosition@?$CMap@IIKK@@QBEPAU__POSITION@@XZ
                  108BE55DC3:
                    0. 00 0000 0011 0000:?GetFirstChild@SECTreeNode@@UBEPAV1@XZ
                  148BE55DC3:
                    0. 00 0000 0011 0000:?GetColor@SECAContainerProps@@QAEKXZ
                  188BE55DC3:
                    0. 00 0000 0011 0000:?GetShowFlag@SECUserTool@@QBEIXZ
                  2083E020F7D81BC0F7D88BE55DC3:
                    0. 00 0000 001A 0000:?IsExpanded@_Node@@UBEHXZ
                  248BE55DC3:
                    0. 00 0000 0011 0000:?GetItemData@SECListItem@@QBEKXZ
                  288BE55DC3:
                    0. 00 0000 0011 0000:?GetDecimalSeparatorLineColor@Format@SECCurrencyEdit@@QBEKXZ
                  2C8BE55DC3:
                    0. 00 0000 0011 0000:?GetPositiveFormat@Format@SECCurrencyEdit@@QBEHXZ
                  308BE55DC3:
                    0. 00 0000 0011 0000:?GetPositiveFormat@Format@SECCurrencyEdit@@QBEHXZ
                  348BE55DC3:
                    0. 00 0000 0011 0000:?GetDecimalDigits@Format@SECCurrencyEdit@@QBEHXZ
                  388BE55DC3:
                    0. 00 0000 0011 0000:?GetDecimalDigits@Format@SECCurrencyEdit@@QBEHXZ
                  3C8BE55DC3:
                    0. 00 0000 0011 0000:?GetLargeWidth@SECBmpMgr@@QBEHXZ
                  408BE55DC3:
                    0. 00 0000 0011 0000:?GetLargeHeight@SECBmpMgr@@QBEHXZ
                  448BE55DC3:
                    0. 00 0000 0011 0000:?IsMouseBeyondThreshold@SECListBoxDragWnd@@QBEHXZ
                  488BE55DC3:
                    0. 00 0000 0011 0000:?GetNotifyWnd@SECTabWndBase@@UAEPAVCWnd@@XZ
                  4C8BE55DC3:
                    0. 00 0000 0011 0000:?GetNotifyWnd@SECTabWndBase@@UAEPAVCWnd@@XZ
                  508BE55DC3:
                    0. 00 0000 0011 0000:?InsertMode@SECMaskEdit@@UAEHXZ
                  548BE55DC3:
                    0. 00 0000 0011 0000:?InsertMode@SECMaskEdit@@UAEHXZ
                  588BE55DC3:
                    0. 00 0000 0011 0000:?GetViewClass@SECDocTemplateAccess@SECScriptHostDoc@@QAEPAUCRuntimeClass@@XZ
                  608BE55DC3:
                    0. 00 0000 0011 0000:?IsNegative@SECCurrencyEdit@@IBEHXZ
                  648BE55DC3:
                    0. 00 0000 0011 0000:?IsNegative@SECCurrencyEdit@@IBEHXZ
                  688BE55DC3:
                    0. 00 0000 0011 0000:?IsReadOnly@SECAColorEditor@@UAEHXZ
                  6C8BE55DC3:
                    0. 00 0000 0011 0000:?IsReadOnly@SECAColorEditor@@UAEHXZ
                  708BE55DC3:
                    0. 00 0000 0011 0000:?GetZoomMode@SECZoomView@@QAEIXZ
                  748BE55DC3:
                    0. 00 0000 0011 0000:?IsMouseSelecting@SECCurrencyEdit@@IBEHXZ
                  788BE55DC3:
                    0. 00 0000 0011 0000:?GetBmpMgr@SECToolBarManager@@QBEPAVSECBmpMgr@@XZ
                48:
                  04:
                    33C03B4D080F94C08BE55DC20400:
                      0. 00 0000 001B 0000:??8?$CCIterPos_T@PAVSECLayoutNode@@@@QAEHPAVSECLayoutNode@@@Z
                    518B55FC8B4A088B45FC8B50088B02FF50:
                      048B:
                        0. 03 C861 0023 0000:?First@?$Iterator_T@PAVSECLayoutNode@@@@UAEXXZ
                      088B:
                        0. 03 C861 0023 0000:?Next@?$Iterator_T@PAVSECLayoutNode@@@@UAEXXZ
                      0C8B:
                        0. 03 C861 0023 0000:?Prev@?$Iterator_T@PAVSECLayoutNode@@@@UAEXXZ
                      108B:
                        0. 03 C861 0023 0000:?Last@?$Iterator_T@PAVSECLayoutNode@@@@UAEXXZ
                      148B:
                        0. 03 C861 0023 0000:?Remove@?$Iterator_T@PAVSECLayoutNode@@@@UAEXXZ
                      188B:
                        0. 03 C861 0023 0000:?Get@?$Iterator_T@PAVSECLayoutNode@@@@UAEPAVSECLayoutNode@@XZ
                  08E8........83E801508B4DFC83C104E8:
                    0. 00 0000 0025 0000:?Last@?$SECCArrayIterator@PAVSECBar@@PAV1@@SECArrayIteratorTypes@@UAEXXZ
                  1CE8........8BE55DC3:
                    0. 00 0000 0016 0000:?GetFrameWnd@SECToolBarsBase@@IBEPAVCFrameWnd@@XZ
                  248B81:
                    A40000008BE55DC3:
                      0. 00 0000 0017 0000:?GetBkColor@SECDTGadget@@IBEKXZ
                    A80000008BE55DC3:
                      0. 00 0000 0017 0000:?GetTextColor@SECDTGadget@@IBEKXZ
                    AC0000008BE55DC3:
                      0. 00 0000 0017 0000:?GetTextColor@SECDTGadget@@IBEKXZ
                  3C8B55FC8B423C8B10FF921C0100008BE55DC3:
                    0. 00 0000 001F 0000:?OnBrowse@SECListBoxEditorHelper@@IAEXXZ
                  408B55FC8B42408B10FF921C0100008BE55DC3:
                    0. 00 0000 001F 0000:?OnBrowse@SECListBoxEditorHelper@@IAEXXZ
                4D:
                  08:
                    89:
                      088B:
                        45FC8BE55DC20400:
                          0. 00 0000 0018 0000:??0?$SECIteratorPtr@PAVSECBar@@@@QAE@PAV?$SECIterator@PAVSECBar@@@@@Z
                        55:
                          0C528B4DFC83C104E8........8B45:
                            0. 10 F7AF 0030 0000:??0STATEDATA@SECTrayIcon@@QAE@PAUHICON__@@ABVCString@@I@Z
                          FC:
                            8B450C8942048B:
                              4DFC8B55108951:
                                0. 0A 3EDE 002A 0000:??0SECDockSize@@QAE@MHK@Z
                              E55DC20800:
                                0. 00 0000 001E 0000:?Set@tagSelData@SECCurrencyEdit@@QAEXHH@Z
                            C74204000000008B45FC8BE55DC2:
                              0. 02 2768 0022 0000:??0_RichEditCookie@@QAE@AAVCArchive@@@Z
                        E55DC20400:
                          0. 00 0000 0015 0000:?LastImp@IArrayInterface@SECArrayIteratorTypes@@IAEXH@Z
                      48:
                        048B:
                          45FC8BE55DC20400:
                            0. 00 0000 0019 0000:??4?$CCIterPos_T@PAVSECLayoutNode@@@@QAEAAV0@PAVSECLayoutNode@@@Z
                          55FC8B450C8942088B4DFC8B551089:
                            0. 10 9F4E 003D 0000:??0Descriptor@SECMsgFilter@@QAE@IIPAUCRuntimeClass@@K@Z
                          E55DC20400:
                            0. 00 0000 0016 0000:?SetThisNode@SECDefDockNodeInitiatorBase@@QAEXPAVSECLayoutNode@@@Z
                        0C8BE55DC20400:
                          0. 00 0000 0016 0000:?SetAutoRegister@?$SECDockingListener_T@V?$SECOleDragDropTask_T@VSECLayoutWndListener@@@@@@UAEXH@Z
                        148BE55DC20400:
                          0. 00 0000 0016 0000:?SetAutoInitDockMgr@SECLNFloatingHwndContainer@@QAEXPAVSECLNDockingMgr@@@Z
                        1C8BE55DC20400:
                          0. 00 0000 0016 0000:?SetDocument@SECACtrlItem@@QAEXPAVSECScriptHostDoc@@@Z
                        208BE55DC20400:
                          0. 00 0000 0016 0000:?SetDocument@SECACtrlItem@@QAEXPAVSECScriptHostDoc@@@Z
                        24B8010000008BE55DC20400:
                          0. 00 0000 001B 0000:?SetItemData@SECListItem@@QAEHK@Z
                        2C8BE55DC20400:
                          0. 00 0000 0016 0000:?SetThisNode@SECDefDockNodeBase@@QAEXPAVSECLayoutNode@@@Z
                        348BE55DC20400:
                          0. 00 0000 0016 0000:?SetDragDropFeature@SECOleDropTarget@@QAEXPAVISECDragDropFeature@@@Z
                        388BE55DC20400:
                          0. 00 0000 0016 0000:?SetDragDropFeature@SECOleDropTarget@@QAEXPAVISECDragDropFeature@@@Z
                        3C8BE55DC20400:
                          0. 00 0000 0016 0000:?SetScriptHostDoc@SECScriptHostDocDummyWnd@@QAEXPAVSECScriptHostDoc@@@Z
                        408BE55DC20400:
                          0. 00 0000 0016 0000:?SetScriptHostDoc@SECScriptHostDocDummyWnd@@QAEXPAVSECScriptHostDoc@@@Z
                        448BE55DC20400:
                          0. 00 0000 0016 0000:?SetMouseBeyondThreshold@SECListBoxDragWnd@@IAEXH@Z
                        488B:
                          55FC8B450C89424C8BE55DC20800:
                            0. 00 0000 001F 0000:?SetNonClientOffset@SECLayoutNode@@UAEXHH@Z
                          E55DC20400:
                            0. 00 0000 0016 0000:?SetTrailingBlank@SECListBoxDragWnd@@QAEXH@Z
                        4C8BE55DC20400:
                          0. 00 0000 0016 0000:?SetTrailingBlank@SECListBoxDragWnd@@QAEXH@Z
                        5C33C08BE55DC20400:
                          0. 00 0000 0018 0000:?SetHostWindow@SECAScriptHost@@UAEJPAUHWND__@@@Z
                        608BE55DC20400:
                          0. 00 0000 0016 0000:?EnableOnSizeRecalcProcessing@SECLayoutWndListener@@UAEXH@Z
                        648BE55DC20400:
                          0. 00 0000 0016 0000:?EnableOnSizeRecalcProcessing@SECLayoutWndListener@@UAEXH@Z
                        688BE55DC20400:
                          0. 00 0000 0016 0000:?SetConfigFocus@SECToolBarManager@@QAEXPAVSECCustomToolBar@@@Z
                        708B55FC8B450C8942688B4DFC8B551089:
                          0. 08 7444 0028 0000:?SetGridSnap@SECASelTracker@@QAEXHHH@Z
                      88:
                        240200008BE55DC20400:
                          0. 00 0000 0019 0000:?SetObserver@SECLNVirtualSplitter@@QAEXPAVISECVirtualSplitterObserver@@@Z
                        280200008BE55DC20400:
                          0. 00 0000 0019 0000:?SetObserver@SECLNVirtualSplitter@@QAEXPAVISECVirtualSplitterObserver@@@Z
                        3C0100008BE55DC20400:
                          0. 00 0000 0019 0000:?SetEscape@SECListBoxEditor@@QAEXH@Z
                        480100008BE55DC20400:
                          0. 00 0000 0019 0000:?SetEscape@SECListBoxEditor@@QAEXH@Z
                        540100008BE55DC20400:
                          0. 00 0000 0019 0000:?SetDockingSide@SECLNSizableDockBorder@@QAEXW4DockSide@1@@Z
                        A00000008BE55DC20400:
                          0. 00 0000 0019 0000:?SetTabStop@SECACtrlItem@@QAEXH@Z
                        A40000008BE55DC20400:
                          0. 00 0000 0019 0000:?SetTabStop@SECACtrlItem@@QAEXH@Z
                        B00000008B:
                          55FC8B450C8982B80000008B:
                            0. 1D AB57 003D 0000:?SetBorderMargins@?$SECLNBorder_T@VSECLayoutNode@@@@QAEXIIII@Z
                          E55DC20400:
                            0. 00 0000 0019 0000:?SetNodeOwnerHWND@SECLayoutNodeDCBase@@UAEXPAUHWND__@@@Z
                        B40000008B55FC8B450C8982BC0000008B:
                          0. 1D 6976 003D 0000:?SetBorderMargins@?$SECLNBorder_T@VSECLayoutNodeDCBase@@@@QAEXIIII@Z
                        B8:
                          0000008BE55DC20400:
                            0. 00 0000 0019 0000:?SetVisible@SECACtrlItem@@QAEXH@Z
                          0100008BE55DC20400:
                            0. 00 0000 0019 0000:?SetDocument@SECAFormObj@@QAEXPAVSECScriptHostDoc@@@Z
                        BC0000008BE55DC20400:
                          0. 00 0000 0019 0000:?SetVisible@SECACtrlItem@@QAEXH@Z
                        C4:
                          0000008BE55DC20400:
                            0. 00 0000 0019 0000:?SetBorderAlgorithm@SECLNBorderClient@@QAEXW4BorderAlgorithm@1@@Z
                          0100008BE55DC20400:
                            0. 00 0000 0019 0000:?SetDocument@SECAFormObj@@QAEXPAVSECScriptHostDoc@@@Z
                        C80000008BE55DC20400:
                          0. 00 0000 0019 0000:?SetEventRecvr@SECLNBorderClient@@QAEXPAVISECLNBorderClientEventRcvr@@@Z
                        CC0000008BE55DC20400:
                          0. 00 0000 0019 0000:?EnableSysColorTracking@SECListBaseC@@UAEXH@Z
                        D00000008BE55DC20400:
                          0. 00 0000 0019 0000:?EnableSysColorTracking@SECListBaseV@@UAEXH@Z
                        D40000008BE55DC20400:
                          0. 00 0000 0019 0000:?EnableSysColorTracking@SECListBaseV@@UAEXH@Z
                        EC0100008BE55DC20400:
                          0. 00 0000 0019 0000:?SetFrameDockSite@SECDynGridLineTarget@@QAEXW4DockSite@SECFrameDockingFeatureBase@@@Z
                    8B:
                      1189108B45:
                        0883C004508B4DFC83C104E8:
                          0. 00 0000 003E 0000:??4SECCommand@@QAEAAU0@ABU0@@Z
                        FC8B4D088B51048950048B45:
                          08:
                            0. 60 F935 0090 0000:??0ScxInfo@nsSysCommandEx@@QAE@ABV01@@Z
                          FC:
                            0. 06 6154 0026 0000:??0tagSelData@SECCurrencyEdit@@QAE@ABU01@@Z
                      51048950048B45FC8B4D088B51088950088B:
                        0. 1C 5BE9 0049 0000:??0Descriptor@SECMsgFilter@@QAE@ABU01@@Z
                  0C89088B55FC8B45088942048B4DFC8B55108951:
                    0. 0A 3EDE 002A 0000:??0SECDockPos@@QAE@HHK@Z
                80:
                  180100008BE55DC3:
                    0. 00 0000 0014 0000:?SuppressUpdateMenuForMenubar@SECMDIFrameWnd@@MAEHXZ
                  1C0100008BE55DC3:
                    0. 00 0000 0014 0000:?SuppressUpdateMenuForMenubar@SECMDIFrameWnd@@MAEHXZ
                  280100002345088BE55DC20400:
                    0. 00 0000 0019 0000:?IsFlagSet@SECListBoxEditor@@QAEHH@Z
                  34010000:
                    2345088BE55DC20400:
                      0. 00 0000 0019 0000:?IsFlagSet@SECListBoxEditor@@QAEHH@Z
                    8BE55DC3:
                      0. 00 0000 0014 0000:?GetBmpMgr@SECCustomToolBar@@QBEPAVSECBmpMgr@@XZ
                  380100008BE55DC3:
                    0. 00 0000 0014 0000:?GetBmpMgr@SECCustomToolBar@@QBEPAVSECBmpMgr@@XZ
                  3C0100008BE55DC3:
                    0. 00 0000 0014 0000:?GetEscape@SECListBoxEditor@@QAEHXZ
                  480100008BE55DC3:
                    0. 00 0000 0014 0000:?GetEscape@SECListBoxEditor@@QAEHXZ
                  4C0100008BE55DC3:
                    0. 00 0000 0014 0000:?InConfigMode@SECCustomToolBar@@QBEHXZ
                  600300008BE55DC3:
                    0. 00 0000 0014 0000:?IsSyntaxColor@SECAColorEditor@@MBEHXZ
                  64:
                    0100008BE55DC3:
                      0. 00 0000 0014 0000:?GetColumns@SECAToolBox@@UAEIXZ
                    0300008BE55DC3:
                      0. 00 0000 0014 0000:?IsSyntaxColor@SECAColorEditor@@MBEHXZ
                  680100008BE55DC3:
                    0. 00 0000 0014 0000:?GetColumns@SECAToolBox@@UAEIXZ
                  6C0100008BE55DC3:
                    0. 00 0000 0014 0000:?GetWorkspaceMgrEx@SECMDIFrameWnd@@QAEPAVSECWorkspaceManagerEx@@XZ
                  700100008BE55DC3:
                    0. 00 0000 0014 0000:?GetWorkspaceMgrEx@SECMDIFrameWnd@@QAEPAVSECWorkspaceManagerEx@@XZ
                  780100008BE55DC3:
                    0. 00 0000 0014 0000:?GetCTBExStyle@SECCustomToolBar@@QAEKXZ
                  7C0100008BE55DC3:
                    0. 00 0000 0014 0000:?GetCTBExStyle@SECCustomToolBar@@QAEKXZ
                  8C0000008BE55DC3:
                    0. 00 0000 0014 0000:?GetDockFrameClass@SECMultiDocTemplate@@QAEPAUCRuntimeClass@@XZ
                  900000008BE55DC3:
                    0. 00 0000 0014 0000:?GetDockFrameClass@SECMultiDocTemplate@@QAEPAUCRuntimeClass@@XZ
                  9C00000083E0:
                    02F7D81BC0408BE55DC3:
                      0. 00 0000 001C 0000:?IsCaptionButtonEnabled@SECMultiDocTemplate@@UAEHXZ
                    04F7D81BC0408BE55DC3:
                      0. 00 0000 001C 0000:?IsRDblClickEnabled@SECMultiDocTemplate@@UAEHXZ
                    08F7D81BC0408BE55DC3:
                      0. 00 0000 001C 0000:?IsContextMenuEnabled@SECMultiDocTemplate@@UAEHXZ
                  A0000000:
                    83E0:
                      02F7D81BC0408BE55DC3:
                        0. 00 0000 001C 0000:?IsCaptionButtonEnabled@SECMultiDocTemplate@@UAEHXZ
                      04F7D81BC0408BE55DC3:
                        0. 00 0000 001C 0000:?IsRDblClickEnabled@SECMultiDocTemplate@@UAEHXZ
                      08F7D81BC0408BE55DC3:
                        0. 00 0000 001C 0000:?IsContextMenuEnabled@SECMultiDocTemplate@@UAEHXZ
                    8BE55DC3:
                      0. 00 0000 0014 0000:?IsTabStop@SECACtrlItem@@QBEHXZ
                  A4:
                    000000:
                      2500010000F7D81BC0F7D88BE55DC3:
                        0. 00 0000 001F 0000:?CoolLookEnabled@SECCustomToolBar@@UBEHXZ
                      8BE55DC3:
                        0. 00 0000 0014 0000:?IsHourPM@SECDateTimeCtrl@@QAEHXZ
                    0500008BE55DC3:
                      0. 00 0000 0014 0000:?IsSyntaxColor@SECAColorEditor@@MBEHXZ
                  A8:
                    000000:
                      2500010000F7D81BC0F7D88BE55DC3:
                        0. 00 0000 001F 0000:?CoolLookEnabled@SECCustomToolBar@@UBEHXZ
                      8BE55DC3:
                        0. 00 0000 0014 0000:?GetExBarStyle@SECControlBar@@QBEKXZ
                    0500008BE55DC3:
                      0. 00 0000 0014 0000:?IsSyntaxColor@SECAColorEditor@@MBEHXZ
                  AC0000008BE55DC3:
                    0. 00 0000 0014 0000:?GetLNMemMgr@SECLayoutNode@@UAEPAV?$SECObjectMemoryManager_T@VSECLayoutNode@@@@XZ
                  B00000008BE55DC3:
                    0. 00 0000 0014 0000:?GetNodeOwnerHWND@SECLayoutNodeDCBase@@QAEPAUHWND__@@XZ
                  B80000008BE55DC3:
                    0. 00 0000 0014 0000:?IsVisible@SECACtrlItem@@QBEHXZ
                  BC0000008BE55DC3:
                    0. 00 0000 0014 0000:?IsVisible@SECACtrlItem@@QBEHXZ
                  C40000008BE55DC3:
                    0. 00 0000 0014 0000:?GetAttachedHwnd@SECLayoutNodeWnd@@UAEPAUHWND__@@XZ
                  C80000008BE55DC3:
                    0. 00 0000 0014 0000:?GetWorkspaceMgrEx@SECFrameWnd@@QAEPAVSECWorkspaceManagerEx@@XZ
                  CC0000008BE55DC3:
                    0. 00 0000 0014 0000:?AreSysColorsTracked@SECListBaseC@@UAEHXZ
                  D00000008BE55DC3:
                    0. 00 0000 0014 0000:?GetFloatRootNode@SECLayoutMiniFloatWnd@@QAEPAVSECLayoutNode@@XZ
                  D40000008BE55DC3:
                    0. 00 0000 0014 0000:?AreSysColorsTracked@SECListBaseV@@UAEHXZ
                  DC0100008BE55DC3:
                    0. 00 0000 0014 0000:?GetCurMenuID@SECMenuBar@@QBEIXZ
                  E00100008BE55DC3:
                    0. 00 0000 0014 0000:?GetCurMenuID@SECMenuBar@@QBEIXZ
                  F80000008BE55DC3:
                    0. 00 0000 0014 0000:?GetMode@SECScriptHostDoc@@UAE?AW4ScriptMode@@XZ
                  FC0000008BE55DC3:
                    0. 00 0000 0014 0000:?GetMode@SECScriptHostDoc@@UAE?AW4ScriptMode@@XZ
                88:
                  28010000234D0833C03B4D080F94C08BE55DC204:
                    0. 01 78F0 0021 0000:?AreFlagsSet@SECListBoxEditor@@QAEHH@Z
                  34010000:
                    234D0833C03B4D080F94C08BE55DC204:
                      0. 01 78F0 0021 0000:?AreFlagsSet@SECListBoxEditor@@QAEHH@Z
                    E8........8BE55DC3:
                      0. 00 0000 0019 0000:?GetImgHeight@SECCustomToolBar@@QBEHXZ (REF 0011: ?GetImgHeight@SECBmpMgr@@QBEHXZ)
                      1. 00 0000 0019 0000:?GetImgWidth@SECCustomToolBar@@QBEHXZ (REF 0011: ?GetImgWidth@SECBmpMgr@@QBEHXZ)
                  38010000E8........8BE55DC3:
                    0. 00 0000 0019 0000:?GetImgHeight@SECCustomToolBar@@QBEHXZ (REF 0011: ?GetImgHeight@SECBmpMgr@@QBEHXZ)
                    1. 00 0000 0019 0000:?GetImgWidth@SECCustomToolBar@@QBEHXZ (REF 0011: ?GetImgWidth@SECBmpMgr@@QBEHXZ)
                E55DC3:
                  0. 00 0000 000E 0000:?GetStatusBarCtrl@SECStatusBar@@QBEAAVCStatusBarCtrl@@XZ
              C64008008B4DFCC7410C000000008B55FCC702:
                0. 00 0000 0028 0000:??0SECBtnInfo@@QAE@XZ
              C7:
                00:
                  000000008B:
                    4DFCC74108000000008B55FCC74204:
                      0. 19 6E2E 40DE 0000:??0SECLNDynamicGridLineCell@@QAE@XZ 002B:??0SECDynGridInsertConstraints@@QAE@XZ 0055:??1SECDynGridInsertConstraints@@UAE@XZ 0069:?CopyFrom@SECDynGridInsertConstraints@@UAEXABV1@@Z 010D:?Reset@SECDynGridInsertConstraints@@UAEXXZ 0198:?SetInsertPosition@SECDynGridInsertConstraints@@QAEXIHH@Z 01C0:?GetInsertPosition@SECDynGridInsertConstraints@@QBEHAAI@Z 01DE:?SetInsertPoint@SECDynGridInsertConstraints@@QAEXABVCPoint@@H@Z 0205:?GetInsertPoint@SECDynGridInsertConstraints@@QAEHAAVCPoint@@@Z 0229:??0SECLNDynamicGridLine@@QAE@XZ 0478:??1SECLNDynamicGridLine@@UAE@XZ 061D:?SetDefSizingAlgorithm@SECLNDynamicGridLine@@SAXW4SizingAlgorithm@1@@Z 062A:?GetDefSizingAlgorithm@SECLNDynamicGridLine@@SA?AW4SizingAlgorithm@1@XZ 0634:?SetStretchToContainChildrenMode@SECLNDynamicGridLine@@QAEXH@Z 0736:?SetSplitterRealtimeDragMode@SECLNDynamicGridLine@@UAEXH@Z 07F3:?InitializeLine@SECLNDynamicGridLine@@UAEXPAUHWND__@@H@Z 0846:?AddLayoutNode@SECLNDynamicGridLine@@UAEHPAVSECLayoutNode@@@Z 08AE:?AddLayoutNode@SECLNDynamicGridLine@@UAEHPAVSECLayoutNode@@AAVSECDynGridInsertConstraints@@@Z 09F3:?RemoveLayoutNode@SECLNDynamicGridLine@@UAEHPAVSECLayoutNode@@@Z 0AEB:?QueryOptimalUndoNode@SECLNDynamicGridLine@@UAEPAVISECUndoableNode@@XZ 0B78:?UndoableRemoveLayoutNode@SECLNDynamicGridLine@@UAEHPAVSECLayoutNode@@@Z 0CE2:?RestoreLastRemoveLayoutNode@SECLNDynamicGridLine@@UAEHXZ 0D18:?RestoreRemoveLayoutNode@SECLNDynamicGridLine@@UAEHPAVSECLayoutNode@@@Z 0E0A:?ReparentNode@SECLNDynamicGridLine@@UAEHPAVISECLNContainer@@@Z 0E93:?LocateCellNodeFromPoint@SECLNDynamicGridLine@@UAEPAVSECLayoutNode@@ABVCPoint@@AAHPAPAV1@@Z 0FCE:?HasChildNode@SECLNDynamicGridLine@@UAEHPAVSECLayoutNode@@@Z 0FF9:?GetAdjacentCellNode@SECLNDynamicGridLine@@UAEPAVSECLayoutNode@@PAV2@H@Z 1073:?GetCell@SECLNDynamicGridLine@@UAEPAVSECLNDynamicGridLineCell@@PAVSECLayoutNode@@@Z 10E9:?CalcAvgCellSize@SECLNDynamicGridLine@@UAEIH@Z 114D:?AppendChildNodeList@SECLNDynamicGridLine@@UAEXAAV?$CTypedPtrList@VCPtrList@@PAVSECLayoutNode@@@@@Z 11CA:?CalcChildConstraints@SECLNDynamicGridLine@@UAEHPAVSECLayoutNode@@AAVSECDynGridInsertConstraints@@@Z 1302:?OnRecalcLayout@SECLNDynamicGridLine@@MAE?AVCRect@@ABV2@HH@Z 1414:?OnNotifySplitterMovement@SECLNDynamicGridLine@@MAEXPAVSECLNVirtualSplitter@@HH@Z 1623:?OnSetNewChildOrientation@SECLNDynamicGridLine@@MAEXPAVSECLayoutNode@@AAVSECDynGridInsertConstraints@@@Z 166D:?CreateVirtualSplitter@SECLNDynamicGridLine@@MAEPAVSECLNVirtualSplitter@@XZ 17EF:?PostProcessAddNode@SECLNDynamicGridLine@@MAEXPAVSECLayoutNode@@AAVSECDynGridInsertConstraints@@@Z 1A66:?CreateNewCell@SECLNDynamicGridLine@@MAEPAVSECLNDynamicGridLineCell@@PAVSECLayoutNode@@ABVSECDynGridInsertConstraints@@@Z 1B3D:?RemoveExistingCell@SECLNDynamicGridLine@@MAEHPAVSECLayoutNode@@@Z 1BC1:?ResolveInsertionPosition@SECLNDynamicGridLine@@MAEHPAVSECLayoutNode@@ABVSECDynGridInsertConstraints@@@Z 1D60:?GetNodePosFromIndex@SECLNDynamicGridLine@@MAEPAU__POSITION@@HAAH@Z 1DB6:?RemoveInsertionPosition@SECLNDynamicGridLine@@MAEHPAVSECLayoutNode@@@Z 1E07:?PostProcessRemoveNode@SECLNDynamicGridLine@@MAEXPAVSECLayoutNode@@@Z 1FB2:?SetVSplittersOnAdd@SECLNDynamicGridLine@@MAEHPAVSECLayoutNode@@@Z 2088:?SetVSplitterBetween2Nodes@SECLNDynamicGridLine@@MAEHPAVSECLayoutNode@@00@Z 2168:?SetVSplitterAdjacentNodes@SECLNDynamicGridLine@@MAEHPAVSECLayoutNode@@0@Z 23A5:?SetVSplittersOnRemove@SECLNDynamicGridLine@@MAEHPAVSECLayoutNode@@@Z 247B:?RemoveVSplitterBetween2Nodes@SECLNDynamicGridLine@@MAEHPAVSECLayoutNode@@00@Z 255B:?RemoveVSplitterAdjacentNodes@SECLNDynamicGridLine@@MAEHPAVSECLayoutNode@@0@Z 2795:?CalcTotalVSplitterSize@SECLNDynamicGridLine@@MAEIPAVSECLayoutNode@@@Z 2865:?SizeCellsToFit@SECLNDynamicGridLine@@MAEHPAVSECLayoutNode@@@Z 28B1:?SizeCellsToFit@SECLNDynamicGridLine@@MAEHIPAVSECLayoutNode@@@Z 2AE6:?CalcCurrentCellSize@SECLNDynamicGridLine@@MAEIAAIPAVSECLayoutNode@@@Z 2B89:?SizeCellsToFitAllEqually@SECLNDynamicGridLine@@MAEHHIPAVSECLayoutNode@@@Z 2D01:?SizeCellsToFitOneDirection@SECLNDynamicGridLine@@MAEHHIHPAVSECLayoutNode@@@Z 2E6C:?ClipCellSizesToFit@SECLNDynamicGridLine@@MAEHHH@Z 2F81:?ApplyCellPositions@SECLNDynamicGridLine@@MAEHABVCRect@@@Z 320E:?SetVirtualSplitterBoundingRanges@SECLNDynamicGridLine@@MAEHPAVSECLayoutNode@@0@Z 34BF:?CalcMinSumTable@SECLNDynamicGridLine@@MAEHAAVCUIntArray@@PAVSECLayoutNode@@1@Z 35F2:?CalcRangeBoundingRect@SECLNDynamicGridLine@@MAE?AVCRect@@PAVSECLayoutNode@@0@Z 371B:?LocateSplitterPanes@SECLNDynamicGridLine@@MAEHPAVSECLNVirtualSplitter@@PAPAVSECLayoutNode@@1@Z 3865:?SlideDynamicCellSizes@SECLNDynamicGridLine@@MAEHPAVSECLayoutNode@@HHPAPAV2@@Z 3AD9:?RealizeNodeRange@SECLNDynamicGridLine@@MAEHPAVSECLayoutNode@@0@Z 3BF2:?GetNextAndPrevNodes@SECLNDynamicGridLine@@MAEHPAVSECLayoutNode@@PAPAV2@1@Z 3CE0:?SetNodeRectWithinMinMax@SECLNDynamicGridLine@@MAEXPAVSECLayoutNode@@AAVCRect@@@Z 3DED:?ClearCellList@SECLNDynamicGridLine@@MAEXXZ 3EB9:?TestHitBeforeOrAfter@SECLNDynamicGridLine@@MAEHABVCRect@@ABVCPoint@@@Z 3F57:?AdjustNewRectWithPendingDeltas@SECLNDynamicGridLine@@MAEHAAVCRect@@@Z 3FF1:?GetNodeNumericPos@SECLNDynamicGridLine@@MAEHPAVSECLayoutNode@@AAI1@Z 4074:?UndoRestoreLayoutNode@SECLNDynamicGridLine@@MAEHPAVSECLayoutNode@@AAVSECDynGridInsertConstraints@@@Z
                    E55DC3:
                      0. 00 0000 0014 0000:?FirstImp@IArrayInterface@SECArrayIteratorTypes@@IAEXXZ
                  010000008B4DFC83C104E8........8B4DFCC741:
                    0. 0C 5034 002C 0000:??0SECCurrentCommand@SECToolBarManager@@QAE@XZ
                  3C0000008B45FC8BE55DC3:
                    0. 00 0000 0017 0000:??0SECACharFormat@@QAE@XZ
                  FFFFFFFF8B:
                    45FC8BE55DC3:
                      0. 00 0000 0017 0000:??0IArrayInterface@SECArrayIteratorTypes@@IAE@XZ
                    4DFCC74104000000008B:
                      45FC8BE55D:
                        0. 01 EF04 0021 0000:??0tagSelData@SECCurrencyEdit@@QAE@XZ
                      E55DC3:
                        0. 00 0000 001E 0000:?Clear@tagSelData@SECCurrencyEdit@@QAEXXZ
                  ........8B:
                    45FC8BE55DC3:
                      0. 00 0000 0017 0000:??0SECDocTemplateUtils@@QAE@XZ (REF 000C: ??_7SECDocTemplateUtils@@6B@)
                      1. 00 0000 0017 0000:??0ISECUndoableNode@@QAE@XZ (REF 000C: ??_7ISECUndoableNode@@6B@)
                      2. 00 0000 0017 0000:??0?$SECLNOffNodeIFaceHitTest_T@VISECDockTarget@@@@QAE@XZ (REF 000C: ??_7?$SECLNOffNodeIFaceHitTest_T@VISECDockTarget@@@@6B@)
                      3. 00 0000 0017 0000:??0CCIterPos@@QAE@XZ (REF 000C: ??_7CCIterPos@@6B@)
                      4. 00 0000 0017 0000:??0?$SECClassFactory@VSECLayoutNode@@@@QAE@XZ (REF 000C: ??_7?$SECClassFactory@VSECLayoutNode@@@@6B@)
                      5. 00 0000 0017 0000:??0?$SECClassFactory@VSECLayoutNodeWnd@@@@QAE@XZ (REF 000C: ??_7?$SECClassFactory@VSECLayoutNodeWnd@@@@6B@)
                      6. 00 0000 0017 0000:??0?$SECClassFactory@VSECLayoutWndListener@@@@QAE@XZ (REF 000C: ??_7?$SECClassFactory@VSECLayoutWndListener@@@@6B@)
                      7. 00 0000 0017 0000:??0ISECVirtualSplitterObserver@@QAE@XZ (REF 000C: ??_7ISECVirtualSplitterObserver@@6B@)
                      8. 00 0000 0017 0000:??0ISECParentOfNegotiableChildNode@@QAE@XZ (REF 000C: ??_7ISECParentOfNegotiableChildNode@@6B@)
                      9. 00 0000 0017 0000:??0ISECReparentableNode@@QAE@XZ (REF 000C: ??_7ISECReparentableNode@@6B@)
                      10. 00 0000 0017 0000:??0ISECBorderWrapper@@QAE@XZ (REF 000C: ??_7ISECBorderWrapper@@6B@)
                      11. 00 0000 0017 0000:??0?$IComposite_T@PAVSECLayoutNode@@PAU__POSITION@@@@QAE@XZ (REF 000C: ??_7?$IComposite_T@PAVSECLayoutNode@@PAU__POSITION@@@@6B@)
                      12. 00 0000 0017 0000:??0?$ICollection_T@PAVSECLayoutNode@@@@QAE@XZ (REF 000C: ??_7?$ICollection_T@PAVSECLayoutNode@@@@6B@)
                      13. 00 0000 0017 0000:??0ISECPreferredNodeRectSet@@QAE@XZ (REF 000C: ??_7ISECPreferredNodeRectSet@@6B@)
                      14. 00 0000 0017 0000:??0ISECOffNodeHitTest@@QAE@XZ (REF 000C: ??_7ISECOffNodeHitTest@@6B@)
                      15. 00 0000 0017 0000:??0ISECDockTarget@@QAE@XZ (REF 000C: ??_7ISECDockTarget@@6B@)
                      16. 00 0000 0017 0000:??0ISECHookDockTargetHitTester@@QAE@XZ (REF 000C: ??_7ISECHookDockTargetHitTester@@6B@)
                      17. 00 0000 0017 0000:??0ISECLNBorderClientEventRcvr@@QAE@XZ (REF 000C: ??_7ISECLNBorderClientEventRcvr@@6B@)
                      18. 00 0000 0017 0000:??0ISECDockingListenerConfig@@QAE@XZ (REF 000C: ??_7ISECDockingListenerConfig@@6B@)
                      19. 00 0000 0017 0000:??0SECDragDropTaskBase@@QAE@XZ (REF 000C: ??_7SECDragDropTaskBase@@6B@)
                      20. 00 0000 0017 0000:??0ISECBorderTargetParent@@QAE@XZ (REF 000C: ??_7ISECBorderTargetParent@@6B@)
                      21. 00 0000 0017 0000:??0ISECDockEventReceiver@@QAE@XZ (REF 000C: ??_7ISECDockEventReceiver@@6B@)
                      22. 00 0000 0017 0000:??0SECQueryChildTargetInfo@@QAE@XZ (REF 000C: ??_7SECQueryChildTargetInfo@@6B@)
                      23. 00 0000 0017 0000:??0ISECFloatingNode@@QAE@XZ (REF 000C: ??_7ISECFloatingNode@@6B@)
                      24. 00 0000 0017 0000:??0ISECHookDockSourceHitTester@@QAE@XZ (REF 000C: ??_7ISECHookDockSourceHitTester@@6B@)
                      25. 00 0000 0017 0000:??0?$SECClassFactory@VSECLayoutNodeDCBase@@@@QAE@XZ (REF 000C: ??_7?$SECClassFactory@VSECLayoutNodeDCBase@@@@6B@)
                      26. 00 0000 0017 0000:??0ISECDragDropFeature@@QAE@XZ (REF 000C: ??_7ISECDragDropFeature@@6B@)
                      27. 00 0000 0017 0000:??0ISECDockInitiator@@QAE@XZ (REF 000C: ??_7ISECDockInitiator@@6B@)
                      28. 00 0000 0017 0000:??0ISECDockableNode@@QAE@XZ (REF 000C: ??_7ISECDockableNode@@6B@)
                      29. 00 0000 0017 0000:??0ISECHideableNode@@QAE@XZ (REF 000C: ??_7ISECHideableNode@@6B@)
                      30. 00 0000 0017 0000:??0ISECLNContainer@@QAE@XZ (REF 000C: ??_7ISECLNContainer@@6B@)
                      31. 00 0000 0017 0000:??0?$SECIterator@PAVSECBar@@@@IAE@XZ (REF 000C: ??_7?$SECIterator@PAVSECBar@@@@6B@)
                      32. 00 0000 0017 0000:??0SECListClient@@QAE@XZ (REF 000C: ??_7SECListClient@@6B@)
                      33. 00 0000 0017 0000:??0IActiveScriptErrorHandler@@QAE@XZ (REF 000C: ??_7IActiveScriptErrorHandler@@6B@)
                      34. 00 0000 0017 0000:??0SECALangAwareObj@@QAE@XZ (REF 000C: ??_7SECALangAwareObj@@6B@)
                      35. 00 0000 0017 0000:??0SECPTNStrategy@@QAE@XZ (REF 000C: ??_7SECPTNStrategy@@6B@)
                    4D:
                      08518B4DFCE8........8B45FC8B:
                        0. 05 1E44 0025 0000:??0?$Iterator_T@PAVSECLayoutNode@@@@QAE@PAV?$ICollection_T@PAVSECLayoutNode@@@@@Z
                      FC:
                        66C7411400008B4DFCE8:
                          0. 00 0000 0025 0000:??1SECTreeNodeX@@UAE@XZ
                        C741:
                          04:
                            000000008B45FC8BE55D:
                              0. 01 EF04 0021 0000:??0?$SECLNDockHitTester@VISECDockTarget@@@@QAE@XZ (REF 000C: ??_7?$SECLNDockHitTester@VISECDockTarget@@@@6B@)
                              1. 01 EF04 0021 0000:??0?$SECLNDockHitTester@VISECDockInitiator@@@@QAE@XZ (REF 000C: ??_7?$SECLNDockHitTester@VISECDockInitiator@@@@6B@)
                            ........8B4DFC:
                              83C108:
                                0. 01 3E9B 0029 0000:??1?$SECComposite_T@PAVSECLayoutNode@@@@UAE@XZ
                              E8:
                                0. 00 0000 0026 0000:??1SECLayoutNodeDCBase@@UAE@XZ (REF 000C: ??_7SECLayoutNodeDCBase@@6B?$IComposite_T@PAVSECLayoutNode@@PAU__POSITION@@@@@)
                                1. 00 0000 0026 0000:??1?$SECLNBorder_T@VSECLayoutNode@@@@UAE@XZ (REF 000C: ??_7?$SECLNBorder_T@VSECLayoutNode@@@@6B?$IComposite_T@PAVSECLayoutNode@@PAU__POSITION@@@@@)
                                2. 00 0000 0026 0000:??1?$SECLNBorder_T@VSECLayoutNodeDCBase@@@@UAE@XZ (REF 000C: ??_7?$SECLNBorder_T@VSECLayoutNodeDCBase@@@@6B?$IComposite_T@PAVSECLayoutNode@@PAU__POSITION@@@@@)
                          10000000008B55FCC7420C:
                            0. 1F 890A 003F 0000:??0SECTreeNode@@QAE@XZ
                        E8........8BE55DC3:
                          0. 00 0000 001C 0000:??1SECWndBtn@@UAE@XZ (REF 000C: ??_7SECWndBtn@@6B@)
                          1. 00 0000 001C 0000:??1SECComboBtnEdit@@UAE@XZ (REF 000C: ??_7SECComboBtnEdit@@6B@)
                          2. 00 0000 001C 0000:??1SECMenuListBox@@UAE@XZ (REF 000C: ??_7SECMenuListBox@@6B@)
                          3. 00 0000 001C 0000:??1SECDefUndoableNode@@UAE@XZ (REF 000C: ??_7SECDefUndoableNode@@6B@)
                          4. 00 0000 001C 0000:??1SECSplitterPaneInfo@@UAE@XZ (REF 000C: ??_7SECSplitterPaneInfo@@6B@)
                          5. 00 0000 001C 0000:??1?$SECStartDragCore_T@VSECLayoutWndListener@@@@UAE@XZ (REF 000C: ??_7?$SECStartDragCore_T@VSECLayoutWndListener@@@@6B@)
                          6. 00 0000 001C 0000:??1SECOleDropSource@@UAE@XZ (REF 000C: ??_7SECOleDropSource@@6B@)
                          7. 00 0000 001C 0000:??1SECTreeNode@@UAE@XZ (REF 000C: ??_7SECTreeNode@@6B@)
                          8. 00 0000 001C 0000:??1SECTreePaintContext@@UAE@XZ (REF 000C: ??_7SECTreePaintContext@@6B@)
                          9. 00 0000 001C 0000:??1?$SECCArrayIterator@PAVSECBar@@PAV1@@SECArrayIteratorTypes@@UAE@XZ (REF 000C: ??_7?$SECCArrayIterator@PAVSECBar@@PAV1@@SECArrayIteratorTypes@@6B@)
                          10. 00 0000 001C 0000:??1SECListEdit@@UAE@XZ (REF 000C: ??_7SECListEdit@@6B@)
                          11. 00 0000 001C 0000:??1SECBtnCaption@@UAE@XZ (REF 000C: ??_7SECBtnCaption@@6B@)
                    E55DC3:
                      0. 00 0000 0014 0000:??1SECDocTemplateUtils@@UAE@XZ (REF 000C: ??_7SECDocTemplateUtils@@6B@)
                      1. 00 0000 0014 0000:??1ISECUndoableNode@@UAE@XZ (REF 000C: ??_7ISECUndoableNode@@6B@)
                      2. 00 0000 0014 0000:??1?$SECLNOffNodeIFaceHitTest_T@VISECDockTarget@@@@UAE@XZ (REF 000C: ??_7?$SECLNOffNodeIFaceHitTest_T@VISECDockTarget@@@@6B@)
                      3. 00 0000 0014 0000:??1CCIterPos@@UAE@XZ (REF 000C: ??_7CCIterPos@@6B@)
                      4. 00 0000 0014 0000:??1ISECLNContainer@@UAE@XZ (REF 000C: ??_7ISECLNContainer@@6B@)
                      5. 00 0000 0014 0000:??1ISECVirtualSplitterObserver@@UAE@XZ (REF 000C: ??_7ISECVirtualSplitterObserver@@6B@)
                      6. 00 0000 0014 0000:??1ISECReparentableNode@@UAE@XZ (REF 000C: ??_7ISECReparentableNode@@6B@)
                      7. 00 0000 0014 0000:??1ISECHideableNode@@UAE@XZ (REF 000C: ??_7ISECHideableNode@@6B@)
                      8. 00 0000 0014 0000:??1ISECBorderWrapper@@UAE@XZ (REF 000C: ??_7ISECBorderWrapper@@6B@)
                      9. 00 0000 0014 0000:??1ISECPreferredNodeRectSet@@UAE@XZ (REF 000C: ??_7ISECPreferredNodeRectSet@@6B@)
                      10. 00 0000 0014 0000:??1ISECDockTarget@@UAE@XZ (REF 000C: ??_7ISECDockTarget@@6B@)
                      11. 00 0000 0014 0000:??1ISECOffNodeHitTest@@UAE@XZ (REF 000C: ??_7ISECOffNodeHitTest@@6B@)
                      12. 00 0000 0014 0000:??1ISECLNBorderClientEventRcvr@@UAE@XZ (REF 000C: ??_7ISECLNBorderClientEventRcvr@@6B@)
                      13. 00 0000 0014 0000:??1ISECDockingListenerConfig@@UAE@XZ (REF 000C: ??_7ISECDockingListenerConfig@@6B@)
                      14. 00 0000 0014 0000:??1SECDragDropTaskBase@@UAE@XZ (REF 000C: ??_7SECDragDropTaskBase@@6B@)
                      15. 00 0000 0014 0000:??1ISECBorderTargetParent@@UAE@XZ (REF 000C: ??_7ISECBorderTargetParent@@6B@)
                      16. 00 0000 0014 0000:??1ISECDockEventReceiver@@UAE@XZ (REF 000C: ??_7ISECDockEventReceiver@@6B@)
                      17. 00 0000 0014 0000:??1ISECFloatingNode@@UAE@XZ (REF 000C: ??_7ISECFloatingNode@@6B@)
                      18. 00 0000 0014 0000:??1?$SECLNDockHitTester@VISECDockInitiator@@@@UAE@XZ (REF 000C: ??_7?$SECLNDockHitTester@VISECDockInitiator@@@@6B@)
                      19. 00 0000 0014 0000:??1?$SECLNDockHitTester@VISECDockTarget@@@@UAE@XZ (REF 000C: ??_7?$SECLNDockHitTester@VISECDockTarget@@@@6B@)
                      20. 00 0000 0014 0000:??1ISECDockInitiator@@UAE@XZ (REF 000C: ??_7ISECDockInitiator@@6B@)
                      21. 00 0000 0014 0000:??1ISECDockableNode@@UAE@XZ (REF 000C: ??_7ISECDockableNode@@6B@)
                      22. 00 0000 0014 0000:??1SECListPaintContext@@UAE@XZ (REF 000C: ??_7SECListPaintContext@@6B@)
                      23. 00 0000 0014 0000:??1?$SECIterator@PAVSECBar@@@@UAE@XZ (REF 000C: ??_7?$SECIterator@PAVSECBar@@@@6B@)
                      24. 00 0000 0014 0000:??1SECPTNStrategy@@UAE@XZ (REF 000C: ??_7SECPTNStrategy@@6B@)
                40:
                  04:
                    000000008B4DFCC701000000008B55FCC74208:
                      0. 29 2D6D 0049 0000:??0tagWCPane@SECCustomStatusBar@@QAE@XZ
                    010000008BE55DC3:
                      0. 00 0000 0015 0000:?FlagPreferredRectResetOnNextRecalc@SECLNDynamicGrid2d@@UAEXXZ
                  14000000008B4DFCC74110000000008B55FCC742:
                    0. 29 E491 0049 0000:??0SECGripperInternalZones@SECLayoutNodeGripper@@QAE@XZ
                  3C000000008BE55DC3:
                    0. 00 0000 0015 0000:?ClearRecalcDirty@SECLayoutNode@@UAEXXZ
                  40:
                    000000008BE55DC3:
                      0. 00 0000 0015 0000:?ClearInvalidateDirty@SECLayoutNode@@QAEXXZ
                    010000008BE55DC3:
                      0. 00 0000 0015 0000:?Abort@SECListBoxDragWnd@@QAEXXZ
                  44010000008BE55DC3:
                    0. 00 0000 0015 0000:?Abort@SECListBoxDragWnd@@QAEXXZ
                  6800000000C7406C000000008BE55DC20400:
                    0. 00 0000 001E 0000:?PerformCustomInit@SECDockingListener@@UAEXPAVCWnd@@@Z
                  700000000033C08BE55DC20800:
                    0. 00 0000 0019 0000:?HandleLButtonUp@?$SECStartDragCore_T@VSECLayoutWndListener@@@@MAEHIABVCPoint@@@Z
                80:
                  A0020000000000008B4DFCE8........8BE55DC3:
                    0. 00 0000 0020 0000:?CleanupStateAfterDrag@?$SECFloatableDockingNode_T@VSECReparentableGripperEx@@@@UAEXXZ
                  A4020000000000008B4DFCE8........8BE55DC3:
                    0. 00 0000 0020 0000:?CleanupStateAfterDrag@?$SECFloatableDockingNode_T@VSECReparentableGripperEx@@@@UAEXXZ
          4DFC:
            81:
              C1:
                14020000E8........33C983F8010F9FC1518B55:
                  0. 1F 8A6A 1C75 0000:?OnUpdateLayoutAlignLeft@SECScriptHostView@@IAEXPAVCCmdUI@@@Z 002E:?OnUpdateLayoutAlignRight@SECScriptHostView@@IAEXPAVCCmdUI@@@Z 005C:?OnUpdateLayoutAlignTop@SECScriptHostView@@IAEXPAVCCmdUI@@@Z 008A:?OnUpdateLayoutAlignBottom@SECScriptHostView@@IAEXPAVCCmdUI@@@Z 00B8:?OnUpdateLayoutAlignVertcenter@SECScriptHostView@@IAEXPAVCCmdUI@@@Z 00E6:?OnUpdateLayoutAlignHorcenter@SECScriptHostView@@IAEXPAVCCmdUI@@@Z 0114:?OnUpdateLayoutSpaceEvenlyAcross@SECScriptHostView@@IAEXPAVCCmdUI@@@Z 0142:?OnUpdateLayoutSpaceEvenlyDown@SECScriptHostView@@IAEXPAVCCmdUI@@@Z 0170:?OnUpdateLayoutCnterInViewHoriz@SECScriptHostView@@IAEXPAVCCmdUI@@@Z 019E:?OnUpdateLayoutCnterInViewVert@SECScriptHostView@@IAEXPAVCCmdUI@@@Z 01CC:?OnUpdateLayoutMakesamesizeBoth@SECScriptHostView@@IAEXPAVCCmdUI@@@Z 01FA:?OnUpdateLayoutMakesamesizeHeight@SECScriptHostView@@IAEXPAVCCmdUI@@@Z 0228:?OnUpdateLayoutMakesamesizeWidth@SECScriptHostView@@IAEXPAVCCmdUI@@@Z 0256:?OnUpdateLayoutBringToFront@SECScriptHostView@@IAEXPAVCCmdUI@@@Z 0284:?OnUpdateLayoutSendToBack@SECScriptHostView@@IAEXPAVCCmdUI@@@Z 02B2:?InvalidateSelectedItems@SECScriptHostView@@IAEXXZ 0335:?OnLayoutAlignLeft@SECScriptHostView@@IAEXXZ 0433:?OnLayoutAlignRight@SECScriptHostView@@IAEXXZ 0531:?OnLayoutAlignTop@SECScriptHostView@@IAEXXZ 062F:?OnLayoutAlignBottom@SECScriptHostView@@IAEXXZ 072D:?OnLayoutAlignVertcenter@SECScriptHostView@@IAEXXZ 084B:?OnLayoutAlignHorcenter@SECScriptHostView@@IAEXXZ 0969:?OnLayoutSpaceEvenlyAcross@SECScriptHostView@@IAEXXZ 0DCC:?OnLayoutSpaceEvenlyDown@SECScriptHostView@@IAEXXZ 122F:?OnLayoutCnterInViewHoriz@SECScriptHostView@@IAEXXZ 15B0:?OnLayoutCnterInViewVert@SECScriptHostView@@IAEXXZ 193A:?MakesamesizeHeight@SECScriptHostView@@IAEXXZ 1A14:?MakesamesizeWidth@SECScriptHostView@@IAEXXZ 1AEE:?OnLayoutMakesamesizeBoth@SECScriptHostView@@IAEXXZ 1B19:?OnLayoutMakesamesizeHeight@SECScriptHostView@@IAEXXZ 1B3C:?OnLayoutMakesamesizeWidth@SECScriptHostView@@IAEXXZ 1B5F:?OnLayoutSendToBack@SECScriptHostView@@IAEXXZ 1BE7:?OnLayoutBringToFront@SECScriptHostView@@IAEXXZ
                1C020000E8........33C983F8010F9FC1518B55:
                  0. 1F AA30 1C75 0000:?OnUpdateLayoutAlignLeft@SECScriptHostView@@IAEXPAVCCmdUI@@@Z 002E:?OnUpdateLayoutAlignRight@SECScriptHostView@@IAEXPAVCCmdUI@@@Z 005C:?OnUpdateLayoutAlignTop@SECScriptHostView@@IAEXPAVCCmdUI@@@Z 008A:?OnUpdateLayoutAlignBottom@SECScriptHostView@@IAEXPAVCCmdUI@@@Z 00B8:?OnUpdateLayoutAlignVertcenter@SECScriptHostView@@IAEXPAVCCmdUI@@@Z 00E6:?OnUpdateLayoutAlignHorcenter@SECScriptHostView@@IAEXPAVCCmdUI@@@Z 0114:?OnUpdateLayoutSpaceEvenlyAcross@SECScriptHostView@@IAEXPAVCCmdUI@@@Z 0142:?OnUpdateLayoutSpaceEvenlyDown@SECScriptHostView@@IAEXPAVCCmdUI@@@Z 0170:?OnUpdateLayoutCnterInViewHoriz@SECScriptHostView@@IAEXPAVCCmdUI@@@Z 019E:?OnUpdateLayoutCnterInViewVert@SECScriptHostView@@IAEXPAVCCmdUI@@@Z 01CC:?OnUpdateLayoutMakesamesizeBoth@SECScriptHostView@@IAEXPAVCCmdUI@@@Z 01FA:?OnUpdateLayoutMakesamesizeHeight@SECScriptHostView@@IAEXPAVCCmdUI@@@Z 0228:?OnUpdateLayoutMakesamesizeWidth@SECScriptHostView@@IAEXPAVCCmdUI@@@Z 0256:?OnUpdateLayoutBringToFront@SECScriptHostView@@IAEXPAVCCmdUI@@@Z 0284:?OnUpdateLayoutSendToBack@SECScriptHostView@@IAEXPAVCCmdUI@@@Z 02B2:?InvalidateSelectedItems@SECScriptHostView@@IAEXXZ 0335:?OnLayoutAlignLeft@SECScriptHostView@@IAEXXZ 0433:?OnLayoutAlignRight@SECScriptHostView@@IAEXXZ 0531:?OnLayoutAlignTop@SECScriptHostView@@IAEXXZ 062F:?OnLayoutAlignBottom@SECScriptHostView@@IAEXXZ 072D:?OnLayoutAlignVertcenter@SECScriptHostView@@IAEXXZ 084B:?OnLayoutAlignHorcenter@SECScriptHostView@@IAEXXZ 0969:?OnLayoutSpaceEvenlyAcross@SECScriptHostView@@IAEXXZ 0DCC:?OnLayoutSpaceEvenlyDown@SECScriptHostView@@IAEXXZ 122F:?OnLayoutCnterInViewHoriz@SECScriptHostView@@IAEXXZ 15B0:?OnLayoutCnterInViewVert@SECScriptHostView@@IAEXXZ 193A:?MakesamesizeHeight@SECScriptHostView@@IAEXXZ 1A14:?MakesamesizeWidth@SECScriptHostView@@IAEXXZ 1AEE:?OnLayoutMakesamesizeBoth@SECScriptHostView@@IAEXXZ 1B19:?OnLayoutMakesamesizeHeight@SECScriptHostView@@IAEXXZ 1B3C:?OnLayoutMakesamesizeWidth@SECScriptHostView@@IAEXXZ 1B5F:?OnLayoutSendToBack@SECScriptHostView@@IAEXXZ 1BE7:?OnLayoutBringToFront@SECScriptHostView@@IAEXXZ
                8C:
                  000000E8........8BE55DC3:
                    0. 00 0000 0019 0000:?GetDocumentSize@SECScriptHostDoc@@QAEABVCSize@@XZ
                  010000E8........8BE55DC3:
                    0. 00 0000 0019 0000:?GetBtnCount@SECCustomToolBar@@QBEHXZ
                90:
                  000000E8........8BE55DC3:
                    0. 00 0000 0019 0000:?GetDocumentSize@SECScriptHostDoc@@QAEABVCSize@@XZ
                  010000E8........8BE55DC3:
                    0. 00 0000 0019 0000:?GetBtnCount@SECCustomToolBar@@QBEHXZ
                D0000000E8........8B:
                  008BE55DC3:
                    0. 00 0000 001B 0000:?GetHeadCellNode@SECLNDynamicGridLine@@UAEPAVSECLayoutNode@@XZ
                  E55DC3:
                    0. 00 0000 0019 0000:?GetNodeCellChildCount@SECLNDynamicGridLine@@UAEHXZ
              E9880000008B45FC8B9078FFFFFFFF92C80000008B:
                0. 0D 2D4E 002D 0000:?ClearListener@?$SECDockingListener_T@V?$SECOleDragDropTask_T@VSECLayoutWndListener@@@@@@UAEXXZ
                1. 0D C871 002D (!)0000:?
            83:
              C1:
                04E8........8B:
                  45FC8BE55DC3:
                    0. 00 0000 0019 0000:??0LayoutInfo@SECControlBar@@QAE@XZ (REF 000E: ??0CRect@@QAE@XZ)
                    1. 00 0000 0019 0000:??0SECDefaultToolBar@SECToolBarManager@@QAE@XZ (REF 000E: ??0CString@@QAE@XZ)
                  4DFC83C10CE8........8B4DFC:
                    0. 04 2E8B 046D 0000:??0SECDockInProgressInfo@@QAE@XZ 0040:??1SECDockInProgressInfo@@UAE@XZ 0054:?Reset@SECDockInProgressInfo@@UAEXXZ 009D:?SetDockingRect@SECDockInProgressInfo@@QAEXABVCRect@@@Z 00D3:?ClearDockingRect@SECDockInProgressInfo@@QAEXXZ 00E8:?GetDockingRect@SECDockInProgressInfo@@QBEHAAVCRect@@@Z 011A:??0SECDockInsertionConstraints@@QAE@XZ 016E:?CopyFromEx@SECDockInsertionConstraints@@UAEXABV1@@Z 019D:?Reset@SECDockInsertionConstraints@@UAEXXZ 01BA:?SetDockSite@SECDockInsertionConstraints@@QAEXK@Z 01E4:??0SECDockingNodeConstraints@@QAE@XZ 0285:??1SECDockingNodeConstraints@@UAE@XZ 02A4:?LoadFromInsertCnstr@SECDockingNodeConstraints@@UAEXABVSECDockInsertionConstraints@@@Z 02BD:?SetMRUFloatRect@SECDockingNodeConstraints@@QAEXABVCRect@@@Z 02F3:?ClearMRUFloatRect@SECDockingNodeConstraints@@QAEXXZ 0308:?GetMRUFloatRect@SECDockingNodeConstraints@@QAEHAAVCRect@@@Z 033A:?SetMRUDockCnstr@SECDockingNodeConstraints@@QAEXABVSECDockInsertionConstraints@@@Z 0364:?SetMRUDockCnstr@SECDockingNodeConstraints@@QAEXPAVSECLayoutNode@@@Z 0433:?ClearMRUDockCnstr@SECDockingNodeConstraints@@QAEXXZ 0448:?GetMRUDockCnstr@SECDockingNodeConstraints@@QAEHAAVSECDockInsertionConstraints@@@Z
                  E55DC3:
                    0. 00 0000 0016 0000:?GetManagedCount@?$SECObjectMemoryManager_T@VSECLayoutNode@@@@UAEHXZ (REF 000E: ?GetCount@CPtrList@@QBEHXZ)
                    1. 00 0000 0016 0000:?First@?$SECCArrayIterator@PAVSECBar@@PAV1@@SECArrayIteratorTypes@@UAEXXZ (REF 000E: ?FirstImp@IArrayInterface@SECArrayIteratorTypes@@IAEXXZ)
                    2. 00 0000 0016 0000:?Next@?$SECCArrayIterator@PAVSECBar@@PAV1@@SECArrayIteratorTypes@@UAEXXZ (REF 000E: ?NextImp@IArrayInterface@SECArrayIteratorTypes@@IAEXXZ)
                    3. 00 0000 0016 0000:?Prev@?$SECCArrayIterator@PAVSECBar@@PAV1@@SECArrayIteratorTypes@@UAEXXZ (REF 000E: ?PrevImp@IArrayInterface@SECArrayIteratorTypes@@IAEXXZ)
                    4. 00 0000 0016 0000:?GetSubItemCount@SECListItem@@QBEHXZ (REF 000E: ?GetSize@CPtrArray@@QBEHXZ)
                    5. 00 0000 0016 (!)0000:? (REF 000E: ??1CString@@QAE@XZ)
                08E8........8B:
                  45FC8BE55DC3:
                    0. 00 0000 0019 0000:??0_SEC_CONTROLPOS@@QAE@XZ
                  4DFC83C110E8........8B4DFC:
                    0. 04 2C94 0041 0000:??0ScxInfo@nsSysCommandEx@@QAE@PAUHWND__@@@Z
                  E55DC3:
                    0. 00 0000 0016 0000:?GetHeadChildPos@?$SECComposite_T@PAVSECLayoutNode@@@@UBEPAU__POSITION@@XZ (REF 000E: ?GetHeadPosition@CPtrList@@QBEPAU__POSITION@@XZ)
                    1. 00 0000 0016 0000:?GetTailChildPos@?$SECComposite_T@PAVSECLayoutNode@@@@UBEPAU__POSITION@@XZ (REF 000E: ?GetTailPosition@CPtrList@@QBEPAU__POSITION@@XZ)
                    2. 00 0000 0016 0000:?GetTitle@SECBtnGroup@@QBEPBDXZ (REF 000E: ??BCString@@QBEPBDXZ)
                0CE8........8B:
                  45FCC700:
                    000000008B4DFCC741:
                      0. 2A 4B32 004A 0000:??0SECListColumn@@QAE@XZ
                    ........8B4DFCC741:
                      0. 16 2D51 0041 0000:??0SECListSubItem@@QAE@XZ
                  E55DC3:
                    0. 00 0000 0016 (!)0000:? (REF 000E: ??BCString@@QBEPBDXZ)
                    1. 00 0000 0016 0000:?GetCommand@SECUserTool@@QBEPBGXZ (REF 000E: ??BCString@@QBEPBGXZ)
                    2. 00 0000 0016 0000:??1SECListColumn@@QAE@XZ (REF 000E: ??1CString@@QAE@XZ)
                10E8........8B:
                  45FCC700000000008B4DFCC741:
                    0. 5C 9AD0 007C 0000:??0tagPaneInfoEx@@QAE@XZ
                  E55DC3:
                    0. 00 0000 0016 0000:?GetArgs@SECUserTool@@QBEPBDXZ (REF 000E: ??BCString@@QBEPBDXZ)
                    1. 00 0000 0016 0000:?GetArgs@SECUserTool@@QBEPBGXZ (REF 000E: ??BCString@@QBEPBGXZ)
                    2. 00 0000 0016 0000:??1tagPaneInfoEx@@QAE@XZ (REF 000E: ??1CString@@QAE@XZ)
                14E8........8BE55DC3:
                  0. 00 0000 0016 0000:?GetDirectory@SECUserTool@@QBEPBGXZ (REF 000E: ??BCString@@QBEPBGXZ)
                  1. 00 0000 0016 0000:?GetDirectory@SECUserTool@@QBEPBDXZ (REF 000E: ??BCString@@QBEPBDXZ)
                3CE8........8B45FCC700........8B4DFC8B55:
                  0. 1A 2A28 00CB 0000:??0SECListPaintContext@@QAE@PAVCDC@@@Z
                40E8........8BE55DC3:
                  0. 00 0000 0016 0000:?GetBrowseCaption@SECBrowseEditBase@@QBEPBGXZ (REF 000E: ??BCString@@QBEPBGXZ)
                  1. 00 0000 0016 0000:?GetBrowseCaption@SECBrowseEditBase@@QBEPBDXZ (REF 000E: ??BCString@@QBEPBDXZ)
                44E8........8BE55DC3:
                  0. 00 0000 0016 0000:??1CControlBarInfo@@QAE@XZ (REF 000E: ??1CPtrArray@@UAE@XZ)
                  1. 00 0000 0016 0000:?GetBrowseCaption@SECBrowseEditBase@@QBEPBGXZ (REF 000E: ??BCString@@QBEPBGXZ)
                  2. 00 0000 0016 0000:?GetBrowseCaption@SECBrowseEditBase@@QBEPBDXZ (REF 000E: ??BCString@@QBEPBDXZ)
                58E8........8BE55DC3:
                  0. 00 0000 0016 0000:?GetNodeTitle@SECLayoutNode@@QAEPBGXZ (REF 000E: ??BCString@@QBEPBGXZ)
                  1. 00 0000 0016 0000:?GetNodeTitle@SECLayoutNode@@QAEPBDXZ (REF 000E: ??BCString@@QBEPBDXZ)
              E9:
                3CE8........8BE55DC3:
                  0. 00 0000 0016 0000:?GetHwnd@SECListBaseC@@UBEPAUHWND__@@XZ
                40E8........8BE55DC3:
                  0. 00 0000 0016 0000:?GetHwnd@SECListBaseV@@UBEPAUHWND__@@XZ
                44E8........8BE55DC3:
                  0. 00 0000 0016 0000:?GetHwnd@SECListBaseV@@UBEPAUHWND__@@XZ
            E8........:
              33C983F8FF0F95C18BC18BE55DC3:
                0. 00 0000 001D 0000:?IsSystemDefined@SECCaptionControlMsgFilter@@QBEHXZ
              83:
                C0:
                  078BE55DC3:
                    0. 00 0000 0016 0000:?GetSepHeight@SECCustomToolBar@@QBEHXZ (REF 000B: ?GetImgHeight@SECCustomToolBar@@QBEHXZ)
                    1. 00 0000 0016 0000:?GetStdBtnWidth@SECCustomToolBar@@QBEHXZ (REF 000B: ?GetImgWidth@SECCustomToolBar@@QBEHXZ)
                  0899B903000000F7F98BE55DC3:
                    0. 00 0000 001E 0000:?GetSepWidth@SECCustomToolBar@@QBEHXZ
                E00485C07402EB378B45FC8B48:
                  1C518B:
                    0. 03 2B81 0055 0000:?SendNotification@SECDateTimeCtrl@@IBEXI@Z
                  20518B:
                    0. 03 2B81 0055 0000:?SendNotification@SECDateTimeCtrl@@IBEXI@Z
              8B:
                45:
                  0883E00185C074:
                    098B4DFC51E8:
                      0. 00 0000 002B 0000:??_GSECZoomView@@MAEPAXI@Z (REF 000B: ??1SECZoomView@@MAE@XZ)
                      1. 00 0000 002B 0000:??_GSECPanWnd@@UAEPAXI@Z (REF 000B: ??1SECPanWnd@@UAE@XZ)
                      2. 00 0000 002B 0000:??_GSECPanView@@UAEPAXI@Z (REF 000B: ??1SECPanView@@UAE@XZ)
                      3. 00 0000 002B 0000:??_GSECCompressFile@@UAEPAXI@Z (REF 000B: ??1SECCompressFile@@UAE@XZ)
                      4. 00 0000 002B 0000:??_GSECRegistry@@UAEPAXI@Z (REF 000B: ??1SECRegistry@@UAE@XZ)
                      5. 00 0000 002B 0000:??_GSECRandom@@UAEPAXI@Z (REF 000B: ??1SECRandom@@UAE@XZ)
                      6. 00 0000 002B 0000:??_GSECIcon@@UAEPAXI@Z (REF 000B: ??1SECIcon@@UAE@XZ)
                      7. 00 0000 002B 0000:??_GSECComp@@UAEPAXI@Z (REF 000B: ??1SECComp@@UAE@XZ)
                      8. 00 0000 002B 0000:??_GSECPersistentTreeNode@@UAEPAXI@Z (REF 000B: ??1SECPersistentTreeNode@@UAE@XZ)
                      9. 00 0000 002B 0000:??_GSECPersTreeNodeKeyValuePair@SECPersistentTreeNode@@UAEPAXI@Z (REF 000B: ??1SECPersTreeNodeKeyValuePair@SECPersistentTreeNode@@UAE@XZ)
                      10. 00 0000 002B 0000:??_G?$CTypedPtrList@VCPtrList@@PAVSECPersTreeNodeKeyValuePair@SECPersistentTreeNode@@@@UAEPAXI@Z (REF 000B: ??1?$CTypedPtrList@VCPtrList@@PAVSECPersTreeNodeKeyValuePair@SECPersistentTreeNode@@@@UAE@XZ)
                      11. 00 0000 002B 0000:??_G?$_CTypedPtrList@VCPtrList@@PAVSECPersTreeNodeKeyValuePair@SECPersistentTreeNode@@@@UAEPAXI@Z (REF 000B: ??1?$_CTypedPtrList@VCPtrList@@PAVSECPersTreeNodeKeyValuePair@SECPersistentTreeNode@@@@UAE@XZ)
                      12. 00 0000 002B 0000:??_G?$CTypedPtrList@VCPtrList@@PAVSECPersistentTreeNode@@@@UAEPAXI@Z (REF 000B: ??1?$CTypedPtrList@VCPtrList@@PAVSECPersistentTreeNode@@@@UAE@XZ)
                      13. 00 0000 002B 0000:??_G?$_CTypedPtrList@VCPtrList@@PAVSECPersistentTreeNode@@@@UAEPAXI@Z (REF 000B: ??1?$_CTypedPtrList@VCPtrList@@PAVSECPersistentTreeNode@@@@UAE@XZ)
                      14. 00 0000 002B 0000:??_GSECFileSystem@@UAEPAXI@Z (REF 000B: ??1SECFileSystem@@UAE@XZ)
                      15. 00 0000 002B 0000:??_G?$CTypedPtrList@VCPtrList@@PAVCDocTemplate@@@@UAEPAXI@Z (REF 000B: ??1?$CTypedPtrList@VCPtrList@@PAVCDocTemplate@@@@UAE@XZ)
                      16. 00 0000 002B 0000:??_G?$_CTypedPtrList@VCPtrList@@PAVCDocTemplate@@@@UAEPAXI@Z (REF 000B: ??1?$_CTypedPtrList@VCPtrList@@PAVCDocTemplate@@@@UAE@XZ)
                      17. 00 0000 002B 0000:??_GSECCryptoFile@@UAEPAXI@Z (REF 000B: ??1SECCryptoFile@@UAE@XZ)
                      18. 00 0000 002B 0000:??_GSECWSLBEditorEx@@UAEPAXI@Z (REF 000B: ??1SECWSLBEditorEx@@UAE@XZ)
                      19. 00 0000 002B 0000:??_GSECWsMgrDialogEx@@UAEPAXI@Z (REF 000B: ??1SECWsMgrDialogEx@@UAE@XZ)
                      20. 00 0000 002B 0000:??_GSECTrayIcon@@UAEPAXI@Z (REF 000B: ??1SECTrayIcon@@UAE@XZ)
                      21. 00 0000 002B 0000:??_GSECUserToolsDlg@@UAEPAXI@Z (REF 000B: ??1SECUserToolsDlg@@UAE@XZ)
                      22. 00 0000 002B 0000:??_GSECUserTool@@UAEPAXI@Z (REF 000B: ??1SECUserTool@@UAE@XZ)
                      23. 00 0000 002B 0000:??_GSECTNWinApp@@UAEPAXI@Z (REF 000B: ??1SECTNWinApp@@UAE@XZ)
                      24. 00 0000 002B 0000:??_GSECTNView@@MAEPAXI@Z (REF 000B: ??1SECTNView@@MAE@XZ)
                      25. 00 0000 002B 0000:??_GSECTNDocument@@UAEPAXI@Z (REF 000B: ??1SECTNDocument@@UAE@XZ)
                      26. 00 0000 002B 0000:??_GSECTNFileDialog@@UAEPAXI@Z (REF 000B: ??1SECTNFileDialog@@UAE@XZ)
                      27. 00 0000 002B 0000:??_GSECTNDC@@UAEPAXI@Z (REF 000B: ??1SECTNDC@@UAE@XZ)
                      28. 00 0000 002B 0000:??_GSECTNBitmap@@UAEPAXI@Z (REF 000B: ??1SECTNBitmap@@UAE@XZ)
                      29. 00 0000 002B 0000:??_GSECWorkspaceManagerEx@@UAEPAXI@Z (REF 000B: ??1SECWorkspaceManagerEx@@UAE@XZ)
                      30. 00 0000 002B 0000:??_G?$CTypedPtrList@VCPtrList@@PAVCFrameWnd@@@@UAEPAXI@Z (REF 000B: ??1?$CTypedPtrList@VCPtrList@@PAVCFrameWnd@@@@UAE@XZ)
                      31. 00 0000 002B 0000:??_G?$_CTypedPtrList@VCPtrList@@PAVCFrameWnd@@@@UAEPAXI@Z (REF 000B: ??1?$_CTypedPtrList@VCPtrList@@PAVCFrameWnd@@@@UAE@XZ)
                      32. 00 0000 002B 0000:??_G?$CMap@PAVCFrameWnd@@PAV1@PAVSECPersistentTreeNode@@PAV2@@@UAEPAXI@Z (REF 000B: ??1?$CMap@PAVCFrameWnd@@PAV1@PAVSECPersistentTreeNode@@PAV2@@@UAE@XZ)
                      33. 00 0000 002B 0000:??_GSECAssignKeyDlg@@UAEPAXI@Z (REF 000B: ??1SECAssignKeyDlg@@UAE@XZ)
                      34. 00 0000 002B 0000:??_GSECShortcutDlg@@UAEPAXI@Z (REF 000B: ??1SECShortcutDlg@@UAE@XZ)
                      35. 00 0000 002B 0000:??_GSECCommandList@@UAEPAXI@Z (REF 000B: ??1SECCommandList@@UAE@XZ)
                      36. 00 0000 002B 0000:??_G?$CArray@USECCommand@@AAU1@@@UAEPAXI@Z (REF 000B: ??1?$CArray@USECCommand@@AAU1@@@UAE@XZ)
                      37. 00 0000 002B 0000:??_GSECShortcutTable@@UAEPAXI@Z (REF 000B: ??1SECShortcutTable@@UAE@XZ)
                      38. 00 0000 002B 0000:??_G?$CArray@UtagACCEL@@AAU1@@@UAEPAXI@Z (REF 000B: ??1?$CArray@UtagACCEL@@AAU1@@@UAE@XZ)
                      39. 00 0000 002B 0000:??_GSECWorkspaceManager@@UAEPAXI@Z (REF 000B: ??1SECWorkspaceManager@@UAE@XZ)
                      40. 00 0000 002B 0000:??_GSECWorkspaceState@@UAEPAXI@Z (REF 000B: ??1SECWorkspaceState@@UAE@XZ)
                      41. 00 0000 002B 0000:??_GSECWindowInfo@@UAEPAXI@Z (REF 000B: ??1SECWindowInfo@@UAE@XZ)
                      42. 00 0000 002B 0000:??_GSECWorkspaceListBoxEditor@@UAEPAXI@Z (REF 000B: ??1SECWorkspaceListBoxEditor@@UAE@XZ)
                      43. 00 0000 002B 0000:??_GSECWorkspaceManagerDialog@@UAEPAXI@Z (REF 000B: ??1SECWorkspaceManagerDialog@@UAE@XZ)
                      44. 00 0000 002B 0000:??_GSECTipOfDay@@UAEPAXI@Z (REF 000B: ??1SECTipOfDay@@UAE@XZ)
                      45. 00 0000 002B 0000:??_GSECSplashWnd@@UAEPAXI@Z (REF 000B: ??1SECSplashWnd@@UAE@XZ)
                      46. 00 0000 002B 0000:??_GSECBitmapDialog@@UAEPAXI@Z (REF 000B: ??1SECBitmapDialog@@UAE@XZ)
                      47. 00 0000 002B 0000:??_GSECMenuBar@@UAEPAXI@Z (REF 000B: ??1SECMenuBar@@UAE@XZ)
                      48. 00 0000 002B 0000:??_GSECMenuBarFeature@@UAEPAXI@Z (REF 000B: ??1SECMenuBarFeature@@UAE@XZ)
                      49. 00 0000 002B 0000:??_GSECMDIMenuBar@@UAEPAXI@Z (REF 000B: ??1SECMDIMenuBar@@UAE@XZ)
                      50. 00 0000 002B 0000:??_G?$CMap@IIKK@@UAEPAXI@Z (REF 000B: ??1?$CMap@IIKK@@UAE@XZ)
                      51. 00 0000 002B 0000:??_GSECComboBtnEdit@@UAEPAXI@Z (REF 000B: ??1SECComboBtnEdit@@UAE@XZ)
                      52. 00 0000 002B 0000:??_GSECComboBtn@@UAEPAXI@Z (REF 000B: ??1SECComboBtn@@UAE@XZ)
                      53. 00 0000 002B 0000:??_GSECBmpMgr@@UAEPAXI@Z (REF 000B: ??1SECBmpMgr@@UAE@XZ)
                      54. 00 0000 002B 0000:??_G?$CTypedPtrArray@VCPtrArray@@PAUBmpInfo@SECBmpMgr@@@@UAEPAXI@Z (REF 000B: ??1?$CTypedPtrArray@VCPtrArray@@PAUBmpInfo@SECBmpMgr@@@@UAE@XZ)
                      55. 00 0000 002B 0000:??_G?$CMap@IIPAUBmpItem@SECBmpMgr@@PAU12@@@UAEPAXI@Z (REF 000B: ??1?$CMap@IIPAUBmpItem@SECBmpMgr@@PAU12@@@UAE@XZ)
                      56. 00 0000 002B 0000:??_GSECBmpMenuPlugIn@@UAEPAXI@Z (REF 000B: ??1SECBmpMenuPlugIn@@UAE@XZ)
                      57. 00 0000 002B 0000:??_GSECBmpMenuItemInfo@@UAEPAXI@Z (REF 000B: ??1SECBmpMenuItemInfo@@UAE@XZ)
                      58. 00 0000 002B 0000:??_G?$CArray@PAUHMENU__@@PAU1@@@UAEPAXI@Z (REF 000B: ??1?$CArray@PAUHMENU__@@PAU1@@@UAE@XZ)
                      59. 00 0000 002B 0000:??_G?$CArray@PAVSECBmpMenuItemInfo@@PAV1@@@UAEPAXI@Z (REF 000B: ??1?$CArray@PAVSECBmpMenuItemInfo@@PAV1@@@UAE@XZ)
                      60. 00 0000 002B 0000:??_G?$CArray@HH@@UAEPAXI@Z (REF 000B: ??1?$CArray@HH@@UAE@XZ)
                      61. 00 0000 002B 0000:??_G?$CList@PAVSECBmpMenuItemInfo@@PAV1@@@UAEPAXI@Z (REF 000B: ??1?$CList@PAVSECBmpMenuItemInfo@@PAV1@@@UAE@XZ)
                      62. 00 0000 002B 0000:??_G?$CMap@PAUHMENU__@@PAU1@PAUSECBmpMenuInfo@SECBmpMenuPlugIn@@PAU23@@@UAEPAXI@Z (REF 000B: ??1?$CMap@PAUHMENU__@@PAU1@PAUSECBmpMenuInfo@SECBmpMenuPlugIn@@PAU23@@@UAE@XZ)
                      63. 00 0000 002B 0000:??_G?$CMap@IIII@@UAEPAXI@Z (REF 000B: ??1?$CMap@IIII@@UAE@XZ)
                      64. 00 0000 002B 0000:??_GSECToolBarsDlg@@UAEPAXI@Z (REF 000B: ??1SECToolBarsDlg@@UAE@XZ)
                      65. 00 0000 002B 0000:??_GSECToolBarsPage@@UAEPAXI@Z (REF 000B: ??1SECToolBarsPage@@UAE@XZ)
                      66. 00 0000 002B 0000:??_GSECNewToolBar@@UAEPAXI@Z (REF 000B: ??1SECNewToolBar@@UAE@XZ)
                      67. 00 0000 002B 0000:??_GSECCustomizeToolBar@@UAEPAXI@Z (REF 000B: ??1SECCustomizeToolBar@@UAE@XZ)
                      68. 00 0000 002B 0000:??_GSECToolBarCmdPage@@UAEPAXI@Z (REF 000B: ??1SECToolBarCmdPage@@UAE@XZ)
                      69. 00 0000 002B 0000:??_GCGroupArray@SECToolBarCmdPage@@UAEPAXI@Z (REF 000B: ??1CGroupArray@SECToolBarCmdPage@@UAE@XZ)
                      70. 00 0000 002B 0000:??_GSECBtnGroup@@UAEPAXI@Z (REF 000B: ??1SECBtnGroup@@UAE@XZ)
                      71. 00 0000 002B 0000:??_GSECTBBtnGroup@@UAEPAXI@Z (REF 000B: ??1SECTBBtnGroup@@UAE@XZ)
                      72. 00 0000 002B 0000:??_GSECMenuBtnGroup@@UAEPAXI@Z (REF 000B: ??1SECMenuBtnGroup@@UAE@XZ)
                      73. 00 0000 002B 0000:??_GSECMenuListBox@@UAEPAXI@Z (REF 000B: ??1SECMenuListBox@@UAE@XZ)
                      74. 00 0000 002B 0000:??_GSECToolBarManager@@UAEPAXI@Z (REF 000B: ??1SECToolBarManager@@UAE@XZ)
                      75. 00 0000 002B 0000:??_GSECCustomToolBar@@UAEPAXI@Z (REF 000B: ??1SECCustomToolBar@@UAE@XZ)
                      76. 00 0000 002B 0000:??_GSECBtnArray@SECCustomToolBar@@UAEPAXI@Z (REF 000B: ??1SECBtnArray@SECCustomToolBar@@UAE@XZ)
                      77. 00 0000 002B 0000:??_GSECCustomToolBarInfoEx@@UAEPAXI@Z (REF 000B: ??1SECCustomToolBarInfoEx@@UAE@XZ)
                      78. 00 0000 002B 0000:??_GSECBtnInfoArray@@UAEPAXI@Z (REF 000B: ??1SECBtnInfoArray@@UAE@XZ)
                      79. 00 0000 002B 0000:??_GSECMDIFrameWnd@@MAEPAXI@Z (REF 000B: ??1SECMDIFrameWnd@@MAE@XZ)
                      80. 00 0000 002B 0000:??_GDescriptorTable@SECMsgFilter@@UAEPAXI@Z (REF 000B: ??1DescriptorTable@SECMsgFilter@@UAE@XZ)
                      81. 00 0000 002B 0000:??_GSECMDIChildWnd@@MAEPAXI@Z (REF 000B: ??1SECMDIChildWnd@@MAE@XZ)
                      82. 00 0000 002B 0000:??_GSECControlBarMDIChildWnd@@MAEPAXI@Z (REF 000B: ??1SECControlBarMDIChildWnd@@MAE@XZ)
                      83. 00 0000 002B 0000:??_G?$CArray@PAUDescriptor@SECMsgFilter@@PAU12@@@UAEPAXI@Z (REF 000B: ??1?$CArray@PAUDescriptor@SECMsgFilter@@PAU12@@@UAE@XZ)
                      84. 00 0000 002B 0000:??_G?$CMap@IIPAUHMENU__@@PAU1@@@UAEPAXI@Z (REF 000B: ??1?$CMap@IIPAUHMENU__@@PAU1@@@UAE@XZ)
                      85. 00 0000 002B 0000:??_G?$CArray@II@@UAEPAXI@Z (REF 000B: ??1?$CArray@II@@UAE@XZ)
                      86. 00 0000 002B 0000:??_GSECFrameWnd@@MAEPAXI@Z (REF 000B: ??1SECFrameWnd@@MAE@XZ)
                      87. 00 0000 002B 0000:??_GSECWorksheet@@UAEPAXI@Z (REF 000B: ??1SECWorksheet@@UAE@XZ)
                      88. 00 0000 002B 0000:??_GSECWorkbookClient@@UAEPAXI@Z (REF 000B: ??1SECWorkbookClient@@UAE@XZ)
                      89. 00 0000 002B 0000:??_GSECWorkbook@@UAEPAXI@Z (REF 000B: ??1SECWorkbook@@UAE@XZ)
                      90. 00 0000 002B 0000:??_GSECControlBarWorksheet@@MAEPAXI@Z (REF 000B: ??1SECControlBarWorksheet@@MAE@XZ)
                      91. 00 0000 002B 0000:??_GSECToplevelFrame@@UAEPAXI@Z (REF 000B: ??1SECToplevelFrame@@UAE@XZ)
                      92. 00 0000 002B 0000:??_GSECFDIFrameWnd@@UAEPAXI@Z (REF 000B: ??1SECFDIFrameWnd@@UAE@XZ)
                      93. 00 0000 002B 0000:??_GSECWindowsDialog@@UAEPAXI@Z (REF 000B: ??1SECWindowsDialog@@UAE@XZ)
                      94. 00 0000 002B 0000:??_GSECFDIChildWnd@@UAEPAXI@Z (REF 000B: ??1SECFDIChildWnd@@UAE@XZ)
                      95. 00 0000 002B 0000:??_G?$CTypedPtrList@VCPtrList@@PAVCWnd@@@@UAEPAXI@Z (REF 000B: ??1?$CTypedPtrList@VCPtrList@@PAVCWnd@@@@UAE@XZ)
                      96. 00 0000 002B 0000:??_G?$CTypedPtrList@VCPtrList@@PAVSECLayoutNode@@@@UAEPAXI@Z (REF 000B: ??1?$CTypedPtrList@VCPtrList@@PAVSECLayoutNode@@@@UAE@XZ)
                      97. 00 0000 002B 0000:??_G?$CTypedPtrList@VCPtrList@@PAVSECLayoutWndListener@@@@UAEPAXI@Z (REF 000B: ??1?$CTypedPtrList@VCPtrList@@PAVSECLayoutWndListener@@@@UAE@XZ)
                      98. 00 0000 002B 0000:??_G?$_CTypedPtrList@VCPtrList@@PAVCWnd@@@@UAEPAXI@Z (REF 000B: ??1?$_CTypedPtrList@VCPtrList@@PAVCWnd@@@@UAE@XZ)
                      99. 00 0000 002B 0000:??_G?$_CTypedPtrList@VCPtrList@@PAVSECLayoutNode@@@@UAEPAXI@Z (REF 000B: ??1?$_CTypedPtrList@VCPtrList@@PAVSECLayoutNode@@@@UAE@XZ)
                      100. 00 0000 002B 0000:??_G?$_CTypedPtrList@VCPtrList@@PAVSECLayoutWndListener@@@@UAEPAXI@Z (REF 000B: ??1?$_CTypedPtrList@VCPtrList@@PAVSECLayoutWndListener@@@@UAE@XZ)
                      101. 00 0000 002B 0000:??_GSECSplitterWnd@@UAEPAXI@Z (REF 000B: ??1SECSplitterWnd@@UAE@XZ)
                      102. 00 0000 002B 0000:??_G?$CTypedPtrArray@VCPtrArray@@PAVCWnd@@@@UAEPAXI@Z (REF 000B: ??1?$CTypedPtrArray@VCPtrArray@@PAVCWnd@@@@UAE@XZ)
                      103. 00 0000 002B 0000:??_GSECSplitterBase@@UAEPAXI@Z (REF 000B: ??1SECSplitterBase@@UAE@XZ)
                      104. 00 0000 002B 0000:??_GSECSplitterPaneInfo@@UAEPAXI@Z (REF 000B: ??1SECSplitterPaneInfo@@UAE@XZ)
                      105. 00 0000 002B 0000:??_GSECLayoutNodeSplitter@@UAEPAXI@Z (REF 000B: ??1SECLayoutNodeSplitter@@UAE@XZ)
                      106. 00 0000 002B 0000:??_G?$CTypedPtrArray@VCPtrArray@@PAVSECLayoutNode@@@@UAEPAXI@Z (REF 000B: ??1?$CTypedPtrArray@VCPtrArray@@PAVSECLayoutNode@@@@UAE@XZ)
                      107. 00 0000 002B 0000:??_GSECLNVirtualSplitter@@UAEPAXI@Z (REF 000B: ??1SECLNVirtualSplitter@@UAE@XZ)
                      108. 00 0000 002B 0000:??_GSECLayoutNodeGripperEx@@UAEPAXI@Z (REF 000B: ??1SECLayoutNodeGripperEx@@UAE@XZ)
                      109. 00 0000 002B 0000:??_GSECLayoutWndListener@@UAEPAXI@Z (REF 000B: ??1SECLayoutWndListener@@UAE@XZ)
                      110. 00 0000 002B 0000:??_GSECLNRelativeConstraint@@UAEPAXI@Z (REF 000B: ??1SECLNRelativeConstraint@@UAE@XZ)
                      111. 00 0000 002B 0000:??_G?$CTypedPtrList@VCPtrList@@PAVSECLNRelativeConstraint@@@@UAEPAXI@Z (REF 000B: ??1?$CTypedPtrList@VCPtrList@@PAVSECLNRelativeConstraint@@@@UAE@XZ)
                      112. 00 0000 002B 0000:??_G?$CTypedPtrMap@VCMapPtrToPtr@@PAVSECLayoutNode@@PAVCRect@@@@UAEPAXI@Z (REF 000B: ??1?$CTypedPtrMap@VCMapPtrToPtr@@PAVSECLayoutNode@@PAVCRect@@@@UAE@XZ)
                      113. 00 0000 002B 0000:??_G?$_CTypedPtrList@VCPtrList@@PAVSECLNRelativeConstraint@@@@UAEPAXI@Z (REF 000B: ??1?$_CTypedPtrList@VCPtrList@@PAVSECLNRelativeConstraint@@@@UAE@XZ)
                      114. 00 0000 002B 0000:??_GSECGridBagConstraints@@UAEPAXI@Z (REF 000B: ??1SECGridBagConstraints@@UAE@XZ)
                      115. 00 0000 002B 0000:??_G?$CTypedPtrMap@VCMapPtrToPtr@@PAVSECLayoutNode@@PAVSECGridBagConstraints@@@@UAEPAXI@Z (REF 000B: ??1?$CTypedPtrMap@VCMapPtrToPtr@@PAVSECLayoutNode@@PAVSECGridBagConstraints@@@@UAE@XZ)
                      116. 00 0000 002B 0000:??_G?$CArray@MM@@UAEPAXI@Z (REF 000B: ??1?$CArray@MM@@UAE@XZ)
                      117. 00 0000 002B 0000:??_G?$CTypedPtrMap@VCMapPtrToPtr@@PAVSECLayoutNode@@PAVSECLNDynamicGridLineCell@@@@UAEPAXI@Z (REF 000B: ??1?$CTypedPtrMap@VCMapPtrToPtr@@PAVSECLayoutNode@@PAVSECLNDynamicGridLineCell@@@@UAE@XZ)
                      118. 00 0000 002B 0000:??_G?$CTypedPtrMap@VCMapPtrToPtr@@PAVSECLayoutNode@@PAVSECDynGridInsertConstraints@@@@UAEPAXI@Z (REF 000B: ??1?$CTypedPtrMap@VCMapPtrToPtr@@PAVSECLayoutNode@@PAVSECDynGridInsertConstraints@@@@UAE@XZ)
                      119. 00 0000 002B 0000:??_G?$CTypedPtrList@VCPtrList@@PAVSECDynGridInsertConstraints@@@@UAEPAXI@Z (REF 000B: ??1?$CTypedPtrList@VCPtrList@@PAVSECDynGridInsertConstraints@@@@UAE@XZ)
                      120. 00 0000 002B 0000:??_G?$_CTypedPtrList@VCPtrList@@PAVSECDynGridInsertConstraints@@@@UAEPAXI@Z (REF 000B: ??1?$_CTypedPtrList@VCPtrList@@PAVSECDynGridInsertConstraints@@@@UAE@XZ)
                      121. 00 0000 002B 0000:??_GSECVirtualDockbar@@UAEPAXI@Z (REF 000B: ??1SECVirtualDockbar@@UAE@XZ)
                      122. 00 0000 002B 0000:??_GSECDockingListener@@UAEPAXI@Z (REF 000B: ??1SECDockingListener@@UAE@XZ)
                      123. 00 0000 002B 0000:??_G?$SECDockingListener_T@V?$SECLocalDragDropTask_T@VSECLayoutWndListener@@@@@@UAEPAXI@Z (REF 000B: ??1?$SECDockingListener_T@V?$SECLocalDragDropTask_T@VSECLayoutWndListener@@@@@@UAE@XZ)
                      124. 00 0000 002B 0000:??_G?$SECLocalDragDropTask_T@VSECLayoutWndListener@@@@UAEPAXI@Z (REF 000B: ??1?$SECLocalDragDropTask_T@VSECLayoutWndListener@@@@UAE@XZ)
                      125. 00 0000 002B 0000:??_G?$SECStartDragCore_T@VSECLayoutWndListener@@@@UAEPAXI@Z (REF 000B: ??1?$SECStartDragCore_T@VSECLayoutWndListener@@@@UAE@XZ)
                      126. 00 0000 002B 0000:??_GSECLayoutMiniFloatWnd@@UAEPAXI@Z (REF 000B: ??1SECLayoutMiniFloatWnd@@UAE@XZ)
                      127. 00 0000 002B 0000:??_G?$CTypedPtrList@VCPtrList@@PAVSECLayoutMiniFloatWnd@@@@UAEPAXI@Z (REF 000B: ??1?$CTypedPtrList@VCPtrList@@PAVSECLayoutMiniFloatWnd@@@@UAE@XZ)
                      128. 00 0000 002B 0000:??_G?$_CTypedPtrList@VCPtrList@@PAVSECLayoutMiniFloatWnd@@@@UAEPAXI@Z (REF 000B: ??1?$_CTypedPtrList@VCPtrList@@PAVSECLayoutMiniFloatWnd@@@@UAE@XZ)
                      129. 00 0000 002B 0000:??_GSECReparentableGripperEx@@UAEPAXI@Z (REF 000B: ??1SECReparentableGripperEx@@UAE@XZ)
                      130. 00 0000 002B 0000:??_GSECFloatingTargetGripper@@UAEPAXI@Z (REF 000B: ??1SECFloatingTargetGripper@@UAE@XZ)
                      131. 00 0000 002B 0000:??_G?$SECReparentableLayoutNodeDC_T@VSECLayoutNodeGripperEx@@@@UAEPAXI@Z (REF 000B: ??1?$SECReparentableLayoutNodeDC_T@VSECLayoutNodeGripperEx@@@@UAE@XZ)
                      132. 00 0000 002B 0000:??_G?$SECFloatableDockingNode_T@VSECReparentableGripperEx@@@@UAEPAXI@Z (REF 000B: ??1?$SECFloatableDockingNode_T@VSECReparentableGripperEx@@@@UAE@XZ)
                      133. 00 0000 002B 0000:??_G?$SECDockingListener_T@V?$SECOleDragDropTask_T@VSECLayoutWndListener@@@@@@UAEPAXI@Z (REF 000B: ??1?$SECDockingListener_T@V?$SECOleDragDropTask_T@VSECLayoutWndListener@@@@@@UAE@XZ)
                      134. 00 0000 002B 0000:??_G?$SECOleDragDropTask_T@VSECLayoutWndListener@@@@UAEPAXI@Z (REF 000B: ??1?$SECOleDragDropTask_T@VSECLayoutWndListener@@@@UAE@XZ)
                      135. 00 0000 002B 0000:??_G?$CTypedPtrMap@VCMapPtrToPtr@@PAVSECLayoutNode@@PAVISECLNContainer@@@@UAEPAXI@Z (REF 000B: ??1?$CTypedPtrMap@VCMapPtrToPtr@@PAVSECLayoutNode@@PAVISECLNContainer@@@@UAE@XZ)
                      136. 00 0000 002B 0000:??_G?$CTypedPtrMap@VCMapPtrToPtr@@PAVSECLayoutNode@@PAVSECDockingNodeConstraints@@@@UAEPAXI@Z (REF 000B: ??1?$CTypedPtrMap@VCMapPtrToPtr@@PAVSECLayoutNode@@PAVSECDockingNodeConstraints@@@@UAE@XZ)
                      137. 00 0000 002B 0000:??_G?$CTypedPtrList@VCPtrList@@PAVSECLNHwndContainer@@@@UAEPAXI@Z (REF 000B: ??1?$CTypedPtrList@VCPtrList@@PAVSECLNHwndContainer@@@@UAE@XZ)
                      138. 00 0000 002B 0000:??_G?$CTypedPtrList@VCPtrList@@PAV?$SECObjectMemoryManager_T@VSECLayoutNode@@@@@@UAEPAXI@Z (REF 000B: ??1?$CTypedPtrList@VCPtrList@@PAV?$SECObjectMemoryManager_T@VSECLayoutNode@@@@@@UAE@XZ)
                      139. 00 0000 002B 0000:??_G?$CTypedPtrList@VCPtrList@@PAVISECLNContainer@@@@UAEPAXI@Z (REF 000B: ??1?$CTypedPtrList@VCPtrList@@PAVISECLNContainer@@@@UAE@XZ)
                      140. 00 0000 002B 0000:??_G?$CTypedPtrList@VCPtrList@@PAVSECDockingNodeConstraints@@@@UAEPAXI@Z (REF 000B: ??1?$CTypedPtrList@VCPtrList@@PAVSECDockingNodeConstraints@@@@UAE@XZ)
                      141. 00 0000 002B 0000:??_G?$_CTypedPtrList@VCPtrList@@PAVSECLNHwndContainer@@@@UAEPAXI@Z (REF 000B: ??1?$_CTypedPtrList@VCPtrList@@PAVSECLNHwndContainer@@@@UAE@XZ)
                      142. 00 0000 002B 0000:??_G?$_CTypedPtrList@VCPtrList@@PAV?$SECObjectMemoryManager_T@VSECLayoutNode@@@@@@UAEPAXI@Z (REF 000B: ??1?$_CTypedPtrList@VCPtrList@@PAV?$SECObjectMemoryManager_T@VSECLayoutNode@@@@@@UAE@XZ)
                      143. 00 0000 002B 0000:??_G?$_CTypedPtrList@VCPtrList@@PAVISECLNContainer@@@@UAEPAXI@Z (REF 000B: ??1?$_CTypedPtrList@VCPtrList@@PAVISECLNContainer@@@@UAE@XZ)
                      144. 00 0000 002B 0000:??_G?$_CTypedPtrList@VCPtrList@@PAVSECDockingNodeConstraints@@@@UAEPAXI@Z (REF 000B: ??1?$_CTypedPtrList@VCPtrList@@PAVSECDockingNodeConstraints@@@@UAE@XZ)
                      145. 00 0000 002B 0000:??_GSECTiff@@UAEPAXI@Z (REF 000B: ??1SECTiff@@UAE@XZ)
                      146. 00 0000 002B 0000:??_GSECTarga@@UAEPAXI@Z (REF 000B: ??1SECTarga@@UAE@XZ)
                      147. 00 0000 002B 0000:??_GSECPcx@@UAEPAXI@Z (REF 000B: ??1SECPcx@@UAE@XZ)
                      148. 00 0000 002B 0000:??_GSECGif@@UAEPAXI@Z (REF 000B: ??1SECGif@@UAE@XZ)
                      149. 00 0000 002B 0000:??_GSECOleDropTarget@@UAEPAXI@Z (REF 000B: ??1SECOleDropTarget@@UAE@XZ)
                      150. 00 0000 002B 0000:??_GSECOleDropSource@@UAEPAXI@Z (REF 000B: ??1SECOleDropSource@@UAE@XZ)
                      151. 00 0000 002B 0000:??_GSECOleServerItem@@UAEPAXI@Z (REF 000B: ??1SECOleServerItem@@UAE@XZ)
                      152. 00 0000 002B 0000:??_GSECDocObjectServerItem@@UAEPAXI@Z (REF 000B: ??1SECDocObjectServerItem@@UAE@XZ)
                      153. 00 0000 002B 0000:??_GSECOleCntrFrameWnd@@UAEPAXI@Z (REF 000B: ??1SECOleCntrFrameWnd@@UAE@XZ)
                      154. 00 0000 002B 0000:??_GSECDockState@@UAEPAXI@Z (REF 000B: ??1SECDockState@@UAE@XZ)
                      155. 00 0000 002B 0000:??_GSECControlBarInfoEx@@UAEPAXI@Z (REF 000B: ??1SECControlBarInfoEx@@UAE@XZ)
                      156. 00 0000 002B 0000:??_GSECDockableFrame@@MAEPAXI@Z (REF 000B: ??1SECDockableFrame@@MAE@XZ)
                      157. 00 0000 002B 0000:??_GSECToolBar@@UAEPAXI@Z (REF 000B: ??1SECToolBar@@UAE@XZ)
                      158. 00 0000 002B 0000:??_GSECStatusBar@@UAEPAXI@Z (REF 000B: ??1SECStatusBar@@UAE@XZ)
                      159. 00 0000 002B 0000:??_GSECControlBarManager@@UAEPAXI@Z (REF 000B: ??1SECControlBarManager@@UAE@XZ)
                      160. 00 0000 002B 0000:??_GSECFrameBar@@MAEPAXI@Z (REF 000B: ??1SECFrameBar@@MAE@XZ)
                      161. 00 0000 002B 0000:??_GSECDockBar@@UAEPAXI@Z (REF 000B: ??1SECDockBar@@UAE@XZ)
                      162. 00 0000 002B 0000:??_GSplitter@SECDockBar@@UAEPAXI@Z (REF 000B: ??1Splitter@SECDockBar@@UAE@XZ)
                      163. 00 0000 002B 0000:??_GClientEdge@SECDockBar@@UAEPAXI@Z (REF 000B: ??1ClientEdge@SECDockBar@@UAE@XZ)
                      164. 00 0000 002B 0000:??_GSECMiniDockFrameWnd@@UAEPAXI@Z (REF 000B: ??1SECMiniDockFrameWnd@@UAE@XZ)
                      165. 00 0000 002B 0000:??_GSECDialogBar@@UAEPAXI@Z (REF 000B: ??1SECDialogBar@@UAE@XZ)
                      166. 00 0000 002B 0000:??_GSECControlBar@@UAEPAXI@Z (REF 000B: ??1SECControlBar@@UAE@XZ)
                      167. 00 0000 002B 0000:??_GSECGripperInfo@@UAEPAXI@Z (REF 000B: ??1SECGripperInfo@@UAE@XZ)
                      168. 00 0000 002B 0000:??_G?$CMap@IIHH@@UAEPAXI@Z (REF 000B: ??1?$CMap@IIHH@@UAE@XZ)
                      169. 00 0000 002B 0000:??_G?$CMap@HAAHHAAH@@UAEPAXI@Z (REF 000B: ??1?$CMap@HAAHHAAH@@UAE@XZ)
                      170. 00 0000 002B 0000:??_GSECMultiDocTemplate@@UAEPAXI@Z (REF 000B: ??1SECMultiDocTemplate@@UAE@XZ)
                      171. 00 0000 002B 0000:??_GSECTreeView@@UAEPAXI@Z (REF 000B: ??1SECTreeView@@UAE@XZ)
                      172. 00 0000 002B 0000:??_G?$CMap@PAU_TREEITEM@@AAPAU1@PAVCStringArray@@PAV2@@@UAEPAXI@Z (REF 000B: ??1?$CMap@PAU_TREEITEM@@AAPAU1@PAVCStringArray@@PAV2@@@UAE@XZ)
                      173. 00 0000 002B 0000:??_GSECTreeCtrl@@UAEPAXI@Z (REF 000B: ??1SECTreeCtrl@@UAE@XZ)
                      174. 00 0000 002B 0000:??_GSECTreeBaseV@@UAEPAXI@Z (REF 000B: ??1SECTreeBaseV@@UAE@XZ)
                      175. 00 0000 002B 0000:??_GSECTreeBaseC@@UAEPAXI@Z (REF 000B: ??1SECTreeBaseC@@UAE@XZ)
                      176. 00 0000 002B 0000:??_GSECTabWndBase@@UAEPAXI@Z (REF 000B: ??1SECTabWndBase@@UAE@XZ)
                      177. 00 0000 002B 0000:??_GSEC3DTabWnd@@UAEPAXI@Z (REF 000B: ??1SEC3DTabWnd@@UAE@XZ)
                      178. 00 0000 002B 0000:??_GSECTabWnd@@UAEPAXI@Z (REF 000B: ??1SECTabWnd@@UAE@XZ)
                      179. 00 0000 002B 0000:??_GSEC2DTabWnd@@UAEPAXI@Z (REF 000B: ??1SEC2DTabWnd@@UAE@XZ)
                      180. 00 0000 002B 0000:??_GSECTab@@MAEPAXI@Z (REF 000B: ??1SECTab@@MAE@XZ)
                      181. 00 0000 002B 0000:??_GSECTabControlBase@@UAEPAXI@Z (REF 000B: ??1SECTabControlBase@@UAE@XZ)
                      182. 00 0000 002B 0000:??_GSEC3DTab@@MAEPAXI@Z (REF 000B: ??1SEC3DTab@@MAE@XZ)
                      183. 00 0000 002B 0000:??_GSEC3DTabControl@@UAEPAXI@Z (REF 000B: ??1SEC3DTabControl@@UAE@XZ)
                      184. 00 0000 002B 0000:??_GSECTabControl@@UAEPAXI@Z (REF 000B: ??1SECTabControl@@UAE@XZ)
                      185. 00 0000 002B 0000:??_GSECMaskEdit@@UAEPAXI@Z (REF 000B: ??1SECMaskEdit@@UAE@XZ)
                      186. 00 0000 002B 0000:??_GSECCustomStatusBar@@UAEPAXI@Z (REF 000B: ??1SECCustomStatusBar@@UAE@XZ)
                      187. 00 0000 002B 0000:??_GSECProgressCtrl@@UAEPAXI@Z (REF 000B: ??1SECProgressCtrl@@UAE@XZ)
                      188. 00 0000 002B 0000:??_GSECBar@@UAEPAXI@Z (REF 000B: ??1SECBar@@UAE@XZ)
                      189. 00 0000 002B 0000:??_GSECShortcutListCtrl@@UAEPAXI@Z (REF 000B: ??1SECShortcutListCtrl@@UAE@XZ)
                      190. 00 0000 002B 0000:??_GListDropTarget@SECShortcutListCtrl@@UAEPAXI@Z (REF 000B: ??1ListDropTarget@SECShortcutListCtrl@@UAE@XZ)
                      191. 00 0000 002B 0000:??_GSECShortcutBar@@UAEPAXI@Z (REF 000B: ??1SECShortcutBar@@UAE@XZ)
                      192. 00 0000 002B 0000:??_G?$CArray@PAVSECBar@@PAV1@@@UAEPAXI@Z (REF 000B: ??1?$CArray@PAVSECBar@@PAV1@@@UAE@XZ)
                      193. 00 0000 002B 0000:??_GSECListBar@@UAEPAXI@Z (REF 000B: ??1SECListBar@@UAE@XZ)
                      194. 00 0000 002B 0000:??_GSECMarquee@@UAEPAXI@Z (REF 000B: ??1SECMarquee@@UAE@XZ)
                      195. 00 0000 002B 0000:??_GSECListBoxDragWnd@@UAEPAXI@Z (REF 000B: ??1SECListBoxDragWnd@@UAE@XZ)
                      196. 00 0000 002B 0000:??_GSECListBoxEdit@@UAEPAXI@Z (REF 000B: ??1SECListBoxEdit@@UAE@XZ)
                      197. 00 0000 002B 0000:??_GSECListBoxEditorHelper@@UAEPAXI@Z (REF 000B: ??1SECListBoxEditorHelper@@UAE@XZ)
                      198. 00 0000 002B 0000:??_GSECListBoxEditor@@UAEPAXI@Z (REF 000B: ??1SECListBoxEditor@@UAE@XZ)
                      199. 00 0000 002B 0000:??_GSECFakeButton@@UAEPAXI@Z (REF 000B: ??1SECFakeButton@@UAE@XZ)
                      200. 00 0000 002B 0000:??_GSECColorsListBox@@UAEPAXI@Z (REF 000B: ??1SECColorsListBox@@UAE@XZ)
                      201. 00 0000 002B 0000:??_GSECListView@@UAEPAXI@Z (REF 000B: ??1SECListView@@UAE@XZ)
                      202. 00 0000 002B 0000:??_GSECListEdit@@UAEPAXI@Z (REF 000B: ??1SECListEdit@@UAE@XZ)
                      203. 00 0000 002B 0000:??_GSECListCtrl@@UAEPAXI@Z (REF 000B: ??1SECListCtrl@@UAE@XZ)
                      204. 00 0000 002B 0000:??_GSECListTip@@UAEPAXI@Z (REF 000B: ??1SECListTip@@UAE@XZ)
                      205. 00 0000 002B 0000:??_GSECListBaseV@@UAEPAXI@Z (REF 000B: ??1SECListBaseV@@UAE@XZ)
                      206. 00 0000 002B 0000:??_GSECListBaseC@@UAEPAXI@Z (REF 000B: ??1SECListBaseC@@UAE@XZ)
                      207. 00 0000 002B 0000:??_GSECDropEdit@@UAEPAXI@Z (REF 000B: ??1SECDropEdit@@UAE@XZ)
                      208. 00 0000 002B 0000:??_GSECDTStaticGadget@@UAEPAXI@Z (REF 000B: ??1SECDTStaticGadget@@UAE@XZ)
                      209. 00 0000 002B 0000:??_GSECDTSpinGadget@@UAEPAXI@Z (REF 000B: ??1SECDTSpinGadget@@UAE@XZ)
                      210. 00 0000 002B 0000:??_GSECDTNumericGadget@@UAEPAXI@Z (REF 000B: ??1SECDTNumericGadget@@UAE@XZ)
                      211. 00 0000 002B 0000:??_GSECDTListGadget@@UAEPAXI@Z (REF 000B: ??1SECDTListGadget@@UAE@XZ)
                      212. 00 0000 002B 0000:??_GSECDTGadget@@UAEPAXI@Z (REF 000B: ??1SECDTGadget@@UAE@XZ)
                      213. 00 0000 002B 0000:??_GSECDateTimeCtrl@@UAEPAXI@Z (REF 000B: ??1SECDateTimeCtrl@@UAE@XZ)
                      214. 00 0000 002B 0000:??_GSECDTGadgetArray@SECDateTimeCtrl@@UAEPAXI@Z (REF 000B: ??1SECDTGadgetArray@SECDateTimeCtrl@@UAE@XZ)
                      215. 00 0000 002B 0000:??_GSECDTButtonGadget@@UAEPAXI@Z (REF 000B: ??1SECDTButtonGadget@@UAE@XZ)
                      216. 00 0000 002B 0000:??_GSECCurrencyEdit@@UAEPAXI@Z (REF 000B: ??1SECCurrencyEdit@@UAE@XZ)
                      217. 00 0000 002B 0000:??_GSECPanel@@UAEPAXI@Z (REF 000B: ??1SECPanel@@UAE@XZ)
                      218. 00 0000 002B 0000:??_GSECDayBox@@UAEPAXI@Z (REF 000B: ??1SECDayBox@@UAE@XZ)
                      219. 00 0000 002B 0000:??_GSECDayBar@@UAEPAXI@Z (REF 000B: ??1SECDayBar@@UAE@XZ)
                      220. 00 0000 002B 0000:??_GSECCalTitle@@UAEPAXI@Z (REF 000B: ??1SECCalTitle@@UAE@XZ)
                      221. 00 0000 002B 0000:??_GSECCalendar@@UAEPAXI@Z (REF 000B: ??1SECCalendar@@UAE@XZ)
                      222. 00 0000 002B 0000:??_GSECPopupCalendar@@UAEPAXI@Z (REF 000B: ??1SECPopupCalendar@@UAE@XZ)
                      223. 00 0000 002B 0000:??_GSECCalculator@@UAEPAXI@Z (REF 000B: ??1SECCalculator@@UAE@XZ)
                      224. 00 0000 002B 0000:??_GSECCalcBtnArray@SECCalculator@@UAEPAXI@Z (REF 000B: ??1SECCalcBtnArray@SECCalculator@@UAE@XZ)
                      225. 00 0000 002B 0000:??_GSECPopupCalculator@@UAEPAXI@Z (REF 000B: ??1SECPopupCalculator@@UAE@XZ)
                      226. 00 0000 002B 0000:??_GSECCalcBtn@@UAEPAXI@Z (REF 000B: ??1SECCalcBtn@@UAE@XZ)
                      227. 00 0000 002B 0000:??_GSECDirSelectDlg@@UAEPAXI@Z (REF 000B: ??1SECDirSelectDlg@@UAE@XZ)
                      228. 00 0000 002B 0000:??_GSECBrowseButton@@UAEPAXI@Z (REF 000B: ??1SECBrowseButton@@UAE@XZ)
                      229. 00 0000 002B 0000:??_GSECBrowseEditBase@@UAEPAXI@Z (REF 000B: ??1SECBrowseEditBase@@UAE@XZ)
                      230. 00 0000 002B 0000:??_GSECBrowseDirEdit@@UAEPAXI@Z (REF 000B: ??1SECBrowseDirEdit@@UAE@XZ)
                      231. 00 0000 002B 0000:??_GSECBrowseFileEdit@@UAEPAXI@Z (REF 000B: ??1SECBrowseFileEdit@@UAE@XZ)
                      232. 00 0000 002B 0000:??_GScxButtonMsgFilter@nsSysCommandEx@@UAEPAXI@Z (REF 000B: ??1ScxButtonMsgFilter@nsSysCommandEx@@UAE@XZ)
                      233. 00 0000 002B 0000:??_GScxButtonMDIMaxChildMsgFilter@nsSysCommandEx@@UAEPAXI@Z (REF 000B: ??1ScxButtonMDIMaxChildMsgFilter@nsSysCommandEx@@UAE@XZ)
                      234. 00 0000 002B 0000:??_GScxButtonMDIChildMsgFilter@nsSysCommandEx@@UAEPAXI@Z (REF 000B: ??1ScxButtonMDIChildMsgFilter@nsSysCommandEx@@UAE@XZ)
                      235. 00 0000 002B 0000:??_GScxCaptionNCRDBLClkFilter@nsSysCommandEx@@UAEPAXI@Z (REF 000B: ??1ScxCaptionNCRDBLClkFilter@nsSysCommandEx@@UAE@XZ)
                      236. 00 0000 002B 0000:??_GScxNCRDBLClkMDIMaxChildMsgFilter@nsSysCommandEx@@UAEPAXI@Z (REF 000B: ??1ScxNCRDBLClkMDIMaxChildMsgFilter@nsSysCommandEx@@UAE@XZ)
                      237. 00 0000 002B 0000:??_GScxContextMenuFilter@nsSysCommandEx@@UAEPAXI@Z (REF 000B: ??1ScxContextMenuFilter@nsSysCommandEx@@UAE@XZ)
                      238. 00 0000 002B 0000:??_GScxMsgFilter@nsSysCommandEx@@UAEPAXI@Z (REF 000B: ??1ScxMsgFilter@nsSysCommandEx@@UAE@XZ)
                      239. 00 0000 002B 0000:??_GSECMsgFilter@@UAEPAXI@Z (REF 000B: ??1SECMsgFilter@@UAE@XZ)
                      240. 00 0000 002B 0000:??_GSECNcMsgFilter@@UAEPAXI@Z (REF 000B: ??1SECNcMsgFilter@@UAE@XZ)
                      241. 00 0000 002B 0000:??_GSECCaptionMsgFilter@@UAEPAXI@Z (REF 000B: ??1SECCaptionMsgFilter@@UAE@XZ)
                      242. 00 0000 002B 0000:??_GSECCaptionControlListMsgFilter@@UAEPAXI@Z (REF 000B: ??1SECCaptionControlListMsgFilter@@UAE@XZ)
                      243. 00 0000 002B 0000:??_GSECCapConLstMDIMaxChildMsgFilter@@UAEPAXI@Z (REF 000B: ??1SECCapConLstMDIMaxChildMsgFilter@@UAE@XZ)
                      244. 00 0000 002B 0000:??_GSECCaptionControlMsgFilter@@UAEPAXI@Z (REF 000B: ??1SECCaptionControlMsgFilter@@UAE@XZ)
                      245. 00 0000 002B 0000:??_GSECCaptionControlMsgFilterTimer@@UAEPAXI@Z (REF 000B: ??1SECCaptionControlMsgFilterTimer@@UAE@XZ)
                      246. 00 0000 002B 0000:??_G?$CArray@PAVSECMsgFilter@@PAV1@@@UAEPAXI@Z (REF 000B: ??1?$CArray@PAVSECMsgFilter@@PAV1@@@UAE@XZ)
                      247. 00 0000 002B 0000:??_GSECScriptHostView@@UAEPAXI@Z (REF 000B: ??1SECScriptHostView@@UAE@XZ)
                      248. 00 0000 002B 0000:??_G?$CArray@PAVSECACtrlItem@@PAV1@@@UAEPAXI@Z (REF 000B: ??1?$CArray@PAVSECACtrlItem@@PAV1@@@UAE@XZ)
                      249. 00 0000 002B 0000:??_GSECScriptHostDoc@@UAEPAXI@Z (REF 000B: ??1SECScriptHostDoc@@UAE@XZ)
                      250. 00 0000 002B 0000:??_G?$CArray@VSECAObjectDef@@AAV1@@@UAEPAXI@Z (REF 000B: ??1?$CArray@VSECAObjectDef@@AAV1@@@UAE@XZ)
                      251. 00 0000 002B 0000:??_GSECScriptHostDocDummyWnd@@UAEPAXI@Z (REF 000B: ??1SECScriptHostDocDummyWnd@@UAE@XZ)
                      252. 00 0000 002B 0000:??_G?$CTypedPtrMap@VCMapStringToPtr@@VCString@@PAUIDispatch@@@@UAEPAXI@Z (REF 000B: ??1?$CTypedPtrMap@VCMapStringToPtr@@VCString@@PAUIDispatch@@@@UAE@XZ)
                      253. 00 0000 002B 0000:??_G?$CTypedPtrMap@VCMapStringToPtr@@VCString@@PAVCWnd@@@@UAEPAXI@Z (REF 000B: ??1?$CTypedPtrMap@VCMapStringToPtr@@VCString@@PAVCWnd@@@@UAE@XZ)
                      254. 00 0000 002B 0000:??_GSECATopLevelItem@@MAEPAXI@Z (REF 000B: ??1SECATopLevelItem@@MAE@XZ)
                      255. 00 0000 002B 0000:??_GSECAToolBox@@UAEPAXI@Z (REF 000B: ??1SECAToolBox@@UAE@XZ)
                      256. 00 0000 002B 0000:??_G?$CArray@USEC_ToolEntry@@AAU1@@@UAEPAXI@Z (REF 000B: ??1?$CArray@USEC_ToolEntry@@AAU1@@@UAE@XZ)
                      257. 00 0000 002B 0000:??_G?$CArray@VCString@@AAV1@@@UAEPAXI@Z (REF 000B: ??1?$CArray@VCString@@AAV1@@@UAE@XZ)
                      258. 00 0000 002B 0000:??_GSECAUndoEdit@@UAEPAXI@Z (REF 000B: ??1SECAUndoEdit@@UAE@XZ)
                      259. 00 0000 002B 0000:??_GSECAColorEditor@@UAEPAXI@Z (REF 000B: ??1SECAColorEditor@@UAE@XZ)
                      260. 00 0000 002B 0000:??_G?$CMap@HHHAAH@@UAEPAXI@Z (REF 000B: ??1?$CMap@HHHAAH@@UAE@XZ)
                      261. 00 0000 002B 0000:??_GSECAPropList@@UAEPAXI@Z (REF 000B: ??1SECAPropList@@UAE@XZ)
                      262. 00 0000 002B 0000:??_G?$CArray@UListData@SECAPropList@@AAU12@@@UAEPAXI@Z (REF 000B: ??1?$CArray@UListData@SECAPropList@@AAU12@@@UAE@XZ)
                      263. 00 0000 002B 0000:??_G?$CArray@USECA_EnumType@@AAU1@@@UAEPAXI@Z (REF 000B: ??1?$CArray@USECA_EnumType@@AAU1@@@UAE@XZ)
                      264. 00 0000 002B 0000:??_GSECAPropBrowser@@UAEPAXI@Z (REF 000B: ??1SECAPropBrowser@@UAE@XZ)
                      265. 00 0000 002B 0000:??_G?$CArray@VSECABrowseProp@@AAV1@@@UAEPAXI@Z (REF 000B: ??1?$CArray@VSECABrowseProp@@AAV1@@@UAE@XZ)
                      266. 00 0000 002B 0000:??_GSECAOleScriptControlSite@@UAEPAXI@Z (REF 000B: ??1SECAOleScriptControlSite@@UAE@XZ)
                      267. 00 0000 002B 0000:??_GSECAOleScriptControlContainer@@UAEPAXI@Z (REF 000B: ??1SECAOleScriptControlContainer@@UAE@XZ)
                      268. 00 0000 002B 0000:??_GSECAFloatDocTemplate@@UAEPAXI@Z (REF 000B: ??1SECAFloatDocTemplate@@UAE@XZ)
                      269. 00 0000 002B 0000:??_GSECAOleInsertCtlDlg@@UAEPAXI@Z (REF 000B: ??1SECAOleInsertCtlDlg@@UAE@XZ)
                      270. 00 0000 002B 0000:??_GSECAFormPropPage@@UAEPAXI@Z (REF 000B: ??1SECAFormPropPage@@UAE@XZ)
                      271. 00 0000 002B 0000:??_GSECAFormPropPageFactory@SECAFormPropPage@@UAEPAXI@Z (REF 000B: ??1SECAFormPropPageFactory@SECAFormPropPage@@UAE@XZ)
                      272. 00 0000 002B 0000:??_GSECAFormObj@@MAEPAXI@Z (REF 000B: ??1SECAFormObj@@MAE@XZ)
                      273. 00 0000 002B 0000:??_GSECAFormObjFactory@SECAFormObj@@UAEPAXI@Z (REF 000B: ??1SECAFormObjFactory@SECAFormObj@@UAE@XZ)
                      274. 00 0000 002B 0000:??_G?$CArray@USECA_EventParam@@AAU1@@@UAEPAXI@Z (REF 000B: ??1?$CArray@USECA_EventParam@@AAU1@@@UAE@XZ)
                      275. 00 0000 002B 0000:??_GSECAEventBar@@UAEPAXI@Z (REF 000B: ??1SECAEventBar@@UAE@XZ)
                      276. 00 0000 002B 0000:??_G?$CTypedPtrMap@VCMapStringToPtr@@VCString@@PAUIUnknown@@@@UAEPAXI@Z (REF 000B: ??1?$CTypedPtrMap@VCMapStringToPtr@@VCString@@PAUIUnknown@@@@UAE@XZ)
                      277. 00 0000 002B 0000:??_G?$CArray@VSECABrowsedEvent@@AAV1@@@UAEPAXI@Z (REF 000B: ??1?$CArray@VSECABrowsedEvent@@AAV1@@@UAE@XZ)
                      278. 00 0000 002B 0000:??_GSECAErrorDlg@@UAEPAXI@Z (REF 000B: ??1SECAErrorDlg@@UAE@XZ)
                      279. 00 0000 002B 0000:??_GSECADlgFrame@@MAEPAXI@Z (REF 000B: ??1SECADlgFrame@@MAE@XZ)
                      280. 00 0000 002B 0000:??_GSECADib@@UAEPAXI@Z (REF 000B: ??1SECADib@@UAE@XZ)
                      281. 00 0000 002B 0000:??_GSECACustTBDlg@@UAEPAXI@Z (REF 000B: ??1SECACustTBDlg@@UAE@XZ)
                      282. 00 0000 002B 0000:??_GSECACtrlItem@@UAEPAXI@Z (REF 000B: ??1SECACtrlItem@@UAE@XZ)
                      283. 00 0000 002B 0000:??_GSECAContainerProps@@UAEPAXI@Z (REF 000B: ??1SECAContainerProps@@UAE@XZ)
                      284. 00 0000 002B 0000:??_GSECAContBrowser@@UAEPAXI@Z (REF 000B: ??1SECAContBrowser@@UAE@XZ)
                      285. 00 0000 002B 0000:??_GSECACodeViewRTF@@MAEPAXI@Z (REF 000B: ??1SECACodeViewRTF@@MAE@XZ)
                      286. 00 0000 002B 0000:??_GSECACodeView@@MAEPAXI@Z (REF 000B: ??1SECACodeView@@MAE@XZ)
                      287. 00 0000 002B 0000:??_GSECAAppObj@@MAEPAXI@Z (REF 000B: ??1SECAAppObj@@MAE@XZ)
                      288. 00 0000 002B 0000:??_G?$CTypedPtrArray@VCObArray@@PAVCFrameWnd@@@@UAEPAXI@Z (REF 000B: ??1?$CTypedPtrArray@VCObArray@@PAVCFrameWnd@@@@UAE@XZ)
                    0C8B4DFC51E8:
                      0. 00 0000 002E 0000:??_GSECPTNStrategyProfile@@UAEPAXI@Z (REF 000B: ??1SECPTNStrategyProfile@@UAE@XZ)
                      1. 00 0000 002E 0000:??_GSECPTNStrategyRegistry@@UAEPAXI@Z (REF 000B: ??1SECPTNStrategyRegistry@@UAE@XZ)
                      2. 00 0000 002E 0000:??_GSECPTNStrategy@@UAEPAXI@Z (REF 000B: ??1SECPTNStrategy@@UAE@XZ)
                      3. 00 0000 002E 0000:??_GSECPTNFactory@@UAEPAXI@Z (REF 000B: ??1SECPTNFactory@@UAE@XZ)
                      4. 00 0000 002E 0000:??_GCString@@QAEPAXI@Z (REF 000B: ??1CString@@QAE@XZ)
                      5. 00 0000 002E 0000:??_GSTATEDATA@SECTrayIcon@@QAEPAXI@Z (REF 000B: ??1STATEDATA@SECTrayIcon@@QAE@XZ)
                      6. 00 0000 002E 0000:??_GSECDocTemplateUtils@@UAEPAXI@Z (REF 000B: ??1SECDocTemplateUtils@@UAE@XZ)
                      7. 00 0000 002E 0000:??_GSECCommand@@QAEPAXI@Z (REF 000B: ??1SECCommand@@QAE@XZ)
                      8. 00 0000 002E 0000:??_GSECCapMenuBtn@@UAEPAXI@Z (REF 000B: ??1SECCapMenuBtn@@UAE@XZ)
                      9. 00 0000 002E 0000:??_GSECMenuBarMessages@@UAEPAXI@Z (REF 000B: ??1SECMenuBarMessages@@UAE@XZ)
                      10. 00 0000 002E 0000:??_GSECBtnCaption@@UAEPAXI@Z (REF 000B: ??1SECBtnCaption@@UAE@XZ)
                      11. 00 0000 002E 0000:??_GSECWndBtn@@UAEPAXI@Z (REF 000B: ??1SECWndBtn@@UAE@XZ)
                      12. 00 0000 002E 0000:??_GSECTBTextButton@@UAEPAXI@Z (REF 000B: ??1SECTBTextButton@@UAE@XZ)
                      13. 00 0000 002E 0000:??_GSECStdBtn@@UAEPAXI@Z (REF 000B: ??1SECStdBtn@@UAE@XZ)
                      14. 00 0000 002E 0000:??_GSECTBMenuBtn@@UAEPAXI@Z (REF 000B: ??1SECTBMenuBtn@@UAE@XZ)
                      15. 00 0000 002E 0000:??_GSECTwoPartBtn@@UAEPAXI@Z (REF 000B: ??1SECTwoPartBtn@@UAE@XZ)
                      16. 00 0000 002E 0000:??_GBmpInfo@SECBmpMgr@@QAEPAXI@Z (REF 000B: ??1BmpInfo@SECBmpMgr@@QAE@XZ)
                      17. 00 0000 002E 0000:??_GSECBmpMenuInfo@SECBmpMenuPlugIn@@QAEPAXI@Z (REF 000B: ??1SECBmpMenuInfo@SECBmpMenuPlugIn@@QAE@XZ)
                      18. 00 0000 002E 0000:??_GSECToolBarRectTracker@@UAEPAXI@Z (REF 000B: ??1SECToolBarRectTracker@@UAE@XZ)
                      19. 00 0000 002E 0000:??_GSECToolBarsBase@@UAEPAXI@Z (REF 000B: ??1SECToolBarsBase@@UAE@XZ)
                      20. 00 0000 002E 0000:??_GSECDefaultToolBar@SECToolBarManager@@QAEPAXI@Z (REF 000B: ??1SECDefaultToolBar@SECToolBarManager@@QAE@XZ)
                      21. 00 0000 002E 0000:??_GSECCurrentCommand@SECToolBarManager@@IAEPAXI@Z (REF 000B: ??1SECCurrentCommand@SECToolBarManager@@IAE@XZ)
                      22. 00 0000 002E 0000:??_GSECBtnDrawData@@QAEPAXI@Z (REF 000B: ??1SECBtnDrawData@@QAE@XZ)
                      23. 00 0000 002E 0000:??_GSECBtnInfo@@UAEPAXI@Z (REF 000B: ??1SECBtnInfo@@UAE@XZ)
                      24. 00 0000 002E 0000:??_GISECUndoableNode@@UAEPAXI@Z (REF 000B: ??1ISECUndoableNode@@UAE@XZ)
                      25. 00 0000 002E 0000:??_GSECDefUndoableNode@@UAEPAXI@Z (REF 000B: ??1SECDefUndoableNode@@UAE@XZ)
                      26. 00 0000 002E 0000:??_GSECLNHitTester@@UAEPAXI@Z (REF 000B: ??1SECLNHitTester@@UAE@XZ)
                      27. 00 0000 002E 0000:??_G?$SECLNOffNodeIFaceHitTest_T@VISECDockTarget@@@@UAEPAXI@Z (REF 000B: ??1?$SECLNOffNodeIFaceHitTest_T@VISECDockTarget@@@@UAE@XZ)
                      28. 00 0000 002E 0000:??_G?$Iterator_T@PAVSECLayoutNode@@@@UAEPAXI@Z (REF 000B: ??1?$Iterator_T@PAVSECLayoutNode@@@@UAE@XZ)
                      29. 00 0000 002E 0000:??_G?$IteratorPreOrder_T@PAVSECLayoutNode@@@@UAEPAXI@Z (REF 000B: ??1?$IteratorPreOrder_T@PAVSECLayoutNode@@@@UAE@XZ)
                      30. 00 0000 002E 0000:??_GCCIterPos@@UAEPAXI@Z (REF 000B: ??1CCIterPos@@UAE@XZ)
                      31. 00 0000 002E 0000:??_G?$CCIterPos_T@PAVSECLayoutNode@@@@UAEPAXI@Z (REF 000B: ??1?$CCIterPos_T@PAVSECLayoutNode@@@@UAE@XZ)
                      32. 00 0000 002E 0000:??_GSECLayoutFactory@@UAEPAXI@Z (REF 000B: ??1SECLayoutFactory@@UAE@XZ)
                      33. 00 0000 002E 0000:??_G?$SECObjectMemoryManager_T@VSECLayoutNode@@@@UAEPAXI@Z (REF 000B: ??1?$SECObjectMemoryManager_T@VSECLayoutNode@@@@UAE@XZ)
                      34. 00 0000 002E 0000:??_G?$SECObjectMemoryManager_T@VSECLayoutWndListener@@@@UAEPAXI@Z (REF 000B: ??1?$SECObjectMemoryManager_T@VSECLayoutWndListener@@@@UAE@XZ)
                      35. 00 0000 002E 0000:??_GSECLNSizable@@UAEPAXI@Z (REF 000B: ??1SECLNSizable@@UAE@XZ)
                      36. 00 0000 002E 0000:??_GISECLNContainer@@UAEPAXI@Z (REF 000B: ??1ISECLNContainer@@UAE@XZ)
                      37. 00 0000 002E 0000:??_GISECVirtualSplitterObserver@@UAEPAXI@Z (REF 000B: ??1ISECVirtualSplitterObserver@@UAE@XZ)
                      38. 00 0000 002E 0000:??_G?$SECLNBorder_T@VSECLayoutNode@@@@UAEPAXI@Z (REF 000B: ??1?$SECLNBorder_T@VSECLayoutNode@@@@UAE@XZ)
                      39. 00 0000 002E 0000:??_GSECLayoutNodeWnd@@UAEPAXI@Z (REF 000B: ??1SECLayoutNodeWnd@@UAE@XZ)
                      40. 00 0000 002E 0000:??_GSECDefReparentableNode@@UAEPAXI@Z (REF 000B: ??1SECDefReparentableNode@@UAE@XZ)
                      41. 00 0000 002E 0000:??_GISECReparentableNode@@UAEPAXI@Z (REF 000B: ??1ISECReparentableNode@@UAE@XZ)
                      42. 00 0000 002E 0000:??_GISECHideableNode@@UAEPAXI@Z (REF 000B: ??1ISECHideableNode@@UAE@XZ)
                      43. 00 0000 002E 0000:??_GSECLayoutNodeBorderSpace@@UAEPAXI@Z (REF 000B: ??1SECLayoutNodeBorderSpace@@UAE@XZ)
                      44. 00 0000 002E 0000:??_GSECLNBorderClientEdge@@UAEPAXI@Z (REF 000B: ??1SECLNBorderClientEdge@@UAE@XZ)
                      45. 00 0000 002E 0000:??_GSECLayoutNodeGripper@@UAEPAXI@Z (REF 000B: ??1SECLayoutNodeGripper@@UAE@XZ)
                      46. 00 0000 002E 0000:??_GSECLayoutNodeDCBase@@UAEPAXI@Z (REF 000B: ??1SECLayoutNodeDCBase@@UAE@XZ)
                      47. 00 0000 002E 0000:??_GISECBorderWrapper@@UAEPAXI@Z (REF 000B: ??1ISECBorderWrapper@@UAE@XZ)
                      48. 00 0000 002E 0000:??_G?$SECLNBorder_T@VSECLayoutNodeDCBase@@@@UAEPAXI@Z (REF 000B: ??1?$SECLNBorder_T@VSECLayoutNodeDCBase@@@@UAE@XZ)
                      49. 00 0000 002E 0000:??_GSECLayoutNode@@UAEPAXI@Z (REF 000B: ??1SECLayoutNode@@UAE@XZ)
                      50. 00 0000 002E 0000:??_G?$SECComposite_T@PAVSECLayoutNode@@@@UAEPAXI@Z (REF 000B: ??1?$SECComposite_T@PAVSECLayoutNode@@@@UAE@XZ)
                      51. 00 0000 002E 0000:??_GSECLNScale@@UAEPAXI@Z (REF 000B: ??1SECLNScale@@UAE@XZ)
                      52. 00 0000 002E 0000:??_GSECLNRelative@@UAEPAXI@Z (REF 000B: ??1SECLNRelative@@UAE@XZ)
                      53. 00 0000 002E 0000:??_GSECLNGridBag@@UAEPAXI@Z (REF 000B: ??1SECLNGridBag@@UAE@XZ)
                      54. 00 0000 002E 0000:??_GSECLNGrid@@UAEPAXI@Z (REF 000B: ??1SECLNGrid@@UAE@XZ)
                      55. 00 0000 002E 0000:??_GISECPreferredNodeRectSet@@UAEPAXI@Z (REF 000B: ??1ISECPreferredNodeRectSet@@UAE@XZ)
                      56. 00 0000 002E 0000:??_GSECLNDynamicGrid2d@@UAEPAXI@Z (REF 000B: ??1SECLNDynamicGrid2d@@UAE@XZ)
                      57. 00 0000 002E 0000:??_GSECDynGridInsertConstraints@@UAEPAXI@Z (REF 000B: ??1SECDynGridInsertConstraints@@UAE@XZ)
                      58. 00 0000 002E 0000:??_GSECLNDynamicGridLine@@UAEPAXI@Z (REF 000B: ??1SECLNDynamicGridLine@@UAE@XZ)
                      59. 00 0000 002E 0000:??_G?$SECObjectMemoryManager_T@VSECDynGridInsertConstraints@@@@UAEPAXI@Z (REF 000B: ??1?$SECObjectMemoryManager_T@VSECDynGridInsertConstraints@@@@UAE@XZ)
                      60. 00 0000 002E 0000:??_GSECLNBorderClient@@UAEPAXI@Z (REF 000B: ??1SECLNBorderClient@@UAE@XZ)
                      61. 00 0000 002E 0000:??_GSECLNAlign@@UAEPAXI@Z (REF 000B: ??1SECLNAlign@@UAE@XZ)
                      62. 00 0000 002E 0000:??_GSECDefDockTargetBase@@UAEPAXI@Z (REF 000B: ??1SECDefDockTargetBase@@UAE@XZ)
                      63. 00 0000 002E 0000:??_GISECDockTarget@@UAEPAXI@Z (REF 000B: ??1ISECDockTarget@@UAE@XZ)
                      64. 00 0000 002E 0000:??_GISECOffNodeHitTest@@UAEPAXI@Z (REF 000B: ??1ISECOffNodeHitTest@@UAE@XZ)
                      65. 00 0000 002E 0000:??_GSECDynGridLineTarget@@UAEPAXI@Z (REF 000B: ??1SECDynGridLineTarget@@UAE@XZ)
                      66. 00 0000 002E 0000:??_GSECFrameDockingFeatureBase@@UAEPAXI@Z (REF 000B: ??1SECFrameDockingFeatureBase@@UAE@XZ)
                      67. 00 0000 002E 0000:??_GISECLNBorderClientEventRcvr@@UAEPAXI@Z (REF 000B: ??1ISECLNBorderClientEventRcvr@@UAE@XZ)
                      68. 00 0000 002E 0000:??_GSECClientWndNode@@UAEPAXI@Z (REF 000B: ??1SECClientWndNode@@UAE@XZ)
                      69. 00 0000 002E 0000:??_GISECDockingListenerConfig@@UAEPAXI@Z (REF 000B: ??1ISECDockingListenerConfig@@UAE@XZ)
                      70. 00 0000 002E 0000:??_GSECDragDropTaskBase@@UAEPAXI@Z (REF 000B: ??1SECDragDropTaskBase@@UAE@XZ)
                      71. 00 0000 002E 0000:??_GSECFrameDockingFeature@@UAEPAXI@Z (REF 000B: ??1SECFrameDockingFeature@@UAE@XZ)
                      72. 00 0000 002E 0000:??_GSECLNDockBorderClient@@UAEPAXI@Z (REF 000B: ??1SECLNDockBorderClient@@UAE@XZ)
                      73. 00 0000 002E 0000:??_GISECBorderTargetParent@@UAEPAXI@Z (REF 000B: ??1ISECBorderTargetParent@@UAE@XZ)
                      74. 00 0000 002E 0000:??_GSECLNSizableDockBorder@@UAEPAXI@Z (REF 000B: ??1SECLNSizableDockBorder@@UAE@XZ)
                      75. 00 0000 002E 0000:??_GISECDockEventReceiver@@UAEPAXI@Z (REF 000B: ??1ISECDockEventReceiver@@UAE@XZ)
                      76. 00 0000 002E 0000:??_GSECLNFloatingHwndContainer@@UAEPAXI@Z (REF 000B: ??1SECLNFloatingHwndContainer@@UAE@XZ)
                      77. 00 0000 002E 0000:??_GSECDockFloatingNode@@UAEPAXI@Z (REF 000B: ??1SECDockFloatingNode@@UAE@XZ)
                      78. 00 0000 002E 0000:??_GSECFloatDynGridLineTarget@@UAEPAXI@Z (REF 000B: ??1SECFloatDynGridLineTarget@@UAE@XZ)
                      79. 00 0000 002E 0000:??_GISECFloatingNode@@UAEPAXI@Z (REF 000B: ??1ISECFloatingNode@@UAE@XZ)
                      80. 00 0000 002E 0000:??_GSECDragDropDockingFeature@@UAEPAXI@Z (REF 000B: ??1SECDragDropDockingFeature@@UAE@XZ)
                      81. 00 0000 002E 0000:??_GSECDockInitiatorHitTester@@UAEPAXI@Z (REF 000B: ??1SECDockInitiatorHitTester@@UAE@XZ)
                      82. 00 0000 002E 0000:??_GSECLNTargetDockHitTester@@UAEPAXI@Z (REF 000B: ??1SECLNTargetDockHitTester@@UAE@XZ)
                      83. 00 0000 002E 0000:??_G?$SECLNOffNodeDockIFaceHitTest_T@VISECDockTarget@@@@UAEPAXI@Z (REF 000B: ??1?$SECLNOffNodeDockIFaceHitTest_T@VISECDockTarget@@@@UAE@XZ)
                      84. 00 0000 002E 0000:??_G?$SECLNDockHitTester@VISECDockInitiator@@@@UAEPAXI@Z (REF 000B: ??1?$SECLNDockHitTester@VISECDockInitiator@@@@UAE@XZ)
                      85. 00 0000 002E 0000:??_G?$SECLNDockHitTester@VISECDockTarget@@@@UAEPAXI@Z (REF 000B: ??1?$SECLNDockHitTester@VISECDockTarget@@@@UAE@XZ)
                      86. 00 0000 002E 0000:??_GSECLNDockingMgr@@UAEPAXI@Z (REF 000B: ??1SECLNDockingMgr@@UAE@XZ)
                      87. 00 0000 002E 0000:??_GSECDockMgrMemMgr@@UAEPAXI@Z (REF 000B: ??1SECDockMgrMemMgr@@UAE@XZ)
                      88. 00 0000 002E 0000:??_G?$SECObjectMemoryManager_T@V?$SECObjectMemoryManager_T@VSECLayoutNode@@@@@@UAEPAXI@Z (REF 000B: ??1?$SECObjectMemoryManager_T@V?$SECObjectMemoryManager_T@VSECLayoutNode@@@@@@UAE@XZ)
                      89. 00 0000 002E 0000:??_G?$SECObjectMemoryManager_T@VISECLNContainer@@@@UAEPAXI@Z (REF 000B: ??1?$SECObjectMemoryManager_T@VISECLNContainer@@@@UAE@XZ)
                      90. 00 0000 002E 0000:??_G?$SECObjectMemoryManager_T@VSECDockingNodeConstraints@@@@UAEPAXI@Z (REF 000B: ??1?$SECObjectMemoryManager_T@VSECDockingNodeConstraints@@@@UAE@XZ)
                      91. 00 0000 002E 0000:??_GSECDockInProgressInfo@@UAEPAXI@Z (REF 000B: ??1SECDockInProgressInfo@@UAE@XZ)
                      92. 00 0000 002E 0000:??_GSECDockInsertionConstraints@@UAEPAXI@Z (REF 000B: ??1SECDockInsertionConstraints@@UAE@XZ)
                      93. 00 0000 002E 0000:??_GSECDockingNodeConstraints@@UAEPAXI@Z (REF 000B: ??1SECDockingNodeConstraints@@UAE@XZ)
                      94. 00 0000 002E 0000:??_GSECLayoutDockFactory@@UAEPAXI@Z (REF 000B: ??1SECLayoutDockFactory@@UAE@XZ)
                      95. 00 0000 002E 0000:??_GSECLayoutNodeDC@@UAEPAXI@Z (REF 000B: ??1SECLayoutNodeDC@@UAE@XZ)
                      96. 00 0000 002E 0000:??_G?$SECReparentableLayoutNodeDC_T@VSECLayoutNodeDC@@@@UAEPAXI@Z (REF 000B: ??1?$SECReparentableLayoutNodeDC_T@VSECLayoutNodeDC@@@@UAE@XZ)
                      97. 00 0000 002E 0000:??_GSECDefDockNodeInitiatorBase@@UAEPAXI@Z (REF 000B: ??1SECDefDockNodeInitiatorBase@@UAE@XZ)
                      98. 00 0000 002E 0000:??_GSECDefDockNodeBase@@UAEPAXI@Z (REF 000B: ??1SECDefDockNodeBase@@UAE@XZ)
                      99. 00 0000 002E 0000:??_GISECDockInitiator@@UAEPAXI@Z (REF 000B: ??1ISECDockInitiator@@UAE@XZ)
                      100. 00 0000 002E 0000:??_GISECDockableNode@@UAEPAXI@Z (REF 000B: ??1ISECDockableNode@@UAE@XZ)
                      101. 00 0000 002E 0000:??_GSECDefHideableNode@@UAEPAXI@Z (REF 000B: ??1SECDefHideableNode@@UAE@XZ)
                      102. 00 0000 002E 0000:??_GSECLNHwndContainer@@UAEPAXI@Z (REF 000B: ??1SECLNHwndContainer@@UAE@XZ)
                      103. 00 0000 002E 0000:??_GSECControlBarInfo@@UAEPAXI@Z (REF 000B: ??1SECControlBarInfo@@UAE@XZ)
                      104. 00 0000 002E 0000:??_GSECDockContext@@QAEPAXI@Z (REF 000B: ??1SECDockContext@@QAE@XZ)
                      105. 00 0000 002E 0000:??_GSECTreeNode@@UAEPAXI@Z (REF 000B: ??1SECTreeNode@@UAE@XZ)
                      106. 00 0000 002E 0000:??_GSECTreeNodeX@@UAEPAXI@Z (REF 000B: ??1SECTreeNodeX@@UAE@XZ)
                      107. 00 0000 002E 0000:??_G_Node@@UAEPAXI@Z (REF 000B: ??1_Node@@UAE@XZ)
                      108. 00 0000 002E 0000:??_GSECSubItemTextStorage@@UAEPAXI@Z (REF 000B: ??1SECSubItemTextStorage@@UAE@XZ)
                      109. 00 0000 002E 0000:??_GSECListPaintContext@@UAEPAXI@Z (REF 000B: ??1SECListPaintContext@@UAE@XZ)
                      110. 00 0000 002E 0000:??_GSECTreePaintContext@@UAEPAXI@Z (REF 000B: ??1SECTreePaintContext@@UAE@XZ)
                      111. 00 0000 002E 0000:??_GtagPaneInfoEx@@QAEPAXI@Z (REF 000B: ??1tagPaneInfoEx@@QAE@XZ)
                      112. 00 0000 002E 0000:??_G?$SECIterator@PAVSECBar@@@@UAEPAXI@Z (REF 000B: ??1?$SECIterator@PAVSECBar@@@@UAE@XZ)
                      113. 00 0000 002E 0000:??_G?$SECCArrayIterator@PAVSECBar@@PAV1@@SECArrayIteratorTypes@@UAEPAXI@Z (REF 000B: ??1?$SECCArrayIterator@PAVSECBar@@PAV1@@SECArrayIteratorTypes@@UAE@XZ)
                      114. 00 0000 002E 0000:??_GSECListColumn@@QAEPAXI@Z (REF 000B: ??1SECListColumn@@QAE@XZ)
                      115. 00 0000 002E 0000:??_GSECListSubItem@@UAEPAXI@Z (REF 000B: ??1SECListSubItem@@UAE@XZ)
                      116. 00 0000 002E 0000:??_GSECListItem@@UAEPAXI@Z (REF 000B: ??1SECListItem@@UAE@XZ)
                      117. 00 0000 002E 0000:??_GFormat@SECCurrencyEdit@@UAEPAXI@Z (REF 000B: ??1Format@SECCurrencyEdit@@UAE@XZ)
                      118. 00 0000 002E 0000:??_GSECASelTracker@@UAEPAXI@Z (REF 000B: ??1SECASelTracker@@UAE@XZ)
                      119. 00 0000 002E 0000:??_GSECAObjectDef@@QAEPAXI@Z (REF 000B: ??1SECAObjectDef@@QAE@XZ)
                      120. 00 0000 002E 0000:??_GSECAScriptHost@@QAEPAXI@Z (REF 000B: ??1SECAScriptHost@@QAE@XZ)
                      121. 00 0000 002E 0000:??_GSEC_ToolEntry@@QAEPAXI@Z (REF 000B: ??1SEC_ToolEntry@@QAE@XZ)
                      122. 00 0000 002E 0000:??_GSECATypeInfo@@UAEPAXI@Z (REF 000B: ??1SECATypeInfo@@UAE@XZ)
                      123. 00 0000 002E 0000:??_GISTypeInformation@@UAEPAXI@Z (REF 000B: ??1ISTypeInformation@@UAE@XZ)
                      124. 00 0000 002E 0000:??_GSECATypeDesc@@UAEPAXI@Z (REF 000B: ??1SECATypeDesc@@UAE@XZ)
                      125. 00 0000 002E 0000:??_GISTypeDesc@@UAEPAXI@Z (REF 000B: ??1ISTypeDesc@@UAE@XZ)
                      126. 00 0000 002E 0000:??_GSECAArrayDesc@@UAEPAXI@Z (REF 000B: ??1SECAArrayDesc@@UAE@XZ)
                      127. 00 0000 002E 0000:??_GISArrayDesc@@UAEPAXI@Z (REF 000B: ??1ISArrayDesc@@UAE@XZ)
                      128. 00 0000 002E 0000:??_GSECAArrayBound@@UAEPAXI@Z (REF 000B: ??1SECAArrayBound@@UAE@XZ)
                      129. 00 0000 002E 0000:??_GISArrayBound@@UAEPAXI@Z (REF 000B: ??1ISArrayBound@@UAE@XZ)
                      130. 00 0000 002E 0000:??_GSECAProperty@@UAEPAXI@Z (REF 000B: ??1SECAProperty@@UAE@XZ)
                      131. 00 0000 002E 0000:??_GISProperty@@UAEPAXI@Z (REF 000B: ??1ISProperty@@UAE@XZ)
                      132. 00 0000 002E 0000:??_GSECAParameter@@UAEPAXI@Z (REF 000B: ??1SECAParameter@@UAE@XZ)
                      133. 00 0000 002E 0000:??_GISParameter@@UAEPAXI@Z (REF 000B: ??1ISParameter@@UAE@XZ)
                      134. 00 0000 002E 0000:??_GSECADispatch@@UAEPAXI@Z (REF 000B: ??1SECADispatch@@UAE@XZ)
                      135. 00 0000 002E 0000:??_GSECAFunction@@UAEPAXI@Z (REF 000B: ??1SECAFunction@@UAE@XZ)
                      136. 00 0000 002E 0000:??_GISFunction@@UAEPAXI@Z (REF 000B: ??1ISFunction@@UAE@XZ)
                      137. 00 0000 002E 0000:??_GSECAEnumVariant@@QAEPAXI@Z (REF 000B: ??1SECAEnumVariant@@QAE@XZ)
                      138. 00 0000 002E 0000:??_GSECAEnum@@UAEPAXI@Z (REF 000B: ??1SECAEnum@@UAE@XZ)
                      139. 00 0000 002E 0000:??_GSECADispinterface@@UAEPAXI@Z (REF 000B: ??1SECADispinterface@@UAE@XZ)
                      140. 00 0000 002E 0000:??_GSECAConstant@@UAEPAXI@Z (REF 000B: ??1SECAConstant@@UAE@XZ)
                      141. 00 0000 002E 0000:??_GISConstant@@UAEPAXI@Z (REF 000B: ??1ISConstant@@UAE@XZ)
                      142. 00 0000 002E 0000:??_GSECACollection@@UAEPAXI@Z (REF 000B: ??1SECACollection@@UAE@XZ)
                      143. 00 0000 002E 0000:??_GISCollection@@UAEPAXI@Z (REF 000B: ??1ISCollection@@UAE@XZ)
                      144. 00 0000 002E 0000:??_GSECATokenizer@@QAEPAXI@Z (REF 000B: ??1SECATokenizer@@QAE@XZ)
                      145. 00 0000 002E 0000:??_GListData@SECAPropList@@QAEPAXI@Z (REF 000B: ??1ListData@SECAPropList@@QAE@XZ)
                      146. 00 0000 002E 0000:??_GSECA_EnumType@@QAEPAXI@Z (REF 000B: ??1SECA_EnumType@@QAE@XZ)
                      147. 00 0000 002E 0000:??_GSECABrowseProp@@QAEPAXI@Z (REF 000B: ??1SECABrowseProp@@QAE@XZ)
                      148. 00 0000 002E 0000:??_GSECA_EventParam@@QAEPAXI@Z (REF 000B: ??1SECA_EventParam@@QAE@XZ)
                      149. 00 0000 002E 0000:??_GSECABrowsedEvent@@QAEPAXI@Z (REF 000B: ??1SECABrowsedEvent@@QAE@XZ)
                  FC:
                    8B:
                      4D088948:
                        3C8B55FC:
                          8B450C8942:
                            0. 29 1016 0056 0000:??0SECCaptionControlMsgFilterTimer@@QAE@PAVSECCaptionControlMsgFilter@@JVCPoint@@@Z
                          C702:
                            0. 00 0000 0885 0000:??0SECColorsListBox@@QAE@H@Z 002A:??1SECColorsListBox@@UAE@XZ 0046:?GetMessageMap@SECColorsListBox@@MBEPBUAFX_MSGMAP@@XZ 0056:?ReplaceListbox@SECColorsListBox@@QAEHPAVCListBox@@@Z 015B:?AddColor@SECColorsListBox@@QAEHPBDK@Z 01C0:?GetColor@SECColorsListBox@@QAEHHAAVCString@@AAK@Z 0236:?SetColor@SECColorsListBox@@QAEHHPBDK@Z 02CE:?FastRect@SECColorsListBox@@AAEXPAVCDC@@PAVCRect@@K@Z 0322:?EditSelectedColor@SECColorsListBox@@QAEHXZ 0489:?MeasureItem@SECColorsListBox@@UAEXPAUtagMEASUREITEMSTRUCT@@@Z 0515:?DrawItem@SECColorsListBox@@UAEXPAUtagDRAWITEMSTRUCT@@@Z 0853:?OnLButtonDblClk@SECColorsListBox@@IAEXIVCPoint@@@Z (0483: 60)
                            1. 00 0000 0885 0000:??0SECColorsListBox@@QAE@H@Z 002A:??1SECColorsListBox@@UAE@XZ 0046:?GetMessageMap@SECColorsListBox@@MBEPBUAFX_MSGMAP@@XZ 0056:?ReplaceListbox@SECColorsListBox@@QAEHPAVCListBox@@@Z 015B:?AddColor@SECColorsListBox@@QAEHPBGK@Z 01C0:?GetColor@SECColorsListBox@@QAEHHAAVCString@@AAK@Z 0236:?SetColor@SECColorsListBox@@QAEHHPBGK@Z 02CE:?FastRect@SECColorsListBox@@AAEXPAVCDC@@PAVCRect@@K@Z 0322:?EditSelectedColor@SECColorsListBox@@QAEHXZ 0489:?MeasureItem@SECColorsListBox@@UAEXPAUtagMEASUREITEMSTRUCT@@@Z 0515:?DrawItem@SECColorsListBox@@UAEXPAUtagDRAWITEMSTRUCT@@@Z 0853:?OnLButtonDblClk@SECColorsListBox@@IAEXIVCPoint@@@Z (0483: 64)
                            2. 00 0000 0116 0000:??0SECListEdit@@QAE@PAVSECListClient@@@Z 002A:?GetMessageMap@SECListEdit@@MBEPBUAFX_MSGMAP@@XZ 003A:?OnGetDlgCode@SECListEdit@@IAEIXZ 004A:?OnKeyDown@SECListEdit@@IAEXIII@Z
                        408B55FC:
                          8B450C8942:
                            0. 29 403B 0056 0000:??0SECCaptionControlMsgFilterTimer@@QAE@PAVSECCaptionControlMsgFilter@@JVCPoint@@@Z
                          C702:
                            0. 00 0000 088F 0000:??0SECColorsListBox@@QAE@H@Z 002A:??1SECColorsListBox@@UAE@XZ 0046:?_GetBaseMessageMap@SECColorsListBox@@KGPBUAFX_MSGMAP@@XZ 0050:?GetMessageMap@SECColorsListBox@@MBEPBUAFX_MSGMAP@@XZ 0060:?ReplaceListbox@SECColorsListBox@@QAEHPAVCListBox@@@Z 0165:?AddColor@SECColorsListBox@@QAEHPBDK@Z 01CA:?GetColor@SECColorsListBox@@QAEHHAAVCString@@AAK@Z 0240:?SetColor@SECColorsListBox@@QAEHHPBDK@Z 02D8:?FastRect@SECColorsListBox@@AAEXPAVCDC@@PAVCRect@@K@Z 032C:?EditSelectedColor@SECColorsListBox@@QAEHXZ 0493:?MeasureItem@SECColorsListBox@@UAEXPAUtagMEASUREITEMSTRUCT@@@Z 051F:?DrawItem@SECColorsListBox@@UAEXPAUtagDRAWITEMSTRUCT@@@Z 085D:?OnLButtonDblClk@SECColorsListBox@@IAEXIVCPoint@@@Z (048D: 60)
                            1. 00 0000 088F 0000:??0SECColorsListBox@@QAE@H@Z 002A:??1SECColorsListBox@@UAE@XZ 0046:?_GetBaseMessageMap@SECColorsListBox@@KGPBUAFX_MSGMAP@@XZ 0050:?GetMessageMap@SECColorsListBox@@MBEPBUAFX_MSGMAP@@XZ 0060:?ReplaceListbox@SECColorsListBox@@QAEHPAVCListBox@@@Z 0165:?AddColor@SECColorsListBox@@QAEHPBGK@Z 01CA:?GetColor@SECColorsListBox@@QAEHHAAVCString@@AAK@Z 0240:?SetColor@SECColorsListBox@@QAEHHPBGK@Z 02D8:?FastRect@SECColorsListBox@@AAEXPAVCDC@@PAVCRect@@K@Z 032C:?EditSelectedColor@SECColorsListBox@@QAEHXZ 0493:?MeasureItem@SECColorsListBox@@UAEXPAUtagMEASUREITEMSTRUCT@@@Z 051F:?DrawItem@SECColorsListBox@@UAEXPAUtagDRAWITEMSTRUCT@@@Z 085D:?OnLButtonDblClk@SECColorsListBox@@IAEXIVCPoint@@@Z (048D: 64)
                            2. 00 0000 0120 0000:??0SECListEdit@@QAE@PAVSECListClient@@@Z 002A:?_GetBaseMessageMap@SECListEdit@@KGPBUAFX_MSGMAP@@XZ 0034:?GetMessageMap@SECListEdit@@MBEPBUAFX_MSGMAP@@XZ 0044:?OnGetDlgCode@SECListEdit@@IAEIXZ 0054:?OnKeyDown@SECListEdit@@IAEXIII@Z
                      E55DC3:
                        0. 00 0000 0016 0000:??0IProvideMultipleClassInfo@@QAE@XZ (REF 000B: ??0IProvideClassInfo2@@QAE@XZ)
                        1. 00 0000 0016 0000:??0IProvideClassInfo2@@QAE@XZ (REF 000B: ??0IProvideClassInfo@@QAE@XZ)
                        2. 00 0000 0016 0000:??0IActiveScriptSiteWindow@@QAE@XZ (REF 000B: ??0IUnknown@@QAE@XZ)
                    C7:
                      00........8B:
                        45FC8BE55DC3:
                          55:
                            0. 0B C269 052B 0000:??0SECLayoutDockFactory@@QAE@XZ 001F:??1SECLayoutDockFactory@@UAE@XZ 003B:?CreateDockingWrapper@SECLayoutDockFactory@@UAEPAVSECLayoutNode@@PAVCWnd@@PAV2@PBDK@Z 0071:?CreateDockingWrapper@SECLayoutDockFactory@@UAEPAVSECLayoutNode@@PAVCWnd@@ABV?$SECClassFactory@VSECLayoutNodeDCBase@@@@PAV2@PBDK@Z 00F3:?CreateDockableNode@SECLayoutDockFactory@@UAEPAVSECLayoutNode@@PAVCWnd@@ABV?$SECClassFactory@VSECLayoutNode@@@@PBDPAPAV2@K@Z 0167:?CreateDockableNode@SECLayoutDockFactory@@UAEPAVSECLayoutNode@@PAV2@PAVCWnd@@ABV?$SECClassFactory@VSECLayoutNode@@@@PBDPAPAV2@K@Z 023F:?CreateDockableNodeDC@SECLayoutDockFactory@@UAEPAVSECLayoutNode@@PAVCWnd@@PBDPAPAV2@K@Z 0275:?CreateDockableNodeDC@SECLayoutDockFactory@@UAEPAVSECLayoutNode@@PAVCWnd@@ABV?$SECClassFactory@VSECLayoutNodeDCBase@@@@PBDPAPAV2@K@Z 02EF:?CreateDockableNodeWnd@SECLayoutDockFactory@@UAEPAVSECLayoutNode@@IPAVCWnd@@PBDHPAPAV2@K@Z 033C:?CreateDockableNodeWnd@SECLayoutDockFactory@@UAEPAVSECLayoutNode@@IPAVCWnd@@ABV?$SECClassFactory@VSECLayoutNodeWnd@@@@PBDHPAPAV2@K@Z 038D:?CreateDockableNodeWnd@SECLayoutDockFactory@@UAEPAVSECLayoutNode@@PAVCWnd@@0PBDHPAPAV2@K@Z 03CB:?CreateDockableNodeWnd@SECLayoutDockFactory@@UAEPAVSECLayoutNode@@PAVCWnd@@0ABV?$SECClassFactory@VSECLayoutNodeWnd@@@@PBDHPAPAV2@K@Z 0495:?ApplyScaleToChildren@SECLayoutDockFactory@@MAEHPAVCWnd@@@Z (REF 008C: ?CreateNodeDC@SECLayoutFactory@@QAEPAVSECLayoutNodeDCBase@@PAVCWnd@@PAVSECLayoutNode@@ABV?$SECClassFactory@VSECLayoutNodeDCBase@@@@PBD@Z)
                            1. 0B C269 052B 0000:??0SECLayoutDockFactory@@QAE@XZ 001F:??1SECLayoutDockFactory@@UAE@XZ 003B:?CreateDockingWrapper@SECLayoutDockFactory@@UAEPAVSECLayoutNode@@PAVCWnd@@PAV2@PBGK@Z 0071:?CreateDockingWrapper@SECLayoutDockFactory@@UAEPAVSECLayoutNode@@PAVCWnd@@ABV?$SECClassFactory@VSECLayoutNodeDCBase@@@@PAV2@PBGK@Z 00F3:?CreateDockableNode@SECLayoutDockFactory@@UAEPAVSECLayoutNode@@PAVCWnd@@ABV?$SECClassFactory@VSECLayoutNode@@@@PBGPAPAV2@K@Z 0167:?CreateDockableNode@SECLayoutDockFactory@@UAEPAVSECLayoutNode@@PAV2@PAVCWnd@@ABV?$SECClassFactory@VSECLayoutNode@@@@PBGPAPAV2@K@Z 023F:?CreateDockableNodeDC@SECLayoutDockFactory@@UAEPAVSECLayoutNode@@PAVCWnd@@PBGPAPAV2@K@Z 0275:?CreateDockableNodeDC@SECLayoutDockFactory@@UAEPAVSECLayoutNode@@PAVCWnd@@ABV?$SECClassFactory@VSECLayoutNodeDCBase@@@@PBGPAPAV2@K@Z 02EF:?CreateDockableNodeWnd@SECLayoutDockFactory@@UAEPAVSECLayoutNode@@IPAVCWnd@@PBGHPAPAV2@K@Z 033C:?CreateDockableNodeWnd@SECLayoutDockFactory@@UAEPAVSECLayoutNode@@IPAVCWnd@@ABV?$SECClassFactory@VSECLayoutNodeWnd@@@@PBGHPAPAV2@K@Z 038D:?CreateDockableNodeWnd@SECLayoutDockFactory@@UAEPAVSECLayoutNode@@PAVCWnd@@0PBGHPAPAV2@K@Z 03CB:?CreateDockableNodeWnd@SECLayoutDockFactory@@UAEPAVSECLayoutNode@@PAVCWnd@@0ABV?$SECClassFactory@VSECLayoutNodeWnd@@@@PBGHPAPAV2@K@Z 0495:?ApplyScaleToChildren@SECLayoutDockFactory@@MAEHPAVCWnd@@@Z (REF 008C: ?CreateNodeDC@SECLayoutFactory@@QAEPAVSECLayoutNodeDCBase@@PAVCWnd@@PAVSECLayoutNode@@ABV?$SECClassFactory@VSECLayoutNodeDCBase@@@@PBG@Z)
                          ..:
                            0. 00 0000 001F 0000:??0CGroupArray@SECToolBarCmdPage@@QAE@XZ (REF 0014: ??_7CGroupArray@SECToolBarCmdPage@@6B@)
                            1. 00 0000 001F 0000:??0SECBtnArray@SECCustomToolBar@@QAE@XZ (REF 0014: ??_7SECBtnArray@SECCustomToolBar@@6B@)
                            2. 00 0000 001F 0000:??0SECCustomToolCmdUI@@QAE@XZ (REF 0014: ??_7SECCustomToolCmdUI@@6B@)
                            3. 00 0000 001F 0000:??0SECBtnInfoArray@@QAE@XZ (REF 0014: ??_7SECBtnInfoArray@@6B@)
                            4. 00 0000 001F 0000:??0DescriptorTable@SECMsgFilter@@QAE@XZ (REF 000B: ??0?$CArray@PAUDescriptor@SECMsgFilter@@PAU12@@@QAE@XZ)
                            5. 00 0000 001F 0000:??0?$CCIterPos_T@PAVSECLayoutNode@@@@QAE@XZ (REF 000B: ??0CCIterPos@@QAE@XZ)
                            6. 00 0000 001F 0000:??0?$SECClassFactory_T@VSECLayoutNode@@V1@@@QAE@XZ (REF 0014: ??_7?$SECClassFactory_T@VSECLayoutNode@@V1@@@6B@)
                            7. 00 0000 001F 0000:??0?$SECClassFactory_T@VSECLayoutNodeWnd@@V1@@@QAE@XZ (REF 000B: ??0?$SECClassFactory@VSECLayoutNodeWnd@@@@QAE@XZ)
                            8. 00 0000 001F 0000:??0?$SECClassFactory_T@VSECLayoutWndListener@@V1@@@QAE@XZ (REF 000B: ??0?$SECClassFactory@VSECLayoutWndListener@@@@QAE@XZ)
                            9. 00 0000 001F 0000:??0?$CTypedPtrArray@VCPtrArray@@PAVCWnd@@@@QAE@XZ (REF 0014: ??_7?$CTypedPtrArray@VCPtrArray@@PAVCWnd@@@@6B@)
                            10. 00 0000 001F 0000:??0SECParentOfNegotiableChildNode@@QAE@XZ (REF 000B: ??0ISECParentOfNegotiableChildNode@@QAE@XZ)
                            11. 00 0000 001F 0000:??0?$CTypedPtrArray@VCPtrArray@@PAVSECLayoutNode@@@@QAE@XZ (REF 0014: ??_7?$CTypedPtrArray@VCPtrArray@@PAVSECLayoutNode@@@@6B@)
                            12. 00 0000 001F 0000:??0?$ITreeCollection_T@PAVSECLayoutNode@@@@QAE@XZ (REF 000B: ??0?$ICollection_T@PAVSECLayoutNode@@@@QAE@XZ)
                            13. 00 0000 001F 0000:??0?$SECClassFactory_T@VSECFloatDynGridLineTarget@@VSECLayoutNode@@@@QAE@XZ (REF 0014: ??_7?$SECClassFactory_T@VSECFloatDynGridLineTarget@@VSECLayoutNode@@@@6B@)
                            14. 00 0000 001F 0000:??0?$SECClassFactory_T@VSECFloatingTargetGripper@@VSECLayoutNodeDCBase@@@@QAE@XZ (REF 0014: ??_7?$SECClassFactory_T@VSECFloatingTargetGripper@@VSECLayoutNodeDCBase@@@@6B@)
                            15. 00 0000 001F 0000:??0SECDockInitiatorHitTester@@QAE@XZ (REF 000B: ??0?$SECLNDockHitTester@VISECDockInitiator@@@@QAE@XZ)
                            16. 00 0000 001F 0000:??0SECLNTargetDockHitTester@@QAE@XZ (REF 000B: ??0?$SECLNDockHitTester@VISECDockTarget@@@@QAE@XZ)
                            17. 00 0000 001F 0000:??0?$SECLNOffNodeDockIFaceHitTest_T@VISECDockTarget@@@@QAE@XZ (REF 000B: ??0?$SECLNOffNodeIFaceHitTest_T@VISECDockTarget@@@@QAE@XZ)
                            18. 00 0000 001F 0000:??0SECDockMgrMemMgr@@QAE@XZ (REF 000B: ??0?$SECObjectMemoryManager_T@V?$SECObjectMemoryManager_T@VSECLayoutNode@@@@@@QAE@XZ)
                            19. 00 0000 001F 0000:??0?$SECClassFactory_T@V?$SECFloatableDockingNode_T@VSECReparentableGripperEx@@@@VSECLayoutNodeDCBase@@@@QAE@XZ (REF 0014: ??_7?$SECClassFactory_T@V?$SECFloatableDockingNode_T@VSECReparentableGripperEx@@@@VSECLayoutNodeDCBase@@@@6B@)
                            20. 00 0000 001F 0000:??0?$SECClassFactory_T@VSECLayoutNodeDC@@VSECLayoutNodeDCBase@@@@QAE@XZ (REF 0014: ??_7?$SECClassFactory_T@VSECLayoutNodeDC@@VSECLayoutNodeDCBase@@@@6B@)
                            21. 00 0000 001F 0000:??0?$SECClassFactory_T@VSECLNScale@@VSECLayoutNode@@@@QAE@XZ (REF 0014: ??_7?$SECClassFactory_T@VSECLNScale@@VSECLayoutNode@@@@6B@)
                            22. 00 0000 001F 0000:??0SECToolCmdUI@@QAE@XZ (REF 0014: ??_7SECToolCmdUI@@6B@)
                            23. 00 0000 001F 0000:??0SECStatusCmdUI@@QAE@XZ (REF 0014: ??_7SECStatusCmdUI@@6B@)
                            24. 00 0000 001F 0000:??0SECDTGadgetArray@SECDateTimeCtrl@@QAE@XZ (REF 0014: ??_7SECDTGadgetArray@SECDateTimeCtrl@@6B@)
                            25. 00 0000 001F 0000:??0SECCalcBtnArray@SECCalculator@@QAE@XZ (REF 0014: ??_7SECCalcBtnArray@SECCalculator@@6B@)
                            26. 00 0000 001F 0000:??0XProvideMultipleClassInfo@SECATopLevelItem@@QAE@XZ (REF 000B: ??0IProvideMultipleClassInfo@@QAE@XZ)
                            27. 00 0000 001F 0000:??0ISTypeInformation@@QAE@XZ (REF 0014: ??_7ISTypeInformation@@6B@)
                            28. 00 0000 001F 0000:??0ISTypeDesc@@QAE@XZ (REF 0014: ??_7ISTypeDesc@@6B@)
                            29. 00 0000 001F 0000:??0ISArrayDesc@@QAE@XZ (REF 0014: ??_7ISArrayDesc@@6B@)
                            30. 00 0000 001F 0000:??0SECAArrayBound@@QAE@XZ (REF 000B: ??0ISArrayBound@@QAE@XZ)
                            31. 00 0000 001F 0000:??0ISArrayBound@@QAE@XZ (REF 0014: ??_7ISArrayBound@@6B@)
                            32. 00 0000 001F 0000:??0ISProperty@@QAE@XZ (REF 0014: ??_7ISProperty@@6B@)
                            33. 00 0000 001F 0000:??0ISParameter@@QAE@XZ (REF 0014: ??_7ISParameter@@6B@)
                            34. 00 0000 001F 0000:??0ISFunction@@QAE@XZ (REF 0014: ??_7ISFunction@@6B@)
                            35. 00 0000 001F 0000:??0ISConstant@@QAE@XZ (REF 0014: ??_7ISConstant@@6B@)
                            36. 00 0000 001F 0000:??0ISCollection@@QAE@XZ (REF 0014: ??_7ISCollection@@6B@)
                            37. 00 0000 001F 0000:??0SECVBSlanguage@@QAE@XZ (REF 0014: ??_7SECVBSlanguage@@6B@)
                            38. 00 0000 001F 0000:??0SECAJScriptLang@@QAE@XZ (REF 0014: ??_7SECAJScriptLang@@6B@)
                            39. 00 0000 001F 0000:??0?$CTypedPtrArray@VCObArray@@PAVCFrameWnd@@@@QAE@XZ (REF 0014: ??_7?$CTypedPtrArray@VCObArray@@PAVCFrameWnd@@@@6B@)
                            40. 00 0000 001F 0000:??0?$CTypedPtrArray@VCPtrArray@@PAUBmpInfo@SECBmpMgr@@@@QAE@XZ (REF 0014: ??_7?$CTypedPtrArray@VCPtrArray@@PAUBmpInfo@SECBmpMgr@@@@6B@)
                        4DFC:
                          66C7411400:
                            0. 08 53C7 0028 0000:??0SECTreeNodeX@@QAE@XZ
                          8B55088951:
                            0. 0A 4BC9 002A 0000:??0?$CCIterPos_T@PAVSECLayoutNode@@@@QAE@PAVSECLayoutNode@@@Z
                          C7:
                            41:
                              04:
                                0000:
                                  0. 41 6255 139C 0000:??0SECLNRelativeConstraint@@QAE@XZ 005B:??0SECLNRelative@@QAE@XZ 00D5:??1SECLNRelative@@UAE@XZ 0154:?SetConstraint@SECLNRelative@@UAEHPAVSECLayoutNode@@W4ConstraintType@SECLNRelativeConstraint@@01HM@Z 02DE:?SetConstraint@SECLNRelative@@UAEHPAVSECLayoutNode@@W4ConstraintType@SECLNRelativeConstraint@@H@Z 0310:?SetConstraint@SECLNRelative@@UAEHPAVSECLNRelativeConstraint@@@Z 037D:?RemoveConstraint@SECLNRelative@@UAEHPAVSECLayoutNode@@W4ConstraintType@SECLNRelativeConstraint@@@Z 03F3:?RemoveConstraint@SECLNRelative@@UAEHPAVSECLNRelativeConstraint@@@Z 04A1:?RemoveAllConstraints@SECLNRelative@@UAEHXZ 052A:?OnRecalcLayout@SECLNRelative@@MAE?AVCRect@@ABV2@HH@Z 0624:?ApplyAllConstraints@SECLNRelative@@MAEHAAV?$CTypedPtrMap@VCMapPtrToPtr@@PAVSECLayoutNode@@PAVCRect@@@@@Z 0702:?ApplyConstraint@SECLNRelative@@MAEHPAVSECLNRelativeConstraint@@PAVCRect@@1@Z 09BE:?ApplyConstraintPosition@SECLNRelative@@MAEHAAJPAVSECLNRelativeConstraint@@PAVCRect@@@Z 0B76:?ApplyConstraintSizing@SECLNRelative@@MAEHAAJ0PAVSECLNRelativeConstraint@@PAVCRect@@@Z 0D60:?ApplyConstraintCentering@SECLNRelative@@MAEHAAJ0JPAVSECLNRelativeConstraint@@PAVCRect@@@Z 0EB0:?GetNodeRects@SECLNRelative@@MAEXAAV?$CTypedPtrMap@VCMapPtrToPtr@@PAVSECLayoutNode@@PAVCRect@@@@@Z 109F:?SetDefaultConstraint@SECLNRelative@@MAEXAAW4ConstraintType@SECLNRelativeConstraint@@0@Z 118E:?FindConstraint@SECLNRelative@@MAEPAVSECLNRelativeConstraint@@PAVSECLayoutNode@@W4ConstraintType@2@@Z 11F4:?ApplyNodeRects@SECLNRelative@@MAE?AVCRect@@AAV?$CTypedPtrMap@VCMapPtrToPtr@@PAVSECLayoutNode@@PAVCRect@@@@HH@Z 1326:?FreeNodeRects@SECLNRelative@@MAEXAAV?$CTypedPtrMap@VCMapPtrToPtr@@PAVSECLayoutNode@@PAVCRect@@@@@Z
                                  1. 27 6C81 0047 0000:??0?$CArray@PAUHMENU__@@PAU1@@@QAE@XZ (REF 0014: ??_7?$CArray@PAUHMENU__@@PAU1@@@6B@)
                                  2. 27 6C81 0047 0000:??0?$CArray@PAVSECBmpMenuItemInfo@@PAV1@@@QAE@XZ (REF 0014: ??_7?$CArray@PAVSECBmpMenuItemInfo@@PAV1@@@6B@)
                                  3. 27 6C81 0047 0000:??0?$CArray@HH@@QAE@XZ (REF 0014: ??_7?$CArray@HH@@6B@)
                                  4. 27 6C81 0047 0000:??0?$CArray@II@@QAE@XZ (REF 0014: ??_7?$CArray@II@@6B@)
                                  5. 27 6C81 0047 0000:??0?$CArray@PAUDescriptor@SECMsgFilter@@PAU12@@@QAE@XZ (REF 0014: ??_7?$CArray@PAUDescriptor@SECMsgFilter@@PAU12@@@6B@)
                                  6. 27 6C81 0047 0000:??0?$CArray@VSECABrowsedEvent@@AAV1@@@QAE@XZ (REF 0014: ??_7?$CArray@VSECABrowsedEvent@@AAV1@@@6B@)
                                  7. 27 6C81 0047 0000:??0?$CArray@MM@@QAE@XZ (REF 0014: ??_7?$CArray@MM@@6B@)
                                  8. 27 6C81 0047 0000:??0?$CArray@PAVSECBar@@PAV1@@@QAE@XZ (REF 0014: ??_7?$CArray@PAVSECBar@@PAV1@@@6B@)
                                  9. 27 6C81 0047 0000:??0?$CArray@PAVSECMsgFilter@@PAV1@@@QAE@XZ (REF 0014: ??_7?$CArray@PAVSECMsgFilter@@PAV1@@@6B@)
                                  10. 27 6C81 0047 0000:??0?$CArray@VSECAObjectDef@@AAV1@@@QAE@XZ (REF 0014: ??_7?$CArray@VSECAObjectDef@@AAV1@@@6B@)
                                  11. 27 6C81 0047 0000:??0?$CArray@USEC_ToolEntry@@AAU1@@@QAE@XZ (REF 0014: ??_7?$CArray@USEC_ToolEntry@@AAU1@@@6B@)
                                  12. 27 6C81 0047 0000:??0?$CArray@VCString@@AAV1@@@QAE@XZ (REF 0014: ??_7?$CArray@VCString@@AAV1@@@6B@)
                                  13. 27 6C81 0047 0000:??0?$CArray@USECA_EventParam@@AAU1@@@QAE@XZ (REF 0014: ??_7?$CArray@USECA_EventParam@@AAU1@@@6B@)
                                  14. 27 6C81 0047 0000:??0?$CArray@PAVSECACtrlItem@@PAV1@@@QAE@XZ (REF 0014: ??_7?$CArray@PAVSECACtrlItem@@PAV1@@@6B@)
                                  15. 27 6C81 0047 0000:??0?$CArray@UListData@SECAPropList@@AAU12@@@QAE@XZ (REF 0014: ??_7?$CArray@UListData@SECAPropList@@AAU12@@@6B@)
                                  16. 27 6C81 0047 0000:??0?$CArray@USECA_EnumType@@AAU1@@@QAE@XZ (REF 0014: ??_7?$CArray@USECA_EnumType@@AAU1@@@6B@)
                                  17. 27 6C81 0047 0000:??0?$CArray@VSECABrowseProp@@AAV1@@@QAE@XZ (REF 0014: ??_7?$CArray@VSECABrowseProp@@AAV1@@@6B@)
                                  18. 27 6C81 0047 0000:??0?$CArray@USECCommand@@AAU1@@@QAE@XZ (REF 0014: ??_7?$CArray@USECCommand@@AAU1@@@6B@)
                                  19. 27 6C81 0047 0000:??0?$CArray@UtagACCEL@@AAU1@@@QAE@XZ (REF 0014: ??_7?$CArray@UtagACCEL@@AAU1@@@6B@)
                                  20. 1F 887D 045E 0000:??0SECADispatch@@QAE@XZ 0033:??1SECADispatch@@UAE@XZ 0062:?QueryInterface@SECADispatch@@UAGJABU_GUID@@PAPAX@Z 00EC:?AddRef@SECADispatch@@UAGKXZ 0136:?Release@SECADispatch@@UAGKXZ 01D0:?GetTypeInfoCount@SECADispatch@@UAGJPAI@Z 01E2:?GetTypeInfo@SECADispatch@@UAGJIKPAPAUITypeInfo@@@Z 021E:?GetIDsOfNames@SECADispatch@@UAGJABU_GUID@@PAPAGIKPAJ@Z 023E:?Invoke@SECADispatch@@UAGJJABU_GUID@@KGPAUtagDISPPARAMS@@PAUtagVARIANT@@PAUtagEXCEPINFO@@PAI@Z 02AD:?LoadTypeInfo@SECADispatch@@UAGJABU_GUID@@@Z 03EE:?RaiseException@SECADispatch@@UAGXH@Z
                                  21. 09 C7F5 0029 0000:??0SECDefReparentableNode@@QAE@XZ
                                ..:
                                  0. 00 0000 031D 0000:??0SECLNScale@@QAE@XZ 0029:??1SECLNScale@@UAE@XZ 004F:?OnRecalcLayout@SECLNScale@@MAE?AVCRect@@ABV2@HH@Z 021E:?CalcNewChildNodeRect@SECLNScale@@MAE?AVCRect@@ABV2@00@Z (0048: EC)
                                  1. 00 0000 202A 0000:??0SECLNBorderClient@@QAE@XZ 0084:??1SECLNBorderClient@@UAE@XZ 00AA:?LocatePositionFromNode@SECLNBorderClient@@UAEHPAVSECLayoutNode@@AAW4BorderPosition@1@@Z 014A:?LocateNodeFromPosition@SECLNBorderClient@@UAEPAVSECLayoutNode@@W4BorderPosition@1@@Z 01D4:?AddLayoutNode@SECLNBorderClient@@UAEHPAVSECLayoutNode@@W4BorderPosition@1@@Z 0295:?AddLayoutNode@SECLNBorderClient@@UAEHPAVSECLayoutNode@@@Z 02D5:?RemoveLayoutNode@SECLNBorderClient@@UAEHPAVSECLayoutNode@@@Z 0337:?OnRecalcLayout@SECLNBorderClient@@MAE?AVCRect@@ABV2@HH@Z 064C:?RecalcBorderRects@SECLNBorderClient@@MAE?AVCRect@@ABV2@AAV2@111@Z 0764:?GetAutoInsertPosition@SECLNBorderClient@@MAEHAAW4BorderPosition@1@@Z 0872:?AddBorderNode@SECLNBorderClient@@MAEHPAVSECLayoutNode@@W4BorderPosition@1@@Z 09E9:?RemoveBorderNode@SECLNBorderClient@@MAEHPAVSECLayoutNode@@@Z 0A9D:?RecalcBorderRectsTBLR@SECLNBorderClient@@MAE?AVCRect@@ABV2@AAV2@111@Z 0CC6:?RecalcBorderRectsLRTB@SECLNBorderClient@@MAE?AVCRect@@ABV2@AAV2@111@Z 0F03:?SetClientRectWithinMinMax@SECLNBorderClient@@MAEHABVCRect@@AAV2@1111@Z 109D:?AdjustClientRectOneDimension@SECLNBorderClient@@MAEXPAVSECLayoutNode@@0ABVCRect@@AAV3@HH@Z 1264:?BoundClientInsideParent@SECLNBorderClient@@MAEXAAVCRect@@ABV2@@Z 131A:?ResetNodeRectsAroundClient@SECLNBorderClient@@MAEXABVCRect@@AAV2@111@Z 13BF:?NegotiatePreferredChildNodeRects@SECLNBorderClient@@MAEHABVCRect@@AAV2@111@Z 15C7:?NegotiatePreferredChildNodeRectsTBLR@SECLNBorderClient@@MAEHABVCRect@@AAV2@111@Z 193C:?NegotiatePreferredChildNodeRectsLRTB@SECLNBorderClient@@MAEHABVCRect@@AAV2@111@Z 1CAD:?ApplyChildNodeRects@SECLNBorderClient@@MAEXABVCRect@@0000@Z 1DB6:?NormalizeBorderSizeIfTooLarge@SECLNBorderClient@@MAEMHHH@Z 1E25:?CalcClientRect@SECLNBorderClient@@MAE?AVCRect@@V2@000@Z 1EFB:?GetBorderRects@SECLNBorderClient@@MAEXAAVCRect@@000@Z 1FF7:?GetAdjustedBorderRect@SECLNBorderClient@@MAEXPAVSECLayoutNode@@AAVCRect@@@Z (0048: B0)
                                  2. 00 0000 06DA 0000:??0SECLNGrid@@QAE@XZ 006A:??0SECLNGrid@@QAE@IIIIH@Z 00DE:??1SECLNGrid@@UAE@XZ 0104:?SetGridDimensions@SECLNGrid@@UAEXIIIIH@Z 01E5:?AddLayoutNode@SECLNGrid@@UAEHPAVSECLayoutNode@@@Z 0251:?OnRecalcLayout@SECLNGrid@@MAE?AVCRect@@ABV2@HH@Z 044E:?GetColumnWidth@SECLNGrid@@MAEIIVCRect@@@Z 053C:?GetRowHeight@SECLNGrid@@MAEIIVCRect@@@Z 062A:?GetNextGridCell@SECLNGrid@@MAEXAAI0IIABVCRect@@@Z (0048: 5D)
                                  3. 00 0000 009E 0000:??0SECFloatDynGridLineTarget@@QAE@XZ (0048: C4)
                                  4. 00 0000 0036 0000:??0SECLayoutNodeDCBase@@QAE@XZ
                              080000:
                                0. 30 AA78 0222 0000:??0SECDefUndoableNode@@QAE@XZ 0033:?UndoableRemoveLayoutNode@SECDefUndoableNode@@UAEHPAVSECLayoutNode@@@Z 011A:?RestoreLastRemoveLayoutNode@SECDefUndoableNode@@UAEHXZ 01FA:?RestoreRemoveLayoutNode@SECDefUndoableNode@@UAEHPAVSECLayoutNode@@@Z
                              140000:
                                0. 1D C83B 003D 0000:??0SECAUndoEdit@@QAE@XZ
                              3C:
                                0000:
                                  0. 09 C7F5 0029 0000:??0SECScriptHostDocDummyWnd@@QAE@XZ
                                ..:
                                  0. 00 0000 00E4 0000:??0SECTreeCtrl@@QAE@XZ 0029:??1SECTreeCtrl@@UAE@XZ 004F:?GetRuntimeClass@SECTreeCtrl@@UBEPAUCRuntimeClass@@XZ 005F:?GetMessageMap@SECTreeCtrl@@MBEPBUAFX_MSGMAP@@XZ 006F:?DDX_Control@@YAXPAVCDataExchange@@HAAVSECTreeCtrl@@@Z (00C0: 5E)
                                  1. 00 0000 00EA 0000:??0SECListCtrl@@QAE@XZ 0029:??1SECListCtrl@@UAE@XZ 004F:?GetRuntimeClass@SECListCtrl@@UBEPAUCRuntimeClass@@XZ 005F:?GetMessageMap@SECListCtrl@@MBEPBUAFX_MSGMAP@@XZ 006F:?DDX_Control@@YAXPAVCDataExchange@@HAAVSECListCtrl@@@Z (00C0: E8)
                              40:
                                0000:
                                  0. 09 C7F5 0029 0000:??0SECScriptHostDocDummyWnd@@QAE@XZ
                                ..:
                                  0. 00 0000 00EB 0000:??0SECTreeView@@QAE@XZ 0029:??1SECTreeView@@UAE@XZ 004F:?CreateObject@SECTreeView@@SGPAVCObject@@XZ 00BD:?GetRuntimeClass@SECTreeView@@UBEPAUCRuntimeClass@@XZ 00CD:?GetMessageMap@SECTreeView@@MBEPBUAFX_MSGMAP@@XZ 00DD:?GetTreeCtrl@SECTreeView@@QBEAAV1@XZ (00CA: C3)
                                  1. 00 0000 00FE 0000:??0SECListCtrl@@QAE@XZ 0029:??1SECListCtrl@@UAE@XZ 004F:?_GetBaseClass@SECListCtrl@@KGPAUCRuntimeClass@@XZ 0059:?GetRuntimeClass@SECListCtrl@@UBEPAUCRuntimeClass@@XZ 0069:?_GetBaseMessageMap@SECListCtrl@@KGPBUAFX_MSGMAP@@XZ 0073:?GetMessageMap@SECListCtrl@@MBEPBUAFX_MSGMAP@@XZ 0083:?DDX_Control@@YAXPAVCDataExchange@@HAAVSECListCtrl@@@Z (00CA: CC)
                                  2. 00 0000 00F8 0000:??0SECTreeCtrl@@QAE@XZ 0029:??1SECTreeCtrl@@UAE@XZ 004F:?_GetBaseClass@SECTreeCtrl@@KGPAUCRuntimeClass@@XZ 0059:?GetRuntimeClass@SECTreeCtrl@@UBEPAUCRuntimeClass@@XZ 0069:?_GetBaseMessageMap@SECTreeCtrl@@KGPBUAFX_MSGMAP@@XZ 0073:?GetMessageMap@SECTreeCtrl@@MBEPBUAFX_MSGMAP@@XZ 0083:?DDX_Control@@YAXPAVCDataExchange@@HAAVSECTreeCtrl@@@Z (00CA: E0)
                              44:
                                0. 00 0000 00FF 0000:??0SECTreeView@@QAE@XZ 0029:??1SECTreeView@@UAE@XZ 004F:?CreateObject@SECTreeView@@SGPAVCObject@@XZ 00BD:?_GetBaseClass@SECTreeView@@KGPAUCRuntimeClass@@XZ 00C7:?GetRuntimeClass@SECTreeView@@UBEPAUCRuntimeClass@@XZ 00D7:?_GetBaseMessageMap@SECTreeView@@KGPBUAFX_MSGMAP@@XZ 00E1:?GetMessageMap@SECTreeView@@MBEPBUAFX_MSGMAP@@XZ 00F1:?GetTreeCtrl@SECTreeView@@QBEAAV1@XZ
                              480200:
                                0. 04 1CB0 0947 0000:??0SECStatusBar@@QAE@XZ 007D:??1SECStatusBar@@UAE@XZ 00D2:?Create@SECStatusBar@@QAEHPAVCWnd@@KI@Z 00F5:?CreateEx@SECStatusBar@@QAEHPAVCWnd@@KKI@Z 01DC:?PreCreateWindow@SECStatusBar@@UAEHAAUtagCREATESTRUCTA@@@Z 0223:?SetIndicators@SECStatusBar@@QAEHPBIH@Z 04C9:?AllocElements@SECStatusBar@@QAEHHH@Z 058B:?CalcInsideRect@SECStatusBar@@QBEXAAVCRect@@H@Z 067E:?UpdateAllPanes@SECStatusBar@@IAEXHH@Z (REF 01C7: $SG142229)
                                1. 04 1CB0 0947 0000:??0SECStatusBar@@QAE@XZ 007D:??1SECStatusBar@@UAE@XZ 00D2:?Create@SECStatusBar@@QAEHPAVCWnd@@KI@Z 00F5:?CreateEx@SECStatusBar@@QAEHPAVCWnd@@KKI@Z 01DC:?PreCreateWindow@SECStatusBar@@UAEHAAUtagCREATESTRUCTW@@@Z 0223:?SetIndicators@SECStatusBar@@QAEHPBIH@Z 04C9:?AllocElements@SECStatusBar@@QAEHHH@Z 058B:?CalcInsideRect@SECStatusBar@@QBEXAAVCRect@@H@Z 067E:?UpdateAllPanes@SECStatusBar@@IAEXHH@Z (REF 01C7: $SG142001)
                              4C0200:
                                0. 04 1CB0 0948 0000:??0SECStatusBar@@QAE@XZ 007D:??1SECStatusBar@@UAE@XZ 00D2:?Create@SECStatusBar@@QAEHPAVCWnd@@KI@Z 00F5:?CreateEx@SECStatusBar@@QAEHPAVCWnd@@KKI@Z 01DC:?PreCreateWindow@SECStatusBar@@UAEHAAUtagCREATESTRUCTA@@@Z 0223:?SetIndicators@SECStatusBar@@QAEHPBIH@Z 04C9:?AllocElements@SECStatusBar@@QAEHHH@Z 058C:?CalcInsideRect@SECStatusBar@@QBEXAAVCRect@@H@Z 067F:?UpdateAllPanes@SECStatusBar@@IAEXHH@Z (REF 01C7: $SG142990)
                                1. 04 1CB0 0948 0000:??0SECStatusBar@@QAE@XZ 007D:??1SECStatusBar@@UAE@XZ 00D2:?Create@SECStatusBar@@QAEHPAVCWnd@@KI@Z 00F5:?CreateEx@SECStatusBar@@QAEHPAVCWnd@@KKI@Z 01DC:?PreCreateWindow@SECStatusBar@@UAEHAAUtagCREATESTRUCTW@@@Z 0223:?SetIndicators@SECStatusBar@@QAEHPBIH@Z 04C9:?AllocElements@SECStatusBar@@QAEHHH@Z 058C:?CalcInsideRect@SECStatusBar@@QBEXAAVCRect@@H@Z 067F:?UpdateAllPanes@SECStatusBar@@IAEXHH@Z (REF 01C7: $SG142762)
                              5C0100:
                                0. 15 7E78 0680 0000:??0SECDayBar@@QAE@XZ 0029:??1SECDayBar@@UAE@XZ 0045:?SetFirstDayOfWeek@SECDayBar@@QAEXH@Z 005B:?GetFirstDayOfWeek@SECDayBar@@QBEHXZ 006C:?OnDrawLabel@SECDayBar@@UAEHPAVCDC@@@Z 02DE:?RectSizeFromFont@SECDayBar@@QAE?AVCSize@@PAVCDC@@PAVSECCalendar@@PAUtagLOGFONTA@@@Z 0431:?FontSizeFromRect@SECDayBar@@QAE?AUtagLOGFONTA@@PAVCDC@@PAU2@PAVCRect@@@Z (064A: 00)
                                1. 15 7E78 06A7 0000:??0SECDayBar@@QAE@XZ 0029:??1SECDayBar@@UAE@XZ 0045:?SetFirstDayOfWeek@SECDayBar@@QAEXH@Z 005B:?GetFirstDayOfWeek@SECDayBar@@QBEHXZ 006C:?OnDrawLabel@SECDayBar@@UAEHPAVCDC@@@Z 02DE:?RectSizeFromFont@SECDayBar@@QAE?AVCSize@@PAVCDC@@PAVSECCalendar@@PAUtagLOGFONTW@@@Z 0431:?FontSizeFromRect@SECDayBar@@QAE?AUtagLOGFONTW@@PAVCDC@@PAU2@PAVCRect@@@Z (064A: 7C)
                            81:
                              480100:
                                0. 18 3307 351E 0000:??0SECFileSystem@@QAE@XZ 002C:??1SECFileSystem@@UAE@XZ 0048:?GetFileStatus@SECFileSystem@@QAEHABVCString@@AAUCFileStatus@@@Z 0067:?GetFileCreateTime@SECFileSystem@@QAEHABVCString@@AAVCTime@@@Z 00B8:?GetFileModifyTime@SECFileSystem@@QAEHABVCString@@AAVCTime@@@Z 0109:?GetFileAccessTime@SECFileSystem@@QAEHABVCString@@AAVCTime@@@Z 015A:?GetFileSize@SECFileSystem@@QAEHABVCString@@AAK@Z 01A7:?GetFileAttribute@SECFileSystem@@QAEHABVCString@@AAE@Z 01F4:?GetADirectoryEntry@SECFileSystem@@IAEHAAVCString@@ABV2@K@Z 02EF:?GetDirectoryEntry@SECFileSystem@@QAEPAVCString@@ABV2@K@Z 044C:?GetCurrentDirectoryA@SECFileSystem@@QAE?AVCString@@ABV2@@Z 05B9:?ChangeDirectory@SECFileSystem@@QAEHABVCString@@@Z 061E:?RenameDirectory@SECFileSystem@@QAEHABVCString@@0@Z 073B:?MakeDirectory@SECFileSystem@@QAEHABVCString@@@Z 0778:?MakePath@SECFileSystem@@QAEHABVCString@@@Z 09BE:?DeleteDirectory@SECFileSystem@@QAEHABVCString@@H@Z 0AFA:?GetDirectorySize@SECFileSystem@@QAEJABVCString@@0H@Z 0D11:?GetCurrentFileSystem@SECFileSystem@@QAE?AVCString@@XZ 0DA7:?ChangeFileSystem@SECFileSystem@@IAEHD@Z 0E06:?ChangeFileSystem@SECFileSystem@@QAEHABVCString@@@Z 0E22:?GetFileSystemList@SECFileSystem@@QAEPAVCStringList@@XZ 0FA7:?GetVolumeLabel@SECFileSystem@@QAE?AVCString@@ABV2@@Z 1091:?GetFileSystemType@SECFileSystem@@QAEJABVCString@@@Z 10BC:?GetFreeSpace@SECFileSystem@@QAEJABVCString@@@Z 1118:?GetTotalSpace@SECFileSystem@@QAEJABVCString@@@Z 1174:?IsReadOnlyFileSystem@SECFileSystem@@QAEHABVCString@@@Z 12C4:?RenameFile@SECFileSystem@@QAEHABVCString@@0@Z 13E1:?DeleteFiles@SECFileSystem@@QAEHABVCString@@K@Z 14B7:?DeleteFileA@SECFileSystem@@QAEHABVCString@@@Z 157E:?CloseFile@SECFileSystem@@IBEHPAVCFile@@@Z 162D:?CopyFileA@SECFileSystem@@QAEHABVCString@@0K@Z 1839:?CopyFiles@SECFileSystem@@QAEHABVCString@@0HK@Z 198B:?CompareFiles@SECFileSystem@@QAEHABVCString@@0K@Z 1BC9:?CompareDirectories@SECFileSystem@@QAEHABVCString@@0HHK@Z 224D:?GetFullPathNameA@SECFileSystem@@QAE?AVCString@@ABV2@@Z 22EE:?GetFileName@SECFileSystem@@QAE?AVCString@@ABV2@@Z 23BC:?GetPath@SECFileSystem@@QAE?AVCString@@ABV2@H@Z 2569:?GetExtension@SECFileSystem@@QAE?AVCString@@ABV2@@Z 263E:?GetFileSystem@SECFileSystem@@QAE?AVCString@@ABV2@@Z 2740:?GetBaseFileName@SECFileSystem@@QAE?AVCString@@ABV2@@Z 282B:?FileExists@SECFileSystem@@QAEHABVCString@@@Z 286E:?FileSystemExists@SECFileSystem@@QAEHABVCString@@@Z 2976:?DirectoryExists@SECFileSystem@@QAEHABVCString@@@Z 29B4:?GetDirectory@SECFileSystem@@QAEPAVCStringList@@ABVCString@@KHPAV2@@Z 2B9F:?GetSubdirList@SECFileSystem@@QAEPAVCStringList@@ABVCString@@H@Z 2F25:?GetFileList@SECFileSystem@@QAEPAVCStringList@@ABVCString@@K@Z 3124:?Sort@SECFileSystem@@SAXPAVCStringList@@H@Z 32B5:?LoadListBox@SECFileSystem@@SAXPAVCListBox@@PBVCStringList@@@Z 3355:?LoadComboBox@SECFileSystem@@SAXPAVCComboBox@@PBVCStringList@@@Z 33F5:?AppendWildcard@SECFileSystem@@QAE?AVCString@@ABV2@0@Z (34E5: 00)
                                1. 18 3307 3529 0000:??0SECFileSystem@@QAE@XZ 002C:??1SECFileSystem@@UAE@XZ 0048:?GetFileStatus@SECFileSystem@@QAEHABVCString@@AAUCFileStatus@@@Z 0067:?GetFileCreateTime@SECFileSystem@@QAEHABVCString@@AAVCTime@@@Z 00B8:?GetFileModifyTime@SECFileSystem@@QAEHABVCString@@AAVCTime@@@Z 0109:?GetFileAccessTime@SECFileSystem@@QAEHABVCString@@AAVCTime@@@Z 015A:?GetFileSize@SECFileSystem@@QAEHABVCString@@AAK@Z 01A7:?GetFileAttribute@SECFileSystem@@QAEHABVCString@@AAE@Z 01F4:?GetADirectoryEntry@SECFileSystem@@IAEHAAVCString@@ABV2@K@Z 02EF:?GetDirectoryEntry@SECFileSystem@@QAEPAVCString@@ABV2@K@Z 044C:?GetCurrentDirectoryA@SECFileSystem@@QAE?AVCString@@ABV2@@Z 05B9:?ChangeDirectory@SECFileSystem@@QAEHABVCString@@@Z 061E:?RenameDirectory@SECFileSystem@@QAEHABVCString@@0@Z 073C:?MakeDirectory@SECFileSystem@@QAEHABVCString@@@Z 0779:?MakePath@SECFileSystem@@QAEHABVCString@@@Z 09BF:?DeleteDirectory@SECFileSystem@@QAEHABVCString@@H@Z 0AFB:?GetDirectorySize@SECFileSystem@@QAEJABVCString@@0H@Z 0D12:?GetCurrentFileSystem@SECFileSystem@@QAE?AVCString@@XZ 0DA9:?ChangeFileSystem@SECFileSystem@@IAEHD@Z 0E0A:?ChangeFileSystem@SECFileSystem@@QAEHABVCString@@@Z 0E26:?GetFileSystemList@SECFileSystem@@QAEPAVCStringList@@XZ 0FAB:?GetVolumeLabel@SECFileSystem@@QAE?AVCString@@ABV2@@Z 1095:?GetFileSystemType@SECFileSystem@@QAEJABVCString@@@Z 10C0:?GetFreeSpace@SECFileSystem@@QAEJABVCString@@@Z 111C:?GetTotalSpace@SECFileSystem@@QAEJABVCString@@@Z 1178:?IsReadOnlyFileSystem@SECFileSystem@@QAEHABVCString@@@Z 12C8:?RenameFile@SECFileSystem@@QAEHABVCString@@0@Z 13E6:?DeleteFiles@SECFileSystem@@QAEHABVCString@@K@Z 14BC:?DeleteFileA@SECFileSystem@@QAEHABVCString@@@Z 1585:?CloseFile@SECFileSystem@@IBEHPAVCFile@@@Z 1635:?CopyFileA@SECFileSystem@@QAEHABVCString@@0K@Z 1841:?CopyFiles@SECFileSystem@@QAEHABVCString@@0HK@Z 1993:?CompareFiles@SECFileSystem@@QAEHABVCString@@0K@Z 1BD1:?CompareDirectories@SECFileSystem@@QAEHABVCString@@0HHK@Z 2255:?GetFullPathNameA@SECFileSystem@@QAE?AVCString@@ABV2@@Z 22F6:?GetFileName@SECFileSystem@@QAE?AVCString@@ABV2@@Z 23C4:?GetPath@SECFileSystem@@QAE?AVCString@@ABV2@H@Z 2571:?GetExtension@SECFileSystem@@QAE?AVCString@@ABV2@@Z 2646:?GetFileSystem@SECFileSystem@@QAE?AVCString@@ABV2@@Z 2748:?GetBaseFileName@SECFileSystem@@QAE?AVCString@@ABV2@@Z 2833:?FileExists@SECFileSystem@@QAEHABVCString@@@Z 2876:?FileSystemExists@SECFileSystem@@QAEHABVCString@@@Z 297E:?DirectoryExists@SECFileSystem@@QAEHABVCString@@@Z 29BC:?GetDirectory@SECFileSystem@@QAEPAVCStringList@@ABVCString@@KHPAV2@@Z 2BA7:?GetSubdirList@SECFileSystem@@QAEPAVCStringList@@ABVCString@@H@Z 2F30:?GetFileList@SECFileSystem@@QAEPAVCStringList@@ABVCString@@K@Z 312F:?Sort@SECFileSystem@@SAXPAVCStringList@@H@Z 32C0:?LoadListBox@SECFileSystem@@SAXPAVCListBox@@PBVCStringList@@@Z 3360:?LoadComboBox@SECFileSystem@@SAXPAVCComboBox@@PBVCStringList@@@Z 3400:?AppendWildcard@SECFileSystem@@QAE?AVCString@@ABV2@0@Z (34E5: 89)
                              580200:
                                0. 18 3307 3764 0000:??0SECFileSystem@@QAE@XZ 002C:??1SECFileSystem@@UAE@XZ 0048:?GetFileStatus@SECFileSystem@@QAEHABVCString@@AAUCFileStatus@@@Z 0067:?GetFileCreateTime@SECFileSystem@@QAEHABVCString@@AAVCTime@@@Z 00B8:?GetFileModifyTime@SECFileSystem@@QAEHABVCString@@AAVCTime@@@Z 0109:?GetFileAccessTime@SECFileSystem@@QAEHABVCString@@AAVCTime@@@Z 015A:?GetFileSize@SECFileSystem@@QAEHABVCString@@AAK@Z 01A7:?GetFileAttribute@SECFileSystem@@QAEHABVCString@@AAE@Z 01F4:?GetADirectoryEntry@SECFileSystem@@IAEHAAVCString@@ABV2@K@Z 0336:?GetDirectoryEntry@SECFileSystem@@QAEPAVCString@@ABV2@K@Z 04D8:?GetCurrentDirectoryW@SECFileSystem@@QAE?AVCString@@ABV2@@Z 068B:?ChangeDirectory@SECFileSystem@@QAEHABVCString@@@Z 06F0:?RenameDirectory@SECFileSystem@@QAEHABVCString@@0@Z 080D:?MakeDirectory@SECFileSystem@@QAEHABVCString@@@Z 084A:?MakePath@SECFileSystem@@QAEHABVCString@@@Z 0A94:?DeleteDirectory@SECFileSystem@@QAEHABVCString@@H@Z 0BD0:?GetDirectorySize@SECFileSystem@@QAEJABVCString@@0H@Z 0DE7:?GetCurrentFileSystem@SECFileSystem@@QAE?AVCString@@XZ 0E9C:?ChangeFileSystem@SECFileSystem@@IAEHD@Z 0F01:?ChangeFileSystem@SECFileSystem@@QAEHABVCString@@@Z 0F1D:?GetFileSystemList@SECFileSystem@@QAEPAVCStringList@@XZ 10E6:?GetVolumeLabel@SECFileSystem@@QAE?AVCString@@ABV2@@Z 11D0:?GetFileSystemType@SECFileSystem@@QAEJABVCString@@@Z 11FB:?GetFreeSpace@SECFileSystem@@QAEJABVCString@@@Z 1257:?GetTotalSpace@SECFileSystem@@QAEJABVCString@@@Z 12B3:?IsReadOnlyFileSystem@SECFileSystem@@QAEHABVCString@@@Z 1403:?RenameFile@SECFileSystem@@QAEHABVCString@@0@Z 1520:?DeleteFiles@SECFileSystem@@QAEHABVCString@@K@Z 15F6:?DeleteFileW@SECFileSystem@@QAEHABVCString@@@Z 16BD:?CloseFile@SECFileSystem@@IBEHPAVCFile@@@Z 176C:?CopyFileW@SECFileSystem@@QAEHABVCString@@0K@Z 1978:?CopyFiles@SECFileSystem@@QAEHABVCString@@0HK@Z 1ACA:?CompareFiles@SECFileSystem@@QAEHABVCString@@0K@Z 1D08:?CompareDirectories@SECFileSystem@@QAEHABVCString@@0HHK@Z 238C:?GetFullPathNameW@SECFileSystem@@QAE?AVCString@@ABV2@@Z 242D:?GetFileName@SECFileSystem@@QAE?AVCString@@ABV2@@Z 24FB:?GetPath@SECFileSystem@@QAE?AVCString@@ABV2@H@Z 26A8:?GetExtension@SECFileSystem@@QAE?AVCString@@ABV2@@Z 277D:?GetFileSystem@SECFileSystem@@QAE?AVCString@@ABV2@@Z 287F:?GetBaseFileName@SECFileSystem@@QAE?AVCString@@ABV2@@Z 296A:?FileExists@SECFileSystem@@QAEHABVCString@@@Z 29AD:?FileSystemExists@SECFileSystem@@QAEHABVCString@@@Z 2AB5:?DirectoryExists@SECFileSystem@@QAEHABVCString@@@Z 2AF3:?GetDirectory@SECFileSystem@@QAEPAVCStringList@@ABVCString@@KHPAV2@@Z 2CDE:?GetSubdirList@SECFileSystem@@QAEPAVCStringList@@ABVCString@@H@Z 30EC:?GetFileList@SECFileSystem@@QAEPAVCStringList@@ABVCString@@K@Z 334C:?Sort@SECFileSystem@@SAXPAVCStringList@@H@Z 34DD:?LoadListBox@SECFileSystem@@SAXPAVCListBox@@PBVCStringList@@@Z 357D:?LoadComboBox@SECFileSystem@@SAXPAVCComboBox@@PBVCStringList@@@Z 361D:?AppendWildcard@SECFileSystem@@QAE?AVCString@@ABV2@0@Z (372B: 00)
                                1. 18 3307 376F 0000:??0SECFileSystem@@QAE@XZ 002C:??1SECFileSystem@@UAE@XZ 0048:?GetFileStatus@SECFileSystem@@QAEHABVCString@@AAUCFileStatus@@@Z 0067:?GetFileCreateTime@SECFileSystem@@QAEHABVCString@@AAVCTime@@@Z 00B8:?GetFileModifyTime@SECFileSystem@@QAEHABVCString@@AAVCTime@@@Z 0109:?GetFileAccessTime@SECFileSystem@@QAEHABVCString@@AAVCTime@@@Z 015A:?GetFileSize@SECFileSystem@@QAEHABVCString@@AAK@Z 01A7:?GetFileAttribute@SECFileSystem@@QAEHABVCString@@AAE@Z 01F4:?GetADirectoryEntry@SECFileSystem@@IAEHAAVCString@@ABV2@K@Z 0336:?GetDirectoryEntry@SECFileSystem@@QAEPAVCString@@ABV2@K@Z 04D8:?GetCurrentDirectoryW@SECFileSystem@@QAE?AVCString@@ABV2@@Z 068B:?ChangeDirectory@SECFileSystem@@QAEHABVCString@@@Z 06F0:?RenameDirectory@SECFileSystem@@QAEHABVCString@@0@Z 080E:?MakeDirectory@SECFileSystem@@QAEHABVCString@@@Z 084B:?MakePath@SECFileSystem@@QAEHABVCString@@@Z 0A95:?DeleteDirectory@SECFileSystem@@QAEHABVCString@@H@Z 0BD1:?GetDirectorySize@SECFileSystem@@QAEJABVCString@@0H@Z 0DE8:?GetCurrentFileSystem@SECFileSystem@@QAE?AVCString@@XZ 0E9E:?ChangeFileSystem@SECFileSystem@@IAEHD@Z 0F05:?ChangeFileSystem@SECFileSystem@@QAEHABVCString@@@Z 0F21:?GetFileSystemList@SECFileSystem@@QAEPAVCStringList@@XZ 10EA:?GetVolumeLabel@SECFileSystem@@QAE?AVCString@@ABV2@@Z 11D4:?GetFileSystemType@SECFileSystem@@QAEJABVCString@@@Z 11FF:?GetFreeSpace@SECFileSystem@@QAEJABVCString@@@Z 125B:?GetTotalSpace@SECFileSystem@@QAEJABVCString@@@Z 12B7:?IsReadOnlyFileSystem@SECFileSystem@@QAEHABVCString@@@Z 1407:?RenameFile@SECFileSystem@@QAEHABVCString@@0@Z 1525:?DeleteFiles@SECFileSystem@@QAEHABVCString@@K@Z 15FB:?DeleteFileW@SECFileSystem@@QAEHABVCString@@@Z 16C4:?CloseFile@SECFileSystem@@IBEHPAVCFile@@@Z 1774:?CopyFileW@SECFileSystem@@QAEHABVCString@@0K@Z 1980:?CopyFiles@SECFileSystem@@QAEHABVCString@@0HK@Z 1AD2:?CompareFiles@SECFileSystem@@QAEHABVCString@@0K@Z 1D10:?CompareDirectories@SECFileSystem@@QAEHABVCString@@0HHK@Z 2394:?GetFullPathNameW@SECFileSystem@@QAE?AVCString@@ABV2@@Z 2435:?GetFileName@SECFileSystem@@QAE?AVCString@@ABV2@@Z 2503:?GetPath@SECFileSystem@@QAE?AVCString@@ABV2@H@Z 26B0:?GetExtension@SECFileSystem@@QAE?AVCString@@ABV2@@Z 2785:?GetFileSystem@SECFileSystem@@QAE?AVCString@@ABV2@@Z 2887:?GetBaseFileName@SECFileSystem@@QAE?AVCString@@ABV2@@Z 2972:?FileExists@SECFileSystem@@QAEHABVCString@@@Z 29B5:?FileSystemExists@SECFileSystem@@QAEHABVCString@@@Z 2ABD:?DirectoryExists@SECFileSystem@@QAEHABVCString@@@Z 2AFB:?GetDirectory@SECFileSystem@@QAEPAVCStringList@@ABVCString@@KHPAV2@@Z 2CE6:?GetSubdirList@SECFileSystem@@QAEPAVCStringList@@ABVCString@@H@Z 30F7:?GetFileList@SECFileSystem@@QAEPAVCStringList@@ABVCString@@K@Z 3357:?Sort@SECFileSystem@@SAXPAVCStringList@@H@Z 34E8:?LoadListBox@SECFileSystem@@SAXPAVCListBox@@PBVCStringList@@@Z 3588:?LoadComboBox@SECFileSystem@@SAXPAVCComboBox@@PBVCStringList@@@Z 3628:?AppendWildcard@SECFileSystem@@QAE?AVCString@@ABV2@0@Z (372B: 89)
                              800000:
                                0. 01 78F0 0039 0000:??0SECDockingListener@@QAE@XZ
                      40:
                        14000000008B45FC8BE55DC3:
                          0. 0F DB73 0357 0000:??0SECASelection@@QAE@XZ 0020:?AddItem@SECASelection@@QAEHPAVSECACtrlItem@@@Z 005A:?SetAt@SECASelection@@QAEXHPAVSECACtrlItem@@@Z 0077:?RemoveItem@SECASelection@@QAEHPAVSECACtrlItem@@@Z 01D4:?Clear@SECASelection@@QAEXXZ 01F1:?GetCount@SECASelection@@QAEHXZ 0204:??ASECASelection@@QAEPAVSECACtrlItem@@H@Z 0249:?HasItem@SECASelection@@QAEHPAVSECACtrlItem@@@Z 029B:?SetMainItem@SECASelection@@QAEXPAVSECACtrlItem@@@Z 030F:?GetMainItem@SECASelection@@QAEPAVSECACtrlItem@@XZ 0320:?Toggle@SECASelection@@QAEXPAVSECACtrlItem@@@Z
                        34000000008B4DFCC7413000:
                          0. 46 3E46 0066 0000:??0SECGripperInternalZonesEx@SECLayoutNodeGripperEx@@QAE@XZ
                        3C000000008B4DFCC7414000:
                          0. 23 C22B 0050 0000:??0SECFakeButton@@QAE@AAVCBitmap@@0AAVCRect@@@Z
                        40000000008B4DFCC7414400:
                          0. 23 3CDF 0050 0000:??0SECFakeButton@@QAE@AAVCBitmap@@0AAVCRect@@@Z
                4DFC83C104E8........:
                  6A0A8B4DFC83:
                    0. 03 0C33 004B 0000:??0?$SECComposite_T@PAVSECLayoutNode@@@@QAE@XZ
                  8B4DFC83C108:
                    0. 01 3E9B 002C 0000:??0CFileStatus@@QAE@XZ
                E55DC3:
                  0. 00 0000 0013 (!)0000:? (REF 000B: ??1CPtrList@@UAE@XZ)
                  1. 00 0000 0013 0000:??1?$CTypedPtrList@VCPtrList@@PAVSECPersistentTreeNode@@@@UAE@XZ (REF 000B: ??1?$_CTypedPtrList@VCPtrList@@PAVSECPersistentTreeNode@@@@UAE@XZ)
                  2. 00 0000 0013 0000:??1?$CTypedPtrList@VCPtrList@@PAVCDocTemplate@@@@UAE@XZ (REF 000B: ??1?$_CTypedPtrList@VCPtrList@@PAVCDocTemplate@@@@UAE@XZ)
                  3. 00 0000 0013 0000:?ForcePaint@SECListBoxEditor@@QAEXXZ (REF 000B: ?OnPaint@SECListBoxEditor@@QAEXXZ)
                  4. 00 0000 0013 0000:??1SECTNWinApp@@UAE@XZ (REF 000B: ??1CWinApp@@UAE@XZ)
                  5. 00 0000 0013 0000:??1?$CTypedPtrList@VCPtrList@@PAVCFrameWnd@@@@UAE@XZ (REF 000B: ??1?$_CTypedPtrList@VCPtrList@@PAVCFrameWnd@@@@UAE@XZ)
                  6. 00 0000 0013 0000:??1SECTwoPartBtn@@UAE@XZ (REF 000B: ??1SECStdBtn@@UAE@XZ)
                  7. 00 0000 0013 0000:??1SECCustomizeToolBar@@UAE@XZ (REF 000B: ??1SECCustomToolBar@@UAE@XZ)
                  8. 00 0000 0013 0000:??1?$IteratorPreOrder_T@PAVSECLayoutNode@@@@UAE@XZ (REF 000B: ??1?$Iterator_T@PAVSECLayoutNode@@@@UAE@XZ)
                  9. 00 0000 0013 0000:??1?$CCIterPos_T@PAVSECLayoutNode@@@@UAE@XZ (REF 000B: ??1CCIterPos@@UAE@XZ)
                  10. 00 0000 0013 0000:??1?$CTypedPtrList@VCPtrList@@PAVCWnd@@@@UAE@XZ (REF 000B: ??1?$_CTypedPtrList@VCPtrList@@PAVCWnd@@@@UAE@XZ)
                  11. 00 0000 0013 0000:??1?$CTypedPtrList@VCPtrList@@PAVSECLayoutNode@@@@UAE@XZ (REF 000B: ??1?$_CTypedPtrList@VCPtrList@@PAVSECLayoutNode@@@@UAE@XZ)
                  12. 00 0000 0013 0000:??1?$CTypedPtrList@VCPtrList@@PAVSECLayoutWndListener@@@@UAE@XZ (REF 000B: ??1?$_CTypedPtrList@VCPtrList@@PAVSECLayoutWndListener@@@@UAE@XZ)
                  13. 00 0000 0013 0000:?GetTrackerDC@SECSplitterBase@@MAEPAVCDC@@XZ (REF 000B: ?GetDC@CWnd@@QAEPAVCDC@@XZ)
                  14. 00 0000 0013 0000:??1SECLNHwndContainer@@UAE@XZ (REF 000B: ??1ISECLNContainer@@UAE@XZ)
                  15. 00 0000 0013 0000:??1SECDefHideableNode@@UAE@XZ (REF 000B: ??1ISECHideableNode@@UAE@XZ)
                  16. 00 0000 0013 0000:??1SECDefReparentableNode@@UAE@XZ (REF 000B: ??1ISECReparentableNode@@UAE@XZ)
                  17. 00 0000 0013 0000:??1?$CTypedPtrList@VCPtrList@@PAVSECLNRelativeConstraint@@@@UAE@XZ (REF 000B: ??1?$_CTypedPtrList@VCPtrList@@PAVSECLNRelativeConstraint@@@@UAE@XZ)
                  18. 00 0000 0013 0000:?GetTail@?$_CTypedPtrList@VCPtrList@@PAVSECLayoutNode@@@@QAEAAPAVSECLayoutNode@@XZ (REF 000B: ?GetTail@CPtrList@@QAEAAPAXXZ)
                  19. 00 0000 0013 0000:?GetHead@?$_CTypedPtrList@VCPtrList@@PAVSECLayoutNode@@@@QAEAAPAVSECLayoutNode@@XZ (REF 000B: ?GetHead@CPtrList@@QAEAAPAXXZ)
                  20. 00 0000 0013 0000:??1?$CTypedPtrList@VCPtrList@@PAVSECDynGridInsertConstraints@@@@UAE@XZ (REF 000B: ??1?$_CTypedPtrList@VCPtrList@@PAVSECDynGridInsertConstraints@@@@UAE@XZ)
                  21. 00 0000 0013 0000:??1SECDefDockTargetBase@@UAE@XZ (REF 000B: ??1ISECDockTarget@@UAE@XZ)
                  22. 00 0000 0013 0000:??1SECDockingListener@@UAE@XZ (REF 000B: ??1?$SECDockingListener_T@V?$SECLocalDragDropTask_T@VSECLayoutWndListener@@@@@@UAE@XZ)
                  23. 00 0000 0013 0000:??1SECDockInsertionConstraints@@UAE@XZ (REF 000B: ??1SECDynGridInsertConstraints@@UAE@XZ)
                  24. 00 0000 0013 0000:??1?$CTypedPtrList@VCPtrList@@PAVSECLayoutMiniFloatWnd@@@@UAE@XZ (REF 000B: ??1?$_CTypedPtrList@VCPtrList@@PAVSECLayoutMiniFloatWnd@@@@UAE@XZ)
                  25. 00 0000 0013 0000:??1SECFloatDynGridLineTarget@@UAE@XZ (REF 000B: ??1SECDynGridLineTarget@@UAE@XZ)
                  26. 00 0000 0013 0000:??1SECFloatingTargetGripper@@UAE@XZ (REF 000B: ??1?$SECFloatableDockingNode_T@VSECReparentableGripperEx@@@@UAE@XZ)
                  27. 00 0000 0013 0000:??1SECDockInitiatorHitTester@@UAE@XZ (REF 000B: ??1?$SECLNDockHitTester@VISECDockInitiator@@@@UAE@XZ)
                  28. 00 0000 0013 0000:??1SECLNTargetDockHitTester@@UAE@XZ (REF 000B: ??1?$SECLNDockHitTester@VISECDockTarget@@@@UAE@XZ)
                  29. 00 0000 0013 0000:??1?$SECLNOffNodeDockIFaceHitTest_T@VISECDockTarget@@@@UAE@XZ (REF 000B: ??1?$SECLNOffNodeIFaceHitTest_T@VISECDockTarget@@@@UAE@XZ)
                  30. 00 0000 0013 0000:??1SECDockMgrMemMgr@@UAE@XZ (REF 000B: ??1?$SECObjectMemoryManager_T@V?$SECObjectMemoryManager_T@VSECLayoutNode@@@@@@UAE@XZ)
                  31. 00 0000 0013 0000:??1?$CTypedPtrList@VCPtrList@@PAVSECLNHwndContainer@@@@UAE@XZ (REF 000B: ??1?$_CTypedPtrList@VCPtrList@@PAVSECLNHwndContainer@@@@UAE@XZ)
                  32. 00 0000 0013 0000:??1?$CTypedPtrList@VCPtrList@@PAV?$SECObjectMemoryManager_T@VSECLayoutNode@@@@@@UAE@XZ (REF 000B: ??1?$_CTypedPtrList@VCPtrList@@PAV?$SECObjectMemoryManager_T@VSECLayoutNode@@@@@@UAE@XZ)
                  33. 00 0000 0013 0000:??1?$CTypedPtrList@VCPtrList@@PAVISECLNContainer@@@@UAE@XZ (REF 000B: ??1?$_CTypedPtrList@VCPtrList@@PAVISECLNContainer@@@@UAE@XZ)
                  34. 00 0000 0013 0000:??1?$CTypedPtrList@VCPtrList@@PAVSECDockingNodeConstraints@@@@UAE@XZ (REF 000B: ??1?$_CTypedPtrList@VCPtrList@@PAVSECDockingNodeConstraints@@@@UAE@XZ)
                  35. 00 0000 0013 0000:??1COleDropSource@@UAE@XZ (REF 000B: ??1CCmdTarget@@UAE@XZ)
                  36. 00 0000 0013 0000:??1SECOleServerItem@@UAE@XZ (REF 000B: ??1COleServerItem@@UAE@XZ)
                  37. 00 0000 0013 0000:??1SECDocObjectServerItem@@UAE@XZ (REF 000B: ??1CDocObjectServerItem@@UAE@XZ)
                  38. 00 0000 0013 0000:?GetDocument@CDocObjectServerItem@@QBEPAVCOleServerDoc@@XZ (REF 000B: ?GetDocument@COleServerItem@@QBEPAVCOleServerDoc@@XZ)
                  39. 00 0000 0013 0000:??1ListDropTarget@SECShortcutListCtrl@@UAE@XZ (REF 000B: ??1COleDropTarget@@UAE@XZ)
                  40. 00 0000 0013 0000:??1SECListBoxEdit@@UAE@XZ (REF 000B: ??1CEdit@@UAE@XZ)
                  41. 00 0000 0013 0000:??1SECDirSelectDlg@@UAE@XZ (REF 000B: ??1CFileDialog@@UAE@XZ)
                  42. 00 0000 0013 0000:??1SECBrowseDirEdit@@UAE@XZ (REF 000B: ??1SECBrowseEditBase@@UAE@XZ)
                  43. 00 0000 0013 0000:??1CFormView@@UAE@XZ (REF 000B: ??1CScrollView@@UAE@XZ)
                  44. 00 0000 0013 0000:??1SECASelection@@QAE@XZ (REF 000B: ??1?$CArray@PAVSECACtrlItem@@PAV1@@@UAE@XZ)
                  45. 00 0000 0013 0000:??1SECAOleInsertCtlDlg@@UAE@XZ (REF 000B: ??1COleInsertDialog@@UAE@XZ)
                  46. 00 0000 0013 0000:?GetDocument@SECACtrlItem@@QAEPAVSECScriptHostDoc@@XZ (REF 000B: ?GetDocument@COleClientItem@@QBEPAVCOleDocument@@XZ)
                  47. 00 0000 0013 0000:??1SECAArrayBound@@UAE@XZ (REF 000B: ??1ISArrayBound@@UAE@XZ)
                  48. 00 0000 0013 0000:??1SECAOleScriptControlSite@@UAE@XZ (REF 000B: ??1COleControlSite@@UAE@XZ)
                  49. 00 0000 0013 0000:??1SECAFloatDocTemplate@@UAE@XZ (REF 000B: ??1CMultiDocTemplate@@UAE@XZ)
                  50. 00 0000 0013 0000:??1SECAFormPropPage@@UAE@XZ (REF 000B: ??1COlePropertyPage@@UAE@XZ)
                  51. 00 0000 0013 0000:?GetActiveView@SECACtrlItem@@QAEPAVSECScriptHostView@@XZ (REF 000B: ?GetActiveView@COleClientItem@@QBEPAVCView@@XZ)
                  52. 00 0000 0013 0000:??1?$CTypedPtrArray@VCObArray@@PAVCFrameWnd@@@@UAE@XZ (REF 000B: ??1CObArray@@UAE@XZ)
                  53. 00 0000 0013 0000:??1?$CTypedPtrList@VCPtrList@@PAVSECPersTreeNodeKeyValuePair@SECPersistentTreeNode@@@@UAE@XZ (REF 000B: ??1?$_CTypedPtrList@VCPtrList@@PAVSECPersTreeNodeKeyValuePair@SECPersistentTreeNode@@@@UAE@XZ)
          E55D:
            C2:
              0400:
                0. 00 0000 000D 0000:?DoSize@SECBtnGroup@@UAEXAAVCRect@@@Z
              0800:
                0. 00 0000 000D 0000:?ResetPanePositions@SECLNVirtualSplitter@@MAEXABVCRect@@0@Z
              0C00:
                0. 00 0000 000D 0000:?OnLButtonDown@SECDTGadget@@UAEXIVCPoint@@@Z
            C3:
              0. 00 0000 000B 0000:?OnBrowse@SECListBoxEditor@@UAEXXZ
        8D450C508B4D08518B55FC8B028B4DFCFF90:
          1C01000085C074:
            0. 1A 66ED 003A 0000:?OnNcLButtonUp@?$SECStartDragCore_T@VSECLayoutWndListener@@@@IAEXIVCPoint@@@Z
          2401000085C074:
            0. 1A 66ED 003A 0000:?OnNcMouseMove@?$SECStartDragCore_T@VSECLayoutWndListener@@@@IAEXIVCPoint@@@Z
        B8:
          010000008BE55D:
            C2:
              0400:
                0. 00 0000 0012 0000:?NodeToClient@SECLNHwndContainer@@UAEHPAUtagPOINT@@@Z
              0800:
                0. 00 0000 0012 0000:?RealizeNodeHelper@SECLayoutNode@@UAEHPAPAXPAUHDC__@@@Z
            C3:
              0. 00 0000 0010 0000:?OnEnterEditMode@SECScriptHostDoc@@MAEHXZ
          ........8BE55DC3:
            558BEC:
              51894DFC:
                8B:
                  45:
                    105068:
                      0. 0C 04B2 13DD 0000:?GetRuntimeClass@SECMultiDocTemplate@@UBEPAUCRuntimeClass@@XZ 0010:??0SECMultiDocTemplate@@QAE@IPAUCRuntimeClass@@0K@Z 00C1:??0SECMultiDocTemplate@@QAE@IPAUCRuntimeClass@@00I00K@Z 01AC:??1SECMultiDocTemplate@@UAE@XZ 0200:?LoadTemplate@SECMultiDocTemplate@@UAEXXZ 0275:?GetMessageMap@SECMultiDocTemplate@@MBEPBUAFX_MSGMAP@@XZ 0285:?OpenDocumentFile@SECMultiDocTemplate@@UAEPAVCDocument@@PBDHHH@Z 0309:?ReparentAllChildren@SECMultiDocTemplate@@UAEXPAVCFrameWnd@@0@Z 0431:?ActivateDockableFrame@SECMultiDocTemplate@@UAEHPAVCFrameWnd@@@Z 04AC:?IsDocked@SECMultiDocTemplate@@UBEHPBVCFrameWnd@@@Z 04D9:?GetDockableState@SECMultiDocTemplate@@UBE?AW4SECDockableState@@PBVCFrameWnd@@@Z 05E8:?Dock@SECMultiDocTemplate@@UAEPAVCFrameWnd@@PAV2@@Z 060D:?Dock@SECMultiDocTemplate@@UAEPAVCFrameWnd@@PAV2@IPBUSECDockPos@@PBUSECDockSize@@@Z 0866:?Undock@SECMultiDocTemplate@@UAEPAVCFrameWnd@@PAV2@@Z 096B:?ToggleDocking@SECMultiDocTemplate@@UAEPAVCFrameWnd@@PAV2@@Z 09BB:?CreateNewFrame@SECMultiDocTemplate@@UAEPAVCFrameWnd@@PAVCDocument@@PAV2@@Z 09F2:?CreateNewFrame@SECMultiDocTemplate@@UAEPAVCFrameWnd@@PAVCDocument@@PAV2@HH@Z 0B5C:?CreateNewDockableFrame@SECMultiDocTemplate@@UAEPAVSECDockableFrame@@PAVCDocument@@PAVCFrameWnd@@IPBUSECDockPos@@PBUSECDockSize@@@Z 0FA8:?OnEnableSysCommandEx@SECMultiDocTemplate@@UAEXPAVCFrameWnd@@K@Z 1003:?EnableCaptionButton@SECMultiDocTemplate@@UAEXHH@Z 106E:?EnableRDblClick@SECMultiDocTemplate@@UAEXHH@Z 10D9:?EnableContextMenu@SECMultiDocTemplate@@UAEXHH@Z 1144:?ModifyOptions@SECMultiDocTemplate@@UAEXKKH@Z 11EA:?UpdateAllFrames@SECMultiDocTemplate@@UAEXXZ 1345:?ActivateDocumentDockableFrame@SECMultiDocTemplate@@IAEHPAVCDocument@@@Z 13B1:?Dump@SECMultiDocTemplate@@UBEXAAVCDumpContext@@@Z 13CA:?AssertValid@SECMultiDocTemplate@@UBEXXZ (REF 0244: LoadMenuA)
                      1. 0C 04B2 13DD 0000:?GetRuntimeClass@SECMultiDocTemplate@@UBEPAUCRuntimeClass@@XZ 0010:??0SECMultiDocTemplate@@QAE@IPAUCRuntimeClass@@0K@Z 00C1:??0SECMultiDocTemplate@@QAE@IPAUCRuntimeClass@@00I00K@Z 01AC:??1SECMultiDocTemplate@@UAE@XZ 0200:?LoadTemplate@SECMultiDocTemplate@@UAEXXZ 0275:?GetMessageMap@SECMultiDocTemplate@@MBEPBUAFX_MSGMAP@@XZ 0285:?OpenDocumentFile@SECMultiDocTemplate@@UAEPAVCDocument@@PBGHHH@Z 0309:?ReparentAllChildren@SECMultiDocTemplate@@UAEXPAVCFrameWnd@@0@Z 0431:?ActivateDockableFrame@SECMultiDocTemplate@@UAEHPAVCFrameWnd@@@Z 04AC:?IsDocked@SECMultiDocTemplate@@UBEHPBVCFrameWnd@@@Z 04D9:?GetDockableState@SECMultiDocTemplate@@UBE?AW4SECDockableState@@PBVCFrameWnd@@@Z 05E8:?Dock@SECMultiDocTemplate@@UAEPAVCFrameWnd@@PAV2@@Z 060D:?Dock@SECMultiDocTemplate@@UAEPAVCFrameWnd@@PAV2@IPBUSECDockPos@@PBUSECDockSize@@@Z 0866:?Undock@SECMultiDocTemplate@@UAEPAVCFrameWnd@@PAV2@@Z 096B:?ToggleDocking@SECMultiDocTemplate@@UAEPAVCFrameWnd@@PAV2@@Z 09BB:?CreateNewFrame@SECMultiDocTemplate@@UAEPAVCFrameWnd@@PAVCDocument@@PAV2@@Z 09F2:?CreateNewFrame@SECMultiDocTemplate@@UAEPAVCFrameWnd@@PAVCDocument@@PAV2@HH@Z 0B5C:?CreateNewDockableFrame@SECMultiDocTemplate@@UAEPAVSECDockableFrame@@PAVCDocument@@PAVCFrameWnd@@IPBUSECDockPos@@PBUSECDockSize@@@Z 0FA8:?OnEnableSysCommandEx@SECMultiDocTemplate@@UAEXPAVCFrameWnd@@K@Z 1003:?EnableCaptionButton@SECMultiDocTemplate@@UAEXHH@Z 106E:?EnableRDblClick@SECMultiDocTemplate@@UAEXHH@Z 10D9:?EnableContextMenu@SECMultiDocTemplate@@UAEXHH@Z 1144:?ModifyOptions@SECMultiDocTemplate@@UAEXKKH@Z 11EA:?UpdateAllFrames@SECMultiDocTemplate@@UAEXXZ 1345:?ActivateDocumentDockableFrame@SECMultiDocTemplate@@IAEHPAVCDocument@@@Z 13B1:?Dump@SECMultiDocTemplate@@UBEXAAVCDumpContext@@@Z 13CA:?AssertValid@SECMultiDocTemplate@@UBEXXZ (REF 0244: LoadMenuW)
                    14508B4D10518B:
                      0. 0B 6546 026E 0000:?GetRuntimeClass@SECAFloatDocTemplate@@UBEPAUCRuntimeClass@@XZ 0010:??0SECAFloatDocTemplate@@QAE@IPAUCRuntimeClass@@00@Z 0041:?OpenDocumentFile@SECAFloatDocTemplate@@UAEPAVCDocument@@PBDH@Z 018B:?MatchDocType@SECAFloatDocTemplate@@UAE?AW4Confidence@CDocTemplate@@PBDAAPAVCDocument@@@Z 01C1:?GetFormByName@SECAFloatDocTemplate@@UAEPAUIDispatch@@ABVCString@@@Z (REF 012C: $SG142202)
                      1. 0B 6546 026E 0000:?GetRuntimeClass@SECAFloatDocTemplate@@UBEPAUCRuntimeClass@@XZ 0010:??0SECAFloatDocTemplate@@QAE@IPAUCRuntimeClass@@00@Z 0041:?OpenDocumentFile@SECAFloatDocTemplate@@UAEPAVCDocument@@PBGH@Z 018B:?MatchDocType@SECAFloatDocTemplate@@UAE?AW4Confidence@CDocTemplate@@PBGAAPAVCDocument@@@Z 01C1:?GetFormByName@SECAFloatDocTemplate@@UAEPAUIDispatch@@ABVCString@@@Z (REF 012C: $SG141974)
                    1C508B4D18518B:
                      0. 13 471D 10FD 0000:?GetRuntimeClass@SECTNFileDialog@@UBEPAUCRuntimeClass@@XZ 0010:??0SECTNFileDialog@@QAE@HPBD0K0PAVCWnd@@@Z 007B:??1SECTNFileDialog@@UAE@XZ 0127:?DoModal@SECTNFileDialog@@UAEHXZ 01D5:?LoadThumbnail@SECTNFileDialog@@QAEPAVSECTNBitmap@@PBD@Z 054A:?ClearThumbnail@SECTNFileDialog@@QAEXPAVCDC@@PAVCRect@@@Z 05D3:?DisplayNoThumbnail@SECTNFileDialog@@QAEXPAVCDC@@PAVCRect@@@Z 06A1:?DisplayThumbnail@SECTNFileDialog@@QAEXPAVCDC@@PAVCRect@@PAVSECTNBitmap@@@Z 08F9:?UpdateThumbnail@SECTNFileDialog@@QAEXXZ 0929:?OnNewFile@SECTNFileDialog@@QAEXPAD@Z 0A8F:?OnInitDialog@SECTNFileDialog@@UAEHXZ 0E18:?ResizeDialog@SECTNFileDialog@@QAEXXZ 0E6E:?StaticGetPointer@SECTNFileDialog@@SAPAV1@PAUHWND__@@@Z 0F0C:?TNFileDlgHookProc@SECTNFileDialog@@SGHPAUHWND__@@IIJ@Z 0F49:?OnFileNameChange@SECTNFileDialog@@UAEXXZ 0FAF:?OnFolderChange@SECTNFileDialog@@UAEXXZ 0FD4:?OnLBSelChangedNotify@SECTNFileDialog@@UAEXIII@Z (10B9: FD)
                      1. 13 471D 10FD 0000:?GetRuntimeClass@SECTNFileDialog@@UBEPAUCRuntimeClass@@XZ 0010:??0SECTNFileDialog@@QAE@HPBG0K0PAVCWnd@@@Z 007B:??1SECTNFileDialog@@UAE@XZ 0127:?DoModal@SECTNFileDialog@@UAEHXZ 01D5:?LoadThumbnail@SECTNFileDialog@@QAEPAVSECTNBitmap@@PBG@Z 054A:?ClearThumbnail@SECTNFileDialog@@QAEXPAVCDC@@PAVCRect@@@Z 05D3:?DisplayNoThumbnail@SECTNFileDialog@@QAEXPAVCDC@@PAVCRect@@@Z 06A1:?DisplayThumbnail@SECTNFileDialog@@QAEXPAVCDC@@PAVCRect@@PAVSECTNBitmap@@@Z 08F9:?UpdateThumbnail@SECTNFileDialog@@QAEXXZ 0929:?OnNewFile@SECTNFileDialog@@QAEXPAG@Z 0A8F:?OnInitDialog@SECTNFileDialog@@UAEHXZ 0E18:?ResizeDialog@SECTNFileDialog@@QAEXXZ 0E6E:?StaticGetPointer@SECTNFileDialog@@SAPAV1@PAUHWND__@@@Z 0F0C:?TNFileDlgHookProc@SECTNFileDialog@@SGHPAUHWND__@@IIJ@Z 0F49:?OnFileNameChange@SECTNFileDialog@@UAEXXZ 0FAF:?OnFolderChange@SECTNFileDialog@@UAEXXZ 0FD4:?OnLBSelChangedNotify@SECTNFileDialog@@UAEXIII@Z (10B9: FB)
                  4DFCE8........8B:
                    0. 04 0B2A 021E 0000:?GetRuntimeClass@SECIcon@@UBEPAUCRuntimeClass@@XZ 0010:??0SECIcon@@QAE@XZ 004D:??1SECIcon@@UAE@XZ 0069:?GetIcon@SECIcon@@QBEPAUHICON__@@XZ 007A:?SetIcon@SECIcon@@QAEXPAUHICON__@@@Z 00E0:?LoadIconA@SECIcon@@UAEHPBDHH@Z 018B:?Draw@SECIcon@@UAEXAAVCDC@@HHPAVCBrush@@@Z 01C1:?Draw@SECIcon@@UAEXAAVCDC@@HHHHPAVCBrush@@@Z (01D5: 50) (REF 0131: LoadImageA)
                    1. 04 0B2A 021E 0000:?GetRuntimeClass@SECIcon@@UBEPAUCRuntimeClass@@XZ 0010:??0SECIcon@@QAE@XZ 004D:??1SECIcon@@UAE@XZ 0069:?GetIcon@SECIcon@@QBEPAUHICON__@@XZ 007A:?SetIcon@SECIcon@@QAEXPAUHICON__@@@Z 00E0:?LoadIconW@SECIcon@@UAEHPBGHH@Z 018B:?Draw@SECIcon@@UAEXAAVCDC@@HHPAVCBrush@@@Z 01C1:?Draw@SECIcon@@UAEXAAVCDC@@HHHHPAVCBrush@@@Z (01D5: 50) (REF 0131: LoadImageW)
                    2. 04 0B2A 01FA 0000:?GetRuntimeClass@SECTNView@@UBEPAUCRuntimeClass@@XZ 0010:??0SECTNView@@IAE@XZ 0039:??1SECTNView@@MAE@XZ 0055:?GetMessageMap@SECTNView@@MBEPBUAFX_MSGMAP@@XZ 0065:?AssertValid@SECTNView@@MBEXXZ 0078:?Dump@SECTNView@@MBEXAAVCDumpContext@@@Z 0091:?GetThumbNailBitmap@SECTNView@@MAEPAVSECTNBitmap@@XZ 0175:?OnPrepareThumbNail@SECTNView@@MAEXPAVCSize@@@Z 01B3:?OnThumbNail@SECTNView@@MAEXPAVSECTNDC@@@Z (01D5: 00)
                    3. 04 0B2A 053B 0000:?GetMessageMap@SECLayoutWndListener@@MBEPBUAFX_MSGMAP@@XZ 0010:??0SECLayoutWndListener@@QAE@XZ 004D:??1SECLayoutWndListener@@UAE@XZ 0069:?SetListenNode@SECLayoutWndListener@@UAEHPAVSECLayoutNode@@@Z 0084:?GetListenNode@SECLayoutWndListener@@UAEPAVSECLayoutNode@@XZ 0095:?AutoInit@SECLayoutWndListener@@UAEHPAVSECLayoutNode@@PAVCWnd@@HHH@Z 011A:?AutoInit@SECLayoutWndListener@@UAEHPAVSECLayoutNode@@PAVCWnd@@ABVCRect@@HH@Z 01D2:?OnSize@SECLayoutWndListener@@IAEXIHH@Z 0305:?OnGetMinMaxInfo@SECLayoutWndListener@@IAEXPAUtagMINMAXINFO@@@Z 04A8:?OnEraseBkgnd@SECLayoutWndListener@@IAEHPAVCDC@@@Z 04EA:?OnPaint@SECLayoutWndListener@@IAEXXZ 051E:?OnMeasureItem@SECLayoutWndListener@@IAEXHPAUtagMEASUREITEMSTRUCT@@@Z (01D5: 75)
                    4. 12 541E 030C 0000:?GetRuntimeClass@SECTNDC@@UBEPAUCRuntimeClass@@XZ 0010:?AssertValid@SECTNDC@@UBEXXZ 0023:?Dump@SECTNDC@@UBEXAAVCDumpContext@@@Z 003C:??0SECTNDC@@QAE@XZ 00D9:??1SECTNDC@@UAE@XZ 0179:?Create@SECTNDC@@QAEXPAVCSize@@@Z
                    5. 0E 95FF 010F (!)0000:? (!)0010:? (!)0039:? (!)0063:? (!)007F:? (!)0090:? (!)009F:? (!)00AE:? (!)00BD:? (!)00CA:? (!)00E6:? (!)00F3:?
                B8........8BE55DC3:
                  0. 0B 529F 11C4 0000:?GetRuntimeClass@SECTabWndBase@@UBEPAUCRuntimeClass@@XZ 0010:?GetMessageMap@SECTabWndBase@@MBEPBUAFX_MSGMAP@@XZ 0020:??0SECTabWndBase@@QAE@XZ 0067:??1SECTabWndBase@@UAE@XZ 0083:?Create@SECTabWndBase@@UAEHPBD0KABUtagRECT@@PAVCWnd@@IPAUCCreateContext@@@Z 00AA:?Create@SECTabWndBase@@UAEHPAVCWnd@@KI@Z 0267:?CreateView@SECTabWndBase@@IAEPAVCWnd@@PAUCRuntimeClass@@PAUCCreateContext@@I@Z 0450:?CreateScrollBarCtrl@SECTabWndBase@@MAEHKI@Z 0521:?CreateTabCtrl@SECTabWndBase@@MAEHKI@Z 0530:?OnDestroy@SECTabWndBase@@IAEXXZ 0592:?InsertTab@SECTabWndBase@@UAEPAVSECTab@@PAVCWnd@@HPBD@Z 0622:?InsertTab@SECTabWndBase@@UAEPAVSECTab@@PAUCRuntimeClass@@HPBDPAUCCreateContext@@I@Z 06BB:?AddTab@SECTabWndBase@@UAEPAVSECTab@@PAVCWnd@@PBD@Z 0722:?AddTab@SECTabWndBase@@UAEPAVSECTab@@PAUCRuntimeClass@@PBDPAUCCreateContext@@I@Z 0787:?SetTabIcon@SECTabWndBase@@UAEXHPAUHICON__@@@Z 07B0:?SetTabIcon@SECTabWndBase@@UAEXHIHH@Z 07E1:?SetTabIcon@SECTabWndBase@@UAEXHPBDHH@Z 0812:?SetScrollStyle@SECTabWndBase@@UAEXHK@Z 081F:?RemoveTab@SECTabWndBase@@UAEXPAVCWnd@@@Z 08C4:?RemoveTab@SECTabWndBase@@UAEXH@Z 0963:?RenameTab@SECTabWndBase@@UAEXHPBD@Z 09CF:?RenameTab@SECTabWndBase@@UAEXPAVCWnd@@PBD@Z 0A5A:?ActivateTab@SECTabWndBase@@UAEXPAVCWnd@@H@Z 0BF2:?ActivateTab@SECTabWndBase@@UAEXPAVCWnd@@@Z 0C7D:?ActivateTab@SECTabWndBase@@UAEXH@Z 0D01:?ClearSelection@SECTabWndBase@@UAEXXZ 0D33:?ScrollToTab@SECTabWndBase@@UAEXPAVCWnd@@@Z 0DC0:?ScrollToTab@SECTabWndBase@@UAEXH@Z 0E28:?SetNotifyWnd@SECTabWndBase@@UAEXPAVCWnd@@@Z 0E54:?TabExists@SECTabWndBase@@QAEHPAVCWnd@@@Z 0E83:?TabExists@SECTabWndBase@@QAEHH@Z 0EB2:?GetTabCount@SECTabWndBase@@QAEHXZ 0EDB:?GetTabInfo@SECTabWndBase@@QAEHHAAPBDAAHAAPAVCWnd@@AAPAX@Z 0F20:?FindTab@SECTabWndBase@@QBEHQBVCWnd@@AAH@Z 0F66:?GetActiveTab@SECTabWndBase@@QAEHAAPAVCWnd@@@Z 0FC2:?GetActiveTab@SECTabWndBase@@QAEHAAH@Z 0FF1:?GetParentTabWnd@@YAPAVSECTabWndBase@@QBVCWnd@@@Z 103F:?GetInsideRect@SECTabWndBase@@MBEXAAVCRect@@@Z 1070:?RecalcLayout@SECTabWndBase@@MAEXXZ 107B:?OnTabSelect@SECTabWndBase@@IAEJIJ@Z 10EE:?OnTabReActivate@SECTabWndBase@@IAEJIJ@Z 110B:?OnReActivateTab@SECTabWndBase@@UAEXXZ (REF 016E: ?AfxRegisterWndClass@@YGPBDIPAUHICON__@@PAUHBRUSH__@@0@Z)
                  1. 0B 529F 11C4 0000:?GetRuntimeClass@SECTabWndBase@@UBEPAUCRuntimeClass@@XZ 0010:?GetMessageMap@SECTabWndBase@@MBEPBUAFX_MSGMAP@@XZ 0020:??0SECTabWndBase@@QAE@XZ 0067:??1SECTabWndBase@@UAE@XZ 0083:?Create@SECTabWndBase@@UAEHPBG0KABUtagRECT@@PAVCWnd@@IPAUCCreateContext@@@Z 00AA:?Create@SECTabWndBase@@UAEHPAVCWnd@@KI@Z 0267:?CreateView@SECTabWndBase@@IAEPAVCWnd@@PAUCRuntimeClass@@PAUCCreateContext@@I@Z 0450:?CreateScrollBarCtrl@SECTabWndBase@@MAEHKI@Z 0521:?CreateTabCtrl@SECTabWndBase@@MAEHKI@Z 0530:?OnDestroy@SECTabWndBase@@IAEXXZ 0592:?InsertTab@SECTabWndBase@@UAEPAVSECTab@@PAVCWnd@@HPBG@Z 0622:?InsertTab@SECTabWndBase@@UAEPAVSECTab@@PAUCRuntimeClass@@HPBGPAUCCreateContext@@I@Z 06BB:?AddTab@SECTabWndBase@@UAEPAVSECTab@@PAVCWnd@@PBG@Z 0722:?AddTab@SECTabWndBase@@UAEPAVSECTab@@PAUCRuntimeClass@@PBGPAUCCreateContext@@I@Z 0787:?SetTabIcon@SECTabWndBase@@UAEXHPAUHICON__@@@Z 07B0:?SetTabIcon@SECTabWndBase@@UAEXHIHH@Z 07E1:?SetTabIcon@SECTabWndBase@@UAEXHPBGHH@Z 0812:?SetScrollStyle@SECTabWndBase@@UAEXHK@Z 081F:?RemoveTab@SECTabWndBase@@UAEXPAVCWnd@@@Z 08C4:?RemoveTab@SECTabWndBase@@UAEXH@Z 0963:?RenameTab@SECTabWndBase@@UAEXHPBG@Z 09CF:?RenameTab@SECTabWndBase@@UAEXPAVCWnd@@PBG@Z 0A5A:?ActivateTab@SECTabWndBase@@UAEXPAVCWnd@@H@Z 0BF2:?ActivateTab@SECTabWndBase@@UAEXPAVCWnd@@@Z 0C7D:?ActivateTab@SECTabWndBase@@UAEXH@Z 0D01:?ClearSelection@SECTabWndBase@@UAEXXZ 0D33:?ScrollToTab@SECTabWndBase@@UAEXPAVCWnd@@@Z 0DC0:?ScrollToTab@SECTabWndBase@@UAEXH@Z 0E28:?SetNotifyWnd@SECTabWndBase@@UAEXPAVCWnd@@@Z 0E54:?TabExists@SECTabWndBase@@QAEHPAVCWnd@@@Z 0E83:?TabExists@SECTabWndBase@@QAEHH@Z 0EB2:?GetTabCount@SECTabWndBase@@QAEHXZ 0EDB:?GetTabInfo@SECTabWndBase@@QAEHHAAPBGAAHAAPAVCWnd@@AAPAX@Z 0F20:?FindTab@SECTabWndBase@@QBEHQBVCWnd@@AAH@Z 0F66:?GetActiveTab@SECTabWndBase@@QAEHAAPAVCWnd@@@Z 0FC2:?GetActiveTab@SECTabWndBase@@QAEHAAH@Z 0FF1:?GetParentTabWnd@@YAPAVSECTabWndBase@@QBVCWnd@@@Z 103F:?GetInsideRect@SECTabWndBase@@MBEXAAVCRect@@@Z 1070:?RecalcLayout@SECTabWndBase@@MAEXXZ 107B:?OnTabSelect@SECTabWndBase@@IAEJIJ@Z 10EE:?OnTabReActivate@SECTabWndBase@@IAEJIJ@Z 110B:?OnReActivateTab@SECTabWndBase@@UAEXXZ (REF 016E: ?AfxRegisterWndClass@@YGPBGIPAUHICON__@@PAUHBRUSH__@@0@Z)
                  2. 08 AAD6 0F97 0000:?GetRuntimeClass@SECOleServerItem@@UBEPAUCRuntimeClass@@XZ 0010:?GetRuntimeClass@SECDocObjectServerItem@@UBEPAUCRuntimeClass@@XZ 0020:?GetRuntimeClass@SECOleServerDoc@@UBEPAUCRuntimeClass@@XZ 0030:?GetRuntimeClass@SECOleCntrFrameWnd@@UBEPAUCRuntimeClass@@XZ 0040:?_SecAfxQueryInterface@@YGPAUIUnknown@@PAU1@ABU_GUID@@@Z 0092:?_SecAfxRelease@@YGKPAPAUIUnknown@@@Z 00EA:?GetMessageMap@SECOleServerItem@@MBEPBUAFX_MSGMAP@@XZ 00FA:??0SECOleServerItem@@QAE@PAVCOleServerDoc@@H@Z 0123:?OnShow@SECOleServerItem@@MAEXXZ 0193:?GetMessageMap@SECDocObjectServerItem@@MBEPBUAFX_MSGMAP@@XZ 01A3:??0SECDocObjectServerItem@@QAE@PAVCOleServerDoc@@H@Z 01CC:?OnShow@SECDocObjectServerItem@@MAEXXZ 0242:?GetMessageMap@SECOleServerDoc@@MBEPBUAFX_MSGMAP@@XZ 0252:?ActivateInPlace@SECOleServerDoc@@QAEHXZ (l)0AA9:$DeactivateUIAndFail$142497 (l)0AD7:$DestroyFrameAndFail$142491 (l)0B5A:$ReleaseAndFail$142465 0BC2:??0SECOleCntrFrameWnd@@QAE@PAVCOleIPFrameWnd@@@Z 0C24:??1SECOleCntrFrameWnd@@UAE@XZ 0C7D:?RecalcLayout@SECOleCntrFrameWnd@@UAEXH@Z 0E1E:?OnIdleUpdateCmdUI@SECOleCntrFrameWnd@@QAEXXZ 0ED2:?OnCmdMsg@SECOleCntrFrameWnd@@UAEHIHPAXPAUAFX_CMDHANDLERINFO@@@Z 0F47:?PostNcDestroy@SECOleCntrFrameWnd@@MAEXXZ 0F52:?AssertValid@SECOleCntrFrameWnd@@UBEXXZ (0F52: 00)
                  3. 08 AAD6 0FEE 0000:?GetRuntimeClass@SECOleServerItem@@UBEPAUCRuntimeClass@@XZ 0010:?GetRuntimeClass@SECDocObjectServerItem@@UBEPAUCRuntimeClass@@XZ 0020:?GetRuntimeClass@SECOleServerDoc@@UBEPAUCRuntimeClass@@XZ 0030:?GetRuntimeClass@SECOleCntrFrameWnd@@UBEPAUCRuntimeClass@@XZ 0040:?_SecAfxQueryInterface@@YGPAUIUnknown@@PAU1@ABU_GUID@@@Z 0092:?_SecAfxRelease@@YGKPAPAUIUnknown@@@Z 00EA:?GetMessageMap@SECOleServerItem@@MBEPBUAFX_MSGMAP@@XZ 00FA:??0SECOleServerItem@@QAE@PAVCOleServerDoc@@H@Z 0123:?OnShow@SECOleServerItem@@MAEXXZ 0193:?GetMessageMap@SECDocObjectServerItem@@MBEPBUAFX_MSGMAP@@XZ 01A3:??0SECDocObjectServerItem@@QAE@PAVCOleServerDoc@@H@Z 01CC:?OnShow@SECDocObjectServerItem@@MAEXXZ 0242:?GetMessageMap@SECOleServerDoc@@MBEPBUAFX_MSGMAP@@XZ 0252:?ActivateInPlace@SECOleServerDoc@@QAEHXZ (l)0AFA:$DeactivateUIAndFail$142725 (l)0B28:$DestroyFrameAndFail$142719 (l)0BAB:$ReleaseAndFail$142693 0C19:??0SECOleCntrFrameWnd@@QAE@PAVCOleIPFrameWnd@@@Z 0C7B:??1SECOleCntrFrameWnd@@UAE@XZ 0CD4:?RecalcLayout@SECOleCntrFrameWnd@@UAEXH@Z 0E75:?OnIdleUpdateCmdUI@SECOleCntrFrameWnd@@QAEXXZ 0F29:?OnCmdMsg@SECOleCntrFrameWnd@@UAEHIHPAXPAUAFX_CMDHANDLERINFO@@@Z 0F9E:?PostNcDestroy@SECOleCntrFrameWnd@@MAEXXZ 0FA9:?AssertValid@SECOleCntrFrameWnd@@UBEXXZ (0F52: F0)
                  4. 08 AAD6 2739 0000:?GetMessageMap@SECBmpMenuPlugIn@@MBEPBUAFX_MSGMAP@@XZ 0010:?GetRuntimeClass@SECBmpMenuItemInfo@@UBEPAUCRuntimeClass@@XZ 0020:?GetRuntimeClass@SECBmpMenuPlugIn@@UBEPAUCRuntimeClass@@XZ 0030:??0SECBmpMenuPlugIn@@QAE@H@Z (l)0143:?InitSysColors@@YAXXZ (l)01BD:?FixMFCDotBitmap@@YAXXZ 039D:??1SECBmpMenuPlugIn@@UAE@XZ 0696:??1SECBmpMenuInfo@SECBmpMenuPlugIn@@QAE@XZ 073B:?CreateMenuFont@SECBmpMenuPlugIn@@MAEXXZ 07DE:?CreateDefaultMenuFont@SECBmpMenuPlugIn@@MAEXXZ 088B:?AddToolBarResource@SECBmpMenuPlugIn@@QAEHPBD@Z 08D4:?AddToolBarResource@SECBmpMenuPlugIn@@QAEHI@Z 08F2:?AddBitmapResource@SECBmpMenuPlugIn@@QAEHPBDPBII@Z 0943:?AddBitmapResource@SECBmpMenuPlugIn@@QAEHIPBII@Z 096A:?AddBitmap@SECBmpMenuPlugIn@@QAEHPAUHBITMAP__@@PBII@Z 09B9:?SetBmpMgr@SECBmpMenuPlugIn@@QAEXPAVSECBmpMgr@@@Z 09F8:?AddNoSubclass@SECBmpMenuPlugIn@@QAEXI@Z 0A18:?GarbageCollect@SECBmpMenuPlugIn@@UAEXXZ 0DE8:?InitMenuPopup@SECBmpMenuPlugIn@@QAEXIJ@Z 0E38:?OnInitMenuPopup@SECBmpMenuPlugIn@@IAEXPAVCMenu@@IH@Z 126B:?OnMeasureItem@SECBmpMenuPlugIn@@IAEXHPAUtagMEASUREITEMSTRUCT@@@Z 1466:?CreateMask@SECBmpMenuPlugIn@@MAEHAAVCDC@@0AAVCBitmap@@AAPAV3@HHH@Z 153D:?DrawChecked@SECBmpMenuPlugIn@@MAEXAAVCDC@@HHHH0H@Z 16A4:?DrawDisabled@SECBmpMenuPlugIn@@MAEXAAVCDC@@HHHH0H@Z 1843:?DrawButton@SECBmpMenuPlugIn@@MAEXPAUtagDRAWITEMSTRUCT@@AAVCDC@@AAVCRect@@PAVCBitmap@@HHH@Z 1A84:?OnDrawItem@SECBmpMenuPlugIn@@IAEXHPAUtagDRAWITEMSTRUCT@@@Z 224F:?OnMenuChar@SECBmpMenuPlugIn@@IAEJIIPAVCMenu@@@Z 24AF:?OnIdleUpdateCmdUI@SECBmpMenuPlugIn@@IAEXXZ 24C8:?OnSysColorChange@SECBmpMenuPlugIn@@IAEXXZ 2511:?OnSettingChange@SECBmpMenuPlugIn@@IAEXXZ (0F52: FE)
                  5. 08 AAD6 2747 0000:?GetMessageMap@SECBmpMenuPlugIn@@MBEPBUAFX_MSGMAP@@XZ 0010:?GetRuntimeClass@SECBmpMenuItemInfo@@UBEPAUCRuntimeClass@@XZ 0020:?GetRuntimeClass@SECBmpMenuPlugIn@@UBEPAUCRuntimeClass@@XZ 0030:??0SECBmpMenuPlugIn@@QAE@H@Z (l)0143:?InitSysColors@@YAXXZ (l)01BD:?FixMFCDotBitmap@@YAXXZ 039D:??1SECBmpMenuPlugIn@@UAE@XZ 0696:??1SECBmpMenuInfo@SECBmpMenuPlugIn@@QAE@XZ 073B:?CreateMenuFont@SECBmpMenuPlugIn@@MAEXXZ 07DE:?CreateDefaultMenuFont@SECBmpMenuPlugIn@@MAEXXZ 088B:?AddToolBarResource@SECBmpMenuPlugIn@@QAEHPBG@Z 08D4:?AddToolBarResource@SECBmpMenuPlugIn@@QAEHI@Z 08F2:?AddBitmapResource@SECBmpMenuPlugIn@@QAEHPBGPBII@Z 0943:?AddBitmapResource@SECBmpMenuPlugIn@@QAEHIPBII@Z 096A:?AddBitmap@SECBmpMenuPlugIn@@QAEHPAUHBITMAP__@@PBII@Z 09B9:?SetBmpMgr@SECBmpMenuPlugIn@@QAEXPAVSECBmpMgr@@@Z 09F8:?AddNoSubclass@SECBmpMenuPlugIn@@QAEXI@Z 0A18:?GarbageCollect@SECBmpMenuPlugIn@@UAEXXZ 0DE8:?InitMenuPopup@SECBmpMenuPlugIn@@QAEXIJ@Z 0E38:?OnInitMenuPopup@SECBmpMenuPlugIn@@IAEXPAVCMenu@@IH@Z 126F:?OnMeasureItem@SECBmpMenuPlugIn@@IAEXHPAUtagMEASUREITEMSTRUCT@@@Z 146A:?CreateMask@SECBmpMenuPlugIn@@MAEHAAVCDC@@0AAVCBitmap@@AAPAV3@HHH@Z 1541:?DrawChecked@SECBmpMenuPlugIn@@MAEXAAVCDC@@HHHH0H@Z 16A8:?DrawDisabled@SECBmpMenuPlugIn@@MAEXAAVCDC@@HHHH0H@Z 1847:?DrawButton@SECBmpMenuPlugIn@@MAEXPAUtagDRAWITEMSTRUCT@@AAVCDC@@AAVCRect@@PAVCBitmap@@HHH@Z 1A88:?OnDrawItem@SECBmpMenuPlugIn@@IAEXHPAUtagDRAWITEMSTRUCT@@@Z 2255:?OnMenuChar@SECBmpMenuPlugIn@@IAEJIIPAVCMenu@@@Z 24BF:?OnIdleUpdateCmdUI@SECBmpMenuPlugIn@@IAEXXZ 24D8:?OnSysColorChange@SECBmpMenuPlugIn@@IAEXXZ 2521:?OnSettingChange@SECBmpMenuPlugIn@@IAEXXZ (0F52: FD)
                  6. 07 ACF1 3522 0000:?GetRuntimeClass@SECSplitterBase@@UBEPAUCRuntimeClass@@XZ 0010:?GetRuntimeClass@SECSplitterPaneInfo@@UBEPAUCRuntimeClass@@XZ 0020:?SetSplitterWidth@SECSplitterBase@@SAXH@Z 002D:?GetSplitterWidth@SECSplitterBase@@SAHXZ 0037:?SetDrawingStyleAll@SECSplitterBase@@SAXK@Z 0044:?GetDrawingStyleAll@SECSplitterBase@@SAKXZ 004E:??0SECSplitterPaneInfo@@QAE@XZ 011A:?SetPaneRectNW@SECSplitterPaneInfo@@QAEXPBUtagRECT@@@Z 0141:?GetPaneRectNW@SECSplitterPaneInfo@@QAEHAAVCRect@@@Z 0168:?SetPaneRectNE@SECSplitterPaneInfo@@QAEXPBUtagRECT@@@Z 018F:?GetPaneRectNE@SECSplitterPaneInfo@@QAEHAAVCRect@@@Z 01B6:?SetPaneRectSW@SECSplitterPaneInfo@@QAEXPBUtagRECT@@@Z 01DD:?GetPaneRectSW@SECSplitterPaneInfo@@QAEHAAVCRect@@@Z 0204:?SetPaneRectSE@SECSplitterPaneInfo@@QAEXPBUtagRECT@@@Z 022B:?GetPaneRectSE@SECSplitterPaneInfo@@QAEHAAVCRect@@@Z 0252:?GetPaneRect@SECSplitterPaneInfo@@IAEHAAVCRect@@ABV2@H@Z 028A:?SetPaneRect@SECSplitterPaneInfo@@IAEXPBUtagRECT@@AAVCRect@@AAH@Z 02BD:?GetMessageMap@SECSplitterBase@@MBEPBUAFX_MSGMAP@@XZ 02CD:??0SECSplitterBase@@QAE@XZ 0481:??1SECSplitterBase@@UAE@XZ 049D:?Create@SECSplitterBase@@UAEHPAVCWnd@@VCRect@@KIK@Z 055D:?SetSplitterFlags@SECSplitterBase@@QAEXK@Z 0573:?SetBoundingMargins@SECSplitterBase@@QAEXHHHH@Z 05B0:?GetBoundingMargins@SECSplitterBase@@QAEXAAH000@Z 05F5:?SetSplitterPositions@SECSplitterBase@@UAEXHH@Z 065A:?GetSplitterPositions@SECSplitterBase@@QAEXAAH0@Z 067D:?AddPane@SECSplitterBase@@UAEHGG@Z 07A6:?RemovePane@SECSplitterBase@@UAEHGG@Z 08CF:?OnSetPanePositions@SECSplitterBase@@MAEXPAVSECSplitterPaneInfo@@@Z 08DC:?OnDrawSplitters@SECSplitterBase@@MAEXPAVCDC@@@Z 0A00:?OnDrawSplitterRow@SECSplitterBase@@MAEXPAVCDC@@ABVCRect@@1@Z 0C6F:?OnDrawSplitterCol@SECSplitterBase@@MAEXPAVCDC@@ABVCRect@@1@Z 0FB8:?OnDrawSplitterRowFlat@SECSplitterBase@@MAEXPAVCDC@@ABVCRect@@1@Z 116B:?OnDrawSplitterColFlat@SECSplitterBase@@MAEXPAVCDC@@ABVCRect@@1@Z 13F5:?OnDrawSplitterBorderLook@SECSplitterBase@@MAEXPAVCDC@@ABVCRect@@@Z 142D:?OnSplitterDragStart@SECSplitterBase@@MAEHVCPoint@@HH@Z 143F:?OnSplitterMoved@SECSplitterBase@@MAEXHH@Z 144C:?OnSplitterInvalidate@SECSplitterBase@@MAEXVCRect@@H@Z 1469:?OnTrackMouseMove@SECSplitterBase@@MAEXPAVCDC@@HHAAVCRect@@1HH@Z 160E:?GetSplitterBoundaries@SECSplitterBase@@MAEHAAH000@Z 172A:?OnAdjustFinalSplitterRect@SECSplitterBase@@MAE?AVCSize@@AAVCRect@@ABV3@H@Z 1812:?CalcNeededSplitters@SECSplitterBase@@MAEXXZ 1A9C:?MoveSplitter@SECSplitterBase@@MAEHABVCRect@@0H@Z 203A:?MoveAndSetSplitter@SECSplitterBase@@MAEHABVCRect@@H@Z 2125:?SplitterHitTest@SECSplitterBase@@MAEXVCPoint@@AAH1@Z 21A1:?RecalcSplitterRects@SECSplitterBase@@MAEXAAVCRect@@0AAH1@Z 23E1:?RecalcSplitterRects@SECSplitterBase@@MAEXXZ 2424:?RefreshSplitterClientRects@SECSplitterBase@@MAEXXZ 24BE:?StartTracking@SECSplitterBase@@MAEXVCPoint@@HH@Z 267C:?Track@SECSplitterBase@@MAE?AVCSize@@VCPoint@@HH@Z 28DD:?DrawTrackerRect@SECSplitterBase@@MAEXABVCRect@@PAVCDC@@HH@Z 2B3F:?TrackMessageLoop@SECSplitterBase@@MAEXPAVCDC@@HHAAVCRect@@1@Z (l)2EC9:$ExitSplitterTrack$142529 2EDF:?ResetPanePositions@SECSplitterBase@@MAEXABVCRect@@0@Z 31CE:?ResetPanePositions@SECSplitterBase@@MAEXXZ 3203:?PumpPaintMessages@SECSplitterBase@@MAEXXZ 323C:?InitCursorsIfNeeded@SECSplitterBase@@IAEXXZ 3313:?ResolveAppropDrawingStyle@SECSplitterBase@@MAEKXZ 333E:?OnCreate@SECSplitterBase@@IAEHPAUtagCREATESTRUCTW@@@Z 3357:?OnSetCursor@SECSplitterBase@@IAEHPAVCWnd@@II@Z 338D:?OnMouseMove@SECSplitterBase@@IAEXIVCPoint@@@Z 342C:?OnLButtonDown@SECSplitterBase@@IAEXIVCPoint@@@Z 3499:?OnPaint@SECSplitterBase@@IAEXXZ (REF 050F: ?LoadStringW@CString@@QAEHI@Z)
                  7. 07 ACF1 3522 0000:?GetRuntimeClass@SECSplitterBase@@UBEPAUCRuntimeClass@@XZ 0010:?GetRuntimeClass@SECSplitterPaneInfo@@UBEPAUCRuntimeClass@@XZ 0020:?SetSplitterWidth@SECSplitterBase@@SAXH@Z 002D:?GetSplitterWidth@SECSplitterBase@@SAHXZ 0037:?SetDrawingStyleAll@SECSplitterBase@@SAXK@Z 0044:?GetDrawingStyleAll@SECSplitterBase@@SAKXZ 004E:??0SECSplitterPaneInfo@@QAE@XZ 011A:?SetPaneRectNW@SECSplitterPaneInfo@@QAEXPBUtagRECT@@@Z 0141:?GetPaneRectNW@SECSplitterPaneInfo@@QAEHAAVCRect@@@Z 0168:?SetPaneRectNE@SECSplitterPaneInfo@@QAEXPBUtagRECT@@@Z 018F:?GetPaneRectNE@SECSplitterPaneInfo@@QAEHAAVCRect@@@Z 01B6:?SetPaneRectSW@SECSplitterPaneInfo@@QAEXPBUtagRECT@@@Z 01DD:?GetPaneRectSW@SECSplitterPaneInfo@@QAEHAAVCRect@@@Z 0204:?SetPaneRectSE@SECSplitterPaneInfo@@QAEXPBUtagRECT@@@Z 022B:?GetPaneRectSE@SECSplitterPaneInfo@@QAEHAAVCRect@@@Z 0252:?GetPaneRect@SECSplitterPaneInfo@@IAEHAAVCRect@@ABV2@H@Z 028A:?SetPaneRect@SECSplitterPaneInfo@@IAEXPBUtagRECT@@AAVCRect@@AAH@Z 02BD:?GetMessageMap@SECSplitterBase@@MBEPBUAFX_MSGMAP@@XZ 02CD:??0SECSplitterBase@@QAE@XZ 0481:??1SECSplitterBase@@UAE@XZ 049D:?Create@SECSplitterBase@@UAEHPAVCWnd@@VCRect@@KIK@Z 055D:?SetSplitterFlags@SECSplitterBase@@QAEXK@Z 0573:?SetBoundingMargins@SECSplitterBase@@QAEXHHHH@Z 05B0:?GetBoundingMargins@SECSplitterBase@@QAEXAAH000@Z 05F5:?SetSplitterPositions@SECSplitterBase@@UAEXHH@Z 065A:?GetSplitterPositions@SECSplitterBase@@QAEXAAH0@Z 067D:?AddPane@SECSplitterBase@@UAEHGG@Z 07A6:?RemovePane@SECSplitterBase@@UAEHGG@Z 08CF:?OnSetPanePositions@SECSplitterBase@@MAEXPAVSECSplitterPaneInfo@@@Z 08DC:?OnDrawSplitters@SECSplitterBase@@MAEXPAVCDC@@@Z 0A00:?OnDrawSplitterRow@SECSplitterBase@@MAEXPAVCDC@@ABVCRect@@1@Z 0C6F:?OnDrawSplitterCol@SECSplitterBase@@MAEXPAVCDC@@ABVCRect@@1@Z 0FB8:?OnDrawSplitterRowFlat@SECSplitterBase@@MAEXPAVCDC@@ABVCRect@@1@Z 116B:?OnDrawSplitterColFlat@SECSplitterBase@@MAEXPAVCDC@@ABVCRect@@1@Z 13F5:?OnDrawSplitterBorderLook@SECSplitterBase@@MAEXPAVCDC@@ABVCRect@@@Z 142D:?OnSplitterDragStart@SECSplitterBase@@MAEHVCPoint@@HH@Z 143F:?OnSplitterMoved@SECSplitterBase@@MAEXHH@Z 144C:?OnSplitterInvalidate@SECSplitterBase@@MAEXVCRect@@H@Z 1469:?OnTrackMouseMove@SECSplitterBase@@MAEXPAVCDC@@HHAAVCRect@@1HH@Z 160E:?GetSplitterBoundaries@SECSplitterBase@@MAEHAAH000@Z 172A:?OnAdjustFinalSplitterRect@SECSplitterBase@@MAE?AVCSize@@AAVCRect@@ABV3@H@Z 1812:?CalcNeededSplitters@SECSplitterBase@@MAEXXZ 1A9C:?MoveSplitter@SECSplitterBase@@MAEHABVCRect@@0H@Z 203A:?MoveAndSetSplitter@SECSplitterBase@@MAEHABVCRect@@H@Z 2125:?SplitterHitTest@SECSplitterBase@@MAEXVCPoint@@AAH1@Z 21A1:?RecalcSplitterRects@SECSplitterBase@@MAEXAAVCRect@@0AAH1@Z 23E1:?RecalcSplitterRects@SECSplitterBase@@MAEXXZ 2424:?RefreshSplitterClientRects@SECSplitterBase@@MAEXXZ 24BE:?StartTracking@SECSplitterBase@@MAEXVCPoint@@HH@Z 267C:?Track@SECSplitterBase@@MAE?AVCSize@@VCPoint@@HH@Z 28DD:?DrawTrackerRect@SECSplitterBase@@MAEXABVCRect@@PAVCDC@@HH@Z 2B3F:?TrackMessageLoop@SECSplitterBase@@MAEXPAVCDC@@HHAAVCRect@@1@Z (l)2EC9:$ExitSplitterTrack$142757 2EDF:?ResetPanePositions@SECSplitterBase@@MAEXABVCRect@@0@Z 31CE:?ResetPanePositions@SECSplitterBase@@MAEXXZ 3203:?PumpPaintMessages@SECSplitterBase@@MAEXXZ 323C:?InitCursorsIfNeeded@SECSplitterBase@@IAEXXZ 3313:?ResolveAppropDrawingStyle@SECSplitterBase@@MAEKXZ 333E:?OnCreate@SECSplitterBase@@IAEHPAUtagCREATESTRUCTA@@@Z 3357:?OnSetCursor@SECSplitterBase@@IAEHPAVCWnd@@II@Z 338D:?OnMouseMove@SECSplitterBase@@IAEXIVCPoint@@@Z 342C:?OnLButtonDown@SECSplitterBase@@IAEXIVCPoint@@@Z 3499:?OnPaint@SECSplitterBase@@IAEXXZ (REF 050F: ?LoadStringA@CString@@QAEHI@Z)
                  8. 06 D72B 3057 0000:?GetRuntimeClass@SECTabControl@@UBEPAUCRuntimeClass@@XZ 0010:?GetMessageMap@SECTabControl@@MBEPBUAFX_MSGMAP@@XZ 0020:??0SECTabControl@@QAE@XZ 0124:??1SECTabControl@@UAE@XZ 01C9:?Initialize@SECTabControl@@UAEXK@Z 03AF:?OnDestroy@SECTabControl@@IAEXXZ 043F:?SetFontTab@SECTabControl@@MAEHPAVCFont@@HH@Z 0576:?InvalidateTab@SECTabControl@@UAEXH@Z 062B:?InsertTab@SECTabControl@@UAEPAVSECTab@@HPBDPAVCObject@@PAUHMENU__@@PAX@Z 06AF:?RecalcLayout@SECTabControl@@UAEXXZ 0701:?ScrollToTab@SECTabControl@@UAEXH@Z 08A2:?TabHit@SECTabControl@@QBEHHAAVCPoint@@@Z 093F:?GetLabelWidth@SECTabControl@@IAEHH@Z 0A78:?GetTabRgn@SECTabControl@@IBEXHAAVCRgn@@@Z 0B82:?OnPaint@SECTabControl@@IAEXXZ 1240:?DrawTab@SECTabControl@@UAEXPAVCDC@@HAAVCRgn@@@Z 15A4:?OnEraseBkgnd@SECTabControl@@IAEHPAVCDC@@@Z 1612:?GetButtonRect@SECTabControl@@IAEXHAAVCRect@@@Z 16D9:?DrawButton@SECTabControl@@IAEXPAVCDC@@H@Z 1D7D:?rgbFill@SECTabControl@@IAEXPAVCDC@@HHHHK@Z 1DEE:?RecalcButtonSensitivity@SECTabControl@@IAEXXZ 219B:?GetTabsRect@SECTabControl@@IBEXAAVCRect@@@Z 2216:?GetButtonsRect@SECTabControl@@IAEXAAVCRect@@@Z 22A6:?OnSize@SECTabControl@@IAEXIHH@Z 2329:?OnButtonPress@SECTabControl@@IAEXH@Z 2645:?OnLButtonDown@SECTabControl@@IAEXIVCPoint@@@Z 2B91:?OnLButtonUp@SECTabControl@@IAEXIVCPoint@@@Z 2C27:?OnLButtonDblClk@SECTabControl@@IAEXIVCPoint@@@Z 2D6F:?AssertValid@SECTabControl@@MBEXXZ 2E06:?Dump@SECTabControl@@MBEXAAVCDumpContext@@@Z (05A4: C0)
                  9. 06 D72B 308D 0000:?GetRuntimeClass@SECTabControl@@UBEPAUCRuntimeClass@@XZ 0010:?GetMessageMap@SECTabControl@@MBEPBUAFX_MSGMAP@@XZ 0020:??0SECTabControl@@QAE@XZ 0124:??1SECTabControl@@UAE@XZ 01C9:?Initialize@SECTabControl@@UAEXK@Z 03AF:?OnDestroy@SECTabControl@@IAEXXZ 043F:?SetFontTab@SECTabControl@@MAEHPAVCFont@@HH@Z 05AC:?InvalidateTab@SECTabControl@@UAEXH@Z 0661:?InsertTab@SECTabControl@@UAEPAVSECTab@@HPBGPAVCObject@@PAUHMENU__@@PAX@Z 06E5:?RecalcLayout@SECTabControl@@UAEXXZ 0737:?ScrollToTab@SECTabControl@@UAEXH@Z 08D8:?TabHit@SECTabControl@@QBEHHAAVCPoint@@@Z 0975:?GetLabelWidth@SECTabControl@@IAEHH@Z 0AAE:?GetTabRgn@SECTabControl@@IBEXHAAVCRgn@@@Z 0BB8:?OnPaint@SECTabControl@@IAEXXZ 1276:?DrawTab@SECTabControl@@UAEXPAVCDC@@HAAVCRgn@@@Z 15DA:?OnEraseBkgnd@SECTabControl@@IAEHPAVCDC@@@Z 1648:?GetButtonRect@SECTabControl@@IAEXHAAVCRect@@@Z 170F:?DrawButton@SECTabControl@@IAEXPAVCDC@@H@Z 1DB3:?rgbFill@SECTabControl@@IAEXPAVCDC@@HHHHK@Z 1E24:?RecalcButtonSensitivity@SECTabControl@@IAEXXZ 21D1:?GetTabsRect@SECTabControl@@IBEXAAVCRect@@@Z 224C:?GetButtonsRect@SECTabControl@@IAEXAAVCRect@@@Z 22DC:?OnSize@SECTabControl@@IAEXIHH@Z 235F:?OnButtonPress@SECTabControl@@IAEXH@Z 267B:?OnLButtonDown@SECTabControl@@IAEXIVCPoint@@@Z 2BC7:?OnLButtonUp@SECTabControl@@IAEXIVCPoint@@@Z 2C5D:?OnLButtonDblClk@SECTabControl@@IAEXIVCPoint@@@Z 2DA5:?AssertValid@SECTabControl@@MBEXXZ 2E3C:?Dump@SECTabControl@@MBEXAAVCDumpContext@@@Z (05A4: 89)
                  10. 06 D72B 12FF 0000:?GetRuntimeClass@SECDropEdit@@UBEPAUCRuntimeClass@@XZ 0010:?GetMessageMap@SECDropEdit@@MBEPBUAFX_MSGMAP@@XZ 0020:??0SECDropEdit@@QAE@XZ 00A5:??1SECDropEdit@@UAE@XZ 00F9:?AttachEdit@SECDropEdit@@QAEHHPAVCWnd@@@Z 022C:?Create@SECDropEdit@@UAEHKABUtagRECT@@PAVCWnd@@I@Z 0259:?CreateEx@SECDropEdit@@UAEHKKABUtagRECT@@PAVCWnd@@I@Z 0301:?SetRightAlign@SECDropEdit@@QAEXH@Z 0386:?IsRightAligned@SECDropEdit@@QBEHXZ 03A5:?SetBorder@SECDropEdit@@QAEXGG@Z 041F:?GetBorders@SECDropEdit@@QBEKXZ 0443:?SetBitmap@SECDropEdit@@QAEHPBD@Z 04EC:?SetBitmap@SECDropEdit@@QAEHI@Z 050A:?SetBitmap@SECDropEdit@@QAEHXZ 051F:?GetBitmap@SECDropEdit@@QBEPAUHBITMAP__@@XZ 0530:?HitTestBtn@SECDropEdit@@UBEHVCPoint@@H@Z 05E0:?InvalidateBtn@SECDropEdit@@QAEXXZ 063D:?OnClicked@SECDropEdit@@MAEXXZ 0689:?DrawBtn@SECDropEdit@@MAEXAAVCDC@@VCRect@@@Z 0876:?OnNcCalcSize@SECDropEdit@@IAEXHPAUtagNCCALCSIZE_PARAMS@@@Z 0985:?OnNcHitTest@SECDropEdit@@IAEIVCPoint@@@Z 09D3:?OnNcLButtonDown@SECDropEdit@@IAEXIVCPoint@@@Z 0A7B:?OnMove@SECDropEdit@@IAEXHH@Z 0AB1:?OnMouseMove@SECDropEdit@@IAEXIVCPoint@@@Z 0B75:?OnLButtonUp@SECDropEdit@@IAEXIVCPoint@@@Z 0C1C:?OnCancelMode@SECDropEdit@@IAEXXZ 0C81:?OnNcPaint@SECDropEdit@@IAEXXZ 0ECA:?OnEnable@SECDropEdit@@IAEXH@Z 0EF4:?OnSysColorChange@SECDropEdit@@IAEXXZ 0FA8:?OnKeyDown@SECDropEdit@@IAEXIII@Z 0FDF:?OnSysKeyDown@SECDropEdit@@IAEXIII@Z 1016:?Dump@SECDropEdit@@UBEXAAVCDumpContext@@@Z 10A4:?AssertValid@SECDropEdit@@UBEXXZ 10B7:?SECDrawDisabled@@YAXAAVCDC@@HHHH@Z (05A4: F4) (REF 01D9: $SG142263)
                  11. 06 D72B 12FF 0000:?GetRuntimeClass@SECDropEdit@@UBEPAUCRuntimeClass@@XZ 0010:?GetMessageMap@SECDropEdit@@MBEPBUAFX_MSGMAP@@XZ 0020:??0SECDropEdit@@QAE@XZ 00A5:??1SECDropEdit@@UAE@XZ 00F9:?AttachEdit@SECDropEdit@@QAEHHPAVCWnd@@@Z 022C:?Create@SECDropEdit@@UAEHKABUtagRECT@@PAVCWnd@@I@Z 0259:?CreateEx@SECDropEdit@@UAEHKKABUtagRECT@@PAVCWnd@@I@Z 0301:?SetRightAlign@SECDropEdit@@QAEXH@Z 0386:?IsRightAligned@SECDropEdit@@QBEHXZ 03A5:?SetBorder@SECDropEdit@@QAEXGG@Z 041F:?GetBorders@SECDropEdit@@QBEKXZ 0443:?SetBitmap@SECDropEdit@@QAEHPBG@Z 04EC:?SetBitmap@SECDropEdit@@QAEHI@Z 050A:?SetBitmap@SECDropEdit@@QAEHXZ 051F:?GetBitmap@SECDropEdit@@QBEPAUHBITMAP__@@XZ 0530:?HitTestBtn@SECDropEdit@@UBEHVCPoint@@H@Z 05E0:?InvalidateBtn@SECDropEdit@@QAEXXZ 063D:?OnClicked@SECDropEdit@@MAEXXZ 0689:?DrawBtn@SECDropEdit@@MAEXAAVCDC@@VCRect@@@Z 0876:?OnNcCalcSize@SECDropEdit@@IAEXHPAUtagNCCALCSIZE_PARAMS@@@Z 0985:?OnNcHitTest@SECDropEdit@@IAEIVCPoint@@@Z 09D3:?OnNcLButtonDown@SECDropEdit@@IAEXIVCPoint@@@Z 0A7B:?OnMove@SECDropEdit@@IAEXHH@Z 0AB1:?OnMouseMove@SECDropEdit@@IAEXIVCPoint@@@Z 0B75:?OnLButtonUp@SECDropEdit@@IAEXIVCPoint@@@Z 0C1C:?OnCancelMode@SECDropEdit@@IAEXXZ 0C81:?OnNcPaint@SECDropEdit@@IAEXXZ 0ECA:?OnEnable@SECDropEdit@@IAEXH@Z 0EF4:?OnSysColorChange@SECDropEdit@@IAEXXZ 0FA8:?OnKeyDown@SECDropEdit@@IAEXIII@Z 0FDF:?OnSysKeyDown@SECDropEdit@@IAEXIII@Z 1016:?Dump@SECDropEdit@@UBEXAAVCDumpContext@@@Z 10A4:?AssertValid@SECDropEdit@@UBEXXZ 10B7:?SECDrawDisabled@@YAXAAVCDC@@HHHH@Z (05A4: F4) (REF 01D9: $SG142035)
                  12. 06 D72B 0CA5 0000:?GetRuntimeClass@SECPanView@@UBEPAUCRuntimeClass@@XZ 0010:?GetMessageMap@SECPanView@@MBEPBUAFX_MSGMAP@@XZ 0020:??0SECPanView@@IAE@XZ 00EA:??1SECPanView@@UAE@XZ 01EE:?Dump@SECPanView@@UBEXAAVCDumpContext@@@Z 0207:?AssertValid@SECPanView@@UBEXXZ 021A:?SetPanMode@SECPanView@@QAEXW4SECPanMode@@@Z 025F:?StartPan@SECPanView@@UAEXPAVCPoint@@I@Z 0330:?ContinuePan@SECPanView@@UAEXPAVCPoint@@@Z 038B:?EndPan@SECPanView@@UAEXPAVCPoint@@@Z 03FB:?PerformPan@SECPanView@@IAEXPAVCPoint@@H@Z 04D3:?ShowOverviewWnd@SECPanView@@UAEHVCRect@@@Z 065E:?HideOverviewWnd@SECPanView@@UAEHXZ 06ED:?PreOverview@SECPanView@@IAEXXZ 07E4:?PostOverview@SECPanView@@IAEXXZ 0825:?UpdateOverviewRect@SECPanView@@IAEXXZ 08F5:?OverviewDestroyed@SECPanView@@IAEXXZ 092C:?UpdateViewport@SECPanView@@IAEXPAVCPoint@@@Z 0980:?UpdateOverviewWnd@SECPanView@@UAEXPAVCView@@JPAVCObject@@@Z 09B3:?OnUpdateOverview@SECPanView@@UAEXPAVCView@@JPAVCObject@@PAVCDC@@PAVCWnd@@@Z 09CC:?OnSetCursor@SECPanView@@QAEHPAVCWnd@@II@Z 0A86:?OnHScroll@SECPanView@@QAEXIIPAVCScrollBar@@@Z 0AAF:?OnVScroll@SECPanView@@QAEXIIPAVCScrollBar@@@Z 0AD8:?OnSize@SECPanView@@QAEXIHH@Z 0B01:?ZoomLevelChanged@SECPanView@@MAEXXZ 0B14:?DoScroll@SECPanView@@IAEHVCSize@@H@Z (05A4: 4D)
                  13. 06 D72B 05D0 0000:?GetRuntimeClass@SECSplitterWnd@@UBEPAUCRuntimeClass@@XZ 0010:?GetMessageMap@SECSplitterWnd@@MBEPBUAFX_MSGMAP@@XZ 0020:??0SECSplitterWnd@@QAE@XZ 00E8:??1SECSplitterWnd@@UAE@XZ 013F:?AddPane@SECSplitterWnd@@UAEHGGPAVCWnd@@@Z 0252:?RemovePane@SECSplitterWnd@@UAEHGG@Z 0390:?OnSetPanePositions@SECSplitterWnd@@MAEXPAVSECSplitterPaneInfo@@@Z 0582:?OnSize@SECSplitterWnd@@IAEXIHH@Z (05A4: 8B)
                  14. 06 D72B 10CC 0000:?GetRuntimeClass@SECProgressCtrl@@UBEPAUCRuntimeClass@@XZ 0010:?GetMessageMap@SECProgressCtrl@@MBEPBUAFX_MSGMAP@@XZ 0020:??0SECProgressCtrl@@QAE@XZ 00F4:??1SECProgressCtrl@@UAE@XZ 0148:?AttachProgress@SECProgressCtrl@@UAEHHPAVCWnd@@@Z 0262:?Create@SECProgressCtrl@@UAEHKABUtagRECT@@PAVCWnd@@IK@Z 02B6:?SetRange@SECProgressCtrl@@UAEXKK@Z 030D:?SetPos@SECProgressCtrl@@UAEKKH@Z 0371:?OffsetPos@SECProgressCtrl@@UAEKKH@Z 03C7:?SetStep@SECProgressCtrl@@UAEKK@Z 03F7:?SetColors@SECProgressCtrl@@UAEXKK@Z 0429:?SetFont@SECProgressCtrl@@UAEXPAVCFont@@H@Z 0458:?SetWindowTextW@SECProgressCtrl@@UAEXPBG@Z 0474:?SetExStyle@SECProgressCtrl@@QAEXK@Z 04C2:?StepIt@SECProgressCtrl@@UAEKH@Z 0514:?ResetProgress@SECProgressCtrl@@UAEXXZ 055D:?StepOnTimer@SECProgressCtrl@@UAEHI@Z 05DA:?OnInitProgress@SECProgressCtrl@@MAEHXZ 05FE:?OnPaintBarFill@SECProgressCtrl@@MAEXPAVCDC@@VCRect@@@Z 067C:?OnPaintBarEmpty@SECProgressCtrl@@MAEXPAVCDC@@VCRect@@@Z 06FA:?OnPaintBarText@SECProgressCtrl@@MAEXPAVCDC@@MVCRect@@1@Z 096A:?DoPaint@SECProgressCtrl@@MAEXPAVCPaintDC@@@Z 0A84:?CalcProgressRects@SECProgressCtrl@@MAEHMAAVCRect@@0@Z 0C34:?PaintProgressBarAndText@SECProgressCtrl@@MAEHMVCRect@@0PAVCDC@@@Z 0E47:?CalcPercentComplete@SECProgressCtrl@@MAEMXZ 0F08:?YieldPaintMessages@SECProgressCtrl@@IAEXXZ 0F41:?OnCreate@SECProgressCtrl@@IAEHPAUtagCREATESTRUCTW@@@Z 0F8A:?OnEraseBkgnd@SECProgressCtrl@@IAEHPAVCDC@@@Z 0FBA:?OnPaint@SECProgressCtrl@@IAEXXZ 1034:?OnSize@SECProgressCtrl@@IAEXIHH@Z 1055:?OnShowWindow@SECProgressCtrl@@IAEXHI@Z 107B:?OnTimer@SECProgressCtrl@@IAEXI@Z (05A4: E8) (REF 024B: $SG142016)
                  15. 06 D72B 10CC 0000:?GetRuntimeClass@SECProgressCtrl@@UBEPAUCRuntimeClass@@XZ 0010:?GetMessageMap@SECProgressCtrl@@MBEPBUAFX_MSGMAP@@XZ 0020:??0SECProgressCtrl@@QAE@XZ 00F4:??1SECProgressCtrl@@UAE@XZ 0148:?AttachProgress@SECProgressCtrl@@UAEHHPAVCWnd@@@Z 0262:?Create@SECProgressCtrl@@UAEHKABUtagRECT@@PAVCWnd@@IK@Z 02B6:?SetRange@SECProgressCtrl@@UAEXKK@Z 030D:?SetPos@SECProgressCtrl@@UAEKKH@Z 0371:?OffsetPos@SECProgressCtrl@@UAEKKH@Z 03C7:?SetStep@SECProgressCtrl@@UAEKK@Z 03F7:?SetColors@SECProgressCtrl@@UAEXKK@Z 0429:?SetFont@SECProgressCtrl@@UAEXPAVCFont@@H@Z 0458:?SetWindowTextA@SECProgressCtrl@@UAEXPBD@Z 0474:?SetExStyle@SECProgressCtrl@@QAEXK@Z 04C2:?StepIt@SECProgressCtrl@@UAEKH@Z 0514:?ResetProgress@SECProgressCtrl@@UAEXXZ 055D:?StepOnTimer@SECProgressCtrl@@UAEHI@Z 05DA:?OnInitProgress@SECProgressCtrl@@MAEHXZ 05FE:?OnPaintBarFill@SECProgressCtrl@@MAEXPAVCDC@@VCRect@@@Z 067C:?OnPaintBarEmpty@SECProgressCtrl@@MAEXPAVCDC@@VCRect@@@Z 06FA:?OnPaintBarText@SECProgressCtrl@@MAEXPAVCDC@@MVCRect@@1@Z 096A:?DoPaint@SECProgressCtrl@@MAEXPAVCPaintDC@@@Z 0A84:?CalcProgressRects@SECProgressCtrl@@MAEHMAAVCRect@@0@Z 0C34:?PaintProgressBarAndText@SECProgressCtrl@@MAEHMVCRect@@0PAVCDC@@@Z 0E47:?CalcPercentComplete@SECProgressCtrl@@MAEMXZ 0F08:?YieldPaintMessages@SECProgressCtrl@@IAEXXZ 0F41:?OnCreate@SECProgressCtrl@@IAEHPAUtagCREATESTRUCTA@@@Z 0F8A:?OnEraseBkgnd@SECProgressCtrl@@IAEHPAVCDC@@@Z 0FBA:?OnPaint@SECProgressCtrl@@IAEXXZ 1034:?OnSize@SECProgressCtrl@@IAEXIHH@Z 1055:?OnShowWindow@SECProgressCtrl@@IAEXHI@Z 107B:?OnTimer@SECProgressCtrl@@IAEXI@Z (05A4: E8) (REF 024B: $SG142244)
              6AFF68........64A1:
                0. 04 9F62 1141 0000:?GetRuntimeClass@SECBmpMgr@@UBEPAUCRuntimeClass@@XZ 0010:??0SECBmpMgr@@QAE@XZ 00BE:??1SECBmpMgr@@UAE@XZ 01FC:??0BmpInfo@SECBmpMgr@@QAE@XZ 024F:??1BmpInfo@SECBmpMgr@@QAE@XZ 02AC:?AddRef@SECBmpMgr@@QAEXXZ 02C6:?Release@SECBmpMgr@@QAEXXZ 0316:?AddToolbarResource@SECBmpMgr@@QAEHPBG0H@Z 059D:?AddBitmapResource@SECBmpMgr@@QAEHPBG0PBIIH@Z 0651:?AddBitmap@SECBmpMgr@@QAEHPAUHBITMAP__@@0PBII@Z 0738:?LoadBitmaps@SECBmpMgr@@QAEHH@Z 07A0:?GetButton@SECBmpMgr@@QAEHIAAPAUHBITMAP__@@AAIH@Z 089D:?ChangeMode@SECBmpMgr@@QAEXH@Z 08CA:?SetSmallSize@SECBmpMgr@@QAEXHH@Z 08E9:?SetLargeSize@SECBmpMgr@@QAEXHH@Z 0908:?SetKeepSmall@SECBmpMgr@@QAEXH@Z 0935:?LoadToolbarInfo@SECBmpMgr@@QAEHPBGAAPAIAAIAAH3H@Z 0A86:?LoadSmall@SECBmpMgr@@IAEHPAUBmpInfo@1@@Z 0B66:?LoadLarge@SECBmpMgr@@IAEHPAUBmpInfo@1@@Z 0F68:?LoadBitmapW@SECBmpMgr@@IAEHPAUBmpInfo@1@H@Z 109B:?AddBmpInfo@SECBmpMgr@@IAEXPAUBmpInfo@1@PBII@Z (0BE3: 04) (REF 0958: FindResourceW)
                1. 04 9F62 1141 0000:?GetRuntimeClass@SECBmpMgr@@UBEPAUCRuntimeClass@@XZ 0010:??0SECBmpMgr@@QAE@XZ 00BE:??1SECBmpMgr@@UAE@XZ 01FC:??0BmpInfo@SECBmpMgr@@QAE@XZ 024F:??1BmpInfo@SECBmpMgr@@QAE@XZ 02AC:?AddRef@SECBmpMgr@@QAEXXZ 02C6:?Release@SECBmpMgr@@QAEXXZ 0316:?AddToolbarResource@SECBmpMgr@@QAEHPBD0H@Z 059D:?AddBitmapResource@SECBmpMgr@@QAEHPBD0PBIIH@Z 0651:?AddBitmap@SECBmpMgr@@QAEHPAUHBITMAP__@@0PBII@Z 0738:?LoadBitmaps@SECBmpMgr@@QAEHH@Z 07A0:?GetButton@SECBmpMgr@@QAEHIAAPAUHBITMAP__@@AAIH@Z 089D:?ChangeMode@SECBmpMgr@@QAEXH@Z 08CA:?SetSmallSize@SECBmpMgr@@QAEXHH@Z 08E9:?SetLargeSize@SECBmpMgr@@QAEXHH@Z 0908:?SetKeepSmall@SECBmpMgr@@QAEXH@Z 0935:?LoadToolbarInfo@SECBmpMgr@@QAEHPBDAAPAIAAIAAH3H@Z 0A86:?LoadSmall@SECBmpMgr@@IAEHPAUBmpInfo@1@@Z 0B66:?LoadLarge@SECBmpMgr@@IAEHPAUBmpInfo@1@@Z 0F68:?LoadBitmapA@SECBmpMgr@@IAEHPAUBmpInfo@1@H@Z 109B:?AddBmpInfo@SECBmpMgr@@IAEXPAUBmpInfo@1@PBII@Z (0BE3: 04) (REF 0958: FindResourceA)
                2. 04 9F62 27E3 0000:?GetRuntimeClass@SECGridBagConstraints@@UBEPAUCRuntimeClass@@XZ 0010:??0SECGridBagConstraints@@QAE@XZ 0064:??1SECGridBagConstraints@@UAE@XZ 0080:??4SECGridBagConstraints@@QAEAAV0@ABV0@@Z 0144:?RestoreDefaults@SECGridBagConstraints@@QAEXXZ 01EF:?ClearInsets@SECGridBagConstraints@@QAEXXZ 0222:?StartNextRow@SECGridBagConstraints@@QAEXXZ 024F:?StartNextCol@SECGridBagConstraints@@QAEXXZ 027C:?Clone@SECGridBagConstraints@@QBEPAV1@XZ 02FC:??0SECLNGridBag@@QAE@XZ 0429:??1SECLNGridBag@@UAE@XZ 0502:?GetConstraints@SECLNGridBag@@UBEPAVSECGridBagConstraints@@PAVSECLayoutNode@@@Z 0560:?ResetConstraints@SECLNGridBag@@UAEXPAVSECLayoutNode@@ABVSECGridBagConstraints@@@Z 064C:?AddLayoutNode@SECLNGridBag@@UAEHPAVSECLayoutNode@@@Z 06B4:?AddLayoutNode@SECLNGridBag@@UAEHPAVSECLayoutNode@@ABVSECGridBagConstraints@@@Z 0799:?RemoveLayoutNode@SECLNGridBag@@UAEHPAVSECLayoutNode@@@Z 07D7:?OnRecalcLayout@SECLNGridBag@@MAE?AVCRect@@ABV2@HH@Z 094C:?EmptyConstraintMap@SECLNGridBag@@MAEXXZ 0A2B:?RemoveConstraint@SECLNGridBag@@MAEHPAVSECLayoutNode@@@Z 0B0B:?RecalcRowColSizes@SECLNGridBag@@MAEHABVCRect@@AAVCUIntArray@@1@Z 0EC1:?SetNodePositions@SECLNGridBag@@MAEHABVCUIntArray@@0ABVCRect@@HH@Z 120A:?GetNodeActualPosition@SECLNGridBag@@MAEHPAVSECLayoutNode@@PAVSECGridBagConstraints@@ABVCUIntArray@@2ABVCRect@@AAV5@@Z 1385:?GetNodeDisplayArea@SECLNGridBag@@MAEHPAVSECLayoutNode@@PAVSECGridBagConstraints@@ABVCUIntArray@@2ABVCRect@@AAV5@@Z 16C0:?AdjustNodeExternalPadding@SECLNGridBag@@MAEXPAVSECGridBagConstraints@@ABVCRect@@HHAAV3@@Z 1983:?AdjustNodeAnchor@SECLNGridBag@@MAEXPAVSECGridBagConstraints@@ABVCRect@@1AAV3@@Z 1C39:?AdjustNodeFill@SECLNGridBag@@MAEXPAVSECGridBagConstraints@@ABVCRect@@1AAV3@@Z 1CBE:?ResetGridBagInfo@SECLNGridBag@@MAEHXZ 1F1C:?InitGridBagInfo@SECLNGridBag@@MAEXXZ 1FD6:?UpdateGridBagInfo@SECLNGridBag@@MAEHPAVSECLayoutNode@@PAVSECGridBagConstraints@@@Z 2218:?TrackMaxWeightArrayState@SECLNGridBag@@MAEXAAV?$CArray@MM@@HMAAHAAM@Z 22E4:?TrackMaxSizeArrayState@SECLNGridBag@@MAEXAAVCUIntArray@@HIHAAI@Z 2398:?CalcActualCellPos@SECLNGridBag@@MAEHPAVSECGridBagConstraints@@@Z 25A9:?GetRowColMaxIndex@SECLNGridBag@@MAEXAAH0@Z 26D2:?GrowArraysToFit@SECLNGridBag@@MAEHPAVSECGridBagConstraints@@@Z (0BE3: 01)
                3. 04 9F62 0C70 0000:?GetRuntimeClass@SECTrayIcon@@UBEPAUCRuntimeClass@@XZ 0010:??0SECTrayIcon@@QAE@XZ 00D7:??1SECTrayIcon@@UAE@XZ 0137:?Create@SECTrayIcon@@UAEXPAVCWnd@@IIPAUHINSTANCE__@@@Z 0193:?Create@SECTrayIcon@@UAEXPAVCWnd@@IPAUHINSTANCE__@@@Z 01D4:?Destroy@SECTrayIcon@@UAEXXZ 028B:?SetIcon@SECTrayIcon@@UAEXI@Z 02B4:?SetIcon@SECTrayIcon@@UAEXPBG@Z 02E6:?SetIcon@SECTrayIcon@@UAEXPAUHICON__@@@Z 038A:?GetState@SECTrayIcon@@UAEKXZ 039B:?AddState@SECTrayIcon@@UAEXKIABVCString@@I@Z 03D0:?AddState@SECTrayIcon@@UAEXKPBGABVCString@@I@Z 040E:?AddState@SECTrayIcon@@UAEXKPAUHICON__@@ABVCString@@I@Z 04A0:?ShowContextMenu@SECTrayIcon@@SAXPAVCWnd@@II@Z 04C7:?ShowContextMenu@SECTrayIcon@@SAXPAVCWnd@@PBGI@Z 060E:?Show@SECTrayIcon@@UAEXH@Z 0658:?SetTip@SECTrayIcon@@UAEXABVCString@@@Z 06BF:?SetState@SECTrayIcon@@UAEXK@Z 06E8:?RemoveState@SECTrayIcon@@UAEXK@Z 0745:?Play@SECTrayIcon@@UAEXKI@Z 08BA:?Stop@SECTrayIcon@@UAEXXZ 08EC:?AnimWndProc@@YGJPAUHWND__@@IIJ@Z 0936:?OnTimer@SECTrayIcon@@IAEXXZ 09ED:?GetStateData@SECTrayIcon@@IAEHKPAPAUHICON__@@PAVCString@@PAI@Z 0A40:?SetStateData@SECTrayIcon@@IAEXKPAUHICON__@@ABVCString@@I@Z 0AA3:?ShellNotifyIcon@SECTrayIcon@@IAEHK@Z 0C4D:?GetNextNotifyID@SECTrayIcon@@SAIXZ 0C66:?GetLatestNotifyID@SECTrayIcon@@SAIXZ (0BE3: 45)
                4. 04 9F62 0C0E 0000:?GetRuntimeClass@SECTrayIcon@@UBEPAUCRuntimeClass@@XZ 0010:??0SECTrayIcon@@QAE@XZ 00D7:??1SECTrayIcon@@UAE@XZ 0137:?Create@SECTrayIcon@@UAEXPAVCWnd@@IIPAUHINSTANCE__@@@Z 0193:?Create@SECTrayIcon@@UAEXPAVCWnd@@IPAUHINSTANCE__@@@Z 01D4:?Destroy@SECTrayIcon@@UAEXXZ 028B:?SetIcon@SECTrayIcon@@UAEXI@Z 02B4:?SetIcon@SECTrayIcon@@UAEXPBD@Z 02E6:?SetIcon@SECTrayIcon@@UAEXPAUHICON__@@@Z 038A:?GetState@SECTrayIcon@@UAEKXZ 039B:?AddState@SECTrayIcon@@UAEXKIABVCString@@I@Z 03D0:?AddState@SECTrayIcon@@UAEXKPBDABVCString@@I@Z 040E:?AddState@SECTrayIcon@@UAEXKPAUHICON__@@ABVCString@@I@Z 04A0:?ShowContextMenu@SECTrayIcon@@SAXPAVCWnd@@II@Z 04C7:?ShowContextMenu@SECTrayIcon@@SAXPAVCWnd@@PBDI@Z 060E:?Show@SECTrayIcon@@UAEXH@Z 0658:?SetTip@SECTrayIcon@@UAEXABVCString@@@Z 06BF:?SetState@SECTrayIcon@@UAEXK@Z 06E8:?RemoveState@SECTrayIcon@@UAEXK@Z 0745:?Play@SECTrayIcon@@UAEXKI@Z 08BA:?Stop@SECTrayIcon@@UAEXXZ 08EC:?AnimWndProc@@YGJPAUHWND__@@IIJ@Z 0936:?OnTimer@SECTrayIcon@@IAEXXZ 09ED:?GetStateData@SECTrayIcon@@IAEHKPAPAUHICON__@@PAVCString@@PAI@Z 0A40:?SetStateData@SECTrayIcon@@IAEXKPAUHICON__@@ABVCString@@I@Z 0AA3:?ShellNotifyIcon@SECTrayIcon@@IAEHK@Z 0BEB:?GetNextNotifyID@SECTrayIcon@@SAIXZ 0C04:?GetLatestNotifyID@SECTrayIcon@@SAIXZ (0BE3: A1)
                5. 04 9F62 1D87 0000:?GetMessageMap@SECLayoutNodeSplitter@@MBEPBUAFX_MSGMAP@@XZ 0010:??0SECLayoutNodeSplitter@@QAE@XZ 017D:??1SECLayoutNodeSplitter@@UAE@XZ 023E:?Create@SECLayoutNodeSplitter@@UAEHPAVCWnd@@VCRect@@KIK@Z 02A6:?SetNodeExStyle@SECLayoutNodeSplitter@@UAEXKH@Z 037E:?SetSplitterPositions@SECLayoutNodeSplitter@@UAEXHH@Z 0445:?AddPane@SECLayoutNodeSplitter@@UAEHGGPAVSECLayoutNode@@@Z 0590:?RemovePane@SECLayoutNodeSplitter@@UAEHGG@Z 06D8:?RecalcZOrder@SECLayoutNodeSplitter@@UAEXH@Z 0743:?RealizeNodeHelper@SECLayoutNodeSplitter@@UAEHPAPAXPAUHDC__@@@Z 080F:?OnSetPanePositions@SECLayoutNodeSplitter@@MAEXPAVSECSplitterPaneInfo@@@Z 09C8:?OnSplitterMoved@SECLayoutNodeSplitter@@MAEXHH@Z 09EF:?OnSplitterInvalidate@SECLayoutNodeSplitter@@MAEXVCRect@@H@Z 0A40:?MoveAndSetSplitter@SECLayoutNodeSplitter@@MAEHABVCRect@@H@Z 0AB6:?OnRecalcLayout@SECLayoutNodeSplitter@@MAE?AVCRect@@ABV2@HH@Z 0BEC:?OnInvalidateRect@SECLayoutNodeSplitter@@MAEXABVCRect@@H@Z 0C50:?AdjustMinMaxPreferred@SECLayoutNodeSplitter@@MAE?AVCRect@@ABV2@0AAH1H@Z 100C:?DistributeSplitterPixels@SECLayoutNodeSplitter@@MAEXAAH0HH0@Z 11BB:?CalcMinMaxPrefHorz@SECLayoutNodeSplitter@@MAEXAAH00000ABVCRect@@@Z 13FE:?CalcMinMaxPrefVert@SECLayoutNodeSplitter@@MAEXAAH00000ABVCRect@@@Z 1644:??0SECLNVirtualSplitter@@QAE@XZ 1731:??1SECLNVirtualSplitter@@UAE@XZ 1781:?SetNodeHorizontal@SECLNVirtualSplitter@@UAEXHH@Z 1826:?OnRecalcLayout@SECLNVirtualSplitter@@MAE?AVCRect@@ABV2@HH@Z 1899:?RefreshSplitterClientRects@SECLNVirtualSplitter@@MAEXXZ 1ACD:?OnSplitterMoved@SECLNVirtualSplitter@@MAEXHH@Z 1B4E:?OnAdjustFinalSplitterRect@SECLNVirtualSplitter@@MAE?AVCSize@@AAVCRect@@ABV3@H@Z 1C05:?MoveAndSetSplitter@SECLNVirtualSplitter@@MAEHABVCRect@@H@Z 1C4E:?GetTrackerDC@SECLNVirtualSplitter@@MAEPAVCDC@@XZ 1C9B:?ConvertTrackerCoordinates@SECLNVirtualSplitter@@MAEXAAVCRect@@0@Z 1CC0:?GetSplitterBoundaries@SECLNVirtualSplitter@@MAEHAAH000@Z 1D16:?OnPrepareDC@SECLNVirtualSplitter@@MAEHPAVCDC@@@Z 1D5C:?OnDrawSplitters@SECLNVirtualSplitter@@MAEXPAVCDC@@@Z (0BE3: 8B)
