0600:
  558BEC83EC0256578CCAB8....8B4E068B5E0483C3048EC189DE26C43C89:
    0. 12 6FE3 00CB (?)0002:??1istream@@UEC@XZ (0098: 00)
  8CD89045558BEC1E8ED883EC0256578CCAB8....8B4E088B5E0683C3048E:
    0. 19 FF61 00F1 (?)0002:??1istream@@VEC@XZ (00B7: 00)
0BC975080BD27512F7E3:
  C3900BD2751691F7E191F7E303D1C3908BC88BC2F7E3:
    0. 94 2B03 0105 0000:__LMUL@ 0058:__ULDIV@ 00BE:__LDIV@ 00F2:__LCMP@
  CB900BD2751691F7E191F7E303D1CB908BC88BC2F7E3:
    0. 93 062D 010B 0000:__LMUL@ 0058:__ULDIV@ 00C0:__LDIV@ 00F8:__LCMP@
100000000600:
  558BEC56578CCAB8....C45E042689570C2689470A8CCAB8:
    0. 1B 0CF2 00C2 0002:??_8iostream@@7Fostream@@@ 0006:??1iostream@@UEC@XZ
  8CD89045558BEC1E8ED856578CCAB8....C45E062689570C2689:
    0. 05 7145 00ED 0002:??_8iostream@@7Fostream@@@ 0006:??1iostream@@VEC@XZ
1E:
  589045558BEC1E8ED883EC:
    0C57568B7606568D46F61650..........8B46FA:
      0. 13 41E4 0726 0000:ODDARROWWINDOW 007E:_UpOrDown 00C4:ARROWTIMERPROC 0124:_InvertArrow 01B4:ARROWCONTROLPROC 05E8:_RegisterArrowClass 0640:ARROWVSCROLLPROC
    70568B560C8BC22D10017412487503E922013B16:
      0. 00 0000 07CC 0000:DLGCHANGEPASSWORD 03AA:_ConvertString 03C6:_Encrypt 04BE:_TwiddleBits 0510:DLGGETPASSWORD 071C:DLGINVALIDPASSWORD
  B8....50E8....83C404:
    1EB8....50E8....83C404C20400:
      0. 00 0000 0019 0000:?flush_stdio@ostream@@AECXXZ
    C3558BEC1EB8....50FF7604E8....83C4065DC355:
      0. 0C 9FAC 008D 0000:_getchar 000C:_putchar 001F:_putc 0033:_getc 0044:_ferror 0053:_feof 0062:_clearerr 006F:_rewind
31C050:
  B08150:
    1EB8....50E8....B80100501EB8....501EB8....50E8....C4:
      0. 01 8709 0061 0000:__STI___iosst1_cpp_ 0032:__STD___iosst1_cpp_
    B8....50E8....B8010050B8....50B8....50E8....8B1E:
      0. 05 8CA7 0050 0000:__STI___iosst1_cpp_ 002A:__STD___iosst1_cpp_
  ..........C3:
    0. 00 0000 0009 0000:_coreleft (REF 0004: LOCALCOMPACT)
32EDE307D1E0D1D24975F9CB558BEC538B56088B46068B4E0C8B5E0A:
  E8....5B:
    0. 17 C080 007E 0000:__aFlshl 000C:__aFlmul 0024:__aFldiv 0040:__aFuldiv 0057:__aNNalmul
  ..:
    0. 00 0000 0084 0000:__aFlshl 000C:__aFlmul 0026:__aFldiv 0044:__aFuldiv 005D:__aFNalmul
33:
  C0:
    50..........:
      C3:
        0. 00 0000 0009 0000:__memmax (REF 0004: LOCALCOMPACT)
      CB:
        0. 00 0000 0009 0000:__memmax (REF 0004: LOCALCOMPACT)
    C3B8....50E9....B80600EB:
      2D8C1E....A1....8B1E....A3....891E:
        0. 00 0000 01F9 0022:__fmalloc 0101:__ffree
      2EA1....8B1E....A3....891E....90833E:
        0. 00 0000 01FB 001E:__fmalloc 0103:__ffree
    CBB8....50EA........B80600EB:
      2E8C1E....A1....8B1E....A3....89:
        0. 01 8709 0204 0024:__fmalloc 010A:__ffree
      2FA1....8B1E....A3....891E....90:
        0. 02 1E71 0204 0020:__fmalloc 010A:__ffree
  DB:
    45558BECE8....535250..........0BC074:
      1889460650..........0BD2:
        0. 08 8452 0145 0000:_dos_alloc 0038:_dos_calloc 004B:_dos_free 0074:_dos_setblock 00BB:__copy 00FC:_dos_avail 010C:__dos_blocksize
      1E89460650..........0BD2:
        0. 04 C209 009D 0000:__dos_allocmem 0052:__dos_freemem (0078: C3)
        1. 04 C209 009F 0000:__dos_allocmem 0052:__dos_freemem (0078: E2)
    558BECE8....535250..........0BC074:
      1889460450..........0BD274:
        0. 07 32E0 0135 0000:_dos_alloc 0036:_dos_calloc 0046:_dos_free 006D:_dos_setblock 00B2:__copy 00F1:_dos_avail 00FF:__dos_blocksize
      1E89460450..........0BD274:
        0. 03 791B 0099 0000:__dos_allocmem 0050:__dos_freemem (0075: C3)
        1. 03 791B 009B 0000:__dos_allocmem 0050:__dos_freemem (0075: E2)
  F68BF9F7C7FF7F742881E7807F81FF807F75258BF9F7C740007405BE0800EB:
    0. 4E 7638 006E 0000:fget_dtype_pair
    1. 9E 9B1D 0669 0000:fget_dtype_pair 007E:__FTST@ 0085:__FTST0EXC@ 0088:__FTST0@ 00D4:__FCMPEXC@ 00D8:__FCMP@ 0163:__FSUB@ 0188:__FADD@ 02E5:__FDIV@ 0445:__FMUL@ 0551:__FNEG@ 0555:__INTFLT@ 0564:__UNSFLT@ 056D:__LNGFLT@ 0576:__FLTUNS@ 0590:__FLTINT@ 05BF:__FLTLNG@
    2. 9E F370 0661 0000:fget_dtype_pair 007E:__FTST@ 0085:__FTST0EXC@ 0088:__FTST0@ 00D4:__FCMPEXC@ 00D8:__FCMP@ 0163:__FSUB@ 0188:__FADD@ 02E5:__FDIV@ 0445:__FMUL@ 0551:__FNEG@ 0555:__INTFLT@ 0560:__UNSFLT@ 0567:__LNGFLT@ 056E:__FLTUNS@ 0588:__FLTINT@ 05B7:__FLTLNG@
4000........:
  558BEC5657837E080074258CCAB8....C45E0426895706268947:
    0. 14 2B6F 00E5 0006:??0fstream_common@@IEC@XZ
  ........8CD89045558BEC1E8ED85657837E0A0074278CCAB8:
    0. 00 0000 0103 000A:??0fstream_common@@JEC@XZ
45558BEC:
  06:
    8CDB8EC38B5E088B460626894718268B4704E8....268947080653:
      0. 06 B941 0504 0000:STDIOFONTSET 0089:STDIOCLEAR 00DF:STDIOSET 01DF:STDIOGET 01F5:STDIOHOOKSET 0215:STDIOHOOKGET 022F:STDIORELEASE 04F6:___winc_hook_bdos (04DA: 16)
      1. 06 B941 05ED 0000:STDIOFONTSET 0089:STDIOCLEAR 00DF:STDIOSET 01DF:STDIOGET 01F5:STDIOHOOKSET 0215:STDIOHOOKGET 022F:STDIORELEASE 0470:___wincio_rw 052E:___wincio_rwx (04DA: 53)
      2. 06 B941 060A 0000:STDIOFONTSET 0089:STDIOCLEAR 00DF:STDIOSET 01DF:STDIOGET 01F5:STDIOHOOKSET 0215:STDIOHOOKGET 022F:STDIORELEASE 048C:___wincio_rw 054A:___wincio_rwx (04DA: 3D)
    C45E088B460626894718268B4704E8....26894708065326FF7708:
      0. 02 171A 04EB 0000:STDIOFONTSET 0085:STDIOCLEAR 00D7:STDIOSET 01D3:STDIOGET 01E5:STDIOHOOKSET 0201:STDIOHOOKGET 0217:STDIORELEASE 04DD:___winc_hook_bdos (04C5: 16)
      1. 02 171A 04FB 0000:STDIOFONTSET 0085:STDIOCLEAR 00D7:STDIOSET 01D3:STDIOGET 01E5:STDIOHOOKSET 0201:STDIOHOOKGET 0217:STDIORELEASE 0438:___wincio_rw (04C5: 08)
      2. 02 171A 0517 0000:STDIOFONTSET 0085:STDIOCLEAR 00D7:STDIOSET 01D3:STDIOGET 01E5:STDIOHOOKSET 0201:STDIOHOOKGET 0217:STDIORELEASE 0454:___wincio_rw (04C5: 53)
  1E:
    8B5E0683FB:
      2073:
        2E8B4E0A83F9007422F687....1075491E8E5EFE:
          0. 0A FCCB 01CE 0000:_read 01C0:__readx
        338B4E0A83F9007427F687....14754B1E8E5EFE:
          0. 0A 9A73 0207 0000:_write 01FC:__writex
      2873:
        2E8B4E0A83F9007422F687....1075481E8E5EFE:
          0. 0A 9507 01D2 0000:_read 01C4:__readx
        338B4E0A83F9007427F687....14754E1E8E5EFE:
          0. 0A 14E6 020D 0000:_write 0202:__writex
    B42F..........5306:
      8B560AB41A..........8B56068B4E08B44E:
        0. 00 0000 0060 0000:__dos_findfirst 0027:__dos_findnext (003A: A3)
        1. 00 0000 0063 0000:__dos_findfirst 0027:__dos_findnext (003A: 50)
      BA....B41A..........:
        8B56068B4E08B44E:
          0. 00 0000 0063 0000:_findfirst 0027:_findnext (0042: CB)
          1. 00 0000 0066 0000:_findfirst 0027:_findnext (0042: C0)
        8E5E088B56068B4E:
          0. 03 C243 0069 0000:_findfirst 002A:_findnext (0045: CB)
          1. 03 C243 006C 0000:_findfirst 002A:_findnext (0045: 99)
      C5560CB41A..........C556068B4E0AB44E:
        0. 00 0000 0060 0000:__dos_findfirst 0027:__dos_findnext (003A: A3)
        1. 00 0000 0063 0000:__dos_findfirst 0027:__dos_findnext (003A: 50)
  5657:
    068A4606B435..........8B7608891C8B760A8C04075F5E5D4D:
      0. 13 6685 026D 0000:_int_getvector 0021:_int_setvector 003C:_int_service 00DA:_int_intercept 01A5:_int_restore 0202:_int_on 0204:_int_off 0206:_int_prev
    1E078B3E....:
      0BFF754833F6A1....0BC07511..........8916:
        0. 00 0000 008F 0000:_getenv
      85FF754833F6A1....85C07511..........8916:
        0. 00 0000 008F 0000:_getenv
    833E....00751CA1....:
      0BC07512..........0BD27435A3:
        0. 02 2421 006E 0000:_getenv
      85C07512..........85D27435A3:
        0. 02 2421 006E 0000:_getenv
    8A4606B435..........8CC0C4760826891CC4760C2689045F5E:
      0. 15 F90A 0299 0000:_int_getvector 0023:_int_setvector 003E:_int_service 00E3:_int_intercept 01C8:_int_restore 0231:_int_on 0233:_int_off 0235:_int_prev
    B419..........8AD00441A2....FEC2BE....B447:
      0. 03 4759 007E 0000:_getcwd
      1. 03 5F8E 0072 0000:_getcwd
      2. 03 7665 0083 0000:_getcwd
      3. 03 FF27 0077 0000:_getcwd
  57:
    1EC57E068B158B4D02B42B..........32E41F5F8BE55D4DCB4555:
      0. 05 C0FD 006E 0000:_dos_setdate 001E:_dos_getdate 0038:_dos_settime 0053:_dos_gettime
    33DBB459..........:
      1EC57E068CDA0BD7740A890586FB895D0288:
        0. 07 185D 0027 0000:_dosexterr
      8B7E06:
        0BFF740A890586FB895D02886D045F:
          0. 03 9134 0023 0000:_dosexterr
        85FF740A890586FB895D02886D045F:
          0. 03 9134 0023 0000:_dosexterr
    8B:
      460C8B5E0A8B4E088B56068BF881E7F07F74:
        3681FFF07F744ED1:
          0. 70 E5C9 037B 0000:_frexp 007E:_logb 00F8:_rint 01FF:___flt_rounds 0211:_nextafter
        3781FFF07F744FD1:
          0. 71 2373 037C 0000:_frexp 007F:_logb 00F9:_rint 0200:___flt_rounds 0212:_nextafter
      7E068B158B4D02B42B..........32E45F8BE55D4DCB45558BEC:
        0. 03 7C1A 0069 0000:_dos_setdate 001C:_dos_getdate 0035:_dos_settime 004F:_dos_gettime
    B430..........A3....E8....5F5D4DCB45558BEC8BEC8A4604B4:
      0. 01 1078 00A0 0000:__cinit 0016:__exit 0055:__dodtors 008A:___faterr
    ..........86E0A3....8916....86F28916....:
      8B1E....8B07A3:
        0. 00 0000 00DD 0000:__cinit 0046:__exit 0092:__dodtors 00C7:___faterr
      C41E....C41F89:
        0. 01 8709 00DD 0000:__cinit 0046:__exit 0092:__dodtors 00C7:___faterr
  803E....00:
    7405B80100EB4AB86735..........5657BF0A00BE:
      0. 1E 4F49 0180 0000:_emm_init 0067:_emm_getpagemapsize 009C:_emm_maphandle 00BB:_emm_getunalloc 00D5:_emm_gettotal 00DD:_emm_gethandlecount 00E1:_emm_physpage 0102:_emm_allocpages 0113:_emm_deallocpages 0124:_emm_gethandlepages 0128:_emm_savepagemap 012C:_emm_restorepagemap 0130:_emm_getversion 0136:_emm_gethandlespages 0149:_emm_getpagemap 014E:_emm_setpagemap 0162:_emm_getsetpagemap 0175:_emm_term (011B: 06)
      1. 1E 4F49 017F 0000:_emm_init 0067:_emm_getpagemapsize 009C:_emm_maphandle 00BB:_emm_getunalloc 00D5:_emm_gettotal 00DD:_emm_gethandlecount 00E1:_emm_physpage 0102:_emm_allocpages 0113:_emm_deallocpages 0124:_emm_gethandlepages 0128:_emm_savepagemap 012C:_emm_restorepagemap 0130:_emm_getversion 0136:_emm_gethandlespages 0147:_emm_getpagemap 014C:_emm_setpagemap 0162:_emm_getsetpagemap 0174:_emm_term (011B: E8)
      2. 1E 4F49 016A 0000:_emm_init 0067:_emm_getpagemapsize 0086:_emm_maphandle 00A5:_emm_getunalloc 00BF:_emm_gettotal 00C7:_emm_gethandlecount 00CB:_emm_physpage 00EC:_emm_allocpages 00FD:_emm_deallocpages 010E:_emm_gethandlepages 0112:_emm_savepagemap 0116:_emm_restorepagemap 011A:_emm_getversion 0120:_emm_gethandlespages 0133:_emm_getpagemap 0138:_emm_setpagemap 014C:_emm_getsetpagemap 015F:_emm_term (011B: 76)
      3. 1E 4F49 0169 0000:_emm_init 0067:_emm_getpagemapsize 0086:_emm_maphandle 00A5:_emm_getunalloc 00BF:_emm_gettotal 00C7:_emm_gethandlecount 00CB:_emm_physpage 00EC:_emm_allocpages 00FD:_emm_deallocpages 010E:_emm_gethandlepages 0112:_emm_savepagemap 0116:_emm_restorepagemap 011A:_emm_getversion 0120:_emm_gethandlespages 0131:_emm_getpagemap 0136:_emm_setpagemap 014C:_emm_getsetpagemap 015E:_emm_term (011B: C5)
      4. 1E 9F12 0180 0000:_emm_init 0067:_emm_getpagemapsize 009C:_emm_maphandle 00BB:_emm_getunalloc 00D5:_emm_gettotal 00DD:_emm_gethandlecount 00E1:_emm_physpage 0102:_emm_allocpages 0113:_emm_deallocpages 0124:_emm_gethandlepages 0128:_emm_savepagemap 012C:_emm_restorepagemap 0130:_emm_getversion 0136:_emm_gethandlespages 0149:_emm_getpagemap 014E:_emm_setpagemap 0162:_emm_getsetpagemap 0175:_emm_term (0140: 00)
      5. 1E 9F12 017F 0000:_emm_init 0067:_emm_getpagemapsize 009C:_emm_maphandle 00BB:_emm_getunalloc 00D5:_emm_gettotal 00DD:_emm_gethandlecount 00E1:_emm_physpage 0102:_emm_allocpages 0113:_emm_deallocpages 0124:_emm_gethandlepages 0128:_emm_savepagemap 012C:_emm_restorepagemap 0130:_emm_getversion 0136:_emm_gethandlespages 0147:_emm_getpagemap 014C:_emm_setpagemap 0162:_emm_getsetpagemap 0174:_emm_term (0140: CB)
    7522A1....0B06....740CB8000050FF1E....59EB1190:
      0. 02 9AEC 0033 0000:_kbhit
  83:
    3E....0074219BDF460E9BDD46069BD9FD9BDD5E069BDDD88B460C:
      0. 1B 39D7 00CD 0000:_ldexp
    C4FC568B7606B801005048505056..........83C4088946FE8956:
      0. 13 3900 0057 0000:_filelength
    EC:
      02509BDD7EFE9BDED98326....3F8B46FE0906....9BDD7EFE9B:
        0. 1C 7996 0125 0000:__FCOMPP@ 002E:__FTEST0@ 0053:__FTEST@ 0072:__DTST87@ 007B:__87TOPSW@ 0090:__DBLTO87@ 00A0:__DBLINT87@ 00BD:__DBLLNG87@ 00D5:__FLTTO87@ 00E3:__status87 00F1:__clear87 00FF:__control87 0121:__fpreset
      04:
        8B5E080BDB74088B47048B5706EB0953..........83C40289:
          0. 09 6C6A 009B 0000:_utime (006E: FF)
          1. 09 6C6A 0098 0000:_utime (006E: EC)
        C45E0A8CC00BC3740A268B4704268B5706EB0A5353:
          0. 00 0000 00A8 0000:_utime (0084: FF)
          1. 00 0000 00A5 0000:_utime (0084: EC)
  8A4606:
    8B5E08:
      3C0A74165D4DFF4F0278448BD78B3F8E470CAA893F8B:
        0. 0C 8D8C 00C2 0000:_fputc 0070:_fgetc
      83FB0074493C0A74165D4DFF4F0278488BD78B3F8E47:
        0. 11 76E0 00D7 0000:_fputc 007A:_fgetc
    8CD9C55E08:
      3C0A74155D4DFF4F0478488BD7C43FAA893F8ED9:
        0. 0D C942 00D2 0000:_fputc 007A:_fgetc
      8CDA0BD374533C0A74155D4DFF4F04784C8BD7C4:
        0. 13 2FCE 00E8 0000:_fputc 0084:_fgetc
  8B:
    46:
      06:
        0BC0750BFF7608..........59EB32837E0800750B50:
          0. 00 0000 004B 0000:__nrealloc
        8B5608:
          A3....8916....5D4DCB45558BEC:
            803E....007522A1:
              0. 00 0000 01F2 0000:___redirect_kb 0014:_kbhit 0047:_getch 0075:_getche 00B3:_ungetch 00D9:_dos_set_verify 00EC:_dos_get_verify 00FB:_dos_set_ctrl_break 010E:_dos_get_ctrl_break 0120:_dos_getdiskfreespace 0143:_dos_abs_disk_read 019D:_dos_abs_disk_write 01A1:_chdir 01B9:_mkdir 01BD:_rmdir 01C1:__chdrive 01E2:__getdrive (01D1: CB)
              1. 00 0000 01F4 0000:___redirect_kb 0014:_kbhit 0047:_getch 0075:_getche 00B3:_ungetch 00D9:_dos_set_verify 00EC:_dos_get_verify 00FB:_dos_set_ctrl_break 010E:_dos_get_ctrl_break 0120:_dos_getdiskfreespace 0143:_dos_abs_disk_read 019D:_dos_abs_disk_write 01A1:_chdir 01BB:_mkdir 01BF:_rmdir 01C3:__chdrive 01E4:__getdrive (01D1: 5D)
            A1....0B06....74:
              0. 07 1C5B 019D 0000:___redirect_kb 0014:_kbhit 003A:_getch 0057:_getche 0084:_dos_set_verify 0097:_dos_get_verify 00A6:_dos_set_ctrl_break 00B9:_dos_get_ctrl_break 00CB:_dos_getdiskfreespace 00EE:_dos_abs_disk_read 0148:_dos_abs_disk_write 014C:_chdir 0164:_mkdir 0168:_rmdir 016C:__chdrive 018D:__getdrive (0175: CB)
              1. 07 1C5B 019F 0000:___redirect_kb 0014:_kbhit 003A:_getch 0057:_getche 0084:_dos_set_verify 0097:_dos_get_verify 00A6:_dos_set_ctrl_break 00B9:_dos_get_ctrl_break 00CB:_dos_getdiskfreespace 00EE:_dos_abs_disk_read 0148:_dos_abs_disk_write 014C:_chdir 0166:_mkdir 016A:_rmdir 016E:__chdrive 018F:__getdrive (0175: 5D)
            ..........803E:
              0. 00 0000 01CA 0000:___redirect_kb 0014:_getch 0042:_getche 0080:_ungetch 00A6:_dos_set_verify 00B9:_dos_get_verify 00C8:_dos_set_ctrl_break 00DB:_dos_get_ctrl_break 00ED:_dos_getdiskfreespace 0110:_dos_abs_disk_read 016B:_dos_abs_disk_write 016F:_chdir 0191:_mkdir 0195:_rmdir 0199:__chdrive 01BA:__getdrive (01A9: CB)
              1. 00 0000 01CC 0000:___redirect_kb 0014:_getch 0042:_getche 0080:_ungetch 00A6:_dos_set_verify 00B9:_dos_get_verify 00C8:_dos_set_ctrl_break 00DB:_dos_get_ctrl_break 00ED:_dos_getdiskfreespace 0110:_dos_abs_disk_read 016B:_dos_abs_disk_write 016F:_chdir 0193:_mkdir 0197:_rmdir 019B:__chdrive 01BC:__getdrive (01A9: 5D)
          BF....EB0383C7:
            0881FF....73183B550275F28B1D3B:
              0. 16 4B7B 0036 0000:___eh_finddata
            0A81FF....73183B550275F28B1D3B:
              0. 16 119B 0036 0000:___eh_finddata
        F76608050F0083D200D1FAD1D8D1FAD1D8D1FAD1D8D1FAD1D8:
          0. 14 A8CA 0041 0000:__fcalloc
      08:
        0B4606750CFF760A..........595D4DCB837E0A007514FF76:
          0. 04 D71E 0047 0000:__frealloc
        F766060BC0742050B9FFFF51..........58B960005150:
          0. 00 0000 0031 0000:__ncalloc
    4E0633C0CD31730333C0485D4DCB45558BECB802008B5E06EBEA45:
      0. FF A6D1 0361 0000:_dpmi_AllocLDTDescriptors 0013:_dpmi_SegToDescriptor 001F:_dpmi_GetNextDescriptorIncremen 0028:_dpmi_SetDescriptorRights 0034:_dpmi_CreateCodeSegAlias 003D:_dpmi_GetDescriptor 005F:_dpmi_SetDescriptor 0068:_dpmi_AllocThisLDTDescriptor 0071:_dpmi_DOSAlloc 0096:_dpmi_DOSFree 00A9:_dpmi_DOSRealloc 00BC:_dpmi_GetRealModeVector 00CF:_dpmi_SetRealModeVector 00E7:_dpmi_GetExceptionHandler 00F0:_dpmi_SetExceptionHandler 00F9:_dpmi_GetProtectedModeVector 0102:_dpmi_SetProtectedModeVector 010B:_dpmi_SimRealModeInterrupt 0126:_dpmi_CallRealModeProcWithFarRe 0133:_dpmi_CallRealModeProcWithIRet 013E:_dpmi_RealModeCallBackAlloc 0162:_dpmi_RealModeCallBackFree 0172:_dpmi_GetStateSaveRestoreInfo 01A6:_dpmi_GetRawModeSwitchInfo 01D3:_dpmi_GetVersionInfo 01FF:_dpmi_GetFreeMemInfo 020B:_dpmi_MemBlockAlloc 023F:_dpmi_MemBlockFree 024F:_dpmi_MemBlockRealloc 0263:_dpmi_LockLinearRegion 0279:_dpmi_UnlockLinearRegion 0282:_dpmi_UnlockRealModeRegion 028B:_dpmi_LockRealModeRegion 0294:_dpmi_IsPageSize 02AC:_dpmi_MarkAsDemandPage 02B5:_dpmi_DiscardPage 02BE:_dpmi_IsLinearAddress 02E2:_dpmi_DisableVirtualInterruptSt 02EC:_dpmi_EnableVirtualInterruptSta 02F6:_dpmi_IsVirtualInterruptState 0300:_dpmi_GetVendorAPI 0323:_dpmi_SetDebugWatchPoint 0343:_dpmi_ClearDebugWatchPoint 034D:_dpmi_IsDebugWatchPointState 0357:_dpmi_ResetDebugWatchPoint
    5E:
      06:
        83FB:
          2073:
            298B4E0C83F900741DF687....1075441EC5560883:
              0. 06 22EB 01BA 0000:_read
            2E8B4E0C83F9007422F687....1475461EC5560883:
              0. 06 2530 01F3 0000:_write
          2873:
            298B4E0C83F900741DF687....1075431EC5560883:
              0. 06 4604 01BE 0000:_read
            2E8B4E0C83F9007422F687....1475491EC5560883:
              0. 06 CAC6 01F9 0000:_write
        8B56088B4E0A8A460CB442..........730A50..........B8:
          0. 06 0E1A 0026 0000:_lseek
        B445..........73:
          05A3....1BC05D4DCB45558BEC8B5E068B:
            0. 04 D5F8 002D 0000:_dup 0018:_dup2
          0950..........B8FFFF5D4DCB45558BEC:
            0. 08 5BCA 0034 0000:_dup 001C:_dup2
        B8:
          0044..........8AC2988AC45D4DCB45558BECB43D8A46:
            08:
              0. 03 9701 0330 0000:_isatty 0017:_dos_open 0053:_dos_close 0080:_open 0190:_sopen 01C5:_creat 01DC:_dos_creat 0247:_close 025D:_rename 026D:_remove 0291:__dos_sethandlecount 02A4:_filesize 02F4:_access
            0A:
              0. 04 0B40 033A 0000:_isatty 0017:_dos_open 0055:_dos_close 0084:_open 0194:_sopen 01C9:_creat 01E0:_dos_creat 024F:_close 0265:_rename 0271:_remove 0297:__dos_sethandlecount 02AA:_filesize 02FC:_access
          0600CD31730433C98BD18BC28BD15D4DCB45558BECB80100:
            0. 31 C4D2 0051 0000:_dpmi_GetBaseAddress 0019:_dpmi_FreeDescriptor 0022:_dpmi_SetSegLimit 002B:_dpmi_SetBaseAddress 0045:_dpmi_IsRealMode
      088B460683FB017404F7E372275050..........5B8BE5:
        0BD274:
          0. 20 ADC9 0040 0000:__fcalloc
        85D274:
          0. 20 ADC9 0040 0000:__fcalloc
  9BDD46069BD9FA83EC089BDD7EF89B8B46F8253F000906....9BDD5E:
    0. 71 A2F0 03C1 0000:__sqrt87 0029:__poly87 005D:__chop87 0061:__floor87 0065:__ceil87 0093:__fmod87 00C4:__atan287 015E:__asincos87 01AB:_trigerr 01D9:__sincostan87 0313:__log87 0318:__log1087 032C:__exp87 033E:__pow87 (02C8: FE)
    1. 71 A2F0 035C 0000:__sqrt87 0029:__poly87 005D:__chop87 0061:__floor87 0065:__ceil87 0093:__fmod87 00B6:__atan287 0123:__asincos87 0170:_trigerr 019E:__sincostan87 02BC:__log87 02C1:__log1087 02D5:__exp87 02E7:__pow87 (02C8: E9)
    2. 76 A5E3 03C6 0000:__sqrt87 0029:__poly87 0062:__chop87 0066:__floor87 006A:__ceil87 0098:__fmod87 00C9:__atan287 0163:__asincos87 01B0:_trigerr 01DE:__sincostan87 0318:__log87 031D:__log1087 0331:__exp87 0343:__pow87 (02C8: FE)
    3. 76 A5E3 0361 0000:__sqrt87 0029:__poly87 0062:__chop87 0066:__floor87 006A:__ceil87 0098:__fmod87 00BB:__atan287 0128:__asincos87 0175:_trigerr 01A3:__sincostan87 02C1:__log87 02C6:__log1087 02DA:__exp87 02EC:__pow87 (02C8: E9)
  B4:
    19..........32E440:
      8B5E0689075D4DCB45558BEC8B56064AB40E:
        0. 00 0000 00A7 0000:_dos_getdrive 0016:_dos_setdrive 002C:_dos_getftime 004C:_dos_setftime 006C:_dos_getfileattr 008F:_dos_setfileattr (007B: 08)
        1. 00 0000 00A1 0000:_dos_getdrive 0016:_dos_setdrive 002C:_dos_getftime 004C:_dos_setftime 0069:_dos_getfileattr 0089:_dos_setfileattr (007B: 72)
      C45E062689075D4DCB45558BEC8B56064AB4:
        0. 01 0619 00AF 0000:_dos_getdrive 0017:_dos_setdrive 002D:_dos_getftime 004F:_dos_setftime 006F:_dos_getfileattr 0095:_dos_setfileattr (0087: 1F)
        1. 01 0619 00A9 0000:_dos_getdrive 0017:_dos_setdrive 002D:_dos_getftime 004F:_dos_setftime 006C:_dos_getfileattr 008F:_dos_setfileattr (0087: E3)
    2C..........:
      5D4D5252BB3C008AC3F6E532ED03C1F7E35B8ADF32:
        0. 29 9B22 0067 0000:_clock
        1. 1D CD44 005B 0000:_clock
      8AC5BB3C00F6E332ED03C18ACEF7E303C112D55250:
        0. 02 11DC 007C 0000:_time (0059: CB)
        1. 02 11DC 007E 0000:_time (0059: 5D)
  CD115D4DCB45558BECCD125D4DCB45558BEC8A6606:
    1EC55E0880FC01:
      0. 50 5412 0070 0000:__bios_equiplist 0009:__bios_memsize 0012:__bios_timeofday 0036:__bios_disk
    8B5E0880FC0175:
      0. 4D FD46 006D 0000:__bios_equiplist 0009:__bios_memsize 0012:__bios_timeofday 0034:__bios_disk
  DBE3B91400E2FED93E....B90A00E2FE33DBA1....80E40F80FC0375:
    0. 04 BFE0 007A 0000:__8087_init
  E461508B5E0624FCE6618B4E08E2FE0C02E6618B4E0AE2FE4B75EB58:
    0. 0C C927 004D 0000:_sound_tone 0025:_sound_beep 0034:_sound_click
4A0000000600........:
  558BEC83EC0256578CCAB8....C45E04268957462689:
    0. 05 84FD 016B 0002:??_8ifstream@@7Fistream@@@ 000A:??1ifstream@@UEC@XZ (REF 0060: ??1istream@@UEC@XZ)
    1. 05 84FD 016B 0002:??_8ofstream@@7Fostream@@@ 000A:??1ofstream@@UEC@XZ (REF 0060: ??1ostream@@UEC@XZ)
  ........8CD89045558BEC1E8ED883EC0256578CCAB8:
    0. 00 0000 01A8 0002:??_8ifstream@@7Fistream@@@ 000E:??1ifstream@@VEC@XZ (REF 006B: ??1istream@@VEC@XZ)
    1. 00 0000 01A8 0002:??_8ofstream@@7Fostream@@@ 000E:??1ofstream@@VEC@XZ (REF 006B: ??1ostream@@VEC@XZ)
50:
  515253545556571E068BEC1EB8....8ED8FCFF:
    16....09C0750731C050E8:
      0. 00 0000 0074 002F:_ctrlbrk 0059:_getcbrk 0063:_setcbrk
    1E....09C0750931C050:
      0. 00 0000 009E 0031:_ctrlbrk 006D:_getcbrk 0084:_setcbrk
  53:
    51558BEC8B4610350007A900070F85....C1E80B250F008BD880BF....00:
      0. 02 A34E 056C 01AE:_frem_chk 01D8:_drem_chk 0202:_fprem_chk 02A2:_lrem_chk 0464:_frem1_chk 048E:_drem1_chk 04B8:_fprem1_chk 0558:_lrem1_chk
    525583EC248BECDB7E0CDB7E008B5E0603DB0F83....8B461203C00F83:
      0. 00 0000 01BA 0000:fatan_chk (0199: CB)
      1. 00 0000 01BE 0000:fatan_chk (0199: 5D)
54000000100000000600........:
  558BEC83EC0256578CCAB8....C45E042689:
    0. 09 B98A 0186 0002:??_8fstream@@7Fiostream@@@ 0006:??_8fstream@@7Fostream@@@ 000E:??1fstream@@UEC@XZ
  ........8CD89045558BEC1E8ED883EC0256:
    0. 04 BFD9 01C5 0002:??_8fstream@@7Fiostream@@@ 0006:??_8fstream@@7Fostream@@@ 0012:??1fstream@@VEC@XZ
55:
  5083EC148BECDB7E008B460825FF7F0F84....3DFF7F0F84....8B460603C0:
    0. 02 1C3A 00A8 0000:fptan_chk
  8BEC:
    06:
      50515253565736A10A008D36....8C540289048D36....8C540236A1:
        0. 0B A7D7 004C 0000:__ptrchk
        1. 0B D1EE 004A 0000:__ptrchk
      8CDB8EC38B5E068B460426894718268B4704E8....26894708065326:
        0. 05 DBE4 04E1 0000:STDIOFONTSET 0087:STDIOCLEAR 00DB:STDIOSET 01D9:STDIOGET 01ED:STDIOHOOKSET 0204:STDIOHOOKGET 0218:STDIORELEASE 04D3:___winc_hook_bdos (04BB: C3)
        1. 05 DBE4 05BD 0000:STDIOFONTSET 0087:STDIOCLEAR 00DB:STDIOSET 01D9:STDIOGET 01ED:STDIOHOOKSET 0204:STDIOHOOKGET 0218:STDIORELEASE 0454:___wincio_rw 0508:___wincio_rwx (04BB: 50)
        2. 05 DBE4 05D9 0000:STDIOFONTSET 0087:STDIOCLEAR 00DB:STDIOSET 01D9:STDIOGET 01ED:STDIOHOOKSET 0204:STDIOHOOKGET 0218:STDIORELEASE 046F:___wincio_rw 0523:___wincio_rwx (04BB: FF)
      C45E068B460426894718268B4704E8....26894708065326FF77081E:
        0. 01 A9EA 04C8 0000:STDIOFONTSET 0083:STDIOCLEAR 00D3:STDIOSET 01CD:STDIOGET 01DD:STDIOHOOKSET 01F0:STDIOHOOKGET 0200:STDIORELEASE 04BA:___winc_hook_bdos (04A3: 16)
        1. 01 A9EA 04D6 0000:STDIOFONTSET 0083:STDIOCLEAR 00D3:STDIOSET 01CD:STDIOGET 01DD:STDIOHOOKSET 01F0:STDIOHOOKGET 0200:STDIORELEASE 041D:___wincio_rw (04A3: 8B)
        2. 01 A9EA 04F1 0000:STDIOFONTSET 0083:STDIOCLEAR 00D3:STDIOSET 01CD:STDIOGET 01DD:STDIOHOOKSET 01F0:STDIOHOOKGET 0200:STDIORELEASE 0438:___wincio_rw (04A3: 53)
    168D46:
      0650FF7604E8....83C4068B56088B46065DC3:
        0. 00 0000 0019 0000:_biostime
      085066FF7604:
        1E68....68....68....E8....8BE55DC3:
          0. 00 0000 001D 0000:_scanf
        666A0068....E8....8BE55DC3:
          0. 00 0000 0019 0000:_disp_printf
        E8....8BE55DC3:
          0. 00 0000 0013 0000:_printf
      0A50FF7608FF7606FF7604E8....83C40A5DC3558BECFF7604FF:
        0. 0F 0757 029B 0000:_spawnl 0019:_spawnv 0033:_FORKV 022D:_execl 0243:_execv (017D: 0C)
        1. 0F 0757 01AD 0000:_spawnlp 0019:_spawnvp 017E:_execlp 0194:_execvp (017D: C3)
      0C50:
        66FF7608:
          168D46045068....68....E8....8BE55DC3:
            0. 00 0000 001E 0000:_sscanf
          66FF7604:
            68....68....E8....8BE55DC3:
              0. 00 0000 001D 0000:_fscanf
            E8....8BE55DC3:
              0. 00 0000 0017 0000:_sprintf (REF 0011: _vsprintf)
              1. 00 0000 0017 0000:_fprintf (REF 0011: _vfprintf)
        FF760AFF7608FF7606FF7604:
          B8....50B8....50E8....83:
            0. 14 AEAE 0792 0000:_fscanf 0024:_scanf 0092:_sscanf (075D: 00) (REF 0555: .)
            1. 14 AEAE 079D 0000:_fscanf 0024:_scanf 0092:_sscanf (075D: 8B) (REF 055D: .)
          E8....83C40C5DC3558BECFF:
            0. 12 D197 07C0 0000:_fprintf 001C:_vfprintf 003D:_printf 0053:_vprintf 00AA:_sprintf 00C6:_vsprintf 013D:__snprintf 015C:__vsnprintf 01C3:__pformat 0796:__DOSIGN (078D: 00) (REF 02F3: .)
            1. 12 D197 082C 0000:_fprintf 001C:_vfprintf 003D:_printf 0053:_vprintf 00AA:_sprintf 00C6:_vsprintf 013D:__snprintf 015C:__vsnprintf 01C3:__pformat 0802:__DOSIGN (078D: F6) (REF 02F5: .)
      0E5066FF760AFF760866FF7604E8....8BE55DC3:
        0. 00 0000 001A 0000:__snprintf
    1E:
      68....:
        1E68....1E68....1E68....6A00E8....8BE55DC3:
          0. 00 0000 001C 0000:_winio_doabout
        8B46044050..........5DC3:
          0. 00 0000 0013 (l)0000:_exit_exit
        E8....:
          1E68....E8....8BE55DC20400:
            0. 00 0000 0017 0000:?flush_stdio@ostream@@AECXXZ
          8BE55DC3:
            0. 00 0000 000E 0000:_getchar (REF 0005: __iob)
            1. 00 0000 000E 0000:__fpurecall (REF 0008: ___faterr)
        FF7604E8....8BE55DC3:
          0. 00 0000 0011 0000:_putchar
      8B:
        46:
          043DFF007204B0FF8BD8837E:
            06FF750833D2528B5606EB04C556:
              0. 04 0FC2 0033 0000:_country
            08FF750833D2528B5608EB04C556:
              0. 04 4D6C 0033 0000:_country
          063DFF007204B0FF8BD8837E:
            08FF750833D2528B5608EB04C556:
              0. 04 4D6C 0033 0000:_country
            0AFF750833D2528B560AEB04C556:
              0. 04 3B55 0033 0000:_country
        5E0483FB:
          2073:
            2D8B4E0883F9007421F687....1075481E8E5EFE8B:
              0. 09 BC79 01CA 0000:_read 01BD:__readx
            328B4E0883F9007426F687....1475481E8E5EFE8B:
              0. 09 BBA2 01FF 0000:_write 01F5:__writex
          2873:
            2D8B4E0883F9007421F687....1075451E8E5EFE8B:
              0. 09 D896 01CA 0000:_read 01BD:__readx
            328B4E0883F9007426F687....1475471E8E5EFE8B:
              0. 09 6274 01FD 0000:_write 01F3:__writex
      B4:
        1AC55604CD211F5DC3:
          0. 00 0000 000E 0000:_setdta
        2F..........5306:
          8B5608B41A..........8B56048B4E06B44E:
            0. 00 0000 005D 0000:__dos_findfirst 0026:__dos_findnext (003C: C3)
            1. 00 0000 005E 0000:__dos_findfirst 0026:__dos_findnext (003C: 5D)
          BA....B41A..........:
            8B56048B4E06B44E:
              0. 00 0000 0060 0000:_findfirst 0026:_findnext (003F: C3)
              1. 00 0000 0061 0000:_findfirst 0026:_findnext (003F: 5D)
            8E5E068B56048B4E08:
              0. 02 33F9 0066 0000:_findfirst 0029:_findnext (0043: C3)
              1. 02 33F9 0067 0000:_findfirst 0029:_findnext (0043: 5D)
          C5560AB41A..........C556048B4E08B44E:
            0. 00 0000 005D 0000:__dos_findfirst 0026:__dos_findnext (003C: C3)
            1. 00 0000 005E 0000:__dos_findfirst 0026:__dos_findnext (003C: 5D)
      C5:
        5604B80043CD211BD28BC11F8BE55DC20400558BEC83EC04C746FC:
          0. 71 E58B 05FD (l)0000:GetFileAttr (l)0017:Ver3IToA (l)005E:@FileErrFlag (l)0077:VerCreateFile (l)00A8:VerDelFile (l)00D1:VerClose (l)00E2:VerRename (l)0103:MyGetFileVersionInfo 0163:VERINSTALLFILE (056B: 00)
          1. 71 E58B 0619 (l)0000:GetFileAttr (l)0017:Ver3IToA (l)005E:@FileErrFlag (l)0077:VerCreateFile (l)00A8:VerDelFile (l)00D1:VerClose (l)00E2:VerRename (l)0103:MyGetFileVersionInfo 0169:VERINSTALLFILE (056B: 50)
          2. 71 E58B 0645 (l)0000:GetFileAttr (l)0017:Ver3IToA (l)005E:@FileErrFlag (l)0077:VerCreateFile (l)00A8:VerDelFile (l)00D1:VerClose (l)00E2:VerRename (l)0103:MyGetFileVersionInfo 0173:VERINSTALLFILE (056B: FC)
          3. 71 E58B 0661 (l)0000:GetFileAttr (l)0017:Ver3IToA (l)005E:@FileErrFlag (l)0077:VerCreateFile (l)00A8:VerDelFile (l)00D1:VerClose (l)00E2:VerRename (l)0103:MyGetFileVersionInfo 0179:VERINSTALLFILE (056B: 0D)
        5E:
          048C078C4F028C5704588947068ED85DC3558BEC56571E1EC55E:
            0. 13 45FF 0158 0000:_segread 0017:_intdos 003F:_intdosx 0074:_int86 00D7:_int86x 0125:_bdosptr 0141:_bdosx (0118: 46)
            1. 13 45FF 0154 0000:_segread 0017:_intdos 003F:_intdosx 0074:_int86 00D8:_int86x 0126:_bdosptr 013D:_bdosx (0118: 04)
          068C078C4F028C5704588947068ED85DCB45558BEC56571E1EC5:
            0. 14 0FA8 0160 0000:_segread 0017:_intdos 0040:_intdosx 0076:_int86 00DB:_int86x 012A:_bdosptr 0148:_bdosx (0129: 1F)
            1. 14 0FA8 015E 0000:_segread 0017:_intdos 0040:_intdosx 0076:_int86 00DE:_int86x 012D:_bdosptr 0146:_bdosx (0129: E3)
      FF7604:
        FF7606..........5DC3:
          0. 00 0000 0011 0000:_longjmp
        ..........5DC3:
          0. 00 0000 000E 0000:__setjmp (REF 0008: CATCH)
    31:
      C0:
        39460474108B5E0438077409837E060119C024FE405DC3:
          0. 00 0000 001C 0000:_mblen
        50:
          1EB8....50FF760AFF7608FF7606FF7604FF760CFF7610FF760E:
            0. 07 CA18 0AC8 0000:_ecvt 002B:_fcvt 033E:_gcvt 04C3:___floatfmt 0871:__SCANFLOAT (0A9E: C2) (REF 0A0A: .)
            1. 07 CA18 0AEB 0000:_ecvt 002B:_fcvt 033E:_gcvt 04C3:___floatfmt 0871:__SCANFLOAT (0A9E: E8) (REF 0A2D: .)
          50:
            50FF7606FF7604E8....8B560A8B4608C45E042689572A2689:
              0. 05 54F3 0249 0000:??0stdiobuf@@QEC@PEU_iobuf@@@Z 004A:??_7stdiobuf@@6F@ 005C:??1stdiobuf@@UEC@XZ 00A9:?underflow@stdiobuf@@UECHXZ 018C:?overflow@stdiobuf@@UECHH@Z 01BE:?pbackfail@stdiobuf@@UECHH@Z
            FF7606FF76041EB8....501EB8....501EB8....50E8....83:
              0. 08 FF8B 002F 0000:_system
          B8....50FF760AFF7608FF7606FF7604FF760CFF760EFF7610E8:
            0. 00 0000 0990 0000:_ecvt 0024:_fcvt 02D2:_gcvt 0402:___floatfmt 0764:__SCANFLOAT (096E: 02) (REF 08EE: .)
            1. 00 0000 09B1 0000:_ecvt 0024:_fcvt 02D2:_gcvt 0402:___floatfmt 0764:__SCANFLOAT (096E: E8) (REF 090F: .)
          FF76:
            04:
              B8....50B8....50B8....50E8....595031C050E8:
                0. 05 6023 0025 0000:_system
              E8....8B46045DC3:
                0. 00 0000 0011 0000:?ends@@YAAAVostream@@AAV1@@Z (REF 000A: ?put@ostream@@QACAAV1@D@Z)
                1. 00 0000 0011 0000:?ws@@YAAAVistream@@AAV1@@Z (REF 000A: ?ipfx@istream@@QACHH@Z)
            06FF7604E8....8B56068B46045DC3:
              0. 00 0000 0017 0000:?ends@@YAAEVostream@@AEV1@@Z (REF 000D: ?put@ostream@@QECAEV1@D@Z)
              1. 00 0000 0017 0000:?ws@@YAAEVistream@@AEV1@@Z (REF 000D: ?ipfx@istream@@QECHH@Z)
          ..........31C050FF7606FF76041EB8....50B8102050:
            0. 00 0000 0026 0000:MESSAGEFATALERROR
        5D:
          C2:
            0200:
              0. 00 0000 0009 (!)0000:?
            0400:
              0. 00 0000 0009 (!)0000:?
          C3:
            0. 00 0000 0007 0000:__fheapmin
        A3....A3....5DC3:
          0. 00 0000 000D (l)0000:UM_INIT
        BA:
          C07F5DC3:
            0. 00 0000 000A 0000:_nanf
          C17F5DC3:
            0. 00 0000 000A 0000:_nansf
        C45E0426:
          88472426884725:
            8CCAB8....2689570226890731C05050:
              0. 08 D12F 0074 0000:??0streambuf@@QEC@XZ
            BA....B8....26895702268907666A00:
              0. 0A 596E 006D 0000:??0streambuf@@QEC@XZ
          894728268947102689470C26C7470E00016626C7471211:
            0. 2E D353 004E 0000:?init@ios@@IECXPEVstreambuf@@@Z
      C9:
        837E040074128B5E04803F00740A837E0600740341EB01498BC15D:
          0. 9D E9A1 00BD 0000:_mblen 0021:_mbtowc 0050:_wctomb 006A:_mbstowcs 0094:_wcstombs
        8B46:
          060B460474:
            12C45E0426380F740A837E080119C980E1FE418B:
              0. 03 9201 0023 0000:_mblen
            13C45E0426803F00740A837E0800740341EB0149:
              0. AF 62E2 00CF 0000:_mblen 0024:_mbtowc 005D:_wctomb 007A:_mbstowcs 00A5:_wcstombs
          0A0B460874278B46060B4604740DC45E08268A0798C45E0426:
            0. 18 88E7 0038 0000:_mbtowc
        C45E0426380F741B4166FF7604E8....83C4048EC289C3895E048C:
          0. 0C 9FEF 002C (?)0000:__mbslen
    50:
      168D46FE50:
        66FF76:
          0866FF7604E8....8BE55DC3:
            0. 00 0000 0018 0000:_remainderf
          1066FF760C66FF760866FF7604E8....8BE55DC3:
            0. 00 0000 0020 0000:_remainder
        8B46044050E8....83C4068B46FE8BE55DC3:
          0. 00 0000 001B 0000:_setdisk
        E8....83C4048B46FE488BE55DC3:
          0. 00 0000 0017 0000:_getdisk
      56:
        57:
          1EC57604:
            8B5E088B4E0A01CE4E89F78CD88EC031D230E4FDACF6:
              0. 1B ADC1 003B 0000:?div@_2Comp@@CAHPEEHH@Z
            FC8CD88EC031DB88D88B4E10C47E08F3AAAC08C0742B:
              0. 75 77A8 0095 0000:?xlate@_2Comp@@CAHPEDPEEHHH@Z
          6A:
            00FF76:
              04E8....85C0744D8B5E048B77028B740203F38B4404:
                0. 18 39DC 006A 0000:??5istream@@QACAAV0@AAD@Z
              06FF7604E8....85C0746AC45E0426C47704268B4402:
                0. 31 DBA9 008D 0000:??5istream@@QECAEV0@AED@Z
            01FF76:
              04E8....85C074528B5E048B77028B740203F38B4404:
                0. 4F 77ED 006F 0000:?peek@istream@@QACHXZ
              06FF7604E8....85C0746DC45E0426C47704268B4402:
                0. 6D 91C5 008D 0000:?peek@istream@@QECHXZ
          83:
            3E....00:
              7403E8....833E....007406E8....E8....B9:
                0. 02 A942 008E (l)0000:?push_exception@@YAPAUEhstack@@PBDP6CHXZIUlargeprimtype@@@Z
              7553BF....BE....FF3457E8....83C40485C07546:
                0. 05 7849 0071 0000:__STI_setlc
            7E:
              080074:
                20BA....B8....C45E042689570626894704666A00:
                  0. 0A DCB7 00BA 0000:??0istream_withassign@@QEC@XZ (REF 000D: ??_8istream_withassign@@7F@)
                  1. 0A DCB7 00BA 0000:??0ostream_withassign@@QEC@XZ (REF 000D: ??_8ostream_withassign@@7F@)
                2EBA....B8....C45E042689570626894704BA:
                  0. 01 BBC9 00D6 0000:??0iostream_withassign@@QEC@XZ
                34BA....B8....C45E042689570626894704BA:
                  0. 01 BBC9 00F3 0000:??0ifstream@@QEC@XZ (REF 000D: ??_8ifstream@@7F@)
                  1. 01 BBC9 00F3 0000:??0ofstream@@QEC@XZ (REF 000D: ??_8ofstream@@7F@)
                42BA....B8....C45E042689570626894704BA:
                  0. 01 BBC9 010F 0000:??0fstream@@QEC@XZ
              0C00740F8B5E04C74702....83C30653E8....8B5E0483C3:
                0. 0C 0218 0080 0000:??0istream@@QAC@PAVstreambuf@@HPAVostream@@@Z
          8B:
            3E....A1....8946FE:
              666A0066FF7604E8....893E....8B76:
                0. 03 8255 002E 0000:_atof
              6A00FF7604E8....893E....8B76FE89:
                0. 01 CDA4 002C 0000:_atof
            4E068BD9C60725C746FE00008B76048B7C028B7D0203FEF645:
              0. 5A 2110 00E2 (l)0000:?intformat@@YAXAAVostream@@PADHH@Z
            5E04:
              83C3028B378B7402037604F7440AFFFE895EFE740E6A01:
                0. 04 2B63 00C8 0000:?eatwhite@@YAXAAVistream@@@Z (REF 00BD: .)
              8B:
                078946FE8B5EFEFF46FE8A079889C783C7BF85FF7805:
                  0. 11 4B33 005D (l)0000:UM_CALLING_CONVENTION
                  1. 11 5497 005F (l)0000:UM_CALLING_CONVENTION
                3F68....:
                  E8....89C683C402E9A50056E8....31F683:
                    0. 4A C36F 00E0 (l)0000:UM_STRING (REF 00AD: .)
                  ..........89C683C402E9AA0056:
                    0. 00 0000 00E7 (l)0000:UM_STRING (REF 00B4: .)
                77028B740203F3:
                  83:
                    7C0A00740C6A0053E8....85C074:
                      0. 59 0AFC 008C 0000:??5istream@@QACAAV0@AAD@Z
                    C60C803C0074138A040C029889C1:
                      0. 20 B1E8 010D 0000:?ipfx@istream@@QACHH@Z (REF 00A1: .)
                  8B440489C68B4C123B4C147210508B:
                    0. 32 9F6D 005F 0000:?do_get@istream@@AACDXZ
            76:
              04:
                31FF:
                  47744385F675014656E8....83C40285C08946FE75:
                    0. 03 3B3E 005A 0000:?__do_newalloc@@YAPAXI@Z
                  897EFE8B4E08FF4E0885C9743B56E8....89C7FF76:
                    0. 02 D130 005E 0000:__mbsnbcmp
                56E8....:
                  83C4028946FE83F8087209B801005F5E8BE55D:
                    0. 08 2A3A 0097 0000:_raise (006E: C3)
                    1. 08 2A3A 0098 0000:_raise (006E: 5D)
                  89C783C402FF7606E8....83C40285C08946FE:
                    0. 0A AADB 007C 0000:__mbsstr
                8B:
                  441C85C07502B0108946FE8B4C1685C9740C995250FF:
                    0. 0C 9776 006C 0000:?doallocate@strstreambuf@@UACHXZ
                  46088B7E0A85C07E078BCF03C8894EFE85C07907C746:
                    0. 0B 4AE7 00CC 0000:?buffer_setup@strstreambuf@@AACXPADH0@Z
                  5E068B4E0801CE4E89F78CD88EC031D230E4FDACF6F3:
                    0. 19 4374 0039 0000:?div@_2Comp@@CAHPAEHH@Z
                  7E:
                    0685FF740485F67507C746FE0000EB:
                      3357E8....83:
                        0. 05 E4FF 0064 (l)0000:STR_CAT
                      3D57:
                        0. 00 0000 0072 (l)0000:STR_CAT
                    0831C9884C12884C13C704....894C06894C08894C:
                      0. 22 4C2C 006C 0000:??0streambuf@@QAC@PADH@Z
                    0A56E8....837E080475418BC62D....B90E0099F7:
                      0. 02 FAF3 00AF 0000:_setvbuf
                  FE68....E8....83C4028946FEB9FFFF3BC174313BC1:
                    0. 10 6B7E 0059 0000:_gets
                FC8CD88EC031DB88D88B4E0C8B7E06F3AAAC08C0742950:
                  0. 6F 0C96 008F 0000:?xlate@_2Comp@@CAHPADPAEHHH@Z
              068B7E0A8B5E088B07F7E703C68946FE3BC6761D56FF7604:
                0. 21 E97A 0041 0000:__lfind
              0C8B7E0EFF7606FF7604E8....83FE0475528B4604BB:
                0. 09 2E73 00B2 0000:_setvbuf
            7E:
              04:
                31F68976FE8B4E08FF4E0885C9742A57E8....89C6FF76:
                  0. 02 D130 004D 0000:__mbsncmp
                57E8....85C0750A8BC75F5E8BE55DC204006A0CFF7606:
                  0. 01 3E9B 0080 0000:??6ostream@@QACAAV0@PBD@Z
                897EFE57E8....83C40289C603F74E3BF776168A0C300D:
                  0. 1B D782 003B 0000:_strrev
                8B:
                  0E....894EFE893E....8B36....833E....00740D8B:
                    0. 13 F53D 0068 (l)0000:?set_nh@@YAP6AHI@ZP6AHI@ZH@Z
                  4D148B55123BCA760689CE2BF2EB0231F685F67E1156:
                    0. 05 C89A 00A4 0000:?xsgetn@streambuf@@UACHPADH@Z
                  5D08895EFE01DB8BB7....0375064E8B450A056C07B9:
                    0. 1C CD92 003C (l)0000:_CALC_YDAY
                  5E06:
                    368B078946FE85FF7907F7DFB82D00EB03B82B00:
                      0. 54 C49D 0074 (l)0000:__DOEXPONENT
                    8B078946FE85FF7907F7DFB82D00EB03B82B008B:
                      0. 4E 6944 006E (l)0000:__DOEXPONENT
                  750E8B4D0C2BF185F67E1156FF760851E8....017608:
                    0. 83 7098 00A3 0000:?xsputn@streambuf@@UACHPBDH@Z
                  7606897EFE8BD6803D0074:
                    29803C00742457E8....83:
                      0. 05 E4FF 005C 0000:__mbsspn
                    39803C00742457E8....83:
                      0. 05 E4FF 005A 0000:__mbscspn
                  F7:
                    803D0074248A058946FE9889C3F687....:
                      0174098B:
                        0. 1C 1BA6 003C 0000:_strlwr (REF 001A: .)
                      0274098B:
                        0. 1C EE1E 003C 0000:_strupr (REF 001A: .)
                    833E....007503E8....C41E....268B5734268B47:
                      0. 0A 0AAE 0095 0000:_gets
              0A837E0C0074:
                148B5E04C74702....C74726....83C32853:
                  0. 01 3E9B 0087 0000:??0ostrstream@@QAC@PADHH@Z
                198B5E04C74702....C74726....C7472C:
                  0. 00 0000 0091 0000:??0strstream@@QAC@PADHH@Z
          C4:
            1E....268B7720268B7F1E268B4F1C894EFEFF76:
              06E8....FF:
                0. 06 198E 00AA 0000:_addchars
              08E8....FF:
                0. 07 77E1 00AB 0000:_addchars
            5E:
              04268B:
                472E260B472C740BB8FFFF5F5E8BE55DC20600C45E:
                  0. 6D 8CD8 008D 0000:?pbackfail@stdiobuf@@UECHH@Z
                77088976FE01F68BBC....26037F064F268B470A05:
                  0. 1F 1781 003F (l)0000:_CALC_YDAY
              0826C60725C746FE0000C4760426C47C04268B4502C47E04:
                0. 7C 17D9 011A (l)0000:?intformat@@YAXAEVostream@@PEDHH@Z
          FF7606FF7604E8....85C0750E8B56068B46045F5E8BE55DC208:
            0. 0A D384 00B5 0000:??6ostream@@QECAEV0@PFD@Z
        6A008B56068B460483C0:
          0A5250E8....C746FE00008A46FEC45E04:
            0. 18 2A1C 0038 0000:?unfreeze@ostrstream@@QECXXZ
          145250E8....C746FE00008A46FEC45E04:
            0. 18 2A1C 0038 0000:?unfreeze@strstream@@QECXXZ
        837E:
          060074:
            118B5E04C74702....6A0083C30853E8....6A00FF76:
              0. 02 6103 0059 0000:??0istream_withassign@@QAC@XZ (REF 0011: ??_8istream_withassign@@7B@)
              1. 02 6103 0059 0000:??0ostream_withassign@@QAC@XZ (REF 0011: ??_8ostream_withassign@@7B@)
            168B5E04C74702....C74708....6A0083C30E53E8:
              0. 00 0000 0063 0000:??0iostream_withassign@@QAC@XZ
            1B8B5E04C74702....C7472C....83C304538B460483:
              0. 04 18F9 006F 0000:??0ifstream@@QAC@XZ (REF 0011: ??_8ifstream@@7B@)
              1. 04 18F9 006F 0000:??0ofstream@@QAC@XZ (REF 0011: ??_8ofstream@@7B@)
            208B5E04C74702....C7472C....C74732....83C304:
              0. 09 78D9 0079 0000:??0fstream@@QAC@XZ
          0800740F8B5E04C74702....83C30453E8....8B5E048B7702:
            0. 08 3052 0067 0000:??0ostream@@QAC@H@Z
          0A00740F8B5E04C74702....83C30453E8....8B5E048B7702:
            0. 08 3052 006D 0000:??0ostream@@QAC@HPAD@Z
        8B:
          460830E4C45E0483C30C268B0F81E180000BC12689078C46FEC4:
            0. 28 2248 0048 0000:?clear@ios@@QECXH@Z
          5E:
            04:
              8B078946FE:
                31F689C3803F4074:
                  118B5EFE803F00751B56E8:
                    0. 00 0000 0067 (l)0000:UM_SCOPE
                  138B5EFE803F00751D56:
                    0. 00 0000 0069 (l)0000:UM_SCOPE
                89C3803F5875:
                  1068....E8....89C6FF46FE83:
                    0. 0D 6547 00A8 (l)0000:UM_ARGUMENT_TYPES
                  1268..............89C6FF46:
                    0. 0F 7878 00B0 (l)0000:UM_ARGUMENT_TYPES
              F6471880B800087502B4048946FE50E8....83C40289C685:
                0. 1A 6E35 0046 0000:?doallocate@filebuf@@MACHXZ
            06F647070274156A02666A00FF7708E8....8B5E06806707FD:
              0. 3A B614 015C 0000:__flushbu
          76:
            04:
              1E8BC6C1E00405....50E8....83C40485C0752C6A0066FF:
                0. 04 B9D7 0057 0000:_chsize
              56E8....83C40283FAFF752983F8FF752468000156E8:
                0. 10 18CE 0045 0000:_creatnew
              8BC66BC80E81C1....51E8....83C40285C0752B6A0066FF:
                0. 04 B9D7 0056 0000:_chsize
              A1....8946FE56..........85C0750731C05E8BE55DC389:
                0. 01 CDA4 0049 0000:_winio_setcurrent
            06:
              837E0400750FFF760856E8....83C4045E8BE55DC3E8:
                0. 07 9430 0050 0000:__getdcwd
              8A46088846FEC646FF008D46FE5056E8....89C68A460488:
                0. 08 4A3D 0031 (l)0000:STR_BRACKET
        C45E0426C47704268B4402C4760403F083C614268A040C01988946:
          0. 12 27AA 003B 0000:?str@ostrstream@@QECPEDXZ
          1. 12 C4C7 003B 0000:?str@strstream@@QECPEDXZ
        FF76:
          04E8....8B5E04C707....:
            8B4606894716:
              680404E8....83C4:
                0. 13 01A1 0059 0000:??0stdiobuf@@QAC@PAU_iobuf@@@Z
              B8010089471AC747:
                0. 0F B072 006C 0000:??0filebuf@@QAC@H@Z
            C74716FFFF31C089471889471A66:
              0. 0B 62C9 0068 0000:??0filebuf@@QAC@XZ
          06FF7604E8....8946FE83F8FF7519BA0300C45E0426C47704:
            0. 25 6213 0045 (?)0000:?get@istream@@QECAEV1@AED@Z
      578B7E04:
        57E8....8946FE83F8FF7510B903008B5D028B5F0203DF88:
          0. 15 5639 0035 0000:?get@istream@@QACAAV1@AAD@Z
        6A008D45:
          0650E8....C746FE00008A46FE8B5D028B5F0203:
            0. 0B FA5E 002B 0000:?unfreeze@ostrstream@@QACXXZ
          0C50E8....C746FE00008A46FE8B5D028B5F0203:
            0. 0B FA5E 002B 0000:?unfreeze@strstream@@QACXXZ
        8B5D028B5F0203DF83C30C8A070C01988946FE8A46FE8807:
          0. 05 A45C 002E 0000:?str@strstream@@QACPADXZ
          1. 05 DE2F 002E 0000:?str@ostrstream@@QACPADXZ
        8D5D16B8FFFF3907895EFE75098B4E08890F3BC8750931C0:
          0. 10 4AD2 007A 0000:?attach@filebuf@@QACPAV1@HH@Z
      66FF760866FF36....1E68....68....68....168D46FE50FF7606FF:
        0. 03 EB9C 0031 0000:??5istream@@QECAEV0@AEN@Z
      83:
        3E....00:
          7406FF16....EB03E8....A1....8946FE8D46FE50E8:
            0. 00 0000 0025 0000:?unexpected@@YAXXZ
          75:
            03E9F700FF36....1E68..............A1....C1F8:
              0. 04 A23A 0178 0000:_new_rect
            06C706........813E........731AA1....01C08946:
              0. 03 52E2 0074 0000:_exit_PUSHSTATE
        7E0400750EFF760A66FF7606E8....8BE55DC3E8....8946FEFF76:
          0. 02 6103 0055 0000:__getdcwd
      8A46:
        048846FEC646FF00:
          66FF7606168D46FE50E8....8BE55DC20600:
            0. 00 0000 0020 (l)0000:STR_CATC
          FF76068D46FE50E8....8BE55DC20400:
            0. 00 0000 001E (l)0000:STR_CATC
        0A8846FEC646FF00168D46FE5066FF7606E8....895608894606:
          0. 0E AEF6 0036 (l)0000:STR_BRACKET
      8B5E068B078946FE8D46FE50FF7604E8....83C40485C0750F8B46FE:
        0. 13 6772 0033 0000:_allocmem
      8D46FE50:
        66FF76:
          0866FF7604E8....8BE55DC3:
            0. 00 0000 0017 0000:_remainderf
          1066FF760C66FF760866FF7604E8....8BE55DC3:
            0. 00 0000 001F 0000:_remainder
        8B46044050E8....83C4048B46FE8BE55DC3:
          0. 00 0000 001A 0000:_setdisk
        E8....83C4028B46FE488BE55DC3:
          0. 00 0000 0016 0000:_getdisk
      A1....0B06....750AC706........8C1E....B8....3B06....7622:
        0. 01 FB44 0093 0000:_exit_PUSHSTATE
      C45E06268B078946FE168D46FE50FF7604E8....83C40685C075108B:
        0. 16 1BF2 0036 0000:_allocmem
      FF76:
        04E8....83C4028846FE30E4B9FFFF3BC17428FF7604E8....83:
          0. 27 01A2 0047 0000:_getw
        06:
          E8....83C4028946FE3D00107207B8FFFF8BE55DC38B46FEC1:
            0. 06 F312 0026 0000:__fmsize
          FF:
            36....68....68....68....8D46FE50FF7604E8....8B46:
              0. 07 E840 0027 0000:??5istream@@QACAAV0@AAN@Z
            7604E8....83C404:
              83FAFF753283F8FF752D680001FF7606:
                0. 04 2B63 004E 0000:_creatnew
              8846FE30E4B9FFFF3BC1742BFF7606FF:
                0. 03 EB9C 004D 0000:_getw
              8946FE83F8FF7507A1....8BE55DC38B:
                0. 0D ADB4 002D 0000:__dos_open (REF 000B: _dos_open)
                1. 0D ADB4 002D 0000:__dos_creat (REF 000B: _dos_creat)
        0866FF7604E8....83C4068946FE83F8FF7507A1....8BE55DC3:
          0. 0F F3B4 002F 0000:__dos_open (REF 000C: _dos_open)
          1. 0F F3B4 002F 0000:__dos_creat (REF 000C: _dos_creat)
    56:
      1EC576:
        04C45E088B4E0CE32DB441B65AAC268A17433AC27505E2F5EB:
          0. 2D B1AC 004D 0000:_memicmp
        06C45E0A8B4E0EE32DB441B65AAC268A17433AC27505E2F5EB:
          0. 2D 539C 004D 0000:_memicmp
      31:
        C08B5E043907740B89DE83C60240833C0075F75E5DC3:
          0. 00 0000 001B 0000:_wcslen
        F6:
          8B46060B4604750BE8....:
            09C0787931F6EB75C45E04268A470A:
              0. 27 68B7 0093 0000:_fflush
            3BC6787331F6EB6FC45E04268A470A:
              0. 27 5BC7 008D 0000:_fflush
          C45E04268A079850E8....83C40285C0740FC45E04FF4604268A:
            0. 13 1125 0033 0000:__tcsnextc
          C706....010066FF761466FF761066FF760CFF760AFF760866FF:
            0. 03 EB9C 0120 0000:_fnsplit
      57:
        068A4604B435..........8B7606891C8B76088C04075F5E5DC355:
          0. 10 71D2 0251 0000:_int_getvector 001F:_int_setvector 0038:_int_service 00D6:_int_intercept 0191:_int_restore 01E8:_int_on 01EA:_int_off 01EC:_int_prev
        1E:
          078B3E....:
            0BFF754633F6A1....0BC07511..........8916:
              0. 00 0000 0083 0000:_getenv
            85FF754633F6A1....85C07511..........8916:
              0. 00 0000 0083 0000:_getenv
          8B4604D1E0D1E0D1E0D1E005....50E8....83C40409C07407B8:
            0. 17 27E5 008F 0000:_chsize 005B:_chmod
          8E5E:
            048B76068E46088B7E0A8B4E0CD1E9F3A5D1D1F3A41F5F5E:
              0. 02 5F98 0022 0000:_movedata
            068B76088E460A8B7E0C8B4E0ED1E9F3A5D1D1F3A41F5F5E:
              0. 02 1714 0022 0000:_movedata
          B43D8A46:
            04C55606CD217302F7D81F5F5E8BE55DC20600558BEC:
              0. 56 C1C1 0076 0000:FILEOPEN 001D:FILECLOSE 0031:FILEREAD 0052:FILESEEK
            06C55608CD217302F7D81F5F5E8BE55DCA0600558BEC:
              0. 56 7087 0076 0000:FILEOPEN 001D:FILECLOSE 0031:FILEREAD 0052:FILESEEK
          C47E:
            048BDF33C0B9FFFFF2AE4F8BD7C47E08B9FFFFF2AEF7D149:
              0. 23 5F74 0043 0000:_strncat
            068BDF33C0B9FFFFF2AE4F8BD7C47E0AB9FFFFF2AEF7D149:
              0. 23 ADD9 0043 0000:_strncat
          C5:
            5604B80043..........721980E1FE89CB8A4E08D0E119C941:
              0. 05 CFBA 003E 0000:_chmod
            76:
              04:
                AC3C2074FB3C0972093C0D76F33C2B7501AC8B5E0C:
                  0BDB:
                    0. 9B 274D 00E1 0000:_strtoul
                  85DB:
                    0. 9E FD38 00E2 0000:_strtoul
                C47E088A460CB429CD211F3DFF00750731C0995F5E5DC3:
                  0. 0D 58AA 002D 0000:_parsfnm
              06AC3C2074FB3C0972093C0D76F33C2B7501AC8B5E0E:
                0BDB:
                  0. 9B AE8E 00E1 0000:_strtoul
                85DB:
                  0. 9D 9F73 00E4 0000:_strtoul
        31:
          C0C45E042689470826C47704268B4C02C4760403F12639441075:
            0. 3A 1317 00C4 0000:?do_ipfx@istream@@IECHH@Z
          FF:
            89FE8B4E0CFF4E0C85C974:
              3FFF7606FF7604E8....89C6FF76:
                0. 05 8AB5 005A 0000:__mbsncmp
              4EFF7606FF7604E8....89C666FF:
                0. 03 4B35 0069 0000:__mbsnbcmp
            BE....:
              8BC62D....B90E0099F7F989C301DB83BF....007408:
                0. 02 26E3 0037 0000:__rmtmp
              F644:
                0683740856E8....4783C40283C60E81FE....72:
                  0. 07 F2DF 0027 0000:_flushall (REF 0012: _fflush)
                  1. 07 F2DF 0027 0000:_fcloseall (REF 0012: _fclose)
                0A8374091E56E8....4783C40483C61081FE:
                  0. 08 32CC 0028 0000:_flushall (REF 0013: _fflush)
                  1. 08 32CC 0028 0000:_fcloseall (REF 0013: _fclose)
        66:
          680000F03F666A008B56068B4604E8....50535152E8....E8:
            0. 00 0000 0028 0000:_atanf
          FF76:
            04E8....89C683C40466FF7608E8....83C40489C785FF74:
              0. 0C E000 0092 0000:__mbsstr
            088B56068B4604E8....50535152E8....E8....83C40C5F:
              0. 03 2CC2 0023 0000:_frexpf
        68:
          0010E8....89C68D4E0A51FF760856E8....6A001E561EFF7606:
            0. 08 30FE 0044 0000:_winio_warn
          ....E8....:
            83C40289C685F6750F68....E8....83C40289C685:
              0. 05 B78F 0045 0000:_tab_sizegetenv
            89C683C402837E0400751B6A0056E8....83C40485:
              0. 0B FA1F 0054 0000:_system
        6A01FF76:
          04E8....85C074508B5E048B77028B740203F38B440489:
            0. 17 07B6 0072 0000:?get@istream@@QACHXZ
          06FF7604E8....85C0746DC45E0426C47704268B4402C4:
            0. 30 5D82 0093 0000:?get@istream@@QECHXZ
        83:
          3E....00:
            74:
              208B56068B4604E8....50535152E8....E8....8B:
                0. 0D 3530 00A6 0000:_modff
              22:
                66FF760866FF7604E8....C4760C268944062689:
                  0. 0F 88FE 00C2 0000:_modf
                8B56068B4604E8....50535152E8....E8....C4:
                  0. 0F 5DF5 00AC 0000:_modff
              23E8....8B0E....81E13F000BC1A3....6A006A00:
                0. 01 3E9B 0040 0000:_fegetenv (001C: 5E)
                1. 01 3E9B 003E 0000:_fegetenv (001C: C3)
            751CA1....:
              0BC07512..........0BD27435A3....89:
                0. 01 CF85 0064 0000:_getenv
              85C07512..........85D27435A3....89:
                0. 01 CF85 0064 0000:_getenv
          7E:
            060074:
              128B5E04C74702....31C05083C30653E8....8B5E04:
                0. 13 1CA4 0041 0000:??0istream@@IAC@XZ
                1. 0E 62EC 003C 0000:??0ostream@@IAC@XZ
              168B5E04C74702....83C304538B460483C02A50E8:
                0. 00 0000 0089 0000:??0fstream_common@@IAC@XZ
              178B5E04C74702....C74708....31C05083C30C53E8:
                0. 00 0000 005C 0000:??0iostream@@IAC@XZ
            080074:
              128B5E04C74702....FF760683C3:
                0653E8....8B5E04:
                  0. 13 1CA4 0041 0000:??0istream@@QAC@PAVstreambuf@@@Z
                  1. 0E 62EC 003C 0000:??0ostream@@QAC@PAVstreambuf@@@Z
                0853E8....31C050:
                  0. 04 2B63 00E1 0000:??0istream_withassign@@QAC@PAVstreambuf@@@Z 004A:??1istream_withassign@@UAC@XZ (REF 0024: ??0istream@@IAC@XZ)
                  1. 04 2B63 00E1 0000:??0ostream_withassign@@QAC@PAVstreambuf@@@Z 004A:??1ostream_withassign@@UAC@XZ (REF 0024: ??0ostream@@IAC@XZ)
              178B5E04C74702....C74708....FF760683C3:
                0C53E8:
                  0. 00 0000 005C 0000:??0iostream@@QAC@PAVstreambuf@@@Z
                0E53E8:
                  0. 00 0000 00F9 0000:??0iostream_withassign@@QAC@PAVstreambuf@@@Z 0054:??1iostream_withassign@@UAC@XZ
              1DBA....B8....C45E0426895706268947048CC289D8:
                0. 06 0BE0 00B8 0000:??0strstreambase@@IEC@XZ
                1. 06 7A2D 00B8 0000:??0fstreambase@@QEC@XZ
              208CCAB8....C45E04268957062689470431C050508C:
                0. 09 9A55 0066 0000:??0ostream@@IEC@XZ (003C: 00)
                1. 09 9A55 006A 0000:??0istream@@IEC@XZ (003C: 5E)
              2D8CCAB8....C45E0426895706268947048CCAB8:
                0. 16 C086 009B 0000:??0iostream@@IEC@XZ
            0A0074:
              168B5E04C74702....83C306538B460483C02450E8:
                0. 00 0000 045A 0000:??0istrstream@@QAC@PADH@Z 005C:??1istrstream@@UAC@XZ 00CC:??0ostrstream@@QAC@XZ 0123:??0ostrstream@@QAC@PADHH@Z 019A:??1ostrstream@@UAC@XZ 020A:?str@ostrstream@@QACPADXZ 0240:?unfreeze@ostrstream@@QACXXZ 0275:??0strstream@@QAC@XZ 02D6:??0strstream@@QAC@PADHH@Z 0371:??1strstream@@UAC@XZ 03EF:?str@strstream@@QACPADXZ 0425:?unfreeze@strstream@@QACXXZ
              1B8B5E04C74702....C7472C....83C304538B460483:
                0. 04 18F9 006A 0000:??0ifstream@@QAC@HH@Z (REF 0011: ??_8ifstream@@7B@)
                1. 04 18F9 006A 0000:??0ofstream@@QAC@HH@Z (REF 0011: ??_8ofstream@@7B@)
              1DBA....B8....C45E0426895706268947048CC289D8:
                0. 06 7A2D 00BA 0000:??0fstreambase@@QEC@H@Z
              208B5E04C74702....C7472C....C74732....83C304:
                0. 09 78D9 0074 0000:??0fstream@@QAC@HH@Z
            0C0074:
              1B8B5E04C74702....C7472C....83C304538B460483:
                0. 04 18F9 006D 0000:??0ifstream@@QAC@PBDHH@Z (REF 0011: ??_8ifstream@@7B@)
                1. 04 18F9 006D 0000:??0ofstream@@QAC@PBDHH@Z (REF 0011: ??_8ofstream@@7B@)
              1DBA....B8....C45E0426895706268947048CC289D8:
                0. 06 15DE 0097 0000:??0ostream@@QEC@PEVstreambuf@@@Z
                1. 06 63E7 009F 0000:??0istream@@QEC@PEVstreambuf@@@Z
              208B5E04C74702....C7472C....C74732....83C304:
                0. 09 78D9 0077 0000:??0fstream@@QAC@PBDHH@Z
              228CCAB8....C45E042689570626894704FF760AFF76:
                0. 0B 402C 0068 0000:??0ostream@@QEC@PEVstreambuf@@@Z (003C: 00)
                1. 0B 402C 006C 0000:??0istream@@QEC@PEVstreambuf@@@Z (003C: 5E)
                2. 0B DA67 016F 0000:??0ostream_withassign@@QEC@PEVstreambuf@@@Z 0078:??_7ostream_withassign@@6F@ 007A:??_7ostream_withassign@@6Fios@@@ 007C:??_8ostream_withassign@@7F@ 0080:??1ostream_withassign@@UEC@XZ (REF 0037: ??0ostream@@IEC@XZ)
                3. 0B DA67 016F 0000:??0istream_withassign@@QEC@PEVstreambuf@@@Z 0078:??_7istream_withassign@@6F@ 007A:??_7istream_withassign@@6Fios@@@ 007C:??_8istream_withassign@@7F@ 0080:??1istream_withassign@@UEC@XZ (REF 0037: ??0istream@@IEC@XZ)
              2BBA....B8....C45E042689570626894704BA....B8:
                0. 00 0000 00E9 0000:??0iostream@@QEC@PEVstreambuf@@@Z
              2F8CCAB8....C45E0426895706268947048CCAB8:
                0. 18 BC48 009D 0000:??0iostream@@QEC@PEVstreambuf@@@Z
                1. 18 CA71 01A9 0000:??0iostream_withassign@@QEC@PEVstreambuf@@@Z 0092:??_7iostream_withassign@@6F@ 0094:??_7iostream_withassign@@6Fios@@@ 0096:??_7iostream_withassign@@6Fostream@@@ 0098:??_8iostream_withassign@@7F@ 009C:??_8iostream_withassign@@7Fostream@@@ 00A0:??1iostream_withassign@@UEC@XZ
              328CCAB8....C45E0426895706268947048CCAB8:
                0. 1B C06B 00AE 0000:??0ifstream@@QEC@HH@Z (REF 000E: ??_8ifstream@@7F@)
                1. 1B C06B 00AE 0000:??0ofstream@@QEC@HH@Z (REF 000E: ??_8ofstream@@7F@)
              3F8CCAB8....C45E0426895706268947048CCAB8:
                0. 0B BEF2 00C8 0000:??0fstream@@QEC@HH@Z
            0E0074:
              1B8B5E04C74702....C7472C....83C304538B460483:
                0. 04 18F9 0080 0000:??0ifstream@@QAC@HPADHH@Z (REF 0011: ??_8ifstream@@7B@)
                1. 04 18F9 0080 0000:??0ofstream@@QAC@HPADHH@Z (REF 0011: ??_8ofstream@@7B@)
              208B5E04C74702....C7472C....C74732....83C304:
                0. 09 78D9 008A 0000:??0fstream@@QAC@HPADHH@Z
              258CCAB8....C45E0426895706268947048CC289D883:
                0. 0E 6665 0688 0000:??0istrstream@@QEC@PEDH@Z 0092:??_7istrstream@@6F@ 0094:??_7istrstream@@6Fios@@@ 0096:??_8istrstream@@7F@ 009A:??1istrstream@@UEC@XZ 0141:??0ostrstream@@QEC@XZ 01CA:??0ostrstream@@QEC@PEDHH@Z 027E:??_7ostrstream@@6F@ 0280:??_7ostrstream@@6Fios@@@ 0282:??_8ostrstream@@7F@ 0286:??1ostrstream@@UEC@XZ 032D:?str@ostrstream@@QECPEDXZ 0372:?unfreeze@ostrstream@@QECXXZ 03B3:??0strstream@@QEC@XZ 0454:??0strstream@@QEC@PEDHH@Z 0538:??_7strstream@@6F@ 053A:??_7strstream@@6Fios@@@ 053C:??_7strstream@@6Fostream@@@ 053E:??_8strstream@@7F@ 0542:??_8strstream@@7Fostream@@@ 0546:??1strstream@@UEC@XZ 0602:?str@strstream@@QECPEDXZ 0647:?unfreeze@strstream@@QECXXZ
            100074:
              1DBA....B8....C45E0426895706268947048CC289D8:
                0. 06 7A2D 00C8 0000:??0fstreambase@@QEC@PFDHH@Z (0096: 00)
                1. 06 7A2D 00C2 0000:??0fstreambase@@QEC@HPEDH@Z (0096: 04)
              328CCAB8....C45E0426895706268947048CCAB8:
                0. 1B C06B 00B4 0000:??0ifstream@@QEC@PFDHH@Z (REF 000E: ??_8ifstream@@7F@)
                1. 1B C06B 00B4 0000:??0ofstream@@QEC@PFDHH@Z (REF 000E: ??_8ofstream@@7F@)
              3F8CCAB8....C45E0426895706268947048CCAB8:
                0. 0B BEF2 00CE 0000:??0fstream@@QEC@PFDHH@Z
            120074:
              1DBA....B8....C45E0426895706268947048CC289D8:
                0. 06 0BE0 00C2 0000:??0strstreambase@@IEC@PEDH0@Z
              328CCAB8....C45E0426895706268947048CCAB8:
                0. 1B C06B 00C8 0000:??0ifstream@@QEC@HPEDHH@Z (REF 000E: ??_8ifstream@@7F@)
                1. 1B C06B 00C8 0000:??0ofstream@@QEC@HPEDHH@Z (REF 000E: ??_8ofstream@@7F@)
              34BA....B8....C45E042689570626894704BA....B8:
                0. 00 0000 00FB 0000:??0ifstream@@QEC@HPEDHH@Z (REF 000C: ??_8ifstream@@7F@)
                1. 00 0000 00FB 0000:??0ofstream@@QEC@HPEDHH@Z (REF 000C: ??_8ofstream@@7F@)
              3F8CCAB8....C45E0426895706268947048CCAB8:
                0. 0B BEF2 00E2 0000:??0fstream@@QEC@HPEDHH@Z
              42BA....B8....C45E042689570626894704BA....B8:
                0. 00 0000 0117 0000:??0fstream@@QEC@HPEDHH@Z
        8A4604B435..........8CC0C4760626891CC4760A2689045F5E5D:
          0. 12 EB63 027C 0000:_int_getvector 0021:_int_setvector 003A:_int_service 00DF:_int_intercept 01B3:_int_restore 0216:_int_on 0218:_int_off 021A:_int_prev
        8B:
          16....A1....:
            8B4E068B5E0483C304C4760426C47C0426035D02:
              0. 13 9EB1 0033 0000:?spacing@@YAAEVostream@@AEV1@@Z (REF 0007: ?spacing@ios@@2JF)
              1. 13 9EB1 0033 0000:?stickywidth@@YAAEVostream@@AEV1@@Z (REF 0007: ?stickywidth@ios@@2JF)
            F7D2F7D08B4E068B5E0483C304C4760426C47C04:
              0. 17 C53A 0037 0000:?nospacing@@YAAEVostream@@AEV1@@Z
          46:
            04:
              8B:
                76068BFE8BD8803F007423803C0074148A0C8BD83A0F75:
                  0. 1D DF61 003D 0000:_strpbrk
                D88B77028B7C0203FB83C7028065:
                  06F1804D06:
                    0289D85F:
                      0. 03 2CC2 0023 0000:?leftjust@@YAAAVostream@@AAV1@@Z
                    0489D85F:
                      0. 03 2CC2 0023 0000:?rightjust@@YAAAVostream@@AAV1@@Z
                    0889D85F:
                      0. 03 2CC2 0023 0000:?internal@@YAAAVostream@@AAV1@@Z
                  07E7804D07:
                    0889D85F:
                      0. 03 2CC2 0023 0000:?scientific@@YAAAVostream@@AAV1@@Z
                    1089D85F:
                      0. 03 2CC2 0023 0000:?fixed@@YAAAVostream@@AAV1@@Z
              B90E00F7E105....50E8....5909C07407B8FFFF5F5E5DC3:
                0. 11 B365 0086 0000:_chsize 0054:_chmod
            06:
              0B46047508C74604....8C5E06803E....00750AFE06:
                0. 01 FB44 0230 0000:_tmpnam 008D:_tmpfile 00DC:_tempnam
              C1E00250E8....83C40289C685F674458B5E04837F200074:
                0. 0D 3CD0 0063 0000:?usersize@ios@@AACXH@Z
            0A8B5E088B4E068B5604BE03008BF881E7F07F742981FFF07F:
              0. 3A B214 005A 0000:___fpclassify_d
            0C8B5E0A8B4E088B5606BE03008BF881E7F07F742981FFF07F:
              0. 3A 5239 005A 0000:___fpclassify_d
          4E:
            04:
              31C08BD98B77083B770A73108D7F0A803C0A750140468B0D:
                0. 0A CF69 002A 0000:?newlines@filebuf@@AACHXZ
              6B:
                C10605....8CD9890E....A3....8B5606C1E208895606:
                  0. 13 F245 00E3 0000:_disp_box
                C90681C1....890E....8B5606C1E20889560689CB8A0F:
                  0. 0C 3470 00D7 0000:_disp_box
              8B:
                C183C0028BD98B7702034402:
                  89C68B54088B7C0681E7:
                    F1:
                      0. 11 4854 0031 0000:?internal@@YAAAVostream@@AAV1@@Z
                      1. 11 9248 0031 0000:?rightjust@@YAAAVostream@@AAV1@@Z
                      2. 11 FF46 0031 0000:?leftjust@@YAAAVostream@@AAV1@@Z
                    FF:
                      0. 11 6269 0031 0000:?fixed@@YAAAVostream@@AAV1@@Z
                      1. 11 DA1E 0031 0000:?scientific@@YAAAVostream@@AAV1@@Z
                  8B16....8B36....:
                    89C709:
                      0. 0B F211 002B 0000:?spacing@@YAAAVostream@@AAV1@@Z (REF 0017: ?spacing@ios@@2JB)
                      1. 0B F211 002B 0000:?stickywidth@@YAAAVostream@@AAV1@@Z (REF 0017: ?stickywidth@ios@@2JB)
                    F7D2F7:
                      0. 0F 9410 002F 0000:?nospacing@@YAAAVostream@@AAV1@@Z
                F983C7028BD98B7702037C0280:
                  4D:
                    068089D85F5E5DC3:
                      0. 00 0000 001F 0000:?showbase@@YAAAVostream@@AAV1@@Z
                    07:
                      0189D85F5E5DC3:
                        0. 00 0000 001F 0000:?showpoint@@YAAAVostream@@AAV1@@Z
                      0289D85F5E5DC3:
                        0. 00 0000 001F 0000:?uppercase@@YAAAVostream@@AAV1@@Z
                  6507E2806508FF89D85F:
                    0. 03 2CC2 0023 0000:?floating@@YAAAVostream@@AAV1@@Z
            06:
              31FF8BF18BD98A079883F82B740C83F82D740D83F830740E:
                0. 03 151D 0060 0000:?printint@ostream@@AACXPBD@Z
              8B76048CD88EC0BF....1E8ED9A5A5A5A5A51F833E....00:
                0. 07 B4DD 0033 0000:_fesetenv
              B45B8B5604..........730650E8....EB078B7E08890531:
                0. 05 0FE7 0025 0000:__dos_creatnew
            08:
              83F921723C83F928773789CBC1E3028BB7....8BBF....81:
                0. 0F 2035 0050 0000:_winio_wmkeydown
              8B7E068B7604D1E9D1E9743F8A158A043AC2755584C0744C:
                0. 59 14B9 0079 0000:_strncmp
              8CD88EC08B7E:
                048B76068BC785C974223BF7741E8BDE7706:
                  0. 50 9C0E 0070 0000:_memcpy
                068B76048BC68BD123C7A8017405A6752849:
                  0. 2F 5162 004F 0000:_memcmp
              B45B1EC55604..........1F730650E8....EB08C47E0A26:
                0. 08 B2FF 0028 0000:__dos_creatnew
            0A:
              8B7E088B7606D1E9D1E9743F8A158A043AC2755584C0744C:
                0. 59 D365 0079 0000:_strncmp
              8CD88EC08B7E:
                068B76088BC785C974223BF7741E8BDE7706:
                  0. 50 7C23 0070 0000:_memcpy
                088B76068BC68BD123C7A8017405A6752849:
                  0. 2F 19EE 004F 0000:_memcmp
            0C:
              1EC47E:
                04C576088BC785C9742A8CDB8CC23BDA750E3BF774:
                  0. 58 946D 0078 0000:_memcpy
                08C576048BC68BD123C7A8017405A6752A494AD1E9:
                  0. 2F 946A 004F 0000:_memcmp
              8CDBC47E08C57604D1E9D1E97443268A158A043AC2755984:
                0. 62 E9D5 0082 0000:_strncmp
              C45E0826:
                8A17C47604268A04C47E08268805C45E04268817:
                  0. 0F 6922 002F (l)0000:CSWAP
                8B17C47604268B04C47E08268905C45E04268917:
                  0. 12 85B4 0032 (l)0000:ISWAP
              D1E976:
                71D1E18B46088B560A8BD80BDA740FA801755F0BD2:
                  0. 0B 22FB 00DD 0000:__beginthread 0088:threadstart 00D1:__endthread
                74D1E18B46088B560A8BD80BDA740FA80175620BD2:
                  0. 0B 4652 00EA 0000:__beginthread 008B:threadstart 00DE:__endthread
            0E:
              1EC47E:
                06C5760A8BC785C9742A8CDB8CC23BDA750E3BF774:
                  0. 58 7440 0078 0000:_memcpy
                0AC576068BC68BD123C7A8017405A6752A494AD1E9:
                  0. 2F DCE6 004F 0000:_memcmp
              8CDBC47E0AC57606D1E9D1E97443268A158A043AC2755984:
                0. 62 7DCC 0082 0000:_strncmp
              D1E976:
                75D1E18B460A8B560C8BD80BDA740FA80175630BD2:
                  0. 0A 3EFF 00E7 0000:__beginthread 008E:threadstart 00DB:__endthread
                78D1E18B460A8B560C8BD80BDA740FA80175660BD2:
                  0. 0A 15DC 00F4 0000:__beginthread 0091:threadstart 00E8:__endthread
          56:
            04:
              8B7E0685D27503E8....85FF7503E8....8BDA8BB7F00089:
                0. 3F 9832 005F (l)0000:?pop_exception@@YAPAUEhstack@@PAUStaticvar@@PAU1@@Z
              B80043..........721980E1FE89CB8A4E06D0E119C94109:
                0. 04 02D8 003B 0000:_chmod
            068B4604E8....:
              50535152E8....:
                83C408E8....:
                  5F5E5DC355:
                    0. 13 A1C0 02C4 0000:_sqrtf 001F:_sqrt 0278:_hypot (028F: 5D)
                    1. 13 A1C0 02C3 0000:_sqrtf 001F:_sqrt 0277:_hypot (028F: C3)
                    2. 13 E764 033D 0000:_tanf 001F:_tan (0309: C3)
                    3. 13 E764 033F 0000:_tanf 001F:_tan (0309: E5)
                  8956068946:
                    0. 04 D800 02E4 0000:_expm1f 0058:_expm1 00AF:_expf 00CE:_exp (02BD: E5)
                    1. 04 D800 02E2 0000:_expm1f 0058:_expm1 00AF:_expf 00CE:_exp (02BD: C3)
                E8....:
                  83C4085F5E5DC3:
                    0. 00 0000 001F 0000:_tanhf (REF 0013: _tanh)
                    1. 00 0000 001F 0000:_sqrtf (REF 0013: _sqrt)
                    2. 00 0000 001F 0000:_tanf (REF 0013: _tan)
                    3. 00 0000 001F 0000:_expf (REF 0013: _exp)
                  89560689460483C4:
                    0. 04 EC97 0058 0000:_expm1f
              83FE00741183FE03750883CA40830E....01:
                0. 66 13E4 0244 0000:_rintf 00DD:___fpclassify_f 012A:_nextafterf
                1. 66 6748 0244 0000:_rintf 00DD:___fpclassify_f 012A:_nextafterf
            088B4606E8....83FE00741183FE03750883CA40830E....01:
              0. 66 1111 0244 0000:_rintf 00DD:___fpclassify_f 012A:_nextafterf
              1. 66 65BD 0244 0000:_rintf 00DD:___fpclassify_f 012A:_nextafterf
            0A8B4608E8....505351528B56068B4604E8....50535152E8:
              0. 00 0000 0B7B 0000:_powf 00D0:_pow (0B5A: C3)
              1. 00 0000 0BBC 0000:_powf 00D0:_pow (0B5A: 04)
              2. 00 0000 002C 0000:_atan2f (REF 0020: _atan2)
              3. 00 0000 002C 0000:_powf (REF 0020: _pow)
          5E:
            04:
              807F240075:
                55538B37FF5408837E0E0175498B560C8B460A:
                  0. 1C 3BC9 007F 0000:?seekoff@filebuf@@UAC?AVstreampos@@Vstreamoff@@W4relative_to@ios@@H@Z
                60538B37FF5408B8010039460E75528B560C8B:
                  0. 1D 3B5B 0085 0000:?seekoff@filebuf@@UAC?AVstreampos@@Vstreamoff@@W4relative_to@ios@@H@Z
              83C3028B378B7402037604C74402....8B7604C704....83:
                0. 2C 745F 0054 0000:??1istream_withassign@@UAC@XZ (REF 0016: ??_Qistream_withassign@@6Bios@@@)
                1. 2C 745F 0054 0000:??1ostream_withassign@@UAC@XZ (REF 0016: ??_Qostream_withassign@@6Bios@@@)
              8B:
                3785F674668B7C02F6440E027503E8....80640EFD5657:
                  0. 01 3E9B 007A 0000:??1__eh_cv@@QAC@XZ
                56088B4E0A8B7E0C8B760E8A4606B45CCD21720631C05F:
                  0. 05 7BD8 002B 0000:__dos_lock
                77:
                  028B740203F3:
                    807C0C0075478B440489C68B4C083B4C:
                      0. 46 CC57 0066 0000:?putback@istream@@QACAAV1@D@Z
                    F6440886755C8B440489C68B4C123B4C:
                      0. 36 D8A8 007B 0000:?putback@istream@@QACAAV1@D@Z
                  0831C989DF83C70AEB07803C0A750141468B153BD677:
                    0. 09 8044 0029 0000:?newlines@filebuf@@AACHXZ
              C74706....83C3028B:
                378B7402037604C74402....8B7604:
                  0. 02 C1CE 0059 0000:??1iostream_withassign@@UAC@XZ
                76048B7C02035D02C707....C704:
                  0. 00 0000 007E 0000:??1iostream@@UAC@XZ
              F647188074:
                318B7F0E4F8B770489D983C10CEB118BDF4F8A:
                  0. 33 CD03 006D 0000:?flushbuf@filebuf@@AACHXZ
                348B77048B7F0E4F3B7F0C721E89D883C00C8B:
                  0. 36 10B1 006A 0000:?flushbuf@filebuf@@AACHXZ
            068B7E041E0730C0B9FFFFF2AEF7D14989CA89D60376048A:
              04:
                0. 1C 71E9 003C 0000:_strrchr
              0C:
                0. 1B BFA5 003B 0000:_strrchr
          76:
            04:
              09F675014656E8....5989C709C07511833E....00740A56:
                0. 02 3085 002F 0000:??2@YAPAXI@Z
              1E078B7E068A4608B429CD213DFF00B8000074028BC65F5E:
                0. 02 5F98 0022 0000:_parsfnm
              31FF:
                09F6750BE8....09C0785731FFEB538A440624263C02:
                  0. 20 BB89 0072 0000:_fflush
                85F6750BE8....3BC7785031FFEB4C8A440624263C02:
                  0. 1E 1D02 006B 0000:_fflush
                8A049850E8....83C40285C0740B8BDE468A079889C7:
                  0. 0C A8A7 002C 0000:__tcsnextc
              680004E8....83C40289C785FF7509B8FFFF5F5E5DC20200:
                0. 18 D11F 0038 0000:?doallocate@streambuf@@MACHXZ
              837C16FF:
                7411837C0800740656E8....89C783FFFF7509B8:
                  0. 12 53CB 003E 0000:?sync@filebuf@@UACHXZ
                75:
                  05C7441A0000837C1A00750831C05F5E5DC202:
                    0. 33 C92E 0077 0000:?close@filebuf@@QACPAV1@XZ
                  2231FF8B4E08894C18F6C10A740FF6C1017405:
                    0. 12 5C2B 00D2 0000:?open@filebuf@@QACPAV1@PBDHH@Z
                    1. 12 96F4 00D7 0000:?open@filebuf@@QACPAV1@PBDHH@Z
              8A0C4680F92074F880F909720580F90D76EE33C0998BE88A:
                0. 46 464D 0066 0000:_atol
                1. 46 A07C 0066 0000:_atol
              8B:
                4E06:
                  89F78CD88EC0F9FCACF6D01400AAE2F85F5E5DC3:
                    0. 00 0000 001F 0000:?negate@_2Comp@@CAXPAEH@Z
                  8B:
                    56088BFEEB058BDE46880F8BC24A09C07405803C:
                      0. 09 B0A5 0029 0000:_strnset
                    FEEB058BDE46880F803C0075F68BC75F5E5DC3:
                      0. 00 0000 001F 0000:_strset
                5606:
                  31FF85F6741B56E8....83C4023BC275028BFE56E8:
                    0. 00 0000 0032 0000:__mbsrchr
                  8B4E088BFE8BC14985C07416803C0074118BDE4688:
                    0. 13 250A 0033 0000:_strnset
                7C0485FF740457E8....8B4E06894C0485C9740BB90002:
                  0. 19 0A31 0039 0000:?tie@ios@@QACPAVostream@@PAV2@@Z
                7E:
                  06:
                    803C0074:
                      1C578A049850E8....83C404B9FFFF3BC1:
                        0. 12 784A 0032 0000:_fputs
                      4A803D0074458A0C8A153ACA742489CB30:
                        0. 03 50D8 00A6 0000:__mbscmp (REF 002E: .)
                    85F6741F56E8....83C4023BC775068BC65F5E5DC3:
                      0. 02 26E3 0034 0000:__mbschr
                    8B:
                      4608:
                        8BD685C074458BC84885C9743E8A1D30FFF6:
                          0. 01 CF00 005F 0000:__mbsnbcpy
                        D1E8EB118A148A4C01880D885501B9020001:
                          0. 0E 72BE 002E 0000:_swab
                      4C0E8B540C2BCA3BCF7C1657FF760852E8....01:
                        0. 1D 42E2 003D 0000:?sputn@streambuf@@QACHPBDH@Z
                      4E0A09C9741A498BDF478A178BDE46881789D030:
                        0. 55 45E1 0075 0000:_memccpy 0032:_fmemccpy
                      5608:
                        31C085D274:
                          118A0D880C84C9740983C70246:
                            0. 09 8284 0029 0000:_wcstombs
                          138A0D30ED890C85C9740983C6:
                            0. 0B 9512 002B 0000:_mbstowcs
                        D1EA8BCA4A85C974188A048A4C01880D8845:
                          0. 13 443E 0033 0000:_swab
                    EB17578A049850E8....83C404B9FFFF3BC1750489:
                      0. 11 4334 0031 0000:_fputs
                  08C7441A000085FF750DFF760AE8....89C783C402EB:
                    0. 19 D8C6 008D 0000:?init@strstreambuf@@AACXPADH0@Z
                  0A837C020074148B4C0685C9740D3BCF7409FF7406E8:
                    0. 00 0000 0065 0000:?setb@streambuf@@IACXPAD0H@Z
                FEEB:
                  0B8A049850E8....59880446803C0075F08BC75F5E:
                    0. 02 5F98 0022 0000:_strupr (REF 0011: _toupper)
                    1. 02 5F98 0022 0000:_strlwr (REF 0011: _tolower)
                  198A1C30FFF687....:
                    0174088A049883C020EB038A:
                      0. 10 DD6B 0030 0000:_strlwr (REF 0012: .)
                    0274088A049883C0E0EB038A:
                      0. 10 DD6B 0030 0000:_strupr (REF 0012: .)
              8CD88EC0BF....A5A5A5A5A5833E....00740D68000FFF36:
                0. 00 0000 002C 0000:_fesetenv
              8D5C06F6078074068027FD800F018A440624313C01756883:
                0. 24 F650 00D6 0000:__fillbuf
              AC3C2074FB3C0972093C0D76F33C2B7501AC8B5E08:
                0BDB74:
                  0. 98 F448 00D7 0000:_strtoul
                85DB74:
                  0. 9B AE4E 00D8 0000:_strtoul
              F644160175158B7C1885FF7F03BF200057FF541A83C40285:
                0. 11 1BF9 003B 0000:?doallocate@strstreambuf@@MACHXZ
            06:
              8A0C4680F92074F880F909720580F90D76EE33C0998BE88A:
                0. 46 0EC1 0066 0000:_atol
                1. 46 E8F0 0066 0000:_atol
              AC3C2074FB3C0972093C0D76F33C2B7501AC8B5E0A:
                0BDB74:
                  0. 98 3E73 00D7 0000:_strtoul
                85DB74:
                  0. 9A 98E0 00DA 0000:_strtoul
            088B7E0A:
              81FE0004732589F101C9C45E0403D9268B0F8BD785:
                0. 04 0CB4 0046 0000:_wmhandler_settab
              83FF0A7530837E06007F2A7C06837E04007322C604:
                0. 16 A082 0052 0000:_ltoa
                1. 16 E72D 0050 0000:_ltoa
            0A8B7E0C8B4E060B4E04742585FF74218BCE4E85C9741A6A02:
              0. 1C 02F6 003C 0000:?__vec_dtor@@YAXPEXIHP6CHXZ@Z
            0CC45E0426C7472C000085F6750E66FF760EE8....89C683C4:
              0. 2B F905 00E7 0000:?init@strstreambuf@@AECXPEDH0@Z
          7E:
            04:
              09FF75148B4608F7660683C00250E8....5989C709C07425:
                0. 63 512B 00E8 0000:?__vec_new@@YAPAXPAXIHP6CPAXXZ@Z 004B:?__vec_delete@@YAXPAXHIP6CHXZ@Z 008A:?__vec_ctor@@YAPAXPAXIHP6CPAXXZ@Z 00B7:?__vec_dtor@@YAXPAXIHP6CHXZ@Z
              31C08945048B5D028B5F0203DF39470875508B4F0685C974:
                0. 22 AD1D 008C 0000:?do_ipfx@istream@@IACHH@Z
              368B3585F6750689F05F5E5DC33BF77703E8....368B4D02:
                0. 0E 008A 002E 0000:?__eh_find_caller@@YAIIPEP6CHXZH@Z
              57:
                8B1DFF57:
                  0889C68B4D16BAFFFF3BCA740951E8....83C4:
                    0. 1D 73D7 003D 0000:?close@filebuf@@QACPAV1@XZ
                  0C89C683FEFF7403FF45088BC65F5E5DC20200:
                    0. 00 0000 0020 0000:?sbumpc_special@streambuf@@AACHXZ
                E8....83C40257E8....83C40289C603F73BF776258A04:
                  0. 29 A0EA 0049 (l)0000:_get_file_extension
                ..........83C40257..........83C40289C603F73BF7:
                  0. 2D 3625 004D (l)0000:_get_file_extension
              83:
                3E....007503E8....8BF7803D00741A666A008A049850:
                  0. 05 3BFC 0039 0000:_ungets
                FFFF7412FF760668....E8....83C40489C685F6750631:
                  0. 09 6E48 009D 0000:_fdopen
              85FF:
                74:
                  1E837E0A00741831F639760874118BC6F7660603C7:
                    0. 10 2D7E 0030 0000:?__vec_ctor@@YAPAXPAXIHP6CPAXXZ@Z
                  34837E0A00741E8B75FE8BCE4E85C974146A028BC6:
                    0. 1B C103 0044 0000:?__vec_delete@@YAXPAXHIP6CHXZ@Z
                75168B4608F7660683C00250E8....83C40289C785FF:
                  0. 2F 1635 004F 0000:?__vec_new@@YAPAXPAXIHP6CPAXXZ@Z
              8B:
                3585F6750689F05F5E5DC33BF77703E8....8B4D028B5E:
                  0. 0B F6F6 002B 0000:?__eh_find_caller@@YAIIPAP6CHXZH@Z
                5D028B5F0203DF:
                  8B470485C0740889C6568B1CFF57088B:
                    0. 07 4AB1 0027 0000:?flush@ostream@@QACAAV1@XZ
                  C74702....C705....8B5D028B5F0203:
                    0. 16 DB33 0036 0000:??1ostream@@UAC@XZ (REF 0013: ??_Qostream@@6Bios@@@)
                    1. 16 DB33 0036 0000:??1istream@@UAC@XZ (REF 0013: ??_Qistream@@6Bios@@@)
                5E068B:
                  7608:
                    85F6740B837E0A0074058B4E0AEB028BCE89:
                      0. 20 670E 0040 0000:?setg@streambuf@@IACXPAD00@Z
                    89750C89750A85F6740C85DB740839F37204:
                      0. 0F B6BB 002F 0000:?setp@streambuf@@IACXPAD0@Z
                  77028B740203F3FF74048B5D028B470203C783C0:
                    0. 03 C5CB 002D (?)0000:??4istream_withassign@@QACAAV0@AAVistream@@@Z (0009: 00)
                76:
                  06:
                    83FE017C063936....7D09B8....5F5E5DC204008B:
                      0. 09 ECD5 0048 (?)0000:?iword@ios@@QACAAJH@Z (001E: 00)
                    8B:
                      56:
                        08:
                          8A048A0D880C880546474A75F35F5E5DC206:
                            0. 01 78F0 0021 (l)0000:CSWAP
                          8B048B0D890C8905B9020001CE01CF4A75EE:
                            0. 06 D62B 0026 (l)0000:ISWAP
                        0A85D274184A8A0C468BDF47880F89C830E43B:
                          0. 10 F069 0030 0000:_memccpy
                      D6:
                        803D00743F803C00742A57E8....83C4025056:
                          0. 01 3E9B 0057 0000:__mbspbrk
                        EB178A0C8A053AC8750689F85F5E5DC346803C:
                          0. 11 582E 0031 0000:_strpbrk
                      D78BDE803D0074:
                        11803C00740C8A0C3A0D740E46:
                          0. 17 8EAD 0037 0000:_strspn
                        19803C00740C8A0C3A0D740E46:
                          0. 15 6E2A 0035 0000:_strcspn
                      DF8BD6EB:
                        118A0C8A053AC8740E46803C0075F28B:
                          0. 0F 8B9E 002F 0000:_strcspn
                        128A053AC87409468A0C08C9740AEBF1:
                          0. 10 5835 0030 0000:_strspn
                  08:
                    578B1DFF5708807D130074:
                      0D837D02007407FF7502:
                        0. 01 3E9B 0075 0000:?setbuf@streambuf@@UACPAV1@PADH@Z
                      0F837D02007409FF7502:
                        0. 01 3E9B 0070 0000:?setbuf@streambuf@@UACPAV1@PADH@Z
                    85FF7421837E0A00741B8BCE4E85C974146A028BC6:
                      0. 14 44BB 0034 0000:?__vec_dtor@@YAXPAXIHP6CHXZ@Z
                C783C00450E8....09C075178BDF83C3028B7502035C02:
                  0. 12 1196 0032 0000:?close@fstream_common@@QACXXZ
                DF83C3028B7502035C02:
                  807F0A0075148B470409C07404:
                    0. 02 F6B7 0035 0000:?opfx@ostream@@QACHXZ
                  8B470209C0740889C6568B1CFF:
                    0. 0A DA0A 002A 0000:?flush@ostream@@QACAAV1@XZ
              BEFFFF837D1A00742C817E0600407510680040FF7516E8:
                0. 00 0000 0045 0000:?setmode@filebuf@@QACHH@Z
              FF76:
                08FF7606:
                  8BC783C00450E8....09C075198BDF83C302:
                    0. 2A FAA1 004A 0000:?attach@fstream_common@@QACXHH@Z
                  8D4E045168....E8....83C40889C631C93B:
                    0. 11 11B2 0031 0000:_vsprintf
                0AFF7608FF76068BC783C00450E8....09C075198BDF:
                  0. 2D E88D 004D 0000:?open@fstream_common@@QACXPBDHH@Z
            06:
              1E0730C0B9FFFFF2AEF7D12BF989FE8B7E04F3A48B7E061E:
                0. 14 7211 0034 0000:_stpcpy
              3B7E0A77228B76088B4E083B4E0C7711FF76045657E8:
                0. 13 7A8E 0033 0000:_disp_fillbox
              8B7604397E04740485FF750631C05F5E5DC38BCE56E8:
                0. 14 563B 0034 0000:__mbsdec
              F64506327512837E04FF740C837D0400750D837D0C007507:
                0. 3C 3E16 005C 0000:_ungetc
                1. 54 F1BC 025A 0000:_ungetc 005E:_fseek 0195:_ftell 021C:_fgetpos 0241:_fsetpos
              FF7604E8....8B5E04C707....B8100039C77D0289C78B5E:
                0. 08 EF2D 0065 0000:??0strstreambuf@@QAC@H@Z
            0A:
              31F6C706....0100FF760C57FF7608FF7606FF7604E8:
                0. 02 2600 00DF 0000:_fnsplit
              837E0C0074:
                168B5E04C74702....83C306538B460483C024:
                  0. 02 F6B7 006A 0000:??0ostrstream@@QAC@PADHH@Z
                1B8B5E04C74702....C74708....83C30C538B:
                  0. 07 A767 0084 0000:??0strstream@@QAC@PADHH@Z
              8B46060B4604:
                7423837E0C00741D31F685FF74178BC6F766:
                  0. 1D C4E9 003D 0000:?__vec_ctor@@YAPEXPEXIHP6CPEXXZ@Z
                75:
                  198BC7F7660883C00250E8....5989D109:
                    0. 88 230B 0123 0000:?__vec_new@@YAPEXPEXIHP6CPEXXZ@Z 005E:?__vec_delete@@YAXPEXHIP6CHXZ@Z 00B1:?__vec_ctor@@YAPEXPEXIHP6CPEXXZ@Z 00EA:?__vec_dtor@@YAXPEXIHP6CHXZ@Z
                  1B8BC7F7660883C00250E8....83C40289:
                    0. 42 59C6 0062 0000:?__vec_new@@YAPEXPEXIHP6CPEXXZ@Z
            0C:
              833E....00741B66FF760866FF7604E8....894506895D04:
                0. 0B BE45 00B0 0000:_modf
              8B46060B4604744285FF7428C45E04268B77FE8BCE4E85C9:
                0. 2D 4F24 0056 0000:?__vec_delete@@YAXPEXHIP6CHXZ@Z
        8C:
          D88EC08B:
            76:
              068B7E0433C0B9FFFFF2AE4F8BD78BFEB9FFFFF2AE:
                0. 1E F95D 003E 0000:_strncat
              088B7E0633C0B9FFFFF2AE4F8BD78BFEB9FFFFF2AE:
                0. 1E BADC 003E 0000:_strncat
            7E:
              048B76068BC78B4E083BF777198BD183E10103F24E:
                0. 1D 7920 003D 0000:_memcpy
              06:
                33C0B9FFFFF2AEF7D12BF98BD1B9FFFF8BF78B7E:
                  0. 16 5AD9 0036 0000:_strcat
                8B:
                  76:
                    04:
                      33C0B9FFFFF2AEF7D12BF98B56083BCA72:
                        0. 13 3A52 0033 0000:_strncmp
                      8B4E0833C0F3A674061BC0F51500005F5E:
                        0. 02 5F98 0022 0000:_memcmp
                    088BC78B4E0A3BF777198BD183E10103F24E:
                      0. 1D 31AC 003D 0000:_memcpy
                  DF33C0B9FFFFF2AEF7D18B56083BD173028BCA:
                    0. 23 B1FE 0043 0000:_strncpy
              08:
                33C0B9FFFFF2AEF7D12BF98BD1B9FFFF8BF78B7E:
                  0. 16 B90F 0036 0000:_strcat
                8B:
                  7606:
                    33C0B9FFFFF2AEF7D12BF98B560A3BCA72:
                      0. 13 72DE 0033 0000:_strncmp
                    8B4E0A33C0F3A674061BC0F51500005F5E:
                      0. 02 1714 0022 0000:_memcmp
                  DF33C0B9FFFFF2AEF7D18B560A3BD173028BCA:
                    0. 23 80F0 0043 0000:_strncpy
          DB:
            C47E:
              04C576088BC78B4E0C3BF777198BD183E10103F24E03FA:
                0. 1F A813 003F 0000:_memcpy
              06C5760A8BC78B4E0E3BF777198BD183E10103F24E03FA:
                0. 1F E09F 003F 0000:_memcpy
              08C57604:
                33C0B9FFFFF2AEF7D12BF98B560C3BCA72028B:
                  0. 13 EB1D 0033 0000:_strncmp
                8B4E0C33C0F3A674061BC0F51500008EDB5F5E:
                  0. 02 5F98 0022 0000:_memcmp
              0AC57606:
                33C0B9FFFFF2AEF7D12BF98B560E3BCA72028B:
                  0. 13 93E0 0033 0000:_fstrncmp
                  1. 13 A391 0033 0000:_strncmp
                8B4E0E33C0F3A674061BC0F51500008EDB5F5E:
                  0. 02 1714 0022 0000:_memcmp
            C576048B4E0889F78CD88EC0F9FCACF6D01400AAE2F88EDB5F:
              0. 03 2CC2 0023 0000:?negate@_2Comp@@CAXPEEH@Z
        A0....30E4C1E0088A0E....30ED03C13D03037D05B81600EB0CB4:
          0. 04 6BAA 0037 0000:__dos_commit
        A1....0B06....74348B36....C41E....268B5702268B078916:
          0. 00 0000 0046 0000:__sbrk_freeall
        B419..........8AD00441A2....FEC2BE....B447..........72:
          0. 02 0C0C 006E 0000:_getcwd
          1. 02 14DB 0076 0000:_getcwd
          2. 02 6C6B 0073 0000:_getcwd
          3. 02 74BC 007B 0000:_getcwd
        B8:
          00578B5E04CD2172:
            0FC47E0626890D26895502B80000EB0750E8:
              0. 00 0000 0029 0000:_getftime
            111E078B7E0626890D26895502B80000EB07:
              0. 02 F6B7 002B 0000:_getftime
          01:
            0050FF76:
              04E8....09C074578B5E0483C3028B76048B7C0203:
                0. 1F 8FA2 007B 0000:?get@istream@@QACHXZ
              06FF7604E8....09C0747F8B56068B460483C004C4:
                0. 3C BFEA 00A7 0000:?get@istream@@QECHXZ
            578B5E04:
              1E078B7E06268B0D268B5502CD217205B80000EB07:
                0. 02 F6B7 002B 0000:_setftime
              C47E06268B0D268B5502CD217205B80000EB0750E8:
                0. 00 0000 0029 0000:_setftime
          F03F5031C05050508B56068B4604E8....50535152E8....83C4:
            0. 02 90F1 05D2 0000:_atanf 0028:_atan 0048:_atan2f 0074:_atan2 (05AF: C3)
            1. 02 90F1 05D5 0000:_atanf 0028:_atan 0048:_atan2f 0074:_atan2 (05AF: 8B)
        BA....B8....C45E0426:
          8957:
            4626894744BA....B8....26C47704:
              0. 12 DA1F 008D 0000:??1ifstream@@UEC@XZ (REF 0006: ??_Qifstream@@6Fistream@@@)
              1. 12 DA1F 008D 0000:??1ofstream@@UEC@XZ (REF 0006: ??_Qofstream@@6Fostream@@@)
            502689474EBA....B8....26895746:
              0. 05 D7F1 009B 0000:??1fstream@@UEC@XZ
          C47704268B4C02C4760403F12689540626:
            0. 04 7530 0061 0000:??1istream@@UEC@XZ (REF 0006: ??_Qistream@@6Fios@@@)
            1. 04 7530 0061 0000:??1ostream@@UEC@XZ (REF 0006: ??_Qostream@@6Fios@@@)
        C4:
          5E0426:
            807F3A0075:
              5DFF76065326C43726FF5408837E1001754C:
                0. 22 9624 008D 0000:?seekoff@filebuf@@UEC?EVstreampos@@Vstreamoff@@W4relative_to@ios@@H@Z
              6BFF76065326C43726FF5408B80100394610:
                0. 23 569F 0095 0000:?seekoff@filebuf@@UEC?EVstreampos@@Vstreamoff@@W4relative_to@ios@@H@Z
            8B470EC47608268904C47E04268B4510C45E0826894702:
              0. 76 907A 0096 0000:_get_info
            C47704268B4402C4760403F026:
              807C1400755D268B540A:
                0. 65 FE12 0085 0000:?putback@istream@@QECAEV1@D@Z
              F6441086757E268B540A:
                0. 53 C370 00A6 0000:?putback@istream@@QECAEV1@D@Z
          76:
            04268A0C4680F92074F780F909720580F90D76ED33C0998BE8:
              0. 49 1952 0069 0000:_atol
              1. 49 FF63 0069 0000:_atol
            06268A0C4680F92074F780F909720580F90D76ED33C0998BE8:
              0. 49 51DE 0069 0000:_atol
              1. 49 B7EF 0069 0000:_atol
          7E:
            08:
              30C0B9FFFFF2AEF7D12BF989FE1E06C47E041FF3A41FC47E:
                0. 17 1384 0037 0000:_stpcpy
              33C0B9FFFFF2AEF7D1:
                2BF98BD1B9FFFF8BF7C47E048BDFF2:
                  0. 19 DE69 0039 0000:_strcat
                8B560C3BD173028BCA2BD11EC47E04:
                  0. 22 ECC5 0042 0000:_strncpy
            0A33C0B9FFFFF2AEF7D1:
              2BF98BD1B9FFFF8BF7C47E068BDFF2:
                0. 19 C5D9 0039 0000:_strcat
              8B560E3BD173028BCA2BD11EC47E06:
                0. 22 60A7 0042 0000:_strncpy
        E8....:
          1E68....8B16....A1....BB100E31C9E8....501E68:
            0. 02 88EF 0032 (l)0000:_make_tz
          68....8B16....A1....BB100E31C9E8....5068....68:
            0. 00 0000 002E (l)0000:_make_tz
          8B16....A1....BB3C0031C9E8....:
            8B5E048947066A00E8:
              0. 00 0000 0046 0000:__ftime
            C45E0426894706666A:
              0. 02 0164 0052 0000:__ftime
        FF76:
          04E8....:
            5989C683FEFF7503E98800FF7606B9....51E8:
              0. 0B 18C4 00A4 0000:_fdopen
            83C40289:
              C38D7F0157E8....83C40289C685F6740B:
                0. 06 BAC0 0031 0000:_strdup
              C7037E043B7E04761A807DFF3075148D75:
                0. 19 65EC 0039 (l)0000:_killzeroes
            89:
              C6FF7606E8....89C783C40485F6741485FF7410:
                0. 03 4B25 003F (l)0000:?__match_name@@YAHPBD0@Z
              C789FE03760483C4028A0C3A4E0675098B460403:
                0. 13 B21F 0033 0000:_strrchr
          06FF7604:
            C45E0426C43726FF54:
              0889C7C45E04268B4728B9FF:
                0. 07 15A4 004F 0000:?close@filebuf@@QECPEV1@XZ
              0C89C783FFFF7407C45E0426:
                0. 0B 37B0 002B 0000:?sbumpc_special@streambuf@@AECHXZ
            E8....83C40483F80372218B56068B4604E8....50:
              0. 0C 42DB 0051 0000:_log1pf
              1. 0C 8E20 0521 0000:_log1pf 0051:_log1p 00A2:_logf 00D7:_log 0104:_log10f 013A:_log10 (04F4: 00)
              2. 0C 8E20 0562 0000:_log1pf 0051:_log1p 00A2:_logf 00DD:_log 0110:_log10f 014C:_log10 (04F4: 89)
          08:
            8B56068B4604E8....50535152E8....E8....83C40A5F5E:
              0. 02 5F98 0022 0000:_frexpf (REF 0016: _frexp)
              1. 02 5F98 0022 0000:_ldexpf (REF 0016: _ldexp)
            E8....83C4029985D27F247C053D0080731DFF76088B5606:
              0. 04 2CCD 007D 0000:_scalbf
      66FF76:
        08:
          66FF76041EB8....5068....E8....89C683C40EF606:
            0. 05 1839 0033 0000:_vprintf
          C45E0426C47704268B44028B56068BF303F083C6045256E8:
            0. 00 0000 002D (?)0000:??4istream_withassign@@QECAEV0@PEVstreambuf@@@Z (000C: 00)
        0AFF7608:
          8B56068B460483C0085250C45E0426C4770826FF54:
            0. 21 99ED 0066 0000:?setbuf@fstreambase@@QECXPEDH@Z
          C45E0426C47704268B4402C4760403F026FF740A26:
            0. 04 337F 0051 0000:?write@ostream@@QECAEV1@PFXI@Z
        0CFF760AFF76:
          06FF7604E8....8B4610C45E04268947288B4E:
            0. 1B 81A1 009F 0000:??0filebuf@@QEC@HPEDHH@Z
          088B56068B460483C0085250E8....89D109C1:
            0. 3D 0E48 005D 0000:?open@fstream_common@@QECXPFDHH@Z
      680002E8....83C40289C685F67508B8FFFF5E5DC20200568D840002:
        0. 07 B1C4 0031 0000:?doallocate@streambuf@@MACHXZ
      6A01FF7606FF7604E8....85C0744B66FF760AFF7608C45E0426C477:
        0. 13 A9E5 0072 0000:?read@istream@@QECAEV1@PEXH@Z
      83:
        3E....0074:
          10E8....501E68....688000..........680010E8:
            0. 00 0000 0060 0000:_fail
          2F8B5E048B0F89CE01F68B84....890789CB01DBC787:
            0. 00 0000 003F (?)0000:_msm_getpress (001E: C3)
          33C45E04268B0F89CE01F68B84....26890789CB01DB:
            0. 02 5278 0043 (?)0000:_msm_getpress (0020: C3)
        7E:
          060074:
            0F8B5E04C74702....83C3:
              0453E8....:
                6A00FF7604E8:
                  0. 00 0000 003C 0000:??0ostream_withassign@@QAC@XZ
                8B5E048B77028B:
                  0. 07 BD31 0034 0000:??0ostream@@IAC@XZ
              0653E8....:
                6A00FF7604E8:
                  0. 00 0000 003C 0000:??0istream_withassign@@QAC@XZ
                8B5E048B77028B:
                  0. 07 BD31 0039 0000:??0istream@@IAC@XZ
              2453E8....8B460483C00450:
                0. 01 3E9B 0055 0000:??0strstreambase@@IAC@XZ
              2853E8....8B460483C00450:
                0. 01 3E9B 0055 0000:??0fstreambase@@QAC@XZ
            118B5E04C74702....6A0083C30653E8....8B5E04:
              8B77:
                0. 09 5EFB 0036 0000:??0ostream@@IAC@XZ
              C747:
                0. 0E 012B 003B 0000:??0istream@@IAC@XZ
            148B5E04C74702....C747:
              08....83C30A53E8....6A00:
                0. 04 2B63 0052 0000:??0iostream@@IAC@XZ (0020: 02)
                1. 04 2B63 0046 0000:??0iostream_withassign@@QAC@XZ (0020: 04)
              26....83C32853E8....6A00:
                0. 04 2B63 0059 0000:??0ostrstream@@QAC@XZ
              2A....83C3:
                2C53E8....6A00:
                  0. 04 2B63 0052 0000:??0ofstream@@QAC@XZ
                2E53E8....6A00:
                  0. 04 2B63 0052 0000:??0ifstream@@QAC@XZ
            168B5E04C74702....:
              83C3:
                04538B460483C02A50E8:
                  0. 08 0A17 0045 0000:??0fstream_common@@IAC@XZ
                06538B460483C02450E8:
                  0. 06 C5C6 0051 0000:??0ostrstream@@QAC@XZ
              C74708....6A0083C30C53E8:
                0. 06 C5C6 0054 0000:??0iostream@@IAC@XZ
            198B5E04C74702....C747:
              26....C7472C....83C32E53:
                0. 01 3E9B 0063 0000:??0strstream@@QAC@XZ
              2A....C74730....83C33253:
                0. 01 3E9B 005C 0000:??0fstream@@QAC@XZ
            1B8B5E04C74702....C74708....83C30C538B460483C0:
              0. 03 3C0E 005B 0000:??0strstream@@QAC@XZ
          080074:
            0F8B5E04C74702....83C3:
              0453E8....8B5E048B77028B:
                0. 07 BD31 0047 0000:??0ostream@@QAC@PAVstreambuf@@@Z
              0653E8....8B5E048B77028B:
                0. 07 BD31 004E 0000:??0istream@@QAC@PAVstreambuf@@@Z
              2853E8....FF76068B460483:
                0. 04 D71C 0058 0000:??0fstreambase@@QAC@H@Z
            128B5E04C74702....FF760683C3:
              0653E8....8B5E04:
                8B:
                  0. 0A A8C2 0037 0000:??0ostream@@QAC@PAVstreambuf@@@Z
                C7:
                  0. 0F 93D5 003C 0000:??0istream@@QAC@PAVstreambuf@@@Z
              0853E8....6A00FF76:
                0. 02 6103 0044 0000:??0istream_withassign@@QAC@PAVstreambuf@@@Z (REF 0010: ??_8istream_withassign@@7B@)
                1. 02 6103 0044 0000:??0ostream_withassign@@QAC@PAVstreambuf@@@Z (REF 0010: ??_8ostream_withassign@@7B@)
            148B5E04C74702....C747:
              08....83C30A53E8....6A00:
                0. 04 2B63 0065 0000:??0iostream@@QAC@PAVstreambuf@@@Z
              26....83C32A53E8....6A00:
                0. 0B 8078 0060 0000:??0istrstream@@QAC@PAD@Z
              2A....83C3:
                2C53E8....6A00:
                  0. 07 437B 0055 0000:??0ofstream@@QAC@H@Z
                2E53E8....6A00:
                  0. 07 437B 0055 0000:??0ifstream@@QAC@H@Z
            178B5E04C74702....C74708....FF760683C3:
              0C53E8:
                0. 00 0000 0055 0000:??0iostream@@QAC@PAVstreambuf@@@Z
              0E53E8:
                0. 00 0000 004E 0000:??0iostream_withassign@@QAC@PAVstreambuf@@@Z
            198B5E04C74702....C7472A....C74730....83C33253:
              0. 01 3E9B 005F 0000:??0fstream@@QAC@H@Z
            1DBA....B8....C45E0426895706268947048CC289D883:
              0. 05 32EF 0092 0000:??0ostream_withassign@@QEC@XZ (0051: 27)
              1. 05 32EF 0079 0000:??0ostream@@IEC@XZ (0051: 00)
              2. 05 44D6 0092 0000:??0istream_withassign@@QEC@XZ (0057: 01)
              3. 05 44D6 007F 0000:??0istream@@IEC@XZ (0057: 00)
            20BA....B8....C45E042689570626894704666A008CC2:
              0. 08 40DE 007D 0000:??0ostream@@IEC@XZ (0052: 00)
              1. 08 40DE 0083 0000:??0istream@@IEC@XZ (0052: FF)
            26BA....B8....C45E0426895706268947048CC289D883:
              0. 0E 3B9A 009E 0000:??0fstream_common@@IEC@XZ
              1. 0E 6665 00B9 0000:??0ostrstream@@QEC@XZ
            2BBA....B8....C45E042689570626894704BA....B8:
              0. 00 0000 00CB 0000:??0iostream@@IEC@XZ (0095: 12)
              1. 00 0000 00CB 0000:??0ifstream@@QEC@XZ (0095: 4A)
              2. 00 0000 00D5 0000:??0ostrstream@@QEC@XZ (0095: 00)
              3. 00 0000 00CB 0000:??0ofstream@@QEC@XZ (0095: 48)
              4. 00 0000 00AE 0000:??0iostream_withassign@@QEC@XZ
            2EBA....B8....C45E042689570626894704BA....B8:
              0. 00 0000 00CD 0000:??0iostream@@IEC@XZ
            34BA....B8....C45E042689570626894704BA....B8:
              0. 00 0000 00D5 0000:??0strstream@@QEC@XZ
            39BA....B8....C45E042689570626894704BA....B8:
              0. 00 0000 00F1 0000:??0strstream@@QEC@XZ (00C3: 00)
              1. 00 0000 00E7 0000:??0fstream@@QEC@XZ (00C3: 40)
          0A0074:
            148B5E04C74702....C74726....83C32A53E8....6A00:
              0. 0C 88AD 0061 0000:??0istrstream@@QAC@PADH@Z
            168B5E04C74702....83C306538B460483C02450E8:
              0. 06 C5C6 0055 0000:??0istrstream@@QAC@PADH@Z
            1B8B5E04C74702....C7472C....83C304538B460483C0:
              0. 03 D3F8 0064 0000:??0ifstream@@QAC@HH@Z (REF 0010: ??_8ifstream@@7B@)
              1. 03 D3F8 0064 0000:??0ofstream@@QAC@HH@Z (REF 0010: ??_8ofstream@@7B@)
            208B5E04C74702....C7472C....C74732....83C30453:
              0. 08 1C24 006E 0000:??0fstream@@QAC@HH@Z
            2BBA....B8....C45E042689570626894704BA....B8:
              0. 00 0000 00CD 0000:??0ofstream@@QEC@H@Z (0097: 48)
              1. 00 0000 00CD 0000:??0ifstream@@QEC@H@Z (0097: 4A)
            39BA....B8....C45E042689570626894704BA....B8:
              0. 00 0000 00E9 0000:??0fstream@@QEC@H@Z
          0C0074:
            0F8B5E04C74702....83C3:
              2453E8....FF760AFF7608FF:
                0. 0A 5094 005E 0000:??0strstreambase@@IAC@PADH0@Z
              2853E8....:
                8B460483C00450:
                  0. 01 3E9B 0064 0000:??0fstreambase@@QAC@PBDHH@Z
                FF760AFF7608FF:
                  0. 0A 5094 005E 0000:??0fstreambase@@QAC@HPADH@Z
            148B5E04C74702....C7472A....83C3:
              2C53E8....6A00:
                0. 10 AA49 005E 0000:??0ofstream@@QAC@PBDHH@Z
                1. 0D E679 005B 0000:??0ofstream@@QAC@HPADH@Z
              2E53E8....6A00:
                0. 10 AD9F 005E 0000:??0ifstream@@QAC@PBDHH@Z
                1. 0D E679 005B 0000:??0ifstream@@QAC@HPADH@Z
            198B5E04C74702....C7472A....C74730....83C33253:
              0. 01 3E9B 0065 0000:??0fstream@@QAC@PBDHH@Z (REF 0032: ??0fstreambase@@QAC@PBDHH@Z)
              1. 01 3E9B 0065 0000:??0fstream@@QAC@HPADH@Z (REF 0032: ??0fstreambase@@QAC@HPADH@Z)
            1B8B5E04C74702....C7472C....83C304538B460483C0:
              0. 03 D3F8 0067 0000:??0ifstream@@QAC@PBDHH@Z (REF 0010: ??_8ifstream@@7B@)
              1. 03 D3F8 0067 0000:??0ofstream@@QAC@PBDHH@Z (REF 0010: ??_8ofstream@@7B@)
            208B5E04C74702....C7472C....C74732....83C30453:
              0. 08 1C24 0071 0000:??0fstream@@QAC@PBDHH@Z
            21BA....B8....C45E04268957062689470466FF76088C:
              0. 09 001E 009C 0000:??0ostream_withassign@@QEC@PEVstreambuf@@@Z (REF 000B: ??_8ostream_withassign@@7F@)
              1. 09 001E 009C 0000:??0istream_withassign@@QEC@PEVstreambuf@@@Z (REF 000B: ??_8istream_withassign@@7F@)
              2. 09 9A55 007D 0000:??0ostream@@QEC@PEVstreambuf@@@Z (0051: 00)
              3. 09 9A55 0083 0000:??0istream@@QEC@PEVstreambuf@@@Z (0051: FF)
            2BBA....B8....C45E042689570626894704BA....B8:
              0. 00 0000 00DF 0000:??0istrstream@@QEC@PED@Z
            2FBA....B8....C45E042689570626894704BA....B8:
              0. 00 0000 00CF 0000:??0iostream@@QEC@PEVstreambuf@@@Z (0095: FF)
              1. 00 0000 00B8 0000:??0iostream_withassign@@QEC@PEVstreambuf@@@Z (0095: 00)
            34BA....B8....C45E042689570626894704BA....B8:
              0. 00 0000 00E1 0000:??0ifstream@@QEC@HH@Z (REF 000B: ??_8ifstream@@7F@)
              1. 00 0000 00E1 0000:??0ofstream@@QEC@HH@Z (REF 000B: ??_8ofstream@@7F@)
            42BA....B8....C45E042689570626894704BA....B8:
              0. 00 0000 00FD 0000:??0fstream@@QEC@HH@Z
          0E0074:
            1B8B5E04C74702....C7472C....83C304538B460483C0:
              0. 03 D3F8 0079 0000:??0ifstream@@QAC@HPADHH@Z (REF 0010: ??_8ifstream@@7B@)
              1. 03 D3F8 0079 0000:??0ofstream@@QAC@HPADHH@Z (REF 0010: ??_8ofstream@@7B@)
            208B5E04C74702....C7472C....C74732....83C30453:
              0. 08 1C24 0083 0000:??0fstream@@QAC@HPADHH@Z
            26BA....B8....C45E0426895706268947048CC289D883:
              0. 0E 6665 00BF 0000:??0istrstream@@QEC@PEDH@Z
            2BBA....B8....C45E042689570626894704BA....B8:
              0. 00 0000 00DF 0000:??0istrstream@@QEC@PEDH@Z
          100074:
            26BA....B8....C45E0426895706268947048CC289D883:
              0. 0E 6665 00E3 0000:??0ostrstream@@QEC@PEDHH@Z
            2BBA....B8....C45E042689570626894704BA....B8:
              0. 00 0000 00D7 0000:??0ofstream@@QEC@PFDHH@Z (009F: 04) (REF 000B: ??_8ofstream@@7F@)
              1. 00 0000 00D5 0000:??0ofstream@@QEC@HPEDH@Z (009F: 48)
              2. 00 0000 00D7 0000:??0ifstream@@QEC@PFDHH@Z (009F: 04) (REF 000B: ??_8ifstream@@7F@)
              3. 00 0000 00D5 0000:??0ifstream@@QEC@HPEDH@Z (009F: 4A)
            34BA....B8....C45E042689570626894704BA....B8:
              0. 00 0000 0113 0000:??0strstream@@QEC@PEDHH@Z (00C2: D9)
              1. 00 0000 00E5 0000:??0ifstream@@QEC@PFDHH@Z (00C2: 00) (REF 000B: ??_8ifstream@@7F@)
              2. 00 0000 00E5 0000:??0ofstream@@QEC@PFDHH@Z (00C2: 00) (REF 000B: ??_8ofstream@@7F@)
            39BA....B8....C45E042689570626894704BA....B8:
              0. 00 0000 00F1 0000:??0fstream@@QEC@PFDHH@Z (0028: 0C)
              1. 00 0000 00F1 0000:??0fstream@@QEC@HPEDH@Z (0028: 66)
            42BA....B8....C45E042689570626894704BA....B8:
              0. 00 0000 0101 0000:??0fstream@@QEC@PFDHH@Z
      8A4604:
        8B5E068B37FF0788048B460430E45E5DC3:
          0. 00 0000 0018 (l)0000:__sprintf
        C45E06268B3726FF07268E47022688048B460430E45E5DC3:
          0. 00 0000 001F (l)0000:__sprintf
      8B:
        16....A1....:
          C45E0426C47704268B4C02C4760403F12609441026:
            0. 0B 0F38 002B 0000:?spacing@@YAAEVostream@@AEV1@@Z (REF 0006: ?spacing@ios@@2JF)
            1. 0B 0F38 002B 0000:?stickywidth@@YAAEVostream@@AEV1@@Z (REF 0006: ?stickywidth@ios@@2JF)
          F7D2F7D0C45E0426C47704268B4C02C4760403F126:
            0. 0F FE96 002F 0000:?nospacing@@YAAEVostream@@AEV1@@Z
        36....:
          6A016A02E8....83C40485F6740C83FE0174076A02FFD683:
            0. 08 8BE0 0028 (l)0000:_ctrl_break_handler
          833E....007503E8....8B440C89440AC70400008D5C1066:
            0. 10 501A 0038 0000:?__eh_rethrow@@YAXXZ
        46:
          048B:
            5E088BF0C704....31C9894C02894C04895C068B56063BD1:
              0. 28 077E 0048 0000:??0streambuf@@QAC@PADH@Z
            D8:
              36807FFF30750C368D77FF4E4836803C3074F88BD83680:
                0. 0B 9D24 002B (l)0000:__TRIM0
              807FFF30750A8D77FF4E48803C3074F98BD8807FFF2E75:
                0. 07 FDF6 0027 (l)0000:__TRIM0
              8B77028B740203F380:
                4C:
                  088089D85E5DC3:
                    0. 00 0000 001A 0000:?showbase@@YAAAVostream@@AAV1@@Z
                  09:
                    0189D85E5DC3:
                      0. 00 0000 001A 0000:?showpoint@@YAAAVostream@@AAV1@@Z
                    0289D85E5DC3:
                      0. 00 0000 001A 0000:?uppercase@@YAAAVostream@@AAV1@@Z
                6409E289D85E5DC3:
                  0. 00 0000 001A 0000:?floating@@YAAAVostream@@AAV1@@Z
          060B460474:
            0C837E06107504837E0400720431F6EB:
              238B56068B:
                0. 1A 7B4D 020B 0000:_farmalloc 0046:_farcalloc 009D:_farfree 00BE:_farrealloc 0197:_farcoreleft 019B:__halloc 01F3:__hfree (0161: 55)
                1. 1A 7B4D 019B 0000:_farmalloc 0046:_farcalloc 009D:_farfree 00BE:_farrealloc 0197:_farcoreleft
              258B56068B:
                0. 1A 7B4D 0048 0000:_farmalloc
            17C45E0426C47704268B44028B56068BF303F083C6:
              0. 1A 4AA4 003A (?)0000:??5istream@@QECAEV0@P6AAEVios@@AEV1@@Z@Z
          0CA3....8B4E0A890E....8B56088B5E068916....891E....8B:
            0. 04 E095 00CA 0000:WINMAIN (009E: 0A)
            1. 04 E095 00C3 0000:WINMAIN (009E: 00)
          0E0B460C74108B46120B461074088B56128B4610EB068B560E8B:
            0. 4A A260 006A 0000:?setg@streambuf@@IECXPED00@Z
        4E:
          04:
            83F9FF750489C8EB0F8AC1C45E0626FF0F26C437268804985E:
              0. 02 5F98 0022 (l)0000:_sungetc
            8B:
              16....A1....:
                8BD98B77028B740203F309440809540A89D8:
                  0. 03 2CC2 0023 0000:?spacing@@YAAAVostream@@AAV1@@Z (REF 0009: ?spacing@ios@@2JB)
                  1. 03 2CC2 0023 0000:?stickywidth@@YAAAVostream@@AAV1@@Z (REF 0009: ?stickywidth@ios@@2JB)
                F7D2F7D08BD98B77028B740203F321440821:
                  0. 07 B67A 0027 0000:?nospacing@@YAAAVostream@@AAV1@@Z
              D9837F18007408B8FFFF5E5DC204008BD98D77088B048947:
                0. 25 094E 0045 0000:?pbackfail@stdiobuf@@UACHH@Z
            BE....8B043BC1740983C60281FE....72F18BC62D....992B:
              0. 06 CA9A 0026 (l)0000:_check_sig
            C45E0626F6470A32750F83F9FF740A268B4708260B47067505:
              0. 33 83AF 0053 0000:_ungetc
          0A8B5E088B46048B560666C1E1108BCB66C1E010660FACD01066:
            0. 3F 0851 006D 0000:_farcalloc
        56:
          068B460483C0:
            04C45E0426C47704260344028EC289C626:
              80:
                4C:
                  0C:
                    0. 09 0BFC 0029 0000:?showbase@@YAAEVostream@@AEV1@@Z
                  0D:
                    0. 09 2175 0029 0000:?showpoint@@YAAEVostream@@AEV1@@Z
                    1. 09 26A3 0029 0000:?uppercase@@YAAEVostream@@AEV1@@Z
                640D:
                  0. 0E 15F7 002E 0000:?floating@@YAAEVostream@@AEV1@@Z
              8B540E:
                0. 1A 199E 003A 0000:?fixed@@YAAEVostream@@AEV1@@Z
                1. 1A 8016 003A 0000:?scientific@@YAAEVostream@@AEV1@@Z
                2. 18 80CA 0038 0000:?rightjust@@YAAEVostream@@AEV1@@Z
                3. 18 A2AA 0038 0000:?leftjust@@YAAEVostream@@AEV1@@Z
                4. 18 C40A 0038 0000:?internal@@YAAEVostream@@AEV1@@Z
            085250E8....89D109C1:
              741E6A00C45E0426C477:
                0. 12 CDDA 0057 0000:?close@fstreambase@@QECXXZ
              751EC45E0426C4770426:
                0. 1B EB41 003B 0000:?close@fstream_common@@QECXXZ
          0A8B4608C45E042689570626894704:
            26C74708000026C7470A00:
              0. 26 398C 006E 0000:??0ios@@QEC@PEVstreambuf@@@Z
            6626C74708000000006626:
              0. 1E A874 0067 0000:??0ios@@QEC@PEVstreambuf@@@Z
          0E8B460CC45E042689571626894714268957122689471089D109:
            0. 2C CB0F 004C 0000:?setp@streambuf@@IECXPED0@Z
        5E:
          04:
            83C30AF6078074068027FD800F018B5E048A470A24313C0175:
              0. 26 D3F0 00DA 0000:__fillbuf
            8B:
              37:
                01F68B84....0906....8B1F01DBFFB7....E8....31C0:
                  0. 03 2CC2 0023 0000:_matherr
                803C0074098B37FF078A0498EB03B8FFFF5E5DC3:
                  0. 00 0000 001D (l)0000:_sgetc
                D1E68B84....0906....8B1FD1E38B87....A3....31C0:
                  0. 03 2CC2 0023 0000:_matherr
              76068BC3B9E80399F7F9043088048BC399F7F989D389D0B9:
                0. 31 A0B2 0051 (l)0000:DECPUT1
              77028A049885C0740C83F801740A83F802740AEB1546EB15:
                0. 13 3EE7 003A 0000:?name@Type_info@@QBAPBDXZ
          08:
            31C98B46048B560666C1E1108BCB66C1E010660FACD01066F7:
              0. 40 AB4A 006E 0000:__halloc
            8B0783F801740B85C0741C83F802742CEB568B5E0466C70700:
              0. 53 FC97 0089 (l)0000:?fxf@@YAXPANPBDPAH@Z
        76:
          04:
            09F6750B8B36....833E....007411FF760656E8....83C404:
              0. 11 3C13 004B 0000:_strtok
            31:
              C0:
                5089C15156E8....8B4606894416C704....31C089441A:
                  0. 12 2BEA 014C 0000:??0stdiobuf@@QAC@PAU_iobuf@@@Z 002A:??1stdiobuf@@UAC@XZ 005D:?underflow@stdiobuf@@UACHXZ 00D1:?overflow@stdiobuf@@UACHH@Z 00FE:?pbackfail@stdiobuf@@UACHH@Z
                884412884413C704....5050:
                  5056E8....C744060000C7:
                    0. 1B 0EB8 003B 0000:??0streambuf@@QAC@XZ
                  89C15156E8....C7440600:
                    0. 1D 0953 003D 0000:??0streambuf@@QAC@XZ
                89442089440A894406C74408000166C7440C11000000C7:
                  0. 1A D843 003A 0000:?init@ios@@IACXPAVstreambuf@@@Z
              C9380C740F4156E8....83C40289C6803C0075F18BC15E5D:
                0. 01 EF04 0021 (?)0000:__mbslen
            3B36....7D:
              0D89F301DB8B87....A3....EB145668....B8:
                0. 00 0000 0034 0000:_strerror
              1689F3C1E3028B97....8B87....8916....A3:
                0. 00 0000 0047 0000:_strerror
            56E8....:
              8B46088944168B4E06894C1831C9894C1C894C1E50:
                0. 01 3E9B 004D 0000:??0filebuf@@QAC@HH@Z
              C74416FFFFC74418000031C089441C89441E884424:
                0. 05 5980 002E 0000:??0filebuf@@QAC@XZ
            6A0A56E8....56E8....8BC65E5DC3:
              0. 00 0000 0016 0000:?endl@@YAAAVostream@@AAV1@@Z
            80:
              3C0074:
                128BDE468A079850E8....83C402803C0075EE5E5D:
                  0. 01 EF04 0021 0000:_disp_puts
                1D68....8A049850E8....83C40483F8FF7505BE01:
                  0. 0A 7E4F 0043 0000:_puts
              7C1200:
                74:
                  14F6441880740E8B44025083C002506A0056E8:
                    0. 00 0000 003A 0000:?buffer_setup@filebuf@@AACXXZ
                  15F6441880740F8B44025083C0025031C05056E8:
                    0. 00 0000 003B 0000:?buffer_setup@filebuf@@AACXXZ
                751F837C02007519FF7608FF760656E8....:
                  09C074:
                    0. 03 0B03 0033 0000:?setbuf@filebuf@@UACPAVstreambuf@@PADH@Z
                  85C074:
                    0. 03 0B03 0033 0000:?setbuf@filebuf@@UACPAVstreambuf@@PADH@Z
            83:
              3C00740883C602833C0075F88B44025E5DC3:
                0. 00 0000 001A 0000:___seek_envp
              7C02007506807C1200740731C05E5DC20200568B1CFF570E:
                0. 05 A609 0025 0000:?allocate@streambuf@@IACHXZ
              7E0600750B56E8....31F683C402EB1B6AFF..........56:
                0. 05 0C44 0038 0000:__expand
              FE0176:
                2783FE2077226A0268....56E8....83C40668:
                  0. 01 3E9B 0036 0000:_tab_sizeputenv
                2A83FE2077256A021E68....56E8....83C4081E68:
                  0. 00 0000 0039 0000:_tab_sizeputenv
            85F6:
              74:
                0956E8....89C683C4028BC65E5DC20200:
                  0. 00 0000 001B (l)0000:STR_DUP
                0B56..........89C683C4028BC65E5DC20200:
                  0. 00 0000 001D (l)0000:STR_DUP
                1156E8....F6460601740756E8....83C4028BC65E5D:
                  0. 03 8E1E 0023 0000:??_Gfstreambase@@UACPAXI@Z (REF 000D: ??_Dfstreambase@@UACXXZ)
                  1. 03 8E1E 0023 0000:??_Gifstream@@UACPAXI@Z (REF 000D: ??_Difstream@@UACXXZ)
                  2. 03 8E1E 0023 0000:??_Gofstream@@UACPAXI@Z (REF 000D: ??_Dofstream@@UACXXZ)
                  3. 03 8E1E 0023 0000:??_Gfstream@@UACPAXI@Z (REF 000D: ??_Dfstream@@UACXXZ)
                  4. 03 8E1E 0023 0000:??_Gios@@UACPAXI@Z (REF 000D: ??1ios@@UAC@XZ)
                  5. 03 8E1E 0023 0000:??_Giostream@@UACPAXI@Z (REF 000D: ??_Diostream@@UACXXZ)
                  6. 03 8E1E 0023 0000:??_Giostream_withassign@@UACPAXI@Z (REF 000D: ??_Diostream_withassign@@UACXXZ)
                  7. 03 8E1E 0023 0000:??_Gistream@@UACPAXI@Z (REF 000D: ??_Distream@@UACXXZ)
                  8. 03 8E1E 0023 0000:??_Gistream_withassign@@UACPAXI@Z (REF 000D: ??_Distream_withassign@@UACXXZ)
                  9. 03 8E1E 0023 0000:??_Gostream@@UACPAXI@Z (REF 000D: ??_Dostream@@UACXXZ)
                  10. 03 8E1E 0023 0000:??_Gostream_withassign@@UACPAXI@Z (REF 000D: ??_Dostream_withassign@@UACXXZ)
                  11. 03 8E1E 0023 0000:??_Gstdiobuf@@UACPAXI@Z (REF 000D: ??1stdiobuf@@UAC@XZ)
                  12. 03 8E1E 0023 0000:??_Gstdiostream@@UACPAXI@Z (REF 000D: ??1stdiostream@@UAC@XZ)
                  13. 03 8E1E 0023 0000:??_Gstreambuf@@UACPAXI@Z (REF 000D: ??1streambuf@@UAC@XZ)
                  14. 03 8E1E 0023 0000:??_Gstrstreambuf@@UACPAXI@Z (REF 000D: ??1strstreambuf@@UAC@XZ)
                  15. 03 8E1E 0023 0000:??_Gstrstreambase@@UACPAXI@Z (REF 000D: ??_Dstrstreambase@@UACXXZ)
                  16. 03 8E1E 0023 0000:??_Gistrstream@@UACPAXI@Z (REF 000D: ??_Distrstream@@UACXXZ)
                  17. 03 8E1E 0023 0000:??_Gostrstream@@UACPAXI@Z (REF 000D: ??_Dostrstream@@UACXXZ)
                  18. 03 8E1E 0023 0000:??_Gstrstream@@UACPAXI@Z (REF 000D: ??_Dstrstream@@UACXXZ)
                  19. 03 8E1E 0023 0000:??_Gfstream_common@@UACPAXI@Z (REF 000D: ??_Dfstream_common@@UACXXZ)
                  20. 03 8E1E 0023 0000:??_Gfilebuf@@UACPAXI@Z (REF 000D: ??1filebuf@@UAC@XZ)
                1456E8....83C402F6460601740756E8....83C4028B:
                  0. 06 077A 0026 0000:??_GType_info@@UACPAXI@Z
                1856E8....83C40285C0740D5668....68....E8:
                  0. 05 776C 003D 0000:_perror
              75:
                0531C05E5DC36A038B440C6BC00305....50B8....50:
                  0. 01 3E9B 008A 0000:_asctime
                0B8B36....833E....007411FF760656E8....01C683:
                  0. 11 A581 0065 0000:__mbstok
            8A:
              0484C074333C2B74123C2D740E3C3A740A9889C3F687:
                0. 1B 857A 0088 (l)0000:NEXT_NUMBER (REF 007C: .)
              1C30FFF687....0474118A0430E4C1E0088A4C0130ED03C1:
                0. 0A FD38 002A 0000:__mbsnextc
            8B:
              44:
                083B440A7303FF44085E5DC20200:
                  0. 00 0000 0017 0000:?stossc@streambuf@@QACXXZ
                0E:
                  3B440C750731C05E5DC202006AFF568B1CFF570A5E5D:
                    0. 03 5E4A 0023 0000:?sync@streambuf@@UACHXZ
                  8B4C0C3BC1750731C05E5DC20200B8FFFF50568B1CFF:
                    0. 07 78D6 0027 0000:?sync@streambuf@@UACHXZ
                148B4C123BC1760B89CB8A0730E45E5DC202008B44:
                  0685:
                    0. 26 4326 007B 0000:?underflow@strstreambuf@@UACHXZ
                  1489:
                    0. 0A 7958 002A 0000:?underflow@streambuf@@UACHXZ
              46:
                06:
                  31C93BC1:
                    780289C1894C0E8B16....A1....F7D2F7D0:
                      0. 0E 2E94 002E 0000:?width@ios@@QACHH@Z
                    7902EB0289C1894C0E8B16....A1....F7D2:
                      0. 10 137E 0030 0000:?width@ios@@QACHH@Z
                  894402C744040000:
                    66C7440605000000C6440A00C644:
                      0. 0E 4EC5 0044 0000:??0ios@@QAC@PAVstreambuf@@@Z
                    C744060500C744080000C6440A00:
                      0. 10 C2FE 004A 0000:??0ios@@QAC@PAVstreambuf@@@Z
                0A8944028B46088944048A46068844135E5DC20800:
                  0. 00 0000 001E 0000:?setb@streambuf@@IACXPAD0H@Z
              4C0881E10001837E0600740A804C0901804C0C01EB088064:
                0. 11 CA78 0031 0000:?skip@ios@@QACHH@Z
              4E068B:
                C130E40944068BC180E4FC0944088BC180E4FD0944:
                  0. 06 804C 0026 0000:?setstate@ios@@IACXH@Z
                C6803C00740A8BDE46880F803C0075F65E5DC3:
                  0. 00 0000 001E 0000:_strset
              5E:
                048A079885C0740C83F801740A83F802740AEB1546EB17:
                  0. 1C 0368 003C (l)0000:?__get_name@@YAPADPBD@Z
                068B4E08E32CB441B65A90AC8A17433AC27504E2F6EB1B:
                  0. 29 52D6 0049 0000:_memicmp
              DE468A1F30FFF687....04740A803C0074058D4401EB028B:
                0. 04 7D88 0024 0000:__mbsinc
            B00A5056E8....56E8....8BC65E5DC3:
              0. 00 0000 0017 0000:?endl@@YAAAVostream@@AAV1@@Z
            B8:
              FFFF837C1A0074278B440C85C074072B440A740EEB0439E4:
                0. 1C F826 003C 0000:?detach@filebuf@@QACHXZ
              ....89048B:
                460689440289F05E5DC3:
                  0. 00 0000 0017 0000:?setfill@@YA?AVsmanip_int@@H@Z (REF 0008: ?sfill@@YAAAVios@@AAV1@H@Z)
                  1. 00 0000 0017 0000:?setprecision@@YA?AVsmanip_int@@H@Z (REF 0008: ?sprec@@YAAAVios@@AAV1@H@Z)
                  2. 00 0000 0017 0000:?setw@@YA?AVsmanip_int@@H@Z (REF 0008: ?swidth@@YAAAVios@@AAV1@H@Z)
                  3. 00 0000 0017 0000:?setbase@@YA?AVsmanip_int@@H@Z (REF 0008: ?sbase@@YAAAVios@@AAV1@H@Z)
                56088B460689540489440289F05E5DC3:
                  0. 00 0000 001D 0000:?setiosflags@@YA?AVsmanip_long@@J@Z (REF 0008: ?sios@@YAAAVios@@AAV1@J@Z)
                  1. 00 0000 001D 0000:?resetiosflags@@YA?AVsmanip_long@@J@Z (REF 0008: ?rsios@@YAAAVios@@AAV1@J@Z)
            C45E06FF4606268A078BDE46880784C075EE5E5DC3:
              0. 00 0000 001C (l)0000:_fartonearcpy
            C606....0085F67419803C00741468....5668....E8....83:
              0. 04 3B6E 004A 0000:__strerror
            C704....:
              31C089440289440489440689440A89440C89440E89:
                0. 12 0648 0032 0000:??0streambuf@@QAC@XZ
              56E8....807C2500740456E8....56E8....5E5DC2:
                0. 19 D48D 0043 0000:??1filebuf@@UAC@XZ
                1. 02 F73C 0022 0000:??1filebuf@@UAC@XZ
              6AFF56E8....56E8....5E5DC20200:
                0. 00 0000 001A 0000:??1stdiobuf@@UAC@XZ
              807C130074:
                0D837C02007407FF7402E8....585E5D:
                  0. 1A 0883 0044 0000:??1streambuf@@UAC@XZ
                0F837C02007409FF7402E8....83C402:
                  0. 05 A609 0025 0000:??1streambuf@@UAC@XZ
              837C:
                02007409FF7406E8....83C4025E5DC20200:
                  0. 00 0000 001F 0000:??1streambuf@@UAC@XZ
                1800740656E8....EB066AFF56E8....56E8:
                  0. 00 0000 0026 0000:??1filebuf@@UAC@XZ
              8A441A24033C01751A8B441885C0740AFF7406FFD0:
                0. 09 EECB 0037 0000:??1strstreambuf@@UAC@XZ
              8B441E85C0740750E8....83C4025E5DC20200:
                0. 00 0000 001E 0000:??1ios@@UAC@XZ
              8D442250E8....56E8....5E5DC20200:
                0. 00 0000 001B 0000:??1stdiostream@@UAC@XZ
              C7441E0000FF760656E8....89F05E5DC20400:
                0. 00 0000 001E 0000:??0ios@@QAC@PAVstreambuf@@@Z
              F6441603750F837C02007409FF7402FF541C83C402:
                0. 02 26E3 0029 0000:??1strstreambuf@@UAC@XZ
            EB:
              01468A0408C074133C2B74F53C2D74F18A1C30FFF687:
                0. 1E CBD3 0628 04CF:_tzset 04F9:_localtime (05E8: 5D) (REF 03AB: .)
                1. 1E CBD3 0697 0515:_tzset 054E:_localtime (05E8: BE) (REF 03E2: .)
              0B8BDE468A079850E8....59803C0075F05E5DC3558BEC56:
                0. 11 E82D 0127 0000:_disp_puts 001C:_disp_fillbox 0046:_disp_box
              1AB8....508A049850E8....83C40483F8FF7506B801005E:
                0. 09 6EC8 0042 0000:_puts
            F644:
              060874288B440485C0740D50E8....806406F783C402EB:
                0. 0B 4033 004A 0000:_FREEBUF
              1A017410837E06007406804C1A02EB0480641AFD5E5DC2:
                0. 02 2768 0022 0000:?freeze@strstreambuf@@QACXH@Z
            FF:
              7406FF7404FF7402FF348B44068B4C028B148B5C04E8:
                0. 0D 3AB6 0631 0000:?asinh@@YANABN@Z 0058:?acosh@@YANABN@Z 00B0:?atanh@@YANABN@Z 010B:?asin@@YA?AVcomplex@@ABV1@@Z 0300:?acos@@YA?AVcomplex@@ABV1@@Z 04C2:?atan@@YA?AVcomplex@@ABV1@@Z
                1. 0D F64D 0058 0000:?asinh@@YANABN@Z (REF 002D: __DADD@)
                2. 0D F64D 0058 0000:?acosh@@YANABN@Z (REF 002D: __DSUB@)
              760AFF760856E8....8B460C8944168B4E06894C1831C989:
                0. 07 25FE 0057 0000:??0filebuf@@QAC@HPADHH@Z
          06:
            31C985F6741B394E0474088A04988B5E048907380C740A837E:
              0. 0D 11ED 002D 0000:_mbtowc
            8B5E088B4E0AE32CB441B65A90AC8A17433AC27504E2F6EB1B:
              0. 29 3333 0049 0000:_memicmp
            FF76046A00..........81FE0004730F89F101C98EC289C303:
              0. 0A 2D11 0032 0000:_wmhandler_get
          08:
            368B0483C002:
              368D5C02363B077C:
                2E368907368B07C1E00250:
                  0. 09 B84C 0067 (l)0000:ADDARGP
                30368907368B07C1E00250:
                  0. 08 C103 0069 (l)0000:ADDARGP
              89F383C302368B0F3BC17C:
                2F368907368B07D1:
                  0. 0D 7775 02DE 006C:RESPONSE_EXPAND (02B0: 00)
                  1. 0D 7775 02DF 006C:RESPONSE_EXPAND (02B0: 08)
                31368907368B07D1:
                  0. 0C 790F 0300 006E:RESPONSE_EXPAND (02D3: 00)
                  1. 0C 790F 0301 006E:RESPONSE_EXPAND (02D3: 08)
            83:
              7E04007504C70403008A46069883F841740C83F853740D83:
                0. 8D 1054 0130 00C0:??5istream@@QACAAV0@AAM@Z 0104:??5istream@@QACAAV0@AAN@Z
              FE017C063936....7D0A8CDAB8....5E5DC20600C45E0426:
                0. 0D 5450 0058 (?)0000:?iword@ios@@QECAEJH@Z (002A: 00)
            85F6740FB8001039C676048BCEEB0789C1EB03B90020C45E04:
              0. 0B 71C4 00B2 0000:_initialize_buffers
            8B46060B46047433FF7606FF7604E8....83C4043BC675098B:
              0. 0D D3E6 0048 0000:__mbschr
            F644068374:
              0556E8....59FF7604FF760656E8....5E5DC3:
                0. 00 0000 001F 0000:_freopen
              0756E8....83C402FF7604FF760656E8....5E5D:
                0. 01 EF04 0021 0000:_freopen
            FF76046A04..........837E0A00750583FE23760631C0995E:
              0. 2A 336B 004A 0000:_winio_wmcommand
          0AFF760C56FF7608FF7606FF7604E8....83C40A85C074035E5D:
            0. 13 542E 003B 0000:__lsearch
          0C:
            83FE0A7536837E06007F307C06837E04007328C45E0826C607:
              0. 19 F41D 0054 0000:_ltoa (001A: C3)
              1. 19 F41D 0058 0000:_ltoa (001A: C4)
            8B:
              4E0E09C9742449C45E08FF4608268A17C45E04FF46042688:
                0. 3E 5912 005E 0000:_memccpy 0038:_fmemccpy
              560E85D274244AC45E08268A0FFF4608C45E04FF46042688:
                0. 18 899C 0038 0000:_memccpy
            D1EEEB1DC45E04268A17268A4701C45E0826880726885701B8:
              0. 12 5BE8 0032 0000:_swab
          10:
            66C704FFFFFFFFC74404010089F05E5DC20E00:
              0. 00 0000 001A 0000:?seekoff@streambuf@@UAC?AVstreampos@@Vstreamoff@@W4relative_to@ios@@H@Z
            FF76125666FF760C66FF760866FF7604E8....83C41089D109:
              0. 21 2A25 0049 0000:__lsearch
      8C:
        D88EC08B5E:
          048B7606F6C3018BCB740A8A044688074384C074158A:
            0. 1F 1F07 003F 0000:_strcpy
          068B76:
            048A178A043AC2753984C074308A57018A4401:
              0. 38 8FD3 0058 0000:_strcmp
            08F6C3018BCB740A8A044688074384C074158A:
              0. 1F 3F5D 003F 0000:_strcpy
          088B76068A178A043AC2753984C074308A57018A4401:
            0. 38 C75F 0058 0000:_strcmp
        D9C45E:
          08C57604268A178A043AC2753C84C07433268A57018A4401:
            0. 3C A163 005C 0000:_strcmp
          0AC57606268A178A043AC2753C84C07433268A57018A4401:
            0. 3C E9EF 005C 0000:_strcmp
        DAC45E:
          04C57608F6C3018BCB740B8A04462688074384C074168A04:
            0. 24 74C6 0044 0000:_strcpy
          06C5760AF6C3018BCB740B8A04462688074384C074168A04:
            0. 24 2CE7 0044 0000:_strcpy
      A1....0B06....:
        7428C41E....268B4722263B4724751AE8....A1:
          0. 00 0000 008A 0000:_chInput
        7503E8....:
          66FF760866FF76041EB8....50E8:
            0. 08 D215 0036 0000:_vprintf
          FF7606FF7604B8....50E8....83C406:
            0. 04 744A 0032 0000:_vprintf
      B4368A5604CD2183F8FF74:
        108B760689:
          14895C0289:
            4404894C06EB0B:
              0. 03 FC1A 0030 0000:__dos_getdiskfree
            4C0489440631C0:
              0. 03 2CC2 0023 0000:__dos_getdiskfree
          1C895402894C0489440631C0:
            0. 03 2CC2 0023 0000:__dos_getdiskfree
        121EC5760689:
          14895C0289:
            4404894C061F:
              0. 05 58BF 0032 0000:__dos_getdiskfree
            4C048944061F:
              0. 05 DB2F 0025 0000:__dos_getdiskfree
          1C895402894C048944061F:
            0. 05 DB2F 0025 0000:__dos_getdiskfree
      B8000250E8....5989C609C07508B8FFFF5E5DC20200568BC6050002:
        0. 09 84D6 0033 0000:?doallocate@streambuf@@MACHXZ
      BA....B8....C45E0426:
        8957:
          02268907:
            31C026894704268947068B56:
              0. 57 E796 0077 0000:??0streambuf@@QEC@PEDH@Z
            C47608268B5406268B4404C4:
              0. 11 EEB5 0031 0000:??0Type_info@@AEA@AFV0@@Z
          0C2689470ABA....B8....26C4770426:
            0. 11 E41A 0058 0000:??1iostream@@UEC@XZ (0015: 0A)
            1. 11 E41A 0058 0000:??1strstream@@UEC@XZ (0015: 14)
            2. 11 E41A 004C 0000:??1iostream_withassign@@UEC@XZ
          3E2689473CBA....B8....26C4770426:
            0. 11 E41A 0058 0000:??1istrstream@@UEC@XZ (REF 0005: ??_Qistrstream@@6Fistream@@@)
            1. 11 E41A 0058 0000:??1ostrstream@@UEC@XZ (REF 0005: ??_Qostrstream@@6Fostream@@@)
          4226894740BA....B8....26C4770426:
            0. 11 E41A 0058 0000:??1ifstream@@UEC@XZ (REF 0005: ??_Qifstream@@6Fistream@@@)
            1. 11 E41A 0058 0000:??1ofstream@@UEC@XZ (REF 0005: ??_Qofstream@@6Fostream@@@)
          4826894746BA....B8....2689573E26:
            0. 04 73A7 0066 0000:??1strstream@@UEC@XZ
          4C2689474ABA....B8....2689574226:
            0. 04 17FE 0066 0000:??1fstream@@UEC@XZ
        C47704268B4C02C4760403F1268954062689:
          0. 03 6ADE 004A 0000:??1ostrstream@@UEC@XZ (001F: E8) (REF 0005: ??_Qostrstream@@6Fios@@@)
          1. 03 6ADE 0043 0000:??1fstream_common@@UEC@XZ (001F: 00) (REF 0005: ??_Qfstream_common@@6Fios@@@)
          2. 03 6ADE 0043 0000:??1strstreambase@@MEC@XZ (001F: 00) (REF 0005: ??_Qstrstreambase@@6Fios@@@)
          3. 03 6ADE 0043 0000:??1fstreambase@@UEC@XZ (001F: 00) (REF 0005: ??_Qfstreambase@@6Fios@@@)
          4. 03 6ADE 0050 0000:??_Dfstream_common@@UECXXZ (001F: C6)
          5. 03 6ADE 004A 0000:??1istrstream@@UEC@XZ (001F: E8) (REF 0005: ??_Qistrstream@@6Fios@@@)
          6. 03 6ADE 003E 0000:??1istream_withassign@@UEC@XZ (REF 0005: ??_Qistream_withassign@@6Fios@@@)
          7. 03 6ADE 003E 0000:??1ostream@@UEC@XZ (REF 0005: ??_Qostream@@6Fios@@@)
          8. 03 6ADE 003E 0000:??1ostream_withassign@@UEC@XZ (REF 0005: ??_Qostream_withassign@@6Fios@@@)
          9. 03 6ADE 0037 0000:??1istream@@UEC@XZ (REF 0005: ??_Qistream@@6Fios@@@)
      BE:
        FFFFC45E0426837F2C007431817E080040751168004026FF7728E8:
          0. 00 0000 0049 0000:?setmode@filebuf@@QECHH@Z
        ....:
          8B44:
            06A883740BA840740756E8....83C40283C60E81FE:
              0. 05 3112 0025 0000:__flushterm
            0AA883740CA84074081E56E8....83C40483C61081FE:
              0. 00 0000 0026 0000:__flushterm
          EB:
            1AF604837512FF7604FF760689F083C0FA50E8....5E5DC3:
              0. 05 53B3 0034 0000:_fopen
            1DF604837515FF7604FF760689F083C0FA50FF7608E8:
              0. 08 5DA6 0037 0000:__fsopen
            21F604837519FF7606FF7604FF760AFF76081E89F083C0F6:
              0. 02 F6B7 003C 0000:_fopen
            24F60483751CFF7606FF7604FF760AFF76081E89F083C0F6:
              0. 05 20EB 003F 0000:__fsopen
          F6:
            048375:
              10FF7604FF76068D44FA50E8....5E5DC383C60E81:
                0. 01 89EE 002F 0000:_fopen
              13:
                66FF760466FF76081E8D44F650E8....5E5DC383:
                  0. 04 ED82 0033 0000:_fopen
                FF7604FF76068D44FA50FF7608E8....5E5DC383:
                  0. 04 6317 0032 0000:__fsopen
              1666FF760466FF76081E8D44F650FF760CE8....5E:
                0. 07 5432 0036 0000:__fsopen
            44:
              0683740756E8....83C40283C60E81FE....72EA5E5DC3:
                0. 00 0000 0020 0000:___fcloseall
              0A8374081E56E8....83C40483C61081FE....72E95E5D:
                0. 01 EF04 0021 0000:___fcloseall
      C4:
        1E....268A47FFC41E....26880768....:
          68....8E06....26FF36:
            0. 00 0000 0136 0000:_ReadInBuf 00C8:_WriteOutBuf (0115: C3)
            1. 00 0000 013A 0000:_ReadInBuf 00CA:_WriteOutBuf (0115: 01)
          FF36....A1....8B16:
            0. 00 0000 00FC 0000:_ReadInBuf 00A0:_WriteOutBuf (00DB: C3)
            1. 00 0000 0100 0000:_ReadInBuf 00A2:_WriteOutBuf (00DB: 01)
        5E:
          0426:
            803F0074:
              281E68....C45E04268A079850E8....83C40683:
                0. 17 778D 0050 0000:_puts
              6EC45E0826803F007465C45E04268A07C45E0826:
                0. 0C 4FD3 00E0 0000:__mbscmp (REF 0037: .)
            837F:
              04007426268B570A268B470889D109C174183B561075:
                0. 0F E960 009C 0000:?setb@streambuf@@IECXPED0H@Z
              28FF:
                7418268B4712260B47107409FF760653E8....89:
                  0. 20 D215 004B 0000:?sync@filebuf@@UECHXZ
                75:
                  0626C7472C0000C45E0426837F2C00750831C0:
                    0. 4D A25D 0099 0000:?close@filebuf@@QECPEV1@XZ
                  2531F68B460A2689472AA80A740EA8017405BE:
                    0. 15 2161 00FD 0000:?open@filebuf@@QECPEV1@PFDHH@Z
                    1. 15 5A97 00F6 0000:?open@filebuf@@QECPEV1@PFDHH@Z
              3400741B6A0226C47704268B44028B56068BF303F083:
                0. 05 4E17 007F 0000:?attach@fstreambase@@QECXH@Z
            8B:
              37:
                01F68B84....0906....268B1F01DBFFB7....E8:
                  0. 05 DB2F 0025 0000:_matherr
                D1E68B84....0906....268B1FD1E38B87....A3:
                  0. 05 DB2F 0025 0000:_matherr
              4720263B4724720DFF76065326C43726FF5406EB0426FF:
                0. 07 0F9B 0027 0000:?stossc@streambuf@@QECXXZ
            C4:
              3726803C007413C47604268B1C26FF04268E4402268A07:
                0. 09 CD35 0029 (l)0000:_sgetc
              7704268B4402C4760403F0:
                26:
                  80:
                    4C:
                      10808B56068BC35E5D:
                        0. 01 EF04 0021 0000:?showbase@@YAAEVostream@@AEV1@@Z
                      11:
                        018B56068BC35E5D:
                          0. 01 EF04 0021 0000:?showpoint@@YAAEVostream@@AEV1@@Z
                        028B56068BC35E5D:
                          0. 01 EF04 0021 0000:?uppercase@@YAAEVostream@@AEV1@@Z
                    6411E28B56068BC35E5D:
                      0. 01 EF04 0021 0000:?floating@@YAAEVostream@@AEV1@@Z
                    7C1400751B268B540E26:
                      0. 0C F211 003D 0000:?opfx@ostream@@QECHXZ
                  8B540A268B4408:
                    52508EC2:
                      0. 28 19B0 0055 0000:?flush@ostream@@QECAEV1@XZ
                      1. 3C E9DE 005C 0000:?sync@istream@@QECHXZ
                    89D109C1:
                      0. 1A 2121 003A 0000:?flush@ostream@@QECAEV1@XZ
                  F644:
                    10:
                      8475:
                        2566FF76086A:
                          0. 3A 4575 0067 0000:?seekg@istream@@QECAEV1@J@Z
                          1. 3A 8A62 0067 0000:?seekp@ostream@@QECAEV1@J@Z
                        2866FF760AFF:
                          0. 3D 11F3 008F 0000:?seekp@ostream@@QECAEV1@JW4seek_dir@ios@@@Z
                          1. 3D DEE4 008F 0000:?seekg@istream@@QECAEV1@JW4seek_dir@ios@@@Z
                      8675:
                        0E26F6441720:
                          0. 07 1E4E 0053 0000:?do_osfx@ostream@@IECXXZ
                        1B268B540E26:
                          0. 0C F211 003D 0000:?do_opfx@ostream@@IECHXZ
                    17607407FF760653E8:
                      0. 00 0000 0027 0000:?osfx@ostream@@QECXXZ
                83C604268064:
                  0CF126804C0C:
                    0. 09 1647 0029 0000:?internal@@YAAEVostream@@AEV1@@Z
                    1. 09 26A3 0029 0000:?leftjust@@YAAEVostream@@AEV1@@Z
                    2. 09 3907 0029 0000:?rightjust@@YAAEVostream@@AEV1@@Z
                  0DE726804C0D:
                    0. 09 1647 0029 0000:?scientific@@YAAEVostream@@AEV1@@Z
                    1. 09 48C7 0029 0000:?fixed@@YAAEVostream@@AEV1@@Z
            F6472801751C268B772A85F67F03BE200056C45E0426FF57:
              0. 1E D220 0047 0000:?doallocate@strstreambuf@@MECHXZ
          0626:
            837F0400741C26FF4F048A4604268B3726FF07268E470226:
              0. 10 A166 0030 (l)0000:___snprintf
            F6470A327510837E04FF740A268B4708260B47067507C746:
              0. 53 B8C0 02AA 0000:_ungetc 005B:_fseek 01CC:_ftell 0260:_fgetpos 028C:_fsetpos
          0826:
            C47704268B4402C4760803F026FF740A26FF7408C45E0426:
              0. 14 F340 0041 (?)0000:??4istream_withassign@@QECAEV0@AEVistream@@@Z (000C: 00)
            FF770626FF7704C45E0426C47704268B44028B56068BF303:
              0. 07 C7CA 0034 0000:??4iostream_withassign@@QECAEV0@AEVios@@@Z
          0C268B0783F801740B85C0741E83F8027430EB5FC45E046626C7:
            0. 5E C14E 0098 (l)0000:?fxf@@YAXPENPFDPEH@Z
      E8....89C6:
        68000CE8....66FF76:
          04E8....89560689460456E8:
            0. 0C 4C93 002C 0000:_truncf
          0866FF7604E8....89460A895E08:
            0. 08 F277 003C 0000:_trunc
        6A00E8....66FF76:
          04E8....89560689460456E8....83:
            0. 0B 68D5 002B 0000:_roundf
          0866FF7604E8....89460A895E0889:
            0. 07 101F 003B 0000:_round
        B8FFFF3BF075035E5DC3C41E....26837F4C00740756E8:
          0. 00 0000 002A 0000:_fgetchar
      F6460A087406804E0A02EB0D8A460A240F3C027504804E0A10C45E04:
        0. 1E 327B 009F 0000:?open@fstreambase@@QECXPFDHH@Z
      FF76:
        06FF7604:
          B8....5068....E8....89C683C408F606....40740A:
            0. 01 BBC9 002F 0000:_vprintf
          C45E0426C43726FF54:
            06B9FFFF3BC189C8740CC45E04:
              0. 0E C3B7 002E 0000:?do_snextc@streambuf@@AECHXZ
            08C45E0426807F25007418268B:
              0. 11 0E30 00C6 0000:?setbuf@streambuf@@UECPEV1@PEDH@Z (0094: 00)
              1. 11 0E30 00CA 0000:?setbuf@streambuf@@UECPEV1@PEDH@Z (0094: 5E)
          E8....8B460AC45E04268947288B4E0826894F2A31F6:
            0. 14 06F7 008F 0000:??0filebuf@@QEC@HH@Z
            1. 14 B8A6 0071 0000:??0filebuf@@QEC@HH@Z
        0AFF76088B56068B460483C0085250E8....89D109C17520C45E:
          0. 39 DE00 0059 0000:?attach@fstream_common@@QECXHH@Z
        0EFF760CFF760AFF7606FF7604E8....8B4610C45E0426894728:
          0. 1D 2629 0084 0000:??0filebuf@@QEC@HPEDHH@Z
    57:
      1EC57E048B158B4D02B42B..........32E41F5F8BE55DC3558BEC57:
        0. 02 11DC 0069 0000:_dos_setdate 001C:_dos_getdate 0035:_dos_settime 004F:_dos_gettime
      33DBB459..........:
        1EC57E048CDA0BD7740A890586FB895D02886D:
          0. 05 03CD 0025 0000:_dosexterr
        8B7E04:
          0BFF740A890586FB895D02886D045F5D:
            0. 01 EF04 0021 0000:_dosexterr
          85FF740A890586FB895D02886D045F5D:
            0. 01 EF04 0021 0000:_dosexterr
      56:
        6A006A006A00FF76:
          04E8....83C4080BD07408B8FFFF5E5FC9C390:
            0. 10 FEE9 02D0 0000:_CopyFile 00F8:_ExpandOrCopyFile 01C8:_Expand
          06..........83C4080BD07408B8FFFF5E5FC9:
            0. 11 61D1 02F6 0000:_CopyFile 0100:_ExpandOrCopyFile 01DA:_Expand
        8B4E:
          048B46068BF98ED88B76088E460A8BDE46268A078BDF478807:
            0. 05 705D 07C4 (l)0000:lStringCopy 0032:LZINIT 0206:GETEXPANDEDNAME 02B4:LZOPENFILE 034C:LZSEEK 03F2:LZREAD 0756:LZCLOSE (06C2: 1E)
            1. 05 705D 06EA (l)0000:lStringCopy 0032:LZINIT 01C2:GETEXPANDEDNAME 0260:LZOPENFILE 02EC:LZSEEK 0392:LZREAD 0686:LZCLOSE (06C2: C2)
          068B46088BF98ED88B760A8E460C8BDE46268A078BDF478807:
            0. 05 705D 07F2 (l)0000:lStringCopy 0032:LZINIT 0212:GETEXPANDEDNAME 02CC:LZOPENFILE 036C:LZSEEK 0414:LZREAD 077E:LZCLOSE (06F8: 18)
            1. 05 705D 071E (l)0000:lStringCopy 0032:LZINIT 01CE:GETEXPANDEDNAME 0278:LZOPENFILE 0310:LZSEEK 03B8:LZREAD 06B4:LZCLOSE (06F8: 00)
        C47E06FC33C0B9FFFFF2AE8BC1F7D848485E5F8BE55DCA0400558B:
          0. 0F 3C8D 09F6 0000:LSTRLEN 001E:LSTRCMPI 0068:REPEATMOVE (l)008A:GetFileAttr (l)00A1:GetCurDrive (l)00AD:GetCurDir (l)012E:GetEnvBlock 0143:GETENVVAR 01BA:FINDFILEONPATHS 03CD:FILEINUSE 0414:MAKEFILENAME (l)048C:GetDirOfFile 053B:GETWINDOWSDIR 05A0:GETSYSTEMDIR 06D2:VERFINDFILE 0984:VERLANGUAGENAME (09C6: 00)
          1. 0F 3C8D 0A02 0000:LSTRLEN 001E:LSTRCMPI 0068:REPEATMOVE (l)008A:GetFileAttr (l)00A1:GetCurDrive (l)00AD:GetCurDir (l)012E:GetEnvBlock 0143:GETENVVAR 01BA:FINDFILEONPATHS 03CF:FILEINUSE 0416:MAKEFILENAME (l)048E:GetDirOfFile 053E:GETWINDOWSDIR 05A3:GETSYSTEMDIR 06D5:VERFINDFILE 0987:VERLANGUAGENAME (09C6: C6)
          2. 10 5C60 09F0 0000:LSTRLEN 001E:LSTRCMPI 0064:REPEATMOVE (l)0086:GetFileAttr (l)009D:GetCurDrive (l)00A9:GetCurDir (l)012A:GetEnvBlock 013F:GETENVVAR 01B6:FINDFILEONPATHS 03C9:FILEINUSE 0410:MAKEFILENAME (l)0488:GetDirOfFile 0537:GETWINDOWSDIR 059C:GETSYSTEMDIR 06CE:VERFINDFILE 097E:VERLANGUAGENAME (09BF: 00)
          3. 10 5C60 09FC 0000:LSTRLEN 001E:LSTRCMPI 0064:REPEATMOVE (l)0086:GetFileAttr (l)009D:GetCurDrive (l)00A9:GetCurDir (l)012A:GetEnvBlock 013F:GETENVVAR 01B6:FINDFILEONPATHS 03CB:FILEINUSE 0412:MAKEFILENAME (l)048A:GetDirOfFile 053A:GETWINDOWSDIR 059F:GETSYSTEMDIR 06D1:VERFINDFILE 0981:VERLANGUAGENAME (09BF: C6)
      8B:
        3E....31C050:
          50FF7606FF7604E8....83C408893E....5F5DC3:
            0. 00 0000 001F 0000:_atof
          FF7604E8....83C404893E....5F5DC3:
            0. 00 0000 001B 0000:_atof
        460A8B5E088B4E068B56048BF881E7F07F74:
          3581FFF07F744DD1EF:
            0. 6E EEF6 0379 0000:_frexp 007C:_logb 00F6:_rint 01FD:___flt_rounds 020F:_nextafter
          3681FFF07F744ED1EF:
            0. 6F 7C96 037A 0000:_frexp 007D:_logb 00F7:_rint 01FE:___flt_rounds 0210:_nextafter
        4E:
          088CDA8EC28B7E048A46068BDF83F90A7215F6C3017402AA49D1:
            0. 11 5FE4 0031 0000:_memset
          0A:
            8CDA8EC28B7E068A46088BDF83F90A7215F6C3017402AA49D1:
              0. 11 7FBE 0031 0000:_memset
            C47E048A46088BDF83F90A7217F6C3017402AA49D1E98AE0F3:
              0. 0F 06A5 002F 0000:_memset
          0CC47E068A460A8BDF83F90A7217F6C3017402AA49D1E98AE0F3:
            0. 0F 26FF 002F 0000:_memset
        7E:
          04:
            578B1DFF5706B9FFFF3BC189C874078B5D128A0730E45F5DC2:
              0. 02 F73C 0022 0000:?do_snextc@streambuf@@AACHXZ
            6A0157E8....85C07432FF7608FF76068B5D028B5F0203DFFF:
              0. 03 37C6 004F 0000:?read@istream@@QACAAV1@PAXH@Z
            837D1E0074136A028B5D028B470203C783C00250E8....EB32:
              0. 08 3075 0057 0000:?attach@fstreambase@@QACXH@Z
            85FF740D8B5D028B470203C783C002EB0231C050FF560683C4:
              0. 08 64FA 0028 (?)0000:??5istream@@QACAAV0@P6AAAVios@@AAV1@@Z@Z
            8B:
              158B4D02B42B..........32E45F8BE55DC3558BEC57B42A:
                0. 00 0000 0064 0000:_dos_setdate 001A:_dos_getdate 0032:_dos_settime 004B:_dos_gettime
              45123B45147208578B1DFF5706EB03FF45125F5DC20200:
                0. 00 0000 001F 0000:?stossc@streambuf@@QACXXZ
              460630E48D5D068B0F81E180000BC189078B4D0830C90BC8:
                0. 12 5D29 0032 0000:?clear@ios@@QACXH@Z
              5D028B5F0203DF:
                807F0C0075138B470685C0740450E8:
                  0. 0F FFB1 002F 0000:?opfx@ostream@@QACHXZ
                8B47045089C38B1FFF57:
                  08B9FFFF3BC175:
                    0. 23 FC9A 0043 0000:?sync@istream@@QACHXZ
                  1283F8FF75116A:
                    0. 0E 6675 0037 0000:?flush@ostream@@QACAAV1@XZ
                C74702....C705....:
                  57E8....5F5DC202:
                    0. 01 78F0 0021 0000:??1istream_withassign@@UAC@XZ (REF 0012: ??_Qistream_withassign@@6Bios@@@)
                    1. 01 78F0 0021 0000:??1ostream_withassign@@UAC@XZ (REF 0012: ??_Qostream_withassign@@6Bios@@@)
                    2. 01 78F0 0021 0000:??1ostream@@UAC@XZ (REF 0012: ??_Qostream@@6Bios@@@)
                  5F5DC20200:
                    0. 00 0000 001D 0000:??1istream@@UAC@XZ
                  8D45:
                    0450E8....:
                      5F:
                        0. 04 D52E 0024 0000:??1fstreambase@@UAC@XZ (REF 0012: ??_Qfstreambase@@6Bios@@@)
                        1. 04 D52E 0024 0000:??1fstream_common@@UAC@XZ (REF 0012: ??_Qfstream_common@@6Bios@@@)
                        2. 04 D52E 0024 0000:??1strstreambase@@MAC@XZ (REF 0012: ??_Qstrstreambase@@6Bios@@@)
                      8D:
                        0. 04 CE4C 002B 0000:??_Dfstream_common@@UACXXZ
                    0650E8....57:
                      0. 01 3E9B 0028 0000:??1istrstream@@UAC@XZ (REF 0012: ??_Qistrstream@@6Bios@@@)
                      1. 01 3E9B 0028 0000:??1ostrstream@@UAC@XZ (REF 0012: ??_Qostrstream@@6Bios@@@)
                F647:
                  08:
                    8475:
                      1B66FF76066A:
                        018B47045089:
                          0. 1F EFB3 0048 0000:?seekg@istream@@QACAAV1@J@Z
                        028B47045089:
                          0. 1F EFB3 0048 0000:?seekp@ostream@@QACAAV1@J@Z
                      1E66FF7608FF76066A:
                        018B47:
                          0. 22 A3B8 0062 0000:?seekg@istream@@QACAAV1@JW4seek_dir@ios@@@Z
                        028B47:
                          0. 22 A3B8 0062 0000:?seekp@ostream@@QACAAV1@JW4seek_dir@ios@@@Z
                    8675:
                      0AF6470F20740457E8....8B:
                        0. 0E 6614 003E 0000:?do_osfx@ostream@@IACXXZ
                      138B470685C0740450E8:
                        0. 0F FFB1 002F 0000:?do_opfx@ostream@@IACHXZ
                  0F60740457E8....5F5DC20200:
                    0. 00 0000 001E 0000:?osfx@ostream@@QACXXZ
              5E06FF77028B5D028B470203C783C00250E8....89F85F5D:
                0. 03 8E1E 0023 0000:??4iostream_withassign@@QACAAV0@AAVios@@@Z
            8D:
              450450E8....85C0:
                74136A008B5D028B470203C783C00250:
                  0. 01 3E9B 003B 0000:?close@fstreambase@@QACXXZ
                75148B5D028B5F0203DF83C30C8A070C:
                  0. 0B 8F92 002B 0000:?close@fstream_common@@QACXXZ
              5D088B0785C074298B4D0E85C974228B550A3BD1731B8B55:
                0. 21 37F1 0041 0000:?underflow@strstreambuf@@UACHXZ
            C7:
              05....8B5E068B470289450289F85F5DC3:
                0. 00 0000 0019 0000:??0Type_info@@AAA@ABV0@@Z
              45:
                06....8B5D028B5F0203DFC74702....C705....:
                  57E8:
                    0. 00 0000 0026 0000:??1iostream_withassign@@UAC@XZ
                  8D45:
                    06:
                      0. 02 F6B7 002D 0000:??1iostream@@UAC@XZ
                    0C:
                      0. 02 F6B7 002D 0000:??1strstream@@UAC@XZ
                24....8B5D028B5F0203DFC74702....C705....8D4524:
                  0. 02 F6B7 002D 0000:??1istrstream@@UAC@XZ (REF 000A: ??_Qistrstream@@6Bistream@@@)
                  1. 02 F6B7 002D 0000:??1ostrstream@@UAC@XZ (REF 000A: ??_Qostrstream@@6Bostream@@@)
                28....8B5D028B5F0203DFC74702....C705....8D4528:
                  0. 02 F6B7 002D 0000:??1ifstream@@UAC@XZ (REF 000A: ??_Qifstream@@6Bistream@@@)
                  1. 02 F6B7 002D 0000:??1ofstream@@UAC@XZ (REF 000A: ??_Qofstream@@6Bostream@@@)
                2A....:
                  8B5D028B5F0203DFC74702....C705....8D452A:
                    0. 02 F6B7 0041 0000:??1ifstream@@UAC@XZ (REF 000A: ??_Qifstream@@6Bistream@@@)
                    1. 02 F6B7 0041 0000:??1ofstream@@UAC@XZ (REF 000A: ??_Qofstream@@6Bostream@@@)
                  C74524....8B5D028B5F0203DFC74702....C705:
                    0. 00 0000 0032 0000:??1strstream@@UAC@XZ
                2E....C74528....8B5D028B5F0203DFC74702....C705:
                  0. 00 0000 0032 0000:??1fstream@@UAC@XZ
                30....C7452A....8B5D028B5F0203DFC74702....C705:
                  0. 00 0000 0046 0000:??1fstream@@UAC@XZ
            F64608087406804E0802EB0D8A4608240F3C027504804E0810:
              0. 15 79DB 0076 0000:?open@fstreambase@@QACXPBDHH@Z
            FF76:
              068B5D028B470203C783C00250E8....89F85F5DC20400:
                0. 00 0000 0020 (?)0000:??4iostream_withassign@@QACAAV0@PAVstreambuf@@@Z
              08FF7606:
                8B5D028B5F0203DFFF7704E8....8945043B46:
                  0. 18 51C9 0038 0000:?write@ostream@@QACAAV1@PBXI@Z
                8D450450:
                  8B5D04FF570285C074136A008B5D02:
                    0. 0A A5CA 0044 0000:?setbuf@fstreambase@@QACXPADH@Z
                  E8....85C075168B5D028B5F0203DF:
                    0. 20 32F9 0040 0000:?attach@fstream_common@@QACXHH@Z
              0AFF7608FF76068D450450E8....85C075168B5D028B5F:
                0. 23 9624 0043 0000:?open@fstream_common@@QACXPBDHH@Z
          06:
            837D02007414FF4D028A46048B1DFF0588078B460430E45F5D:
              0. 07 9BE8 0027 (l)0000:___snprintf
            8B0583C002:
              89FB83C3028B0F3BC17C:
                1F89078B07D1E050FF75:
                  0. 02 6103 0211 004B:RESPONSE_EXPAND (01EE: 00)
                  1. 02 6103 0212 004B:RESPONSE_EXPAND (01EE: 04)
                2189078B07D1E050FF75:
                  0. 01 5CB6 0232 004D:RESPONSE_EXPAND (0210: 00)
                  1. 01 5CB6 0233 004D:RESPONSE_EXPAND (0210: 04)
              8D5D023B077C:
                1F89078B0701C050FF7504E8:
                  0. 27 5A21 0047 (l)0000:ADDARGP
                2189078B0701C050FF7504:
                  0. 00 0000 0049 (l)0000:ADDARGP
          08C45E04268B470E8905268B4710894502268B471A894504268B:
            0. 38 F09F 0058 0000:_get_info
      8C:
        D88EC08B7E:
          0433C0B9FFFFF2AEF7D12BF98A4606F2AE8BC175038B:
            0. 05 8F19 0025 0000:_strchr
          0633C0B9FFFFF2AEF7D12BF98A4608F2AE8BC175038B:
            0. 05 C795 0025 0000:_strchr
        DA8EC28B7E:
          048BDF8B4E088A46068AE0D1E9F3ABD1D1F3AA8BC35F:
            0. 02 5F98 0022 0000:_memset
          068BDF8B4E0A8A46088AE0D1E9F3ABD1D1F3AA8BC35F:
            0. 02 1714 0022 0000:_memset
      C47E:
        04:
          33C0B9FFFFF2AEF7D12BF98A4608F2AE8BC19975058CC28BC7:
            0. 04 8D51 0024 0000:_strchr
          8BDF8B4E0A8A46088AE0D1E9F3ABD1D1F3AA8CC28BC35F5DC3:
            0. 00 0000 0020 0000:_memset
        06:
          33C0B9FFFFF2AEF7D12BF98A460AF2AE8BC19975058CC28BC7:
            0. 04 C5DD 0024 0000:_strchr
          8BDF8B4E0C8A460A8AE0D1E9F3ABD1D1F3AA8CC28BC35F5DCB:
            0. 00 0000 0020 0000:_memset
      FF76:
        08FF7606FF7604E8....83C4068B7E061E0730C0B9FFFFF2AEF7:
          0. 07 D99B 0027 0000:_strxfrm
        0CFF760AFF7608FF7606FF7604E8....83C40AC47E0830C0B9FF:
          0. 0B 6A2A 002B 0000:_strxfrm
    5DC3:
      0. 00 0000 0005 (!)0000:?
    66:
      680000F03F666A0066FF760866FF7604E8....8BE55DC3:
        0. 00 0000 001B 0000:_atan
      6A:
        00:
          6A00FF7606FF7604E8....8B560A8B4608C45E042689572A2689:
            0. 03 9DBB 0065 0000:??0stdiobuf@@QEC@PEU_iobuf@@@Z
          E8....8916....A3....8BE55DC3:
            0. 00 0000 0014 0000:_randomize
          ..........5DC3:
            0. 00 0000 000D 0000:_coreleft (REF 0007: GLOBALCOMPACT)
        10666A70FF76:
          04E8....8B46045DC3:
            0. 00 0000 0014 0000:?dec@@YAAAVios@@AAV1@@Z
          06FF7604E8....8B56068B46045DC3:
            0. 00 0000 001A 0000:?dec@@YAAEVios@@AEV1@@Z
        20666A70FF76:
          04E8....8B46045DC3:
            0. 00 0000 0014 0000:?oct@@YAAAVios@@AAV1@@Z
          06FF7604E8....8B56068B46045DC3:
            0. 00 0000 001A 0000:?oct@@YAAEVios@@AEV1@@Z
        40666A70FF76:
          04E8....8B46045DC3:
            0. 00 0000 0014 0000:?hex@@YAAAVios@@AAV1@@Z
          06FF7604E8....8B56068B46045DC3:
            0. 00 0000 001A 0000:?hex@@YAAEVios@@AEV1@@Z
      FF76:
        04:
          6A00:
            6A006A00..........85C0742BFF7606FF7604:
              0. 00 0000 0045 0000:MESSAGELOOP
            E8....8BE55DC3:
              0. 00 0000 0010 0000:_getfatd
          E8....:
            1E68....E8....8BE55DC3:
              0. 00 0000 0015 0000:_feprocentry
            5DC20400:
              0. 00 0000 000E (l)0000:UM_ECSU_NAME (REF 0008: UM_SCOPE)
            83C4045250E8....8BE55DC3:
              0. 00 0000 0016 0000:_ctime
            8BE55DC3:
              0. 00 0000 000E 0000:__tcsrev (REF 0008: __mbsrev)
              1. 00 0000 000E 0000:__tcsinc (REF 0008: __mbsinc)
              2. 00 0000 000E 0000:__tclen (REF 0008: __mbclen)
              3. 00 0000 000E 0000:__tcsclen (REF 0008: __mbslen)
              4. 00 0000 000E (!)0000:? (REF 0008: _free)
              5. 00 0000 000E 0000:??_Q@YAXPEX@Z (REF 0008: ??3@YAXPEX@Z)
              6. 00 0000 000E 0000:_getc (REF 0008: _fgetc)
            C45E082689570226890783C40483FAFF750383F8FFB8:
              0. 08 11F1 0028 0000:_fgetpos
          FF7608..........5DC3:
            0. 00 0000 0011 0000:_longjmp
          ..........5DC3:
            0. 00 0000 000E 0000:__setjmp (REF 0008: CATCH)
        06FF7604E8....8B:
          46045DC3:
            0. 00 0000 0012 (l)0000:?sios@@YAAAVios@@AAV1@J@Z (REF 000B: ?setf@ios@@QACJJ@Z)
            1. 00 0000 0012 (l)0000:?rsios@@YAAAVios@@AAV1@J@Z (REF 000B: ?unsetf@ios@@QACJJ@Z)
          E55DC3:
            0. 00 0000 0011 0000:_putc
        08:
          66FF7604:
            E8....:
              5DC20800:
                0. 00 0000 0012 0000:??4ostream_withassign@@QECAEV0@AEV0@@Z
              83C4:
                045250E8....5DC20800:
                  0. 00 0000 001A (l)0000:STR_CAT12 (REF 0014: STR_CAT1)
                  1. 00 0000 001A (l)0000:STR_CAT2 (REF 0014: STR_CAT)
                0883F8037223FF760AFF7608FF7606FF:
                  0. 0B 8958 0048 0000:_log1p
              89460A895E08894E0689560483C408505351:
                0. 02 4684 0053 0000:_expm1
              8BE55DC3:
                0. 00 0000 0012 0000:__tcscspn (REF 000C: __mbscspn)
                1. 00 0000 0012 0000:__tcsicmp (REF 000C: __mbsicmp)
                2. 00 0000 0012 0000:__tcsdec (REF 000C: __mbsdec)
                3. 00 0000 0012 0000:__tcsstr (REF 000C: __mbsstr)
                4. 00 0000 0012 0000:__tcsspn (REF 000C: __mbsspn)
                5. 00 0000 0012 0000:__tcspbrk (REF 000C: __mbspbrk)
                6. 00 0000 0012 0000:__tcstok (REF 000C: __mbstok)
                7. 00 0000 0012 0000:__tcscmp (REF 000C: __mbscmp)
              E8....8BE55DC3:
                0. 00 0000 0015 0000:_rndtol
            ..........83C4045250E8....5DC20800:
              0. 00 0000 001C (l)0000:STR_CAT12 (REF 0016: STR_CAT1)
              1. 00 0000 001C (l)0000:STR_CAT2 (REF 0016: STR_CAT)
          6A00FF7606FF76048B5E048B1FFF570E5DC20800:
            0. 00 0000 001B 0000:?seekpos@streambuf@@UACJJH@Z
          E8....83C404525066FF7604E8....:
            5DC20800:
              0. 00 0000 001A (l)0000:STR_CAT1
            83C4045250E8....D1C0:
              0. 07 0451 0027 0000:?before@Type_info@@QEAHAFV1@@Z
          FF7606FF7604E8....8B56068B46045DC3:
            0. 00 0000 0018 (l)0000:?sios@@YAAEVios@@AEV1@J@Z (REF 000E: ?setf@ios@@QECJJ@Z)
            1. 00 0000 0018 (l)0000:?rsios@@YAAEVios@@AEV1@J@Z (REF 000E: ?unsetf@ios@@QECJJ@Z)
          ..........83C404525066FF7604E8....5DC20800:
            0. 00 0000 001C (l)0000:STR_CAT1
        0A6A00FF7608FF7606FF7604C45E0426C41F26FF570E5DC20A00:
          0. 00 0000 0020 0000:?seekpos@streambuf@@UECJJH@Z
        0C:
          66FF760866FF760468....E8....8BE55DC3:
            0. 00 0000 0019 0000:_vfprintf
          FF760AFF760866FF7604E8....5DC20C00:
            0. 00 0000 0018 0000:?getline@istream@@QECAEV1@PEEHD@Z (REF 0012: ?getline@istream@@QECAEV1@PEDHD@Z)
            1. 00 0000 0018 0000:?get@istream@@QECAEV1@PEEHD@Z (REF 0012: ?get@istream@@QECAEV1@PEDHD@Z)
        1466FF761066FF760C66FF760866FF7604E8....8BE55DC3:
          0. 00 0000 001E 0000:__makepath
    68:
      00:
        02:
          66FF76041E68....E8....C606....008BE55DC3:
            0. 00 0000 001A 0000:_winio_about
          FF760468....E8....C606....008BE55DC3:
            0. 00 0000 0018 0000:_winio_about
        04:
          837E0801B800007D02B0045066FF760866FF7604E8....8BE55D:
            0. 01 EF04 0021 0000:_setbuf
          8B460683F80119C981E104005150FF7604E8....8BE55DC3:
            0. 00 0000 001E 0000:_setbuf
      ....:
        68....68....68....6A00E8....8BE55DC3:
          0. 00 0000 0018 0000:_winio_doabout
        E8....:
          68....E8....8BE55DC20200:
            0. 00 0000 0015 0000:?flush_stdio@ostream@@AACXXZ
          8BE55DC3:
            0. 00 0000 000D 0000:_getchar (REF 0004: __iob)
            1. 00 0000 000D 0000:__fpurecall (REF 0007: ___faterr)
        FF7604E8....8BE55DC3:
          0. 00 0000 0010 0000:_putchar
    6A:
      00:
        168D46:
          0850E8....83C4045250168D46085066FF76046A02E8:
            0. 04 A1B6 0024 0000:_execle
          0A50E8....83C4045250168D460A5066FF7606FF7604E8:
            0. 00 0000 0025 0000:_spawnle
        1E68....66FF760866FF7604FF760C66FF760E66FF7612E8....5D:
          0. 01 EF04 0021 0000:_ecvt
        66:
          6A00:
            168D46:
              085066FF76046A02E8....8BE55DC3:
                0. 00 0000 001A 0000:_execl
              0A5066FF7606FF7604E8....8BE55DC3:
                0. 00 0000 001B 0000:_spawnl
            66FF76:
              0866FF76046A02E8....8BE55DC3:
                0. 00 0000 0019 0000:_execv
              0A66FF7606FF7604E8....8BE55DC3:
                0. 00 0000 001A 0000:_spawnv
            FF76:
              04E8....8B5E04806706DF8BE55DC3:
                0. 00 0000 0019 0000:_rewind
              06FF7604E8....C45E042680670ADF8BE55DC3:
                0. 00 0000 001D 0000:_rewind
          FF76:
            0C66FF760866FF76046A02E8....8BE55DC3:
              0. 00 0000 001A 0000:_execve
            0E66FF760A66FF7606FF7604E8....8BE55DC3:
              0. 00 0000 001B 0000:_spawnve
        68....66FF760866FF7604FF760CFF760EFF7610E8....5DC3:
          0. 00 0000 001E 0000:_ecvt
        6A00:
          8D46:
            0650FF76046A02E8....8BE55DC3:
              0. 00 0000 0017 0000:_execl
            0850FF7606FF7604E8....8BE55DC3:
              0. 00 0000 0018 0000:_spawnl
          FF76:
            04E8....8B46068B5E04894716C707....31C089471A89:
              0. 08 B412 0028 0000:??0stdiobuf@@QAC@PAU_iobuf@@@Z
            06FF76046A02E8....8BE55DC3:
              0. 00 0000 0016 0000:_execv
            08FF7606FF7604E8....8BE55DC3:
              0. 00 0000 0017 0000:_spawnv
        8B5E06FF7702FF37FF7604E8....8BE55DC3:
          0. 00 0000 0017 0000:_fsetpos
        8D46:
          0650E8....83C402508D460650FF76046A02E8....8BE55DC3:
            0. 00 0000 0020 0000:_execle
          0850E8....83C402508D460850FF7606FF7604E8....8BE55D:
            0. 01 EF04 0021 0000:_spawnle
        C45E0826FF770226FF3766FF7604E8....8BE55DC3:
          0. 00 0000 001A 0000:_fsetpos
        E8....:
          8916....A3....8BE55DC3:
            0. 00 0000 0013 0000:_randomize
          8BE55DC3:
            0. 00 0000 000C 0000:_abort_exit (REF 0006: _exit)
        FF76:
          04E8....8B46045DC3:
            0. 00 0000 0010 0000:?ws@@YAAAVistream@@AAV1@@Z (REF 0009: ?ipfx@istream@@QACHH@Z)
            1. 00 0000 0010 0000:?ends@@YAAAVostream@@AAV1@@Z (REF 0009: ??6ostream@@QACAAV0@D@Z)
          06FF7604E8....8B56068B46045DC3:
            0. 00 0000 0016 0000:?ws@@YAAEVistream@@AEV1@@Z (REF 000C: ?ipfx@istream@@QECHH@Z)
            1. 00 0000 0016 0000:?ends@@YAAEVostream@@AEV1@@Z (REF 000C: ??6ostream@@QECAEV0@D@Z)
          08FF7606FF76046A02E8....8BE55DC3:
            0. 00 0000 0017 0000:_execve
          0AFF7608FF7606FF7604E8....8BE55DC3:
            0. 00 0000 0018 0000:_spawnve
        ..........:
          5DC3:
            0. 00 0000 000C 0000:_coreleft (REF 0006: LOCALCOMPACT)
          66FF7608FF760C66FF760468....E8....6A001E68:
            0. 00 0000 0029 0000:__assert
          FF7606FF7608FF760468....E8....6A001E68:
            0. 00 0000 0027 0000:__assert
      01:
        168D46:
          0850E8....83C4045250168D46085066FF76046A02E8:
            0. 04 A1B6 0024 0000:_execlpe
          0A50E8....83C4045250168D460A5066FF7606FF7604E8:
            0. 00 0000 0025 0000:_spawnlpe
        1E68....66FF760866FF7604FF760C66FF760E66FF7612E8....5D:
          0. 01 EF04 0021 0000:_fcvt
        66:
          6A00:
            168D46:
              085066FF76046A02E8....8BE55DC3:
                0. 00 0000 001A 0000:_execlp
              0A5066FF7606FF7604E8....8BE55DC3:
                0. 00 0000 001B 0000:_spawnlp
            66FF76:
              0866FF76046A02E8....8BE55DC3:
                0. 00 0000 0019 0000:_execvp
              0A66FF7606FF7604E8....8BE55DC3:
                0. 00 0000 001A 0000:_spawnvp
          FF76:
            0C66FF760866FF76046A02E8....8BE55DC3:
              0. 00 0000 001A 0000:_execvpe
            0E66FF760A66FF7606FF7604E8....8BE55DC3:
              0. 00 0000 001B 0000:_spawnvpe
        68....66FF760866FF7604FF760CFF760EFF7610E8....5DC3:
          0. 00 0000 001E 0000:_fcvt
        6A00:
          8D46:
            0650FF76046A02E8....8BE55DC3:
              0. 00 0000 0017 0000:_execlp
            0850FF7606FF7604E8....8BE55DC3:
              0. 00 0000 0018 0000:_spawnlp
          FF76:
            06FF76046A02E8....8BE55DC3:
              0. 00 0000 0016 0000:_execvp
            08FF7606FF7604E8....8BE55DC3:
              0. 00 0000 0017 0000:_spawnvp
        8D46:
          0650E8....83C402508D460650FF76046A02E8....8BE55DC3:
            0. 00 0000 0020 0000:_execlpe
          0850E8....83C402508D460850FF7606FF7604E8....8BE55D:
            0. 01 EF04 0021 0000:_spawnlpe
        FF76:
          04E8....8B:
            5E048B47:
              025DC20200:
                0. 00 0000 0015 0000:?str@strstreambuf@@QACPADXZ
              065DC20200:
                0. 00 0000 0015 0000:?str@strstreambuf@@QACPADXZ
            E55DC3:
              0. 00 0000 000F 0000:?set_new_handler@@YAP6AXXZP6AXXZ@Z (REF 0009: ?set_nh@@YAP6AHI@ZP6AHI@ZH@Z)
          06FF7604E8....C45E04268B57:
            06268B47045DC20400:
              0. 00 0000 001D 0000:?str@strstreambuf@@QECPEDXZ
            0A268B47085DC20400:
              0. 00 0000 001D 0000:?str@strstreambuf@@QECPEDXZ
          08FF7606FF76046A02E8....8BE55DC3:
            0. 00 0000 0017 0000:_execvpe
          0AFF7608FF7606FF7604E8....8BE55DC3:
            0. 00 0000 0018 0000:_spawnvpe
      02FF7604E8....8BE55DC3:
        0. 00 0000 000F 0000:?_set_new_handler@@YAP6AHI@ZP6AHI@Z@Z (REF 0009: ?set_nh@@YAP6AHI@ZP6AHI@ZH@Z)
      0AFF7606FF7604E8....FF7606FF7604E8....8B56068B46045DC3:
        0. 00 0000 001F 0000:?endl@@YAAEVostream@@AEV1@@Z
      16E8....8BE55DC3:
        0. 00 0000 000C 0000:_abort (REF 0006: _raise)
      1E6A00:
        1E68....E8....83C408B80100A3....5DC3:
          0. 00 0000 0019 0000:_msm_init
        68....E8....83C406B80100A3....5DC3:
          0. 00 0000 0018 0000:_msm_init
    80:
      3E....00:
        7405B80100EB4AB86735..........5657BF0A00BE....B9:
          0. 1D 107B 0169 0000:_emm_init 0063:_emm_getpagemapsize 0096:_emm_maphandle 00B3:_emm_getunalloc 00CB:_emm_gettotal 00D1:_emm_gethandlecount 00D5:_emm_physpage 00F4:_emm_allocpages 0103:_emm_deallocpages 0112:_emm_gethandlepages 0116:_emm_savepagemap 011A:_emm_restorepagemap 011E:_emm_getversion 0124:_emm_gethandlespages 0135:_emm_getpagemap 013A:_emm_setpagemap 014C:_emm_getsetpagemap 015E:_emm_term (0107: 04)
          1. 1D 107B 0168 0000:_emm_init 0063:_emm_getpagemapsize 0096:_emm_maphandle 00B3:_emm_getunalloc 00CB:_emm_gettotal 00D1:_emm_gethandlecount 00D5:_emm_physpage 00F4:_emm_allocpages 0103:_emm_deallocpages 0112:_emm_gethandlepages 0116:_emm_savepagemap 011A:_emm_restorepagemap 011E:_emm_getversion 0124:_emm_gethandlespages 0133:_emm_getpagemap 0138:_emm_setpagemap 014C:_emm_getsetpagemap 015D:_emm_term (0107: E8)
          2. 1D 107B 0153 0000:_emm_init 0063:_emm_getpagemapsize 0080:_emm_maphandle 009D:_emm_getunalloc 00B5:_emm_gettotal 00BB:_emm_gethandlecount 00BF:_emm_physpage 00DE:_emm_allocpages 00ED:_emm_deallocpages 00FC:_emm_gethandlepages 0100:_emm_savepagemap 0104:_emm_restorepagemap 0108:_emm_getversion 010E:_emm_gethandlespages 011F:_emm_getpagemap 0124:_emm_setpagemap 0136:_emm_getsetpagemap 0148:_emm_term (0107: 1E)
          3. 1D 107B 0152 0000:_emm_init 0063:_emm_getpagemapsize 0080:_emm_maphandle 009D:_emm_getunalloc 00B5:_emm_gettotal 00BB:_emm_gethandlecount 00BF:_emm_physpage 00DE:_emm_allocpages 00ED:_emm_deallocpages 00FC:_emm_gethandlepages 0100:_emm_savepagemap 0104:_emm_restorepagemap 0108:_emm_getversion 010E:_emm_gethandlespages 011D:_emm_getpagemap 0122:_emm_setpagemap 0136:_emm_getsetpagemap 0147:_emm_term (0107: 08)
          4. 1D C020 0169 0000:_emm_init 0063:_emm_getpagemapsize 0096:_emm_maphandle 00B3:_emm_getunalloc 00CB:_emm_gettotal 00D1:_emm_gethandlecount 00D5:_emm_physpage 00F4:_emm_allocpages 0103:_emm_deallocpages 0112:_emm_gethandlepages 0116:_emm_savepagemap 011A:_emm_restorepagemap 011E:_emm_getversion 0124:_emm_gethandlespages 0135:_emm_getpagemap 013A:_emm_setpagemap 014C:_emm_getsetpagemap 015E:_emm_term (012A: 00)
          5. 1D C020 0168 0000:_emm_init 0063:_emm_getpagemapsize 0096:_emm_maphandle 00B3:_emm_getunalloc 00CB:_emm_gettotal 00D1:_emm_gethandlecount 00D5:_emm_physpage 00F4:_emm_allocpages 0103:_emm_deallocpages 0112:_emm_gethandlepages 0116:_emm_savepagemap 011A:_emm_restorepagemap 011E:_emm_getversion 0124:_emm_gethandlespages 0133:_emm_getpagemap 0138:_emm_setpagemap 014C:_emm_getsetpagemap 015D:_emm_term (012A: C3)
        750CFE06....A1....01C0A3....8B0E....D126....89C8:
          0. 02 5F98 0022 0000:?bitalloc@ios@@SAHXZ
      4E0A088B460A8B5E088B4E068B56045DC3:
        0. 00 0000 0015 0000:__AsQNaN
      66:
        077F8B:
          460A2500800946068B56068B46045DC3:
            0. 00 0000 0018 0000:_copysignf
          56068B46045DC3:
            0. 00 0000 000F 0000:_fabsf
        08FE8B4608C45E04834604022689078CD83B46067505B8FFFF5DC3:
          0. 05 A9CA 002E 0000:__heapadd
        0B7F8B46:
          0A8B5E088B4E068B56045DC3:
            0. 00 0000 0015 0000:_fabs
          1225008009460A8B460A8B5E088B4E068B56045DC3:
            558B:
              0. 59 0FC1 0079 0000:_copysign 001E:_copysignf 0036:_fabs 004B:_fabsf 005A:_nan 0063:_nanf 0069:_nans 0073:_nansf
            ..:
              0. 00 0000 001E 0000:_copysign
    81:
      7E04800019C0F7D85DC3:
        558BEC817E04800019C0F7D85DC3:
          0. 00 0000 001C 0000:_isascii 000E:___isascii
        ..:
          0. 00 0000 000E 0000:_isascii
      EC:
        0008:
          56168D8600F850FF7606FF7604E8....C45E0426C47704268B:
            0. 14 F24B 0070 (?)0000:??5istream@@QECAEV0@AEM@Z (003B: 00)
          578B7E048D8600F85057E8....8B5D028B5F0203DFF6470886:
            0. 06 095E 0052 (?)0000:??5istream@@QACAAV0@AAM@Z (002B: 00)
        0402:
          56:
            57BE....8CD08EC08D7EFCA5A4:
              168D86FCFD506A:
                00FF7606:
                  0. 04 2B63 0084 0000:??5istream@@QECAEV0@AEH@Z
                01FF7606:
                  0. 04 2B63 0084 0000:??5istream@@QECAEV0@AEI@Z
              8D86FCFD506A:
                00FF7604E8:
                  0. 00 0000 006C 0000:??5istream@@QACAAV0@AAH@Z
                01FF7604E8:
                  0. 00 0000 006C 0000:??5istream@@QACAAV0@AAI@Z
            8B16....A1....8956FE8946FC168D86FCFD506A:
              00FF7606:
                0. 04 2B63 0083 (?)0000:??5istream@@QECAEV0@AEF@Z (005E: 00)
              01FF7606:
                0. 04 2B63 0083 (?)0000:??5istream@@QECAEV0@AEG@Z (005E: 00)
          578B7E048B16....A1....8956FE8946FC8D86FCFD506A:
            0057:
              0. 01 3E9B 0065 (?)0000:??5istream@@QACAAV0@AAF@Z (0043: 00)
            0157:
              0. 01 3E9B 0065 (?)0000:??5istream@@QACAAV0@AAG@Z (0043: 00)
        0E025657:
          8B7E041E0730C0B9FFFFF2AEF7D14989C831C9898EF6FD:
            0. FF 3123 0122 0000:_strstr
          FF7606E8....8986F2FDFF7604E8....31C9898EF6FD89:
            0. F3 38C9 0113 0000:_strstr
        16025657:
          66FF7608E8....8986EAFDFF7606FF7604E8....31C989:
            0. FF B08C 0169 0000:_strstr
          C47E0430C0B9FFFFF2AEF7D14989C831C9898EEEFD8986:
            0. FF F781 016E 0000:_strstr
        180156576A00FF7604E8....85C0750B8B46045F5E8BE55DC20E00:
          0. 04 5B9E 0250 0000:?extract@istream@@AACAAV1@PAXPBDPAHP6AX010@ZP6AHHD0@Z0@Z
        1A01565731C0:
          50FF7604E8....09C07503E95B028B7E0E1E0730C0:
            0. 88 4ACA 027F 0000:?extract@istream@@AACAAV1@PAXPBDPAHP6AX010@ZP6AHHD0@Z0@Z
          8846EF8846F08B5E0483C30C8B378A0C884EEDFF07:
            0. 3F 4AD6 01D7 (l)0000:_SCANRE
            1. 40 B676 01D5 (l)0000:_SCANRE
        1C01565731C08846ED8846EE8B5E0483C30E36C437268A0C884EEB:
          0. 4D 3A29 020B (l)0000:_SCANRE
          1. 4C C7B7 020D (l)0000:_SCANRE
        20:
          0156576A00FF7606FF7604E8....85C0750E8B56068B46045F5E:
            0. 0B 6656 02DD 0000:?extract@istream@@AECAEV1@PEXPFDPEHP6AX010@ZP6AHHD0@Z0@Z
          0256576A008D4EE051FF7604E8....66FF760A66FF76068D4EE0:
            0. 07 52DC 0063 0000:??6ostream@@QACAAV0@N@Z
        2401565731C050FF7606FF7604E8....09C07503E90603C47E1430:
          0. B6 5BF4 0330 0000:?extract@istream@@AECAEV1@PEXPFDPEHP6AX010@ZP6AHHD0@Z0@Z
        28026A00168D46D85066FF7604E8....66FF760C66FF7608168D46:
          0. 09 6A97 0097 0000:??6ostream@@QECAEV0@N@Z
        80005657FF7604168D468050688000..........8D468050E8:
          0. 3B 8973 0066 0000:_getexefilename
        840056FF7604168D867CFF50688000..........168D867CFF50E8:
          0. 00 0000 009E 0000:_getexefilename
        8A00568B760A837E040074:
          198B460C8946FE68....E8....83C402:
            0. 26 81BF 013A (l)0000:DO_EXEC
          1B8B460C8946FE68..............83:
            0. 27 2C66 0150 (l)0000:DO_EXEC
        8C0056837E040074:
          258B56108B460E8956FE8946FC1E68....E8:
            0. 00 0000 017E (l)0000:DO_EXEC
          278B56108B460E8956FE8946FC1E68:
            0. 00 0000 0194 (l)0000:DO_EXEC
        9600565731C089866CFF898670FF898672FF3906....7F03E98101:
          0. 1C DF33 01C3 0000:__STI_wildcard
        A200565731C0898662FF89C766C78666FF000000003906....7F03:
          0. 1F 9B07 0265 0000:__STI_wildcard
        A40056578B5E068B470E8B4F0A8B57088B5F0C80F4808946C2895E:
          0. 9E 3652 0293 0000:?atan@@YA?AVcomplex@@ABV1@@Z
        B0005657C45E08268B470E268B4F0A268B5708268B5F0C80F48089:
          0. C5 B697 03F3 0000:?atan@@YA?EVcomplex@@AFV1@@Z
        B60056578B760CF6460A01740BB9....894EFC8B7E0AEB0BB9:
          0. 09 53BF 028B 0000:_qsort (0261: C3)
          1. 09 53BF 02D7 0000:_qsort (0261: C4)
        C600565731C09931C931DB898640FF899E3EFF898E3CFF89963AFF:
          0. 5B 7950 03AA 0000:?acos@@YA?AVcomplex@@ABV1@@Z
          1. 32 C57C 03A1 0000:?asin@@YA?AVcomplex@@ABV1@@Z
        D800565731C09931C931DB89862EFF899E2CFF898E2AFF899628FF:
          0. 46 0788 0473 0000:?asin@@YA?EVcomplex@@AFV1@@Z
          1. 71 FF99 0468 0000:?acos@@YA?EVcomplex@@AFV1@@Z
    83:
      3E....:
        00:
          74:
            04FF16....5DC3:
              0. 00 0000 0010 0000:__setenvp
            08813E........7505B801005DC38306....EAA1....01:
              0. 04 7FD5 0062 0000:_exit_popstate
            09FF36..............5DC3:
              0. 00 0000 0015 0000:_winio_closeall
            0AE8....833E....0075F65DC3:
              0. 00 0000 0016 0000:_winio_end
            15A1....8B5E048907A1....8B5E068907A1....5DC3B8:
              0. 10 4D75 0030 0000:_msm_getstatus
            17A1....C45E04268907A1....C45E08268907A1....5D:
              0. 14 A4CE 0034 0000:_msm_getstatus
            1A837E04007414C706....01008B4606A3....8B4604A3:
              0. 00 0000 0031 0000:_msm_signal
            1BFF0E....8B1E....01DBFFB7....E8....83C402833E:
              0. 00 0000 0049 (l)0000:UM_TERM
            1DFF0E....8B1E....01DBFFB7..............83C402:
              0. 02 1E71 004D (l)0000:UM_TERM
            20:
              9BDF460C9BDD46049BD9FD9BDD5E049BDDD88B460A8B:
                0. 19 14A1 00CA 0000:_ldexp
              FF0E....8B1E....C1E302FFB7....FFB7....E8:
                0. 05 E30C 0053 (l)0000:UM_TERM
            22FF0E....8B1E....C1E302FFB7....FFB7:
              0. 00 0000 0057 (l)0000:UM_TERM
          75:
            06C706........813E........72:
              0431C05DC38B460431:
                0. 03 DA93 0034 0000:__onexit
              05:
                31C0995DC38B5606:
                  0. 05 10FF 0033 0000:__fonexit
                B801005DC38B:
                  4604:
                    0. 04 81F9 0034 0000:_atexit
                  5606:
                    0. 05 10FF 0035 0000:__fatexit
            1AB0FFA2....A2....A2....A2....A2....A2....A2:
              0. 00 0000 0026 0000:__STI_lconv
            20FF36....E8....83C40285C0751268....68....6A00:
              0. 01 3E9B 0158 0000:_winio_init
            22FF36....E8....83C40285C075141E68....1E68:
              0. 03 BDDB 015E 0000:_winio_init
          7C0E7F07833E....1F720531C0995DC3B8010066FF06:
            0. 02 9412 002F 0000:?bitalloc@ios@@SAJXZ
        017504DEF9EB06B80D00E8....5DC3:
          0. 00 0000 0016 0000:__FDIVP
        027F08C706....0100EB21DD06....DC36....DC0E....DC2E:
          0. 00 0000 0035 0000:_FDIV_DETECT
        0A7C05B8FFFF5DC3A1....FF06....5DC3:
          0. 00 0000 0018 0000:?xalloc@ios@@SAHXZ
      7E:
        0400:
          74:
            05B8FFFF5DC3837E0600740BFF7606E8....83C402EB0231:
              0. 03 4E5B 0023 0000:_farfree
            0D8A46068B5E048807B801005DC331C05DC3:
              0. 00 0000 001A 0000:_wctomb
          75:
            08C45E0826C70703008A46069883F841740C83F85374:
              1183:
                0. AF 0CDE 0177 00E9:??5istream@@QECAEV0@AEM@Z 013C:??5istream@@QECAEV0@AEN@Z
              1383:
                0. 2C F3FA 004C (l)0000:?fhf@@YAHHDPEH@Z
            0F837E06007409FF7606E8....83C4025DC3:
              0. 00 0000 001A 0000:__hfree
            101EFF7606666A00..........8BE55DC31EFF76061EFF76:
              0. 01 5CB6 002A 0000:_strtok
            121EFF760631C05050..........83C4085DC31EFF76061E:
              0. 03 0FE2 002D 0000:_strtok
        060074:
          05B8....EB188B4604A8027405B8....EB0CA8047405B8:
            0. 00 0000 002A 0000:__DOSIGN
          098B5E04804F1602EB078B5E04806716FD5DC20400:
            0. 00 0000 001D 0000:?freeze@strstreambuf@@QACXH@Z
        080074:
          0631C05DC206008B460683F8087E068B5E0489471C8B4604:
            0. 04 B549 0024 0000:?setbuf@strstreambuf@@UACPAVstreambuf@@PADH@Z
          0AC45E0426804F2802EB08C45E0426806728FD5DC20600:
            0. 00 0000 001F 0000:?freeze@strstreambuf@@QECXH@Z
      C4FC568B7604B801005048505056E8....83C4088946FE8956FC3DFF:
        0. 11 B441 004F 0000:_filelength
      EC:
        02:
          168D46FE50:
            8B46044050E8....83C4068B46FE8BE55DC3558BEC:
              0. 09 D562 0B63 0000:_setdisk 001D:_getdisk 0036:_searchpath 0067:__searchenv 01D1:_fnsplit 0398:__splitpath 03C1:_fnmerge 053D:__makepath 0566:_getcurdir 05B4:__getdcwd 0611:_getdta 062B:_getfat 0673:_getfatd 0687:_getftime 06AF:_setftime 06D7:_getverify 06DE:_setverify 06EA:_getw 073A:_putw 077B:_setdta 0789:_lock 07D0:_unlock 0817:_getpsp 081E:_setblock 0876:_parsfnm 08A3:__fullpath (0B39: C3) (REF 0929: .)
              1. 09 D562 0B65 0000:_setdisk 001D:_getdisk 0036:_searchpath 0067:__searchenv 01D1:_fnsplit 0398:__splitpath 03C1:_fnmerge 0534:__makepath 055D:_getcurdir 05AB:__getdcwd 0608:_getdta 0622:_getfat 066A:_getfatd 067E:_getftime 06A6:_setftime 06CE:_getverify 06D5:_setverify 06E1:_getw 0731:_putw 0772:_setdta 0780:_lock 07C7:_unlock 080E:_getpsp 0815:_setblock 086D:_parsfnm 089A:__fullpath (0B39: E5) (REF 091C: .)
            FF7604E8....83C4068B46FE8BE55DC3558BEC83EC:
              0. 07 136E 0780 0000:_setdisk 001B:_getdisk 0033:_searchpath 0064:__searchenv 01CE:_fnsplit 02DC:_fnmerge 0392:_getcurdir 03C9:__getdcwd 0420:_getdta 0429:_getfat 045D:_getfatd 0471:_getftime 048F:_setftime 04BE:_getverify 04C6:_setverify 04D2:_getw 051D:_putw 0565:_setdta 0573:_lock 05E6:_unlock 0654:_getpsp 065B:_setblock 0677:_parsfnm 06A5:__fullpath
          509BDD7EFE9BDED98326....3F8B46FE0906....9BDD7EFE9BDB:
            0. 17 467F 011B 0000:__FCOMPP@ 002A:__FTEST0@ 004E:__FTEST@ 006D:__DTST87@ 0076:__87TOPSW@ 008B:__DBLTO87@ 009B:__DBLINT87@ 00B8:__DBLLNG87@ 00D0:__FLTTO87@ 00DE:__status87 00EA:__clear87 00F7:__control87 0117:__fpreset
          56:
            57:
              1EC57604:
                8B5E088B4E0A01CE4E89F78CD88EC031D230E4FD:
                  0. 1D 19DA 003D 0000:?div@_2Comp@@CAHPEEHH@Z
                FC8CD88EC031DB88D88B4E10C47E08F3AAAC08C0:
                  0. 77 55C8 0097 0000:?xlate@_2Comp@@CAHPEDPEEHHH@Z
              31C98B7604EB0F803C5875058BC140EB0231C089C146803C:
                0. 11 F527 0092 0000:_mktemp
              837E06007406837E04007507C746FE0000EB:
                548B7E061E07:
                  0. 22 65D6 0CB0 0133:_unmangle_ident 0796:_unmangle_pt (0C6D: 00) (REF 0C71: .)
                  1. 22 65D6 0CC6 0133:_unmangle_ident 07A7:_unmangle_pt (0C6D: 3F) (REF 0C87: .)
                588B7E061E07:
                  0. 21 BF27 0D23 0143:_unmangle_ident 07DA:_unmangle_pt (0CE1: 00) (REF 0CE4: .)
                  1. 21 BF27 0D36 0143:_unmangle_ident 07E8:_unmangle_pt (0CE1: E9) (REF 0CF7: .)
              8B:
                4E048B5606BBFFFFBE....EB558B44023BC1754BF60483:
                  0. 20 62A2 007F 0000:_setmode
                7604:
                  8B:
                    560809D27E088B460A03C28946FE09D27907C746:
                      0. 29 B778 04EA 0000:?buffer_setup@strstreambuf@@AACXPADH0@Z 00D3:??0strstreambuf@@QAC@PADH0@Z 00FB:??0strstreambuf@@QAC@PAEH0@Z 0123:??0strstreambuf@@QAC@H@Z 0150:??0strstreambuf@@QAC@P6APAXI@ZP6AXPAX@ZH@Z 017D:??1strstreambuf@@UAC@XZ 01C5:?freeze@strstreambuf@@QACXH@Z 01E2:?str@strstreambuf@@QACPADXZ 01F9:?setbuf@strstreambuf@@UACPAVstreambuf@@PADH@Z 020B:?doallocate@strstreambuf@@MACHXZ 0244:?overflow@strstreambuf@@UACHH@Z 0338:?underflow@strstreambuf@@UACHXZ 037B:?seekoff@strstreambuf@@UAC?AVstreampos@@Vstreamoff@@W4relative_to@ios@@H@Z 04E5:?sync@strstreambuf@@UACHXZ
                    5E068B4E0801CE4E89F78CD88EC031D230E4FDAC:
                      0. 1B 9D50 003B 0000:?div@_2Comp@@CAHPAEHH@Z
                    7E:
                      06:
                        31C9884EFF884EFE8B4E08FF4E0809C97444:
                          0. 08 F3E1 0076 0000:_strnicmp
                        8B460831D28856FE8BC84809C9743F8A1C30:
                          0. 03 50D8 006D 0000:_strnicmp (REF 003E: .)
                      0831C9884C12884C13C704....894C06894C08:
                        0. 2B BB46 0076 0000:??0streambuf@@QAC@PADH@Z
                    FEB9....51E8....598946FE83F8FF742CEB138A:
                      0. 08 764D 0053 0000:_gets
                  EB2C09F675014656E8....5909C08946FE752C833E:
                    0. 00 0000 0053 0000:??2@YAPAXI@Z
                  FC8CD88EC031DB88D88B4E0C8B7E06F3AAAC08C074:
                    0. 71 9181 0091 0000:?xlate@_2Comp@@CAHPADPAEHHH@Z
                7E04:
                  09FF7503BF....803E....00750AFE06....A1:
                    0. 01 E967 01DE 0000:_tmpnam 007F:_tmpfile 00BE:_tempnam
                  1E0730C0B9FFFFF2AEF7D1494151E8....5909C089:
                    0. 24 F8BB 0044 0000:_strdup
                  57E8....8946FE83F8FF7513B903008BDF83C3028B:
                    0. 1C 2118 003C (?)0000:?get@istream@@QACAAV1@AAD@Z
                  8B:
                    46080B46067503E9A700C45E0626803F007507C7:
                      0. 07 BEB1 00DD 0000:_setlocale
                    DF83C3028B37895EFE035C02:
                      807F0A0075468B47:
                        0. 4E 9385 006E 0000:?putback@istream@@QACAAV1@D@Z
                      8B47025089C38B1F:
                        0. 32 D188 0052 0000:?sync@istream@@QACHXZ
                      C707....C705:
                        0. 2C 3B6D 0080 (?)0000:??1istream@@UAC@XZ (0033: 00)
                  B801005057E8....09C07437FF7608FF76068BDF83:
                    0. 0E 92FC 005D 0000:?read@istream@@QACAAV1@PAXH@Z
                  C745:
                    2A....89FB83C3028B37895EFE035C02C707:
                      0. 00 0000 00D8 0000:??1ifstream@@UAC@XZ (REF 002C: ??1istream@@UAC@XZ)
                      1. 00 0000 00D8 0000:??1ofstream@@UAC@XZ (REF 002C: ??1ostream@@UAC@XZ)
                    30....C7452A....89FB83C3028B37895EFE03:
                      0. 04 59F8 00E6 0000:??1fstream@@UAC@XZ
                  FF7608FF76068BDF83C3028B37895EFE035C02FF77:
                    0. 02 B157 0044 0000:?write@ostream@@QACAAV1@PBXI@Z
            8B:
              5E04F64718807405B80008EB03B800048946FE50E8....59:
                0. 1F FB38 004B 0000:?doallocate@filebuf@@MACHXZ
              76:
                0456E8....5983FAFF752A83F8FF7525B800015056E8:
                  0. 00 0000 00B1 0000:_creatnew 0046:_creattemp
                0C31:
                  C08846FF8846FE8BC64E09C0744CC45E04FF460426:
                    0. 05 A1A9 0076 0000:_strnicmp
                  D28856FE8BC64E09C0745BC45E04268A1F30FFF687:
                    0. 00 0000 0081 0000:_strnicmp (REF 0049: .)
            FF7606FF7604C45E0426C43726FF54088946FEC45E04268B4F:
              0. 0C 0CB7 005B 0000:?close@filebuf@@QECPEV1@XZ
          578B7E04:
            578B1DFF57088946FE8B4D16BAFFFF3BCA7502EB0751:
              0. 01 3E9B 0047 0000:?close@filebuf@@QACPAV1@XZ
            8BDF83C316B8FFFF3907895EFE75098B4E08890F3BC8:
              0. 13 7B6A 0080 0000:?attach@filebuf@@QACPAV1@HH@Z
          8B5E068B078946FE8D46FE50FF7604E8....83C40409C0750F8B:
            0. 1C FF47 004C 0000:_allocmem 0035:_freemem
          8D46FE50:
            8B46044050E8....83C4048B46FE8BE55DC3558BEC83:
              0. 07 B698 099D 0000:_setdisk 001C:_getdisk 0032:_searchpath 005B:__searchenv 0197:_fnsplit 02CC:__splitpath 02E6:_fnmerge 0443:__makepath 045D:_getcurdir 04A2:__getdcwd 04F3:_getdta 050D:_getfat 0551:_getfatd 0562:_getftime 058C:_setftime 05B6:_getverify 05BD:_setverify 05C9:_getw 060F:_putw 064A:_setdta 0658:_lock 069F:_unlock 06E6:_getpsp 06ED:_setblock 0745:_parsfnm 076A:__fullpath (0970: 5F) (REF 07C9: .)
              1. 07 B698 0998 0000:_setdisk 001C:_getdisk 0032:_searchpath 005B:__searchenv 0197:_fnsplit 02CC:__splitpath 02E6:_fnmerge 043B:__makepath 0455:_getcurdir 049A:__getdcwd 04EB:_getdta 0505:_getfat 0549:_getfatd 055A:_getftime 0584:_setftime 05AE:_getverify 05B5:_setverify 05C1:_getw 0607:_putw 0642:_setdta 0650:_lock 0697:_unlock 06DE:_getpsp 06E5:_setblock 073D:_parsfnm 0762:__fullpath (0970: C3) (REF 07BD: .)
            FF7604E8....83C4048B46FE8BE55DC3558BEC83EC02:
              0. 05 E540 0654 0000:_setdisk 001A:_getdisk 002F:_searchpath 0058:__searchenv 0194:_fnsplit 0238:_fnmerge 02CD:_getcurdir 02FF:__getdcwd 034C:_getdta 0355:_getfat 037E:_getfatd 038F:_getftime 03AF:_setftime 03DE:_getverify 03E6:_setverify 03F2:_getw 0433:_putw 0475:_setdta 0485:_lock 04F8:_unlock 0566:_getpsp 056D:_setblock 0589:_parsfnm 05B6:__fullpath
          C45E06268B078946FE168D46FE50FF7604E8....83C40609C075:
            0. 1F 5239 004F 0000:_allocmem 0038:_freemem
          FF7606FF7604E8....:
            83C40483FAFF753383F8FF752EB8000150:
              0. 07 437B 00CF 0000:_creatnew 0051:_creattemp
            8946FE83F8FF7521B903008B56068B4604:
              0. 2D 91F0 004D (?)0000:?get@istream@@QECAEV1@AED@Z
        04:
          31C9C45E0426390F74188CC289D88956FE8946FC8346FC0241C4:
            0. 0E 54A2 002E 0000:_wcslen
          56:
            1E68....E8....:
              83C40489D109C18956FE8946FC75161E68:
                0. 00 0000 005A 0000:_tab_sizegetenv
              8956FE8946FC83C4048B4E060B4E04751C6A:
                0. 04 3472 0076 0000:_system
            57:
              31:
                C08946FC8946FEBE01008B4E060B4E047503E998018B4E:
                  0. 0D 82C6 01BC 0000:_fnmerge
                C98B76048B5E04380F7416803C5875078BD98D4701EB02:
                  0. 18 7360 00A3 0000:_mktemp
                FF89FE8B4E0CFF4E0C85C97503E98300C45E04268A1F30:
                  0. 03 50D8 013F 0000:__mbsnbicmp (REF 0127: .)
              83:
                3E....0074298B560A8B4608E8....505351528B56068B:
                  0. 03 451A 008F 0000:_fmodf
                7E:
                  040074108B5E048B77028B440203C383C002EB0231C0:
                    0. 28 5EC9 00E4 0000:??4iostream_withassign@@QACAAV0@AAVios@@@Z
                  060074:
                    128B5E04C74702....31C05083C30853E8:
                      0. 07 0B28 0064 0000:??0istream_withassign@@QAC@XZ (REF 0014: ??_8istream_withassign@@7B@)
                      1. 07 0B28 0064 0000:??0ostream_withassign@@QAC@XZ (REF 0014: ??_8ostream_withassign@@7B@)
                    178B5E04C74702....C74708....31C05083C3:
                      0. 03 0E44 006E 0000:??0iostream_withassign@@QAC@XZ
                    1B8B5E04C74702....C7472C....83C304538B:
                      0. 07 4891 007A 0000:??0ifstream@@QAC@XZ (REF 0014: ??_8ifstream@@7B@)
                      1. 07 4891 007A 0000:??0ofstream@@QAC@XZ (REF 0014: ??_8ofstream@@7B@)
                    208B5E04C74702....C7472C....C74732:
                      0. 0C 5E30 0084 0000:??0fstream@@QAC@XZ
                  080074:
                    208CCAB8....C45E04268957062689470431C0:
                      0. 0C 824A 00A2 0000:??0istream_withassign@@QEC@XZ (REF 0011: ??_8istream_withassign@@7F@)
                      1. 0C 824A 00A2 0000:??0ostream_withassign@@QEC@XZ (REF 0011: ??_8ostream_withassign@@7F@)
                    2D8CCAB8....C45E0426895706268947048CCA:
                      0. 01 BBC9 00BC 0000:??0iostream_withassign@@QEC@XZ
                    328CCAB8....C45E0426895706268947048CCA:
                      0. 01 BBC9 00CC 0000:??0ifstream@@QEC@XZ (REF 0011: ??_8ifstream@@7F@)
                      1. 01 BBC9 00CC 0000:??0ofstream@@QEC@XZ (REF 0011: ??_8ofstream@@7F@)
                    3F8CCAB8....C45E0426895706268947048CCA:
                      0. 01 BBC9 00E6 0000:??0fstream@@QEC@XZ
                    4631FF8B4608488946FC8B46FC39C777368BF7:
                      0. 4A D30B 006A 0000:_bsearch
                  0A00741DBA....B8....C45E0426895706268947048C:
                    0. 09 EC6C 00D6 0000:??0ostream@@QEC@H@Z
                  0C0074:
                    0F8B5E04C74702....83C30653E8....8B5E04:
                      0. 0E 527F 008A 0000:??0istream@@QAC@HPADH@Z (005B: 00)
                      1. 0E 527F 009A 0000:??0istream@@QAC@HHPAVostream@@@Z (005B: 83)
                    4D31FF8B460C488946FC8B46FC39C7773D8BF7:
                      0. 59 851F 0079 0000:_bsearch
                  0E00741DBA....B8....C45E0426895706268947048C:
                    0. 09 EC6C 00E2 0000:??0ostream@@QEC@HPED@Z
                  1200741DBA....B8....C45E0426895706268947048C:
                    0. 09 9A55 00EB 0000:??0istream@@QEC@PEVstreambuf@@HPEVostream@@@Z
              8B:
                46:
                  0A0B460874088B46060B4604750CC746FC0000C746FE:
                    0. 26 4091 120B 0196:_unmangle_ident 0B04:_unmangle_pt (11C4: 00) (REF 11B2: .)
                    1. 26 4091 1220 0196:_unmangle_ident 0B13:_unmangle_pt (11C4: C4) (REF 11C7: .)
                    2. 27 6786 119E 0186:_unmangle_ident 0AC6:_unmangle_pt (1156: 00) (REF 1145: .)
                    3. 27 6786 11B3 0186:_unmangle_ident 0AD5:_unmangle_pt (1156: C4) (REF 115A: .)
                  0E0B460C74458B46060B4604743DC45E0C26803F0074:
                    0. 7D FE07 0161 0000:__FOPEN
                  100B460E744B8B46080B46067443C45E0E26803F0074:
                    0. 86 6502 0189 0000:__SOPENF
                    1. 86 BFBA 0180 0000:__SOPENF
                56:
                  04:
                    8956FE89D71E0730C0B9FFFFF2AEF7D14903CA4989:
                      0. 2C 0CAF 004C 0000:_strrev
                    BFFFFFC746FC0000BE....EB668B4C023BCA755CF6:
                      0. 2F DDB6 00E0 0000:_setmode
                  068B460483C004:
                    8EC289C326C4378946FC8956FE2603:
                      0. 7F 62B1 009F 0000:?putback@istream@@QECAEV1@D@Z
                    C45E0426C45F04260347028EC289C3:
                      0. 40 3B14 015C 0000:?ipfx@istream@@QECHH@Z (REF 0096: .)
                5E04:
                  83C3028B:
                    37:
                      895EFE035C028B57088B47062306:
                        0. 02 AB73 00CB 0000:?osfx@ostream@@QACXXZ
                      8B7402037604F7440AFFFE895EFE740E:
                        0. 06 81CD 00A0 0000:?get@istream@@QACHXZ
                    76048B7402035C0283C30A803F00740C8A:
                      0. 23 4B62 00FA 0000:?ipfx@istream@@QACHH@Z (REF 0073: .)
                      1. 23 FAF0 00F8 0000:?ipfx@istream@@QACHH@Z (REF 0071: .)
                  8B:
                    078946FC:
                      31F689C38A078846FEFF46FC9889C3F6:
                        0. 01 CF00 0130 (l)0000:UM_INDIRECT_TYPE (010C: C6) (REF 00E0: .)
                        1. 01 CF00 0134 (l)0000:UM_INDIRECT_TYPE (010C: E8) (REF 00E2: .)
                      89C38A078946FE9889C3F687....0474:
                        0. 0C 13CC 00A0 (l)0000:UM_ARGUMENT (0073: 00) (REF 001C: .)
                        1. 0C 13CC 00A4 (l)0000:UM_ARGUMENT (0073: E5) (REF 001C: .)
                    4F048B57022BCAF6471880:
                      7405B80100EB0231C0:
                        0. 0D 32B4 00D7 0000:?fillbuf@filebuf@@AACHXZ
                      B80100750231C08946:
                        0. 0B C7CA 00D4 0000:?fillbuf@filebuf@@AACHXZ
                    57028B078956FE8946FCBB3C0031C9E8....891E:
                      0. 00 0000 012F 0000:_localtime
                    77028B740203F38B540A8B44082306....2316:
                      0. 00 0000 00C5 0000:?osfx@ostream@@QACXXZ
                  C747040000:
                    8B77028B740203F38B440489C68B4C12:
                      0. 1B EC2A 00B4 0000:?eatwhite@istream@@IACXXZ (REF 008D: .)
                    C746FC00006A0153E8....85C07503E9:
                      0. 92 54EA 0132 0000:?get@istream@@QACAAV1@PADHD@Z
                76:
                  04:
                    31:
                      C9894EFC894EFEBF010085F67503E94001394E08:
                        0. 06 9B53 0163 0000:_fnmerge
                      FF47744885F675014656E8....83C40289D109C1:
                        0. 0A 82B3 0064 0000:?__do_newalloc@@YAPEXI@Z
                    837C1A00740A31C05F5E8BE55DC204008B4E06894C:
                      0. 17 5A91 008D 0000:?attach@filebuf@@QACPAV1@H@Z
                    85F674:
                      258D4EFC51E8....8D4EFC51E8....83C402:
                        0. 0B 6638 003C 0000:__strtime
                      2F8D4EFC51E8....8D4EFC51E8....83C402:
                        0. 15 15A5 0046 0000:__strdate
                    8B7E068976FE:
                      4F85FF7E2BFF7608E8....83C40289:
                        0. 3B 59BD 005B 0000:_fgets
                      EB1AFF7608E8....598946FC83F8FF:
                        0. 36 A0F1 0056 0000:_fgets
                    B8FFFF998956FE8946FC837E08027531F6441A0475:
                      0. E1 AD8C 01A7 0000:?seekoff@strstreambuf@@UACJJW4seek_dir@ios@@H@Z
                    E8....89C783FFFE75528B16....A1....8956FE89:
                      0. 05 E6FF 006F 0000:__heapset
                    EB3109F675014656E8....5989D109C18956FE8946:
                      0. 05 32CB 005B 0000:??2@YAPEXI@Z
                  088B7E0A837E0400744185FF743DC746FC000085F674:
                    0. 26 D8CC 005E 0000:?__vec_ctor@@YAPAXPAXIHP6CPAXXZP6CHXZ@Z
                  0C:
                    09F67E0E8B56108B460E03C68956FE8946FC09F679:
                      0. 48 0AAA 081F 0000:?buffer_setup@strstreambuf@@AECXPEDH0@Z 017D:??0strstreambuf@@QEC@PEDH0@Z 01BE:??0strstreambuf@@QEC@PEEH0@Z 01FF:??0strstreambuf@@QEC@H@Z 023D:??0strstreambuf@@QEC@P6APEXI@ZP6AXPEX@ZH@Z 027C:??_7strstreambuf@@6F@ 028E:??1strstreambuf@@UEC@XZ 02FD:?freeze@strstreambuf@@QECXH@Z 031C:?str@strstreambuf@@QECPEDXZ 033B:?setbuf@strstreambuf@@UECPEVstreambuf@@PEDH@Z 0350:?doallocate@strstreambuf@@MECHXZ 0395:?overflow@strstreambuf@@UECHH@Z 0541:?underflow@strstreambuf@@UECHXZ 05DE:?seekoff@strstreambuf@@UEC?EVstreampos@@Vstreamoff@@W4relative_to@ios@@H@Z 081A:?sync@strstreambuf@@UECHXZ
                    C45E042680670ACF268B4F0A89C825830083F80274:
                      0. 20 7FB6 0188 0000:_fseek
                  108B7E12C45E0C268B07F7E68B560A8B5E0803D88956:
                    0. 3F 9A53 005F 0000:__lfind
                7E:
                  04:
                    31C05057E8....09C0744E8BDF83C3028B37895EFE:
                      0. 20 2C6A 006E 0000:??5istream@@QACAAV0@AAD@Z
                    897EFC8B4E06894EFEFF760AFF76088D4EFC5168:
                      0. 00 0000 0056 0000:__vsnprintf
                    8B:
                      46080B46067468C45E0626803F00757BC746FC01:
                        0. 08 45CE 00D1 0000:_setlocale
                      5E068B0F894EFC31F68976FE89CB8A17FF46FCEB:
                        0. A4 61BF 012D (l)0000:UM_TYPE_ENCODING
                        1. A4 9BA7 012B (l)0000:UM_TYPE_ENCODING
                      7608837D1A007410837D0600740A31C05F5E8BE5:
                        0. 33 0E55 0077 0000:?setbuf@filebuf@@UACPAVstreambuf@@PADH@Z
                      C78CD151508946FC894EFE:
                        E8....83C4048B4EFE:
                          0. 06 23A4 0064 (l)0000:_get_file_extension
                        ..........83C4048B:
                          0. 07 FF15 0068 (l)0000:_get_file_extension
                    B8:
                      01005057E8....09C074538BDF83C3028B37895E:
                        0. 55 1377 0075 0000:?peek@istream@@QACHXZ
                      FFFF394606745B8B4D088B55063BCA777B09C975:
                        0. 09 FD4A 00AD 0000:?pbackfail@filebuf@@MACHH@Z
                  06:
                    09FF7503E99E00803D007507C746FC0100EB35BE:
                      0. 00 0000 00CF 0000:_setlocale
                    837E0800743E837E040074388B5E08803F007430BE:
                      0. 6D B4E1 0139 0000:__FOPEN
                    85FF7463803D007579C746FC01008B46FC6BC02405:
                      0. 00 0000 00C0 0000:_setlocale
                  08:
                    837E0A007444837E0600743E8B5E0A803F00743683:
                      0. 76 DF50 0155 0000:__SOPENF
                      1. 76 FAF5 015E 0000:__SOPENF
                    C45E0426837F2C007415268B470A260B4708740B31:
                      0. 48 3BF3 00AC 0000:?setbuf@filebuf@@UECPEVstreambuf@@PEDH@Z
                    C746FE0102837E0A007417837E060074118B5E0A80:
                      0. 61 1D61 0184 0000:__SOPENF
              B8FFFF998956FE8946FCC45E0426C47704268B4C02C47604:
                0. 52 2E99 0082 0000:?tellg@istream@@QECJXZ
                1. 52 C4EA 0082 0000:?tellp@ostream@@QECJXZ
              BA....B8....C45E04:
                2689570C2689470ABA....B8....83:
                  0. 1A 36DE 00A2 0000:??1iostream_withassign@@UEC@XZ
                83C3048C46FC26C437268B4C02C476:
                  0. 0C 709C 0094 0000:??1istream_withassign@@UEC@XZ (REF 0009: ??_Qistream_withassign@@6Fios@@@)
                  1. 0C 709C 0094 0000:??1ostream_withassign@@UEC@XZ (REF 0009: ??_Qostream_withassign@@6Fios@@@)
              BF:
                01008B36....8B1E....803F0074104756E8....4001C6:
                  0. 0C F9E8 00A4 0000:___build_environ
                FFFF31C98B56068B46040520088956FE8946FC31F68BD6:
                  0. 4D 2FA3 00AC 0000:_wmhandler_setextratab
              C4:
                5E04268B5702268B078956FE8946FCBB3C0031C9E8:
                  0. 02 6CAD 0133 0000:_localtime
                7E0430C0B9FFFFF2AEF7D149:
                  4151E8....5989D109C189:
                    0. 2C 49E4 004C 0000:_strdup
                  89CE89F08CC28B5E0403D8:
                    0. 33 49A2 0053 0000:_strrchr
                    1. 32 6242 0052 0000:_strrchr
              C746:
                FC0000837E:
                  06007503E9F1018B5E048A0730E483F80D:
                    0. 34 D13A 0239 0000:_append2buffer
                  08007503E9F501C45E04268A0730E483F8:
                    0. 35 8FAE 023D 0000:_append2buffer
                FE01028B46100B460E741A8B46080B46067412C45E0E:
                  0. 6B 4E60 01AA 0000:__SOPENF
              FF76:
                04E8....:
                  09C0747EB80C00508B7E061E0730C0B9FFFF:
                    0. 0D BA85 009B 0000:??6ostream@@QACAAV0@PBD@Z
                  83C4028946FE01C083C00250E8....89C689:
                    0. 0A 2CE7 006F 0000:__mbsrev
                  85C074558B5E048B77028B740203F38B4404:
                    0. 52 7F1B 0072 0000:?put@ostream@@QACAAV1@D@Z
                06FF7604E8....09C07503E9A200B80C0050C47E0830:
                  0. 14 6B73 00C8 0000:??6ostream@@QECAEV0@PFD@Z
            680010E8....8956FE8946FC168D4E0E5166FF760A5250E8:
              0. 00 0000 0057 0000:_winio_warn
            837E100074:
              2BBA....B8....C45E042689570626894704BA:
                0. 00 0000 011D 0000:??0ostrstream@@QEC@PEDHH@Z
              39BA....B8....C45E042689570626894704BA:
                0. 00 0000 0139 0000:??0strstream@@QEC@PEDHH@Z
            8B:
              4E:
                088B760A8B56068B46048956FE8946FCEB09C45E04FF46:
                  0. 1F 139F 003F 0000:_strnset
                0C8B56068B46048956FE8946FC85C974698BC14985C074:
                  0. 0B C6BC 008E 0000:__mbsnbcpy
              56068B46048956FE8946FC66FF760C66FF7608168D460450:
                0. 01 361F 0042 0000:_vsprintf
              5E:
                048B57028B078956FE8946FC85D27F0D7C0485C0730731:
                  0. 07 D454 0077 0000:_localtime
                088B078946FC8D46FC50E8....50FF7606E8....89C68B:
                  0. 16 4CFC 0097 (l)0000:UM_FUNCTION_TYPE
                  1. 16 E0EC 009D (l)0000:UM_FUNCTION_TYPE
              76:
                04:
                  09F675014656E8....5989D109C18956FE8946FC7511:
                    0. 02 1E71 003C 0000:??2@YAPEXI@Z
                  566A04..........8EC289C3895EFC8C46FE26837F52:
                    0. 0D 8045 0085 0000:_winio_wmdestroy
                  83FEFF741CFF7608FF76061E68....E8....83C40889:
                    0. 1C 55FA 00C0 0000:_fdopen
                  8B540E8B440C8956FE8946FC8B56088B460689540E89:
                    0. 1F E6BE 003F 0000:?flags@ios@@QACJJ@Z
                  8D5C0C8B57028B078956FE8946FC8B56088B4606:
                    0907:
                      0. 1F 5F45 003F 0000:?setf@ios@@QACJJ@Z
                    F7D2:
                      0. 23 3C4E 0043 0000:?unsetf@ios@@QACJJ@Z
                      1. 34 87DE 0054 0000:?setf@ios@@QACJJJ@Z
                  F6441801:
                    74598B441C85C08946FC74228B4C1E8B56FC:
                      0. 24 F4A9 00B4 0000:?underflow@filebuf@@UACHXZ
                    7503E985008B441C09C08946FC74158B5C1E:
                      0. 1A A0EB 00A2 0000:?underflow@filebuf@@UACHXZ
                06FF7604:
                  E8....83C4028946FE83F808720D6A16E8:
                    0. 0F 5FD2 0091 0000:_signal
                  ..........85C0750731C05E8BE55DC3FF7604:
                    0. 02 46D1 005C 0000:_winio_setmenufunc
                08:
                  31C0C45E042688472426884725:
                    8CCAB8....26895702:
                      0. 61 C7B1 00DB 0000:??0streambuf@@QEC@PEDH@Z
                    BA....B8....268957:
                      0. 61 3ED2 00DA 0000:??0streambuf@@QEC@PEDH@Z
                  66C746FC000000008B46060B46047436FF7606FF7604:
                    0. 01 3E9B 005B 0000:__mbsrchr
                  C45E04268B471883C314262B073BC6895EFC8C46FE7C:
                    0. 0E 972B 0061 0000:?sputn@streambuf@@QECHPFDH@Z
                  FF7606FF7604E8....BA....B8....C45E0426895702:
                    0. 1A 194B 00B1 0000:??0strstreambuf@@QEC@H@Z
                0A8B56068B46048956FE8946FC8BCE4E85C974268EC289:
                  0. 2E 027E 004E 0000:_strnset
                0C85F67E0E8B56108B460E03C68956FE8946FC85F67911:
                  0. 1C 0EA7 018E 0000:?buffer_setup@strstreambuf@@AECXPEDH0@Z
            B8010050FF7606FF7604E8....09C07463FF760CFF760AFF76:
              0. 28 F7E4 0091 0000:?read@istream@@QECAEV1@PEXH@Z
            C45E04:
              26:
                8B472AA802745AA8087446B801005048505026FF77:
                  0. 02 F289 00E2 0000:?syncout@filebuf@@AECHXZ
                F6472A02752331C0992689571E2689471C2689571A:
                  0. 28 651F 00E0 0000:?syncout@filebuf@@AECHXZ
              83C328B8FFFF263907895EFC8C46FE750A8B4E0A2689:
                0. 20 1EB9 009B 0000:?attach@filebuf@@QECPEV1@HH@Z
                1. 1F 25FF 009D 0000:?attach@filebuf@@QECPEV1@HH@Z
            E8....89C66800:
              04E8....66FF7604E8....8956FE8946FC56:
                0. 01 3E9B 0031 0000:_floorf
              08E8....66FF7604E8....8956FE8946FC56:
                0. 01 3E9B 0031 0000:_ceilf
              0CE8....FF760AFF7608FF7606FF7604B8E0:
                0. 07 2730 005F 0000:_rndtonl
            F646:
              0410741AC45E062683070426C437268B54FE268B44FC89:
                0. 34 2772 0054 (l)0000:GETLONG
              05207418C45E062683070226C437268B44FE8CD9894EFE:
                0. 2A 00E6 004A (l)0000:GETPOINTER
            FF76:
              04E8....5989C683FEFF7503E9A800FF7608FF76061EB8:
                0. 00 0000 00C8 0000:_fdopen
              06FF7604E8....:
                83C40489C38D770156E8....83C40289:
                  0. 15 5ECC 0045 0000:_strdup
                89C689F08B56068B5E0403D88956FE89:
                  0. 2F 3786 004F 0000:_strrchr
              0CFF760AFF76088B56068B460483C0048EC289C326C437:
                0. 17 84B0 006E 0000:?write@ostream@@QECAEV1@PFXI@Z
          578B7E04:
            8B4518A8027450A8087441B8010050485050FF7516E8:
              0. 00 0000 00AC 0000:?syncout@filebuf@@AACHXZ
            B8FFFF:
              394606746B8B4D083B4D067603E9850085C975:
                0. 09 94F8 00B6 0000:?pbackfail@filebuf@@MACHH@Z
              998956FE8946FC8B5D028B5F0203DFF6470884:
                0. 36 23AB 0065 0000:?tellp@ostream@@QACJXZ
                1. 36 9832 0065 0000:?tellg@istream@@QACJXZ
            F6451802751331C089450E89450C894510485F8BE55D:
              0. 12 BCAA 00A9 0000:?syncout@filebuf@@AACHXZ
          66FF7604E8....8956FE8946FC66FF7608E8....83C4088B4EFE:
            0. 14 B393 0050 (l)0000:?__match_name@@YAHPFD0@Z
          6800:
            02E8....83C40289D109C18956FE8946FC7509B8FFFF8BE5:
              0. 1C CDD4 0047 0000:?doallocate@streambuf@@MECHXZ
            04E8....83C40289D109C18956FE8946FC7509B8FFFF8BE5:
              0. 2D 3800 004D 0000:?doallocate@streambuf@@MECHXZ
          833E....00:
            74:
              06FF16....EB03E8....8B16....A1....8956FE:
                0. 09 EC79 004F 0000:?unexpected@@YAXXZ
              10E8....501E68....688000..........680010:
                0. 01 3E9B 0070 0000:_fail
            7503E8....8B56068B46048956FE8946FC8EC289C3:
              0. 16 9D81 0054 0000:_ungets
          8B:
            16....A1....8956FE8946FC89D109C17503E8....C45EFC26:
              0. 2F BA0D 0055 0000:?__eh_rethrow@@YAXXZ
            46:
              0499F77E068946FC8B460499F77E068956FE8B56FE8B46FC:
                0. 04 A1B6 0024 0000:_div
              06:
                0B4604:
                  74:
                    32168D46FC50E8....168D46FC50E8....83C4:
                      0. 12 6F59 004A 0000:__strtime
                    3C168D46FC50E8....168D46FC50E8....83C4:
                      0. 1C 464B 0054 0000:__strdate
                  75:
                    07..........EB:
                      2D31C050E8....5903460413:
                        0. 0A 69ED 0116 0000:_sleep 0046:_msleep 00AE:_usleep
                      3331C05050E8....83C40403:
                        0. 0D C5B5 011C 0000:_sleep 004C:_msleep 00B4:_usleep
                    09..........8BE55DC3:
                      666A00E8....034604:
                        0. 10 0633 005F 0000:_sleep
                      6A00E8....03460413:
                        0. 0E 5AA8 005C 0000:_sleep
                66C746FC0000000083F810750A66C746FC40000000EB1C:
                  0. 23 DB7E 0052 (l)0000:?sbase@@YAAAVios@@AAV1@H@Z
              08:
                66C746FC0000000083F810750A66C746FC40000000EB1C:
                  0. 23 DB7E 0058 (l)0000:?sbase@@YAAEVios@@AEV1@H@Z
                83F80A740C83F80874:
                  1183F8107416EB1E66C746FC1000:
                    0. 43 71D9 0063 0000:?_iomanip_setbase@@YAAEVios@@AEV1@H@Z
                  1383F810741AEB24C746FC1000C7:
                    0. 4B F160 006B 0000:?_iomanip_setbase@@YAAEVios@@AEV1@H@Z
              0A0B460874088B46060B4604750A66C746FC00000000EB:
                4E:
                  0. 07 D3A5 008B (l)0000:STR_CAT
                58:
                  0. 06 CF16 0099 (l)0000:STR_CAT
            4E:
              048B460683F80A740C83F80874:
                1183F8107416EB1E66C746:
                  0. 3F 20F7 005F 0000:?_iomanip_setbase@@YAAAVios@@AAV1@H@Z
                1383F810741AEB24C746FC:
                  0. 47 AA68 0067 0000:?_iomanip_setbase@@YAAAVios@@AAV1@H@Z
              088B56068B46048956FE8946FC:
                8EC289C326803F007412C4:
                  0. 1B 302A 003B 0000:_strset
                EB09C45E04FF460426880F:
                  0. 13 A52D 0033 0000:_strset
            56:
              068B46048956FE8946FC:
                8EC289C3268A079885C0740C83F8:
                  0. 3A 45BB 005A (l)0000:?__get_name@@YAPEDPFD@Z
                EB:
                  15C45E04268A079850E8....59:
                    0. 1C 87F1 003C 0000:_strupr (REF 001D: _toupper)
                    1. 1C 87F1 003C 0000:_strlwr (REF 001D: _tolower)
                  2BC45E04268A1F30FFF687:
                    0. 32 B560 0052 0000:_strupr (REF 001E: .)
                    1. 32 E7E5 0052 0000:_strlwr (REF 001E: .)
              0A8B46088956FE8946FC:
                C45E0426803F0074:
                  43C45E082680:
                    0. 45 A29F 0065 0000:_strpbrk
                  71C45E082680:
                    0. 0B D1C8 0093 0000:__mbspbrk
                EB33C45E08268A07C45E04268A0F:
                  0. 37 C711 0057 0000:_strpbrk
            5E060BDB74088B47048B5706EB0753E8....83C4028946FC89:
              0. 07 4869 0093 0000:_utime (006A: EB)
              1. 07 4869 0092 0000:_utime (006A: ED)
          B42FCD21895EFC8C46FE8B56FE8B46FC8BE55DC3:
            0. 00 0000 001A 0000:_getdta
          B8000250E8....5989D109C18956FE8946FC7509B8FFFF8BE55D:
            0. 1F ECDB 004A 0000:?doallocate@streambuf@@MECHXZ
          C45E:
            04:
              26:
                8B57:
                  0A268B470889D109C18956FE8946FC74055250E8:
                    0. 00 0000 0060 0000:?tie@ios@@QECPEVostream@@PEV2@@Z
                  14268B47128956FE8946FC8B560A8B4608268957:
                    0. 26 8F5B 0046 0000:?flags@ios@@QECJJ@Z
                C45F04895EFC8C46FE268A079885C0740C83F801740C:
                  0. 29 42B8 0058 0000:?name@Type_info@@QFAPFDXZ
              83C312268B5702268B078956FE8946FC8B560A8B4608:
                26:
                  0. 2A E2C5 004A 0000:?setf@ios@@QECJJ@Z
                F7:
                  0. 41 0FBF 0061 0000:?setf@ios@@QECJJJ@Z
                  1. 2E EA77 004E 0000:?unsetf@ios@@QECJJ@Z
            088CC00BC3740A268B4704268B5706EB085353E8....83C4:
              0. 0D 523C 00A0 0000:_utime (0071: EB)
              1. 0D 523C 009F 0000:_utime (0071: ED)
          E8....89D109C18956FE8946FC750731C0998BE55DC368....6A:
            0. 08 BCB2 00C9 0000:_new_wmtab
          F646:
            041074168B5E068307048B1F8B57FE8B47FC8956FE8946FC:
              0. 2B 97E8 004B (l)0000:GETLONG
            054074168B5E068307048B1F8B57FE8B47FC8956FE8946FC:
              0. 21 D92E 0041 (l)0000:GETPOINTER
          FF76046A04..........8EC289C3895EFC8C46FE26837F060074:
            0. 04 0707 003E 0000:_winio_wmkillfocus
        06:
          1EB41C8A5604CD218A271F8846FA8866FB8956FC894EFE8A46FA:
            0. 28 813A 0048 0000:_getfat
            1. 24 82C5 0044 0000:_getfat
          56:
            57:
              168D46FA50:
                83EC06168D46:
                  085089E083C0041650E8....:
                    31:
                      0. 56 E356 00E4 0000:?seekg@istream@@QECAEV1@Vstreampos@@@Z
                    B8:
                      0. 53 640C 00D1 0000:?seekp@ostream@@QECAEV1@Vstreampos@@@Z
                  0A5089E083C0041650E8....FF:
                    0. 58 8A44 00D5 0000:?seekg@istream@@QECAEV1@Vstreamoff@@W4relative_to@ios@@@Z
                    1. 56 9ADE 00D4 0000:?seekp@ostream@@QECAEV1@Vstreamoff@@W4relative_to@ios@@@Z
                8D5E:
                  0836FF770436FF770236FF376A02C45E04:
                    0. 91 1351 00B1 0000:?seekp@ostream@@QECAEV1@Vstreampos@@@Z
                  0A36FF770436FF770236FF37FF76086A:
                    01:
                      0. 93 26E8 00B3 0000:?seekg@istream@@QECAEV1@Vstreamoff@@W4relative_to@ios@@@Z
                    02:
                      0. 94 2803 00B4 0000:?seekp@ostream@@QECAEV1@Vstreamoff@@W4relative_to@ios@@@Z
              31:
                C0:
                  50FF7606FF7604E8....09C0747F8B56068B460483C0:
                    0. 44 33F7 00A5 0000:??5istream@@QECAEV0@AED@Z
                  8946FA8B5E048B77028B740203F38B4C1085C9894EFC:
                    0. 13 48DE 015D 0000:??5istream@@QACAAV0@PAD@Z (REF 010D: .)
                C98B56068B46048956FC8946FA:
                  8EC289C326380F7420C4:
                    0. 30 0E94 00C7 0000:_mktemp
                  EB15C45EFA26803F5875:
                    0. 29 6B24 00BE 0000:_mktemp
                F6:
                  31FF6A20E8....83C40285C08946FA740A68....50E8:
                    0. 00 0000 00ED 0000:?sync_with_stdio@ios@@SAXXZ
                  8CDAB8....8956FC8946FABB....3B5EFA763289C789:
                    0. 13 FB7E 0057 0000:__rmtmp
                  C746FA0000B9200051E8....5989C709C07408B9:
                    0. 03 4AEA 00EE 0000:?sync_with_stdio@ios@@SAXXZ
              83:
                3E....00:
                  744F8B46063D110174343D0002744A3D040274:
                    0. 4A 0150 0141 0000:_msm_messagemonitor
                    1. 49 AE28 013F 0000:_msm_messagemonitor
                  756BC746FE....8B46FE8CD9894EFC8946FABE:
                    0. 00 0000 008B 0000:__STI_setlc
                7E:
                  040074118B460483C0028B5E048B7702034402EB0231:
                    0. 25 2983 00D9 0000:??4iostream_withassign@@QACAAV0@AAVios@@@Z
                  08007503E9:
                    9C006A01FF7604E8....85C07503E98D00:
                      0. 61 8FF8 00B8 0000:?ignore@istream@@QACAAV1@HH@Z
                    AE00B8010050FF7604E8....09C07503E9:
                      0. AA 74EE 00CA 0000:?ignore@istream@@QACAAV1@HH@Z
              8B:
                46:
                  043B460675085F5E8BE55DC204008B5E04C747060100:
                    0. 10 8ABA 00F8 0000:??4istream_withassign@@QACAAV0@AAVistream@@@Z (REF 0030: ?sync@istream@@QACHXZ)
                    1. 10 8ABA 00F8 0000:??4ostream_withassign@@QACAAV0@AAVostream@@@Z (REF 0030: ?flush@ostream@@QACAAV1@XZ)
                  060B46047508C74604....8C5E061E68....FF7606FF:
                    0. 03 EB9C 00BE 0000:_tmpnam
                  0E0B460C74458B46060B4604743DC45E0C26803F0074:
                    0. 7D B395 017C 0000:__FOPEN
                56068B460483C0048EC289C326C4378946FC8956FE2603:
                  0. 10 6CDB 0128 0000:?osfx@ostream@@QECXXZ
                5E:
                  04:
                    83C3028B:
                      378B7402037604:
                        837C0C00895EFE74:
                          0CFF:
                            0. 03 EB9C 0097 0000:??6ostream@@QACAAV0@D@Z
                          0FFF:
                            0. 03 EB9C 00D9 0000:??6@YAAAVostream@@AAV0@ABVcomplex@@@Z
                        8B54108B440E8956FC89:
                          0. 0A 4826 0082 0000:??6ostream@@QACAAV0@PAX@Z
                        F7440AFFFE895EFE7411:
                          0. 06 81CD 010D 0000:?read@istream@@QACAAV1@PADH@Z
                      76048B7C02035D028B470209C08946FA74:
                        0. 03 0B03 00A2 0000:??4iostream_withassign@@QACAAV0@PAVstreambuf@@@Z
                        1. 03 CC49 009B 0000:??4istream_withassign@@QACAAV0@PAVstreambuf@@@Z (REF 0023: ?sync@istream@@QACHXZ)
                        2. 03 CC49 009B 0000:??4ostream_withassign@@QACAAV0@PAVstreambuf@@@Z (REF 0023: ?flush@ostream@@QACAAV1@XZ)
                    8B:
                      37C746FA0000BFFFFFE8....8976FC803C3F740C:
                        0. 05 5DF5 0151 (l)0000:UM_NESTNAME (REF 0142: .)
                      77028B740203F3F7440AFFFE740F6A0153E8:
                        0. 73 124E 00C2 0000:?ignore@istream@@QACAAV1@HH@Z
                    C747040000:
                      6A0153E8....85C07503E99A00FF4E08:
                        0. 78 F302 00EB 0000:?getline@istream@@QACAAV1@PADHD@Z
                      C746FA0000B801005053E8....09C075:
                        0. E4 4FC9 0104 0000:?get@istream@@QACAAV1@PADHD@Z
                  06C60725C746FA00008B76048B7C028B7D0203FEF645:
                    0. 50 A51A 013B (l)0000:?fmtdbl@@YAXAAVostream@@PADH@Z
                76:
                  048B7E:
                    06:
                      56..........85C0740F83FF10741283FF0B:
                        0. 12 3948 0075 0000:_winio_setfont
                      803C007503E99000803D007503E9880056E8:
                        0. 00 0000 0111 0000:__mbsicmp (REF 006C: .)
                      8B460831C9884EFB884EFA8BC84885C9744A:
                        0. 09 05F5 007C 0000:_strnicmp (REF 004A: .)
                    0A806406CF8B4C0689C825830083F802741A3D:
                      0. 1B 826C 014D 0000:_fseek
                  088B7E0A:
                    837E0400744B85FF7447C746FA000085F674:
                      0. 30 03CF 0068 0000:?__vec_cpct@@YAPAXPAXIHP6CPAXXZP6CHXZ0@Z
                    C746FC0000837E0400751B8BC6F7660683C0:
                      0. 03 C5CB 008E 0000:?__vec_new@@YAPAXPAXIHP6CPAXXZP6CHXZ@Z
                  0A8B7E0C8B4E060B4E0474:
                    4B85FF7447C746FA000085:
                      0. 31 283B 00A8 0000:?__vec_ctor@@YAPEXPEXIHP6CPEXXZP6CHXZ@Z
                    5585FF7451C746FA000085:
                      0. 3B 5DBD 00B2 0000:?__vec_cpct@@YAPEXPEXIHP6CPEXXZP6CHXZ0@Z
                7E:
                  04:
                    31F68976FA8B4E08FF4E0885C974688A1D30FFF687:
                      0. 00 0000 0111 0000:__mbsnbicmp (REF 00FC: .)
                    57:
                      E8....09C074568BDF83C3028B37895EFE035C02:
                        0. 53 934E 0073 0000:?put@ostream@@QACAAV1@D@Z
                      ..........85C0750831C05F5E8BE55DC3576A04:
                        0. 00 0000 009B 0000:_winio_setpaint
                    837D16FF752231F68B4E08894D18F6C10A740FF6C1:
                      0. 15 C553 00D1 0000:?open@filebuf@@QACPAV1@PBDHH@Z
                    85FF7503BF....68....57E8....57E8....03C789:
                      0. 07 FEB6 009B 0000:_tmpnam
                    8B:
                      4606A8037503E91501837E0E017403E90C018B56:
                        0. FF F43B 0175 0000:?seekoff@strstreambuf@@UAC?AVstreampos@@Vstreamoff@@W4relative_to@ios@@H@Z
                      5D028B5F0203DF8B470485C08946FA74:
                        0457E8:
                          0. 00 0000 0094 0000:??4istream_withassign@@QACAAV0@PAVstreambuf@@@Z (REF 001F: ?sync@istream@@QACHXZ)
                          1. 00 0000 0094 0000:??4ostream_withassign@@QACAAV0@PAVstreambuf@@@Z (REF 001F: ?flush@ostream@@QACAAV1@XZ)
                        0B57E8:
                          0. 00 0000 009B 0000:??4iostream_withassign@@QACAAV0@PAVstreambuf@@@Z
                      5E068B0F894EFA31F689CB8A0F884EFEFF46FA89:
                        0. 10 7A57 0193 (l)0000:UM_DATA_TYPE (0162: FF)
                        1. 10 7A57 0197 (l)0000:UM_DATA_TYPE (0162: 89)
                    8D5D028B378B740203F78B54108B440E8956FC8946:
                      0. 0F 35A4 0066 0000:?ws@@YAAAVistream@@AAV1@@Z
                    A1....8946FA893E....8B16....A1....8956FE89:
                      0. 31 3BB7 00A2 (l)0000:?set_nh@@YAP6AHI@ZP6AHI@ZH@Z
                    C746FAFFFFC746FC0000BE....8B4C023BCF7551F6:
                      0. 55 6533 00E7 0000:_setmode
                    F64518027503E93C01837D0200751957E8....83F8:
                      0. 1D F042 0165 0000:?overflow@filebuf@@UACHH@Z
                  06:
                    5766C746FA00000000C746FE01008D5EFAFF7704FF:
                      0. 79 91B3 0099 0000:?tellp@ostream@@QAC?AVstreampos@@XZ
                    837E0800743E837E040074388B5E08803F007430BE:
                      0. 6D 0329 014E 0000:__FOPEN
                    897EFA:
                      85FF7E618B460483C0108946FC8B460483C0:
                        0. 40 27BE 0080 0000:?sputn@streambuf@@QACHPBDH@Z
                      8B460483C0108946FC8B460483C00E8946FE:
                        0. 3E 5A38 0080 0000:?sputn@streambuf@@QACHPBDH@Z
                    FF7604..........85C0750831C05F5E8BE55DC3FF:
                      0. 04 6150 00B1 0000:_winio_setbufsize
                  08:
                    31C08946FA8946FC3946067503E9B6008B5E048B77:
                      0. 04 1656 00D9 0000:?__rtti_cast@@YAPAXPAX0PBD1H@Z
                    8B56068B46048956FC8946FA897EFE66FF760E66FF:
                      0. 08 5D31 0061 0000:__vsnprintf
                  0A837E0E00740CFF7608FF7604E8....83C404C746FA:
                    0. 0D 033C 008D 0000:?format@_2Comp@@CAHPAEPADHHHH@Z
              8D46FA50:
                83EC068D46:
                  065089E083C00250E8....:
                    31C05040:
                      0. 39 505F 00AB 0000:?seekg@istream@@QACAAV1@Vstreampos@@@Z
                    B8020050:
                      0. 38 3152 00A3 0000:?seekp@ostream@@QACAAV1@Vstreampos@@@Z
                  085089E083C00250E8....FF7606B8:
                    0. 3B 4803 00A6 0000:?seekp@ostream@@QACAAV1@Vstreamoff@@W4relative_to@ios@@@Z
                    1. 3B 91AC 00A5 0000:?seekg@istream@@QACAAV1@Vstreamoff@@W4relative_to@ios@@@Z
                8D5E:
                  06FF7704FF7702FF376A028B5E048B77028B:
                    0. 6F 06E8 008F 0000:?seekp@ostream@@QACAAV1@Vstreampos@@@Z
                  08FF7704FF7702FF37FF76066A:
                    018B5E048B:
                      0. 71 F858 0091 0000:?seekg@istream@@QACAAV1@Vstreamoff@@W4relative_to@ios@@@Z
                    028B5E048B:
                      0. 72 2DCB 0092 0000:?seekp@ostream@@QACAAV1@Vstreamoff@@W4relative_to@ios@@@Z
              B8010050FF7606FF7604E8....09C07503E982008B56068B:
                0. 89 5E53 00A9 0000:?peek@istream@@QECHXZ
              C45E0426:
                8B7F1883C314262B3F85FF895EFC8C46FE7E1E57:
                  0. 0C 4A90 00E1 0000:?xsputn@streambuf@@UECHPFDH@Z
                C47704268B4402C4760403F0:
                  268B54:
                    0A268B4408:
                      0. 5D 36D5 008A 0000:?do_get@istream@@AECDXZ
                    12268B4410:
                      0. 02 2A63 0105 0000:?osfx@ostream@@QECXXZ
                  83C61426803C0074:
                    0. 37 0C90 017A 0000:?ipfx@istream@@QECHH@Z (REF 00E2: .)
              FF76:
                04E8....09C07503E98F00B80C0050B00150FF7604E8:
                  0. 00 0000 00AF 0000:??6ostream@@QACAAV0@D@Z
                06:
                  66C746FA00000000C746FE01008D5EFAFF7704FF77:
                    0. 23 E6EE 0043 0000:?tellg@istream@@QAC?AVstreampos@@XZ
                  C746FA0000C746FC0000C746FE01008D5EFEB90300:
                    0. 2C 6453 004C 0000:?tellg@istream@@QAC?AVstreampos@@XZ
                  FF7604E8....85C07474C45E0426C47704268B4402:
                    0. 77 00F1 0097 0000:?put@ostream@@QECAEV1@D@Z
            66FF760866C746FA00000000C746FE01008CD08EC08D5EFA26:
              0. 3A AF86 005A 0000:?tellg@istream@@QEC?EVstreampos@@XZ
            8B:
              56068B4604:
                83C004:
                  8EC289C326C4378946FC8956FE260344:
                    0. 5A 97A6 007A 0000:?sync@istream@@QECHXZ
                  C45E0426C45F04260347028EC289C383:
                    0. 3F 0D75 015F 0000:?ipfx@istream@@QECHH@Z (REF 009A: .)
                8956FC8946FA8EC289C326803F00742FC45E04:
                  0. 0B FEE5 0057 0000:_strlwr (000B: 20) (REF 002B: .)
                  1. 0B FEE5 0057 0000:_strupr (000B: E0) (REF 002B: .)
              5E048B378A048846FA469889C3F687....0474208A46FA98:
                0. 54 1908 0074 (l)0000:UM_DIMENSION (REF 0017: .)
              76:
                04:
                  566A006A02566A04..........8EC289C3895EFA8C46:
                    0. 05 9688 0091 0000:_winio_wmsetfocus
                  8B44068946FEF646FE83750F66C746FAFFFFFFFF6A09:
                    0. 01 3E9B 0081 0000:_ftell
                088B56068B46048956FE8946FC:
                  4E85F67E3E66FF760AE8:
                    0. 00 0000 007D 0000:_fgets
                  EB24FF760CFF760AE8:
                    0. 00 0000 007E 0000:_fgets
            C45E0426:
              803F007503E9C600C45E0826803F007503E9BA00FF:
                0. 06 198E 0158 0000:__mbsicmp (REF 0087: .)
              8B471E8946FA26034718268B4F203BC17C1A268B47:
                0. 39 3D3B 0098 0000:_adjust_caret
            FF760AFF760866C746FA00000000C746FE01008CD08EC08D5E:
              0. 9F 9288 00BF 0000:?tellp@ostream@@QEC?EVstreampos@@XZ
          578B7E04F64518027503E92B01837D0200751957E8....83F8FF:
            0. 1C A5F3 0151 0000:?overflow@filebuf@@UACHH@Z
          66FF76108B560C8B460A8956FC8946FA8B460E8946FE8CD08EC0:
            0. 29 5162 0049 0000:?seekpos@streambuf@@UEC?EVstreampos@@V2@H@Z
          833E....007403E90001C706....01008B1E....8B5F028B87:
            0. 00 0000 0114 0000:?sync_with_stdio@ios@@SAXXZ
          8B:
            4E0C31D28856FA8BC14985C07455C45E04268A1F895EFC30FF:
              0. 02 28D7 0079 0000:_strnicmp (REF 0048: .)
            56068B46048956:
              FC8946FA833E....007503E8....C41E:
                0. 11 5135 00B3 0000:_gets
              FE8946FC1E:
                68....E8....83C4048946FAB9:
                  0. 1D D61B 0072 0000:_gets
                B8....50E8....83C4048946FA:
                  0. 15 7F1D 0070 0000:_gets
          A1....8946FCA1....8946FEC706....0000FF7604FF7606E8:
            0. 00 0000 005B 0000:_setblock
          C45E0426:
            8B470A8946FEF646FE83750F66C746FAFFFFFFFF6A09:
              0. 01 3E9B 008E 0000:_ftell
            F6472A80:
              7405B80008EB03B800048946FA50E8....59:
                0. 31 4D17 005C 0000:?doallocate@filebuf@@MECHXZ
              B800087502B4048946FA50E8....83C40289:
                0. 2C E643 0057 0000:?doallocate@filebuf@@MECHXZ
          C746FE06005657FF76:
            0A:
              E8....83C4028946FC83C005508D4EFE:
                0. 01 3E9B 00D7 (l)0000:EXECUTE
              ..........83C4028946FC83C005508D:
                0. 02 C0CD 00EA (l)0000:EXECUTE
            0CFF760AFF760866FF7604E8....8946FC:
              0. 09 7E1E 0108 (l)0000:EXECUTE_VIA_PATH
              1. 09 C2F6 00FB (l)0000:EXECUTE_VIA_PATH
          FF:
            06....A1....B901003BC17403E90A016A24E8....83C40285:
              0. 0A 6119 012A 0000:??0Iostream_init@@QAC@XZ
            76:
              0AFF7608C746FA0000C746FC0000C746FE01008D5EFEB903:
                0. 41 B7CD 0061 0000:?tellg@istream@@QEC?EVstreampos@@XZ
              0E8B560A8B46088956FC8946FA8B460C8946FE8D5EFAFF77:
                0. 1C 0D41 003C 0000:?seekpos@streambuf@@UAC?AVstreampos@@V2@H@Z
        08:
          56:
            57:
              31C0:
                508B56068B4604E8....505351528D46F850E8....:
                  89:
                    0. 0D 9CC8 0504 0000:_asinf 0035:_asin 0062:_acosf 0098:_acos
                  8E:
                    0. 13 058A 053C 0000:_asinf 003B:_asin 006E:_acosf 00AA:_acos
                8946F88B:
                  56068B5E0483C304C4760426C4740426035C:
                    0. 1F 6D5A 0182 0000:??5istream@@QECAEV0@PED@Z (0142: 00) (REF 010D: .)
                    1. 1F 6D5A 0185 0000:??5istream@@QECAEV0@PED@Z (0142: 5D) (REF 0110: .)
                  5E0483C3028B76048B7402035C028B4F0E09:
                    0. 17 B381 012A 0000:??5istream@@QACAAV0@PAD@Z (00F2: 00) (REF 00D2: .)
                    1. 17 B381 012D 0000:??5istream@@QACAAV0@PAD@Z (00F2: 5D) (REF 00D5: .)
              6A:
                008B56068B4604E8....505351528D46F850E8....:
                  89C3:
                    0. 0C ADCC 0034 0000:_coshf (REF 001C: _SINHCOSH)
                    1. 0C ADCC 0034 0000:_asinf (REF 001C: _ASINCOS)
                    2. 0C ADCC 0034 0000:_logf (REF 001C: _LOGLOG)
                  8EC2:
                    0. 12 A7F7 003A 0000:_coshf (REF 001C: _SINHCOSH)
                    1. 12 A7F7 003A 0000:_asinf (REF 001C: _ASINCOS)
                    2. 12 A7F7 003A 0000:_logf (REF 001C: _LOGLOG)
                01:
                  8B56068B4604E8....505351528D46F850E8....:
                    89C3:
                      0. 0C ADCC 0034 0000:_sinhf (REF 001C: _SINHCOSH)
                      1. 0C ADCC 0034 0000:_acosf (REF 001C: _ASINCOS)
                      2. 0C ADCC 0034 0000:_log10f (REF 001C: _LOGLOG)
                    8EC2:
                      0. 12 A7F7 003A 0000:_sinhf (REF 001C: _SINHCOSH)
                      1. 12 A7F7 003A 0000:_acosf (REF 001C: _ASINCOS)
                      2. 12 A7F7 003A 0000:_log10f (REF 001C: _LOGLOG)
                  FF7604E8....85C07503E9D8008B5E048B77028B7402:
                    0. 89 8272 00FA 0000:??5istream@@QACAAV0@PAVstreambuf@@@Z
                0266680E010000..........50..........89D109C189:
                  0. 66 994E 00E4 0000:_new_wnddata
              83:
                3E....007415C746FCFDFF8B46FC5F5E8BE55DC3C746FC:
                  0. 0B 6048 00ED 0000:__heapchk
                7E:
                  0800751E66FF7604E8....66C746040000000083C404:
                    0. 2D B13F 0120 0000:__expand
                  0A007503E9:
                    D1006A0166FF7604E8....85C07503E9C1:
                      0. 92 3AB6 00F0 0000:?ignore@istream@@QECAEV1@HH@Z
                    F500B8010050FF7606FF7604E8....09C0:
                      0. F4 E72C 0114 0000:?ignore@istream@@QECAEV1@HH@Z
                  1000741DBA....B8....C45E0426895706268947048C:
                    0. 09 9A55 0106 0000:??0istream@@QEC@HPEDH@Z (00D8: FF)
                    1. 09 9A55 0120 0000:??0istream@@QEC@HHPEVostream@@@Z (00D8: 00)
              8B:
                46:
                  043B46067503E9CC0089C3C74706010083C30289C68B:
                    0. 0D FADB 00EA 0000:??4istream_withassign@@QACAAV0@AAVistream@@@Z (REF 002D: ?sync@istream@@QACHXZ)
                    1. 0D FADB 00EA 0000:??4ostream_withassign@@QACAAV0@AAVostream@@@Z (REF 002D: ?flush@ostream@@QACAAV1@XZ)
                  06:
                    0B4604:
                      74168B56068B460483C004C45E0426C47704:
                        0. 41 1FEA 0167 0000:??4iostream_withassign@@QECAEV0@AEVios@@@Z
                      7506BEFFFFE9910031F6C45E04268B4F0AF6:
                        0. 0E 33E2 00AF 0000:_fclose
                    83C0088946FC8B460683C00A8946FE8B5EFC8B078B:
                      0. 19 0FBA 00A6 0000:??6ostream@@QACAAV0@PAVstreambuf@@@Z
                      1. 1B 401E 00AE 0000:??6ostream@@QACAAV0@PAVstreambuf@@@Z
                    8946F88B:
                      46088946FA8B460A8946FC8B460C8946FE:
                        0. 18 1EBF 0048 0000:_lock
                        1. 18 D736 0048 0000:_unlock
                      5E0483C3028B378B7402037604837C0A00:
                        0. 0B 1B02 030C 0000:?floatstr@istream@@AACXPAD@Z (REF 02C5: .)
                  0A50FF76046A04..........8EC289C3895EF88C46FA:
                    0. 12 586F 00FD 0000:_winio_wmsize
                56068B4604:
                  8956FE8946FC8EC289C730C0B9FFFFF2AEF7:
                    0. 4F 6FD8 006F 0000:_strrev
                  8B4E0A8B5E08E8....8956FA8946F88B5606:
                    0. 0A 2DD4 0051 0000:_ldiv (001E: B8)
                    1. 0A 2DD4 0049 0000:_ldiv (001E: C3)
                  E8....50535152:
                    31C0508D46F850E8....:
                      89:
                        0. 0D 9CC8 0483 0000:_sinf 0035:_sin 0062:_cosf 0098:_cos
                      8E:
                        0. 13 058A 04BA 0000:_sinf 003B:_sin 006E:_cosf 00AA:_cos
                    6A:
                      008D46F850E8....:
                        89C3:
                          0. 0C ADCC 0034 0000:_sinf
                        8EC2:
                          0. 12 A7F7 003A 0000:_sinf
                      018D46F850E8....:
                        89C3:
                          0. 0C ADCC 0034 0000:_cosf
                        8EC2:
                          0. 12 A7F7 003A 0000:_cosf
                5E04:
                  01DB8B87....4831C9894EFA8946F8:
                    8B5E068B470A:
                      0. 70 0E03 00A0 (l)0000:_CALC_DSTENDDAY
                      1. 6F 5CD9 00A2 (l)0000:_CALC_DSTENDDAY
                    C45E06268B47:
                      0. 70 1A99 00A3 (l)0000:_CALC_DSTENDDAY
                      1. 71 7C24 00A1 (l)0000:_CALC_DSTENDDAY
                  83C3028B378B7402037604:
                    837C0A00895EFE74116A:
                      0. 05 8250 0126 0000:??5istream@@QACAAV0@PAD@Z (REF 00E5: .)
                    F7440AFFFE895EFE7411:
                      0. 06 81CD 0135 0000:?get@istream@@QACAAV1@PADHD@Z
                  8B77028B740203F3837C0C00740D53E8....85C075:
                    0. AA 3857 00DD 0000:??6ostream@@QACAAV0@PAVstreambuf@@@Z
                  C747040000B801005053E8....09C07503E9A700FF:
                    0. DE 7775 00FE 0000:?getline@istream@@QACAAV1@PADHD@Z
                76:
                  04:
                    09F67505BFFFFFEB7131FF8B4C06F6C1837415F6C1:
                      0. 05 11B6 008D 0000:_fclose
                    8B7E08837C1A007403E9ED0085FF7503E9E6008BCF:
                      0. A8 CA3F 014F 0000:?open@filebuf@@QACPAV1@PBDHH@Z
                  0A8B7E0CC746FA00008B4E060B4E0475208BC6F76608:
                    0. 05 3E6E 00DE 0000:?__vec_new@@YAPEXPEXIHP6CPEXXZP6CHXZ@Z
                  0E837E1200740DFF760C66FF7604E8....83C406C746:
                    0. 18 7F9C 00AA 0000:?format@_2Comp@@CAHPEEPEDHHHH@Z
                7E:
                  04:
                    57:
                      E8....:
                        5909C0757AB801005031C9515157E8:
                          0. 20 DFE6 00A4 0000:_eof
                        85C0750A8BC75F5E8BE55DC204006A0C6A:
                          0. 03 A969 00A3 0000:??6ostream@@QACAAV0@D@Z
                      ..........85C075065F5E8BE55DC3576A04:
                        0. 00 0000 00EF 0000:_winio_clear
                    8B:
                      450C85C074072B450A741FEB0439E474196AFF57:
                        0. 44 77B9 00A4 0000:?sync@stdiobuf@@UACHXZ
                      4606F766088946F88B5E0AF6470701742E8B7604:
                        0. 10 C34D 0147 0000:_fwrite
                      5D16F6470620740BB8FFFF5F5E8BE55DC204008B:
                        0. 27 3ABA 00A0 0000:?overflow@stdiobuf@@UACHH@Z
                  06:
                    57C746F80000C746FA0000C746FC01008D5EFCB903:
                      0. 41 06CF 008B 0000:?tellp@ostream@@QAC?AVstreampos@@XZ
                    8B5E06F6470B0274126A02666A00FF770CE8....80:
                      0. 32 14CC 0121 0000:__flushbu
                    B801008946FA837E08007411837E0400740B8B5E08:
                      0. 56 B84B 018A 0000:__FOPEN
                  08:
                    8BC7C1E00250E8....83C40289D109C18956FA8946:
                      0. 20 D99C 009C 0000:?usersize@ios@@AECXH@Z
                    8D46F850FF76068B5E0483C3028B378B7402037604:
                      0. 11 9ABE 0200 0000:?sci_notation@ostream@@AACHNPADAAH@Z
                  0C833E....007418FF760E5766FF760866FF7604E8:
                    0. 00 0000 00AD 0000:_poly
                  0E8D4EFA518D4EF851FF760C66FF760866FF7604E8:
                    0. 00 0000 00E9 0000:_gcvt
              B80100:
                508B56068B4604E8....505351528D46F850E8:
                  0. 14 0BC5 06DD 0000:_sinhf 003C:_sinh 0070:_coshf 00AB:_cosh 0454:_tanhf 0473:_tanh
                  1. 0E 4AB9 06B2 0000:_sinhf 0036:_sinh 0064:_coshf 0099:_cosh 042B:_tanhf 044A:_tanh
                8946FA8B4E0E0B4E0C74148B4E060B4E04740CC45E:
                  0. 60 2BF5 01AC 0000:__FOPEN
              BF01008B16....A1....8956FA8946F88EC289C326803F00:
                0. 08 87B8 00E9 0000:___build_environ
              C45E:
                04:
                  26:
                    837F2C007479268A472A24033C01746F26837F06:
                      0. 28 ABDB 013B 0000:?overflow@filebuf@@UECHH@Z
                    8B:
                      4716260B4714740C268B4714262B47107420EB:
                        0. 62 9E41 00ED 0000:?sync@filebuf@@UECHXZ
                      7F2E85FF7503BF1000268B472885C08946FE74:
                        0. 18 2869 00A5 0000:?doallocate@strstreambuf@@UECHXZ
                    C47704268B4402C4760403F026:
                      837C120074126A:
                        0. 06 0A57 00CF 0000:??5istream@@QECAEV0@AED@Z
                      F74412FFFE7412:
                        0. 07 0C65 00FC 0000:?ignore@istream@@QECAEV1@HH@Z
                  83C3048C46FC26C437268B4402C4760403F026:
                    837C:
                      0. 0E 7E22 0121 0000:??6@YAAEVostream@@AEV0@AFVcomplex@@@Z
                    8B54:
                      0. 13 0D52 00AC 0000:??6ostream@@QECAEV0@PEX@Z
                      1. 1E BAB9 0093 0000:?ws@@YAAEVistream@@AEV1@@Z
                    F744:
                      0. 11 2A51 0119 0000:?eatwhite@@YAXAEVistream@@@Z (REF 010E: .)
                0826C60725C746F80000C4760426C47C04268B4502C4:
                  0. 6F 8D1B 0180 (l)0000:?fmtdbl@@YAXAEVostream@@PEDH@Z
              C746FA0000:
                8B5E048B57028B078956FE8946FC85D27D03E9:
                  0. 11 DBB7 0170 0000:_gmtime
                C45E04268B5702268B078956FE8946FC85D27D:
                  0. 13 9817 0175 0000:_gmtime
              FF76:
                06FF7604E8....85C0750E8B56068B46045F5E8BE55D:
                  0. 0E B5EE 00D4 0000:??6ostream@@QECAEV0@D@Z
                0AFF7608C746F80000C746FA0000C746FC01008D5EFC:
                  0. 5F 8671 00B8 0000:?tellp@ostream@@QEC?EVstreampos@@XZ
            8B:
              46:
                063B06....752A8B46043B06....77213B06....721B3B:
                  0. 01 4E95 00A3 0000:PTRCHK
                0A0B4608751266FF7604E8....83C40431C0995E8BE55D:
                  0. 12 5A66 00F1 0000:_farrealloc
              56068B46048956FE8946FC5250E8....8B56068B5E0403D8:
                0. 4C 1FC0 006C 0000:_strrev
              76:
                0456E8....83C40285C0741431C05E8BE55DC36A09E8:
                  0. 00 0000 00A0 0000:_eof
                088B56068B46040520088956FA8946F88956FE8946FC8B:
                  0. 38 753F 0058 0000:_wmhandler_getextratab
                  1. 37 75E9 0057 0000:_wmhandler_isextramsg
                  2. 38 7CBF 0058 0000:_wmhandler_isextramsg
            B8FFFF3946087503E9:
              BE00C45E04268B4F10268B570C3BCA76:
                0. 20 8E38 0139 0000:?pbackfail@filebuf@@MECHH@Z
              CD00C45E04268B4F10263B4F0C7603E9:
                0. 1E 9426 0149 0000:?pbackfail@filebuf@@MECHH@Z
            C45E0426:
              837F:
                28FF752531F68B460A2689472AA80A740EA801:
                  0. 18 BE9B 00FC 0000:?open@filebuf@@QECPEV1@PFDHH@Z
                2C00740A31C0995E8BE55DC206008B4608C45E:
                  0. 2A 9F21 00DA 0000:?attach@filebuf@@QECPEV1@H@Z
              8B:
                47:
                  08B903003BC17D03E9270183F8097E03E91F01:
                    0. 11 0E59 0146 0000:___adjustfordst
                  16260B4714740C268B4714262B47107426EB04:
                    0. 70 F7E2 0102 0000:?sync@stdiobuf@@UECHXZ
                5702268B0789:
                  56FA8946F8C45EF8FF46F8268A07:
                    0. 22 10C3 0083 (l)0000:UM_CALLING_CONVENTION
                    1. 22 5E9B 0085 (l)0000:UM_CALLING_CONVENTION
                  D109C18956FA8946F87503E9C800:
                    0. 1A 6707 00EF 0000:??1__eh_cv@@QEC@XZ
            FF76:
              046A04..........8EC289C3895EF88C46FA268B573C26:
                0. 2E B62D 006F 0000:_winio_wmchar
              06FF7604E8....8B56068B5E0403D88956FA895EF883C4:
                0. 4A 6D7E 006A (l)0000:_killzeroes
          578B7E048B45:
            08B903003BC17D03E9180183F8097E03E910013B:
              0. 0D EEE1 0136 0000:___adjustfordst
            0C85C074072B450A7417EB0439E474116AFF578B:
              0. 41 0FFA 00A4 0000:?sync@filebuf@@UACHXZ
          66:
            C746F8000000008B560A8B46088956FE8946FC8EC289C3268A:
              0. 16 BCAE 0095 0000:?printint@ostream@@AECXPFD@Z
            FF760866FF76046A:
              008D46F850E8....:
                89C38B47068B4F028B:
                  0. 08 1DAE 0028 0000:_sin
                8EC289C3268B470626:
                  0. 0E 4CE8 002E 0000:_sin
              018D46F850E8....:
                89C38B47068B4F028B:
                  0. 08 1DAE 0028 0000:_cos
                8EC289C3268B470626:
                  0. 0E 4CE8 002E 0000:_cos
          6A:
            0066FF760866FF76048D46F850E8....:
              89C38B47068B4F028B:
                0. 08 1DAE 0028 0000:_asin (REF 0015: _ASINCOS)
                1. 08 1DAE 0028 0000:_log (REF 0015: _LOGLOG)
                2. 08 1DAE 0028 0000:_cosh (REF 0015: _SINHCOSH)
              8EC289C3268B470626:
                0. 0E 4CE8 002E 0000:_asin (REF 0015: _ASINCOS)
                1. 0E 4CE8 002E 0000:_log (REF 0015: _LOGLOG)
                2. 0E 4CE8 002E 0000:_cosh (REF 0015: _SINHCOSH)
            0166FF760866FF76048D46F850E8....:
              89C38B47068B4F028B:
                0. 08 1DAE 0028 0000:_acos (REF 0015: _ASINCOS)
                1. 08 1DAE 0028 0000:_log10 (REF 0015: _LOGLOG)
                2. 08 1DAE 0028 0000:_sinh (REF 0015: _SINHCOSH)
              8EC289C3268B470626:
                0. 0E 4CE8 002E 0000:_acos (REF 0015: _ASINCOS)
                1. 0E 4CE8 002E 0000:_log10 (REF 0015: _LOGLOG)
                2. 0E 4CE8 002E 0000:_sinh (REF 0015: _SINHCOSH)
          833E....00741766FF761066FF760C66FF760866FF7604E8:
            0. 37 0ABE 00AC 0000:_fmod
          8B:
            46060B46047503E8....8B460A0B46087503E8....C45E0426:
              0. C7 4031 00E7 (l)0000:?pop_exception@@YAPEUEhstack@@PEUStaticvar@@PEU1@@Z
            56068B46048956:
              FA8946F88B:
                4E0A8B5E08894EFE895EFC8EC2:
                  0. 16 7E15 009D 0000:__mbsspn
                  1. 16 8199 009B 0000:__mbscspn
                  2. 4D 9E5D 006D 0000:_strcspn
                  3. 4F E656 006F 0000:_strspn
                560A8B46088956FE8946FCEB:
                  28:
                    0. 3B B55C 005B 0000:_strspn
                  2B:
                    0. 3E 81B6 005E 0000:_strcspn
              FE8946FC8B4E0A8B5E0839CA750239D87406:
                0. 20 A41C 0067 0000:__mbsdec
          B800448B5E04CD217303E98500F6C280737AB801005031C95151:
            0. 04 2B63 00A5 0000:_eof
          C45E04268B57:
            02268B078956FA8946F8:
              66C746FC000000008EC2:
                0. 16 3CE2 00A5 (l)0000:UM_SCOPE
                1. 15 4F0E 00A7 (l)0000:UM_SCOPE
              85D27F0D7C0485C07307:
                0. 08 422C 008D 0000:_localtime
              8EC289C326803F5875:
                15:
                  0. 02 88EF 00F9 (l)0000:UM_ARGUMENT_TYPES
                17:
                  0. 02 88EF 0102 (l)0000:UM_ARGUMENT_TYPES
            12268B47108956FA8946F831C9:
              268B47143B46F8:
                0. 2F C7E7 004F 0000:?newlines@filebuf@@AECHXZ
              8CC289D883C014:
                0. 28 D1EE 0048 0000:?newlines@filebuf@@AECHXZ
          FF7606FF7604E8....BA....B8....C45E0426895702268907:
            26:
              0. 1C 5C2A 00BB 0000:??0filebuf@@QEC@XZ
            8B:
              0. 20 8580 00BF 0000:??0filebuf@@QEC@H@Z
              1. 11 9A49 00B1 0000:??0stdiobuf@@QEC@PEU_iobuf@@@Z
        0A:
          168D46F650:
            66FF36....1E68....68....68....168D46FE50FF:
              0. 06 198E 004D 0000:??5istream@@QECAEV0@AEM@Z
            E8....:
              66FF7604E8....8B46F6253F0050E8....8B:
                0. 03 C861 0023 0000:_feprocexit
              83C4048B46:
                F62346048BE55DC3:
                  558BEC83EC:
                    0. 07 3D76 01CB 0000:_fetestexcept 001B:_feclearexcept 0050:_fegetexcept 0065:_fesetexcept 0081:_fegetround 009C:_fesetround 00DF:_fegetprec 00FA:_fesetprec 013D:_fegetenv 017B:_fesetenv 01AF:_feprocentry
                  ..:
                    0. 00 0000 001B 0000:_fetestexcept
                F82500:
                  038BE55DC3:
                    0. 00 0000 001B 0000:_fegetprec
                  0C8BE55DC3:
                    0. 00 0000 001B 0000:_fegetround
              8B4604253F00F7D02146F6168D46F650E8:
                0. 00 0000 0032 0000:_feclearexcept
          1E68....168D46F850E8....83C408168D46F850E8....83C404:
            0. 09 E0FB 0099 0000:_creattemp
          56:
            168D46F650E8....8B76F681E6200066FF7604E8....895606:
              0. 09 3A4F 0048 0000:_nearbyintf
            31C08946FA8946FC8B460A0B46087503E91001C45E04268B57:
              0. 14 CA92 0132 0000:?__rtti_cast@@YAPEXPEX0PFD1H@Z
            57:
              168D46F650E8....8B7EF681E7200066FF760866FF7604E8:
                0. 00 0000 0057 0000:_nearbyint
              31C08946F6C45E0426C47704268B4C02C4760403F1268B4C:
                0. 1B DEB4 01CE 0000:??5istream@@QECAEV0@PED@Z (REF 0169: .)
              833E....007403E8....833E....007406E8....E8....8C:
                0. 02 CF94 00E3 (l)0000:?push_exception@@YAPEUEhstack@@PFDP6CHXZIUlargeprimtype@@@Z
              8B:
                46060B4604:
                  7417C45E0426C47704268B44028B56068BF3:
                    0. 48 48DD 016C 0000:??4iostream_withassign@@QECAEV0@AEVios@@@Z
                  7506BEFFFFE99A0031F6C45E04268B4F0AF6:
                    0. 0E 0393 00B8 0000:_fclose
                56:
                  048B7606BFFFFFC746FA....8C5EFCB8....89C183C1:
                    0. 3A 7626 009E 0000:_setmode
                  068B460483C004C45E0426C47704260344028EC289C6:
                    0. 19 497F 0116 0000:??4iostream_withassign@@QECAEV0@PEVstreambuf@@@Z
                    1. 19 AF35 0108 0000:??4istream_withassign@@QECAEV0@PEVstreambuf@@@Z (REF 0039: ?sync@istream@@QECHXZ)
                    2. 19 AF35 0108 0000:??4ostream_withassign@@QECAEV0@PEVstreambuf@@@Z (REF 0039: ?flush@ostream@@QECAEV1@XZ)
                5E04:
                  807F24007403E9:
                    B500F6471880740653E8....EB02:
                      0. 46 5E0C 00EC 0000:?syncin@filebuf@@AACHXZ
                    BC00F6471880740653E8....EB02:
                      0. 46 F965 00F1 0000:?syncin@filebuf@@AACHXZ
                  83C3028B378B7402037604F7440AFFFE895EFE7411:
                    0. 06 81CD 012A 0000:?getline@istream@@QACAAV1@PADHD@Z
                  8B:
                    470A83C0BC8946FA83F8597603E9B300B96D01F7:
                      0. 1A 29D9 00D9 0000:_mktime
                    77028B740203F38B4408250E0031C989CA09C289:
                      0. 98 2CFA 00B8 0000:?pad@ostream@@QACHHH@Z
                76:
                  04:
                    66C746F60000000085F67503E9:
                      1801803C007503E9:
                        0. 09 833D 0140 (l)0000:GMT_OFFSET (REF 0036: .)
                      1E01803C007503E9:
                        0. 09 9C99 0146 (l)0000:GMT_OFFSET (REF 0036: .)
                    85F67505BFFFFFEB7931FF8B4406A883741AA80475:
                      0. 03 B3B6 0095 0000:_fclose
                    8B44:
                      0C85C074072B440A751AEB0439E475148B4414:
                        0. 52 E699 00BA 0000:?seekoff@stdiobuf@@UACJJW4seek_dir@ios@@H@Z
                      148B4C123BC176062BC17414EB0439E4740E89:
                        0. 11 EDA8 00C5 0000:?underflow@stdiobuf@@UACHXZ
                  06468A049889C3F687....04740A66C746FA00000000:
                    0. 26 7303 0299 (l)0000:DST_TIME (REF 026F: .)
                    1. 27 E036 0285 (l)0000:DST_TIME (REF 025D: .)
                  0AC45E0426837F2C007403E9EE0085F67503E9E7008B:
                    0. 9F 0744 0176 0000:?open@filebuf@@QECPEV1@PFDHH@Z
                7E:
                  04:
                    57E8....09C07503E9D7008BDF83C3028B37895EFE:
                      0. 11 B8F6 024D 0000:??6@YAAAVostream@@AAV0@ABVcomplex@@@Z 00F9:??5@YAAAVistream@@AAV0@AAVcomplex@@@Z
                    83:
                      7D1A0074628A451824033C017459837D04007506:
                        0. 1F 2012 00EB 0000:?overflow@filebuf@@UACHH@Z
                      C704:
                        83C70F81E7F0FF83FF107703E9E700833E:
                          0. 00 0000 010E 0000:_sbrk
                        8BC783C00F:
                          24F089C783F8107703E9E80083:
                            0. 01 8528 0155 0000:_sbrk 0111:__sbrk_freeall 014B:_coreleft
                          25F0FF89C77503E9E800833E:
                            0. 00 0000 0153 0000:_sbrk 010F:__sbrk_freeall 0149:_coreleft
                    85FF7503BF....57E8....83C4028946F683C00E50:
                      0. 01 3E9B 00FF 0000:_tempnam
                    FF:
                      4606C45E06268A079889C3F687....04740A66C7:
                        0. 34 CE4A 0308 (l)0000:DST_TIME (REF 02D9: .)
                        1. 33 DCD8 031C (l)0000:DST_TIME (REF 02EB: .)
                      760CFF760AFF7608FF7606:
                        E8....83C40889C383:
                          0. 0E 1172 0404 (l)0000:_LOGLOG
                          1. 0E D394 03CF (l)0000:_LOGLOG
                        ..........83C40889:
                          0. 10 07D8 0440 (l)0000:_LOGLOG
                          1. 10 757C 040B (l)0000:_LOGLOG
                  068D46F8508D46F6508B5E0483C3028B378B74020376:
                    0. 10 38BF 01BB 0000:?fixed_point@ostream@@AACHNPAD@Z
                  08897EF6:
                    85FF7E7C8B56068B460483C0208956FA8946:
                      0. 5A 4DD5 009B 0000:?sputn@streambuf@@QECHPFDH@Z
                    8B56068B460483C0208956FA8946F88B5606:
                      0. 5A B78A 009D 0000:?sputn@streambuf@@QECHPFDH@Z
                  0AC45E0426C747080000C746F60000B8010050FF7606:
                    0. 02 9E9D 0159 0000:?get@istream@@QECAEV1@PEDHD@Z
              8D46F650E8....8B7EF681E7200066FF760866FF7604E8:
                0. 00 0000 0054 0000:_nearbyint
              B8010050FF7604E8....09C07503E9C200EB5A8B46F68946:
                0. C6 E01A 00E6 0000:??5istream@@QACAAV0@PAVstreambuf@@@Z
              C45E04:
                26:
                  8B47:
                    0A83C0BC8946FA83F8597603E9BF00B96D01:
                      0. 1C 4E12 00E6 0000:_mktime
                    2483C320268B0F3BC1895EFC8C46FE760689:
                      0. 18 B989 00E9 0000:?xsgetn@streambuf@@UECHPEDH@Z
                  C747080000:
                    26C47704268B4402C4760403F0268B:
                      0. 30 C89C 0106 0000:?eatwhite@istream@@IECXXZ (REF 00D7: .)
                    C746F600006A01FF760653E8....85:
                      0. D2 57E1 0197 0000:?get@istream@@QECAEV1@PEDHD@Z
                83C3048C46FC26C437268B4402C4760403F026:
                  837C:
                    0. 0E 7E22 00D1 0000:??6ostream@@QECAEV0@D@Z
                  F744:
                    0. 11 91CD 00E0 0000:?get@istream@@QECHXZ
              E8....8B5E04837F0800791489DF83C70889DE83C60A8305:
                0. 5F 3BF4 01E4 0000:_mktime
              FF7606FF7604E8....09C07503E9:
                89008B56068B460483C0:
                  0. 8F 9670 00AF 0000:?put@ostream@@QECAEV1@D@Z
                C600B80C0050B00150FF:
                  0. 06 198E 00EC 0000:??6ostream@@QECAEV0@D@Z
            66C746F6000000008B46060B46047503E9:
              4E01C45E0426803F:
                0. 11 4DBF 0175 (l)0000:GMT_OFFSET (REF 0044: .)
              5401C45E0426803F:
                0. 11 7F99 017B (l)0000:GMT_OFFSET (REF 0044: .)
            68....8D46F650E8....83C40250E8....83C40489C685F674:
              0. 02 95E0 0040 0000:_tmpfile
            8B7604:
              68....8D46F850E8....83C4048D46F850E8....83C4:
                0. 08 386F 0083 0000:_creattemp
              8B441885C08946FA74268B5C1A89C289440689540889:
                0. 37 6A2B 007E 0000:?underflow@stdiobuf@@UACHXZ
              F7C6FFF375:
                238D46F650E8....8066F9F30976F88976:
                  0. 06 7257 003A 0000:_fesetround
                25168D46F650E8....8066F9F30976F889:
                  0. 08 A77B 003C 0000:_fesetround
            8D46F650E8....8B76F681E6200066FF7604E8....89560689:
              0. 07 47B6 0045 0000:_nearbyintf
            C45E0426:
              8B:
                4708262B470426F6472A80:
                  7405B90100EB0231C9:
                    0. 1B 896E 0105 0000:?fillbuf@filebuf@@AECHXZ
                  B90100750231C9894E:
                    0. 19 42B3 0102 0000:?fillbuf@filebuf@@AECHXZ
                5702268B078956F88946F666C746FA000000008E:
                  0. 11 EA9D 018E (l)0000:UM_INDIRECT_TYPE (015C: FF) (REF 0123: .)
                  1. 11 EA9D 0192 (l)0000:UM_INDIRECT_TYPE (015C: 46) (REF 0125: .)
              C47704268B4402C4760403F0268B540A268B440889:
                0. 10 6A38 00FF 0000:??4iostream_withassign@@QECAEV0@PEVstreambuf@@@Z
                1. 10 8C72 00F1 0000:??4istream_withassign@@QECAEV0@PEVstreambuf@@@Z (REF 0030: ?sync@istream@@QECHXZ)
                2. 10 8C72 00F1 0000:??4ostream_withassign@@QECAEV0@PEVstreambuf@@@Z (REF 0030: ?flush@ostream@@QECAEV1@XZ)
            FF76046A04..........8EC289C3895EFC8C46FE26837F4800:
              0. 3B B3A3 0098 0000:_winio_wmldblclk
          833E....0074:
            0F66FF760866FF7604E8....8BE55DC3E8....89:
              0. 06 00CA 0058 0000:_ceil
              1. 06 A063 0058 0000:_floor
            16FF760AFF7608FF7606FF7604E8....83C4088B:
              0. 04 1BD1 0D48 0000:_ceil 0066:_ceilf 009C:_floor 0102:_floorf 0138:__largestNaN 0196:__AsQNaN 01AB:_round 01ED:_roundf 021D:_nearbyint 0284:_nearbyintf 02DA:_trunc 031D:_truncf 034E:_rndtol 0368:_rndtonl 03CA:_remainderf 03EB:_remainder 0418:_remquof 068F:_remquo 0946:_fmodf 09D9:_fmod 0A9B:_modff 0B4C:_modf 0C19:_frexpf 0C3E:_ldexpf 0C60:_scalb 0CCB:_scalbf (0CF1: 8B)
              1. 04 1BD1 0D16 0000:_ceil 0066:_ceilf 009C:_floor 0102:_floorf 0138:__largestNaN 0196:__AsQNaN 01AB:_round 01ED:_roundf 021D:_nearbyint 027B:_nearbyintf 02C8:_trunc 030B:_truncf 033C:_rndtol 0356:_rndtonl 03B8:_remainderf 03D8:_remainder 0404:_remquof 0679:_remquo 092F:_fmodf 09C2:_fmod 0A84:_modff 0B2F:_modf 0BEA:_frexpf 0C0C:_ldexpf 0C2E:_scalb 0C99:_scalbf (0CF1: C3)
          8D46F650:
            E8....:
              588B46F62346048BE55DC3558BEC83EC0A8D46:
                0. 03 9024 01A1 0000:_fetestexcept 0018:_feclearexcept 0047:_fegetexcept 005B:_fesetexcept 0076:_fegetround 008E:_fesetround 00CB:_fegetprec 00E3:_fesetprec 0120:_fegetenv 0160:_fesetenv 018D:_feprocentry
              83C4028B46:
                F62346048BE55DC3:
                  0. 00 0000 001A 0000:_fetestexcept
                F82500:
                  038BE55DC3:
                    0. 00 0000 001A 0000:_fegetprec
                  0C8BE55DC3:
                    0. 00 0000 001A 0000:_fegetround
              8B4604253F00F7D02146F68D46F650E8....83:
                0. 10 8FA0 0030 0000:_feclearexcept
              FF7604E8....8B46F6253F0050E8....8BE55D:
                0. 01 EF04 0021 0000:_feprocexit
            FF36....68....68....68....8D46FE50FF7604E8:
              0. 00 0000 0041 0000:??5istream@@QACAAV0@AAM@Z
          C45E0426:
            8B5702268B078956F88946F61E68....:
              E8....8956FC:
                0. 0E 445D 0131 (l)0000:UM_STRING (REF 00F3: .)
              ..........89:
                0. 0F E4B6 0135 (l)0000:UM_STRING (REF 00F7: .)
            C41F895EF68C46F8268A078846FAFF46F69889C3F687:
              0. 00 0000 008D (l)0000:UM_DIMENSION (REF 0020: .)
          E8....E8....89D109C18956FE8946FC744FE8....89D109C189:
            0. 12 B052 007B 0000:_winio_window
          F74604FFFC7507833E....00750631C08BE55DC3:
            168D46F650E8:
              0. 00 0000 003E 0000:_fesetprec
            8D46F650E8:
              0. 00 0000 003C 0000:_fesetprec
          FF760AFF7608FF7606FF7604E8....83C40889C383EB0183FB03:
            0. 06 675C 0252 0000:_tanh (022B: C3)
            1. 06 675C 0254 0000:_tanh (022B: E5)
            2. 06 CF10 01F8 0000:_exp (01CF: E5)
            3. 06 CF10 01F6 0000:_exp (01CF: C3)
        0C:
          56:
            57:
              168D46FA508B560A8B46088956F68946F48B460C8946F88C:
                0. A8 4DD0 00C8 0000:?seekg@istream@@QECAEV1@Vstreampos@@@Z
              6A3F:
                E8....8946F48B460A8B5E088B4E068B5604E8....52:
                  0. 02 F6B7 00A2 (l)0000:YODD
                ..........8946F48B460A8B5E088B4E068B5604:
                  0. 00 0000 00B2 (l)0000:YODD
              8B:
                46:
                  048946F88B4606F766088946F48B5E0AF6470701742E:
                    0. 12 764F 016E 0000:_fwrite
                  108B5E0E8B4E0C8B560AE8....730B7A0980761180B8:
                    0. 3D 17DB 02E2 0000:__FLOATCVT
                56:
                  068B4604:
                    3B560A75033B46087503E982018EC289C326:
                      0. 23 8437 01AB 0000:??4istream_withassign@@QECAEV0@AEVistream@@@Z (REF 0043: ?sync@istream@@QECHXZ)
                      1. 23 8437 01AB 0000:??4ostream_withassign@@QECAEV0@AEVostream@@@Z (REF 0043: ?flush@ostream@@QECAEV1@XZ)
                    8956F68946F48B4608F7660A89C7C45E0C26:
                      0. 29 6825 014B 0000:_fwrite
                    BBE80331C9E8....5052E8....89D189C389:
                      0. 12 EC87 0066 0000:_usleep
                  0A8B460839560675033946047503E939015250FF7606:
                    0. 04 2B63 015D 0000:?__rtti_match@@YAHPFD0PEI@Z
                5E04:
                  01DB8B87....31C9894EFA8946F8:
                    8B5E068B470A89:
                      0. 66 95AE 00B9 (l)0000:_CALC_DSTSTARTDAY
                      1. 67 B458 00B7 (l)0000:_CALC_DSTSTARTDAY
                    C45E06268B470A:
                      0. 68 6981 00B8 (l)0000:_CALC_DSTSTARTDAY
                      1. 67 BA86 00BA (l)0000:_CALC_DSTSTARTDAY
                  83C3028B378B7402037604837C0A00895EFE74116A:
                    0. 05 8250 0148 0000:??5istream@@QACAAV0@PAVstreambuf@@@Z
                  F64716137570837F0200752853E8....B9FFFF3BC1:
                    0. 80 705C 011B 0000:?overflow@strstreambuf@@UACHH@Z
                7604BFFFFFC746F80000C746FA....8C5EFCB8....89C1:
                  0. 49 B5D6 00F9 0000:_setmode
                7E:
                  04:
                    576A04..........8EC289C3895EF48C46F6268B4F:
                      0. 87 BD5F 00D0 0000:_winio_wmhscroll
                    8B:
                      460639C77503E9EE005057E8....83C40485C074:
                        0. 07 674F 010C 0000:?__rtti_match@@YAHPBD0PAI@Z
                      7606C746F4000057E8....8946F683C402807D01:
                        0. 0C 240C 01B0 0000:__splitpath
                  06897EF4:
                    85FF7E7D8B460483C0128946F88B460483C0:
                      0. 5C 339C 009C 0000:?sgetn@streambuf@@QACHPADH@Z
                    8B460483C0128946F88B460483C0088946FA:
                      0. 5A 93BE 009C 0000:?sgetn@streambuf@@QACHPADH@Z
                  0A:
                    837E04007428837E04017422837E0402741C6A16E8:
                      0. 00 0000 012C 0000:___spawn
                    C45E0426C747080000:
                      6A01FF760653E8....85C075:
                        0. B5 5969 0135 0000:?getline@istream@@QECAEV1@PEDHD@Z
                      B8010050FF760653E8....09:
                        0. FF 60AB 0151 0000:?getline@istream@@QECAEV1@PEDHD@Z
                  0CC45E04268B5706268B47048956F68946F4F7C70100:
                    0. 05 BAC8 0222 0000:_new_window
              8D46FA508B56088B46068956F68946F48B460A8946F88D5E:
                0. 82 5AC6 00A2 0000:?seekg@istream@@QACAAV1@Vstreampos@@@Z
              B8FFFF998956F68946F4837E0A02753AC45E0426F6472C04:
                0. FF 6558 0237 0000:?seekoff@strstreambuf@@UECJJW4seek_dir@ios@@H@Z
              C45E0426:
                8B4724263B4720761126C45F20268A0730E45F5E:
                  0. 69 C6F7 00FE 0000:?underflow@strstreambuf@@UECHXZ
                F6472A027503E9:
                  AE01268B4706260B4704752FFF:
                    0. 04 01A9 01D8 0000:?overflow@filebuf@@UECHH@Z
                  BD01268B4706260B4704752FFF:
                    0. 04 01A9 01E7 0000:?overflow@filebuf@@UECHH@Z
              FF7606FF7604E8....09C07503E92E018B56068B460483C0:
                0. 28 0FF8 0300 0000:??6@YAAEVostream@@AEV0@AFVcomplex@@@Z 015B:??5@YAAEVistream@@AEV0@AEVcomplex@@@Z
            8B760C833E....00741866FF760E5666FF760866FF7604E8:
              0. 00 0000 00C4 0000:_poly
            C45E0426:
              8B4716260B4714740C268B4714262B4710751CEB04:
                0. 5F 0FAA 00F3 0000:?seekoff@stdiobuf@@UECJJW4seek_dir@ios@@H@Z
              C45F2826F6470A20740AB8FFFF5E8BE55DC20600C4:
                0. 4A 5DB7 00F5 0000:?overflow@stdiobuf@@UECHH@Z
              F6472A8074:
                65268B571E268B471C488956FA8946F8:
                  0. 7D 8635 00B9 0000:?flushbuf@filebuf@@AECHXZ
                6C268B571E268B471C488956FA8946F8:
                  0. 82 B85F 00B7 0000:?flushbuf@filebuf@@AECHXZ
            FF7606FF7604E8....83C40489C689F001C083C00250E8:
              0. 16 3DF8 00A3 0000:__mbsrev
          833E....007403E96201C706....0100C41E....268B5F028B97:
            0. 00 0000 01B7 0000:?sync_with_stdio@ios@@SAXXZ
          C45E0C268B5702268B078956F68946F4168D46F450E8....5250:
            0. 05 0963 00DB (l)0000:UM_FUNCTION_TYPE (00B5: 00)
            1. 05 0963 00E1 (l)0000:UM_FUNCTION_TYPE (00B5: F8)
          C746FE0C005657FF7610FF760EFF760C66FF760866FF7604E8:
            0. 00 0000 012A (l)0000:EXECUTE_VIA_PATH (0109: 94)
            1. 00 0000 0134 (l)0000:EXECUTE_VIA_PATH (0109: 5E)
          E8....8956FA8946F80346041356068956F68946F4E8....8956:
            0. 2E 7C63 004E 0000:_msleep
          FF06....A1....B901003BC17403E962016A38E8....83C40289:
            0. 10 44DA 020B 0000:??0Iostream_init@@QEC@XZ
        0E:
          1E68....168D46F650E8....83C4045250E8....83C40889D109:
            0. 0A 1823 004E 0000:_tmpfile
          56:
            57:
              837E04007428837E04017422837E0402741C6A16E8....B8:
                0. 0B 7CBB 016E 0000:___spawn
              8B:
                46:
                  060B46047508C74604....8C5E06FF7606FF7604E8:
                    0. 00 0000 0143 0000:_tempnam
                  088946F2C646F4698B5E048B77028B740203F3837C0A:
                    0. 07 B2E4 0340 0000:?intstr@istream@@AACDPADH@Z (REF 02F6: .)
                56:
                  068B46043B560A750D3B460875085F5E8BE55DC20800:
                    0. 25 FC11 018F 0000:??4istream_withassign@@QECAEV0@AEVistream@@@Z (REF 0045: ?sync@istream@@QECHXZ)
                    1. 25 FC11 018F 0000:??4ostream_withassign@@QECAEV0@AEVostream@@@Z (REF 0045: ?flush@ostream@@QECAEV1@XZ)
                  0A8B460883C0108956FA8946F88B560A8B460883C014:
                    0. 2F 4029 00E9 0000:??6ostream@@QECAEV0@PEVstreambuf@@@Z
                    1. 33 CA69 00F6 0000:??6ostream@@QECAEV0@PEVstreambuf@@@Z
                7604BFFFFFC746F60000C746F2....8C5EF4B8....3B46:
                  0. 06 8E33 0106 0000:_setmode
                7E048B:
                  560C8B460A8956F48946F28B4D0C85C9740789CE:
                    0. 11 BF7C 0112 0000:?seekoff@filebuf@@UACJJW4seek_dir@ios@@H@Z
                  DF83C3028B7502035C028B4706250E0031C989CA:
                    0. A4 3F35 00C4 0000:?pad@ostream@@QACHHH@Z
              A1....8946F2C706....0000FF76:
                06FF7604E8....83C404:
                  0. 0D F548 00B1 0000:_strtof
                0AFF7608FF7606FF7604:
                  0. 01 3E9B 00B7 0000:_strtof
              B8010050FF7606FF7604E8....09C07503E91201EB76897E:
                0. FF ECAA 013C 0000:??5istream@@QECAEV0@PEVstreambuf@@@Z
              C45E04:
                26:
                  837F2C007503E9B900268A472A24033C027503E9:
                    0. 69 0903 019C 0000:?underflow@filebuf@@UECHXZ
                  C47704268B4402C4760403F026837C14007410FF:
                    0. 04 01A9 0130 0000:??6ostream@@QECAEV0@PEVstreambuf@@@Z
                83C3048C46FC26C437268B4402C4760403F026F744:
                  0. 11 91CD 016F 0000:?read@istream@@QECAEV1@PEDH@Z
            C45E04268B:
              4724268B4F203BC176062BC17416EB0439E47410:
                0. 1C 415D 0131 0000:?underflow@stdiobuf@@UECHXZ
              5702268B078956F48946F28EC289C3268A078946:
                0. 06 2783 00E3 (l)0000:UM_ARGUMENT (00BC: 00) (REF 0026: .)
                1. 06 2783 00E7 (l)0000:UM_ARGUMENT (00BC: E5) (REF 0026: .)
          8B46068946F28B46088946F48B460A8946F68B460C8946F88B46:
            0. 17 9AE0 0058 0000:_biosdisk 0040:_biostime (0005: 8B)
            1. 17 9AE0 003D 0000:_biosdisk (0005: C3)
            2. 19 FF48 005B 0000:_biosdisk 0042:_biostime (0005: 8B)
            3. 19 FF48 003F 0000:_biosdisk (0005: C3)
          C45E08268B5702268B078956F48946F2:
            31DB31C9894EF8895EF6:
              0. C2 1706 0185 (l)0000:UM_TYPE_ENCODING
              1. C2 780D 0187 (l)0000:UM_TYPE_ENCODING
            66C746F6000000008EC2:
              0. 1D 1A8D 0240 (l)0000:UM_DATA_TYPE (0202: FE)
              1. 1D 1A8D 0244 (l)0000:UM_DATA_TYPE (0202: 46)
        10:
          5657:
            68....E8....83C40289C785FF7503E971018A0584C08946:
              0. 0B 0596 01D0 0000:_tzset (REF 015C: .)
            6A01FF7606FF7604E8....85C07503E93B01C45E0426C477:
              0. CF 58A6 0163 0000:??5istream@@QECAEV0@PEVstreambuf@@@Z
            837E0400740F8B46048946F0034608488946F2EB19680501:
              0. 01 3E9B 02DD 0000:__fullpath (REF 005C: .)
            8B:
              56068B46048956F68946F48B4608F7660A8946F0C45E0C:
                0. 27 F294 016C 0000:_fwrite
              5E:
                0483C3028B378B7402037604F7440AFFFE895EFE7411:
                  0. 06 81CD 0169 0000:?get@istream@@QACAAV1@AAVstreambuf@@D@Z
                0CC707000066FF7608E8....83C40489C683FE047503:
                  0. 08 A438 0279 0000:_remquof
              7604837C1A007503E991008A441824033C027503E98500:
                0. 4E 4168 012C 0000:?underflow@filebuf@@UACHXZ
              7E088BC7A8037503E9B101837E10017403E9A8018B560E:
                0. FF CB5B 0246 0000:?seekoff@strstreambuf@@UEC?EVstreampos@@Vstreamoff@@W4relative_to@ios@@H@Z
            A1....8946F0A1....8946F2C706....0000:
              66FF760866FF:
                0. 03 EB9C 00BC 0000:_strtof
              FF7606FF7604:
                0. 01 3E9B 00BA 0000:_strtof
            C4:
              1E....268B470203460440263B0773065F5E8BE55DC3C4:
                0. 01 8709 012C 0000:_make_avail
              5E:
                04:
                  26:
                    C47704268B4402C4760403F0268B4410250E0031:
                      0. D1 F0AA 00F1 0000:?pad@ostream@@QECHHH@Z
                    F6472A017503E9:
                      2801268B5730268B472E89D109:
                        0. 5B CAFC 0148 0000:?underflow@filebuf@@UECHXZ
                      B100268B5730268B472E89D109:
                        0. 66 4B12 0156 0000:?underflow@filebuf@@UECHXZ
                  83C3:
                    048C46FC26C437268B4402C4760403F026837C:
                      0. 10 A1AE 019A 0000:??5istream@@QECAEV0@PED@Z (REF 0145: .)
                    10268B5702268B0789D109C18C46FE7472C476:
                      0. 7B 2659 009B 0000:?underflow@strstreambuf@@UECHXZ
                0C26C707000066FF7608E8....83C40489C683FE0475:
                  0. 09 37DC 027B 0000:_remquof
          66FF76108B460E8B5E0C8B4E0A8B56088946F6895EF4894EF289:
            0. 1E 6E91 0044 0000:?pow@@YA?EVcomplex@@NAFV1@@Z
          6A02666840080000..........50..........89D109C18956F2:
            0. 20 07FB 0087 0000:_wmhandler_create
          FF760E8B460C8B5E0A8B4E088B56068946F6895EF4894EF28956:
            0. 19 B962 003F 0000:?pow@@YA?AVcomplex@@NABV1@@Z
        12:
          168D46EE506A006A006A00..........85C07414168D46EE50:
            0. 00 0000 0032 0000:_wmhandler_yield
          31D2C41E....268B471E26034718263B47207C03E98100268957:
            0. 03 7707 01B7 0000:_compute_repaint
          5657:
            1E:
              078B7E:
                08BB01008B4E048D76FF883C83FF0A7507:
                  0BC979:
                    0. 35 BDAE 0055 0000:_itoa
                  85C979:
                    0. 35 BDAE 0055 0000:_itoa
                0ABB01008B4E068D76FF883C83FF0A7507:
                  0BC979:
                    0. 35 286B 0055 0000:_itoa
                  85C979:
                    0. 35 286B 0055 0000:_itoa
              161F8B7E:
                0ABB01008B4E048D76FF883C83FF0A7507:
                  0BC9:
                    0. 39 0273 0059 0000:_itoa
                  85C9:
                    0. 39 0273 0059 0000:_itoa
                0CBB01008B4E068D76FF883C83FF0A7507:
                  0BC9:
                    0. 39 441E 0059 0000:_itoa
                  85C9:
                    0. 39 441E 0059 0000:_itoa
            66C746EE00000000C746FA00008B46048946F889C38A0798:
              0. 04 4215 0217 0000:_strtol (REF 01FB: .)
            8B:
              56068B460483C004C45E0426C45F04260347028EC289C3:
                0. E2 C0B3 0102 0000:?pad@ostream@@QECHHH@Z
              5E04C747040000:
                6A0153E8....85C07503E913018B5E04:
                  0. D9 9467 013B 0000:?get@istream@@QACAAV1@AAVstreambuf@@D@Z
                B801005053E8....09C07503E9F000E9:
                  0. FA 8C6C 011A 0000:?get@istream@@QACAAV1@AAVstreambuf@@D@Z
              76048B7E068BCE81E11F0001C9894EEE8BCEC1E90581E1:
                0. 3B 1247 006B (l)0000:_FILETIME
                1. 3A 64D8 006A (l)0000:_FILETIME
                2. 3B C4BE 0068 (l)0000:_FILETIME
                3. 3C EAA8 0069 (l)0000:_FILETIME
              7E0A8B46048946EE8B4606F7660885C08946F0750CE992:
                0. 1D 5614 0152 0000:_fread
            C45E0483C3048C46FC26C437268B4402C4760403F026F744:
              0. 11 91CD 0197 0000:?getline@istream@@QECAEV1@PEDHD@Z (0163: C2)
              1. 11 91CD 01AC 0000:?get@istream@@QECAEV1@PEDHD@Z (0163: E8)
            C746EE0000C746F00000C746F800008B46048946FAEB03FF:
              0. 0C 5EFB 02A4 0000:_strtol 01CB:_div 01EF:_ldiv 0238:_bsearch (REF 00F5: .)
              1. 0B AC2B 02B0 0000:_strtol 01D7:_div 01FB:_ldiv 0244:_bsearch (REF 00FF: .)
          C746FE1200565766FF760C:
            E8....83C4048946F083C005508D4E:
              0. 02 1982 010D (l)0000:EXECUTE
            ..........83C4048946F083C00550:
              0. 03 D8F7 011D (l)0000:EXECUTE
          FF760AFF7608FF7606FF7604E8....83C40889C383EB0183FB03:
            0. 06 9B36 0227 0000:_sqrt (01FF: 5D)
            1. 06 9B36 0226 0000:_sqrt (01FF: C3)
        1456:
          31C0998956EE8946EC8956F28946F0:
            6A38E8....83C40289D1:
              0. 0C CA0C 01A7 0000:?sync_with_stdio@ios@@SAXXZ
            B03850E8....5989D109:
              0. 0B D231 0159 0000:?sync_with_stdio@ios@@SAXXZ
          57:
            66C746EC00000000C746FA00008B56068B46048956F88946:
              0. 0D 6389 0239 0000:_strtol (REF 021D: .)
            8B:
              46048946EC8B4606F7660809C08946EE7503E99A008B5E:
                0. 13 9C8F 0178 0000:_fread
              560A8B46088956F28946F0168D46EE50168D46EC50C45E:
                0. 23 1FD4 026F 0000:?fixed_point@ostream@@AECHNPED@Z
              7E:
                048D5D028B378B740203F7837C0C00895EFE740D57E8:
                  0. 00 0000 023C 0000:?outstr@ostream@@AACXPBD0@Z
                0668....:
                  E8....89C683C40257E8....89D109C18956:
                    0. 08 7168 007F (l)0000:UM_ARRAY_TYPE
                  ..........89C683C40257E8....89D109C1:
                    0. 0A D267 0085 (l)0000:UM_ARRAY_TYPE
                08897EEC:
                  85FF7F03E9A3008B56068B460483C0248956:
                    0. 84 D594 00C5 0000:?sgetn@streambuf@@QECHPEDH@Z
                  8B56068B460483C0248956F28946F08B5606:
                    0. 81 3247 00C4 0000:?sgetn@streambuf@@QECHPEDH@Z
            C746EC0000C746EE0000C746F600008B56068B46048956FA:
              0. 12 A774 02E8 0000:_strtol 01F6:_div 021A:_ldiv 026B:_bsearch (REF 010E: .)
              1. 13 D245 02DB 0000:_strtol 01E9:_div 020D:_ldiv 025E:_bsearch (REF 0103: .)
          8B:
            560E8B460C8956EE8946EC168D46F050FF760AFF7608C45E:
              0. 25 1A0B 02C0 0000:?sci_notation@ostream@@AECHNPEDAEH@Z
            760C8B56108B460E8956EE8946EC168D46F650168D46F050:
              0. 0A E822 0158 0000:_gcvt
          C45E04268B5702268B078956EE8946EC66C746F000000000BE:
            0. 03 B994 01CC (l)0000:UM_NESTNAME (REF 01BA: .)
        165657:
          31C08946F08946EA8946EC8946EE8B5E0639077F03E99B00:
            0. 18 1F9C 0262 0000:RESPONSE_EXPAND
          8B7604C746EA00448976EC168D46EA501650E8....83C408:
            0. 0A 2BDF 03A3 0000:_fstat 0115:_stat (0378: 00)
            1. 0A 2BDF 03B3 0000:_fstat 0115:_stat (0378: 56) (REF 02AF: .)
            2. 0A FB8D 00FD 0000:_fstat
          C45E04:
            268B572E268B472C89D109C18946F48956F6745826:
              0. 9C 3667 00EA 0000:?underflow@stdiobuf@@UECHXZ
            83C3048C46FC26C437268B4402C4760403F026837C:
              0. 10 A1AE 01B9 0000:??5istream@@QECAEV0@PEVstreambuf@@@Z
          FF76046A04..........8EC289C3895EEA8C46EC268B7F1E:
            0. A1 829C 0170 0000:_winio_wmvscroll
        18:
          1E68....:
            E8....8956EA8946E883C40466FF7608E8....89D109:
              0. 0E 01C6 00A0 (l)0000:UM_ARRAY_TYPE
            ..........8956EA8946E883C40466FF7608E8....89:
              0. 10 B77D 00A6 (l)0000:UM_ARRAY_TYPE
          56:
            1E68....E8....83C40489D109C18956EE8946EC7503E99201:
              0. 15 4389 01FA 0000:_tzset (REF 0181: .)
            57:
              8B:
                46148B5E128B4E108B560EE8....730B7A0980761580B8:
                  0. 3F EF7D 032F 0000:__FLOATCVT
                56068B46048956EA8946E88B4608F7660A89C785FF750C:
                  0. 31 4158 016D 0000:_fread
                7E:
                  048B7606:
                    C746E80044897EEA8D4EE85151E8....83C4:
                      0. 0B 0DD5 032D 0000:_fstat 00F7:_stat (0301: 00)
                      1. 0B 0DD5 0341 0000:_fstat 00F7:_stat (0301: 03) (REF 023E: .)
                      2. 0B DD87 00E0 0000:_fstat
                    FF7406FF7404FF7402FF34FF740EFF740CFF:
                      0. 06 67ED 00EB 0000:?pow@@YA?AVcomplex@@ABV1@N@Z
                  0A8B560E8B460C8956EA8946E8C45E04268B4F16260B:
                    0. 20 52A6 017D 0000:?seekoff@filebuf@@UECJJW4seek_dir@ios@@H@Z
              C45E0426807F3A007403E9:
                290126F6472A807409FF760653:
                  0. 01 3E9B 0171 0000:?syncin@filebuf@@AECHXZ
                2D0126F6472A807409FF760653:
                  0. 01 3E9B 0173 0000:?syncin@filebuf@@AECHXZ
              FF7606FF7604E8....85C0750E8B56068B46045F5E8BE55D:
                0. 0E 2D20 00CD 0000:??6ostream@@QECAEV0@PEX@Z
            8B5E048B470E8B4F0A8B57088B5F0C80E47F8946FE895EFC89:
              0. 8D 4423 07FF 0000:?abs@@YANABVcomplex@@@Z 0187:?sqrt@@YA?AVcomplex@@ABV1@@Z 0336:?pow@@YA?AVcomplex@@ABV1@0@Z 0534:?pow@@YA?AVcomplex@@ABV1@H@Z 06C5:?pow@@YA?AVcomplex@@ABV1@N@Z 07B9:?pow@@YA?AVcomplex@@NABV1@@Z
              1. 8D 472E 0188 0000:?abs@@YANABVcomplex@@@Z
            C45E:
              04268B470E268B4F0A268B5708268B5F0C80E47F8946FE:
                0. 95 7880 0915 0000:?abs@@YANAFVcomplex@@@Z 018F:?sqrt@@YA?EVcomplex@@AFV1@@Z 037A:?pow@@YA?EVcomplex@@AFV1@0@Z 05C8:?pow@@YA?EVcomplex@@AFV1@H@Z 07BD:?pow@@YA?EVcomplex@@AFV1@N@Z 08C6:?pow@@YA?EVcomplex@@NAFV1@@Z
                1. 95 7B8D 0190 0000:?abs@@YANAFVcomplex@@@Z
              0826FF770626FF770426FF770226FF3726FF770E26FF77:
                0. 0A 18D3 0100 0000:?pow@@YA?EVcomplex@@AFV1@N@Z
        1A:
          5657:
            837E04007508C746FCFFFFE97D018B46048946E689C3803F:
              0. 39 1213 019C 0000:_putenv
            8B7E048A451A24033C01751C837D06007506578B1DFF5714:
              0. 0E 95B8 01AE 0000:?overflow@strstreambuf@@UACHH@Z
            C45E0483C3048C46FC26C437268B4402C4760403F026:
              837C:
                0. 0E 7E22 0336 0000:?outstr@ostream@@AECXPFD0@Z
              F744:
                0. 11 91CD 01E7 0000:?get@istream@@QECAEV1@AEVstreambuf@@D@Z
            C746E60000FF7606FF7604E8....8946E883C404C45E0426:
              0. 1B F940 0221 0000:__splitpath
            E8....C45E0426837F080079308CC289D883C0088956F089:
              0. 9B E202 0239 0000:_mktime
            FF7606FF7604E8....09C07503E9C600B8100050168D5EEA:
              0. 05 3CA2 00EC 0000:??6ostream@@QECAEV0@PEX@Z
          5756837E06007403E99D008B7604C746F40000566A006A64:
            0. 00 0000 0586 0000:_AppInit 00B6:WINMAIN 023E:DEFSCREENSAVERPROC 03FA:_DoConfigureDialog 046C:_fnGetPassword 04F4:HELPMESSAGEFILTERHOOKFUNCTION
          66FF761066FF760CE8....83C4088946FA83F8047505C746FA03:
            0. 0A 1349 02AD 0000:_remquo (0282: C3)
            1. 0A 1349 02AE 0000:_remquo (0282: 5D)
          C746E60B00BA....B8....8956EA8946E831C08946ECC746EE08:
            0. 0B AD0F 0070 0000:_initialize_class
            1. 0B B749 0072 0000:_initialize_class
        1C:
          5657:
            8B56068B46048956E68946E48B4608F7660A09C08946E875:
              0. 26 DC5B 0185 0000:_fread
            C45E0426:
              8A472C24033C017539268B470A260B4708750BFF:
                0. 2C 2D4C 0258 0000:?overflow@strstreambuf@@UECHH@Z
              C7470800006A01FF760653E8....85C07503E990:
                0. FF 28CA 01BF 0000:?get@istream@@QECAEV1@AEVstreambuf@@D@Z
            FF06....:
              B8....A3....8B56088B46068916....A3....52:
                0. 02 F6B7 2D96 0000:WINMAIN 0171:?winc_commandline@@YCPEDXZ 1CF7:?BufferOutput@@YCGPEDGG@Z 1FB6:?TimerProc@@ZCFIIIJ@Z 2004:?MAINWNDPROC@@ZCJIIIJ@Z 25C2:?INSETWNDPROC@@ZCJIIIJ@Z 27E1:?EDITPROC@@ZCJIIIJ@Z 2883:?ABOUTDLGPROC@@ZCJIIIJ@Z 29A9:??0ListPtrC@@QEC@XZ 29D5:??1ListPtrC@@QEC@XZ 29EC:?Add@ListPtrC@@QECXGPEX@Z 2A7D:?Reset@ListPtrC@@QECXXZ 2AF2:?View@ListPtrC@@QECXXZ 2B13:?View@ListPtrC@@QECXGG@Z 2B9C:?View@ListPtrC@@QECXG@Z 2BD8:?TopLineSet@ListPtrC@@QECXK@Z 2C37:?FileRedirectBeg@ListPtrC@@QECXXZ 2C7D:?FileRedirectEnd@ListPtrC@@QECXXZ 2C9D:?TextLengthGet@ListPtrC@@QECKXZ 2D01:?TextLengthGet@ListPtrC@@QECKGGGG@Z 2D84:__STI___winc_cpp_ 2D8D:__STD___winc_cpp_ (REF 0ADD: .)
              E8....8B56088B46068916....A3....5250E8:
                0. 00 0000 2DE2 0000:WINMAIN 016E:?winc_commandline@@YCPEDXZ 1D43:?BufferOutput@@YCGPEDGG@Z 2002:?TimerProc@@ZCFIIIJ@Z 2050:?MAINWNDPROC@@ZCJIIIJ@Z 260E:?INSETWNDPROC@@ZCJIIIJ@Z 282D:?EDITPROC@@ZCJIIIJ@Z 28CF:?ABOUTDLGPROC@@ZCJIIIJ@Z 29F5:??0ListPtrC@@QEC@XZ 2A21:??1ListPtrC@@QEC@XZ 2A38:?Add@ListPtrC@@QECXGPEX@Z 2AC9:?Reset@ListPtrC@@QECXXZ 2B3E:?View@ListPtrC@@QECXXZ 2B5F:?View@ListPtrC@@QECXGG@Z 2BE8:?View@ListPtrC@@QECXG@Z 2C24:?TopLineSet@ListPtrC@@QECXK@Z 2C83:?FileRedirectBeg@ListPtrC@@QECXXZ 2CC9:?FileRedirectEnd@ListPtrC@@QECXXZ 2CE9:?TextLengthGet@ListPtrC@@QECKXZ 2D4D:?TextLengthGet@ListPtrC@@QECKGGGG@Z 2DD0:__STI___winc_cpp_ 2DD9:__STD___winc_cpp_ (REF 0B2A: .)
          66FF760A66FF7606E8....83C40883F8017704804E0C088B460C:
            0. 56 F7C7 008B 0000:___matherr
          8B460C8B5E0A8B4E088B56068946:
            EE895EEC894EEA8956E8837E:
              0. 05 A546 005E 0000:__arcerr (0038: C3)
              1. 05 A546 010D 0000:__arcerr 0060:_poly (0038: E5)
            FE895EFC894EFA8956F88B46:
              0. 23 499B 0062 0000:___trigerr
              1. 23 5D23 00ED 0000:___trigerr 0060:___matherr
        1E:
          5657:
            837E04007503E997018B46048946E2EB0E8B5EE2803F0075:
              0. 42 6BF7 01AF 0000:_putenv
            8B46060B460474188B56068B46048956E48946E203460C48:
              0. 0C 8839 03AF 0000:__fullpath (REF 0084: .)
            C45E0426:
              C747080000B8010050FF760653E8....09C07503:
                0. FF 54E4 018F 0000:?get@istream@@QECAEV1@AEVstreambuf@@D@Z
              F64728137403E98F00268B4706260B47047531FF:
                0. 04 01A9 01D4 0000:?overflow@strstreambuf@@UECHH@Z
          66FF760A66FF7606E8....83C40883F8017704804E0C088B460C:
            0. 5D 7A6F 0092 0000:___matherr
          8B460C8B5E0A8B4E088B56068946:
            EE895EEC894EEA8956E8837E:
              0. 07 03BE 0066 0000:__arcerr
              1. 05 A546 012D 0000:__arcerr 0068:_poly
            FE895EFC894EFA8956F88B46:
              0. 23 0018 00FE 0000:___trigerr 0068:___matherr
              1. 23 14A0 0068 0000:___trigerr
        20:
          56:
            57:
              66C746E8FFFFFFFF:
                8B5E048B470A3DB2078946FE7D03E920:
                  0. 15 9E46 014D 0000:___localstructtmtotime_t
                C45E04268B470A3DB2078946FE7D03E9:
                  0. 17 7E85 015B 0000:___localstructtmtotime_t
              8B:
                46088946F48B460A8946F28B46068946F631C08946E889:
                  0. 82 52CD 0656 0000:__sfmt (REF 0633: .)
                7E:
                  048B760E66FF760A66FF7606:
                    E8....83C40883F80474:
                      0. 1B A6A9 0468 (l)0000:_ASINCOS
                      1. 1B DD6E 0496 (l)0000:_ASINCOS
                    ..........83C40883F8:
                      0. 1C 2CAD 04D1 (l)0000:_ASINCOS
                      1. 1C 5D9C 04A3 (l)0000:_ASINCOS
                  088B45068B4D028B158B5D0480E47F505351528B450E:
                    0. 0D E1B4 0416 0000:??K@YA?AVcomplex@@ABV0@0@Z 0254:??K@YA?AVcomplex@@NABV0@@Z
                  0E8B45068B4D028B158B5D0480E47F505351528B450E:
                    0. 0D E1B4 01EA 0000:??K@YA?AVcomplex@@NABV0@@Z
            C45E:
              0C268B4706268B4F02268B17268B5F0480E47F50535152:
                0. 17 9407 04C6 0000:??K@YA?EVcomplex@@AFV0@0@Z 02BC:??K@YA?EVcomplex@@NAFV0@@Z
              10268B4706268B4F02268B17268B5F0480E47F50535152:
                0. 17 A607 0232 0000:??K@YA?EVcomplex@@NAFV0@@Z
            FF7604..........89C656C45E0626FF7704..........50:
              0. 00 0000 0073 0000:_set_font
          E8....833E....007404FF16....C646E1318A46048846E08B46:
            0. 0F 7DD8 0035 0000:__dos_keep
            1. 0D 8D00 0033 0000:__dos_keep
        22:
          168D46E250E8....83C4048A46E28846EC168D4EE851E8....16:
            0. 05 D360 0095 0000:_time
          5657:
            8B7E048B760EFF760CFF760AFF7608FF7606:
              E8....83C408:
                0. 0E 8421 0396 (l)0000:_SINHCOSH
                1. 0E B456 037B (l)0000:_SINHCOSH
              ..........83:
                0. 10 40EC 03C6 (l)0000:_SINHCOSH
                1. 10 709B 03AB (l)0000:_SINHCOSH
            FF06....:
              B8....A3....B8....A3....8B56088B46068956:
                0. 1E 44A4 2A41 0000:WINMAIN 01CB:?winc_commandline@@YCPADXZ 1ADA:?BufferOutput@@YCGPEDGG@Z 1D70:?TimerProc@@ZCFIIIJ@Z 1DBC:?MAINWNDPROC@@ZCJIIIJ@Z 2337:?INSETWNDPROC@@ZCJIIIJ@Z 2550:?EDITPROC@@ZCJIIIJ@Z 25F0:?ABOUTDLGPROC@@ZCJIIIJ@Z 2713:??0ListPtrC@@QAC@XZ 2731:??1ListPtrC@@QAC@XZ 2741:?Add@ListPtrC@@QACXGPAX@Z 2799:?Reset@ListPtrC@@QACXXZ 27EB:?View@ListPtrC@@QACXXZ 280A:?View@ListPtrC@@QACXGG@Z 2887:?View@ListPtrC@@QACXG@Z 28B4:?TopLineSet@ListPtrC@@QACXK@Z 290A:?FileRedirectBeg@ListPtrC@@QACXXZ 2940:?FileRedirectEnd@ListPtrC@@QACXXZ 2956:?TextLengthGet@ListPtrC@@QACKXZ 29B0:?TextLengthGet@ListPtrC@@QACKGGGG@Z 2A31:__STI___winc_cpp_ 2A39:__STD___winc_cpp_ (REF 09EA: .)
              E8....8B56088B46068956F28946F031F6EB0146:
                0. 15 6EDB 2A7A 0000:WINMAIN 01C2:?winc_commandline@@YCPADXZ 1B13:?BufferOutput@@YCGPEDGG@Z 1DA9:?TimerProc@@ZCFIIIJ@Z 1DF5:?MAINWNDPROC@@ZCJIIIJ@Z 2370:?INSETWNDPROC@@ZCJIIIJ@Z 2589:?EDITPROC@@ZCJIIIJ@Z 2629:?ABOUTDLGPROC@@ZCJIIIJ@Z 274C:??0ListPtrC@@QAC@XZ 276A:??1ListPtrC@@QAC@XZ 277A:?Add@ListPtrC@@QACXGPAX@Z 27D2:?Reset@ListPtrC@@QACXXZ 2824:?View@ListPtrC@@QACXXZ 2843:?View@ListPtrC@@QACXGG@Z 28C0:?View@ListPtrC@@QACXG@Z 28ED:?TopLineSet@ListPtrC@@QACXK@Z 2943:?FileRedirectBeg@ListPtrC@@QACXXZ 2979:?FileRedirectEnd@ListPtrC@@QACXXZ 298F:?TextLengthGet@ListPtrC@@QACKXZ 29E9:?TextLengthGet@ListPtrC@@QACKGGGG@Z 2A6A:__STI___winc_cpp_ 2A72:__STD___winc_cpp_ (REF 0A24: .)
          833E....0075:
            376A1A6A008D46E650E8....BA....B8....8956:
              0. 05 413F 0089 0000:_wmhandler_hwnd
            386A1A6A00168D46E650E8....BA....B8....89:
              0. 06 225F 008A 0000:_wmhandler_hwnd
          8D46E250E8....83C4028A46E28846EC8D4EE851E8....8D46E2:
            0. 02 F6B7 008D 0000:_time
        2456578B:
          46048946F6EB03FF46048B5E048A079889C3F687....08:
            0. 4F B0F0 054D 0000:_strtod (REF 0382: .)
          7E0485FF7503E9:
            160357E8....8956E28946E08A0584C0:
              0. 07 7610 0338 (l)0000:DST_ADJUST (REF 0146: .)
            240357E8....8956E28946E08A0584C0:
              0. 07 7610 0346 (l)0000:DST_ADJUST (REF 0146: .)
        26:
          5657:
            31C08946E68946DA8946DC66C746DE00000000C45E082639:
              0. 2E D4B4 02F8 0000:RESPONSE_EXPAND
            8B:
              46:
                048946F4EB03FF46048B5E048A1F30FFF687....0875:
                  0. 54 2C09 0561 0000:_strtod (REF 0396: .)
                060B46047503E9:
                  9D03FF7606FF7604E8....8956E489:
                    0. 11 03C2 03C1 (l)0000:DST_ADJUST (REF 0177: .)
                  AB03FF7606FF7604E8....8956E489:
                    0. 11 03C2 03CF (l)0000:DST_ADJUST (REF 0177: .)
              560A8B46088956F48946F28B560E8B460C8956F08946EE:
                0. 92 AB50 068C 0000:__sfmt (REF 0668: .)
              7E048B7606FF760EFF760CFF760AFF7608:
                E8....83C408:
                  0. 11 E7F3 03B4 (l)0000:_SINCOS
                  1. 11 E81F 03DD (l)0000:_SINCOS
                ..........83:
                  0. 13 3B14 0411 (l)0000:_SINCOS
                  1. 13 C0C9 03E8 (l)0000:_SINCOS
          66FF760866FF7604E8....83C4086BD8055366FF761066FF760C:
            0. 01 3E9B 04EA 0000:_atan2 (04C8: C3)
            1. 01 3E9B 04ED 0000:_atan2 (04C8: 8B)
        2856:
          57:
            6A00FF7604E8....85C075098B46045F5E8BE55DC38D46D8:
              0. FF 2539 034D 0000:?extract@_2Comp@@CAAAVistream@@AAV2@PAXH@Z (REF 024F: .)
            8B7E:
              04:
                85FF7503E9:
                  450357E8....8956DE8946DC8A0584C0:
                    0. 07 7610 0367 (l)0000:DST_ADJUST_BACK (REF 0146: .)
                  530357E8....8956DE8946DC8A0584C0:
                    0. 07 7610 0375 (l)0000:DST_ADJUST_BACK (REF 0146: .)
                8B5D028B5F0203DF837F0A00740F6A0057E8....85:
                  0. 1F 2AC3 014A 0000:??5@YAAAVistream@@AAV0@AAVcomplex@@@Z
              088B45068B4D028B158B5D0489C601F609DE09CE09D6:
                0. 6E 96DC 01EE 0000:?pow@@YA?AVcomplex@@ABV1@0@Z
            C746F000008B460A83C00A8946F28B460A83C00E8946F48B:
              0. 42 7057 0326 0000:_strftime 02AB:__strdate 02EA:__strtime
            FF7604E8....85C0750B8B46045F5E8BE55DC204006A108D:
              0. 07 AF7B 00B3 0000:??6ostream@@QACAAV0@PAX@Z
          C45E0C268B4706268B4F02268B17268B5F0489C601F609DE09:
            0. 8D D166 0236 0000:?pow@@YA?EVcomplex@@AFV1@0@Z
        2A5657:
          6A00FF7606FF7604E8....85C0750C8B56068B46045F5E8B:
            0. FF 98B8 041F 0000:?extract@_2Comp@@CAAEVistream@@AEV2@PEXH@Z (REF 02DD: .)
          8B:
            46060B460475:
              03E9:
                54028B56068B46048956D88946D6EB:
                  0. 4C 4956 026C 0000:_putenv
                CD03FF7606FF7604E8....8956E089:
                  0. 11 2C50 03F1 (l)0000:DST_ADJUST_BACK (REF 0177: .)
                DB03FF7606FF7604E8....8956E089:
                  0. 11 2C50 03FF (l)0000:DST_ADJUST_BACK (REF 0177: .)
              06BEFFFFE952028B56068B46048956D889:
                0. 46 C0B3 0270 0000:_putenv
            4E:
              0A83F9027C0583F9247E088B5E08C60700EB68C646F6:
                0. 22 119A 008E 0000:_ultoa
              0C83F9027C0583F9247E09C45E0826C60700EB6AC646:
                0. 23 1FEC 0094 0000:_ultoa
            56068B46048956F28946F0EB03FF4604C45E04268A0798:
              0. 04 4215 0593 0000:_strtod (REF 03A6: .)
          C45E0426C47704268B4402C4760403F026837C120074126A:
            0. 06 0A57 01BF 0000:??5@YAAEVistream@@AEV0@AEVcomplex@@@Z
        2C5657:
          31C050FF7604E8....09C07503E9:
            5F038D46D48946E8C746:
              0. FF 2EC2 0380 0000:?extract@_2Comp@@CAAAVistream@@AAV2@PAXH@Z (REF 026D: .)
            7F038D46D48946E8C746:
              0. FF 21C7 03A0 0000:?extract@_2Comp@@CAAAVistream@@AAV2@PAXH@Z (REF 0288: .)
          8B:
            56068B46048956F08946EEEB03FF4604C45E04268A1F30:
              0. 03 50D8 05A8 0000:_strtod (REF 03BB: .)
            5E048B078946D4C646D90089C38A0F80F93F750CC646D9:
              0. 1A 3799 0222 0000:_unmangle_pt
          FF7604E8....09C07503E9B900B81000508D46D650FF7606:
            0. 01 3E9B 00D9 0000:??6ostream@@QACAAV0@PAX@Z
        2E5657:
          8B46:
            0A83F8027C0583F8247E0E8B5E08C6070089D85F5E8B:
              0. 26 2878 00DC 0000:_ultoa
            0C83F8027C0583F8247E11C45E0826C607008CC289D8:
              0. 29 7157 00E7 0000:_ultoa
          C746EE00008B5E088A0FFF460884C97503E95B018B460A83:
            0. FF 1648 034B 0000:_strftime
        30:
          56:
            57:
              31C050FF7606FF7604E8....09C07503E9:
                7C048CD28D46D0:
                  0. FF 0C9D 04A3 0000:?extract@_2Comp@@CAAEVistream@@AEV2@PEXH@Z (REF 032D: .)
                96048CD28D46D0:
                  0. FF 600C 04BD 0000:?extract@_2Comp@@CAAEVistream@@AEV2@PEXH@Z (REF 0345: .)
              8B7E088B45068B4D028B158B5D0480E47F505351528B450E:
                0. 0D E1B4 0288 0000:??K@YA?AVcomplex@@ABV0@0@Z
            8B76046A006A:
              008D46D05056E8....66FF76068D46D0508D46:
                0. 03 DC77 0039 0000:??6ostream@@QACAAV0@J@Z
              018D46D05056E8....66FF76068D46D0508D46:
                0. 03 DC77 0039 0000:??6ostream@@QACAAV0@K@Z
            C45E0C268B4706268B4F02268B17268B5F0480E47F50535152:
              0. 17 9407 02F0 0000:??K@YA?EVcomplex@@AFV0@0@Z
          6A006A:
            00168D46D050FF7606FF7604E8....66FF7608168D46D0:
              0. 07 E9BE 0046 0000:??6ostream@@QECAEV0@J@Z
            01168D46D050FF7606FF7604E8....66FF7608168D46D0:
              0. 07 E9BE 0046 0000:??6ostream@@QECAEV0@K@Z
        3256578B5E048B0785C08946CE7503E9:
          840089C38A078946FE9889:
            0. 03 5DFB 011D (l)0000:UM_ZNAME (REF 0023: .)
          860089C38A078946FE9889:
            0. 03 5DFB 0125 (l)0000:UM_ZNAME (REF 0023: .)
        345657:
          8B:
            46048946E48D46E650E8....83C402833E....00740D6A:
              0. 04 CE2A 05E0 0000:_strtod (REF 0385: .)
            56:
              0A8B46088956CE8946CCC45E0483C3048C46FC26C437:
                0. 1C 11B1 043A 0000:?floatstr@istream@@AECXPED@Z (REF 03E2: .)
              0C8B460A8956CE8946CCC646D069C45E0426C4770426:
                0. 16 622C 045B 0000:?intstr@istream@@AECDPEDH@Z (REF 0400: .)
          B8F87F9931C931DB8B760489440E895C0C894C0A89540889:
            0. 9C 6543 021F 0000:?sqrt@@YA?AVcomplex@@ABV1@@Z
          FF7604E8....09C07503E99A02FF7608FF76068D46E050E8:
            0. 00 0000 0343 0000:?insert@_2Comp@@CAAAVostream@@AAV2@PBXHH@Z 02B8:?format@_2Comp@@CAHPAEPADHHHH@Z
        365657:
          8B7E0457E8....85C075088BC75F5E8BE55DC3FF7608FF76:
            0. 06 DC63 0283 0000:?insert@_2Comp@@CAAAVostream@@AAV2@PBXHH@Z
          C45E04268B5702268B078956CC8946CAC646D3008EC289C3:
            0. 27 4162 0286 0000:_unmangle_pt
        385657:
          B8F87F9931C931DBC476042689440E26895C0C26894C0A26:
            0. CF A905 0282 0000:?sqrt@@YA?EVcomplex@@AFV1@@Z
          C746E200008B56108B460E83C00A8956E68946E48B56108B:
            0. 6D D9F5 03C6 0000:_strftime 0327:__strdate 0378:__strtime
        3A5657:
          8B:
            56068B46048956E08946DE168D46E250E8....83C40483:
              0. 01 8528 0626 0000:_strtod (REF 03A4: .)
            76088B7E0CF64606807503BE06008B5E0A8B47068B4F02:
              0. 16 85B2 02D4 0000:___floatfmt
          FF7606FF7604E8....85C0750C8B56068B46045F5E8BE55D:
            0. 0E FC4B 0342 0000:?insert@_2Comp@@CAAEVostream@@AEV2@PFXHH@Z
        3C:
          5657:
            8B76088B7E0EF64606807503BE0600C45E0A268B4706268B:
              0. 1A EC48 0312 0000:___floatfmt
            FF7606FF7604E8....09C07503E96E03FF760CFF760AFF76:
              0. 07 A652 0442 0000:?insert@_2Comp@@CAAEVostream@@AEV2@PFXHH@Z 0392:?format@_2Comp@@CAHPEEPEDHHHH@Z
          FF760AFF7608FF7606FF7604E8....83C40889C383EB0183FB03:
            0. 06 A6A5 02E7 0000:_tan (02C0: C3)
            1. 06 A6A5 02E9 0000:_tan (02C0: E5)
        42:
          5657C746DE0000C45E0A268A078846BEFF460A84C07503E99E01:
            0. FF 29D4 03ED 0000:_strftime
          5731FF6A42:
            168D46BE50FF7604E8....83C40889D109C17508B8:
              0. 1A 03C7 0046 0000:_getcurdir
            8D46BE50FF7604E8....83C40685C07508B8FFFF5F:
              0. 15 A776 0041 0000:_getcurdir
        4656578B460E8B5E0C8B4E0A8B56088946FA895EF8894EF68956F4:
          0. 0E 4750 0293 0000:??6ostream@@QECAEV0@N@Z
        4856578B7E048B460C8B5E0A8B4E088B56068946FA895EF8894EF6:
          0. 0C 105B 01F1 0000:??6ostream@@QACAAV0@N@Z
        4A5657:
          8B460C8B5E0A8B4E088B56068946F8895EF6894EF48956F2:
            0. 0E 8633 05ED 0000:??6ostream@@QACAAV0@N@Z 022A:?fixed_point@ostream@@AACHNPAD@Z 03BC:?sci_notation@ostream@@AACHNPADAAH@Z (05BE: 00)
            1. 0E 8633 05F1 0000:??6ostream@@QACAAV0@N@Z 022A:?fixed_point@ostream@@AACHNPAD@Z 03BC:?sci_notation@ostream@@AACHNPADAAH@Z (05BE: E5)
          C746B60000:
            8B5E088A079889C6FF460885F67503E9060683:
              0. 23 F560 0671 0000:__pformat (REF 0653: .)
            C45E0A268A079889C6FF460A85F67503E91F06:
              0. 25 012E 068D 0000:__pformat (REF 066E: .)
        4C:
          56578B460E8B5E0C8B4E0A8B56088946F6895EF4894EF28956F0:
            0. 11 ECBA 07F4 0000:??6ostream@@QECAEV0@N@Z 02D5:?fixed_point@ostream@@AECHNPED@Z 0520:?sci_notation@ostream@@AECHNPEDAEH@Z (07C2: 00)
            1. 11 ECBA 07F8 0000:??6ostream@@QECAEV0@N@Z 02D5:?fixed_point@ostream@@AECHNPED@Z 0520:?sci_notation@ostream@@AECHNPEDAEH@Z (07C2: E5)
          FF760CFF760AB81000995250B80100995250FF7608FF7606:
            0. 00 0000 0230 0000:GETFILEVERSIONINFOSIZE 008D:GETFILEVERSIONINFO 00BF:VERQUERYVALUE
        50:
          56:
            578B76048B7E0668....56E8....83C40485C0740E6A02E8:
              0. 00 0000 0182 0000:_stat (REF 0151: .)
            8B7604FF7404FF740268....8D46B050E8....8D46B050E8:
              0. 00 0000 00AA 0000:?dbp@streambuf@@QACXXZ
          8D46B01650FF7614FF76128D4EBE1651:
            0EE8....0BC0750DFF76:
              0. 01 F345 03B8 0000:GETFILERESOURCESIZE 0083:GETFILERESOURCE (l)0160:VerifyFilename (l)01FD:GetResourceTableEntry (l)02D6:ReadData (l)031E:FileHugeRead
            E8....0BC0750BFF76B0:
              0. 01 3E9B 037E 0000:GETFILERESOURCESIZE 0079:GETFILERESOURCE (l)0146:VerifyFilename (l)01D9:GetResourceTableEntry (l)02A3:ReadData (l)02E8:FileHugeRead
          C45E0426FF770626FF77041E68....168D46B050E8....168D46:
            0. 03 3FF4 00E8 0000:?dbp@streambuf@@QECXXZ
        52:
          168D4606501EFF7604:
            6A50168D46AE50:
              E8....C646FE006A0016:
                0. 06 1B52 0034 (l)0000:__msgbox_printf
              ..........C646FE006A:
                0. 08 E3CB 0036 (l)0000:__msgbox_printf
            B8500050168D46AE50:
              E8....83C40EC646:
                0. 0C D77A 006D 003C:__assert
              ..........83C40E:
                0. 0E 0006 0076 003E:__assert
          5657:
            1E68....66FF7604E8....83C40889D109C1740E6A02E8:
              0. 00 0000 01D6 0000:_stat (REF 01A0: .)
            C746AE00008B5E04B84100:
              363947047E04368947048D46B0:
                0. 44 37C5 028B 0000:__SCANFLOAT (REF 0240: .)
              3947047E038947048D46B08946:
                0. 3B B30F 025E 0000:__SCANFLOAT (REF 021F: .)
          8D460650FF7604:
            6A508D46AE50:
              E8....C646FE006A00168D46AE:
                0. 03 E0A5 0031 (l)0000:__msgbox_printf
              ..........C646FE006A00168D:
                0. 05 9E5A 0033 (l)0000:__msgbox_printf
            B85000508D46AE50:
              E8....83C408C646FE0031:
                0. 09 C733 0064 0039:__assert
              ..........83C408C646FE:
                0. 0B 34DF 006D 003B:__assert
        545657C746C800008D76128976AE83C6F88CD08EC08D7EB0A5A5A5:
          0. 13 5BEF 034F 0000:?__eh_throw@@YAXPBDP6CHXZIZZ
        5A5657:
          31C08946A68946FA3946087503E9F7003946047503E9EF00:
            0. 05 E025 0115 0000:__searchenv
          8B7E04B8F87F9931C931DB89450E895D0C894D0A89550889:
            0. 93 5453 025D 0000:?pow@@YA?AVcomplex@@ABV1@H@Z
        5C5657:
          8B7E04F6460801740EB8....8946FE8B46088946FAEB0EB8:
            0. 00 0000 01A3 0000:_qsort (0182: C3)
            1. 00 0000 01DB 0000:_qsort (0182: 8B)
          FF76046A04..........8956A68946A466C746A848000000:
            0. 08 DCF6 01E4 0000:_winio_dosave (01BB: FF)
            1. 08 DCF6 01E8 0000:_winio_dosave (01BB: 72)
        5E565731C08946A48946F88B4E0E0B4E0C7503E920018B4E060B4E:
          0. 0E 04DC 0141 0000:__searchenv
        625657C45E04268B5702268B0789D109C18956A089469E7503E9:
          9F:
            0. 10 0330 0175 (l)0000:UM_ZNAME (REF 0030: .)
          A1:
            0. 10 0330 017D (l)0000:UM_ZNAME (REF 0030: .)
        665657:
          31C089469C8946A08946A28946F8E97B018B469C83C0023B:
            0. 0E BC49 01BF 0000:__STI_wildcard
          B8F87F9931C931DBC476042689440E26895C0C26894C0A26:
            0. C0 09A8 02D9 0000:?pow@@YA?EVcomplex@@AFV1@H@Z
          C746BC00008CD18D7614894EA089769E83C6F88CD08EC08D:
            0. 1D 6980 03F1 0000:?__eh_throw@@YAXPFDP6CHXZIZZ
        6C5657FF76046A04..........8EC289C3895ED68C46D8268B572C:
          0. 12 24F4 028D 0000:_winio_wmpaint (0255: E9)
          1. 12 24F4 0288 0000:_winio_wmpaint (0255: FF)
        72565731C089469289469689469889469A8946F6E9F5018B469283:
          0. 16 C6A9 0250 0000:__STI_wildcard
        785657FF7612FF7610FF760EFF760CE8....83C40889C353FF760A:
          0. 0A 90D3 0A3D 0000:_pow
        7A5657FF7612FF7610FF760EFF760CE8....83C40889C353FF760A:
          0. 0A 90D3 0A7C 0000:_pow
    8A:
      46:
        04:
          8B5E06:
            3C0A74155DFF4F02783D8BD78B3F8E470CAA893F8BFA32:
              0. 0B B176 00AC 0000:_fputc 0060:_fgetc
            83FB0074423C0A74155DFF4F0278418BD78B3F8E470CAA:
              0. 10 64D8 00BF 0000:_fputc 0068:_fgetc
          8CD9C55E06:
            3C0A74145DFF4F0478418BD7C43FAA893F8ED98BFA:
              0. 0C 68DF 00BA 0000:_fputc 0068:_fgetc
            8CDA0BD3744B3C0A74145DFF4F0478458BD7C43FAA:
              0. 12 F126 00D0 0000:_fputc 0072:_fgetc
        06:
          8B5E0488470B89D85DC3:
            0. 00 0000 0010 0000:?_iomanip_setfill@@YAAAVios@@AAV1@H@Z
          988B5E0489471489D85DC3:
            0. 00 0000 0011 (l)0000:?sfill@@YAAAVios@@AAV1@H@Z
        08:
          98C45E042689471A8CC289D85DC3:
            0. 00 0000 0014 (l)0000:?sfill@@YAAEVios@@AEV1@H@Z
          C45E04268847118CC289D85DC3:
            0. 00 0000 0013 0000:?_iomanip_setfill@@YAAEVios@@AEV1@H@Z
      5E0430FF:
        8A87....:
          25:
            01005DC3:
              0. 00 0000 0011 0000:_isupper (REF 000A: .)
            02005DC3:
              0. 00 0000 0011 0000:_islower (REF 000A: .)
            03005DC3:
              0. 00 0000 0011 0000:_isalpha (REF 000A: .)
            04005DC3:
              0. 00 0000 0011 0000:__ismbblead (REF 000A: __mbctype)
              1. 00 0000 0011 0000:_isdigit (REF 000A: .)
            07005DC3:
              0. 00 0000 0011 0000:_isalnum (REF 000A: .)
            08005DC3:
              0. 00 0000 0011 0000:__ismbbtrail (REF 000A: __mbctype)
              1. 00 0000 0011 0000:_isspace (REF 000A: .)
            10005DC3:
              0. 00 0000 0011 0000:_ispunct (REF 000A: .)
            17005DC3:
              0. 00 0000 0011 0000:_isgraph (REF 000A: .)
            20005DC3:
              0. 00 0000 0011 0000:_iscntrl (REF 000A: .)
            57005DC3:
              0. 00 0000 0011 0000:_isprint (REF 000A: .)
          982580005DC3:
            0. 00 0000 0012 0000:_isxdigit (REF 000A: .)
        F687....:
          03750A837E045F740433C0EB03B801005DC3558B:
            0. 08 05C9 003C 0000:_iscsymf 001E:___iscsymf (REF 0028: .)
          07750A837E045F740433C0EB03B801005DC3558B:
            0. 08 05C9 003C 0000:_iscsym 001E:___iscsym (REF 0028: .)
    8B:
      16....8B4604258001A3....89D05DC3:
        0. 00 0000 0014 0000:__umask
      1E....8B4604A3....89D8:
        5DC3:
          558BECFF7604E8E6FF5B5DC3:
            0. 00 0000 001D 0000:?set_new_handler@@YAP6AXXZP6AXXZ@Z 0011:?_set_new_handler@@YAP6AHI@ZP6AHI@Z@Z
          ..:
            0. 00 0000 0011 0000:?set_new_handler@@YAP6AHI@ZP6AHI@Z@Z
        85C07503B8....5DC3:
          0. 00 0000 0018 0000:?set_unexpected@@YAP6AXXZP6AXXZ@Z (REF 0014: ?unexpected_default@@YAXXZ)
          1. 00 0000 0018 0000:?set_terminate@@YAP6AXXZP6AXXZ@Z (REF 0014: ?terminate_default@@YAXXZ)
      46:
        04:
          050F00D1E8D1E8D1E8D1E874:
            0550E8....598BD033C05DC3558B:
              0. 0D C9E0 0032 0000:__fmalloc 001E:__ffree
            0750..........598BD033C05DCB:
              0. 0E 2590 0036 0000:__fmalloc 0020:__ffree
          0BC07509FF7606E8....59EB30837E0600750950E8....5933C0:
            0. 07 83CE 0045 0000:__nrealloc
          257F005DC3:
            558BEC8B4604257F005DC3:
              0. 00 0000 0016 0000:_toascii 000B:___toascii
            ..:
              0. 00 0000 000B 0000:_toascii
          31C9:
            5150..........:
              83C40485C075058B4604EB0231C05DC3:
                0. 00 0000 001F 0000:__onexit
              8BE55DC3:
                0. 00 0000 0013 0000:_atexit
            890E....A3....5DC3:
              0. 00 0000 0011 0000:_srand
          3B4606B80100:
            740231C05DC3:
              0. 00 0000 0012 0000:??8Type_info@@QBAHABV0@@Z
            750231C05DC3:
              0. 00 0000 0012 0000:??9Type_info@@QBAHABV0@@Z
          3DFF0072028BD88B5606B438..........8BC2730233C05DC3:
            0. 00 0000 001F 0000:_country
          83C0:
            205DC3:
              0. 00 0000 000B 0000:__tolower
            E05DC3:
              0. 00 0000 000B 0000:__toupper
          8B:
            4E06D3C05DC390558BEC8B46048B4E06D3C85DC390558BEC8B:
              0. 36 B13E 0056 0000:__rotl 000E:__rotr 001C:__lrotl 0038:__lrotr
            5606:
              5D8BC8250F00D1E9D1E9D1E9D1E903D1C3558BEC8B4604:
                0. 40 F66F 0060 0000:__farptr_norm 001A:__farptr_fromlong 0042:__farptr_tolong
              A3....8916....5DC3:
                803E....007522A1....0B06:
                  0. 08 B8CA 01B9 0000:___redirect_kb 0012:_kbhit 003F:_getch 0067:_getche 009D:_ungetch 00C1:_dos_set_verify 00D2:_dos_get_verify 00DB:_dos_set_ctrl_break 00EC:_dos_get_ctrl_break 00F8:_dos_getdiskfreespace 0116:_dos_abs_disk_read 016E:_dos_abs_disk_write 0172:_chdir 0188:_mkdir 018C:_rmdir 0190:__chdrive 01AF:__getdrive (0190: C3)
                  1. 08 B8CA 01BB 0000:___redirect_kb 0012:_kbhit 003F:_getch 0067:_getche 009D:_ungetch 00C1:_dos_set_verify 00D2:_dos_get_verify 00DB:_dos_set_ctrl_break 00EC:_dos_get_ctrl_break 00F8:_dos_getdiskfreespace 0116:_dos_abs_disk_read 016E:_dos_abs_disk_write 0172:_chdir 018A:_mkdir 018E:_rmdir 0192:__chdrive 01B1:__getdrive (0190: 98)
                A1....0B06....740CB8000050FF:
                  0. 01 8709 0166 0000:___redirect_kb 0012:_kbhit 0032:_getch 0049:_getche 006E:_dos_set_verify 007F:_dos_get_verify 0088:_dos_set_ctrl_break 0099:_dos_get_ctrl_break 00A5:_dos_getdiskfreespace 00C3:_dos_abs_disk_read 011B:_dos_abs_disk_write 011F:_chdir 0135:_mkdir 0139:_rmdir 013D:__chdrive 015C:__getdrive (0144: C3)
                  1. 01 8709 0168 0000:___redirect_kb 0012:_kbhit 0032:_getch 0049:_getche 006E:_dos_set_verify 007F:_dos_get_verify 0088:_dos_set_ctrl_break 0099:_dos_get_ctrl_break 00A5:_dos_getdiskfreespace 00C3:_dos_abs_disk_read 011B:_dos_abs_disk_write 011F:_chdir 0137:_mkdir 013B:_rmdir 013F:__chdrive 015E:__getdrive (0144: 98)
                E8....803E....00740AA0....C6:
                  0. 01 4E95 0195 0000:___redirect_kb 0012:_getch 003A:_getche 0070:_ungetch 0094:_dos_set_verify 00A5:_dos_get_verify 00AE:_dos_set_ctrl_break 00BF:_dos_get_ctrl_break 00CB:_dos_getdiskfreespace 00E9:_dos_abs_disk_read 0142:_dos_abs_disk_write 0146:_chdir 0164:_mkdir 0168:_rmdir 016C:__chdrive 018B:__getdrive (0173: C3)
                  1. 01 4E95 0197 0000:___redirect_kb 0012:_getch 003A:_getche 0070:_ungetch 0094:_dos_set_verify 00A5:_dos_get_verify 00AE:_dos_set_ctrl_break 00BF:_dos_get_ctrl_break 00CB:_dos_getdiskfreespace 00E9:_dos_abs_disk_read 0142:_dos_abs_disk_write 0146:_chdir 0166:_mkdir 016A:_rmdir 016E:__chdrive 018D:__getdrive (0173: 98)
              B9....D3EA8B5E0AD3EB2B46081BD35DC20800558BEC8B:
                0. 06 F788 0038 0000:__aNahdiff 001C:__aFahdiff
            D8:
              8067068F804F06:
                1089D85DC3:
                  0. 00 0000 0014 0000:?dec@@YAAAVios@@AAV1@@Z
                2089D85DC3:
                  0. 00 0000 0014 0000:?oct@@YAAAVios@@AAV1@@Z
                4089D85DC3:
                  0. 00 0000 0014 0000:?hex@@YAAAVios@@AAV1@@Z
              C707....C7471E000089D85DC20200:
                0. 00 0000 0017 0000:??0ios@@IAC@XZ
          A3....:
            BA....B8....8916....A3....FF36....FF36....6A23:
              0. 01 3E9B 0027 0000:_ctrlbrk
            C706....00005DC20200:
              0. 00 0000 0013 0000:__SET_ERRNO
          B90A0099F7F904308B5E0688078B460499F7F980C2308857015D:
            0. 1F 1339 00C1 0023:_asctime
            1. 1E 242C 00BA 0023:_asctime
            2. 18 43CE 00B8 0023:_asctime
            3. 03 8E1E 0023 (l)0000:DECPUT
            4. 17 D4F3 00B1 0023:_asctime
          BF....EB0383C7:
            0681FF....73138B1D3BC372F1035D043BC373:
              0. 0C 7F22 002C 0000:___eh_finddata
            0881FF....73138B1D3BC372F1035D063BC373:
              0. 0C 7F22 002C 0000:___eh_finddata
          F76606050F0083D200D1FAD1D8D1FAD1D8D1FAD1D8D1FAD1D88B:
            0. 13 864A 003C 0000:__fcalloc
        06:
          050F00D1E8D1E8D1E8D1E8740750..........598BD033C05DCB:
            0. 0E 2590 0036 0000:__fmalloc 0020:__ffree
          09C07802EB03B806008B5E0489470C89D85DC3:
            0. 00 0000 0019 0000:?_iomanip_setprecision@@YAAAVios@@AAV1@H@Z
          0B4604:
            74:
              0E8A4608C45E04268807B801005DC331C05DC3:
                0. 00 0000 001D 0000:_wctomb
              12FF7606FF7604E8....89560689460483C4048B5606:
                0. 07 0FCD 0027 (l)0000:STR_DUP
              14FF7606FF7604..........89560689460483C4048B:
                0. 09 C150 0029 (l)0000:STR_DUP
              1BFF7606FF7604E8....F6460801740CFF7606FF7604:
                0. 01 3E9B 0030 0000:??_Gfilebuf@@UECPEXI@Z (REF 0012: ??1filebuf@@UEC@XZ)
                1. 01 3E9B 0030 0000:??_Gfstreambase@@UECPEXI@Z (REF 0012: ??_Dfstreambase@@UECXXZ)
                2. 01 3E9B 0030 0000:??_Gifstream@@UECPEXI@Z (REF 0012: ??_Difstream@@UECXXZ)
                3. 01 3E9B 0030 0000:??_Gofstream@@UECPEXI@Z (REF 0012: ??_Dofstream@@UECXXZ)
                4. 01 3E9B 0030 0000:??_Gfstream@@UECPEXI@Z (REF 0012: ??_Dfstream@@UECXXZ)
                5. 01 3E9B 0030 0000:??_Gios@@UECPEXI@Z (REF 0012: ??1ios@@UEC@XZ)
                6. 01 3E9B 0030 0000:??_Giostream@@UECPEXI@Z (REF 0012: ??_Diostream@@UECXXZ)
                7. 01 3E9B 0030 0000:??_Giostream_withassign@@UECPEXI@Z (REF 0012: ??_Diostream_withassign@@UECXXZ)
                8. 01 3E9B 0030 0000:??_Gistream@@UECPEXI@Z (REF 0012: ??_Distream@@UECXXZ)
                9. 01 3E9B 0030 0000:??_Gistream_withassign@@UECPEXI@Z (REF 0012: ??_Distream_withassign@@UECXXZ)
                10. 01 3E9B 0030 0000:??_Gostream@@UECPEXI@Z (REF 0012: ??_Dostream@@UECXXZ)
                11. 01 3E9B 0030 0000:??_Gostream_withassign@@UECPEXI@Z (REF 0012: ??_Dostream_withassign@@UECXXZ)
                12. 01 3E9B 0030 0000:??_Gstdiobuf@@UECPEXI@Z (REF 0012: ??1stdiobuf@@UEC@XZ)
                13. 01 3E9B 0030 0000:??_Gstdiostream@@UECPEXI@Z (REF 0012: ??1stdiostream@@UEC@XZ)
                14. 01 3E9B 0030 0000:??_Gstreambuf@@UECPEXI@Z (REF 0012: ??1streambuf@@UEC@XZ)
                15. 01 3E9B 0030 0000:??_Gstrstreambuf@@UECPEXI@Z (REF 0012: ??1strstreambuf@@UEC@XZ)
                16. 01 3E9B 0030 0000:??_Gstrstreambase@@UECPEXI@Z (REF 0012: ??_Dstrstreambase@@UECXXZ)
                17. 01 3E9B 0030 0000:??_Gistrstream@@UECPEXI@Z (REF 0012: ??_Distrstream@@UECXXZ)
                18. 01 3E9B 0030 0000:??_Gostrstream@@UECPEXI@Z (REF 0012: ??_Dostrstream@@UECXXZ)
                19. 01 3E9B 0030 0000:??_Gstrstream@@UECPEXI@Z (REF 0012: ??_Dstrstream@@UECXXZ)
                20. 01 3E9B 0030 0000:??_Gfstream_common@@UECPEXI@Z (REF 0012: ??_Dfstream_common@@UECXXZ)
              1EFF7606FF7604E8....83C404F6460801740CFF7606:
                0. 04 2B63 0033 0000:??_GType_info@@UECPEXI@Z
              24FF7606FF7604E8....83C40485C07414FF7606FF76:
                0. 03 6245 004A 0000:_perror
            75:
              0531C0995DC36A031EC45E04268B470C6BC00305:
                0. 03 6D73 00A9 0000:_asctime
              09FF7608E8....595DC3837E08007511FF7606FF7604:
                0. 01 3E9B 003F 0000:__frealloc
              1066FF7608666A00..........8BE55DC366FF760866:
                0. 03 0FE2 002C 0000:_strtok
              138B16....A1....89560689460489D109C174:
                1A66FF:
                  0. 07 77E1 0088 0000:__mbstok
                1EFF76:
                  0. 0B B4A8 0074 0000:_strtok
              14FF760AFF760831C05050..........83C4085DC3FF:
                0. 0B 03DE 0035 0000:_strtok
          2B460A1BD2D1E0D1D2D1E0D1D2D1E0D1D2D1E0D1D203460483D2:
            0. 36 2F76 0056 0000:__aNahdiff 002B:__aFahdiff
          3B06....75208B46043B06....77173B06....72113B06....73:
            0. 10 30C8 0030 0000:PTRCHK
          3DFF0072028BD88B5608B438..........8BC2730233C05DCB:
            0. 00 0000 001F 0000:_country
          5DC3:
            0. 00 0000 0008 (!)0000:?
          85C07802EB03B806008B5E0489470C89D85DC3:
            0. 00 0000 0019 0000:?_iomanip_setprecision@@YAAAVios@@AAV1@H@Z
          8B:
            4E08D3C05DCB90558BEC8B46068B4E08D3C85DCB90558BEC8B:
              0. 36 826E 0056 0000:__rotl 000E:__rotr 001C:__lrotl 0038:__lrotr
            56085D8BC8250F00D1E9D1E9D1E9D1E903D1CB558BEC8B4606:
              0. 40 0C92 0060 0000:__farptr_norm 001A:__farptr_fromlong 0042:__farptr_tolong
            5E0489:
              0724C0F7D819C0405DC3:
                0. 00 0000 0014 0000:_fegetexcept
              47:
                1089D85DC3:
                  0. 00 0000 0010 (l)0000:?sprec@@YAAAVios@@AAV1@H@Z
                1289D85DC3:
                  0. 00 0000 0010 (l)0000:?swidth@@YAAAVios@@AAV1@H@Z
                1889D85DC20600:
                  0. 00 0000 0012 0000:?setbuf@strstreambuf@@UACPAVstreambuf@@PADH@Z
          A3....8B4604A3....5DC20400:
            0. 00 0000 0013 (l)0000:_RESTOREERRNOSTATUS
          B9FFFF3BC1741A8B5E04FF771650E8....83C404B9FFFF3BC175:
            0. 0D B4C7 002D 0000:?overflow@stdiobuf@@UACHH@Z
          F766040BC0742050B9FFFF51..........58B960005150:
            0. 00 0000 002F 0000:__ncalloc
        08:
          09C07802EB03B80600C45E04268947128CC289D85DC3:
            0. 00 0000 001C 0000:?_iomanip_setprecision@@YAAEVios@@AEV1@H@Z
          31C93BC1:
            780289C1C45E0426894F148B16....A1....F7D2F7D0:
              0. 10 B6BB 0030 0000:?width@ios@@QECHH@Z
            7902EB0289C1C45E0426894F148B16....A1....F7D2:
              0. 12 38F5 0032 0000:?width@ios@@QECHH@Z
          85C07802EB03B80600C45E04268947128CC289D85DC3:
            0. 00 0000 001C 0000:?_iomanip_setprecision@@YAAEVios@@AEV1@H@Z
          8B560AB9....D3EA8B5E06D3EB2B46041BD35DC20800558BEC8B:
            0. 0C F283 0037 0000:HUGEPTR_DIFF 001C:HUGEPTR_ADD
          B9FFFF3BC1741FC45E0426FF772A26FF772850E8....83C406B9:
            0. 12 AABE 0032 0000:?overflow@stdiobuf@@UECHH@Z
          C45E042689:
            0724C0F7D819C0405DC3:
              0. 00 0000 0015 0000:_fegetexcept
            47:
              168CC289D85DC3:
                0. 00 0000 0013 (l)0000:?sprec@@YAAEVios@@AEV1@H@Z
              188CC289D85DC3:
                0. 00 0000 0013 (l)0000:?swidth@@YAAEVios@@AEV1@H@Z
              2A8CC289D85DC20A00:
                0. 00 0000 0015 0000:?setbuf@strstreambuf@@UECPEVstreambuf@@PEDH@Z
        0A:
          2B46061BD2D1E0D1D2D1E0D1D2D1E0D1D2D1E0D1D203460883D2:
            0. 1B 0E97 0046 0000:HUGEPTR_DIFF 002B:HUGEPTR_ADD
          8B560CB9....D3EA8B5E08D3EB2B46061BD35DCA0800558BEC8B:
            0. 0C 550E 0037 0000:HUGEPTR_DIFF 001C:HUGEPTR_ADD
        0C:
          0B460A740731C0995DC20A008B460883F8087E07C45E04268947:
            0. 0B 0360 002B 0000:?setbuf@strstreambuf@@UECPEVstreambuf@@PEDH@Z
          2B46081BD2D1E0D1D2D1E0D1D2D1E0D1D2D1E0D1D203460A83D2:
            0. 1B 2D16 0046 0000:HUGEPTR_DIFF 002B:HUGEPTR_ADD
      4E:
        04:
          33C0CD31730333C0485DC3558BECB802008B5E04EBEC558BECB8:
            0. ED 40DC 0327 0000:_dpmi_AllocLDTDescriptors 0011:_dpmi_SegToDescriptor 001C:_dpmi_GetNextDescriptorIncremen 0024:_dpmi_SetDescriptorRights 002F:_dpmi_CreateCodeSegAlias 0037:_dpmi_GetDescriptor 0057:_dpmi_SetDescriptor 005F:_dpmi_AllocThisLDTDescriptor 0067:_dpmi_DOSAlloc 008B:_dpmi_DOSFree 009C:_dpmi_DOSRealloc 00AE:_dpmi_GetRealModeVector 00BF:_dpmi_SetRealModeVector 00D5:_dpmi_GetExceptionHandler 00DD:_dpmi_SetExceptionHandler 00E5:_dpmi_GetProtectedModeVector 00ED:_dpmi_SetProtectedModeVector 00F5:_dpmi_SimRealModeInterrupt 010F:_dpmi_CallRealModeProcWithFarRe 011B:_dpmi_CallRealModeProcWithIRet 0125:_dpmi_RealModeCallBackAlloc 0147:_dpmi_RealModeCallBackFree 0156:_dpmi_GetStateSaveRestoreInfo 0188:_dpmi_GetRawModeSwitchInfo 01B4:_dpmi_GetVersionInfo 01DE:_dpmi_GetFreeMemInfo 01E9:_dpmi_MemBlockAlloc 021B:_dpmi_MemBlockFree 022A:_dpmi_MemBlockRealloc 023D:_dpmi_LockLinearRegion 0252:_dpmi_UnlockLinearRegion 025A:_dpmi_UnlockRealModeRegion 0262:_dpmi_LockRealModeRegion 026A:_dpmi_IsPageSize 0280:_dpmi_MarkAsDemandPage 0288:_dpmi_DiscardPage 0290:_dpmi_IsLinearAddress 02B2:_dpmi_DisableVirtualInterruptSt 02BB:_dpmi_EnableVirtualInterruptSta 02C4:_dpmi_IsVirtualInterruptState 02CD:_dpmi_GetVendorAPI 02EE:_dpmi_SetDebugWatchPoint 030C:_dpmi_ClearDebugWatchPoint 0315:_dpmi_IsDebugWatchPointState 031E:_dpmi_ResetDebugWatchPoint
          83F9:
            01760983F9207704890E....5DC3:
              A1....C3:
                558BEC83EC04:
                  0. 03 B4A5 00B6 0000:_tab_sizeset 0016:_tab_sizeget 001A:_tab_sizegetenv 0078:_tab_sizeputenv
                5657B8....50:
                  0. 01 3E9B 008D 0000:_tab_sizeset 0016:_tab_sizeget 001A:_tab_sizegetenv 0056:_tab_sizeputenv
              ..:
                0. 00 0000 0016 0000:_tab_sizeset
            417C0C83F95A7F0789:
              C883C020EB0289C85DC3:
                558BEC8B46:
                  0. 06 40DF 0026 0000:_tolower 001B:__tolower
                ..:
                  0. 00 0000 001B 0000:_tolower
              CB8D4720EB0289C85DC3:
                0. 00 0000 001B 0000:_tolower
            617C0C83F97A7F0789:
              C883C0E0EB0289C85DC3:
                558BEC8B46:
                  0. 06 DAD5 0026 0000:_toupper 001B:__toupper
                ..:
                  0. 00 0000 001B 0000:_toupper
              CB8D47E0EB0289C85DC3:
                0. 00 0000 001B 0000:_toupper
            FF750489C8EB0C8AC18B5E06FF0F8B1F8807985DC3:
              0. 00 0000 001D (l)0000:_sungetc
          890E....803E....03720F83F920740583F9217505B90500EB08:
            0. 0E 8B8D 003A 0000:__SET_DOS_ERRNO
          8BD9:
            8B57088B4706:
              0B46060B560889570889470689D85DC3:
                0. 00 0000 001E 0000:?_iomanip_setiosflags@@YAAAVios@@AAV1@J@Z
              248F0C:
                1089570889470689D85DC3:
                  0. 00 0000 001C 0000:?dec@@YAAAVios@@AAV1@@Z
                2089570889470689D85DC3:
                  0. 00 0000 001C 0000:?oct@@YAAAVios@@AAV1@@Z
                4089570889470689D85DC3:
                  0. 00 0000 001C 0000:?hex@@YAAAVios@@AAV1@@Z
            F687....0274078BD98D47E0EB028BC15DC3:
              0. 00 0000 001A 0000:__mbctoupper (REF 000A: .)
        08:
          837E040075068BD9C70703008A46069883F841740C83F8537411:
            0. 27 23BB 0047 (l)0000:?fhf@@YAHHDPAH@Z
          8A460685C974468B5E04F6C301740A8A27433AE0744349743451:
            0. 44 3588 0064 0000:_memchr
          8BC130E4C45E042609470C8BC180E4FC2609470E8BC180E4FD26:
            0. 07 62D2 0027 0000:?setstate@ios@@IECXH@Z
          E317578CD88EC08B7E048A4606F2AE8BC175038BC7485F5DC38B:
            0. 03 9201 0023 0000:_memchr
        0A:
          56578CD88E5E048B76068EC08B7E08F3A48ED85F5E5DC3558BEC:
            0. 14 C36A 0034 0000:_peek 001D:_poke
          8A460885C974:
            468B5E06F6C301740A8A27433AE0744349743451:
              0. 44 1EEB 0064 0000:_memchr
            481EC55E04F6C301740A8A27433AE07446497434:
              0. 4B 5DAA 006B 0000:_memchr
          E3:
            1657C47E048A4608F2AE8BC19975058CC28BC7485F5DC38BC1:
              0. 03 B344 0023 0000:_memchr
            17578CD88EC08B7E068A4608F2AE8BC175038BC7485F5DCB8B:
              0. 03 DA8D 0023 0000:_memchr
        0C:
          56578CD88E5E:
            048B7606C47E08F3A48ED85F5E5DC3558BEC8B4E:
              0. 16 731E 0036 0000:_peek 001B:_poke
            068B76088EC08B7E0AF3A48ED85F5E5DCB558BEC:
              0. 14 E159 0034 0000:_peek 001D:_poke
          8A460A85C974481EC55E06F6C301740A8A27433AE07446497434:
            0. 4B 6DA6 006B 0000:_memchr
          D1E98BC14985C07424C45E04268A17268A4701C45E0826880726:
            0. 15 33AE 0035 0000:_swab
          E31657C47E068A460AF2AE8BC19975058CC28BC7485F5DCB8BC1:
            0. 03 FBC8 0023 0000:_memchr
        0E56578CD88E5E068B7608C47E0AF3A48ED85F5E5DCB558BEC8B4E:
          0. 16 7A92 0036 0000:_peek 001B:_poke
      56:
        068B4604:
          2B46081B560AE8....5DC3:
            31C0:
              99C3:
                0. 00 0000 0018 0000:_difftime 0014:_gmtime
              C3:
                0. 00 0000 0017 0000:_difftime 0014:_gmtime
            558BEC83EC04E8....:
              8B5E04:
                0. 07 F718 003F 0000:_difftime 0014:_gmtime
              C45E04:
                0. 09 E746 0044 0000:_difftime 0014:_gmtime
            ..:
              0. 00 0000 0014 0000:_difftime
          3B560A75033B4608B80100:
            740231C05DC3:
              0. 00 0000 001A 0000:??8Type_info@@QFAHAFV0@@Z
            750231C05DC3:
              0. 00 0000 001A 0000:??9Type_info@@QFAHAFV0@@Z
          83C0:
            04C45E0426C45F04260347028EC289C326:
              807F1000:
                0. 13 37E8 0042 0000:?opfx@ostream@@QECHXZ
              8B570626:
                0. 20 317C 0040 0000:?flush@ostream@@QECAEV1@XZ
            085250E8....89D109C175268B56068B460483C004:
              0. 21 DC57 0041 0000:?close@fstream_common@@QECXXZ
        088B4606:
          5DC3:
            0. 00 0000 000B (!)0000:?
          F7D2F7D08B5E0421470621570889D85DC3:
            0. 00 0000 001A 0000:?_iomanip_resetiosflags@@YAAAVios@@AAV1@J@Z
        0A8B4608F7D2F7D0C45E042621470C2621570E8CC289D85DC3:
          0. 00 0000 001E 0000:?_iomanip_resetiosflags@@YAAEVios@@AEV1@J@Z
        0C31C985D274:
          1CC45E08268A07C45E0426880784C0740C83460802:
            0. 0C 3E0F 002C 0000:_wcstombs
          1EC45E08268A0730E4C45E0426890785C0740C8346:
            0. 0E 44DC 002E 0000:_mbstowcs
        108B460EC45E0426895706268947048B560C8B460A2689570A2689:
          0. 0D 3B2D 002D 0000:?setb@streambuf@@IECXPED0H@Z
      5E:
        04:
          1E:
            8B4E0AC55606B43FCD211F72:
              098B5E0C890731C05DC350E8:
                0. 00 0000 0023 0000:__dos_read
              0AC45E0C26890731C05DC350E8:
                0. 00 0000 0024 0000:__dos_read
            C556068B4E0AB440CD211F72:
              098B5E0C890731C05DC350E8:
                0. 00 0000 0023 0000:__dos_write
              0AC45E0C26890731C05DC350E8:
                0. 00 0000 0024 0000:__dos_write
          66C747060500000089D85DC3:
            0. 00 0000 0012 0000:?defaults@@YAAAVios@@AAV1@@Z
          80:
            3F3F75098D460450E8....5DC331C05DC3:
              0. 00 0000 0018 0000:_unmangle_ident
            6706CF5DC3:
              0. 00 0000 000C 0000:_clearerr
          83:
            3E....007E1F8BC325010001C08BCB81E10200D1F90BC18BCB:
              0. 10 11E6 0030 0000:_msm_reversebutton
            FB:
              2073:
                288B4E0A83F900741CF687....1075431EC5560683FB:
                  0. 05 59B2 01B7 0000:_read
                2D8B4E0A83F9007421F687....1475431EC5560683FB:
                  0. 05 3F0A 01EB 0000:_write
              2873:
                288B4E0A83F900741CF687....1075401EC5560683FB:
                  0. 05 5C3E 01B7 0000:_read
                2D8B4E0A83F9007421F687....1475421EC5560683FB:
                  0. 05 87BF 01E9 0000:_write
          8A87....:
            25:
              01005DC3:
                0. 00 0000 000F 0000:_isupper (REF 0008: .)
              02005DC3:
                0. 00 0000 000F 0000:_islower (REF 0008: .)
              03005DC3:
                0. 00 0000 000F 0000:_isalpha (REF 0008: .)
              04005DC3:
                0. 00 0000 000F 0000:_isdigit (REF 0008: .)
              07005DC3:
                0. 00 0000 000F 0000:_isalnum (REF 0008: .)
              08005DC3:
                0. 00 0000 000F 0000:_isspace (REF 0008: .)
              10005DC3:
                0. 00 0000 000F 0000:_ispunct (REF 0008: .)
              17005DC3:
                0. 00 0000 000F 0000:_isgraph (REF 0008: .)
              20005DC3:
                0. 00 0000 000F 0000:_iscntrl (REF 0008: .)
              57005DC3:
                0. 00 0000 000F 0000:_isprint (REF 0008: .)
              80005DC3:
                0. 00 0000 000F 0000:_isxdigit (REF 0008: .)
            982580005DC3:
              0. 00 0000 0010 0000:_isxdigit (REF 0008: .)
          8B:
            07253F000906....8B460624C0F7D819C0405DC3:
              0. 00 0000 001B 0000:_fesetexcept
            470625:
              10005DC3:
                0. 00 0000 000E 0000:_feof
              20005DC3:
                0. 00 0000 000E 0000:_ferror
            56068B4E088A460AB442:
              CD2172025DC350E8....B8FFFF995D:
                0. 01 EF04 0021 0000:__dos_seek
              ..........730850E8....B8FFFF99:
                0. 02 5F98 0022 0000:_lseek
            D3803F007418803F2F740A803F5C7405803F3A75038D570143:
              0. 83 B52B 02C0 0000:_ExtractFileName 002A:_ExtractExtension 005A:_MakePathName 00F0:_MakeCompressedName 0178:_MakeExpandedName 023E:_CopyDateTimeStamp 027A:_MyDOSFarAlloc 02B4:_MyDOSFarFree (REF 01D0: .)
          8C078C4F028C57048C5F065DC3558BEC56571E8B5E048B078B4F:
            0. 0D 2974 0140 0000:_segread 0013:_intdos 003A:_intdosx 0072:_int86 00D3:_int86x 0124:_bdosx (010C: A3)
            1. 0D 2974 013C 0000:_segread 0013:_intdos 003A:_intdosx 0072:_int86 00D4:_int86x 0125:_bdosx (010C: 5E)
          B445..........73:
            05A3....1BC05DC3558BEC8B5E048B4E06B4:
              0. 01 4AD7 002A 0000:_dup 0016:_dup2
            0750E8....B8FFFF5DC3558BEC8B5E048B4E:
              0. 03 296A 002F 0000:_dup 0018:_dup2
          B8:
            0044..........8AC2988AC45DC3558BECB43D8A46:
              068B5604:
                0. 00 0000 0300 0000:_isatty 0015:_dos_open 004B:_dos_close 0074:_open 017C:_sopen 01B0:_creat 01C6:_dos_creat 0229:_close 023E:_rename 024D:_remove 026D:__dos_sethandlecount 027E:_filesize 02CA:_access
              081EC556:
                0. 01 5CB6 030A 0000:_isatty 0015:_dos_open 004D:_dos_close 0078:_open 0180:_sopen 01B4:_creat 01CA:_dos_creat 0231:_close 0246:_rename 0251:_remove 0273:__dos_sethandlecount 0284:_filesize 02D2:_access
            0600CD31730433C98BD18BC28BD15DC3558BECB80100EB1455:
              0. 29 8B97 0049 0000:_dpmi_GetBaseAddress 0017:_dpmi_FreeDescriptor 001F:_dpmi_SetSegLimit 0027:_dpmi_SetBaseAddress 003F:_dpmi_IsRealMode
          C7:
            07....:
              53E8....5DC20200:
                0. 00 0000 0012 0000:??1stdiobuf@@UAC@XZ
              5D:
                C20200:
                  558BEC568B760409F6740F56E8E3FFF64606:
                    0. 05 4639 002F 0000:??1ios@@UAC@XZ
                  ..:
                    0. 00 0000 000E 0000:??1ios@@UAC@XZ (REF 0008: ??_Qios@@6B@)
                C3:
                  0. 00 0000 000C 0000:??1Type_info@@UAA@XZ (REF 0008: ??_QType_info@@6B@)
            47060500C74708000089D85DC3:
              0. 00 0000 0014 0000:?defaults@@YAAAVios@@AAV1@@Z
          F687....:
            03750A837E045F740431C0EB03B801005DC3:
              0. 00 0000 001C 0000:_iscsymf (REF 0008: .)
            07750A837E045F740431C0EB03B801005DC3:
              0. 00 0000 001C 0000:_iscsym (REF 0008: .)
          FF77:
            06FF7704FF7702FF37B8F03F9931C931DBE8....50535152:
              0. 1B 4390 005A 0000:?atanh@@YANABN@Z
            16FF7606E8....8BE55DC20400:
              0. 00 0000 0015 0000:?pbackfail@stdiobuf@@UACHH@Z
        06:
          8B:
            460483FB017404F7E372245050E8....5B8BE5:
              0BD27416578E:
                0. 1B 6FA2 003B 0000:__fcalloc
              85D27416578E:
                0. 1B 6FA2 003B 0000:__fcalloc
            47028B5E0489470289D85DC3:
              0. 00 0000 0013 0000:??4Type_info@@AAAAAV0@ABV0@@Z
            D3803F007418803F2F740A803F5C7405803F3A75038D570143:
              0. 13 E6A5 02CC 0000:_ExtractFileName 002A:_ExtractExtension 005C:_MakePathName 00F2:_MakeCompressedName 017A:_MakeExpandedName 0242:_CopyDateTimeStamp 0282:_MyDOSFarAlloc 02BE:_MyDOSFarFree (REF 01D3: .)
          8C078C4F028C57048C5F065DCB45558BEC56571E8B5E068B078B:
            0. 0E 23CE 0147 0000:_segread 0013:_intdos 003B:_intdosx 0074:_int86 00D7:_int86x 0129:_bdosx (0116: 5D)
            1. 0E 23CE 0145 0000:_segread 0013:_intdos 003B:_intdosx 0074:_int86 00DA:_int86x 012C:_bdosx (0116: CB)
      D6:
        1EC576:
          04C45E08AC268A0F433AC17506:
            0AC075F3EB1B3C4172173C:
              0. 21 112F 0041 0000:_stricmp
            84C075F3EB1B3C4172173C:
              0. 21 112F 0041 0000:_stricmp
          06C45E0AAC268A0F433AC17506:
            0AC075F3EB1B3C4172173C:
              0. 21 59A3 0041 0000:_stricmp
            84C075F3EB1B3C4172173C:
              0. 21 59A3 0041 0000:_stricmp
        8B76:
          048B5E0690AC8A0F433AC17506:
            0AC075F4EB1B3C4172173C5A:
              0. 1F 4F3C 003F 0000:_stricmp
            84C075F4EB1B3C4172173C5A:
              0. 1F 4F3C 003F 0000:_stricmp
          068B5E0890AC8A0F433AC17506:
            0AC075F4EB1B3C4172173C5A:
              0. 1F 07B0 003F 0000:_stricmp
            84C075F4EB1B3C4172173C5A:
              0. 1F 07B0 003F 0000:_stricmp
    8C:
      CAB8....C45E0426895702268907:
        26807F25007418268B4706260B47:
          0. 0C 4D15 0065 0000:??1streambuf@@UEC@XZ
        5DC20400558BEC8B46060B460474:
          0. 17 1B59 0046 0000:??1ios@@UEC@XZ
        FF760653E8....C45E0426807F3B:
          0. 08 1D41 0067 0000:??1filebuf@@UEC@XZ
      DAB8....5DC3:
        0. 00 0000 000A 0000:_localeconv
    8D46:
      0650FF7604:
        68....68....68....E8....8BE55DC3:
          0. 00 0000 001A 0000:_scanf
        6A0068....E8....8BE55DC3:
          0. 00 0000 0016 0000:_disp_printf
        E8....:
          83C4048B56088B46065DC3:
            0. 00 0000 0018 0000:_biostime
          8BE55DC3:
            0. 00 0000 0011 0000:_printf
      0850FF7606:
        8D46045068....68....E8....8BE55DC3:
          0. 00 0000 001B 0000:_sscanf
        FF7604:
          68....68....E8....8BE55DC3:
            0. 00 0000 001A 0000:_fscanf
          B8....50B8....50E8....83C40A5DC3558BEC:
            0. 08 6FCD 06D7 0000:_fscanf 001D:_scanf 0075:_sscanf (06AE: 00) (REF 04C8: .)
            1. 08 6FCD 06E2 0000:_fscanf 001D:_scanf 0075:_sscanf (06AE: 8B) (REF 04D0: .)
          E8....:
            83C4065DC3558BECFF76:
              04FF7606FF76:
                0. 05 3577 023A 0000:_spawnl 0015:_spawnv 0029:_FORKV 01DB:_execl 01ED:_execv (0143: 5F)
                1. 05 3577 0169 0000:_spawnlp 0015:_spawnvp 0144:_execlp 0156:_execvp (0143: C3)
              08FF7606FF76:
                0. 02 E451 070E 0000:_fprintf 0015:_vfprintf 002D:_printf 003F:_vprintf 0085:_sprintf 009A:_vsprintf 00F3:__snprintf 010B:__vsnprintf 0164:__pformat 06E4:__DOSIGN (06EB: 00) (REF 0289: .)
                1. 02 E451 078E 0000:_fprintf 0015:_vfprintf 002D:_printf 003F:_vprintf 0085:_sprintf 009A:_vsprintf 00F3:__snprintf 010B:__vsnprintf 0164:__pformat 0764:__DOSIGN (06EB: 09) (REF 028C: .)
            8BE55DC3:
              0. 00 0000 0014 0000:_sprintf (REF 000E: _vsprintf)
              1. 00 0000 0014 0000:_fprintf (REF 000E: _vfprintf)
      0A50FF7608FF7606FF7604E8....8BE55DC3:
        0. 00 0000 0017 0000:__snprintf
    9BDD46049BD9FA83EC08909BDD7EF89B8B46F8253F000906....9BDD5E:
      0. 6E 1C8F 03AF 0000:__sqrt87 0028:__poly87 005B:__chop87 005F:__floor87 0063:__ceil87 0090:__fmod87 00C0:__atan287 0157:__asincos87 01A0:_trigerr 01CB:__sincostan87 0304:__log87 0309:__log1087 031C:__exp87 032D:__pow87 (02BB: 8A)
      1. 6E 1C8F 034C 0000:__sqrt87 0028:__poly87 005B:__chop87 005F:__floor87 0063:__ceil87 0090:__fmod87 00B2:__atan287 011E:__asincos87 0167:_trigerr 0192:__sincostan87 02AF:__log87 02B4:__log1087 02C7:__exp87 02D8:__pow87 (02BB: E9)
      2. 73 20DC 03B4 0000:__sqrt87 0028:__poly87 0060:__chop87 0064:__floor87 0068:__ceil87 0095:__fmod87 00C5:__atan287 015C:__asincos87 01A5:_trigerr 01D0:__sincostan87 0309:__log87 030E:__log1087 0321:__exp87 0332:__pow87 (02BB: 8A)
      3. 73 20DC 0351 0000:__sqrt87 0028:__poly87 0060:__chop87 0064:__floor87 0068:__ceil87 0095:__fmod87 00B7:__atan287 0123:__asincos87 016C:_trigerr 0197:__sincostan87 02B4:__log87 02B9:__log1087 02CC:__exp87 02DD:__pow87 (02BB: E9)
    A1....:
      0B06....:
        74:
          148B16....A1....8CD9BB....3BD175093BC37505:
            0. 07 157E 0092 0000:_exit_popstate
          15C41E....268B4722263B4724B80100740631C0EB:
            0. 05 3414 0025 0000:_kbhit
        75:
          03E8....:
            168D46085066FF7604E8....8BE55DC3:
              0. 00 0000 001F 0000:_printf
            1EB8....50:
              1EFF7604..........1EB8:
                0. 00 0000 0043 0000:_puts
              66FF7604..........1EB8:
                0. 00 0000 0045 0000:_puts
            6A01:
              168D460450E8....83C4068B46045D:
                0. 01 EF04 0021 0000:_fputchar
              8D460450E8....83C4048B46045DC3:
                0. 00 0000 0020 0000:_fputchar
            8D460650FF7604E8....8BE55DC3:
              0. 00 0000 001D 0000:_printf
          08E8....66FF06....5DC3:
            0. 00 0000 0016 0000:___internal_tzset
          0AC706........8C1E....B8....3B06....77:
            0431:
              0. 0A E862 003D 0000:__onexit
            05:
              31:
                0. 0C 027F 003C 0000:__fonexit
              B8:
                0. 0B 58A8 003D 0000:_atexit
                1. 0C 9209 003E 0000:__fatexit
      5DC3:
        0. 00 0000 0008 0000:_tab_sizeget (REF 0004: __tab_size)
        1. 00 0000 0008 0000:_getpid (REF 0004: __psp)
      8B5E068907A1....8B5E0489075DC20400:
        0. 00 0000 0017 (l)0000:_SAVEERRNOSTATUS
      C1E0100B06....998B4E06890E....8B4E04890E....5DC3:
        0. 00 0000 001E 0000:_winio_defwindowsize
      C45E08268907A1....C45E042689075DC20800:
        0. 00 0000 0019 (l)0000:_SAVEERRNOSTATUS
      FF06....85C0752CFF36....6AF46A00..........A3....6A00:
        0. 06 3E60 003C 0000:_winio_setbusy
    B00A50FF7606FF7604E8....FF7606FF7604E8....8B56068B46045DC3:
      0. 00 0000 0020 0000:?endl@@YAAEVostream@@AEV1@@Z
    B4:
      19..........32E440:
        8B5E0489075DC3558BEC8B56044AB40E:
          0. 00 0000 0099 0000:_dos_getdrive 0014:_dos_setdrive 0029:_dos_getftime 0047:_dos_setftime 0063:_dos_getfileattr 0082:_dos_setfileattr (0076: C0)
          1. 00 0000 0097 0000:_dos_getdrive 0014:_dos_setdrive 0029:_dos_getftime 0047:_dos_setftime 0062:_dos_getfileattr 0080:_dos_setfileattr (0076: E7)
        C45E042689075DC3558BEC8B56044AB40E:
          0. 00 0000 00A1 0000:_dos_getdrive 0015:_dos_setdrive 002A:_dos_getftime 004A:_dos_setftime 0066:_dos_getfileattr 0088:_dos_setfileattr (007E: C0)
          1. 00 0000 009F 0000:_dos_getdrive 0015:_dos_setdrive 002A:_dos_getftime 004A:_dos_setftime 0065:_dos_getfileattr 0086:_dos_setfileattr (007E: E5)
      2ACD21:
        8B5E04890F8957025DC3:
          558BECB42CCD218B5E04890F895702:
            0. 02 5F98 0022 0000:_getdate 0011:_gettime
          ..:
            0. 00 0000 0011 0000:_getdate
        C45E0426890F268957025DC3:
          558BECB42CCD21C45E0426890F:
            0. 06 B311 0026 0000:_getdate 0013:_gettime
          ..:
            0. 00 0000 0013 0000:_getdate
      2C:
        CD21:
          8B5E04890F8957025DC3:
            0. 00 0000 0011 0000:_gettime
          C45E0426890F268957025DC3:
            0. 00 0000 0013 0000:_gettime
        ..........:
          5D5252BB3C008AC3F6E532ED03C1F7E35B8ADF32FF03:
            0. 1B DD58 0057 0000:_clock
            1. 27 F9A4 0063 0000:_clock
          8AC5BB3C00F6E332ED03C18ACEF7E303C112D55250B4:
            0. 01 207E 007A 0000:_time (0057: 5D)
            1. 01 207E 007C 0000:_time (0057: 8B)
      2E8A4604CD215DC3:
        0. 00 0000 000C 0000:_setverify
      62CD218BC35DC3:
        0. 00 0000 000B 0000:_getpsp
    B8:
      00:
        33CD218AC230E45DC3:
          0. 00 0000 000E 0000:_getcbrk
        54CD21985DC3:
          0. 00 0000 000B 0000:_getverify
      01:
        0050FF7604E8....83C4045DC3558BECB8020050FF7604E8....83:
          0. 10 1F0F 00C4 0000:?set_new_handler@@YAP6AXXZP6AXXZ@Z 0012:?_set_new_handler@@YAP6AHI@ZP6AHI@Z@Z
          1. 11 E239 0089 0000:?set_new_handler@@YAP6AXXZP6AXXZ@Z 0012:?_set_new_handler@@YAP6AHI@ZP6AHI@Z@Z
        338A5604CD218AC230E45DC3:
          0. 00 0000 0011 0000:_setcbrk
      080009460A0946128B560A8B460881E207008B4E128B5E1081E10700:
        0. 3E FFB1 005E 0000:__largestNaN
      F07F9931C9BB00205DC3:
        0. 00 0000 000E 0000:_nans
      F87F9931C931DB5DC3:
        0. 00 0000 000D 0000:_nan
      FEFF5DC3:
        0. 00 0000 0008 0000:__heapchk
      FFFF:
        50..........8B46:
          040BC0:
            740AB920005150..........50B8FF:
              0. 02 02A2 0048 0000:__nmalloc 0032:__nfree (0024: 5D)
              1. 02 02A2 0047 0000:__nmalloc 0031:__nfree (0024: C3)
            7503B80100B920005150:
              0. 05 E755 004B 0000:__nmalloc 0035:__nfree (0024: 5D)
              1. 05 E755 004A 0000:__nmalloc 0034:__nfree (0024: C3)
          060BC0:
            740AB920005150..........50B8FF:
              0. 02 02A2 004A 0000:__nmalloc 0034:__nfree (0026: 5D)
              1. 02 02A2 0049 0000:__nmalloc 0033:__nfree (0026: CB)
            7503B80100B920005150:
              0. 05 E755 004D 0000:__nmalloc 0037:__nfree (0026: 5D)
              1. 05 E755 004C 0000:__nmalloc 0036:__nfree (0026: CB)
        5D:
          C2:
            0200:
              0. 00 0000 000A 0000:?underflow@streambuf@@UACHXZ
            0400:
              0. 00 0000 000A (!)0000:?
            0600:
              0. 00 0000 000A (!)0000:?
          C3:
            0. 00 0000 0008 (!)0000:?
        995DC2:
          0A00:
            0. 00 0000 000B 0000:?seekoff@streambuf@@UACJJW4seek_dir@ios@@H@Z
          0C00:
            0. 00 0000 000B 0000:?seekoff@streambuf@@UECJJW4seek_dir@ios@@H@Z
        C45E0426837F2C00743A268B4716260B4714740C268B4714262B:
          0. 2E 303A 004E 0000:?detach@filebuf@@QECHXZ
      ....:
        5DC3:
          0. 00 0000 0008 0000:_localeconv
        A3....B8....A3....5DC3:
          0. 00 0000 0011 0000:__STI_fltused
        C45E042689078B:
          4608268947028CC289D85DC3:
            0. 00 0000 0019 0000:?setfill@@YA?EVsmanip_int@@H@Z (REF 0004: ?sfill@@YAAEVios@@AEV1@H@Z)
            1. 00 0000 0019 0000:?setprecision@@YA?EVsmanip_int@@H@Z (REF 0004: ?sprec@@YAAEVios@@AEV1@H@Z)
            2. 00 0000 0019 0000:?setw@@YA?EVsmanip_int@@H@Z (REF 0004: ?swidth@@YAAEVios@@AEV1@H@Z)
            3. 00 0000 0019 0000:?setbase@@YA?EVsmanip_int@@H@Z (REF 0004: ?sbase@@YAAEVios@@AEV1@H@Z)
          560A8B460826895704268947028CC289D85DC3:
            0. 00 0000 0020 0000:?setiosflags@@YA?EVsmanip_long@@J@Z (REF 0004: ?sios@@YAAEVios@@AEV1@J@Z)
            1. 00 0000 0020 0000:?resetiosflags@@YA?EVsmanip_long@@J@Z (REF 0004: ?rsios@@YAAEVios@@AEV1@J@Z)
    BA:
      0800B80600B90400BB0200368B260E0081EC0008525051536A00:
        0. 00 0000 0032 0000:MESSAGEFATALERROR
      ....B8....C45E0426895702268907:
        26:
          807F25007418268B4706260B:
            0. 0D 6AC1 0036 0000:??1streambuf@@UEC@XZ
          837F:
            0400740E26FF770A26FF:
              0. 03 976F 002C 0000:??1streambuf@@UEC@XZ
            2A007409FF760653E8:
              0. 00 0000 0037 0000:??1filebuf@@UEC@XZ
          8A472C24033C017528268B47:
            0. 20 B4FB 0050 0000:??1strstreambuf@@UEC@XZ
          8B5726268B472489D109C174:
            0. 04 EC97 002D 0000:??1ios@@UEC@XZ
          F64728037519268B4706260B:
            0. 18 14EA 003E 0000:??1strstreambuf@@UEC@XZ
        31C02689470426894706992689:
          0. 46 5078 0066 0000:??0streambuf@@QEC@XZ
        5D:
          C20400:
            0. 00 0000 0017 0000:??1ios@@UEC@XZ
          C3:
            0. 00 0000 0015 0000:??1Type_info@@UEA@XZ
        6626C7472400000000:
          66FF7608:
            0. 05 F26F 0031 0000:??0ios@@QEC@PEVstreambuf@@@Z
          8CC289D8:
            0. 04 057A 0024 0000:??0ios@@IEC@XZ
        6AFFFF760653E8....FF7606FF:
          0. 03 EB9C 0029 0000:??1stdiobuf@@UEC@XZ
        8CC289D883C02A5250E8....FF:
          0. 06 198E 002C 0000:??1stdiostream@@UEC@XZ
        FF760653E8....:
          5DC20400:
            0. 00 0000 001E 0000:??1stdiobuf@@UEC@XZ
          C45E0426807F:
            0. 09 E9D2 0036 0000:??1filebuf@@UEC@XZ
    BB6D4EB9C641A1....8B16....66C1E1108BCB66C1E010660FACD01066:
      0. 08 EF79 003F 0000:_rand (0016: C3)
      1. 08 EF79 0042 0000:_random (0016: D0)
    C45E:
      04:
        26:
          80:
            3F:
              0074:
                0CFF4604C45E0426803F0075F48B56068B4604405D:
                  0. 01 EF04 0021 0000:_nextline
                1AC45E04FF4604268A079850E8....83C402C45E04:
                  0. 08 0428 0028 0000:_disp_puts
                2966FF7608C45E04268A079850E8....83C406B9FF:
                  0. 19 B390 0039 0000:_fputs
              3F750A168D460450E8....5DC331C0995DC3:
                0. 00 0000 001B 0000:_unmangle_ident
            67:
              0ACF5DC3:
                0. 00 0000 000D 0000:_clearerr
              0C8F26804F0C:
                108CC289D85DC3:
                  0. 00 0000 0016 0000:?dec@@YAAEVios@@AEV1@@Z
                208CC289D85DC3:
                  0. 00 0000 0016 0000:?oct@@YAAEVios@@AEV1@@Z
                408CC289D85DC3:
                  0. 00 0000 0016 0000:?hex@@YAAEVios@@AEV1@@Z
            7F2400:
              74:
                1F26F6472A807418268B5706268B4704525083C0:
                  0. 0A E56A 0066 0000:?buffer_setup@filebuf@@AECXXZ
                2026F6472A807419268B5706268B4704525083C0:
                  0. 0B AEAB 0067 0000:?buffer_setup@filebuf@@AECXXZ
              75:
                31268B4706260B4704752766FF760AFF7608FF76:
                  0. 03 CC82 0045 0000:?setbuf@filebuf@@UECPEVstreambuf@@PEDH@Z
                33268B4706260B47047529FF760CFF760AFF7608:
                  0. 05 F26F 0047 0000:?setbuf@filebuf@@UECPEVstreambuf@@PEDH@Z
          8A:
            0784C074393C2B74123C2D740E3C3A740A9889C3F687:
              0. 21 9C39 009B (l)0000:NEXT_NUMBER (REF 008C: .)
            1F30FFF687....047415C45E04268A0730E4C1E008268A4F:
              0. 11 26A1 0031 0000:__mbsnextc
          8B:
            07253F000906....8B460824C0F7D819C0405DC3:
              0. 00 0000 001C 0000:_fesetexcept
            47:
              02260B07741083460404C45E04268B4702260B0775F0C4:
                0. 0C E947 002C 0000:___seek_envp
              06260B4704750726807F2400740631C05DC20400FF7606:
                0. 11 99B4 0031 0000:?allocate@streambuf@@IECHXZ
              0A25:
                10005DC3:
                  0. 00 0000 000F 0000:_feof
                20005DC3:
                  0. 00 0000 000F 0000:_ferror
              10263B4714730426FF47105DC20400:
                0. 00 0000 0018 0000:?stossc@streambuf@@QECXXZ
              24263B4720760D26C45F20268A0730E45DC20400C45E04:
                0. 17 B950 0037 0000:?underflow@streambuf@@UECHXZ
              FE83C0FE5DC3:
                0. 00 0000 000F 0000:__fmsize
            4F0E81E10001837E0800740C26804F0F0126804F1201EB0D:
              0. 17 C064 0037 0000:?skip@ios@@QECHH@Z
            57:
              0E268B470C:
                0B46080B560A2689570E2689470C8CC289D8:
                  0. 02 5F98 0022 0000:?_iomanip_setiosflags@@YAAEVios@@AEV1@J@Z
                248F0C:
                  102689570E2689470C8CC289D85DC3:
                    0. 00 0000 0020 0000:?dec@@YAAEVios@@AEV1@@Z
                  202689570E2689470C8CC289D85DC3:
                    0. 00 0000 0020 0000:?oct@@YAAEVios@@AEV1@@Z
                  402689570E2689470C8CC289D85DC3:
                    0. 00 0000 0020 0000:?hex@@YAAEVios@@AEV1@@Z
              1E268B471C26:
                3B571A750C263B4718750631C05DC20400:
                  0. 16 8CA2 0036 0000:?sync@streambuf@@UECHXZ
                8B4F1A268B5F183BD1750A3BC3750631C0:
                  0. 1C 916F 003C 0000:?sync@streambuf@@UECHXZ
          C7470C050026C7470E00008CC289D85DC3:
            0. 00 0000 0018 0000:?defaults@@YAAEVios@@AEV1@@Z
          F647:
            0A08741E268B5708268B470689D109C174105250E8:
              0. 2C 2515 004C 0000:_FREEBUF
            2C017415837E0800740726804F2C02EB08C45E04268067:
              0. 06 A215 0026 0000:?freeze@strstreambuf@@QECXH@Z
          FF77:
            0626FF770426FF770226FF37:
              268B4706268B4F02268B17:
                0. 05 07BC 0064 0000:?asinh@@YANAFN@Z (003E: C3) (REF 0034: __DADD@)
                1. 05 07BC 0064 0000:?acosh@@YANAFN@Z (003E: C3) (REF 0034: __DSUB@)
                2. 05 07BC 071F 0000:?asinh@@YANAFN@Z 0065:?acosh@@YANAFN@Z 00CA:?atanh@@YANAFN@Z 012D:?asin@@YA?EVcomplex@@AFV1@@Z 036C:?acos@@YA?EVcomplex@@AFV1@@Z 057E:?atan@@YA?EVcomplex@@AFV1@@Z (003E: 5D)
              B8F03F9931C931DBE8:
                0. 23 221E 0062 0000:?atanh@@YANAFN@Z
            2A26FF7728FF7608E8....8BE55DC20600:
              0. 00 0000 001A 0000:?pbackfail@stdiobuf@@UECHH@Z
        6626C7470C050000008CC289D85DC3:
          0. 00 0000 0015 0000:?defaults@@YAAEVios@@AEV1@@Z
        FF4604268A1F30FFF687....047412C45E0426803F0074098B56:
          0. 0F D304 002F 0000:__mbsinc
      08268B5706268B4704C45E0426895706268947048CC289D85DC3:
        0. 00 0000 001F 0000:??4Type_info@@AEAAEV0@AFV0@@Z
      0C26F6470A83740AFF760E53E8....83C404:
        66FF760466FF760866:
          0. 04 EBAD 0028 0000:_freopen
        FF7606FF7604FF760A:
          0. 0A 7047 002E 0000:_freopen
      126626C707FFFFFFFF26C7470401008CC289D85DC21200:
        0. 00 0000 001C 0000:?seekoff@streambuf@@UEC?EVstreampos@@Vstreamoff@@W4relative_to@ios@@H@Z
    C606....00:
      1EB8....501E68....66FF7604E8....83C40C803E....00:
        0. 0A 90DD 002E 0000:_searchpath
      8B46060B46047425C45E0426803F00741C1E68....FF7606:
        0. 05 5CA8 0058 0000:__strerror
      B8....5068....FF7604E8....83C406803E....00750431:
        0. 04 ABF4 0028 0000:_searchpath
    C706....:
      00005DC3:
        0. 00 0000 000B 0000:_msm_term
      0100:
        31C0A3....50E8....8BE55DC3:
          0. 00 0000 0016 0000:__cexit
        833E....00753F:
          833E....0074388B1E....8B47020B07:
            0. 04 A8B9 0091 0000:_exit
          A1....0B06....7436C41E....268B47:
            0. 08 124D 0091 0000:_exit
    E461508B5E0424FCE6618B4E06E2FE0C02E6618B4E08E2FE4B75EB58E6:
      0. 09 65CB 0049 0000:_sound_tone 0023:_sound_beep 0030:_sound_click
    E8....:
      09C07405B801005DC38B460409C0740C83F801740F83F8027418:
        0. 04 5BFF 04CD 0000:_tsr_install 0123:_tsr_uninstall 035F:_tsr_test_vect 03A4:_tsr_already_in 0429:_tsr_trap28 042D:_tsr_newint28 0482:_tsr_dosfree (048E: 8B)
        1. 04 5BFF 04B3 0000:_tsr_install 0123:_tsr_uninstall 0345:_tsr_test_vect 038A:_tsr_already_in 040F:_tsr_trap28 0413:_tsr_newint28 0468:_tsr_dosfree (048E: C3)
      33D2F776045DC3:
        0. 00 0000 000D 0000:__freect (REF 0004: __memavl)
      5DC3:
        0. 00 0000 0008 (l)0000:?terminate_default@@YAXXZ (REF 0004: _abort)
        1. 00 0000 0008 (l)0000:?unexpected_default@@YAXXZ (REF 0004: ?terminate@@YAXXZ)
        2. 00 0000 0008 0000:__heapset (REF 0004: __heapchk)
        3. 00 0000 0008 0000:_farcoreleft (REF 0004: _dos_avail)
      ..:
        0. 00 0000 0006 0000:?__eh_error@@YAXXZ (REF 0004: _abort)
    EB:
      03FF4604C45E04268A0708C074143C2B74EF3C2D74EB268A1F30FFF6:
        0. 01 CF00 0759 05FA:_tzset 0626:_localtime (0736: 5D) (REF 04AC: .)
        1. 01 CF00 07C2 063A:_tzset 0675:_localtime (0736: 06) (REF 04E0: .)
      0FC45E04FF4604268A079850E8....59C45E0426803F0075E85DC355:
        0. 14 5340 0139 0000:_disp_puts 001F:_disp_fillbox 0049:_disp_box
      16FF7606FF7604..........FF7606FF7604..........FF7606FF76:
        0. 06 FE01 0033 0000:MESSAGELOOP
      201EB8....50C45E04268A079850E8....83C40683F8FF7505B80100:
        0. 10 FBAA 0048 0000:_puts
      22FF760AFF7608C45E04268A079850E8....83C406B9FFFF3BC17504:
        0. 16 FBB5 0036 0000:_fputs
    F646043F7408:
      6A08E8....83C4028B460424C0F7D819C0405DC3:
        0. 00 0000 001D 0000:_feraiseexcept
      B8080050E8....598B460424C0F7D819C0405DC3558BEC:
        0. 08 1D31 0041 0000:_feraiseexcept 001D:_feprocexit
        1. 09 FB7A 0049 0000:_feraiseexcept 001D:_feprocexit
    FF:
      06....:
        833E....007406FF16....EB03E8....E8....5DC3:
          0. 00 0000 001C 0000:?terminate@@YAXXZ
        A1....:
          5DC3:
            0. 00 0000 000C 0000:?xalloc@ios@@SAHXZ
          85C07E0CC706....0200C706....01005DC3:
            0. 00 0000 001C 0000:_msm_reversebuttonon
      0E....:
        75:
          1D..........FF36..............FF36....6AF4FF36:
            0. 00 0000 0028 0000:_winio_resetbusy
          3F833E....00740E6A01FF36....8B1E....8B1FFF17833E:
            0. 00 0000 004C 0000:??1Iostream_init@@QAC@XZ
          57A1....0B06....74146A01FF36....FF36....C41E:
            0. 07 7D10 0064 0000:??1Iostream_init@@QEC@XZ
        A1....85C07F0CC706....0200C706....01005DC3:
          0. 00 0000 001C 0000:_msm_reversebuttonoff
      36....:
        E8....59:
          50FF7604B8....50B8....50E8....83C4085DC355:
            0. 09 E659 0084 0000:_perror 001F:_strerror
          5250FF7606FF76041EB8....501EB8....50E8:
            0. 0F 1729 00A4 0000:_perror 0025:_strerror
        ..........5DC3:
          0. 00 0000 000E 0000:_winio_doexit (REF 0008: DESTROYWINDOW)
      4E04FF4E04C45E0426803F0075F48CC289D8405DC3:
        0. 00 0000 0019 0000:_prevline
      76:
        04:
          1EFF7606..........5DC3:
            0. 00 0000 0011 0000:_winio_settitle
          66FF7606..........5DC3:
            0. 00 0000 0011 0000:_winio_settitle
          6800016A24666A00..........FF76046800016A24666A00:
            0. 00 0000 0025 0000:_winio_home
          6A00:
            E8....8BE55DC3:
              0. 00 0000 000F 0000:_getfatd (REF 0009: _getfat)
            ..........89D031D250..........50..........FF7604:
              0. 05 DD69 002C 0000:_wmhandler_destroy
          8B46:
            0685C07503B8....5068....68....E8....E8....8BE55D:
              0. 01 EF04 0021 0000:?genericerror@@YAXHPAD@Z
            080B460674088B56088B4606EB058CDAB8....52501E68:
              0. 00 0000 002F 0000:?genericerror@@YAXHPED@Z
          E8....:
            585DC3:
              0. 00 0000 000C 0000:??3@YAXPAX@Z (REF 0007: _free)
            59:
              09C0750431C0EB03B8FFFF5DC3558BEC5657A0....30:
                0. 07 0821 0051 0000:__commit 0017:__dos_commit
              50E8....595DC3:
                0. 00 0000 0011 0000:_ctime
              5DC3558BEC:
                168D460850FF7606FF760431C05050B8:
                  0. 00 0000 002A 000C:_disp_printf
                8D460650FF760431C050B8....50E8:
                  0. 05 0140 0025 000C:_disp_printf
            5DC20200:
              0. 00 0000 000D (l)0000:UM_ECSU_NAME (REF 0007: UM_SCOPE)
            68....E8....8BE55DC3:
              0. 00 0000 0013 0000:_feprocentry
            83C402:
              50E8....8BE55DC3:
                0. 00 0000 0014 0000:_ctime
              83F80119C0F7D05DC3:
                0. 00 0000 0015 0000:__commit (REF 0007: __dos_commit)
                1. 00 0000 0015 0000:_freemem (REF 0007: __dos_freemem)
              85C07511FF7604E8....83C40285C0750431C0EB:
                0. 06 F574 0026 0000:__ismbcalpha
              8B46045DC3:
                0. 00 0000 0011 0000:?WS@@YAAAVistream@@AAV1@@Z
            8B:
              46:
                04:
                  5DC3:
                    0. 00 0000 000E 0000:?flush@@YAAAVostream@@AAV1@@Z (REF 0007: ?flush@ostream@@QACAAV1@XZ)
                  83C0:
                    0450E8....5DC20200:
                      0. 00 0000 0017 0000:??_Dostream@@UACXXZ (REF 0007: ??1ostream@@UAC@XZ)
                      1. 00 0000 0017 0000:??_Dostream_withassign@@UACXXZ (REF 0007: ??1ostream_withassign@@UAC@XZ)
                    0650E8....5DC20200:
                      0. 00 0000 0017 0000:??_Distream_withassign@@UACXXZ (REF 0007: ??1istream_withassign@@UAC@XZ)
                      1. 00 0000 0017 0000:??_Dostream@@UACXXZ (REF 0007: ??1ostream@@UAC@XZ)
                      2. 00 0000 0017 0000:??_Distream@@UACXXZ (REF 0007: ??1istream@@UAC@XZ)
                    0850E8....5DC20200:
                      0. 00 0000 0017 0000:??_Dostream_withassign@@UACXXZ (REF 0007: ??1ostream_withassign@@UAC@XZ)
                      1. 00 0000 0017 0000:??_Distream_withassign@@UACXXZ (REF 0007: ??1istream_withassign@@UAC@XZ)
                    0A50E8....5DC20200:
                      0. 00 0000 0017 0000:??_Diostream_withassign@@UACXXZ (REF 0007: ??1iostream_withassign@@UAC@XZ)
                      1. 00 0000 0017 0000:??_Diostream@@UACXXZ (REF 0007: ??1iostream@@UAC@XZ)
                    0C50E8....5DC20200:
                      0. 00 0000 0017 0000:??_Diostream@@UACXXZ
                    0E50E8....5DC20200:
                      0. 00 0000 0017 0000:??_Diostream_withassign@@UACXXZ
                    2450E8....5DC20200:
                      0. 00 0000 0017 0000:??_Dstrstreambase@@UACXXZ (REF 0007: ??1strstreambase@@MAC@XZ)
                      1. 00 0000 0017 0000:??_Dostrstream@@UACXXZ (REF 0007: ??1ostrstream@@UAC@XZ)
                      2. 00 0000 0017 0000:??_Distrstream@@UACXXZ (REF 0007: ??1istrstream@@UAC@XZ)
                    2850E8....5DC20200:
                      0. 00 0000 0017 0000:??_Dostrstream@@UACXXZ (REF 0007: ??1ostrstream@@UAC@XZ)
                      1. 00 0000 0017 0000:??_Dfstreambase@@UACXXZ (REF 0007: ??1fstreambase@@UAC@XZ)
                    2A50E8....5DC20200:
                      0. 00 0000 0017 0000:??_Dstrstream@@UACXXZ (REF 0007: ??1strstream@@UAC@XZ)
                      1. 00 0000 0017 0000:??_Distrstream@@UACXXZ (REF 0007: ??1istrstream@@UAC@XZ)
                    2C50E8....5DC20200:
                      0. 00 0000 0017 0000:??_Dofstream@@UACXXZ
                    2E50E8....5DC20200:
                      0. 00 0000 0017 0000:??_Dstrstream@@UACXXZ (REF 0007: ??1strstream@@UAC@XZ)
                      1. 00 0000 0017 0000:??_Difstream@@UACXXZ (REF 0007: ??1ifstream@@UAC@XZ)
                    3050E8....5DC20200:
                      0. 00 0000 0017 0000:??_Dofstream@@UACXXZ (REF 0007: ??1ofstream@@UAC@XZ)
                      1. 00 0000 0017 0000:??_Difstream@@UACXXZ (REF 0007: ??1ifstream@@UAC@XZ)
                    3250E8....5DC20200:
                      0. 00 0000 0017 0000:??_Dfstream@@UACXXZ
                    3650E8....5DC20200:
                      0. 00 0000 0017 0000:??_Dfstream@@UACXXZ
                088B5E048947168B4E06894F1831C9894F1C894F1E:
                  0. 02 F6B7 0050 0000:??0filebuf@@QAC@HH@Z
              5E:
                04C7:
                  07....:
                    31C089471689471889471C8B47088947:
                      0. 0C 87DF 002C 0000:??0strstreambuf@@QAC@XZ
                    8B46:
                      088947168B4606894718C7471C00:
                        0. 12 731C 0032 0000:??0strstreambuf@@QAC@P6APAXJ@ZP6AXPAX@Z@Z
                      0A894716C7471A0100C747180000:
                        0. 10 6872 0039 0000:??0filebuf@@QAC@HPADH@Z
                    FF760AFF7608FF760653E8....8B4604:
                      0. 04 A5D3 0024 0000:??0strstreambuf@@QAC@PADH0@Z
                  4716:
                    00008B4606894718:
                      8B460A89471A8B4608:
                        0. 05 FB86 002D 0000:??0strstreambuf@@QAC@P6APAXI@ZP6AXPAX@ZH@Z
                      B8....89471AB8:
                        0. 05 FB86 002D 0000:??0strstreambuf@@QAC@H@Z
                    0100C707....FF760AFF7608FF760653E8:
                      0. 00 0000 0029 (?)0000:??0strstreambuf@@QAC@PADH0@Z (0008: 00)
                    FFFFC74718000031C089471C89471E8847:
                      0. 06 3B3A 002E 0000:??0filebuf@@QAC@XZ
                06895702890783C40283FAFF750383F8FFB8FFFF74:
                  0. 05 3414 0025 0000:_fgetpos
              E55DC3:
                0. 00 0000 000D (!)0000:? (REF 0007: ?__do_newalloc@@YAPEXI@Z)
                1. 00 0000 000D 0000:_getc (REF 0007: _fgetc)
                2. 00 0000 000D 0000:__tcsrev (REF 0007: __mbsrev)
                3. 00 0000 000D 0000:__tcsinc (REF 0007: __mbsinc)
                4. 00 0000 000D 0000:__tclen (REF 0007: __mbclen)
                5. 00 0000 000D 0000:__tcsclen (REF 0007: __mbslen)
                6. 00 0000 000D 0000:??_Q@YAXPAX@Z (REF 0007: ??3@YAXPAX@Z)
                7. 00 0000 000D (l)0000:_disp2_putc (REF 0007: _disp_putc)
            FF76068B460483C02250E8....8B5E04C707....83C322:
              0. 05 2C38 002E 0000:??0stdiostream@@QAC@PAU_iobuf@@@Z
          FF7606FF760866FF760A..........5DC3:
            0. 00 0000 0017 0000:_defwmhandler
          ..........:
            5DC3:
              0. 00 0000 000D 0000:_winio_close (REF 0007: DESTROYWINDOW)
              1. 00 0000 000D 0000:__nmsize (REF 0007: LOCALSIZE)
            85C0:
              74:
                13FF76046A04..........8EC289C3268B07:
                  0. 06 FA83 0026 0000:_winio_bufsize
                178B460650FF76046A04..........8EC289:
                  0. 08 EDAD 0028 0000:_winio_onclose
              75:
                025DC3:
                  66FF7606FF76046A04..........52:
                    0. 02 F6B7 0028 0000:_winio_getinfo
                  FF7606FF76046A04..........5250:
                    0. 01 3E9B 0027 0000:_winio_getinfo
                0431C05DC3FF76046A04..........8EC289:
                  0. 07 0733 0027 0000:_winio_hmenuhelp
                  1. 0E 4737 002E 0000:_winio_setecho
                  2. 07 6650 0027 0000:_winio_hmenumain
                  3. 0E 961C 002E 0000:_winio_onpaintexit
                  4. 0E B1DA 002E 0000:_winio_onpaintentry
                  5. 0E BAE4 002E 0000:_winio_setlinefn
                  6. 07 BF86 0027 0000:_winio_hmenufile
        06:
          8A460430E450E8....83C404B9FFFF3BC1741EFF76068B4604C1:
            0. 06 D7D2 003B 0000:_putw
          E8....:
            59D1E0D1E0D1E0D1E05DC3:
              0. 00 0000 0014 0000:__fmsize
            83C402:
              01C083C00250FF7606FF7604E8....83C4068B46:
                0. 03 B532 0023 0000:_wcscpy
              50FF7604E8....:
                5DC20400:
                  0. 00 0000 0017 (l)0000:STR_CAT1
                83C40250E8....D1C02501008B:
                  0. 03 C861 0023 0000:?before@Type_info@@QAAHABV1@@Z
          FF7604:
            1EB8....50E8....83C40831C050..........31C050FF:
              0. 07 AD6C 0037 0000:MESSAGEFATALERROR
            B8....50E8....83C40631C050..........31C050FF76:
              0. 06 D35E 0036 0000:MESSAGEFATALERROR
            E8....:
              5DC20400:
                0. 00 0000 0010 0000:??4ostream_withassign@@QACAAV0@AAV0@@Z
              66FF76088B56068B460483C02A5250E8....BA:
                0. 00 0000 0070 0000:??0stdiostream@@QEC@PEU_iobuf@@@Z
              83C4:
                0250E8....5DC20400:
                  0. 00 0000 0017 (l)0000:STR_CAT12 (REF 0011: STR_CAT1)
                  1. 00 0000 0017 (l)0000:STR_CAT2 (REF 0011: STR_CAT)
                04:
                  5250E8....83C4045DC3:
                    0. 00 0000 0019 0000:_ctime
                  5DC3:
                    0. 00 0000 0011 0000:??3@YAXPEX@Z
                  833E....0C75:
                    0A8B5E088907A1....5DC3:
                      0. 04 1531 0024 0000:__dos_setblock
                    0BC45E08268907A1....5D:
                      0. 05 0754 0025 0000:__dos_setblock
                  8B56068B46045DC3:
                    0. 00 0000 0017 0000:?WS@@YAAEVistream@@AEV1@@Z
              8B:
                46045DC3:
                  0. 00 0000 0011 0000:?_iomanip_setw@@YAAAVios@@AAV1@H@Z
                56068B4604:
                  5DC3:
                    0. 00 0000 0014 0000:?flush@@YAAEVostream@@AEV1@@Z
                  83C0:
                    085250E8....5DC20400:
                      0. 00 0000 001E 0000:??_Dostream@@UECXXZ (REF 000A: ??1ostream@@UEC@XZ)
                      1. 00 0000 001E 0000:??_Dostream_withassign@@UECXXZ (REF 000A: ??1ostream_withassign@@UEC@XZ)
                    0A5250E8....5DC20400:
                      0. 00 0000 001E 0000:??_Distream_withassign@@UECXXZ (REF 000A: ??1istream_withassign@@UEC@XZ)
                      1. 00 0000 001E 0000:??_Dostream@@UECXXZ (REF 000A: ??1ostream@@UEC@XZ)
                      2. 00 0000 001E 0000:??_Distream@@UECXXZ (REF 000A: ??1istream@@UEC@XZ)
                    0C5250E8....5DC20400:
                      0. 00 0000 001E 0000:??_Dostream_withassign@@UECXXZ (REF 000A: ??1ostream_withassign@@UEC@XZ)
                      1. 00 0000 001E 0000:??_Distream_withassign@@UECXXZ (REF 000A: ??1istream_withassign@@UEC@XZ)
                    125250E8....5DC20400:
                      0. 00 0000 001E 0000:??_Diostream_withassign@@UECXXZ (REF 000A: ??1iostream_withassign@@UEC@XZ)
                      1. 00 0000 001E 0000:??_Diostream@@UECXXZ (REF 000A: ??1iostream@@UEC@XZ)
                    145250E8....5DC20400:
                      0. 00 0000 001E 0000:??_Diostream@@UECXXZ
                    165250E8....5DC20400:
                      0. 00 0000 001E 0000:??_Diostream_withassign@@UECXXZ
                    3A5250E8....5DC20400:
                      0. 00 0000 001E 0000:??_Dostrstream@@UECXXZ (REF 000A: ??1ostrstream@@UEC@XZ)
                      1. 00 0000 001E 0000:??_Distrstream@@UECXXZ (REF 000A: ??1istrstream@@UEC@XZ)
                    3C5250E8....5DC20400:
                      0. 00 0000 001E 0000:??_Dstrstreambase@@UECXXZ
                    405250E8....5DC20400:
                      0. 00 0000 001E 0000:??_Dfstreambase@@UECXXZ
                    445250E8....5DC20400:
                      0. 00 0000 001E 0000:??_Dstrstream@@UECXXZ (REF 000A: ??1strstream@@UEC@XZ)
                      1. 00 0000 001E 0000:??_Dostrstream@@UECXXZ (REF 000A: ??1ostrstream@@UEC@XZ)
                    465250E8....5DC20400:
                      0. 00 0000 001E 0000:??_Distrstream@@UECXXZ
                    485250E8....5DC20400:
                      0. 00 0000 001E 0000:??_Dofstream@@UECXXZ
                    4A5250E8....5DC20400:
                      0. 00 0000 001E 0000:??_Difstream@@UECXXZ
                    4E5250E8....5DC20400:
                      0. 00 0000 001E 0000:??_Dstrstream@@UECXXZ (REF 000A: ??1strstream@@UEC@XZ)
                      1. 00 0000 001E 0000:??_Dofstream@@UECXXZ (REF 000A: ??1ofstream@@UEC@XZ)
                      2. 00 0000 001E 0000:??_Difstream@@UECXXZ (REF 000A: ??1ifstream@@UEC@XZ)
                    525250E8....5DC20400:
                      0. 00 0000 001E 0000:??_Dfstream@@UECXXZ
                    585250E8....5DC20400:
                      0. 00 0000 001E 0000:??_Dfstream@@UECXXZ
                E55DC3:
                  0. 00 0000 0010 0000:__tcschr (REF 000A: __mbschr)
                  1. 00 0000 0010 0000:__tcscmp (REF 000A: __mbscmp)
                  2. 00 0000 0010 0000:__tcscspn (REF 000A: __mbscspn)
                  3. 00 0000 0010 0000:__tcsicmp (REF 000A: __mbsicmp)
                  4. 00 0000 0010 0000:__tcsdec (REF 000A: __mbsdec)
                  5. 00 0000 0010 0000:__tcsstr (REF 000A: __mbsstr)
                  6. 00 0000 0010 0000:__tcsspn (REF 000A: __mbsspn)
                  7. 00 0000 0010 0000:__tcspbrk (REF 000A: __mbspbrk)
                  8. 00 0000 0010 0000:__tcsrchr (REF 000A: __mbsrchr)
                  9. 00 0000 0010 0000:__tcstok (REF 000A: __mbstok)
                  10. 00 0000 0010 0000:_putc (REF 000A: _fputc)
              BA....B8....C45E0426895702268907:
                31C02689:
                  0. 41 E57F 0063 0000:??0strstreambuf@@QEC@XZ
                66FF760E:
                  0. 0C 5AD2 0053 0000:??0strstreambuf@@QEC@PEDH0@Z
                8B46:
                  0A26:
                    0. 47 20BF 0069 0000:??0strstreambuf@@QEC@P6APEXJ@ZP6AXPEX@Z@Z
                  0E26:
                    0. 24 598D 006B 0000:??0filebuf@@QEC@HPEDH@Z
              C45E0426C74728:
                00008B46082689472A:
                  8B460C26:
                    0. 0B A22A 005B 0000:??0strstreambuf@@QEC@P6APEXI@ZP6AXPEX@ZH@Z
                  B8....26:
                    0. 04 F011 005B 0000:??0strstreambuf@@QEC@H@Z
                0100BA....B8....2689570226:
                  0. 12 A066 0059 (?)0000:??0strstreambuf@@QEC@PEDH0@Z (0024: 00)
                FFFF26C7472A000031C0992689:
                  0. 19 C22C 004A 0000:??0filebuf@@QEC@XZ
                  1. 17 DC7F 0067 0000:??0filebuf@@QEC@XZ
            ..........83C40250E8....5DC20400:
              0. 00 0000 0019 (l)0000:STR_CAT12 (REF 0013: STR_CAT1)
              1. 00 0000 0019 (l)0000:STR_CAT2 (REF 0013: STR_CAT)
          ..........83C40250FF7604E8....5DC20400:
            0. 00 0000 0019 (l)0000:STR_CAT1
        08:
          66FF7604E8....8BE55DC3:
            0. 00 0000 0011 0000:__tcsrchr (REF 000B: __mbsrchr)
            1. 00 0000 0011 0000:__tcschr (REF 000B: __mbschr)
          8B4608034606506A00FF7604E8....8B46045DC20600:
            0. 00 0000 001C 0000:?setbuf@streambuf@@UACPAV1@PADH@Z
          FF7606:
            8A460430E450E8....83C406B9FFFF3BC17421FF7608FF:
              0. 0C EEEB 0041 0000:_putw
            FF7604:
              68....E8....8BE55DC3:
                0. 00 0000 0016 0000:_vfprintf
              6A00..........5250E8....8BE55DC3:
                0. 00 0000 001C 0000:_wmhandler_set
              E8....:
                83C406:
                  8B5E0A8907B9FFFF3BC1750489C8:
                    0. 13 AFD5 00F4 0000:__dos_read 0026:__dos_write 004C:__dos_creat 007B:__dos_creatnew 00A1:__dos_setblock 00C5:__dos_open
                  FF7606E8....8BE55DC3:
                    0. 00 0000 001C 0000:_strxfrm
                8B:
                  56068B46045DC3:
                    0. 00 0000 0017 0000:?_iomanip_setw@@YAAEVios@@AEV1@H@Z
                  E5:
                    0BC0741657C47E0403F88BD0268B4D:
                      0. 86 2F3C 021F 0000:_page_calloc 002E:_page_malloc 009A:_page_realloc 013C:_page_free 01BA:_page_maxfree 01F0:_page_initialize
                    5DC3:
                      0. 00 0000 0013 0000:__tcsnicmp (REF 000D: __mbsnbicmp)
                      1. 00 0000 0013 0000:__tcsncpy (REF 000D: __mbsnbcpy)
                      2. 00 0000 0013 0000:__tcsnccmp (REF 000D: __mbsncmp)
                      3. 00 0000 0013 0000:__tcsncmp (REF 000D: __mbsnbcmp)
                    85C0741657C47E0403F88BD0268B4D:
                      0. 86 2F00 021F 0000:_page_calloc 002E:_page_malloc 009A:_page_realloc 013C:_page_free 01BA:_page_maxfree 01F0:_page_initialize
        0AFF7608:
          8B56068B460483C0085250E8....89D109C175288B5606:
            0. 47 A60A 0067 0000:?attach@fstream_common@@QECXHH@Z
          E8....83C40401C083C00250FF760AFF7608FF7606FF76:
            0. 02 6103 002F 0000:_wcscpy
          FF76:
            04E8....8B460C8B5E048947168B4E06894F1831C9:
              0. 08 641B 005D 0000:??0filebuf@@QAC@HPADHH@Z
            06:
              FF7604:
                8B460A8B5E088B4E068B5604E8....5053:
                  0. 1B 9CE8 004B 0000:_hypot
                E8....:
                  5DC20800:
                    0. 00 0000 0016 0000:?getline@istream@@QACAAV1@PAEHD@Z (REF 0010: ?getline@istream@@QACAAV1@PADHD@Z)
                    1. 00 0000 0016 0000:?get@istream@@QACAAV1@PAEHD@Z (REF 0010: ?get@istream@@QACAAV1@PADHD@Z)
                  83C408C45E0C268907B9FFFF3BC1:
                    0. 1A 61D9 0108 0000:__dos_read 002A:__dos_write 0054:__dos_creat 0087:__dos_creatnew 00B0:__dos_setblock 00D5:__dos_open
              ..........8BE5:
                0BC0741657C47E0603F88BD026:
                  0. 88 DE6D 0229 0000:_page_calloc 0030:_page_malloc 009C:_page_realloc 0146:_page_free 01C4:_page_maxfree 01FA:_page_initialize
                85C0741657C47E0603F88BD026:
                  0. 88 DE51 0229 0000:_page_calloc 0030:_page_malloc 009C:_page_realloc 0146:_page_free 01C4:_page_maxfree 01FA:_page_initialize
        0C:
          66FF760866FF7604E8....8BE55DC3:
            0. 00 0000 0015 0000:__tcsnicmp (REF 000F: __mbsnbicmp)
            1. 00 0000 0015 0000:__tcsncpy (REF 000F: __mbsnbcpy)
            2. 00 0000 0015 0000:__tcsnccmp (REF 000F: __mbsncmp)
            3. 00 0000 0015 0000:__tcsncmp (REF 000F: __mbsnbcmp)
          E8....83C4029985D27F197C053D00807312FF760C66FF760866:
            0. 04 2B63 005E 0000:_scalb
          FF760A:
            8B560C8B460A03460852506A00FF7606FF7604E8....8B:
              0. 09 D1CA 0029 0000:?setbuf@streambuf@@UECPEV1@PEDH@Z
            FF7608:
              66FF7604E8....83C40AFF760AFF7608E8....8B:
                0. 03 C861 0023 0000:_strxfrm
              FF7606FF7604E8....8BE55DC3:
                0. 00 0000 0019 0000:__makepath
        0E:
          83EC068D46085089E083C00250E8....31C050FF7606FF76048B:
            0. 48 DEB7 0068 0000:?seekpos@streambuf@@UAC?AVstreampos@@V2@H@Z 004C:?seekoff@streambuf@@UAC?AVstreampos@@Vstreamoff@@W4relative_to@ios@@H@Z
          FF760CFF760AFF7608:
            8B56068B460483C0085250E8....89D109:
              0. 4D 6206 006D 0000:?open@fstream_common@@QECXPFDHH@Z
            FF7606FF7604E8....5DC20C00:
              0. 00 0000 001C 0000:?getline@istream@@QECAEV1@PEEHD@Z (REF 0016: ?getline@istream@@QECAEV1@PEDHD@Z)
              1. 00 0000 001C 0000:?get@istream@@QECAEV1@PEEHD@Z (REF 0016: ?get@istream@@QECAEV1@PEDHD@Z)
        12FF761083EC06168D460A5089E083C0041650E8....31C050FF76:
          0. 65 DA42 0085 0000:?seekpos@streambuf@@UEC?EVstreampos@@V2@H@Z 0066:?seekoff@streambuf@@UEC?EVstreampos@@Vstreamoff@@W4relative_to@ios@@H@Z
56:
  57:
    31FFBE....EB:
      0FF6440683740656E8....594783C60E81FE....72EB8BC7:
        0. 03 98B2 0023 0000:_fcloseall (REF 0011: _fclose)
        1. 03 98B2 0023 0000:_flushall (REF 0011: _fflush)
      12F6440A8374091E56E8....83C4044783C61081FE....72:
        0. 06 D181 0026 0000:_fcloseall (REF 0012: _fclose)
        1. 06 D181 0026 0000:_flushall (REF 0012: _fflush)
    833E....007506C706........813E........7206B802005F5EC3BE:
      0. 04 A1AD 00C6 0000:_exit_PUSHSTATE 005A:_exit_popstate
    A1....0B06....750AC706........8C1E....B8....3B06....7706B802:
      0. 05 5787 010B 0000:_exit_PUSHSTATE 006A:_exit_popstate
  89E3368B5F:
    044380E3FE7503BB0200F7DB89DE01E3732836391E0A00772187:
      0. 25 D25A 0045 0000:_alloca
    064380E3FE7503BB0200F7DB89DE01E3732836391E0A00772187:
      0. 25 C2F7 0045 0000:_alloca
  8B:
    36....B802005089C151E8....83C40409F6740C83FE027407B8020050FF:
      0. 0F FFEB 012E 004F:_signal 00CC:_raise 0125:_abort
    DC368B5F:
      044380E3FEF7DB742E8BF303DC732836391E0A00772187DC8BCD:
        0. 22 6206 0042 0000:_alloca
      064380E3FEF7DB742E8BF303DC732836391E0A00772187DC8BCD:
        0. 22 72AB 0042 0000:_alloca
  BE....EB:
    0EF6440683740556E8....5983C60E81FE....72EC5EC3833E:
      0. 08 57EF 002C 0000:___fcloseall 001C:__STI_io_ctor
    11F6440A8374081E56E8....83C40483C61081FE....72E95EC3B8:
      0. 04 3CCB 0028 0000:___fcloseall 001F:__STI_io_ctor
    138B4406A8837409A840740556E8....5983C60E81FE....72E75E:
      0. 1C 0DD6 0365 0000:__flushterm 0021:_setbuf 0043:_setvbuf 00FB:_FREEBUF 0141:__flushbu 028A:__fillbuf (0328: C3)
      1. 1C 0DD6 0367 0000:__flushterm 0021:_setbuf 0043:_setvbuf 00FB:_FREEBUF 0141:__flushbu 028C:__fillbuf (0328: 5E)
    168B440AA883740CA84074081E56E8....83C40483C61081FE:
      0. 28 CE40 033C 0000:__flushterm 0024:_setbuf 004F:_setvbuf 00F8:_FREEBUF 0144:__flushbu 0260:__fillbuf
59:
  5A89E329C389DC5251CB:
    0. 00 0000 000B 0000:__aFchkstk
  89E329C389DCFFE1:
    0. 00 0000 0009 0000:__aNchkstk
5D:
  4DEA........45558BEC8B460A:
    0BC074EE8B5E068B4E080BCB750E50:
      0. 00 0000 00B4 0007:__frealloc
    85C074EE8B5E068B4E080BCB750E50:
      0. 00 0000 00B4 0007:__frealloc
  E9....558BEC8B4608:
    0BC074F28B5E048B4E060BCB750B50E8....8BE55DC3:
      0. 36 898F 00A6 0004:__frealloc
    85C074F28B5E048B4E060BCB750B50E8....8BE55DC3:
      0. 36 898F 00A6 0004:__frealloc
601E068BEC1EB8....8ED8FCFF:
  16....85C075086A00E8....83C4028BE5071F:
    0. 02 314D 0022 (l)0000:_CtrlBrkHandler
  1E....85C0750A6A00..........83C4028BE5:
    0. 04 DB26 0024 (l)0000:_CtrlBrkHandler
766F696400:
  0. 00 0000 0005 0000:?
803E....00:
  7401:
    C3558BECC606....0157BB00B0891E....803E....01750DB8:
      0. 06 CEE6 043C 0000:_disp_open 0066:_disp_close 0081:_disp_setcursortype 0096:_disp_hidecursor 00A9:_disp_showcursor 00B8:_disp_putc 019E:_disp_scroll 01A4:_disp_pokew 01CE:_disp_peekw 0213:_disp_move 0225:_disp_flush 0242:_disp_eeol 0257:_disp_eeop 0281:_disp_startstand 0287:_disp_endstand 028D:_disp_setattr 0298:_disp_getattr 02D5:_disp_getmode 02DC:_disp_setmode 02E6:_disp_peekbox 038E:_disp_pokebox (0411: 5F)
      1. 06 CEE6 0438 0000:_disp_open 0066:_disp_close 0081:_disp_setcursortype 0096:_disp_hidecursor 00A9:_disp_showcursor 00B8:_disp_putc 019E:_disp_scroll 01A4:_disp_pokew 01CE:_disp_peekw 0213:_disp_move 0225:_disp_flush 0242:_disp_eeol 0257:_disp_eeop 0281:_disp_startstand 0287:_disp_endstand 028D:_disp_setattr 0298:_disp_getattr 02D5:_disp_getmode 02DC:_disp_setmode 02E6:_disp_peekbox 038C:_disp_pokebox (0411: C3)
      2. 06 CEE6 0446 0000:_disp_open 0066:_disp_close 0081:_disp_setcursortype 0096:_disp_hidecursor 00A9:_disp_showcursor 00B8:_disp_putc 01A9:_disp_scroll 01AE:_disp_pokew 01D8:_disp_peekw 021D:_disp_move 022F:_disp_flush 024C:_disp_eeol 0261:_disp_eeop 028B:_disp_startstand 0291:_disp_endstand 0297:_disp_setattr 02A2:_disp_getattr 02DF:_disp_getmode 02E6:_disp_setmode 02F0:_disp_peekbox 0398:_disp_pokebox (0411: 03)
      3. 06 CEE6 0442 0000:_disp_open 0066:_disp_close 0081:_disp_setcursortype 0096:_disp_hidecursor 00A9:_disp_showcursor 00B8:_disp_putc 01A9:_disp_scroll 01AE:_disp_pokew 01D8:_disp_peekw 021D:_disp_move 022F:_disp_flush 024C:_disp_eeol 0261:_disp_eeop 028B:_disp_startstand 0291:_disp_endstand 0297:_disp_setattr 02A2:_disp_getattr 02DF:_disp_getmode 02E6:_disp_setmode 02F0:_disp_peekbox 0396:_disp_pokebox (0411: 5B)
    CB45558BECC606....0157BB00B0891E....803E....01750D:
      0. 07 8A13 0450 0000:_disp_open 0068:_disp_close 0085:_disp_setcursortype 009C:_disp_hidecursor 00B1:_disp_showcursor 00C0:_disp_putc 01AE:_disp_scroll 01B6:_disp_pokew 01E0:_disp_peekw 0225:_disp_move 0237:_disp_flush 0256:_disp_eeol 026B:_disp_eeop 0295:_disp_startstand 029B:_disp_endstand 02A1:_disp_setattr 02AC:_disp_getattr 02E9:_disp_getmode 02F0:_disp_setmode 02FA:_disp_peekbox 03A2:_disp_pokebox (0424: 5F)
      1. 07 8A13 044C 0000:_disp_open 0068:_disp_close 0085:_disp_setcursortype 009C:_disp_hidecursor 00B1:_disp_showcursor 00C0:_disp_putc 01AE:_disp_scroll 01B6:_disp_pokew 01E0:_disp_peekw 0225:_disp_move 0237:_disp_flush 0256:_disp_eeol 026B:_disp_eeop 0295:_disp_startstand 029B:_disp_endstand 02A1:_disp_setattr 02AC:_disp_getattr 02E9:_disp_getmode 02F0:_disp_setmode 02FA:_disp_peekbox 03A0:_disp_pokebox (0424: CB)
      2. 07 8A13 045A 0000:_disp_open 0068:_disp_close 0085:_disp_setcursortype 009C:_disp_hidecursor 00B1:_disp_showcursor 00C0:_disp_putc 01B9:_disp_scroll 01C0:_disp_pokew 01EA:_disp_peekw 022F:_disp_move 0241:_disp_flush 0260:_disp_eeol 0275:_disp_eeop 029F:_disp_startstand 02A5:_disp_endstand 02AB:_disp_setattr 02B6:_disp_getattr 02F3:_disp_getmode 02FA:_disp_setmode 0304:_disp_peekbox 03AC:_disp_pokebox (0424: 03)
      3. 07 8A13 0456 0000:_disp_open 0068:_disp_close 0085:_disp_setcursortype 009C:_disp_hidecursor 00B1:_disp_showcursor 00C0:_disp_putc 01B9:_disp_scroll 01C0:_disp_pokew 01EA:_disp_peekw 022F:_disp_move 0241:_disp_flush 0260:_disp_eeol 0275:_disp_eeop 029F:_disp_startstand 02A5:_disp_endstand 02AB:_disp_setattr 02B6:_disp_getattr 02F3:_disp_getmode 02FA:_disp_setmode 0304:_disp_peekbox 03AA:_disp_pokebox (0424: 5B)
  75:
    0CFE06....A1....D1E0A3....8B0E....D126....89C8C3:
      0. 00 0000 001E 0000:?bitalloc@ios@@SAHXZ
    22A1....0B06....740CB8000050FF1E....59EB1190B40B:
      0. 00 0000 002D 0000:_kbhit
81E1FF007407D1:
  E0D1D24975F9C3:
    0. 00 0000 000E 0000:__aNlshl
  EAD1D84975F9:
    C3:
      0. 00 0000 000E 0000:__aNulshr
    CB:
      0. 00 0000 000E 0000:__aFulshr
833E....0A7C04B8FFFFC38B0E....FF06....89C8C3:
  0. 00 0000 0016 0000:?xalloc@ios@@SAHXZ
85C9750885D27512F7E3:
  C39085D2751691F7E191F7E303D1C3908BC88BC2F7E3:
    0. 94 8698 0105 0000:__LMUL@ 0058:__ULDIV@ 00BE:__LDIV@ 00F2:__LCMP@
  CB9085D2751691F7E191F7E303D1CB908BC88BC2F7E3:
    0. 93 6971 010B 0000:__LMUL@ 0058:__ULDIV@ 00C0:__LDIV@ 00F8:__LCMP@
89:
  CA5689E3368B5F:
    044380E3FE7503BB0200F7DB89DE01E3732C36391E0A0077:
      0. 2B 8046 004B 0000:___alloca
    064380E3FE7503BB0200F7DB89DE01E3732C36391E0A0077:
      0. 2B 90EB 004B 0000:___alloca
  E3:
    368347:
      02:
        B2E9....90909090909089E336834702BCE9....909090909090:
          0. 08 09C9 003A 0000:?
        BCE9....:
          90909090909089E336834702B2E9....909090909090:
            0. 08 F83B 002A 0000:?
          ..:
            0. 00 0000 000A 0000:? (REF 0008: ??_Gfstream_common@@UECPEXI@Z)
        C0E9....90909090909089E336834702C0E9....909090909090:
          0. 08 88C6 007A 0000:?
        C4E9....90909090909089E336834702C4E9....909090909090:
          0. 08 286F 007A 0000:?
        C6E9....90909090909089E336834702C6E9....909090909090:
          0. 08 EE80 003A 0000:?
        F4E9:
          0. 00 0000 000A 0000:? (REF 0008: ??_Gistream_withassign@@UECPEXI@Z)
        F6E9....:
          90909090909089E336834702:
            EAE9:
              0. 00 0000 001A 0000:?
            ECE9:
              0. 00 0000 001A 0000:?
            EEE9....909090909090:
              0. 08 EE80 003A 0000:?
            F6E9:
              0. 00 0000 001A 0000:?
          ..:
            0. 00 0000 000A 0000:? (REF 0008: ??_Gistream@@UECPEXI@Z)
        F8E9....:
          90909090909089E336834702F8E9:
            0. 00 0000 001A 0000:?
          ..:
            0. 00 0000 000A 0000:? (REF 0008: ??_Gostream@@UECPEXI@Z)
      04:
        B2EA........9090909089E336834704BCEA........90909090:
          0. 08 4B2D 003C 0000:?
        BCEA........:
          9090909089E336834704B2EA........90909090:
            0. 08 BADF 002C 0000:?
          ..:
            0. 00 0000 000C 0000:? (REF 0008: ??_Gfstream_common@@VECPEXI@Z)
        C0EA........9090909089E336834704C0EA........90909090:
          0. 08 CA22 007C 0000:?
        C2EA........9090909089E336834704C2EA........90909090:
          0. 08 AC64 003C 0000:?
        F4EA:
          0. 00 0000 000C 0000:? (REF 0008: ??_Gistream_withassign@@VECPEXI@Z)
        F6EA........:
          9090909089E336834704:
            EAEA:
              0. 00 0000 001C 0000:?
            ECEA:
              0. 00 0000 001C 0000:?
            EEEA........90909090:
              0. 08 AC64 003C 0000:?
            F6EA:
              0. 00 0000 001C 0000:?
          ..:
            0. 00 0000 000C 0000:? (REF 0008: ??_Gistream@@VECPEXI@Z)
        F8EA........:
          9090909089E336834704F8EA:
            0. 00 0000 001C 0000:?
          ..:
            0. 00 0000 000C 0000:? (REF 0008: ??_Gostream@@VECPEXI@Z)
    8347:
      02:
        D0E9....9090909090909089E3834702D6E9....90909090909090:
          0. 07 98EB 0039 0000:?
        D6E9....:
          9090909090909089E3834702D0E9....90909090909090:
            0. 07 A9D7 0029 0000:?
          ..:
            0. 00 0000 0009 0000:? (REF 0007: ??_Gfstream_common@@UACPAXI@Z)
        D8E9....9090909090909089E3834702D8E9....90909090909090:
          0. 07 C9B0 0079 0000:?
        DCE9....9090909090909089E3834702DCE9....90909090909090:
          0. 07 3A5D 0039 0000:?
          1. 07 A9D7 0079 0000:?
        F8E9:
          0. 00 0000 0009 0000:? (REF 0007: ??_Gistream_withassign@@UACPAXI@Z)
        FAE9....:
          9090909090909089E3834702:
            F2E9:
              0. 00 0000 0019 0000:?
            F4E9:
              0. 00 0000 0019 0000:?
            F6E9....90909090909090:
              0. 07 3A5D 0039 0000:?
            FAE9:
              0. 00 0000 0019 0000:?
          ..:
            0. 00 0000 0009 0000:? (REF 0007: ??_Gistream@@UACPAXI@Z)
        FCE9....:
          9090909090909089E3834702FCE9:
            0. 00 0000 0019 0000:?
          ..:
            0. 00 0000 0009 0000:? (REF 0007: ??_Gostream@@UACPAXI@Z)
      04:
        D0EA........909090909089E3834704D6EA........9090909090:
          0. 07 DA0F 003B 0000:?
        D6EA........:
          909090909089E3834704D0EA........9090909090:
            0. 07 EB33 002B 0000:?
          ..:
            0. 00 0000 000B 0000:? (REF 0007: ??_Gfstream_common@@VACPAXI@Z)
        D8EA........909090909089E3834704D8EA........9090909090:
          0. 07 78B9 003B 0000:?
          1. 07 8B54 007B 0000:?
        F8EA:
          0. 00 0000 000B 0000:? (REF 0007: ??_Gistream_withassign@@VACPAXI@Z)
        FAEA........:
          909090909089E3834704:
            F2EA:
              0. 00 0000 001B 0000:?
            F4EA:
              0. 00 0000 001B 0000:?
            F6EA........9090909090:
              0. 07 78B9 003B 0000:?
            FAEA:
              0. 00 0000 001B 0000:?
          ..:
            0. 00 0000 000B 0000:? (REF 0007: ??_Gistream@@VACPAXI@Z)
        FCEA........:
          909090909089E3834704FCEA:
            0. 00 0000 001B 0000:?
          ..:
            0. 00 0000 000B 0000:? (REF 0007: ??_Gostream@@VACPAXI@Z)
8B:
  16....A1....BB6D4EB9C641E8....05393083D2008916....A3....A1:
    0. 09 2777 0072 0000:_rand 0024:_random 004F:_srand 0060:_randomize (0045: A3)
    1. 09 2777 006F 0000:_rand 0024:_random 004F:_srand 0060:_randomize (0045: C3)
  C4362B060A0076:
    1BC35A2BE076153639260A00770E3639260C007605368926:
      0. 05 4CBE 002B 0000:__stackavail 000A:__chkstk
    1DCB5A592BE076163639260A00770F3639260C0076053689:
      0. 07 EF4D 002F 0000:__stackavail 000A:__chkstk
  DC:
    36:
      8A57:
        04368B5F028A073AC2741584C0740E8A470183C3023AC2740A84C0:
          0. 0C DD0E 002C 0000:_strchr
        06:
          368B5F048A073AC2741584C0740E8A470183C3023AC2740A84C0:
            0. 0C 09F5 002C 0000:_strchr
          8CD936C55F028A073AC2741984C0740E8A470183C3023AC27412:
            0. 1A 0146 003A 0000:_strchr
        088CD936C55F048A073AC2741984C0740E8A470183C3023AC27412:
          0. 1A 47E5 003A 0000:_strchr
      8B:
        47:
          02:
            9933C22BC2C38BDC368B4702368B5704:
              0BD27907F7DAF7D883DA:
                0. 46 8F1B 0066 0000:_abs 000C:_labs 0022:_atoi
                1. 47 D060 0067 0000:_abs 000C:_labs 0022:_atoi
              85D27907F7DAF7D883DA:
                0. 46 8F1B 0066 0000:_abs 000C:_labs 0022:_atoi
                1. 47 D060 0067 0000:_abs 000C:_labs 0022:_atoi
            A3....C3C706....0500C3A1....C3558BEC:
              1EFF7604BB....:
                33:
                  0. 0F 2A02 0193 0000:__exec_showset 000A:__exec_showreset 0011:__exec_showget 0015:__exec
                8B:
                  0. 10 EACE 01D0 0000:__exec_showset 000A:__exec_showreset 0011:__exec_showget 0015:__exec
              FF7606FF7604BB:
                0. 00 0000 019C 0000:__exec_showset 000A:__exec_showreset 0011:__exec_showget 0015:__exec (0176: 4C)
                1. 00 0000 01D9 0000:__exec_showset 000A:__exec_showreset 0011:__exec_showget 0015:__exec (0176: C3)
          04:
            9933C22BC2CB8BDC368B4704368B5706:
              0BD27907F7DAF7D883DA:
                0. 46 6102 0066 0000:_abs 000C:_labs 0022:_atoi
                1. 47 ECF2 0067 0000:_abs 000C:_labs 0022:_atoi
              85D27907F7DAF7D883DA:
                0. 46 6102 0066 0000:_abs 000C:_labs 0022:_atoi
                1. 47 ECF2 0067 0000:_abs 000C:_labs 0022:_atoi
            A3....CBC706....0500CBA1....CB45558BEC:
              1EFF7606BB:
                0. 10 5D60 0187 0000:__exec_showset 000A:__exec_showreset 0011:__exec_showget 0015:__exec
                1. 11 914F 01CB 0000:__exec_showset 000A:__exec_showreset 0011:__exec_showget 0015:__exec
              FF7608FF7606BB:
                0. 00 0000 0191 0000:__exec_showset 000A:__exec_showreset 0011:__exec_showget 0015:__exec (016B: 4C)
                1. 00 0000 01D5 0000:__exec_showset 000A:__exec_showreset 0011:__exec_showget 0015:__exec (016B: E7)
        57:
          02EC32E4C38BDC368B5702EDC38BDC368B4704368B5702EEC38BDC:
            0. 0A 04B5 002A 0000:_inp 000A:_inpw 0012:_outp 001E:_outpw
          04EC32E4CB8BDC368B5704EDCB8BDC368B4706368B5704EECB8BDC:
            0. 0A 2ED8 002A 0000:_inp 000A:_inpw 0012:_outp 001E:_outpw
        5F:
          028BD38A0784C074288A470184C0741C8A470284C074108A470383:
            0. 1A A33E 003A 0000:_strlen
          048BD38A0784C074288A470184C0741C8A470284C074108A470383:
            0. 1A D16F 003A 0000:_strlen
    56:
      57:
        36C47F:
          0633C0B9FFFFF2AEF7D18CDA36C47F0236C57706:
            8BC7F3A48E:
              0. 2C 02A8 004C 0000:_strcpy 0026:_fstrcpy
              1. 06 4A5B 0026 0000:_strcpy
            D1E9F3A5D1:
              0. 0D D3CB 002D 0000:_stpcpy
          0833C0B9FFFFF2AEF7D18CDA36C47F0436C57708:
            8BC7F3A48E:
              0. 06 02D7 0026 0000:_strcpy
            D1E9F3A5D1:
              0. 0D 9B47 002D 0000:_stpcpy
        8CDA36C47F:
          0636C5770233C0B9FFFFF2AEF7D12BF9F3A674061BC0F5:
            0. 08 05F4 0028 0000:_strcmp
          0836C5770433C0B9FFFFF2AEF7D12BF9F3A674061BC0F5:
            0. 08 4D78 0028 0000:_strcmp
      8BD78CD88EC0368B7F:
        04:
          368B770233C0B9FFFFF2AEF7D12BF9F3A67406:
            0. 0A 0BB0 002A 0000:_strcmp
          8BF733C0B9FFFFF2AEF7D1368B7F028BC7:
            03C1:
              0. 0F BEFC 002F 0000:_stpcpy
            F3A4:
              0. 04 9B53 0024 0000:_strcpy
              1. 2A F135 004A 0000:_strcpy 0024:_fstrcpy
        06:
          368B770433C0B9FFFFF2AEF7D12BF9F3A67406:
            0. 0A 433C 002A 0000:_strcmp
          8BF733C0B9FFFFF2AEF7D1368B7F048BC7:
            03C1:
              0. 0F F670 002F 0000:_stpcpy
            F3A4:
              0. 2A A372 004A 0000:_strcpy 0024:_fstrcpy
              1. 04 D3DF 0024 0000:_strcpy
    8BD7:
      36C47F:
        0233C0B9FFFFF2AE8BC1F7D0488BFAC3:
          0. 00 0000 0017 0000:_strlen
        0433C0B9FFFFF2AE8BC1F7D0488BFACB:
          0. 00 0000 0017 0000:_strlen
      8CD88EC0368B7F:
        0233C0B9FFFFF2AE8BC1F7D0488BFAC3:
          0. 00 0000 001B 0000:_strlen
        0433C0B9FFFFF2AE8BC1F7D0488BFACB:
          0. 00 0000 001B 0000:_strlen
    8CD936C55F:
      028BD38A0784C0742A8A470184C0741E8A470284C074128A47:
        0. 1E 666A 003E 0000:_strlen
      048BD38A0784C0742A8A470184C0741E8A470284C074128A47:
        0. 1E 143B 003E 0000:_strlen
  F88BF081E6F07F7505E8....EB0AD1EED1EED1EED1EE0C108AE08AC78AFB8A:
    0. 4D 7ED9 0FD7 0000:dunnorm 0042:dleft_justify 0054:dround 0109:dnorm 019A:exception 01D6:dget_dtype_pair 025B:dget_dtype 02B6:__DTST@ 02C2:__DTST0EXC@ 02C6:__DTST0@ 0314:__DCMPEXC@ 0318:__DCMP@ 03AC:__DNEG@ 0565:__DSUB@ 058A:__DADD@ 0741:__DDIV@ 0904:__DMUL@ 0B3B:__FLTDBL@ 0BAE:__DBLFLT@ 0C18:__UNSDBL@ 0C1B:__INTDBL@ 0C51:__ULNGDBL@ 0C54:__LNGDBL@ 0C88:__DBLUNS@ 0CA2:__DBLINT@ 0CB7:__DBLULNG@ 0CD1:__DBLLNG@ 0D89:___dtype 0DA3:___fpclassify_d 0DFD:fget_dtype 0E34:funnorm 0E59:fnorm 0EC1:fleft_justify 0ECF:fright_justify 0F15:fround (0F25: 8A)
    1. 4D 7ED9 0F93 0000:dunnorm 0042:dleft_justify 0054:dround 0109:dnorm 019A:exception 01D6:dget_dtype_pair 025B:dget_dtype 02B6:__DTST@ 02C2:__DTST0EXC@ 02C6:__DTST0@ 0314:__DCMPEXC@ 0318:__DCMP@ 03AC:__DNEG@ 0565:__DSUB@ 058A:__DADD@ 0741:__DDIV@ 0916:__DMUL@ 0B4D:__FLTDBL@ 0BC0:__DBLFLT@ 0C2A:__UNSDBL@ 0C2D:__INTDBL@ 0C63:__ULNGDBL@ 0C66:__LNGDBL@ 0C9A:__DBLUNS@ 0CB4:__DBLINT@ 0CC9:__DBLULNG@ 0CE6:__DBLLNG@ 0D9E:___dtype 0DB8:fget_dtype 0DEF:funnorm 0E14:fnorm 0E7D:fleft_justify 0E8B:fright_justify 0ED1:fround (0F25: C3)
    2. 4D 7ED9 0F95 0000:dunnorm 0042:dleft_justify 0054:dround 0109:dnorm 019A:exception 01D6:dget_dtype_pair 025B:dget_dtype 02B6:__DTST@ 02C2:__DTST0EXC@ 02C6:__DTST0@ 0314:__DCMPEXC@ 0318:__DCMP@ 03AC:__DNEG@ 0565:__DSUB@ 058A:__DADD@ 0741:__DDIV@ 0918:__DMUL@ 0B4F:__FLTDBL@ 0BC2:__DBLFLT@ 0C2C:__UNSDBL@ 0C2F:__INTDBL@ 0C65:__ULNGDBL@ 0C68:__LNGDBL@ 0C9C:__DBLUNS@ 0CB6:__DBLINT@ 0CCB:__DBLULNG@ 0CE8:__DBLLNG@ 0DA0:___dtype 0DBA:fget_dtype 0DF1:funnorm 0E16:fnorm 0E7F:fleft_justify 0E8D:fright_justify 0ED3:fround (0F25: 0B)
  F983E77F0BFBC38BFA83E77F0BF8C352D1E20BD05A:
    C3F9EB01F8561BF65750:
      0. 30 955E 0605 0010:__FTST@ 0017:__FTST0EXC@ 001A:__FTST0@ 0066:__FCMPEXC@ 006A:__FCMP@ 00F5:__FSUB@ 011A:__FADD@ 0277:__FDIV@ 03E9:__FMUL@ 04F5:__FNEG@ 04F9:__INTFLT@ 0504:__UNSFLT@ 050B:__LNGFLT@ 0512:__FLTUNS@ 052C:__FLTINT@ 055B:__FLTLNG@
    CBF9EB01F8561BF65750:
      0. 30 DAA1 060F 0010:__FTST@ 0017:__FTST0EXC@ 001A:__FTST0@ 0066:__FCMPEXC@ 006A:__FCMP@ 00F5:__FSUB@ 011A:__FADD@ 0277:__FDIV@ 03EB:__FMUL@ 04F7:__FNEG@ 04FB:__INTFLT@ 050A:__UNSFLT@ 0513:__LNGFLT@ 051C:__FLTUNS@ 0536:__FLTINT@ 0565:__FLTLNG@
8CD8:
  9045558BEC1E8ED8:
    168D46:
      0850FF7606..........83C4068B560A8B4608:
        0. 04 DB7F 0024 0000:_biostime
      0A5066FF7606:
        1E68....68....68....68:
          0. 01 361F 002F 0000:_scanf
        666A0068....68:
          0. 00 0000 0028 0000:_disp_printf
        ..........83C4081F5D4DCB:
          0. 00 0000 001F 0000:_printf
      0C50FF760AFF7608FF7606..........83C40A:
        0. 21 123F 02D5 0000:_spawnl 0024:_spawnv 0047:_FORKV 0251:_execl 0272:_execv (0195: 06)
        1. 21 123F 01D9 0000:_spawnlp 0024:_spawnvp 0196:_execlp 01B7:_execvp (0195: 5D)
      0E50:
        66FF760A:
          168D46065068....68....68:
            0. 00 0000 0030 0000:_sscanf
          66FF7606:
            68....68....68:
              0. 01 361F 002F 0000:_fscanf
            ..........83C40C1F:
              0. 03 9134 0023 0000:_sprintf (REF 0018: _vsprintf)
              1. 03 9134 0023 0000:_fprintf (REF 0018: _vfprintf)
        FF760CFF760AFF7608FF7606:
          BA....B8:
            0. 00 0000 07E5 0000:_fscanf 0035:_scanf 00C6:_sscanf (07C4: 00) (REF 05A4: .)
            1. 00 0000 07F0 0000:_fscanf 0035:_scanf 00C6:_sscanf (07C4: 8B) (REF 05AC: .)
          ..:
            0. 24 854F 0864 0000:_fprintf 0027:_vfprintf 0057:_printf 0078:_vprintf 00E9:_sprintf 0110:_vsprintf 01A2:__snprintf 01CC:__vsnprintf 0243:__pformat 0831:__DOSIGN (081F: 00) (REF 037A: .)
            1. 24 854F 08CD 0000:_fprintf 0027:_vfprintf 0057:_printf 0078:_vprintf 00E9:_sprintf 0110:_vsprintf 01A2:__snprintf 01CC:__vsnprintf 0243:__pformat 089A:__DOSIGN (081F: 02) (REF 037C: .)
      105066FF760CFF760A66FF7606..........83:
        0. 06 ED02 0026 0000:__snprintf
    1E:
      68....:
        1E68....1E68....1E68....6A00:
          0. 00 0000 0028 0000:_winio_doabout
        8B46064050..........1F5D4DCB:
          0. 00 0000 001C (l)0000:_exit_exit
        E8....:
          1E68....E8....:
            1E68....E8....1E:
              0. 01 361F 0031 0000:___SD___ios_iostream_cpp_
            1F5D4DCB:
              0. 00 0000 001C (?)0000:___SD___iosold_iosst3_cpp_ (REF 000F: ??_Dostream_withassign@@UECXXZ)
              1. 00 0000 001C 0000:___SD___iosold_iosst1_cpp_ (REF 000F: ??_Distream_withassign@@UECXXZ)
          1F5D4DCB:
            0. 00 0000 0015 (?)0000:___SD___ios_istream_cpp_
          68....68..............83C4041F:
            0. 03 9134 0023 0000:___SI___ios_fstream_cpp_ (REF 0012: ___SD___ios_fstream_cpp_)
            1. 03 9134 0023 0000:___SI___ios_ios_cpp_ (REF 0012: ___SD___ios_ios_cpp_)
            2. 03 9134 0023 0000:___SI___ios_istream_cpp_ (REF 0012: ___SD___ios_istream_cpp_)
            3. 03 9134 0023 0000:___SI___ios_istreamf_cpp_ (REF 0012: ___SD___ios_istreamf_cpp_)
            4. 03 9134 0023 0000:___SI___ios_istreami_cpp_ (REF 0012: ___SD___ios_istreami_cpp_)
            5. 03 9134 0023 0000:___SI___ios_istreamx_cpp_ (REF 0012: ___SD___ios_istreamx_cpp_)
            6. 03 9134 0023 0000:___SI___ios_manip_cpp_ (REF 0012: ___SD___ios_manip_cpp_)
            7. 03 9134 0023 0000:___SI___ios_ostream_cpp_ (REF 0012: ___SD___ios_ostream_cpp_)
            8. 03 9134 0023 0000:___SI___ios_ostreamf_cpp_ (REF 0012: ___SD___ios_ostreamf_cpp_)
            9. 03 9134 0023 0000:___SI___ios_ostreami_cpp_ (REF 0012: ___SD___ios_ostreami_cpp_)
            10. 03 9134 0023 0000:___SI___ios_ostreamx_cpp_ (REF 0012: ___SD___ios_ostreamx_cpp_)
            11. 03 9134 0023 0000:___SI___ios_siosync_cpp_ (REF 0012: ___SD___ios_siosync_cpp_)
            12. 03 9134 0023 0000:___SI___ios_stdiostr_cpp_ (REF 0012: ___SD___ios_stdiostr_cpp_)
            13. 03 9134 0023 0000:___SI___ios_stream_cpp_ (REF 0012: ___SD___ios_stream_cpp_)
            14. 03 9134 0023 0000:___SI___ios_streambf_cpp_ (REF 0012: ___SD___ios_streambf_cpp_)
            15. 03 9134 0023 0000:___SI___ios_strstrea_cpp_ (REF 0012: ___SD___ios_strstrea_cpp_)
            16. 03 9134 0023 0000:___SI___ios_dbp_cpp_ (REF 0012: ___SD___ios_dbp_cpp_)
          6A011E68....E8....6A011E68:
            0. 01 3E9B 0047 0000:___SI___ios_iostream_cpp_
        FF7606..........83C4061F5D4DCB:
          0. 00 0000 001D 0000:_putchar
        ..........:
          1E68..............:
            1E68:
              0. 00 0000 003B 0000:___SD___ios_iostream_cpp_
            1F5D4DCB:
              0. 00 0000 0020 (?)0000:___SD___iosold_iosst3_cpp_ (REF 000F: ??_Dostream_withassign@@VECXXZ)
              1. 00 0000 0020 0000:___SD___iosold_iosst1_cpp_ (REF 000F: ??_Distream_withassign@@VECXXZ)
            83C4081F:
              0. 05 D945 0025 0000:?flush_stdio@ostream@@BECXXZ
          1F5D4DCB:
            0. 00 0000 0017 (?)0000:___SD___ios_istream_cpp_
          68....68..............83C4:
            0. 05 6261 0025 0000:___SI___ios_fstream_cpp_ (REF 0014: ___SD___ios_fstream_cpp_)
            1. 05 6261 0025 0000:___SI___ios_ios_cpp_ (REF 0014: ___SD___ios_ios_cpp_)
            2. 05 6261 0025 0000:___SI___ios_istream_cpp_ (REF 0014: ___SD___ios_istream_cpp_)
            3. 05 6261 0025 0000:___SI___ios_istreamf_cpp_ (REF 0014: ___SD___ios_istreamf_cpp_)
            4. 05 6261 0025 0000:___SI___ios_istreami_cpp_ (REF 0014: ___SD___ios_istreami_cpp_)
            5. 05 6261 0025 0000:___SI___ios_istreamx_cpp_ (REF 0014: ___SD___ios_istreamx_cpp_)
            6. 05 6261 0025 0000:___SI___ios_manip_cpp_ (REF 0014: ___SD___ios_manip_cpp_)
            7. 05 6261 0025 0000:___SI___ios_ostream_cpp_ (REF 0014: ___SD___ios_ostream_cpp_)
            8. 05 6261 0025 0000:___SI___ios_ostreamf_cpp_ (REF 0014: ___SD___ios_ostreamf_cpp_)
            9. 05 6261 0025 0000:___SI___ios_ostreami_cpp_ (REF 0014: ___SD___ios_ostreami_cpp_)
            10. 05 6261 0025 0000:___SI___ios_ostreamx_cpp_ (REF 0014: ___SD___ios_ostreamx_cpp_)
            11. 05 6261 0025 0000:___SI___ios_siosync_cpp_ (REF 0014: ___SD___ios_siosync_cpp_)
            12. 05 6261 0025 0000:___SI___ios_stdiostr_cpp_ (REF 0014: ___SD___ios_stdiostr_cpp_)
            13. 05 6261 0025 0000:___SI___ios_stream_cpp_ (REF 0014: ___SD___ios_stream_cpp_)
            14. 05 6261 0025 0000:___SI___ios_streambf_cpp_ (REF 0014: ___SD___ios_streambf_cpp_)
            15. 05 6261 0025 0000:___SI___ios_strstrea_cpp_ (REF 0014: ___SD___ios_strstrea_cpp_)
            16. 05 6261 0025 0000:___SI___ios_dbp_cpp_ (REF 0014: ___SD___ios_dbp_cpp_)
          6A011E68..............6A01:
            0. 02 88EF 0051 0000:___SI___ios_iostream_cpp_
          83C4041F5D4DCB:
            0. 00 0000 001A 0000:_getchar (REF 000C: __iob)
            1. 00 0000 001A 0000:__fpurecall (REF 000F: ___faterr)
      B41AC55606CD211F1F5D4DCB:
        0. 00 0000 0017 0000:_setdta
      B8....50..........83C404:
        1EB8....50:
          0. 00 0000 002A 0000:?flush_stdio@ostream@@BECXXZ
        1F5D4DCB8CD8904555:
          0. 07 53E6 00E3 0000:_getchar 001B:_putchar 0039:_putc 0058:_getc 0074:_ferror 008C:_feof 00A4:_clearerr 00BA:_rewind
      FF7606:
        FF7608..........1F5D4DCB:
          0. 00 0000 001A 0000:_longjmp
        ..........1F5D4DCB:
          0. 00 0000 0017 0000:__setjmp
    1F5D4DCB:
      56BE....EB:
        10F6440683740756:
          0. 06 B9EE 004B 000E:___fcloseall 002C:__STI_io_ctor
        13F6440A83740A1E56:
          0. 00 0000 0047 000E:___fcloseall 002F:__STI_io_ctor
      8CD89045558BEC1E8ED8:
        1F5D4DCB:
          0. 00 0000 001C 0000:___fp_lock 000E:___fp_unlock
        BA....B8....8916:
          0. 00 0000 0036 0000:__fltused 000E:__STI_fltused
      ..:
        0. 00 0000 000E (!)0000:?
    31:
      C0:
        1F5D4D:
          CA:
            0200:
              0. 00 0000 0012 (!)0000:?
            0400:
              0. 00 0000 0012 (!)0000:?
          CB:
            0. 00 0000 0010 0000:__fheapmin
        39460674108B5E0638077409837E080119C024FE:
          0. 05 508D 0025 0000:_mblen
        50:
          1EB8....50FF760CFF760AFF7608FF7606FF76:
            0. 0E 9364 0B32 0000:_ecvt 0034:_fcvt 0372:_gcvt 0513:___floatfmt 08D3:__SCANFLOAT (0B01: C2) (REF 0A6E: .)
            1. 0E 9364 0B3F 0000:_ecvt 0034:_fcvt 0372:_gcvt 0513:___floatfmt 08D3:__SCANFLOAT (0B01: CA) (REF 0A75: .)
            2. 0E 9364 0B60 0000:_ecvt 0034:_fcvt 0372:_gcvt 0513:___floatfmt 08D3:__SCANFLOAT (0B01: 83) (REF 0A96: .)
          50:
            50FF7608FF7606..........8B560C8B460A:
              0. 0C 6C5E 02A8 0000:??0stdiobuf@@REC@PEU_iobuf@@@Z 0056:??_7stdiobuf@@6F@ 007A:??1stdiobuf@@VEC@XZ 00DF:?underflow@stdiobuf@@VECHXZ 01D1:?overflow@stdiobuf@@VECHH@Z 0210:?pbackfail@stdiobuf@@VECHH@Z
            FF7608FF76061EB8....501EB8....501EB8:
              0. 00 0000 003C 0000:_system
          B08150:
            1EB8....50..........B80100501EB8:
              0. 00 0000 0090 0000:__STI___iosst1_cpp_ 0043:__STD___iosst1_cpp_
            B8....50..........B8010050B8:
              0. 02 73E5 007F 0000:__STI___iosst1_cpp_ 003B:__STD___iosst1_cpp_
          B8....50FF760CFF760AFF7608FF7606FF760E:
            0. 07 DA35 09F9 0000:_ecvt 002D:_fcvt 0305:_gcvt 0451:___floatfmt 07C5:__SCANFLOAT (09CA: 5F) (REF 0951: .)
            1. 07 DA35 0A06 0000:_ecvt 002D:_fcvt 0305:_gcvt 0451:___floatfmt 07C5:__SCANFLOAT (09CA: 66) (REF 0958: .)
            2. 07 DA35 0A25 0000:_ecvt 002D:_fcvt 0305:_gcvt 0451:___floatfmt 07C5:__SCANFLOAT (09CA: 50) (REF 0977: .)
          FF76:
            06:
              B8....50B8....50B8....50:
                0. 00 0000 0032 0000:_system
              ..........8B46061F5D4DCB:
                0. 00 0000 001C 0000:?ends@@ZAAAVostream@@AAV1@@Z (REF 0011: ?put@ostream@@RACAAV1@D@Z)
                1. 00 0000 001C 0000:?ws@@ZAAAVistream@@AAV1@@Z (REF 0011: ?ipfx@istream@@RACHH@Z)
            08FF7606..........8B56088B46061F5D:
              0. 02 8681 0022 0000:?ends@@ZAAEVostream@@AEV1@@Z (REF 0014: ?put@ostream@@RECAEV1@D@Z)
              1. 02 8681 0022 0000:?ws@@ZAAEVistream@@AEV1@@Z (REF 0014: ?ipfx@istream@@RECHH@Z)
          ..........:
            1F5D4DCB:
              0. 00 0000 0016 0000:_coreleft
            31C050FF7608FF76061EB8....50:
              0. 04 B98C 002F 0000:MESSAGEFATALERROR
        BA:
          C07F1F5D4DCB:
            0. 00 0000 0013 0000:_nanf
          C17F1F5D4DCB:
            0. 00 0000 0013 0000:_nansf
        C45E0626:
          88472426884725BA....B8....268957:
            0. 10 87D1 0078 0000:??0streambuf@@REC@XZ
            1. 0F 9803 0080 0000:??0streambuf@@REC@XZ
          894728268947102689470C26C7470E00:
            0. 37 6195 0057 0000:?init@ios@@JECXPEVstreambuf@@@Z
      C9:
        837E060074128B5E06803F00740A837E08007403:
          0. CC F663 00EC 0000:_mblen 002A:_mbtowc 0062:_wctomb 0087:_mbstowcs 00BA:_wcstombs
        8B46:
          080B460674:
            12C45E0626380F740A837E0A01:
              0. 0C E8B6 002C 0000:_mblen
            13C45E0626803F00740A837E0A:
              0. DE B36D 00FE 0000:_mblen 002D:_mbtowc 006F:_wctomb 0097:_mbstowcs 00CB:_wcstombs
          0C0B460A74278B46080B4606740DC45E0A26:
            0. 21 0DF1 0041 0000:_mbtowc
        C45E0626380F741D4166FF7606..........83C4:
          0. 17 77AA 0037 (?)0000:__mbslen
    50:
      168D46FC50:
        66FF76:
          0A66FF7606..........8D66FE:
            0. 04 DB7F 0024 0000:_remainderf
          1266FF760E66FF760A66FF7606:
            0. 00 0000 002C 0000:_remainder
        8B46064050..........83C4068B46FC:
          0. 07 72C6 0027 0000:_setdisk
        ..........83C4048B46FC488D66FE1F:
          0. 03 9134 0023 0000:_getdisk
      56:
        57:
          1EC57606:
            8B5E0A8B4E0C01CE4E89F78CD88EC0:
              0. 25 7D4E 0045 0000:?div@_2Comp@@DAHPEEHH@Z
            FC8CD88EC031DB88D88B4E12C47E0A:
              0. 7F ED9B 009F 0000:?xlate@_2Comp@@DAHPEDPEEHHH@Z
          6A:
            00FF76:
              06..........85C0744F8B5E068B77:
                0. 20 70E4 0078 0000:??5istream@@RACAAV0@AAD@Z
              08FF7606..........85C0746CC45E:
                0. 39 927E 009B 0000:??5istream@@RECAEV0@AED@Z
            01FF76:
              06..........85C074558B5E068B77:
                0. 5E 5FC8 007E 0000:?peek@istream@@RACHXZ
              08FF7606..........85C07470C45E:
                0. 7C A056 009C 0000:?peek@istream@@RECHXZ
          83:
            3E....00:
              7405..........833E....00740A:
                0. 00 0000 00A6 (l)0000:?push_exception@@ZAPAUEhstack@@PBDP7CHXZIUlargeprimtype@@@Z
              7555BF....BE....FF3457:
                0. 00 0000 007D 0000:__STI_setlc
            7E:
              0A0074:
                22BA....B8....C45E0626895706:
                  0. 10 8AA1 00CC 0000:??0istream_withassign@@REC@XZ (REF 0014: ??_8istream_withassign@@7F@)
                  1. 10 8AA1 00CC 0000:??0ostream_withassign@@REC@XZ (REF 0014: ??_8ostream_withassign@@7F@)
                30BA....B8....C45E0626895706:
                  0. 05 B1B7 00E8 0000:??0iostream_withassign@@REC@XZ
                36BA....B8....C45E0626895706:
                  0. 05 B1B7 0109 0000:??0ifstream@@REC@XZ (REF 0014: ??_8ifstream@@7F@)
                  1. 05 B1B7 0109 0000:??0ofstream@@REC@XZ (REF 0014: ??_8ofstream@@7F@)
                44BA....B8....C45E0626895706:
                  0. 05 B1B7 0125 0000:??0fstream@@REC@XZ
              0E0074118B5E06C74702....83C30653:
                0. 00 0000 0092 0000:??0istream@@RAC@PAVstreambuf@@HPAVostream@@@Z
          8B:
            3E....A1....8946FC:
              666A0066FF7606:
                0. 00 0000 003A 0000:_atof
              6A00FF7606:
                0. 00 0000 0038 0000:_atof
            4E088BD9C60725C746FC00008B76068B7C02:
              0. 61 6637 00EC (l)0000:?intformat@@ZAXAAVostream@@PADHH@Z
            5E06:
              83C3028B378B7402037606F7440AFFFE:
                0. 0A A0F4 00D8 0000:?eatwhite@@ZAXAAVistream@@@Z (REF 00CA: .)
              8B77028B740203F3:
                83:
                  7C0A00740E6A00:
                    0. 01 6690 009A 0000:??5istream@@RACAAV0@AAD@Z
                  C60C803C007416:
                    0. 29 C5D7 0121 0000:?ipfx@istream@@RACHH@Z (REF 00AD: .)
                8B440489C68B4C12:
                  0. 38 ED96 006B 0000:?do_get@istream@@BACDXZ
            76:
              06:
                31FF:
                  47744885F675014656:
                    0. 0C 72E1 0069 0000:?__do_newalloc@@ZAPAXI@Z
                  897EFC8B4E0AFF4E0A85C9744356:
                    0. 00 0000 0070 0000:__mbsnbcmp
                56..........89C783C402FF7608:
                  0. 00 0000 0095 0000:__mbsstr
                8B:
                  460A8B7E0C85C07E078BCF03C8894E:
                    0. 11 8F22 00DD 0000:?buffer_setup@strstreambuf@@BACXPADH0@Z
                  5E088B4E0A01CE4E89F78CD88EC031:
                    0. 23 1986 0043 0000:?div@_2Comp@@DAHPAEHH@Z
                  7E:
                    0A31C9884C12884C13C704....89:
                      0. 28 2059 007A 0000:??0streambuf@@RAC@PADH@Z
                    0C56..........837E0A0475448B:
                      0. 02 DA6B 00BF 0000:_setvbuf
                  FE68..............83C4028946FC:
                    0. 19 307E 0067 0000:_gets
                FC8CD88EC031DB88D88B4E0E8B7E08F3:
                  0. 79 5925 0099 0000:?xlate@_2Comp@@DAHPADPAEHHH@Z
              088B7E0C8B5E0A8B07F7E703C68946FC3B:
                0. 2E 6914 004E 0000:__lfind
              0E8B7E10FF7608FF7606..........83FE:
                0. 07 EA03 00C0 0000:_setvbuf
            7E:
              06:
                31F68976FC8B4E0AFF4E0A85C9743257:
                  0. 00 0000 005F 0000:__mbsncmp
                57..........85C0750D8BC75F5E8D66:
                  0. 0C 0229 0099 0000:??6ostream@@RACAAV0@PBD@Z
                897EFC57..........83C40289C603F7:
                  0. 27 14C2 0047 0000:_strrev
                8B:
                  4D148B55123BCA760689CE2BF2EB02:
                    0. 0B 50F2 00B0 0000:?xsgetn@streambuf@@VACHPADH@Z
                  750E8B4D0C2BF185F67E1356FF760A:
                    0. 01 74B3 00AF 0000:?xsputn@streambuf@@VACHPBDH@Z
                  7608897EFC8BD6803D0074:
                    2F803C00:
                      0. 03 0CDD 006E 0000:__mbsspn
                    41803C00:
                      0. 03 0CDD 006C 0000:__mbscspn
                  F7:
                    803D0074248A058946FC9889C3F6:
                      0. 01 CF00 0046 0000:_strlwr (000B: 20) (REF 0021: .)
                      1. 01 CF00 0046 0000:_strupr (000B: E0) (REF 0021: .)
                    833E....007505..........C41E:
                      0. 00 0000 00A6 0000:_gets
              0C837E0E0074:
                168B5E06C74702....C747:
                  0. 01 207E 0099 0000:??0ostrstream@@RAC@PADHH@Z
                1B8B5E06C74702....C747:
                  0. 01 207E 00A3 0000:??0strstream@@RAC@PADHH@Z
          C4:
            1E....268B7720268B7F1E268B4F1C894EFC:
              0. 03 6328 00BC 0000:_addchars
              1. 03 710B 00BD 0000:_addchars
            5E:
              06268B472E260B472C740EB8FFFF5F5E8D:
                0. 7A 620C 009A 0000:?pbackfail@stdiobuf@@VECHH@Z
              0A26C60725C746FC0000C4760626C47C04:
                0. 83 DCB9 0124 (l)0000:?intformat@@ZAXAEVostream@@PEDHH@Z
          FF7608FF7606..........85C075118B56088B:
            0. 15 160B 00CE 0000:??6ostream@@RECAEV0@PFD@Z
        6A008B56088B460683C0:
          0A5250..........C746:
            0. 24 948E 0044 0000:?unfreeze@ostrstream@@RECXXZ
          145250..........C746:
            0. 24 948E 0044 0000:?unfreeze@strstream@@RECXXZ
        837E:
          080074:
            138B5E06C74702....6A0083C30853:
              0. 00 0000 0067 0000:??0istream_withassign@@RAC@XZ (REF 0018: ??_8istream_withassign@@7B@)
              1. 00 0000 0067 0000:??0ostream_withassign@@RAC@XZ (REF 0018: ??_8ostream_withassign@@7B@)
            188B5E06C74702....C74708....6A:
              0. 05 24D8 0071 0000:??0iostream_withassign@@RAC@XZ
            1D8B5E06C74702....C7472C....83:
              0. 0A 1258 007F 0000:??0ifstream@@RAC@XZ (REF 0018: ??_8ifstream@@7B@)
              1. 0A 1258 007F 0000:??0ofstream@@RAC@XZ (REF 0018: ??_8ofstream@@7B@)
            228B5E06C74702....C7472C....C7:
              0. 02 B816 0089 0000:??0fstream@@RAC@XZ
          0A0074118B5E06C74702....83C30453:
            0. 00 0000 0079 0000:??0ostream@@RAC@H@Z
          0C0074118B5E06C74702....83C30453:
            0. 00 0000 007F 0000:??0ostream@@RAC@HPAD@Z
        8B:
          460A30E4C45E0683C30C268B0F81E180000BC1:
            0. 32 75DD 0052 0000:?clear@ios@@RECXH@Z
          5E:
            06F6471880B800087502B4048946FC50:
              0. 00 0000 0057 0000:?doallocate@filebuf@@NACHXZ
            08F647070274176A02666A00FF7708:
              0. 00 0000 017A 0000:__flushbu
          76:
            06:
              1E8BC6C1E00405....50..........83C4:
                0. 0C FDC3 006A 0000:_chsize
              56..........83C40283FAFF753083F8FF:
                0. 06 2353 0058 0000:_creatnew
              8BC66BC80E81C1....51..........83C4:
                0. 0C FA2E 0069 0000:_chsize
              A1....8946FC56..........85C0750A31:
                0. 0B 9783 0056 0000:_winio_setcurrent
            08837E06007514FF760A56..........83C4:
              0. 09 84CA 006A 0000:__getdcwd
        C45E0626C47704268B4402C4760603F083C61426:
          0. 18 0C64 0047 0000:?str@strstream@@RECPEDXZ
          1. 18 82F1 0047 0000:?str@ostrstream@@RECPEDXZ
        FF76:
          06..........8B5E06C707....:
            8B46088947:
              0. 04 2E96 006D 0000:??0stdiobuf@@RAC@PAU_iobuf@@@Z
              1. 17 9D1F 0080 0000:??0filebuf@@RAC@H@Z
            C74716FFFF:
              0. 13 D231 007C 0000:??0filebuf@@RAC@XZ
          08FF7606..........8946FC83F8FF7519BA:
            0. 31 BCEF 0051 (?)0000:?get@istream@@RECAEV1@AED@Z
      578B7E06:
        57..........8946FC83F8FF7510B90300:
          0. 21 EAD0 0041 (?)0000:?get@istream@@RACAAV1@AAD@Z
        6A008D45:
          0650..........C746FC00008A:
            0. 17 01DB 0037 0000:?unfreeze@ostrstream@@RACXXZ
          0C50..........C746FC00008A:
            0. 17 01DB 0037 0000:?unfreeze@strstream@@RACXXZ
        8B5D028B5F0203DF83C30C8A070C019889:
          0. 0B 3C6B 003A 0000:?str@strstream@@RACPADXZ
          1. 0B 4C96 003A 0000:?str@ostrstream@@RACPADXZ
        8D5D16B8FFFF3907895EFC75098B4E0A89:
          0. 19 1F08 008D 0000:?attach@filebuf@@RACPAV1@HH@Z
      66FF760A66FF36....1E68....68....68....68:
        0. 00 0000 0043 0000:??5istream@@RECAEV0@AEN@Z
      803E....00750CB801008D66FE1F5D4DCA02008CD8:
        0. 0D CE76 0057 0000:WEP (0029: 00)
        1. 0D CE76 0059 0000:WEP (0029: CA)
      83:
        3E....0075:
          03E9F700FF36....1E68:
            0. 00 0000 0182 0000:_new_rect
          06C706........813E........731C:
            0. 01 FB44 008E 0000:_exit_PUSHSTATE
        7E06007513FF760C66FF7608..........8D66FE:
          0. 04 DB7F 006F 0000:__getdcwd
      8B5E088B078946FC8D46FC50FF7606..........83:
        0. 22 CDC1 0042 0000:_allocmem
      8D46FC50:
        66FF76:
          0A66FF7606..........8D66FE1F:
            0. 03 9134 0023 0000:_remainderf
          1266FF760E66FF760A66FF7606:
            0. 00 0000 002B 0000:_remainder
        8B46064050..........83C4048B46FC8D:
          0. 06 DF15 0026 0000:_setdisk
        ..........83C4028B46FC488D66FE1F5D:
          0. 02 8681 0022 0000:_getdisk
      A1....0B06....:
        7406FF1E....EB05..........A1:
          0. 00 0000 0035 0000:?unexpected@@ZAXXZ
        750AC706........8C1E....B8:
          0. 00 0000 00AD 0000:_exit_PUSHSTATE
      C45E08268B078946FC168D46FC50FF7606:
        0. 00 0000 0045 0000:_allocmem
      FF76:
        06..........83C4028846FC30E4B9FFFF3BC1:
          0. 05 99F4 0058 0000:_getw
        08:
          FF:
            36....68....68....68....68....68:
              0. 00 0000 0039 0000:??5istream@@RACAAV0@AAN@Z
            7606..........83C404:
              83FAFF753983F8:
                0. 0C 1A74 0061 0000:_creatnew
              8846FC30E4B9FF:
                0. 0B 02AA 005E 0000:_getw
              8946FC83F8FF75:
                0. 02 B446 003C 0000:__dos_creat (REF 0012: _dos_creat)
                1. 02 B446 003C 0000:__dos_open (REF 0012: _dos_open)
          ..........83C4028946FC3D0010720AB8FF:
            0. 15 2DA5 0035 0000:__fmsize
        0A66FF7606..........83C4068946FC83F8FF:
          0. 03 5A36 003E 0000:__dos_creat (REF 0013: _dos_creat)
          1. 03 5A36 003E 0000:__dos_open (REF 0013: _dos_open)
    56:
      31:
        C08B5E063907740B89DE83C60240833C0075F75E:
          0. 04 DB7F 0024 0000:_wcslen
        F6:
          8B46080B4606750D..........:
            09C0787B31F6:
              0. 2F 5F19 00A0 0000:_fflush
            3BC6787531F6:
              0. 2F AE85 009A 0000:_fflush
          C45E06268A079850..........83C40285C074:
            0. 1E 586F 003E 0000:__tcsnextc
          C706....010066FF761666FF761266FF760EFF:
            0. 09 0D0A 013B 0000:_fnsplit
      57:
        1E:
          8B4606D1E0D1E0D1E0D1E005....50:
            0. 00 0000 00A9 0000:_chsize 006C:_chmod
          C5:
            5606B80043..........721980E1FE89CB8A:
              0. 0C A310 0049 0000:_chmod
            7606C47E0A8A460EB429CD211F3DFF007509:
              0. 18 2D38 0038 0000:_parsfnm
        31:
          C0C45E062689470826C47704268B4C02C47606:
            0. 40 34D7 00D5 0000:?do_ipfx@istream@@JECHH@Z
          FF:
            89FE8B4E0EFF4E0E85C974:
              47FF7608FF7606:
                0. 00 0000 006B 0000:__mbsncmp
              56FF7608FF7606:
                0. 00 0000 007A 0000:__mbsnbcmp
            BE....:
              8BC62D....B90E0099F7F989C301DB:
                0. 02 9FE4 0042 0000:__rmtmp
              EB:
                11F6440683740856..........59:
                  0. 06 AB95 0032 0000:_flushall (REF 001B: _fflush)
                  1. 06 AB95 0032 0000:_fcloseall (REF 001B: _fclose)
                14F6440A83740B1E56:
                  0. 09 2683 0035 0000:_flushall (REF 001C: _fflush)
                  1. 09 2683 0035 0000:_fcloseall (REF 001C: _fclose)
              F644:
                0683740A56..........4783C4:
                  0. 06 FD83 0032 0000:_fcloseall (REF 0019: _fclose)
                  1. 06 FD83 0032 0000:_flushall (REF 0019: _fflush)
                0A83740B1E56..........4783:
                  0. 07 1B5B 0033 0000:_fcloseall (REF 001A: _fclose)
                  1. 07 1B5B 0033 0000:_flushall (REF 001A: _fflush)
        66:
          680000F03F666A008B56088B4606:
            0. 04 F7FE 0037 0000:_atanf
          FF76:
            06..........89C683C40466FF760A:
              0. 00 0000 00A9 0000:__mbsstr
            0A8B56088B4606..........50535152:
              0. 00 0000 0032 0000:_frexpf
        68:
          0010..........89C68D4E0C51FF760A56:
            0. 00 0000 0053 0000:_winio_warn
          ..............:
            83C40289C685F6751168:
              0. 00 0000 0056 0000:_tab_sizegetenv
            89C683C402837E0600751F6A:
              0. 02 F438 0065 0000:_system
        6A01FF76:
          06..........85C074548B5E068B7702:
            0. 1F 382C 0081 0000:?get@istream@@RACHXZ
          08FF7606..........85C07471C45E06:
            0. 38 786E 00A2 0000:?get@istream@@RECHXZ
        83:
          3E....00:
            74:
              2466FF760A66FF7606:
                0. 17 1433 00DB 0000:_modf
              268B56088B4606..........5053:
                0. 02 FFB4 00CB 0000:_modff
              27..........8B0E....81E13F00:
                0. 03 89AB 004D 0000:_fegetenv (0027: 5D)
                1. 03 89AB 004B 0000:_fegetenv (0027: CB)
              288B56088B4606..........5053:
                0. 02 FFB4 00D1 0000:_modff
            7506C706........813E........72:
              0. 0B 0ED1 00FA 0000:_exit_PUSHSTATE 0071:_exit_popstate
          7E:
            080074:
              148B5E06C74702....31C05083C306:
                0. 01 6690 0047 0000:??0ostream@@JAC@XZ (0025: 00)
                1. 01 6690 004C 0000:??0istream@@JAC@XZ (0025: 1F)
              188B5E06C74702....83C304538B46:
                0. 05 107A 00A3 0000:??0fstream_common@@JAC@XZ
              198B5E06C74702....C74708....31:
                0. 06 7DA1 006B 0000:??0iostream@@JAC@XZ
            0A0074:
              148B5E06C74702....FF760883C3:
                06:
                  0. 01 6690 0047 0000:??0ostream@@RAC@PAVstreambuf@@@Z (0025: 00)
                  1. 01 6690 004C 0000:??0istream@@RAC@PAVstreambuf@@@Z (0025: 1F)
                08:
                  0. 01 6690 0116 0000:??0istream_withassign@@RAC@PAVstreambuf@@@Z 0057:??1istream_withassign@@VAC@XZ (REF 002D: ??0istream@@JAC@XZ)
                  1. 01 6690 0116 0000:??0ostream_withassign@@RAC@PAVstreambuf@@@Z 0057:??1ostream_withassign@@VAC@XZ (REF 002D: ??0ostream@@JAC@XZ)
              198B5E06C74702....C74708....FF:
                0. 06 0767 0130 0000:??0iostream_withassign@@RAC@PAVstreambuf@@@Z 0061:??1iostream_withassign@@VAC@XZ
                1. 06 B754 006B 0000:??0iostream@@RAC@PAVstreambuf@@@Z
              1FBA....B8....C45E062689570626:
                0. 0C 1706 00CA 0000:??0fstreambase@@REC@XZ (REF 0013: ??_8fstreambase@@7F@)
                1. 0C 1706 00CA 0000:??0strstreambase@@JEC@XZ (REF 0013: ??_8strstreambase@@7F@)
              23BA....B8....C45E062689570626:
                0. 10 730E 0074 0000:??0ostream@@JEC@XZ (0043: 00)
                1. 10 730E 0078 0000:??0istream@@JEC@XZ (0043: 5D)
              31BA....B8....C45E062689570626:
                0. 04 11DF 00AF 0000:??0iostream@@JEC@XZ
            0C0074:
              188B5E06C74702....83C306538B46:
                0. 05 A049 0552 0000:??0istrstream@@RAC@PADH@Z 006B:??1istrstream@@VAC@XZ 0104:??0ostrstream@@RAC@XZ 016A:??0ostrstream@@RAC@PADHH@Z 01F0:??1ostrstream@@VAC@XZ 0289:?str@ostrstream@@RACPADXZ 02CB:?unfreeze@ostrstream@@RACXXZ 030C:??0strstream@@RAC@XZ 037C:??0strstream@@RAC@PADHH@Z 0426:??1strstream@@VAC@XZ 04CF:?str@strstream@@RACPADXZ 0511:?unfreeze@strstream@@RACXXZ
              1D8B5E06C74702....C7472C....83:
                0. 0A 1258 007B 0000:??0ifstream@@RAC@HH@Z (REF 0018: ??_8ifstream@@7B@)
                1. 0A 1258 007B 0000:??0ofstream@@RAC@HH@Z (REF 0018: ??_8ofstream@@7B@)
              1FBA....B8....C45E062689570626:
                0. 0C 1706 00CE 0000:??0fstreambase@@REC@H@Z
              228B5E06C74702....C7472C....C7:
                0. 02 B816 0085 0000:??0fstream@@RAC@HH@Z
            0E0074:
              1D8B5E06C74702....C7472C....83:
                0. 0A 1258 007E 0000:??0ifstream@@RAC@PBDHH@Z (REF 0018: ??_8ifstream@@7B@)
                1. 0A 1258 007E 0000:??0ofstream@@RAC@PBDHH@Z (REF 0018: ??_8ofstream@@7B@)
              1FBA....B8....C45E062689570626:
                0. 0C 1B73 00AF 0000:??0istream@@REC@PEVstreambuf@@@Z
                1. 0C A3C6 00A7 0000:??0ostream@@REC@PEVstreambuf@@@Z
              228B5E06C74702....C7472C....C7:
                0. 02 B816 0088 0000:??0fstream@@RAC@PBDHH@Z
              25BA....B8....C45E062689570626:
                0. 12 6D0F 0076 0000:??0ostream@@REC@PEVstreambuf@@@Z (0043: 00)
                1. 12 6D0F 007A 0000:??0istream@@REC@PEVstreambuf@@@Z (0043: 5D)
                2. 12 B4D9 01AB 0000:??0ostream_withassign@@REC@PEVstreambuf@@@Z 0088:??_7ostream_withassign@@6F@ 008C:??_7ostream_withassign@@6Fios@@@ 0090:??_8ostream_withassign@@7F@ 0094:??1ostream_withassign@@VEC@XZ (REF 0041: ??0ostream@@JEC@XZ)
                3. 12 B4D9 01AB 0000:??0istream_withassign@@REC@PEVstreambuf@@@Z 0088:??_7istream_withassign@@6F@ 008C:??_7istream_withassign@@6Fios@@@ 0090:??_8istream_withassign@@7F@ 0094:??1istream_withassign@@VEC@XZ (REF 0041: ??0istream@@JEC@XZ)
              2DBA....B8....C45E062689570626:
                0. 04 11DF 00FF 0000:??0iostream@@REC@PEVstreambuf@@@Z
              33BA....B8....C45E062689570626:
                0. 04 11DF 00B1 0000:??0iostream@@REC@PEVstreambuf@@@Z (007F: 89)
                1. 04 11DF 01EB 0000:??0iostream_withassign@@REC@PEVstreambuf@@@Z 00A4:??_7iostream_withassign@@6F@ 00A8:??_7iostream_withassign@@6Fios@@@ 00AC:??_7iostream_withassign@@6Fostream@@@ 00B0:??_8iostream_withassign@@7F@ 00B4:??_8iostream_withassign@@7Fostream@@@ 00B8:??1iostream_withassign@@VEC@XZ (007F: 00)
              36BA....B8....C45E062689570626:
                0. 04 11DF 00C4 0000:??0ifstream@@REC@HH@Z (REF 0013: ??_8ifstream@@7F@)
                1. 04 11DF 00C4 0000:??0ofstream@@REC@HH@Z (REF 0013: ??_8ofstream@@7F@)
              44BA....B8....C45E062689570626:
                0. 04 11DF 00E0 0000:??0fstream@@REC@HH@Z
            100074:
              1D8B5E06C74702....C7472C....83:
                0. 0A 1258 0091 0000:??0ifstream@@RAC@HPADHH@Z (REF 0018: ??_8ifstream@@7B@)
                1. 0A 1258 0091 0000:??0ofstream@@RAC@HPADHH@Z (REF 0018: ??_8ofstream@@7B@)
              228B5E06C74702....C7472C....C7:
                0. 02 B816 009B 0000:??0fstream@@RAC@HPADHH@Z
              28BA....B8....C45E062689570626:
                0. 15 1BEF 07A3 0000:??0istrstream@@REC@PEDH@Z 00A4:??_7istrstream@@6F@ 00A8:??_7istrstream@@6Fios@@@ 00AC:??_8istrstream@@7F@ 00B0:??1istrstream@@VEC@XZ 0180:??0ostrstream@@REC@XZ 021B:??0ostrstream@@REC@PEDHH@Z 02E2:??_7ostrstream@@6F@ 02E6:??_7ostrstream@@6Fios@@@ 02EA:??_8ostrstream@@7F@ 02EE:??1ostrstream@@VEC@XZ 03BE:?str@ostrstream@@RECPEDXZ 040F:?unfreeze@ostrstream@@RECXXZ 045C:??0strstream@@REC@XZ 0511:??0strstream@@REC@PEDHH@Z 060A:??_7strstream@@6F@ 060E:??_7strstream@@6Fios@@@ 0612:??_7strstream@@6Fostream@@@ 0616:??_8strstream@@7F@ 061A:??_8strstream@@7Fostream@@@ 061E:??1strstream@@VEC@XZ 0705:?str@strstream@@RECPEDXZ 0756:?unfreeze@strstream@@RECXXZ
            120074:
              1FBA....B8....C45E062689570626:
                0. 0C 1706 00DE 0000:??0fstreambase@@REC@PFDHH@Z (00A2: 00)
                1. 0C 1706 00D4 0000:??0fstreambase@@REC@HPEDH@Z (00A2: 08)
              36BA....B8....C45E062689570626:
                0. 04 11DF 00CA 0000:??0ifstream@@REC@PFDHH@Z (REF 0013: ??_8ifstream@@7F@)
                1. 04 11DF 00CA 0000:??0ofstream@@REC@PFDHH@Z (REF 0013: ??_8ofstream@@7F@)
              44BA....B8....C45E062689570626:
                0. 04 11DF 00E6 0000:??0fstream@@REC@PFDHH@Z
            140074:
              1FBA....B8....C45E062689570626:
                0. 0C 1706 00D6 0000:??0strstreambase@@JEC@PEDH0@Z
              36BA....B8....C45E062689570626:
                0. 04 11DF 00DE 0000:??0ofstream@@REC@HPEDHH@Z (00B8: 10) (REF 0013: ??_8ofstream@@7F@)
                1. 04 11DF 00DE 0000:??0ifstream@@REC@HPEDHH@Z (00B8: 10) (REF 0013: ??_8ifstream@@7F@)
                2. 04 11DF 0113 0000:??0ofstream@@REC@HPEDHH@Z (00B8: CF) (REF 0013: ??_8ofstream@@7F@)
                3. 04 11DF 0113 0000:??0ifstream@@REC@HPEDHH@Z (00B8: CF) (REF 0013: ??_8ifstream@@7F@)
              44BA....B8....C45E062689570626:
                0. 04 11DF 00FA 0000:??0fstream@@REC@HPEDHH@Z (00D4: 10)
                1. 04 11DF 012F 0000:??0fstream@@REC@HPEDHH@Z (00D4: EB)
        8B:
          16....A1....:
            8B4E088B5E0683C304C4760626:
              0. 1C 0539 003C 0000:?spacing@@ZAAEVostream@@AEV1@@Z (REF 000E: ?spacing@ios@@2JF)
              1. 1C 0539 003C 0000:?stickywidth@@ZAAEVostream@@AEV1@@Z (REF 000E: ?stickywidth@ios@@2JF)
            F7D2F7D08B4E088B5E0683C304:
              0. 20 322B 0040 0000:?nospacing@@ZAAEVostream@@AEV1@@Z
          46:
            06:
              8B:
                76088BFE8BD8803F007425803C007416:
                  0. 28 B8E0 0048 0000:_strpbrk
                D88B77028B7C0203FB83C7028065:
                  06F1:
                    0. 0C 8584 002C 0000:?internal@@ZAAAVostream@@AAV1@@Z
                    1. 0C AAC4 002C 0000:?rightjust@@ZAAAVostream@@AAV1@@Z
                    2. 0C B560 002C 0000:?leftjust@@ZAAAVostream@@AAV1@@Z
                  07E7:
                    0. 0C A2A8 002C 0000:?scientific@@ZAAAVostream@@AAV1@@Z
                    1. 0C FC28 002C 0000:?fixed@@ZAAAVostream@@AAV1@@Z
              B90E00F7E105....50..........5909C0:
                0. 1B 6EB6 00A0 0000:_chsize 0065:_chmod
            08:
              0B46067508C74606....8C5E08803E:
                0. 05 310B 0261 0000:_tmpnam 009A:_tmpfile 00F7:_tempnam
              C1E00250..........83C40289C685F674:
                0. 15 AF67 0072 0000:?usersize@ios@@BACXH@Z
          4E:
            06:
              31C08BD98B77083B770A73108D7F0A803C:
                0. 13 9626 0033 0000:?newlines@filebuf@@BACHXZ
              6B:
                C10605....8CD9890E....A3....8B56:
                  0. 19 F8EF 00FC 0000:_disp_box
                C90681C1....890E....8B5608C1E208:
                  0. 12 2C5E 00F0 0000:_disp_box
              8B:
                C183C0028BD98B7702034402:
                  89C68B54:
                    0. 1A 0FDD 003A 0000:?rightjust@@ZAAAVostream@@AAV1@@Z
                    1. 1A 1A7B 003A 0000:?scientific@@ZAAAVostream@@AAV1@@Z
                    2. 1A 5CE1 003A 0000:?leftjust@@ZAAAVostream@@AAV1@@Z
                    3. 1A 8C88 003A 0000:?fixed@@ZAAAVostream@@AAV1@@Z
                    4. 1A A9A5 003A 0000:?internal@@ZAAAVostream@@AAV1@@Z
                  8B16:
                    0. 02 9633 0034 0000:?spacing@@ZAAAVostream@@AAV1@@Z (0011: CB) (REF 001E: ?spacing@ios@@2JB)
                    1. 02 9633 0034 0000:?stickywidth@@ZAAAVostream@@AAV1@@Z (0011: CB) (REF 001E: ?stickywidth@ios@@2JB)
                    2. 02 9633 0038 0000:?nospacing@@ZAAAVostream@@AAV1@@Z (0011: 5E)
                F983C7028BD98B7702037C0280:
                  4D:
                    0680:
                      0. 08 9B24 0028 0000:?showbase@@ZAAAVostream@@AAV1@@Z
                    07:
                      01:
                        0. 08 9B24 0028 0000:?showpoint@@ZAAAVostream@@AAV1@@Z
                      02:
                        0. 08 9B24 0028 0000:?uppercase@@ZAAAVostream@@AAV1@@Z
                  6507E2:
                    0. 0C A598 002C 0000:?floating@@ZAAAVostream@@AAV1@@Z
            08:
              31FF8BF18BD98A079883F82B740C83F82D:
                0. 0A 8D73 006B 0000:?printint@ostream@@BACXPBD@Z
              8B76068CD88EC0BF....1E8ED9A5A5A5A5:
                0. 04 BF81 003E 0000:_fesetenv
              B45B8B5606..........730850:
                0. 00 0000 0030 0000:__dos_creatnew
            0A:
              83F921723C83F928773789CBC1E3028BB7:
                0. 00 0000 0059 0000:_winio_wmkeydown
              B45B1EC55606..........1F730850:
                0. 00 0000 0033 0000:__dos_creatnew
          56:
            06:
              8B7E0885D27505..........85FF7505:
                0. 00 0000 006C (l)0000:?pop_exception@@ZAPAUEhstack@@PAUStaticvar@@PAU1@@Z
              B80043..........721980E1FE89CB8A4E:
                0. 0B CA8E 0046 0000:_chmod
            088B4606:
              8B4E0C8B5E0A:
                E8....89CA89D85F:
                  0. 05 A858 0025 0000:__aFulrem
                ..........89CA89:
                  0. 07 794C 0027 0000:__aFulrem
              ..........50535152:
                0. 00 0000 002E 0000:_expf (000D: CB) (REF 001C: _exp)
                1. 00 0000 002E 0000:_tanf (000D: CB) (REF 001C: _tan)
                2. 00 0000 002E 0000:_sqrtf (000D: CB) (REF 001C: _sqrt)
                3. 00 0000 002E 0000:_tanhf (000D: CB) (REF 001C: _tanh)
                4. 00 0000 0071 0000:_expm1f (000D: 08)
                5. 03 C604 0322 0000:_sqrtf 002E:_sqrt 02C5:_hypot (02FD: 4D)
                6. 03 C604 0321 0000:_sqrtf 002E:_sqrt 02C4:_hypot (02FD: CB)
                7. 03 C604 039A 0000:_tanf 002E:_tan (02FD: F6)
                8. 03 C604 039C 0000:_tanf 002E:_tan (02FD: 56)
                9. 03 C604 0360 0000:_expm1f 0071:_expm1 00D7:_expf 0105:_exp (02FD: 0E)
                10. 03 C604 035E 0000:_expm1f 0071:_expm1 00D7:_expf 0105:_exp (02FD: 53)
            0C8B460A..........505351528B56088B46:
              0. 01 4E95 0C8B 0000:_powf 00F1:_pow (0C69: CB)
              1. 01 4E95 0CCC 0000:_powf 00F1:_pow (0C69: 5E)
              2. 01 4E95 003D 0000:_atan2f (REF 002B: _atan2)
              3. 01 4E95 003D 0000:_powf (REF 002B: _pow)
          5E:
            06:
              807F240075:
                57538B37FF5C10837E100175:
                  0. 23 CAD2 008A 0000:?seekoff@filebuf@@VAC?AVstreampos@@Vstreamoff@@W4relative_to@ios@@H@Z
                64538B37FF5C10B801003946:
                  0. 24 A116 0092 0000:?seekoff@filebuf@@VAC?AVstreampos@@Vstreamoff@@W4relative_to@ios@@H@Z
              83C3028B378B7402037606C74402....8B:
                0. 04 5EFA 005F 0000:??1istream_withassign@@VAC@XZ (REF 001D: ??_Qistream_withassign@@6Bios@@@)
                1. 04 5EFA 005F 0000:??1ostream_withassign@@VAC@XZ (REF 001D: ??_Qostream_withassign@@6Bios@@@)
              8B:
                560A8B4E0C8B7E0E8B76108A4608B45C:
                  0. 0D 5D9A 0038 0000:__dos_lock
                77:
                  028B740203F3:
                    807C0C0075478B4404:
                      0. 4F 16C6 006F 0000:?putback@istream@@RACAAV1@D@Z
                    F644088675608B4404:
                      0. 3C 8D24 0088 0000:?putback@istream@@RACAAV1@D@Z
                  0831C989DF83C70AEB07803C0A7501:
                    0. 12 F351 0032 0000:?newlines@filebuf@@BACHXZ
              C74706....83C3028B:
                378B7402037606C7:
                  0. 02 530D 0064 0000:??1iostream_withassign@@VAC@XZ
                76068B7C02035D02:
                  0. 02 5AFC 00A9 0000:??1iostream@@VAC@XZ
              F647188074:
                318B7F0E4F8B770489D983C1:
                  0. 39 BA72 007A 0000:?flushbuf@filebuf@@BACHXZ
                348B77048B7F0E4F3B7F0C72:
                  0. 3C 3A14 0075 0000:?flushbuf@filebuf@@BACHXZ
            088B7E061E0730C0B9FFFFF2AEF7D14989CA:
              0. 27 10F3 0047 0000:_strrchr
              1. 26 24DE 0046 0000:_strrchr
          76:
            06:
              09F675014656..........5989C709C075:
                0. 03 22A1 003D 0000:??2@ZAPAXI@Z
              1E078B7E088A460AB429CD213DFF00B800:
                0. 0B 4194 002B 0000:_parsfnm
              31FF:
                09F6750D..........09C0785931FF:
                  0. 28 BAB7 007F 0000:_fflush
                85F6750D..........3BC7785231FF:
                  0. 26 293D 0078 0000:_fflush
                8A049850..........83C40285C074:
                  0. 17 4D3D 0037 0000:__tcsnextc
              680004..........83C40289C785FF750B:
                0. 25 E98B 0045 0000:?doallocate@streambuf@@NACHXZ
              837C16FF:
                7413837C0800740856:
                  0. 00 0000 004D 0000:?sync@filebuf@@VACHXZ
                75:
                  05C7441A0000837C1A00750A:
                    0. 3B BD2E 0084 0000:?close@filebuf@@RACPAV1@XZ
                  2231FF8B4E0A894C18F6C10A:
                    0. 19 8CE3 00E5 0000:?open@filebuf@@RACPAV1@PBDHH@Z
                    1. 19 E6CF 00EC 0000:?open@filebuf@@RACPAV1@PBDHH@Z
              8B:
                4E08:
                  89F78CD88EC0F9FCACF6D01400AA:
                    0. 08 7533 0028 0000:?negate@_2Comp@@DAXPAEH@Z
                  8B:
                    560A8BFEEB058BDE46880F8BC2:
                      0. 12 AF1A 0032 0000:_strnset
                    FEEB058BDE46880F803C0075F6:
                      0. 08 C983 0028 0000:_strset
                5608:
                  31FF85F6741F56..........83C4:
                    0. 08 C1D9 003F 0000:__mbsrchr
                  8B4E0A8BFE8BC14985C07416803C:
                    0. 1C 85A2 003C 0000:_strnset
                7C0485FF740657..........8B4E0889:
                  0. 24 EBC4 0044 0000:?tie@ios@@RACPAVostream@@PAV2@@Z
                7E:
                  08:
                    803C0074:
                      1E578A049850:
                        0. 00 0000 003D 0000:_fputs
                      50803D00744B8A0C8A15:
                        0. 0A B131 00C3 0000:__mbscmp (REF 0035: .)
                    85F6742556..........83C4023B:
                      0. 0C 1C8B 0043 0000:__mbschr
                    8B:
                      460A:
                        8BD685C074458BC84885C9:
                          0. 08 49FB 0068 0000:__mbsnbcpy
                        D1E8EB118A148A4C01880D:
                          0. 17 8B87 0037 0000:_swab
                      4C0E8B540C2BCA3BCF7C1A57FF:
                        0. 03 2A1C 004A 0000:?sputn@streambuf@@RACHPBDH@Z
                      4E0C09C9741C498BDF478A178B:
                        0. 60 C03D 0080 0000:_memccpy 003D:_fmemccpy
                      560A:
                        31C085D274:
                          118A0D880C84:
                            0. 12 D18B 0032 0000:_wcstombs
                          138A0D30ED89:
                            0. 14 9116 0034 0000:_mbstowcs
                        D1EA8BCA4A85C974188A04:
                          0. 1C 8839 003C 0000:_swab
                    EB19578A049850..........83C4:
                      0. 1C B6BE 003C 0000:_fputs
                  0AC7441E000085FF750FFF760C:
                    0. 00 0000 00A9 0000:?init@strstreambuf@@BACXPADH0@Z
                  0C837C020074168B4C0685C9740F3B:
                    0. 06 E201 0070 0000:?setb@streambuf@@JACXPAD0H@Z
                FEEB:
                  0D8A049850..........59880446:
                    0. 0D 7E85 002D 0000:_strupr (REF 0018: _toupper)
                    1. 0D 7E85 002D 0000:_strlwr (REF 0018: _tolower)
                  198A1C30FFF687....:
                    0174088A04:
                      0. 19 C0E3 0039 0000:_strlwr (REF 0019: .)
                    0274088A04:
                      0. 19 ADF5 0039 0000:_strupr (REF 0019: .)
              8CD88EC0BF....A5A5A5A5A5833E....00:
                0. 07 E2D5 0037 0000:_fesetenv
              8D5C06F6078074068027FD800F018A4406:
                0. 2A 5B9A 00F0 0000:__fillbuf
              F644160175158B7C1885FF7F03BF200057:
                0. 19 DA0E 0048 0000:?doallocate@strstreambuf@@NACHXZ
            0A8B7E0C83FF0A7534837E08007F2E7C0683:
              0. 1C 26C3 0061 0000:_ltoa
              1. 1C 2CDE 005F 0000:_ltoa
            0EC45E0626C74730000085F6751066FF7610:
              0. 00 0000 0105 0000:?init@strstreambuf@@BECXPEDH0@Z
          7E:
            06:
              09FF75168B460AF7660883C00250:
                0. 00 0000 0118 0000:?__vec_new@@ZAPAXPAXIHP7CPAXXZ@Z 0058:?__vec_delete@@ZAXPAXHIP7CHXZ@Z 00A4:?__vec_ctor@@ZAPAXPAXIHP7CPAXXZ@Z 00DC:?__vec_dtor@@ZAXPAXIHP7CHXZ@Z
              31C08945048B5D028B5F0203DF39470875:
                0. 28 50BC 009D 0000:?do_ipfx@istream@@JACHH@Z
              578B1DFF5F:
                1089C68B4D16BAFFFF3BCA74:
                  0. 02 E3A8 0048 0000:?close@filebuf@@RACPAV1@XZ
                1889C683FEFF7403FF45088B:
                  0. 09 DEED 0029 0000:?sbumpc_special@streambuf@@BACHXZ
              83:
                3E....007505..........8BF7803D00:
                  0. 0E EEE0 0046 0000:_ungets
                FFFF7414FF760868..............83:
                  0. 13 E602 00B6 0000:_fdopen
              85FF:
                74:
                  208B460E0B460C741831F639760A:
                    0. 1B 1927 003B 0000:?__vec_ctor@@ZAPAXPAXIHP7CPAXXZ@Z
                  388B460E0B460C741E8B75FE8BCE:
                    0. 23 7284 0051 0000:?__vec_delete@@ZAXPAXHIP7CHXZ@Z
                75188B460AF7660883C00250:
                  0. 00 0000 005C 0000:?__vec_new@@ZAPAXPAXIHP7CPAXXZ@Z
              8B:
                5D028B5F0203DF:
                  8B470485C0740889C6:
                    0. 10 57B2 0030 0000:?flush@ostream@@RACAAV1@XZ
                  C74702....C705:
                    0. 1F EDF3 003F 0000:??1ostream@@VAC@XZ (REF 001A: ??_Qostream@@6Bios@@@)
                    1. 1F EDF3 003F 0000:??1istream@@VAC@XZ (REF 001A: ??_Qistream@@6Bios@@@)
                5E088B:
                  760A:
                    85F6740B837E0C0074058B:
                      0. 29 AD41 0049 0000:?setg@streambuf@@JACXPAD00@Z
                    89750C89750A85F6740C85:
                      0. 18 9411 0038 0000:?setp@streambuf@@JACXPAD0@Z
                  77028B740203F3FF74048B5D02:
                    0. 09 6306 0038 (?)0000:??4istream_withassign@@RACAAV0@AAVistream@@@Z (000E: 00)
                76:
                  08:
                    83FE017C063936....7D0BB8:
                      0. 11 37A3 0055 (?)0000:?iword@ios@@RACAAJH@Z (0023: 00)
                    8B:
                      560C85D2741A4A8A0C468BDF47:
                        0. 1B 336C 003B 0000:_memccpy
                      D6:
                        803D007449803C00743257:
                          0. 00 0000 006A 0000:__mbspbrk
                        EB198A0C8A053AC8750889F8:
                          0. 1C 54AC 003C 0000:_strpbrk
                      D78BDE803D0074:
                        11803C00740C:
                          0. 20 8DAD 0040 0000:_strspn
                        19803C00740C:
                          0. 1E 244E 003E 0000:_strcspn
                      DF8BD6EB:
                        118A0C8A053AC8740E:
                          0. 18 1C1D 0038 0000:_strcspn
                        128A053AC87409468A:
                          0. 19 72B3 0039 0000:_strspn
                  0A:
                    578B1DFF5F10807D130074:
                      0F837D:
                        0. 07 D611 0084 0000:?setbuf@streambuf@@VACPAV1@PADH@Z
                      11837D:
                        0. 07 A028 007F 0000:?setbuf@streambuf@@VACPAV1@PADH@Z
                    85FF74238B4E0E0B4E0C741B8BCE:
                      0. 1F 235D 003F 0000:?__vec_dtor@@ZAXPAXIHP7CHXZ@Z
                C783C00450..........09C075178BDF:
                  0. 1D D503 003D 0000:?close@fstream_common@@RACXXZ
                DF83C3028B7502035C02:
                  807F0A007518:
                    0. 08 1E70 0042 0000:?opfx@ostream@@RACHXZ
                  8B470209C074:
                    0. 13 C951 0033 0000:?flush@ostream@@RACAAV1@XZ
              BEFFFF837D1A007430817E080040751268:
                0. 05 F8E4 0052 0000:?setmode@filebuf@@RACHH@Z
              FF76:
                0AFF7608:
                  8BC783C00450:
                    0. 35 2AC2 0055 0000:?attach@fstream_common@@RACXHH@Z
                  8D4E065168....68:
                    0. 00 0000 003F 0000:_vsprintf
                0CFF760AFF76088BC783C00450:
                  0. 00 0000 0058 0000:?open@fstream_common@@RACXPBDHH@Z
            08:
              1E0730C0B9FFFFF2AEF7D12BF989FE8B7E:
                0. 1D F96E 003D 0000:_stpcpy
              3B7E0C77248B760A8B4E0A3B4E0E7713FF:
                0. 04 C59A 003E 0000:_disp_fillbox
              8B7606397E06740485FF750831C05F5E1F:
                0. 06 E886 0041 0000:__mbsdec
              F64506327512837E06FF740C837D040075:
                0. 45 C789 0065 0000:_ungetc
                1. 64 EC12 0297 0000:_ungetc 0067:_fseek 01B0:_ftell 0243:_fgetpos 0273:_fsetpos
              FF7606..........8B5E06C707....B810:
                0. 10 5951 007B 0000:??0strstreambuf@@RAC@H@Z
            0A:
              81FF0004734289F8C1E002C45E0603D826:
                0. 17 7D72 006E 0000:_wmhandler_settab
              8B760C8B4E080B4E0674298B4E100B4E0E:
                0. 29 221D 0049 0000:?__vec_dtor@@ZAXPEXIHP7CHXZ@Z
            0C:
              31F6C706....0100FF760E57FF760AFF76:
                0. 04 D71E 00FA 0000:_fnsplit
              837E0E0074:
                188B5E06C74702....83C306:
                  0. 08 495B 007B 0000:??0ostrstream@@RAC@PADHH@Z
                1D8B5E06C74702....C74708:
                  0. 00 0000 0097 0000:??0strstream@@RAC@PADHH@Z
              8B46080B4606:
                74:
                  258B46100B460E741D31:
                    0. 28 8C65 0048 0000:?__vec_ctor@@ZAPEXPEXIHP7CPEXXZ@Z
                  488B46100B460E7428C4:
                    0. 37 62B1 0065 0000:?__vec_delete@@ZAXPEXHIP7CHXZ@Z
                75:
                  1B8BC7F7660A83C00250:
                    0. 00 0000 0159 0000:?__vec_new@@ZAPEXPEXIHP7CPEXXZ@Z 006B:?__vec_delete@@ZAXPEXHIP7CHXZ@Z 00CD:?__vec_ctor@@ZAPEXPEXIHP7CPEXXZ@Z 0113:?__vec_dtor@@ZAXPEXIHP7CHXZ@Z
                  1D8BC7F7660A83C00250:
                    0. 00 0000 006F 0000:?__vec_new@@ZAPEXPEXIHP7CPEXXZ@Z
            0E833E....00741D66FF760A66FF7606:
              0. 00 0000 00C9 0000:_modf
        8CDBC576068B4E0A89F78CD88EC0F9FCACF6D014:
          0. 0C EAC6 002C 0000:?negate@_2Comp@@DAXPEEH@Z
        A0....30E4C1E0088A0E....30ED03C13D03037D:
          0. 0B 7E89 0042 0000:__dos_commit
        A1....0B06....:
          74348B36....C41E....268B57:
            0. 06 CDEB 004F 0000:__sbrk_freeall
          750AC706........8C1E....B8:
            0. 00 0000 0141 0000:_exit_PUSHSTATE 0081:_exit_popstate
        B8:
          00578B5E06CD2172:
            0FC47E0826890D26895502:
              0. 06 3FB1 0034 0000:_getftime
            111E078B7E0826890D2689:
              0. 08 905B 0036 0000:_getftime
          01:
            0050FF76:
              06..........09C0745B8B5E0683:
                0. 27 C0AB 008A 0000:?get@istream@@RACHXZ
              08FF7606..........09C07503E9:
                0. 47 6CE7 00B9 0000:?get@istream@@RECHXZ
            578B5E06:
              1E078B7E08268B0D268B5502CD21:
                0. 08 76B6 0036 0000:_setftime
              C47E08268B0D268B5502CD217205:
                0. 06 3FB1 0034 0000:_setftime
          F03F5031C05050508B56088B4606:
            0. 04 F7FE 0672 0000:_atanf 0037:_atan 0062:_atan2f 009F:_atan2 (064D: CB)
            1. 04 F7FE 0675 0000:_atanf 0037:_atan 0062:_atan2f 009F:_atan2 (064D: 1F)
        BA....B8....C45E0626:
          8957:
            4626894744BA:
              0. 01 BBC9 009A 0000:??1ifstream@@VEC@XZ (REF 000D: ??_Qifstream@@6Fistream@@@)
              1. 01 BBC9 009A 0000:??1ofstream@@VEC@XZ (REF 000D: ??_Qofstream@@6Fostream@@@)
            502689474EBA:
              0. 01 BBC9 00A8 0000:??1fstream@@VEC@XZ
          C47704268B4C02C47606:
            0. 0B 0CF6 006A 0000:??1istream@@VEC@XZ (REF 000D: ??_Qistream@@6Fios@@@)
            1. 0B 0CF6 006A 0000:??1ostream@@VEC@XZ (REF 000D: ??_Qostream@@6Fios@@@)
        C4:
          5E0626:
            807F3A0075:
              5FFF76085326C43726FF5C:
                0. 29 5CBA 0098 0000:?seekoff@filebuf@@VEC?EVstreampos@@Vstreamoff@@W4relative_to@ios@@H@Z
              6FFF76085326C43726FF5C:
                0. 2A 00B3 00A2 0000:?seekoff@filebuf@@VEC?EVstreampos@@Vstreamoff@@W4relative_to@ios@@H@Z
            8B470EC4760A268904C47E06268B4510:
              0. 7F 2C4F 009F 0000:_get_info
            C47704268B4402C4760603F026:
              807C14:
                0. 6E 876F 008E 0000:?putback@istream@@RECAEV1@D@Z
              F64410:
                0. 5C 0877 00B6 0000:?putback@istream@@RECAEV1@D@Z
          7E:
            0631C0B9FFFFF2AEF7D1494151:
              E8....83C4:
                0. 0F C9C2 003C 0000:__nstrdup
              ..:
                0. 11 34DB 003E 0000:__nstrdup
            0A30C0B9FFFFF2AEF7D12BF989FE1E06C47E:
              0. 20 3AE4 0040 0000:_stpcpy
        FF76:
          06..........:
            5989C683FEFF7503E99800FF:
              0. 03 4776 00BF 0000:_fdopen
            83C40289:
              C38D7F0157:
                0. 00 0000 0040 0000:_strdup
              C7037E063B7E0676:
                0. 24 7516 0044 (l)0000:_killzeroes
            89:
              C6FF7608..........89C7:
                0. 0D 6233 004E (l)0000:?__match_name@@ZAHPBD0@Z
              C789FE03760683C4028A0C:
                0. 20 B3B6 0040 0000:_strrchr
          08FF7606:
            C45E0626C43726FF5C:
              1089C7C45E:
                0. 0D 2A2B 005A 0000:?close@filebuf@@RECPEV1@XZ
              1889C783FF:
                0. 14 F0B7 0034 0000:?sbumpc_special@streambuf@@BECHXZ
            ..........83C40483F80372278B:
              0. 05 9F36 05F4 0000:_log1pf 0068:_log1p 00C8:_logf 0111:_log 014E:_log10f 0198:_log10 (00CB: 8E)
              1. 05 9F36 05B3 0000:_log1pf 0068:_log1p 00C8:_logf 010B:_log 0142:_log10f 0186:_log10 (00CB: 89)
              2. 05 9F36 0068 0000:_log1pf
          0A:
            8B56088B4606..........50535152:
              0. 00 0000 0031 0000:_frexpf (REF 001F: _frexp)
              1. 00 0000 0031 0000:_ldexpf (REF 001F: _ldexp)
            ..........83C4029985D27F2C7C053D00:
              0. 0C A84F 009C 0000:_scalbf
        ..........:
          1E68....8B16....A1....BB100E31:
            0. 01 B5AB 0041 (l)0000:_make_tz
          68....8B16....A1....BB100E31C9:
            0. 00 0000 003D (l)0000:_make_tz
          8B16....A1....BB3C0031C9:
            0. 00 0000 0057 0000:__ftime (0036: CB)
            1. 00 0000 0063 0000:__ftime (0036: 26)
      66FF76:
        0A:
          66FF76061EB8....5068....68:
            0. 00 0000 0043 0000:_vprintf
          C45E0626C47704268B44028B56088BF303:
            0. 06 6364 0038 (?)0000:??4istream_withassign@@RECAEV0@PEVstreambuf@@@Z (0011: 00)
        0CFF760A:
          8B56088B460683C0085250C45E06:
            0. 27 D618 0073 0000:?setbuf@fstreambase@@RECXPEDH@Z
          C45E0626C47704268B4402C47606:
            0. 0A 3F98 005C 0000:?write@ostream@@RECAEV1@PFXI@Z
        0EFF760CFF76:
          08FF7606..........8B4612:
            0. 23 66A9 00B3 0000:??0filebuf@@REC@HPEDHH@Z
          0A8B56088B460683C0085250:
            0. 00 0000 0068 0000:?open@fstream_common@@RECXPFDHH@Z
      680002..........83C40289C685F6750AB8FFFF5E:
        0. 11 51E3 0040 0000:?doallocate@streambuf@@NACHXZ
      6A:
        00688100:
          1EB8....50:
            E8....6A011EB8....501E:
              0. 01 361F 0056 0000:___SI___iosold_iosst1_cpp_
            ..........6A011EB8:
              0. 03 E0A5 005A 0000:___SI___iosold_iosst1_cpp_
          B8....50:
            E8....6A01B8....5068:
              0. 01 3E9B 0046 0000:___SI___iosold_iosst1_cpp_
            ..........6A01B8....5068:
              0. 00 0000 004A 0000:___SI___iosold_iosst1_cpp_
        01FF7608FF7606..........85C0744D66FF760C:
          0. 1B 59DC 007F 0000:?read@istream@@RECAEV1@PEXH@Z
      83:
        3E....0074:
          12..........501E68....688000:
            0. 00 0000 0075 0000:_fail
          318B5E068B0F89CE01F68B84....89:
            0. 07 25AA 004A (?)0000:_msm_getpress (0022: CB)
          35C45E06268B0F89CE01F68B84:
            0. 09 75A3 004E (?)0000:_msm_getpress (0024: CB)
        7E:
          080074:
            118B5E06C74702....83C3:
              0453:
                0. 00 0000 0049 0000:??0ostream_withassign@@RAC@XZ (001D: 07)
                1. 00 0000 003F 0000:??0ostream@@JAC@XZ (001D: 04)
              0653:
                0. 00 0000 0049 0000:??0istream_withassign@@RAC@XZ (0023: 1F)
                1. 00 0000 0044 0000:??0istream@@JAC@XZ (0023: 00)
              2853:
                0. 00 0000 0064 0000:??0fstreambase@@RAC@XZ (REF 0017: ??_8fstreambase@@7B@)
                1. 00 0000 0064 0000:??0strstreambase@@JAC@XZ (REF 0017: ??_8strstreambase@@7B@)
            138B5E06C74702....6A0083C30653:
              0. 00 0000 0041 0000:??0ostream@@JAC@XZ (0020: 00)
              1. 00 0000 0046 0000:??0istream@@JAC@XZ (0020: 1F)
            168B5E06C74702....C747:
              08....83C3:
                0. 02 2992 0061 0000:??0iostream@@JAC@XZ (002F: 02)
                1. 02 2992 0053 0000:??0iostream_withassign@@RAC@XZ (002F: 04)
              2A....83C3:
                0. 02 7AD6 0061 0000:??0ifstream@@RAC@XZ
                1. 02 CAE5 0068 0000:??0ostrstream@@RAC@XZ (003E: D8)
                2. 02 CAE5 0061 0000:??0ofstream@@RAC@XZ (003E: 00)
            188B5E06C74702....:
              83C3:
                04538B4606:
                  0. 04 2172 0052 0000:??0fstream_common@@JAC@XZ
                06538B4606:
                  0. 04 9141 0060 0000:??0ostrstream@@RAC@XZ
              C74708....6A00:
                0. 04 3DD8 0063 0000:??0iostream@@JAC@XZ
            1B8B5E06C74702....C7472A....C747:
              0. 01 FBC1 0072 0000:??0strstream@@RAC@XZ (0049: D8)
              1. 01 FBC1 006B 0000:??0fstream@@RAC@XZ (0049: 00)
            1D8B5E06C74702....C74708....83C3:
              0. 09 227D 006A 0000:??0strstream@@RAC@XZ
          0A0074:
            118B5E06C74702....83C3:
              0453:
                0. 00 0000 0054 0000:??0ostream@@RAC@PAVstreambuf@@@Z
              0653:
                0. 00 0000 005B 0000:??0istream@@RAC@PAVstreambuf@@@Z
              2853:
                0. 00 0000 0067 0000:??0fstreambase@@RAC@H@Z
            148B5E06C74702....FF760883C3:
              0653:
                0. 00 0000 0042 0000:??0ostream@@RAC@PAVstreambuf@@@Z (0021: 00)
                1. 00 0000 0047 0000:??0istream@@RAC@PAVstreambuf@@@Z (0021: 1F)
              0853:
                0. 00 0000 0051 0000:??0istream_withassign@@RAC@PAVstreambuf@@@Z (REF 0017: ??_8istream_withassign@@7B@)
                1. 00 0000 0051 0000:??0ostream_withassign@@RAC@PAVstreambuf@@@Z (REF 0017: ??_8ostream_withassign@@7B@)
            168B5E06C74702....C747:
              08....83C3:
                0. 02 2992 0076 0000:??0iostream@@RAC@PAVstreambuf@@@Z
              2A....83C3:
                0. 02 7AD6 006F 0000:??0istrstream@@RAC@PAD@Z (0041: 07)
                1. 02 7AD6 0064 0000:??0ifstream@@RAC@H@Z (0041: 00)
                2. 02 CAE5 0064 0000:??0ofstream@@RAC@H@Z
            198B5E06C74702....C74708....FF76:
              0. 05 0482 005B 0000:??0iostream_withassign@@RAC@PAVstreambuf@@@Z
              1. 05 B4B1 0064 0000:??0iostream@@RAC@PAVstreambuf@@@Z
            1B8B5E06C74702....C7472A....C747:
              0. 01 FBC1 006E 0000:??0fstream@@RAC@H@Z
            1FBA....B8....C45E06268957062689:
              0. 0B 683D 00A2 0000:??0istream_withassign@@REC@XZ (005D: 01)
              1. 0B 683D 008D 0000:??0istream@@JEC@XZ (005D: 00)
              2. 0B D088 00A2 0000:??0ostream_withassign@@REC@XZ (0057: 30)
              3. 0B D088 0087 0000:??0ostream@@JEC@XZ (0057: 00)
            22BA....B8....C45E06268957062689:
              0. 0E EF20 0089 0000:??0ostream@@JEC@XZ (0056: 00)
              1. 0E EF20 008F 0000:??0istream@@JEC@XZ (0056: FF)
            28BA....B8....C45E06268957062689:
              0. 14 2E82 00CF 0000:??0ostrstream@@REC@XZ
              1. 14 3773 00AE 0000:??0fstream_common@@JEC@XZ
            2DBA....B8....C45E06268957062689:
              0. 03 0E31 00DF 0000:??0iostream@@JEC@XZ (00A0: 12)
              1. 03 0E31 00DF 0000:??0ifstream@@REC@XZ (00A0: 4A)
              2. 03 0E31 00EB 0000:??0ostrstream@@REC@XZ (00A0: 00)
              3. 03 0E31 00DF 0000:??0ofstream@@REC@XZ (00A0: 48)
              4. 03 0E31 00BE 0000:??0iostream_withassign@@REC@XZ
            30BA....B8....C45E06268957062689:
              0. 03 0E31 00E3 0000:??0iostream@@JEC@XZ
            36BA....B8....C45E06268957062689:
              0. 03 0E31 00EB 0000:??0strstream@@REC@XZ
            3BBA....B8....C45E06268957062689:
              0. 03 0E31 0107 0000:??0strstream@@REC@XZ (00D2: 00)
              1. 03 0E31 00FB 0000:??0fstream@@REC@XZ (00D2: 40)
          0C0074:
            168B5E06C74702....C7472A....83C3:
              0. 02 7AD6 0070 0000:??0istrstream@@RAC@PADH@Z
            188B5E06C74702....83C306538B4606:
              0. 04 9141 0064 0000:??0istrstream@@RAC@PADH@Z
            1D8B5E06C74702....C7472C....83C3:
              0. 09 690D 0075 0000:??0ifstream@@RAC@HH@Z (REF 0017: ??_8ifstream@@7B@)
              1. 09 690D 0075 0000:??0ofstream@@RAC@HH@Z (REF 0017: ??_8ofstream@@7B@)
            228B5E06C74702....C7472C....C747:
              0. 01 E9E2 007F 0000:??0fstream@@RAC@HH@Z
            2DBA....B8....C45E06268957062689:
              0. 03 0E31 00E3 0000:??0ofstream@@REC@H@Z (00A4: 48)
              1. 03 0E31 00E3 0000:??0ifstream@@REC@H@Z (00A4: 4A)
            3BBA....B8....C45E06268957062689:
              0. 03 0E31 00FF 0000:??0fstream@@REC@H@Z
          0E0074:
            118B5E06C74702....83C32853:
              0. 00 0000 0075 0000:??0fstreambase@@RAC@PBDHH@Z (004C: 46)
              1. 00 0000 006D 0000:??0fstreambase@@RAC@HPADH@Z (004C: 00) (REF 0017: ??_8fstreambase@@7B@)
              2. 00 0000 006D 0000:??0strstreambase@@JAC@PADH0@Z (004C: 00) (REF 0017: ??_8strstreambase@@7B@)
            168B5E06C74702....C7472A....83C3:
              0. 02 7AD6 006D 0000:??0ifstream@@RAC@PBDHH@Z (0047: 4D)
              1. 02 7AD6 006A 0000:??0ifstream@@RAC@HPADH@Z (0047: 00)
              2. 02 CAE5 006D 0000:??0ofstream@@RAC@PBDHH@Z (0047: 4D)
              3. 02 CAE5 006A 0000:??0ofstream@@RAC@HPADH@Z (0047: 00)
            1B8B5E06C74702....C7472A....C747:
              0. 01 FBC1 0074 0000:??0fstream@@RAC@PBDHH@Z (REF 003B: ??0fstreambase@@RAC@PBDHH@Z)
              1. 01 FBC1 0074 0000:??0fstream@@RAC@HPADH@Z (REF 003B: ??0fstreambase@@RAC@HPADH@Z)
            1D8B5E06C74702....C7472C....83C3:
              0. 09 690D 0078 0000:??0ifstream@@RAC@PBDHH@Z (REF 0017: ??_8ifstream@@7B@)
              1. 09 690D 0078 0000:??0ofstream@@RAC@PBDHH@Z (REF 0017: ??_8ofstream@@7B@)
            228B5E06C74702....C7472C....C747:
              0. 01 E9E2 0082 0000:??0fstream@@RAC@PBDHH@Z
            23BA....B8....C45E06268957062689:
              0. 0F 2283 00AC 0000:??0ostream_withassign@@REC@PEVstreambuf@@@Z (REF 0012: ??_8ostream_withassign@@7F@)
              1. 0F 2283 00AC 0000:??0istream_withassign@@REC@PEVstreambuf@@@Z (REF 0012: ??_8istream_withassign@@7F@)
              2. 0F FB55 008B 0000:??0ostream@@REC@PEVstreambuf@@@Z (0057: 00)
              3. 0F FB55 0091 0000:??0istream@@REC@PEVstreambuf@@@Z (0057: FF)
            2DBA....B8....C45E06268957062689:
              0. 03 0E31 00F3 0000:??0istrstream@@REC@PED@Z
            31BA....B8....C45E06268957062689:
              0. 03 0E31 00E3 0000:??0iostream@@REC@PEVstreambuf@@@Z (00A0: FF)
              1. 03 0E31 00C8 0000:??0iostream_withassign@@REC@PEVstreambuf@@@Z (00A0: 00)
            36BA....B8....C45E06268957062689:
              0. 03 0E31 00F9 0000:??0ifstream@@REC@HH@Z (REF 0012: ??_8ifstream@@7F@)
              1. 03 0E31 00F9 0000:??0ofstream@@REC@HH@Z (REF 0012: ??_8ofstream@@7F@)
            44BA....B8....C45E06268957062689:
              0. 03 0E31 0115 0000:??0fstream@@REC@HH@Z
          100074:
            1D8B5E06C74702....C7472C....83C3:
              0. 09 690D 008A 0000:??0ifstream@@RAC@HPADHH@Z (REF 0017: ??_8ifstream@@7B@)
              1. 09 690D 008A 0000:??0ofstream@@RAC@HPADHH@Z (REF 0017: ??_8ofstream@@7B@)
            228B5E06C74702....C7472C....C747:
              0. 01 E9E2 0094 0000:??0fstream@@RAC@HPADHH@Z
            28BA....B8....C45E06268957062689:
              0. 14 2E82 00D5 0000:??0istrstream@@REC@PEDH@Z
            2DBA....B8....C45E06268957062689:
              0. 03 0E31 00F5 0000:??0istrstream@@REC@PEDH@Z
          120074:
            28BA....B8....C45E06268957062689:
              0. 14 2E82 00F9 0000:??0ostrstream@@REC@PEDHH@Z
            2DBA....B8....C45E06268957062689:
              0. 03 0E31 00ED 0000:??0ofstream@@REC@PFDHH@Z (00AA: FF) (REF 0012: ??_8ofstream@@7F@)
              1. 03 0E31 00E9 0000:??0ofstream@@REC@HPEDH@Z (00AA: 48)
              2. 03 0E31 00ED 0000:??0ifstream@@REC@PFDHH@Z (00AA: FF) (REF 0012: ??_8ifstream@@7F@)
              3. 03 0E31 00E9 0000:??0ifstream@@REC@HPEDH@Z (00AA: 4A)
            36BA....B8....C45E06268957062689:
              0. 03 0E31 012D 0000:??0strstream@@REC@PEDHH@Z (00D4: 00)
              1. 03 0E31 00FD 0000:??0ifstream@@REC@PFDHH@Z (00D4: 44) (REF 0012: ??_8ifstream@@7F@)
              2. 03 0E31 00FD 0000:??0ofstream@@REC@PFDHH@Z (00D4: 44) (REF 0012: ??_8ofstream@@7F@)
            3BBA....B8....C45E06268957062689:
              0. 03 0E31 0105 0000:??0fstream@@REC@PFDHH@Z (002E: 0E)
              1. 03 0E31 0105 0000:??0fstream@@REC@HPEDH@Z (002E: 66)
            44BA....B8....C45E06268957062689:
              0. 03 0E31 0119 0000:??0fstream@@REC@PFDHH@Z
      8A4606:
        8B5E088B37FF0788048B460630E45E1F5D4D:
          0. 01 A788 0021 (l)0000:__sprintf
        C45E08268B3726FF07268E47022688048B46:
          0. 08 E84D 0028 (l)0000:__sprintf
      8B:
        16....A1....:
          C45E0626C47704268B4C02C47606:
            0. 14 F9AA 0034 0000:?spacing@@ZAAEVostream@@AEV1@@Z (REF 000D: ?spacing@ios@@2JF)
            1. 14 F9AA 0034 0000:?stickywidth@@ZAAEVostream@@AEV1@@Z (REF 000D: ?stickywidth@ios@@2JF)
          F7D2F7D0C45E0626C47704268B4C:
            0. 18 B9C0 0038 0000:?nospacing@@ZAAEVostream@@AEV1@@Z
        36....833E....007505..........8B440E8944:
          0. 1B B999 0048 0000:?__eh_rethrow@@ZAXXZ
        46:
          068B:
            5E0A8BF0C704....31C9894C02894C0489:
              0. 31 3CBC 0051 0000:??0streambuf@@RAC@PADH@Z
            D88B77028B740203F380:
              4C:
                088089D85E1F:
                  0. 03 9134 0023 0000:?showbase@@ZAAAVostream@@AAV1@@Z
                09:
                  0189D85E1F:
                    0. 03 9134 0023 0000:?showpoint@@ZAAAVostream@@AAV1@@Z
                  0289D85E1F:
                    0. 03 9134 0023 0000:?uppercase@@ZAAAVostream@@AAV1@@Z
              6409E289D85E1F:
                0. 03 9134 0023 0000:?floating@@ZAAAVostream@@AAV1@@Z
          080B460674:
            0C837E08107504837E0600720431:
              0. 20 363E 0275 0000:_farmalloc 0051:_farcalloc 00B5:_farfree 00E3:_farrealloc 01DA:_farcoreleft 01ED:__halloc 0252:__hfree (01AD: 8C)
              1. 20 363E 01ED 0000:_farmalloc 0051:_farcalloc 00B5:_farfree 00E3:_farrealloc 01DA:_farcoreleft
              2. 20 D07F 0053 0000:_farmalloc
            17C45E0626C47704268B44028B56:
              0. 23 8ABE 0043 (?)0000:??5istream@@RECAEV0@P7AAEVios@@AEV1@@Z@Z
          0EA3....8B4E0C890E....8B560A8B5E088916:
            0. 00 0000 00E7 0000:WINMAIN (00BF: C6)
            1. 00 0000 00E0 0000:WINMAIN (00BF: 00)
          100B460E74108B46140B461274088B56148B46:
            0. 53 133F 0073 0000:?setg@streambuf@@JECXPED00@Z
        4E:
          06:
            83F9FF750489C8EB0F8AC1C45E0826FF0F26:
              0. 0B 169F 002B (l)0000:_sungetc
            8B:
              16....A1....:
                8BD98B77028B740203F309:
                  0. 0C CDFF 002C 0000:?spacing@@ZAAAVostream@@AAV1@@Z (REF 0010: ?spacing@ios@@2JB)
                  1. 0C CDFF 002C 0000:?stickywidth@@ZAAAVostream@@AAV1@@Z (REF 0010: ?stickywidth@ios@@2JB)
                F7D2F7D08BD98B77028B74:
                  0. 10 83BC 0030 0000:?nospacing@@ZAAAVostream@@AAV1@@Z
              D9837F1800740AB8FFFF5E1F5D4DCA0400:
                0. 30 3B05 0050 0000:?pbackfail@stdiobuf@@VACHH@Z
            C45E0826F6470A32750F83F9FF740A268B47:
              0. 3C F053 005C 0000:_ungetc
          0C8B5E0A8B46068B560866C1E1108BCB66C1E0:
            0. 45 04DC 0078 0000:_farcalloc
        56:
          088B460683C0:
            04C45E0626C47704260344028E:
              0. 17 185D 0037 0000:?floating@@ZAAEVostream@@AEV1@@Z
              1. 12 2C73 0032 0000:?showpoint@@ZAAEVostream@@AEV1@@Z
              2. 23 481E 0043 0000:?scientific@@ZAAEVostream@@AEV1@@Z
              3. 23 4DD8 0043 0000:?fixed@@ZAAEVostream@@AEV1@@Z
              4. 21 54F0 0041 0000:?internal@@ZAAEVostream@@AEV1@@Z
              5. 21 5E17 0041 0000:?rightjust@@ZAAEVostream@@AEV1@@Z
              6. 12 9F8D 0032 0000:?uppercase@@ZAAEVostream@@AEV1@@Z
              7. 21 DB64 0041 0000:?leftjust@@ZAAEVostream@@AEV1@@Z
              8. 12 F331 0032 0000:?showbase@@ZAAEVostream@@AEV1@@Z
            085250..........89D109C1:
              74:
                0. 1A E615 0066 0000:?close@fstreambase@@RECXXZ
              75:
                0. 26 4B45 0046 0000:?close@fstream_common@@RECXXZ
          0C8B460AC45E062689570626894704:
            26C74708:
              0. 2B 510C 007A 0000:??0ios@@REC@PEVstreambuf@@@Z
            6626C747:
              0. 25 40C6 0072 0000:??0ios@@REC@PEVstreambuf@@@Z
          108B460EC45E06268957162689471426895712:
            0. 35 61AA 0055 0000:?setp@streambuf@@JECXPED0@Z
        5E:
          06:
            83C30AF6078074068027FD800F018B5E068A:
              0. 2C F47A 00EF 0000:__fillbuf
            8B:
              37:
                01F68B84....0906....8B1F01DBFFB7:
                  0. 00 0000 002E 0000:_matherr
                803C0074098B37FF078A0498EB03B8FF:
                  0. 06 7A9D 0026 (l)0000:_sgetc
                D1E68B84....0906....8B1FD1E38B87:
                  0. 00 0000 002C 0000:_matherr
              77028A049885C0740C83F801740A83F802:
                0. 1A BEFF 0043 0000:?name@Type_info@@RBAPBDXZ
          0A:
            31C98B46068B560866C1E1108BCB66C1E010:
              0. 46 97BC 0079 0000:__halloc
            8B0783F801740B85C0741E83F8027430EB5C:
              0. 5F 5179 009A (l)0000:?fxf@@ZAXPANPBDPAH@Z
        76:
          06:
            09F675:
              014656..........595E1F5D4DCB8C:
                0. 0C 39B6 0036 0000:??2@ZAPAXI@Z 001F:??3@ZAXPAX@Z
              0B8B36....833E....007413FF7608:
                0. 01 CBC7 005A 0000:_strtok
            31:
              C0:
                5089C15156..........8B4608894416:
                  0. 02 C1CE 0196 0000:??0stdiobuf@@RAC@PAU_iobuf@@@Z 0035:??1stdiobuf@@VAC@XZ 0080:?underflow@stdiobuf@@VACHXZ 0103:?overflow@stdiobuf@@VACHH@Z 013D:?pbackfail@stdiobuf@@VACHH@Z
                884412884413C704....5050:
                  5056:
                    0. 00 0000 0046 0000:??0streambuf@@RAC@XZ
                  89C15156:
                    0. 00 0000 0048 0000:??0streambuf@@RAC@XZ
                89442089440A894406C74408000166C7:
                  0. 23 D2C8 0043 0000:?init@ios@@JACXPAVstreambuf@@@Z
              C9380C74114156..........83C40289C6:
                0. 0C B1EE 002C (?)0000:__mbslen
            3B36....7D:
              0D89F301DB8B87....A3....EB:
                0. 03 E9FD 003F 0000:_strerror
              1689F3C1E3028B97....8B87:
                0. 00 0000 0052 0000:_strerror
            56..........:
              8B460A8944168B4E08894C18:
                0. 09 0AEB 005C 0000:??0filebuf@@RAC@HH@Z
              C74416FFFFC74418000031C0:
                0. 0E D0FB 0039 0000:??0filebuf@@RAC@XZ
            6A0A56..........56..........8BC65E1F:
              0. 03 9134 0023 0000:?endl@@ZAAAVostream@@AAV1@@Z
            80:
              3C0074:
                148BDE468A079850..........83:
                  0. 0C 8918 002C 0000:_disp_puts
                1F68....8A049850..........83:
                  0. 13 8B2E 0050 0000:_puts
              7C1200:
                74:
                  16F644188074108B44025083C0:
                    0. 05 6D4D 0045 0000:?buffer_setup@filebuf@@BACXXZ
                  17F644188074118B44025083C0:
                    0. 06 2C34 0046 0000:?buffer_setup@filebuf@@BACXXZ
                7525837C0200751FFF760AFF7608:
                  0. 01 CBC7 0042 0000:?setbuf@filebuf@@VACPAVstreambuf@@PADH@Z
            83:
              3C00740883C602833C0075F88B44025E1F:
                0. 03 9134 0023 0000:___seek_envp
              7C02007506807C1200740931C05E1F5D4D:
                0. 10 D2C7 0030 0000:?allocate@streambuf@@JACHXZ
              7E0800750D56..........31F683C402EB:
                0. 03 A2FD 0043 0000:__expand
              FE0176:
                2D83FE2077286A0268....56:
                  0. 00 0000 0045 0000:_tab_sizeputenv
                3083FE20772B6A021E68....56:
                  0. 00 0000 0048 0000:_tab_sizeputenv
            85F6:
              74:
                1556..........F6460801740956:
                  0. 00 0000 0030 0000:??_Gfilebuf@@VACPAXI@Z (REF 0014: ??1filebuf@@VAC@XZ)
                  1. 00 0000 0030 0000:??_Gfstreambase@@VACPAXI@Z (REF 0014: ??_Dfstreambase@@VACXXZ)
                  2. 00 0000 0030 0000:??_Gifstream@@VACPAXI@Z (REF 0014: ??_Difstream@@VACXXZ)
                  3. 00 0000 0030 0000:??_Gofstream@@VACPAXI@Z (REF 0014: ??_Dofstream@@VACXXZ)
                  4. 00 0000 0030 0000:??_Gfstream@@VACPAXI@Z (REF 0014: ??_Dfstream@@VACXXZ)
                  5. 00 0000 0030 0000:??_Gios@@VACPAXI@Z (REF 0014: ??1ios@@VAC@XZ)
                  6. 00 0000 0030 0000:??_Giostream@@VACPAXI@Z (REF 0014: ??_Diostream@@VACXXZ)
                  7. 00 0000 0030 0000:??_Giostream_withassign@@VACPAXI@Z (REF 0014: ??_Diostream_withassign@@VACXXZ)
                  8. 00 0000 0030 0000:??_Gistream@@VACPAXI@Z (REF 0014: ??_Distream@@VACXXZ)
                  9. 00 0000 0030 0000:??_Gistream_withassign@@VACPAXI@Z (REF 0014: ??_Distream_withassign@@VACXXZ)
                  10. 00 0000 0030 0000:??_Gostream@@VACPAXI@Z (REF 0014: ??_Dostream@@VACXXZ)
                  11. 00 0000 0030 0000:??_Gostream_withassign@@VACPAXI@Z (REF 0014: ??_Dostream_withassign@@VACXXZ)
                  12. 00 0000 0030 0000:??_Gstdiobuf@@VACPAXI@Z (REF 0014: ??1stdiobuf@@VAC@XZ)
                  13. 00 0000 0030 0000:??_Gstdiostream@@VACPAXI@Z (REF 0014: ??1stdiostream@@VAC@XZ)
                  14. 00 0000 0030 0000:??_Gstreambuf@@VACPAXI@Z (REF 0014: ??1streambuf@@VAC@XZ)
                  15. 00 0000 0030 0000:??_Gstrstreambuf@@VACPAXI@Z (REF 0014: ??1strstreambuf@@VAC@XZ)
                  16. 00 0000 0030 0000:??_Gstrstreambase@@VACPAXI@Z (REF 0014: ??_Dstrstreambase@@VACXXZ)
                  17. 00 0000 0030 0000:??_Gistrstream@@VACPAXI@Z (REF 0014: ??_Distrstream@@VACXXZ)
                  18. 00 0000 0030 0000:??_Gostrstream@@VACPAXI@Z (REF 0014: ??_Dostrstream@@VACXXZ)
                  19. 00 0000 0030 0000:??_Gstrstream@@VACPAXI@Z (REF 0014: ??_Dstrstream@@VACXXZ)
                  20. 00 0000 0030 0000:??_Gfstream_common@@VACPAXI@Z (REF 0014: ??_Dfstream_common@@VACXXZ)
                1856..........83C402F646080174:
                  0. 02 ECEF 0033 0000:??_GType_info@@VACPAXI@Z
                1C56..........83C40285C0740F56:
                  0. 01 361F 004E 0000:_perror
              75:
                014656..........83C4025E1F5D4D:
                  0. 01 A788 0021 0000:??2@ZAPAXI@Z
                0731C05E1F5D4DCB6A038B440C6BC0:
                  0. 02 8272 0099 0000:_asctime
                0B8B36....833E....007413FF7608:
                  0. 01 CBC7 0074 0000:__mbstok
            8A1C30FFF687....0474138A0430E4C1E008:
              0. 15 F5EE 0035 0000:__mbsnextc
            8B:
              44:
                083B440A7303FF44085E1F5D4DCA0200:
                  0. 00 0000 0020 0000:?stossc@streambuf@@RACXXZ
                0E:
                  3B440C750931C05E1F5D4DCA02006A:
                    0. 0E 26A3 002E 0000:?sync@streambuf@@VACHXZ
                  8B4C0C3BC1750931C05E1F5D4DCA02:
                    0. 12 9112 0032 0000:?sync@streambuf@@VACHXZ
                148B4C123BC1760D89CB8A0730E45E1F:
                  0. 2E 7018 008E 0000:?underflow@strstreambuf@@VACHXZ
                  1. 15 B92B 0035 0000:?underflow@streambuf@@VACHXZ
              46:
                08:
                  31C93BC1:
                    780289C1894C0E8B16:
                      0. 01 FB44 0037 0000:?width@ios@@RACHH@Z
                    7902EB0289C1894C0E8B16:
                      0. 00 0000 0039 0000:?width@ios@@RACHH@Z
                  894402C744040000:
                    66C74406050000:
                      0. 15 77EE 004F 0000:??0ios@@RAC@PAVstreambuf@@@Z
                    C744060500C744:
                      0. 17 F471 0055 0000:??0ios@@RAC@PAVstreambuf@@@Z
                0C8944028B460A8944048A4608884413:
                  0. 07 A924 0027 0000:?setb@streambuf@@JACXPAD0H@Z
              4C0881E10001837E0800740A804C090180:
                0. 1A 0C8C 003A 0000:?skip@ios@@RACHH@Z
              4E088B:
                C130E40944068BC180E4FC094408:
                  0. 0F F6E0 002F 0000:?setstate@ios@@JACXH@Z
                C6803C00740A8BDE46880F803C00:
                  0. 07 1922 0027 0000:_strset
              5E068A079885C0740C83F801740A83F802:
                0. 27 B3F9 0047 (l)0000:?__get_name@@ZAPADPBD@Z
              DE468A1F30FFF687....04740A803C0074:
                0. 0D 6C48 002D 0000:__mbsinc
            B00A5056..........56..........8BC65E:
              0. 04 DB7F 0024 0000:?endl@@ZAAAVostream@@AAV1@@Z
            B8FFFF837C1A0074278B440C85C074072B44:
              0. 25 AE71 0045 0000:?detach@filebuf@@RACHXZ
            BA....B8....89540289048B:
              460889440489:
                0. 06 F3A0 0026 0000:?setfill@@ZA?AVsmanip_int@@H@Z (REF 000F: ?sfill@@ZAAAVios@@AAV1@H@Z)
                1. 06 F3A0 0026 0000:?setprecision@@ZA?AVsmanip_int@@H@Z (REF 000F: ?sprec@@ZAAAVios@@AAV1@H@Z)
                2. 06 F3A0 0026 0000:?setw@@ZA?AVsmanip_int@@H@Z (REF 000F: ?swidth@@ZAAAVios@@AAV1@H@Z)
                3. 06 F3A0 0026 0000:?setbase@@ZA?AVsmanip_int@@H@Z (REF 000F: ?sbase@@ZAAAVios@@AAV1@H@Z)
              560A8B460889:
                0. 0C 9F6A 002C 0000:?setiosflags@@ZA?AVsmanip_long@@J@Z (REF 000F: ?sios@@ZAAAVios@@AAV1@J@Z)
                1. 0C 9F6A 002C 0000:?resetiosflags@@ZA?AVsmanip_long@@J@Z (REF 000F: ?rsios@@ZAAAVios@@AAV1@J@Z)
            C606....0085F6741D803C00741868....56:
              0. 01 361F 005D 0000:__strerror
            C704....:
              31C089440289440489440689440A:
                0. 1B 04F4 003B 0000:??0streambuf@@RAC@XZ
              56..........807C2500740656:
                0. 00 0000 005F 0000:??1filebuf@@VAC@XZ (0011: 8C)
                1. 00 0000 0031 0000:??1filebuf@@VAC@XZ
              6AFF56..........56:
                0. 07 D9D9 0027 0000:??1stdiobuf@@VAC@XZ
              807C130074:
                0F837C02007409FF74:
                  0. 01 6AD3 005C 0000:??1streambuf@@VAC@XZ
                11837C0200740BFF74:
                  0. 01 6AD3 0030 0000:??1streambuf@@VAC@XZ
              837C:
                0200740BFF7406:
                  0. 0A 70F6 002A 0000:??1streambuf@@VAC@XZ
                1800740856..........EB08:
                  0. 03 8878 0035 0000:??1filebuf@@VAC@XZ
              8B441E85C0740950..........83:
                0. 09 70F2 0029 0000:??1ios@@VAC@XZ
              8D442250..........56:
                0. 00 0000 0028 0000:??1stdiostream@@VAC@XZ
              C7441E0000FF760856:
                0. 09 E505 0029 0000:??0ios@@RAC@PAVstreambuf@@@Z
              F6441603750F837C02007409FF74:
                0. 08 8FC7 0034 0000:??1strstreambuf@@VAC@XZ
            EB:
              0D8BDE468A079850..........59803C00:
                0. 22 AF61 0156 0000:_disp_puts 0027:_disp_fillbox 005C:_disp_box
              1EB8....508A049850..........83C404:
                0. 14 DE05 0051 0000:_puts
            F644:
              0608742C8B440485C0740F50:
                0. 00 0000 0057 0000:_FREEBUF
              1E017410837E08007406804C1E02EB04:
                0. 0B E30C 002B 0000:?freeze@strstreambuf@@RACXH@Z
            FF:
              7406FF7404FF7402FF348B44068B4C028B:
                0. 04 AA54 006B 0000:?asinh@@ZANABN@Z (0010: DB) (REF 0036: __DADD@)
                1. 04 AA54 006B 0000:?acosh@@ZANABN@Z (0010: DB) (REF 0036: __DSUB@)
                2. 04 AA54 06CC 0000:?asinh@@ZANABN@Z 006B:?acosh@@ZANABN@Z 00D6:?atanh@@ZANABN@Z 0144:?asin@@ZA?AVcomplex@@ABV1@@Z 035D:?acos@@ZA?AVcomplex@@ABV1@@Z 0543:?atan@@ZA?AVcomplex@@ABV1@@Z (0010: CB)
              760CFF760A56..........8B460E894416:
                0. 0F E8EA 0068 0000:??0filebuf@@RAC@HPADHH@Z
          08:
            31C985F6741B394E0674088A04988B5E0689:
              0. 16 9C50 0036 0000:_mbtowc
            FF76066A00..........81FE0004731489F1:
              0. 15 7E2D 0042 0000:_wmhandler_get
          0A:
            83:
              7E06007504C70403008A46089883F84174:
                0. 9C 7CC6 016E 00D4:??5istream@@RACAAV0@AAM@Z 012E:??5istream@@RACAAV0@AAN@Z
              FE017C063936....7D0C8CDAB8....5E1F:
                0. 15 0670 0065 (?)0000:?iword@ios@@RECAEJH@Z (002F: 00)
            85F6740FB8001039C676048BCEEB0789C1EB:
              0. 12 875B 00BF 0000:_initialize_buffers
            8B46080B46067439FF7608FF7606:
              0. 00 0000 0057 0000:__mbschr
            F644068374:
              0756..........59FF7606FF76:
                0. 02 34F6 002C 0000:_freopen
              0956..........83C402FF7606:
                0. 04 7E96 002E 0000:_freopen
          0C66FF760E56FF760AFF7608FF7606:
            0. 00 0000 004B 0000:__lsearch
          0E:
            83FE0A753A837E08007F347C06837E060073:
              0. 1F 98EA 0063 0000:_ltoa (0023: CB)
              1. 1F 98EA 0067 0000:_ltoa (0023: 5E)
            8B:
              4E1009C9742649C45E0AFF460A268A17C4:
                0. 23 AE4C 0043 0000:_memccpy
              561085D274264AC45E0A268A0FFF460AC4:
                0. 23 3E62 0043 0000:_memccpy
            D1EEEB1DC45E06268A17268A4701C45E0A26:
              0. 1B 7F7E 003B 0000:_swab
          1266:
            C704FFFFFFFFC74404010089F05E1F5D4D:
              0. 03 3C25 0023 0000:?seekoff@streambuf@@VAC?AVstreampos@@Vstreamoff@@W4relative_to@ios@@H@Z
            FF76145666FF760E66FF760A66FF7606:
              0. 00 0000 0059 0000:__lsearch
      A1....0B06....:
        742AC41E....268B4722263B4724:
          0. 02 D65B 0097 0000:_chInput
        7505..........:
          66FF760A66FF76:
            0. 03 5726 0045 0000:_vprintf
          FF7608FF7606B8:
            0. 00 0000 0041 0000:_vprintf
      B4368A5606CD2183F8FF74:
        108B760889:
          14895C0289:
            0. 0C 8D9C 002C 0000:__dos_getdiskfree
            1. 09 EC62 003D 0000:__dos_getdiskfree
          1C89540289:
            0. 0C 8D9C 002C 0000:__dos_getdiskfree
        121EC5760889:
          14895C02:
            0. 0B 07AE 003F 0000:__dos_getdiskfree
            1. 0E E7EE 002E 0000:__dos_getdiskfree
          1C895402:
            0. 0E E7EE 002E 0000:__dos_getdiskfree
      B8000250..........5989C609C0750AB8FFFF5E1F:
        0. 13 FB11 0042 0000:?doallocate@streambuf@@NACHXZ
      BA....B8....C45E0626:
        8957:
          02268907:
            31C0268947:
              0. 60 3733 0080 0000:??0streambuf@@REC@PEDH@Z
            C4760A268B:
              0. 1A 5D89 003A 0000:??0Type_info@@BEA@AFV0@@Z
          0C2689470ABA....B8:
            0. 00 0000 0065 0000:??1iostream@@VEC@XZ (002D: 0A)
            1. 00 0000 0065 0000:??1strstream@@VEC@XZ (002D: 14)
            2. 00 0000 0057 0000:??1iostream_withassign@@VEC@XZ
          4226894740BA....B8:
            0. 00 0000 0065 0000:??1ifstream@@VEC@XZ (REF 000C: ??_Qifstream@@6Fistream@@@)
            1. 00 0000 0065 0000:??1ofstream@@VEC@XZ (REF 000C: ??_Qofstream@@6Fostream@@@)
            2. 00 0000 0065 0000:??1istrstream@@VEC@XZ (REF 000C: ??_Qistrstream@@6Fistream@@@)
            3. 00 0000 0065 0000:??1ostrstream@@VEC@XZ (REF 000C: ??_Qostrstream@@6Fostream@@@)
          4C2689474ABA....B8:
            0. 00 0000 0073 0000:??1fstream@@VEC@XZ (REF 000C: ??_Qfstream@@6Fostream@@@)
            1. 00 0000 0073 0000:??1strstream@@VEC@XZ (REF 000C: ??_Qstrstream@@6Fostream@@@)
        C47704268B4C02C4760603:
          0. 0A 1364 0049 0000:??1ostream_withassign@@VEC@XZ (001E: 00) (REF 000C: ??_Qostream_withassign@@6Fios@@@)
          1. 0A 1364 004E 0000:??1fstream_common@@VEC@XZ (001E: 1F) (REF 000C: ??_Qfstream_common@@6Fios@@@)
          2. 0A 1364 004E 0000:??1strstreambase@@NEC@XZ (001E: 1F) (REF 000C: ??_Qstrstreambase@@6Fios@@@)
          3. 0A 1364 004E 0000:??1fstreambase@@VEC@XZ (001E: 1F) (REF 000C: ??_Qfstreambase@@6Fios@@@)
          4. 0A 1364 005D 0000:??_Dfstream_common@@VECXXZ (001E: 56)
          5. 0A 1364 0057 0000:??1istrstream@@VEC@XZ (001E: 76) (REF 000C: ??_Qistrstream@@6Fios@@@)
          6. 0A 1364 0057 0000:??1ostrstream@@VEC@XZ (001E: 76) (REF 000C: ??_Qostrstream@@6Fios@@@)
          7. 0A 1364 0049 0000:??1istream_withassign@@VEC@XZ (001E: 00) (REF 000C: ??_Qistream_withassign@@6Fios@@@)
          8. 0A 1364 0049 0000:??1ostream@@VEC@XZ (001E: 00) (REF 000C: ??_Qostream@@6Fios@@@)
          9. 0A 1364 0040 0000:??1istream@@VEC@XZ
      BE:
        FFFFC45E0626837F2C007435817E0A0040751368:
          0. 06 1124 0056 0000:?setmode@filebuf@@RECHH@Z
        ....:
          8B44:
            06A883740DA840740956..........83:
              0. 07 6FD6 0030 0000:__flushterm
            0AA883740EA840740A1E56:
              0. 08 2A15 0031 0000:__flushterm
          EB:
            158B4406A883740BA840740756:
              0. 00 0000 03CE 0000:__flushterm 0030:_setbuf 005D:_setvbuf 0125:_FREEBUF 0178:__flushbu 02DC:__fillbuf
            188B440AA883740EA840740A1E56:
              0. 00 0000 039D 0000:__flushterm 0033:_setbuf 0069:_setvbuf 011F:_FREEBUF 0176:__flushbu 02AC:__fillbuf
            1EF604837516FF7606FF760889F083C0FA:
              0. 01 FDA2 0041 0000:_fopen
            21F604837519FF7606FF760889F083C0FA:
              0. 04 75E4 0044 0000:__fsopen
            25F60483751DFF7608FF7606FF760CFF76:
              0. 08 5B51 0049 0000:_fopen
            28F604837520FF7608FF7606FF760CFF76:
              0. 0B 3F2D 004C 0000:__fsopen
          F6:
            048375:
              14FF7606FF76088D44FA50:
                0. 00 0000 003E 0000:_fopen
              17:
                66FF760666FF760A1E8D44F650:
                  0. 00 0000 0042 0000:_fopen
                FF7606FF76088D44FA50FF760A:
                  0. 00 0000 0041 0000:__fsopen
              1A66FF760666FF760A1E8D44F650:
                0. 03 554D 0045 0000:__fsopen
            44:
              0683740956..........83C40283C60E:
                0. 02 A284 002B 0000:___fcloseall
              0A83740A1E56..........83C40483C6:
                0. 03 BCC8 002C 0000:___fcloseall
      C45E:
        0626:
          803F0074:
            2A1E68....C45E06268A079850:
              0. 00 0000 005D 0000:_puts
            74C45E0A26803F00746BC45E06:
              0. 13 787C 00FD 0000:__mbscmp (REF 003E: .)
          837F:
            04007428268B570A268B470889D109:
              0. 15 7E40 00A7 0000:?setb@streambuf@@JECXPED0H@Z
            28FF:
              741A268B4712260B4710740BFF:
                0. 03 133E 005A 0000:?sync@filebuf@@VECHXZ
              75:
                0626C7472C0000C45E062683:
                  0. 55 311D 00A6 0000:?close@filebuf@@RECPEV1@XZ
                2531F68B460C2689472AA80A:
                  0. 1C 1C99 0112 0000:?open@filebuf@@RECPEV1@PFDHH@Z
                  1. 1C 6C08 0109 0000:?open@filebuf@@RECPEV1@PFDHH@Z
            3400741D6A0226C47704268B44028B:
              0. 0B 19B0 0090 0000:?attach@fstreambase@@RECXH@Z
          8B:
            37:
              01F68B84....0906....268B1F01DB:
                0. 02 B331 0030 0000:_matherr
              D1E68B84....0906....268B1FD1E3:
                0. 02 9497 002E 0000:_matherr
            4720263B4724720DFF76085326C43726:
              0. 10 0EF0 0030 0000:?stossc@streambuf@@RECXXZ
          C4:
            3726803C007413C47606268B1C26FF04:
              0. 12 93A9 0032 (l)0000:_sgetc
            7704268B4402C4760603F0:
              26:
                80:
                  4C:
                    1080:
                      0. 0A D420 002A 0000:?showbase@@ZAAEVostream@@AEV1@@Z
                    11:
                      01:
                        0. 0A D420 002A 0000:?showpoint@@ZAAEVostream@@AEV1@@Z
                      02:
                        0. 0A D420 002A 0000:?uppercase@@ZAAEVostream@@AEV1@@Z
                  6411E2:
                    0. 0A D420 002A 0000:?floating@@ZAAEVostream@@AEV1@@Z
                  7C1400:
                    0. 12 FDB5 004A 0000:?opfx@ostream@@RECHXZ
                8B540A26:
                  0. 2E 5B1D 0060 0000:?flush@ostream@@RECAEV1@XZ
                  1. 47 96FF 0067 0000:?sync@istream@@RECHXZ
                  2. 23 A2FE 0043 0000:?flush@ostream@@RECAEV1@XZ
                F644:
                  10:
                    84:
                      0. 43 2593 009C 0000:?seekg@istream@@RECAEV1@JW4seek_dir@ios@@@Z
                      1. 43 42E5 009C 0000:?seekp@ostream@@RECAEV1@JW4seek_dir@ios@@@Z
                      2. 40 9014 0072 0000:?seekg@istream@@RECAEV1@J@Z
                      3. 40 F762 0072 0000:?seekp@ostream@@RECAEV1@J@Z
                    86:
                      0. 0D F9F3 0062 0000:?do_osfx@ostream@@JECXXZ
                      1. 12 FDB5 004A 0000:?do_opfx@ostream@@JECHXZ
                  1760:
                    0. 06 4B4E 0032 0000:?osfx@ostream@@RECXXZ
              83C6042680:
                0. 12 3CD9 0032 0000:?rightjust@@ZAAEVostream@@AEV1@@Z
                1. 12 4233 0032 0000:?scientific@@ZAAEVostream@@AEV1@@Z
                2. 12 4B2C 0032 0000:?leftjust@@ZAAEVostream@@AEV1@@Z
                3. 12 ADFE 0032 0000:?fixed@@ZAAEVostream@@AEV1@@Z
                4. 12 C33B 0032 0000:?internal@@ZAAEVostream@@AEV1@@Z
          F6472801751C268B772A85F67F03BE2000:
            0. 26 6640 0054 0000:?doallocate@strstreambuf@@NECHXZ
        0826:
          837F0400741E26FF4F048A4606268B3726:
            0. 1B B4F0 003B (l)0000:___snprintf
          F6470A327510837E06FF740A268B470826:
            0. 63 71E4 02E7 0000:_ungetc 0064:_fseek 01E7:_ftell 0287:_fgetpos 02BE:_fsetpos
        0A26:
          C47704268B4402C4760A03F026FF740A26:
            0. 1A 097E 004C (?)0000:??4istream_withassign@@RECAEV0@AEVistream@@@Z (0011: 00)
          FF770626FF7704C45E0626C47704268B44:
            0. 0D BE58 003F 0000:??4iostream_withassign@@RECAEV0@AEVios@@@Z
        0E268B0783F801740B85C0742083F8027434EB:
          0. 6A D19D 00A9 (l)0000:?fxf@@ZAXPENPFDPEH@Z
      F6460C087406804E0C02EB0D8A460C240F3C027504:
        0. 24 5917 00B0 0000:?open@fstreambase@@RECXPFDHH@Z
      FF76:
        06..........85C0750831C0995E1F5D4DCBFF:
          0. 04 D9E5 0048 0000:_winio_setlinefn (001E: 48)
          1. 04 D9E5 0048 0000:_winio_onpaintentry (001E: 50)
          2. 04 D9E5 0048 0000:_winio_onpaintexit (001E: 54)
        08FF7606:
          B8....5068....68:
            0. 07 E5B4 003F 0000:_vprintf
          C45E0626C43726FF5C:
            0CB9FFFF3BC1:
              0. 17 1D7E 0037 0000:?do_snextc@streambuf@@BECHXZ
            10C45E062680:
              0. 17 0D50 00D5 0000:?setbuf@streambuf@@VECPEV1@PEDH@Z (009D: 00)
              1. 17 0D50 00D9 0000:?setbuf@streambuf@@VECPEV1@PEDH@Z (009D: 5D)
          ..........:
            83C4044050:
              0. 11 34DB 003D 0000:__nstrdup
            8B460CC45E0626894728:
              0. 1C 151A 009F 0000:??0filebuf@@REC@HH@Z
              1. 1C 7639 0081 0000:??0filebuf@@REC@HH@Z
        0CFF760A8B56088B460683C0085250:
          0. 00 0000 0064 0000:?attach@fstream_common@@RECXHH@Z
        10FF760EFF760CFF7608FF7606..........8B:
          0. 25 2A70 0096 0000:??0filebuf@@REC@HPEDHH@Z
      ..........89C6:
        68000C..........66FF76:
          06:
            0. 00 0000 003D 0000:_truncf
          0A66FF:
            0. 02 65CE 004D 0000:_trunc
        6A00..........66FF76:
          06:
            0. 00 0000 003C 0000:_roundf
          0A66FF76:
            0. 01 4E95 004C 0000:_round
        B8FFFF3BF075055E1F5D4DCBC41E:
          0. 00 0000 0039 0000:_fgetchar
    57:
      8B:
        3E....31C050:
          50FF7608FF7606..........83C4:
            0. 03 2783 002A 0000:_atof
          FF7606..........83C404893E:
            0. 00 0000 0026 0000:_atof
        7E:
          06:
            578B1DFF5F0CB9FFFF3BC189C874078B5D12:
              0. 0B 5E82 002B 0000:?do_snextc@streambuf@@BACHXZ
            6A0157..........85C07434FF760AFF7608:
              0. 0B 2257 005C 0000:?read@istream@@RACAAV1@PAXH@Z
            837D1E0074156A028B5D028B470203C783C0:
              0. 02 726E 0068 0000:?attach@fstreambase@@RACXH@Z
            85FF740D8B5D028B470203C783C002EB0231:
              0. 11 BBAA 0031 (?)0000:??5istream@@RACAAV0@P7AAAVios@@AAV1@@Z@Z
            8B:
              45123B45147208578B1DFF5F0CEB03FF45:
                0. 08 1819 0028 0000:?stossc@streambuf@@RACXXZ
              460830E48D5D068B0F81E180000BC18907:
                0. 1B 0FE9 003B 0000:?clear@ios@@RACXH@Z
              5D028B5F0203DF:
                807F0C0075178B470685:
                  0. 04 EB22 003C 0000:?opfx@ostream@@RACHXZ
                8B47045089C38B1FFF5F:
                  0. 14 825B 0042 0000:?flush@ostream@@RACAAV1@XZ
                  1. 2E A2F5 004E 0000:?sync@istream@@RACHXZ
                C74702....C705....:
                  57:
                    0. 00 0000 002C 0000:??1ostream@@VAC@XZ (REF 0019: ??_Qostream@@6Bios@@@)
                    1. 00 0000 002C 0000:??1istream_withassign@@VAC@XZ (REF 0019: ??_Qistream_withassign@@6Bios@@@)
                    2. 00 0000 002C 0000:??1ostream_withassign@@VAC@XZ (REF 0019: ??_Qostream_withassign@@6Bios@@@)
                  5F:
                    0. 06 C856 0026 0000:??1istream@@VAC@XZ
                  8D:
                    0. 03 52FF 0035 0000:??1istrstream@@VAC@XZ (REF 0019: ??_Qistrstream@@6Bios@@@)
                    1. 03 52FF 0035 0000:??1ostrstream@@VAC@XZ (REF 0019: ??_Qostrstream@@6Bios@@@)
                    2. 03 E2CC 002F 0000:??1fstream_common@@VAC@XZ (0008: 4D) (REF 0019: ??_Qfstream_common@@6Bios@@@)
                    3. 03 E2CC 002F 0000:??1strstreambase@@NAC@XZ (0008: 4D) (REF 0019: ??_Qstrstreambase@@6Bios@@@)
                    4. 03 E2CC 002F 0000:??1fstreambase@@VAC@XZ (0008: 4D) (REF 0019: ??_Qfstreambase@@6Bios@@@)
                    5. 03 E2CC 0038 0000:??_Dfstream_common@@VACXXZ (0008: 50)
                F647:
                  08:
                    8475:
                      1B66FF7608:
                        0. 25 0005 0053 0000:?seekg@istream@@RACAAV1@J@Z
                        1. 25 C0F9 0053 0000:?seekp@ostream@@RACAAV1@J@Z
                      1E66FF760A:
                        0. 28 5442 006F 0000:?seekg@istream@@RACAAV1@JW4seek_dir@ios@@@Z
                        1. 28 94BE 006F 0000:?seekp@ostream@@RACAAV1@JW4seek_dir@ios@@@Z
                    8675:
                      0CF6470F20:
                        0. 03 9F57 004D 0000:?do_osfx@ostream@@JACXXZ
                      178B470685:
                        0. 04 EB22 003C 0000:?do_opfx@ostream@@JACHXZ
                  0F60740657:
                    0. 00 0000 0029 0000:?osfx@ostream@@RACXXZ
              5E08FF77028B5D028B470203C783C00250:
                0. 00 0000 002E 0000:??4iostream_withassign@@RACAAV0@AAVios@@@Z
            8D:
              450450..........85C0:
                74156A008B5D02:
                  0. 09 6306 004A 0000:?close@fstreambase@@RACXXZ
                75148B5D028B5F:
                  0. 16 FBAF 0036 0000:?close@fstream_common@@RACXXZ
              5D088B0785C0742B8B4D0E85C974248B55:
                0. 2C FB83 004C 0000:?underflow@strstreambuf@@VACHXZ
            C7:
              05....8B5E088B470289450289F85F1F5D:
                0. 02 8681 0022 0000:??0Type_info@@BAA@ABV0@@Z
              45:
                06....8B5D028B5F0203DFC74702:
                  0. 02 48DF 003A 0000:??1strstream@@VAC@XZ (0004: 0C)
                  1. 02 48DF 003A 0000:??1iostream@@VAC@XZ (0004: 06)
                  2. 02 48DF 0031 0000:??1iostream_withassign@@VAC@XZ
                28....8B5D028B5F0203DFC74702:
                  0. 02 48DF 003A 0000:??1ifstream@@VAC@XZ (REF 0011: ??_Qifstream@@6Bistream@@@)
                  1. 02 48DF 003A 0000:??1ofstream@@VAC@XZ (REF 0011: ??_Qofstream@@6Bostream@@@)
                  2. 02 48DF 003A 0000:??1istrstream@@VAC@XZ (REF 0011: ??_Qistrstream@@6Bistream@@@)
                  3. 02 48DF 003A 0000:??1ostrstream@@VAC@XZ (REF 0011: ??_Qostrstream@@6Bostream@@@)
                2A....8B5D028B5F0203DFC74702:
                  0. 02 48DF 004E 0000:??1ifstream@@VAC@XZ (REF 0011: ??_Qifstream@@6Bistream@@@)
                  1. 02 48DF 004E 0000:??1ofstream@@VAC@XZ (REF 0011: ??_Qofstream@@6Bostream@@@)
                2E....C74528....8B5D028B5F0203DF:
                  0. 03 2F68 003F 0000:??1fstream@@VAC@XZ (REF 0011: ??_Qfstream@@6Bostream@@@)
                  1. 03 2F68 003F 0000:??1strstream@@VAC@XZ (REF 0011: ??_Qstrstream@@6Bostream@@@)
                30....C7452A....8B5D028B5F0203DF:
                  0. 03 2F68 0053 0000:??1fstream@@VAC@XZ
            F6460A087406804E0A02EB0D8A460A240F3C:
              0. 1B 25C4 0087 0000:?open@fstreambase@@RACXPBDHH@Z
            FF76:
              088B5D028B470203C783C00250:
                0. 00 0000 002B (?)0000:??4iostream_withassign@@RACAAV0@PAVstreambuf@@@Z (000A: 00)
              0AFF7608:
                8B5D028B5F0203DFFF7704:
                  0. 00 0000 0043 0000:?write@ostream@@RACAAV1@PBXI@Z
                8D450450:
                  8B5D04FF5F0485C0:
                    0. 10 760A 0051 0000:?setbuf@fstreambase@@RACXPADH@Z
                  ..........85C075:
                    0. 2B 3858 004B 0000:?attach@fstream_common@@RACXHH@Z
              0CFF760AFF76088D450450:
                0. 2E B9CF 004E 0000:?open@fstream_common@@RACXPBDHH@Z
          08837D02007416FF4D028A46068B1DFF058807:
            0. 12 200A 0032 (l)0000:___snprintf
          0AC45E06268B470E8905268B4710894502268B:
            0. 41 1AA9 0061 0000:_get_info
      FF76:
        0AFF7608FF7606..........83C4068B7E081E:
          0. 12 6075 0032 0000:_strxfrm
        0EFF760CFF760AFF7608FF7606..........83:
          0. 16 1874 0036 0000:_strxfrm
    66:
      680000F03F666A0066FF760A66FF7606:
        0. 07 9982 0027 0000:_atan
      6A:
        00:
          6A00FF7608FF7606..........8B560C8B460A:
            0. 0C 6C5E 0073 0000:??0stdiobuf@@REC@PEU_iobuf@@@Z
          ..........:
            1F5D4DCB:
              0. 00 0000 0016 0000:_coreleft
            8916....A3....83C4041F5D4DCB:
              0. 00 0000 0020 0000:_randomize
        10666A70FF76:
          06..........8B46061F5D4DCB:
            0. 00 0000 001F 0000:?dec@@ZAAAVios@@AAV1@@Z
          08FF7606..........8B56088B46:
            0. 05 EA77 0025 0000:?dec@@ZAAEVios@@AEV1@@Z
        20666A70FF76:
          06..........8B46061F5D4DCB:
            0. 00 0000 001F 0000:?oct@@ZAAAVios@@AAV1@@Z
          08FF7606..........8B56088B46:
            0. 05 EA77 0025 0000:?oct@@ZAAEVios@@AEV1@@Z
        40666A70FF76:
          06..........8B46061F5D4DCB:
            0. 00 0000 001F 0000:?hex@@ZAAAVios@@AAV1@@Z
          08FF7606..........8B56088B46:
            0. 05 EA77 0025 0000:?hex@@ZAAEVios@@AEV1@@Z
      FF76:
        06:
          6A00:
            6A006A00..........85C0742BFF7608:
              0. 03 1DC1 004E 0000:MESSAGELOOP
            ..........83C4061F5D4DCB:
              0. 00 0000 001C 0000:_getfatd
          E8....83C4041F5D4DCB:
            0. 00 0000 0018 0000:___freef
          FF760A..........1F5D4DCB:
            0. 00 0000 001A 0000:_longjmp
          ..........:
            1E68..............83C4081F:
              0. 03 9134 0023 0000:_feprocentry
            1F5D4DCB:
              0. 00 0000 0017 0000:__setjmp
            83C404:
              1F5D4DCB:
                0. 00 0000 001A 0000:_getc (REF 000F: _fgetc)
                1. 00 0000 001A (!)0000:? (REF 000F: _free)
                2. 00 0000 001A 0000:__tcsrev (REF 000F: __mbsrev)
                3. 00 0000 001A 0000:__tcsinc (REF 000F: __mbsinc)
                4. 00 0000 001A 0000:__tclen (REF 000F: __mbclen)
                5. 00 0000 001A 0000:__tcsclen (REF 000F: __mbslen)
                6. 00 0000 001A 0000:??_Q@ZAXPEX@Z (REF 000F: ??3@ZAXPEX@Z)
                7. 00 0000 001A 0000:_atexit (REF 000F: __fatexit)
              5250..........83C404:
                0. 04 DB7F 0024 0000:_ctime
            C45E0A2689570226890783C404:
              0. 13 3546 0033 0000:_fgetpos
        08FF7606..........:
          83C4061F5D4DCB:
            0. 00 0000 001D 0000:_putc
          8B46061F5D4DCB:
            0. 00 0000 001D (l)0000:?sios@@ZAAAVios@@AAV1@J@Z (REF 0012: ?setf@ios@@RACJJ@Z)
            1. 00 0000 001D (l)0000:?rsios@@ZAAAVios@@AAV1@J@Z (REF 0012: ?unsetf@ios@@RACJJ@Z)
        0A:
          66FF7606..........:
            1F5D4DCA0800:
              0. 00 0000 001D 0000:??4ostream_withassign@@RECAEV0@AEV0@@Z
            83C408:
              1F5D4DCB:
                0. 00 0000 001E 0000:__tcscspn (REF 0013: __mbscspn)
                1. 00 0000 001E 0000:__tcsicmp (REF 0013: __mbsicmp)
                2. 00 0000 001E 0000:__tcsdec (REF 0013: __mbsdec)
                3. 00 0000 001E 0000:__tcsstr (REF 0013: __mbsstr)
                4. 00 0000 001E 0000:__tcsspn (REF 0013: __mbsspn)
                5. 00 0000 001E 0000:__tcspbrk (REF 0013: __mbspbrk)
                6. 00 0000 001E 0000:__tcstok (REF 0013: __mbstok)
                7. 00 0000 001E 0000:__tcscmp (REF 0013: __mbscmp)
              83F8037225FF:
                0. 13 E977 0058 0000:_log1p
            89460C895E0A894E08:
              0. 0A 7C45 0062 0000:_expm1
            ..........83C4081F:
              0. 03 9134 0023 0000:_rndtol
          6A00FF7608FF76068B5E068B1FFF5F1C1F5D:
            0. 04 C6D6 0024 0000:?seekpos@streambuf@@VACJJH@Z
          FF7608FF7606:
            6A00..........5250:
              0. 00 0000 0029 0000:_wmhandler_set
            ..........8B56088B46061F:
              0. 03 9134 0023 (l)0000:?sios@@ZAAEVios@@AEV1@J@Z (REF 0015: ?setf@ios@@RECJJ@Z)
              1. 03 9134 0023 (l)0000:?rsios@@ZAAEVios@@AEV1@J@Z (REF 0015: ?unsetf@ios@@RECJJ@Z)
          ..........83C404525066FF7606:
            0. 00 0000 0037 0000:?before@Type_info@@REAHAFV1@@Z
        0C6A00FF760AFF7608FF7606C45E0626C41F26:
          0. 09 39E9 0029 0000:?seekpos@streambuf@@VECJJH@Z
        0E:
          66FF760A66FF760668....68:
            0. 00 0000 0028 0000:_vfprintf
          FF760CFF760A66FF7606..........1F5D4D:
            0. 03 8C16 0023 0000:?getline@istream@@RECAEV1@PEEHD@Z (REF 0019: ?getline@istream@@RECAEV1@PEDHD@Z)
            1. 03 8C16 0023 0000:?get@istream@@RECAEV1@PEEHD@Z (REF 0019: ?get@istream@@RECAEV1@PEDHD@Z)
        1666FF761266FF760E66FF760A66FF7606:
          0. 00 0000 002A 0000:__makepath
    68:
      00:
        02:
          66FF76061E68..............C606....0083:
            0. 06 FD2F 0026 0000:_winio_about
          FF760668..............C606....0083C406:
            0. 04 DB7F 0024 0000:_winio_about
        04:
          837E0A01B800007D02B0045066FF760A66FF76:
            0. 01 4E95 002D 0000:_setbuf
          8B460883F80119C981E104005150FF7606:
            0. 00 0000 002A 0000:_setbuf
      ....:
        68....68....68....6A00..........83C40A:
          0. 04 DB7F 0024 0000:_winio_doabout
        E8....:
          1F5D4DCB:
            0. 00 0000 0014 (?)0000:___SD___ios_istream_cpp_
          68....:
            68..............83C4041F5D:
              0. 02 8681 0022 0000:___SI___ios_fstream_cpp_ (REF 0011: ___SD___ios_fstream_cpp_)
              1. 02 8681 0022 0000:___SI___ios_ios_cpp_ (REF 0011: ___SD___ios_ios_cpp_)
              2. 02 8681 0022 0000:___SI___ios_istream_cpp_ (REF 0011: ___SD___ios_istream_cpp_)
              3. 02 8681 0022 0000:___SI___ios_istreamf_cpp_ (REF 0011: ___SD___ios_istreamf_cpp_)
              4. 02 8681 0022 0000:___SI___ios_istreami_cpp_ (REF 0011: ___SD___ios_istreami_cpp_)
              5. 02 8681 0022 0000:___SI___ios_istreamx_cpp_ (REF 0011: ___SD___ios_istreamx_cpp_)
              6. 02 8681 0022 0000:___SI___ios_manip_cpp_ (REF 0011: ___SD___ios_manip_cpp_)
              7. 02 8681 0022 0000:___SI___ios_ostream_cpp_ (REF 0011: ___SD___ios_ostream_cpp_)
              8. 02 8681 0022 0000:___SI___ios_ostreamf_cpp_ (REF 0011: ___SD___ios_ostreamf_cpp_)
              9. 02 8681 0022 0000:___SI___ios_ostreami_cpp_ (REF 0011: ___SD___ios_ostreami_cpp_)
              10. 02 8681 0022 0000:___SI___ios_ostreamx_cpp_ (REF 0011: ___SD___ios_ostreamx_cpp_)
              11. 02 8681 0022 0000:___SI___ios_siosync_cpp_ (REF 0011: ___SD___ios_siosync_cpp_)
              12. 02 8681 0022 0000:___SI___ios_stdiostr_cpp_ (REF 0011: ___SD___ios_stdiostr_cpp_)
              13. 02 8681 0022 0000:___SI___ios_stream_cpp_ (REF 0011: ___SD___ios_stream_cpp_)
              14. 02 8681 0022 0000:___SI___ios_streambf_cpp_ (REF 0011: ___SD___ios_streambf_cpp_)
              15. 02 8681 0022 0000:___SI___ios_strstrea_cpp_ (REF 0011: ___SD___ios_strstrea_cpp_)
              16. 02 8681 0022 0000:___SI___ios_dbp_cpp_ (REF 0011: ___SD___ios_dbp_cpp_)
            E8....:
              1F5D4DCB:
                0. 00 0000 001A (?)0000:___SD___iosold_iosst3_cpp_ (REF 000E: ??_Dostream_withassign@@UACXXZ)
                1. 00 0000 001A 0000:___SD___iosold_iosst1_cpp_ (REF 000E: ??_Distream_withassign@@UACXXZ)
              68....E8....68....E8:
                0. 00 0000 002C 0000:___SD___ios_iostream_cpp_
          6A0168....E8....6A0168....E8:
            0. 03 6D46 0042 0000:___SI___ios_iostream_cpp_
        FF7606..........83C4041F5D4DCB:
          0. 00 0000 001C 0000:_putchar
        ..........:
          1F5D4DCB:
            0. 00 0000 0016 (?)0000:___SD___ios_istream_cpp_
          68....:
            68..............83C404:
              0. 04 DB7F 0024 0000:___SI___ios_fstream_cpp_ (REF 0013: ___SD___ios_fstream_cpp_)
              1. 04 DB7F 0024 0000:___SI___ios_ios_cpp_ (REF 0013: ___SD___ios_ios_cpp_)
              2. 04 DB7F 0024 0000:___SI___ios_istream_cpp_ (REF 0013: ___SD___ios_istream_cpp_)
              3. 04 DB7F 0024 0000:___SI___ios_istreamf_cpp_ (REF 0013: ___SD___ios_istreamf_cpp_)
              4. 04 DB7F 0024 0000:___SI___ios_istreami_cpp_ (REF 0013: ___SD___ios_istreami_cpp_)
              5. 04 DB7F 0024 0000:___SI___ios_istreamx_cpp_ (REF 0013: ___SD___ios_istreamx_cpp_)
              6. 04 DB7F 0024 0000:___SI___ios_manip_cpp_ (REF 0013: ___SD___ios_manip_cpp_)
              7. 04 DB7F 0024 0000:___SI___ios_ostream_cpp_ (REF 0013: ___SD___ios_ostream_cpp_)
              8. 04 DB7F 0024 0000:___SI___ios_ostreamf_cpp_ (REF 0013: ___SD___ios_ostreamf_cpp_)
              9. 04 DB7F 0024 0000:___SI___ios_ostreami_cpp_ (REF 0013: ___SD___ios_ostreami_cpp_)
              10. 04 DB7F 0024 0000:___SI___ios_ostreamx_cpp_ (REF 0013: ___SD___ios_ostreamx_cpp_)
              11. 04 DB7F 0024 0000:___SI___ios_siosync_cpp_ (REF 0013: ___SD___ios_siosync_cpp_)
              12. 04 DB7F 0024 0000:___SI___ios_stdiostr_cpp_ (REF 0013: ___SD___ios_stdiostr_cpp_)
              13. 04 DB7F 0024 0000:___SI___ios_stream_cpp_ (REF 0013: ___SD___ios_stream_cpp_)
              14. 04 DB7F 0024 0000:___SI___ios_streambf_cpp_ (REF 0013: ___SD___ios_streambf_cpp_)
              15. 04 DB7F 0024 0000:___SI___ios_strstrea_cpp_ (REF 0013: ___SD___ios_strstrea_cpp_)
              16. 04 DB7F 0024 0000:___SI___ios_dbp_cpp_ (REF 0013: ___SD___ios_dbp_cpp_)
            ..........:
              1F5D4DCB:
                0. 00 0000 001E (?)0000:___SD___iosold_iosst3_cpp_ (REF 000E: ??_Dostream_withassign@@VACXXZ)
                1. 00 0000 001E 0000:___SD___iosold_iosst1_cpp_ (REF 000E: ??_Distream_withassign@@VACXXZ)
              68:
                0. 00 0000 0036 0000:___SD___ios_iostream_cpp_
              83C4041F5D4D:
                0. 03 9C8C 0023 0000:?flush_stdio@ostream@@BACXXZ
          6A0168..............6A0168:
            0. 00 0000 004C 0000:___SI___ios_iostream_cpp_
          83C4021F5D4DCB:
            0. 00 0000 0019 0000:_getchar (REF 000B: __iob)
            1. 00 0000 0019 0000:__fpurecall (REF 000E: ___faterr)
    6A:
      00:
        168D46:
          0A50..........83C4045250168D460A50:
            0. 06 AFE1 0032 0000:_execle
          0C50..........83C4045250168D460C50:
            0. 07 7041 0033 0000:_spawnle
        1E68....66FF760A66FF7606FF760E66FF761066:
          0. 03 8EF2 002C 0000:_ecvt
        66:
          6A00:
            168D46:
              0A5066FF76066A02..........83:
                0. 06 15D7 0026 0000:_execl
              0C5066FF7608FF7606:
                0. 07 9982 0027 0000:_spawnl
            66FF76:
              0A66FF76066A02..........83C4:
                0. 05 32F8 0025 0000:_execv
              0C66FF7608FF7606..........83:
                0. 06 15D7 0026 0000:_spawnv
            FF76:
              06..........8B5E06806706DF83C4:
                0. 05 5216 0025 0000:_rewind
              08FF7606..........C45E06268067:
                0. 09 0FE7 0029 0000:_rewind
          FF76:
            0E66FF760A66FF76066A02..........83:
              0. 06 15D7 0026 0000:_execve
            1066FF760C66FF7608FF7606:
              0. 07 9982 0027 0000:_spawnve
        68....66FF760A66FF7606FF760EFF7610FF7612:
          0. 00 0000 0029 0000:_ecvt
        6A00:
          8D46:
            0850FF76066A02..........83C40A1F:
              0. 03 9134 0023 0000:_execl
            0A50FF7608FF7606..........83C40A:
              0. 04 DB7F 0024 0000:_spawnl
          FF76:
            06..........8B46088B5E06894716C7:
              0. 01 C784 0033 0000:??0stdiobuf@@RAC@PAU_iobuf@@@Z
            08FF76066A02..........83C40A1F5D:
              0. 02 8681 0022 0000:_execv
            0AFF7608FF7606..........83C40A1F:
              0. 03 9134 0023 0000:_spawnv
        8B5E08FF7702FF37FF7606..........83C4081F:
          0. 03 9134 0023 0000:_fsetpos
        8D46:
          0850..........83C402508D460850FF7606:
            0. 02 70B4 002E 0000:_execle
          0A50..........83C402508D460A50FF7608:
            0. 03 1DC1 002F 0000:_spawnle
        C45E0A26FF770226FF3766FF7606..........83:
          0. 06 FD2F 0026 0000:_fsetpos
        FF76:
          06..........8B46061F5D4DCB:
            0. 00 0000 001B 0000:?ws@@ZAAAVistream@@AAV1@@Z (REF 0010: ?ipfx@istream@@RACHH@Z)
            1. 00 0000 001B 0000:?ends@@ZAAAVostream@@AAV1@@Z (REF 0010: ??6ostream@@RACAAV0@D@Z)
          08FF7606..........8B56088B46061F5D4D:
            0. 01 A788 0021 0000:?ws@@ZAAEVistream@@AEV1@@Z (REF 0013: ?ipfx@istream@@RECHH@Z)
            1. 01 A788 0021 0000:?ends@@ZAAEVostream@@AEV1@@Z (REF 0013: ??6ostream@@RECAEV0@D@Z)
          0AFF7608FF76066A02..........83C40A1F:
            0. 03 9134 0023 0000:_execve
          0CFF760AFF7608FF7606..........83C40A:
            0. 04 DB7F 0024 0000:_spawnve
        ..........:
          1F5D4DCB:
            0. 00 0000 0015 0000:_coreleft
          66FF760AFF760E66FF760668....E8:
            0. 00 0000 0030 0000:__assert
          83C4021F5D4DCB:
            0. 00 0000 0018 0000:_abort_exit
          8916....A3....83C4021F5D4DCB:
            0. 00 0000 001F 0000:_randomize
          FF7608FF760AFF760668....E8:
            0. 04 5B59 002E 0000:__assert
      01:
        168D46:
          0A50..........83C4045250168D460A50:
            0. 06 AFE1 0032 0000:_execlpe
          0C50..........83C4045250168D460C50:
            0. 07 7041 0033 0000:_spawnlpe
        1E68....66FF760A66FF7606FF760E66FF761066:
