01:
  01000000010101010101010101010001000101000001000000:
    000202020200:
      0. 13 8ED1 01DE 003F:_localControlDispatcher@0 0187:__InitThreadDataSlot_ 01CC:_v86_api_entry@0 01D5:_pm_api_entry@0
    ..:
      0. 00 0000 0175 0022:_localControlDispatcher@0 0162:__InitThreadDataSlot_ 0163:_v86_api_entry@0 016C:_pm_api_entry@0
  52555357B900000080FCE800000000B8000000808B0C24C704240800000068:
    0. 15 02CE 0069 002C:_createThreadEventThunk
  68010000007203FE0C24525553B900000080FCE800000000B8000000808B0C:
    0. 1D 2D33 0070 0034:_createPriorityEventThunk
  FC525553B900000080E800000000B8000000808B0C24C704240800000068C6:
    0. 15 2A8C 008A 002C:_createEventThunk 0068:__evt_malloc
  FF742408FF742408FCB900000080E800000000B8000000808B0C24C7042408:
    0. 19 0C3B 006C 0030:_createAppyTimeEventThunk
0300:
  0400:
    5053FCE800000000C32E8BC0:
      0. 00 0000 0010 0000:_VPICD_VirtInt_thunkTEMPLATE
    5152FCE800000000C32E8BC0:
      0. 00 0000 0010 0000:_ASYNCTIMEOUT_thunkTEMPLATE
    5250FCE800000000C32E8BC0:
      0. 00 0000 0010 0000:_ShellMessage_thunkTEMPLATE
    5553FCE800000000:
      C32E8BC0:
        0. 00 0000 0010 0000:_NMIEvent_thunkTEMPLATE
      FFE08BC0:
        0. 00 0000 0010 (!)0000:?
    5657FCE800000000C32E8BC0:
      0. 00 0000 0010 0000:_BLOCKDEV_Command_thunkTEMPLATE
    5750FCE800000000C32E8BC0:
      0. 00 0000 0010 0000:_THREADSWITCH_thunkTEMPLATE
  0500:
    50:
      5253FCE800000000C38BC0:
        0. 00 0000 0010 0000:_VKDStartPaste_thunkTEMPLATE
      5357FCE800000000C38BC0:
        0. 00 0000 0010 0000:_BLOCKDEV_HW_Int_thunkTEMPLATE
    515053FCE800000000C38BC0:
      0. 00 0000 0010 0000:_VPICD_MaskChange_thunkTEMPLATE
    555253FCE800000000C38BC0:
      0. 00 0000 0010 0000:_ExecVM_thunkTEMPLATE
    565350FCE800000000C38BC0:
      0. 00 0000 0010 0000:_VCDIrq_thunkTEMPLATE
    575253FCE800000000C38BC0:
      0. 00 0000 0010 0000:_PropHook_thunkTEMPLATE
    9C6054FCE800000000619DC3:
      0. 00 0000 0010 0000:_BLOCKDEV_Sync_Cmd_thunkTEMPLATE
  0600:
    51525553FCE800000000C390:
      0. 00 0000 0010 0000:_TIMEOUT_thunkTEMPLATE
    55525753FCE800000000C390:
      0. 00 0000 0010 0000:_ThreadEvent_thunkTEMPLATE
    56525350FCE800000000C390:
      0. 00 0000 0010 0000:_VCDControl_thunkTEMPLATE
    9C555253FCE800000000C390:
      0. 00 0000 0010 0000:_PriorityVMEvent_thunkTEMPLATE
  0700:
    50:
      51525653FCE800000000C3:
        0. 00 0000 0010 0000:_VCDIo_thunkTEMPLATE
      55525153FCE800000000C3:
        0. 00 0000 0010 0000:_IO_thunkTEMPLATE
    5152555357FCE800000000C3:
      0. 00 0000 0010 0000:_THREADTIMEOUT_thunkTEMPLATE
    5650525553FCE800000000C3:
      0. 00 0000 0010 0000:_V86Break_thunkTEMPLATE
    5752515350FCE800000000C3:
      0. 00 0000 0010 0000:_VKDHotkey_thunkTEMPLATE
0400:
  0400:
    50:
      51FCE8000000000BC07401F9C38BC0:
        0. 00 0000 0014 0000:_FREEPHYS_thunkTEMPLATE
      53FCE8000000000BC07501F9C38BC0:
        0. 00 0000 0014 0000:_VPICD_HWInt_thunkTEMPLATE
    5553FCE8000000000BC07501F9C38BC0:
      0. 00 0000 0014 0000:_Idle_thunkTEMPLATE
    5753FCE8000000000BC07501F9C38BC0:
      0. 00 0000 0014 0000:_IPF_thunkTEMPLATE
  0500:
    505053FCE8000000005991FFE12E8BC0:
      0. 00 0000 0014 0000:_HWInt_thunkTEMPLATE
    525053FCE8000000000BC07501F9C390:
      0. 00 0000 0014 0000:_VPICD_HWInt_Ex_thunkTEMPLATE
  060051525350FCE8000000005A59C32E8BC0:
    0. 00 0000 0014 0000:_CursorProc_thunkTEMPLATE
  07009C608BC450FCE800000000619D:
    66CF90:
      0. 00 0000 0014 0000:_EXCEPTION_thunkTEMPLATE
    C38BC0:
      0. 00 0000 0014 0000:_Generic_thunkTEMPLATE
  0A00D1D183E101515053FCE800000000C390:
    0. 00 0000 0014 0000:_VPICD_Iret_thunkTEMPLATE
  0B00:
    9C8324240155525753FCE800000000C3:
      0. 00 0000 0014 0000:_RestrictedEventEx_thunkTEMPLATE
    F5D1D083E001555250FCE800000000C3:
      0. 00 0000 0014 0000:_SHELLEvent_thunkTEMPLATE
05000E0000000000EB06FF25........FCE9000000008BC0:
  0. 00 0000 0018 0000:_DeviceServiceC_thunkTEMPLATE
0700:
  0E009FC1E80E83E0015055515356FCE8000000005E5B595D83C404C38BC0:
    0. 00 0000 0020 0000:_CacheEnum_thunkTEMPLATE
  110000000000EB06FF25........555350FCE8000000000BC07501F9C390:
    0. 00 0000 0020 0000:_V86Int_thunkTEMPLATE
  130000000000EB06FF25........9C608BC450FCE800000000619DC38BC0:
    0. 00 0000 0020 0000:_DeviceService_thunkTEMPLATE
080007005654555153FCE8000000000BC074075B595B5E5EFFE08D6424105EF9:
  0. 04 825F 0024 0000:_IFSREQ_thunkTEMPLATE
0900130000000000EB06FF25........9C608BC450FCE80000000085C0750461:
  0. 08 CDE7 0028 0000:_DeviceServiceEx_thunkTEMPLATE
0D00:
  140000000000EB06FF25........505152505553FCE80000000085C07413:
    0. 18 DFF9 0038 0000:_PMFault_thunkTEMPLATE
  1B008D6424F456578BC45083C0045083C0045083C0045083C00450FCE800:
    0. 18 A229 0038 0000:_IFSPATH_thunkTEMPLATE
0FB6442404CD20:
  C5000100C20400:
    0. 00 0000 000E 0000:_INIT_Debug_Convert_Hex_Binary@4
  C6000100C20400:
    0. 00 0000 000E 0000:_INIT_Debug_Convert_Hex_Decimal@4
33:
  C0:
    5666C7410494008D71706689410633D2C7410C:
      1300000089411089411489:
        0. 80 38C8 00A0 0000:?InitPortData@VCommPort@@AAEXXZ
      1700000089411089411489:
        0. 80 38C8 00A0 0000:?InitPortData@VCommPort@@AAEXXZ
    894109894105C390909090909090:
      0. 00 0000 0010 0000:?_flush@_fifocore@@IAEXXZ
    8B113BD174:
      098B11408B123BD175F9C39090909090909090909090909090:
        0. 00 0000 0020 0000:?_count@_listcore@@QAEKXZ
      1C568B018B118B128B318B760489168972043BC15E750333C0:
        0. 10 7BB5 0030 0000:?_removeHead@_listcore@@QAEPAXXZ
      1F568B41048B51048B128B71048B760489168972043BC15E75:
        0. 10 E9FF 0030 0000:?_removeTail@_listcore@@QAEPAXXZ
    C2:
      04009090909090909090909090:
        0. 00 0000 0010 (!)0000:?
      08009090909090909090909090:
        0. 00 0000 0010 (!)0000:?
      0C009090909090909090909090:
        0. 00 0000 0010 (!)0000:?
      14009090909090909090909090:
        0. 00 0000 0010 0000:?handler@VIOPort@@UAEKPAUcb_s@@KPATtagCLIENT_STRUC@@KK@Z
      18009090909090909090909090:
        0. 00 0000 0010 0000:_ObReferenceObjectByHandle@24
    C390909090909090909090909090:
      0. 00 0000 0010 (!)0000:?
  C9CD20BC000100508B4424048F008B44240889088B44240C8910C20C00:
    0. 00 0000 001E 0000:_INIT_Get_HMA_Info@12
  F683BE........00740BFF96........83C604EBECC3:
    0. 00 0000 0017 0000:INITCRT
41726346696C7465723A20:
  4672616D652072656365697665643A20536F757263:
    0. 6F B4A4 008F -0008:_AfilterDebugFlag -0004:_ArcReferenceCount
  496E76616C69642050687973427566666572496E64:
    0. FF 0A98 0592 -0004:_AfilterDebugFlag
51:
  53:
    55568B742414578B7C241C33C033ED668B06668B2F8BC88BD5D1E9D1EA3B:
      0. 90 F965 00B0 0000:_RtlCompareUnicodeString@12
    8B:
      5C240C558B6C241C56578B7C2420894C24103BDF75188B44241C3BC575:
        0. 16 835B 00C0 0000:?AddPort@KResourceRequest@@QAEJ_K0KKEEG@Z (0056: 01)
        1. 16 835B 00C0 0000:?AddMemory@KResourceRequest@@QAEJ_K0KKEEG@Z (0056: 03)
      D9:
        56:
          578A4341895C240C84C074158B433950E8........8B4B3D51E8:
            0. 00 0000 0090 0000:??1KResourceRequest@@QAE@XZ
          8B03FF500C85C075095E83C8FF5B59C208008B730C8B43103BF075:
            0. E0 F60F 0100 0000:?read@VPipe@@UAEHPADH@Z
        8B03FF500C85C0750883C8FF5B59C208008B430C5556578B7B103BC7:
          0. E0 B241 0100 0000:?write@VPipe@@UAEHPADH@Z
  568BF1578B4E04F6C101745A8A46083CFF7453F6C102754E25FF0000008D7E:
    0. 02 1137 0070 0000:?hook@VFault@@UAEHXZ
  668B01568B74240C668BD05789442408663B1674085F32C05E59C204008B41:
    0. 50 0536 0070 0000:?Match@KUstring@@QAEDAAV1@@Z
  8B542408:
    535533ED896C24088A0A80F920740580F909750342EBF18A0A80F9:
      0. F0 7FD8 0110 0000:_INIT_strtol
    8D4424088D4C240050516A:
      006A006A006A0081C2FF0F00006A006A:
        0. 08 0715 0040 0000:??2VPageObject@@SAPAXI@Z
      086A006A006A0081C2FF0F00006A006A:
        0. 08 0715 0040 0000:??2VLockedPageObject@@SAPAXI@Z
520FB6420C0BC075088B02CD20040003008B4A04FF720852FCFFD10BC0F95A74:
  0. 13 1E6F 0033 (!)0000:?
53:
  55:
    56:
      5733C08B113BD10F84890000008A54241C8B74241884D2743485F67504:
        0. 80 8374 00A0 0000:?_find@_listcore@@QAEPAXPAX0D@Z
      8B:
        742414:
          578B7C241C8BE98D043E3B450876095F5E5D33C05BC20C00E8:
            0. 00 0000 0060 0000:?unmap@VV86Pages@@QAEHPAUcb_s@@KK@Z
          85F68BD98BEE7422578B7C241456578BCBE8........2BF003:
            0. 0B E346 0050 0000:?write@VDosToWinPipe@@UAEHPADH@Z
        F1:
          33DB57:
            538D4E11895E08885E0CE8........538D4E21C7460D:
              0. 00 0000 00B0 0000:??0KResourceRequest@@QAE@W4_INTERFACE_TYPE@@PBG1@Z
            8B4E088B7E0485C98D6E0CB801000000762385C074146A00:
              0. 03 2B89 0050 0000:?unhook@VV86Pages@@QAEHXZ
          5768........8D460C5056E8........8B7E048BE88B460883C40C:
            0. 0B DCF7 0050 0000:?hook@VV86Pages@@QAEHXZ
    8B6C24:
      0C5657668B750066D1EE468BFE81E7FFFF000057E8........8B5C:
        0. 35 E89A 0110 0000:?ConvertNTPathTo95@@YAJPAU_UNICODE_STRING@@PAU_STRING@@PAK@Z
      14565733FF85ED76338B7424188B542414B3080FBE028498:
        0. 00 0000 0060 0000:_DEBUG__memicmp (REF 001D: _DEBUG__CTAB)
        1. 00 0000 0060 0000:_STATIC__memicmp (REF 001D: _STATIC__CTAB)
        2. 00 0000 0060 0000:_INIT__memicmp (REF 001D: _INIT__CTAB)
        3. 00 0000 0060 0000:_LOCK__memicmp (REF 001D: _LOCK__CTAB)
        4. 00 0000 0060 0000:_PAGEABLE__memicmp (REF 001D: _PAGEABLE__CTAB)
  56:
    578B7C241033F6803F00741F8B5C24140FBE043E5053E8........83C408:
      0. 20 0BC9 0040 0000:_PAGEABLE_strspn (REF 0019: _PAGEABLE_strchr)
      1. 20 0BC9 0040 0000:_LOCK_strspn (REF 0019: _LOCK_strchr)
      2. 20 0BC9 0040 0000:_INIT_strspn (REF 0019: _INIT_strchr)
      3. 20 0BC9 0040 0000:_STATIC_strspn (REF 0019: _STATIC_strchr)
      4. 20 0BC9 0040 0000:_DEBUG_strspn (REF 0019: _DEBUG_strchr)
    8B:
      4424180BC075188B4C24148B44241033D2F7F18BD88B44240CF7F18BD3:
        0. 48 D0A0 0068 0000:__aulldiv
      74240C:
        8A5E3484DB74:
          0656E8........8B4424:
            188B4C24148B54241050:
              0. 07 524D 0040 0000:_KeSetTimer@16
            1C8B4C24188B54241450:
              0. 0A D993 0040 0000:_KeSetTimerEx@20
          2A8B4620C646340050C7462000000000E8:
            0. 00 0000 0040 0000:_KeCancelTimer@4
        8BD9578BFE83C9FF33C0F2AEF7D151E8........8BD083C40485:
          0. 30 914F 0050 0000:??0VVendorExtension@@QAE@PAD@Z
      F1:
        33DB:
          385E097410395E04740B8B0650E8........885E098B46043BC3:
            0. 09 DDD7 0050 0000:?Invalidate@KEvent@@QAEXXZ
          538D4E11895E08885E0CE8........538D4E21C7460D:
            0. 04 E492 0060 0000:??0KResourceRequest@@QAE@W4_INTERFACE_TYPE@@KK@Z (003B: 90)
            1. 04 E492 0090 0000:??0KResourceRequest@@QAE@W4_INTERFACE_TYPE@@PBGGGK@Z (003B: 89)
          578B46043BC37417385E08740C50E8........83C404885E0866:
            0. 0B 9877 0080 0000:?Initialize@KUstring@@QAEXPAGW4_POOL_TYPE@@@Z
            1. 1E BD96 0070 0000:?Initialize@KUstring@@QAEXGW4_POOL_TYPE@@@Z
        5733DBB90C0000008D969800000033C08BFAC706........899ECC00:
          0. 1C 517C 00A0 0000:??0VCommPort@@QAE@PAD@Z
  5733FF8B4424100BC07D14478B54240CF7D8F7DA83D800894424108954240C:
    0. 92 771B 00B2 0000:__allrem
  8B:
    19:
      5733D28B7B088B4B148B431803CF13C28B53103BD0721077078B430C3B:
        0. 1F A188 0090 0000:?Write@KKernelSharedFifo@@QAEKPAX@Z
      8B43108B4B183BC17268770A8B4B0C8B43143BC8765C8B53188B431455:
        0. 0E 0B5B 0080 0000:?Read@KKernelSharedFifo@@QAEKPAX@Z
    4424140BC075188B4C24108B44240C33D2F7F18B442408F7F18BC233D2EB:
      0. 55 27A6 0075 0000:__aullrem
    5C24:
      0856578B:
        F153E8........8D7E12538BCFE8........C707:
          0. 02 D3ED 0030 0000:??0VInChainV86Int@@QAE@K@Z (REF 0016: ??0VV86Callback@@QAE@PAX@Z)
          1. 02 D3ED 0030 0000:??0VInChainPMInt@@QAE@K@Z (REF 0016: ??0VProtModeCallback@@QAE@PAX@Z)
        FB83C9FF33C0F2AE8B7C2414F7D18A074984C08BF1742585:
          0. 09 BE19 0050 0000:_DEBUG_strcspn (REF 0029: _DEBUG_strchr)
          1. 09 BE19 0050 0000:_STATIC_strcspn (REF 0029: _STATIC_strchr)
          2. 09 BE19 0050 0000:_INIT_strcspn (REF 0029: _INIT_strchr)
          3. 09 BE19 0050 0000:_LOCK_strcspn (REF 0029: _LOCK_strchr)
          4. 09 BE19 0050 0000:_PAGEABLE_strcspn (REF 0029: _PAGEABLE_strchr)
      0C558B6C240C565766C74500010066C745020100C74504000000008B:
        0. 10 7385 00B0 0000:?AddList@KResourceRequest@@IAEPAU_IO_RESOURCE_LIST@@PAU2@PAV?$KList@U__resource@@@@@Z
      10:
        558B6C240C5657538BCDE8........8BF085F675118B4424245F5E:
          0. 21 C9FC 00E0 0000:?PortOpen@VCommPortDriver@@AAAPAU_PortData@@KPADPAUcb_s@@PAK@Z
        83FB020F8C8000000083FB247F7B8B54240885D2750C8B44240C5B:
          0. 80 0C6E 00A0 0000:_INIT__ltoa
55:
  56:
    578B7C24108B77188B4F108A47068B6F1403F1A80275426A006A006A0055:
      0. 02 26E3 0060 0000:_MmProbeAndLockPages
    8BF1:
      33ED578A461884C074208B4604C646180085C075158B461083F8FF74:
        0. 07 E1FA 00C0 0000:?Initialize@KPeripheralAddress@@IAEJ_KDKD@Z
      8B6E1185ED75075E33C05DC208008B4E058B46093BC875075E33C05D:
        0. 4E C33D 00D0 0000:?_read@_fifocore@@IAEKPAXK@Z
  8B:
    6C24:
      08578BF966817D1C8A16756353566A046A3CE8........8B77048A10:
        0. 60 6EB7 0080 0000:?test@VVendorExtension@@IAEHPATtagCLIENT_STRUC@@@Z
      1083FD02570F8C8D00000083FD240F8F840000008B7C240C85FF750E:
        0. 90 E9DE 00B0 0000:_INIT__ultoa
      1433C985ED762C8B442408568B742410578B7C24188A1646881033D2:
        0. 20 6148 0040 0000:_INIT__memccpy
    E9568B750485F67429538B5C2410578B46085053FF56048B3E56E8:
      0. 00 0000 0040 0000:?CallTerminationRoutines@VDevice@@AAEXK@Z
    EC:
      33C0:
        5D:
          C20800:
            0. 00 0000 0009 0000:_ZwUnmapViewOfSection@8
          C3:
            0. 00 0000 0007 (!)0000:?
        8B4D080FBA2900F5D1D0C9C3:
          0. 00 0000 0011 0000:__pipe_lock
      51:
        53:
          56:
            57:
              33C08B:
                4D1085C9742D8B45088B550CEB088A183A1A75174042:
                  0. 2A A553 004A (!)0000:?
                C88BD033FF33F6CD2008010100CD20660101008845FC:
                  0. 0A 6276 002A 0000:_KeGetCurrentIrql@0
              6A008B450850E8........83C40883E8018945FC8B4D088B55:
                0. 1B 7F6F 003B (!)0000:?
              837D0800755568........6A:
                0E68........68........68:
                  0. 00 0000 00DB 0000:_KeWaitForSingleObject@20
                7A68........68........68:
                  0. 00 0000 008E 0000:_IoDisconnectInterrupt@4
              894DFC:
                8B:
                  45:
                    0C508B4D08518B4DFCE8........8B55FCC64209:
                      0. 02 0164 008F 0000:??0KEvent@@QAE@PAXK@Z
                    FC:
                      83780C00745868........681B01000068:
                        0. 00 0000 007D 0000:?Initialize@_isafelist@@QAEXPAVKInterrupt@@@Z
                      8B:
                        4818518B5014528B4DFC83C10CE8:
                          0. 20 B7D4 0072 0000:?Peek@CSharedFifo@@QAEKPAX@Z
                        4D0889088B55FCC7420400000000E8:
                          0. 00 0000 00B8 0000:??0KDispatcherObject@@IAE@PAXK@Z
                      C74008000000008B4DFCC6410C008B4DFC83C1:
                        0. 02 79D4 01CF 0000:??0KResourceRequest@@QAE@W4_INTERFACE_TYPE@@PBGGGK@Z
                  4DFCE8........0FBEC085C074:
                    668B4DFC8379:
                      0400:
                        0. 03 7467 00FC 0000:?Initialize@KInterrupt@@QAEXDKKDKD@Z
                      1100:
                        0. 03 7467 00DA 0000:?_initialize@_fifocore@@IAEXKKPAX@Z
                    698B4DFC83791D00:
                      0. 03 0CD7 00C0 0000:?Initialize@KMemoryToProcessMap@@QAEJ_KKPAXD1W4_SECTION_INHERIT@@@Z
                CD20:
                  470001005F5E5B8BE55DC3:
                    0. 00 0000 0017 (!)0000:?
                  4A0001005F5E5B8BE55DC3:
                    0. 00 0000 0017 (!)0000:?
                  E20001005F5E5B8BE55DC3:
                    0. 00 0000 0017 0000:?clearScreen@Vmonostream@@QAEXXZ
                E8........0FBEC083F81F7C:
                  5568........6A4F68:
                    0. 00 0000 008C 0000:?Initialize@KEvent@@QAEXPAXK@Z
                  5868........68A40000:
                    0. 02 09E0 0126 0000:?Initialize@KDispatcherObject@@IAEXPAXK@Z
              8B:
                45088945FC837DFC:
                  007408837DFC017412EB236A008B4D0C:
                    0. 02 2EAE 00A7 0000:_ExAllocatePool@8
                  0377328B4DFCFF248D........CD20E2:
                    0. 05 C303 005C 0000:_SetDebugOutput
                4D088B550C0FB6010FB61A3C4172063C5A7702042080FB41:
                  0. 23 14BA 0043 (!)0000:?
                D9C645FE1F33C08BC88BD033FF33F6CD2008010100CD2066:
                  0. 22 C771 0090 0000:@ExTryToAcquireFastMutex@4
              A1........8945FC837DFC007415837DFC017402EB18608B4D:
                0. 03 67A1 003C 0000:_DebugString
              C745FC00000000:
                8B75088B7D0C8B4D10497C:
                  150FB6060FB61F:
                    0. 19 4F4C 0039 (!)0000:?
                  2C0FB6060FB61F:
                    0. 30 5353 0050 (!)0000:?
                FC8B75088A550CAC3AC274060AC075F7EB0A:
                  0. 14 1D96 0034 (!)0000:?
              FAA1........B9........FF10B9........E8........8B15:
                0. 00 0000 00B0 0000:?__DpcEventHandler@@YGXPAUcb_s@@PAXPATtagCLIENT_STRUC@@@Z
              FC8B:
                75088A550CAC3AC274090AC075F7BE010000004E8975FC:
                  0. 0A 455A 002A (!)0000:?
                7D08B9FFFFFFFF32C0F2AEF7D94949894DFC8B45FC5F5E:
                  0. 05 86B7 0025 0000:_INIT___bc_strlen
            9C8F45FCFA8B75088B4E088B450C85C98B4D108946100F95C384:
              0. 08 AF95 0090 0000:_KeInsertQueueDpc@12
          8BD9:
            56578B433985C074618A450884C0755A8B433D85C00F84A300:
              0. 44 B387 00D0 0000:?SetSignaledState@KTIMER@@QAEXD@Z
            8B4330C643340085C074585657C645FE1F33C08BC88BD033FF:
              0. 32 BAE7 0090 0000:?handler@KTIMER@@UAEXPAUcb_s@@KPATtagCLIENT_STRUC@@K@Z
        56:
          57:
            33C08BC88BD033FF33F6CD2008010100CD20660101008845FF8A:
              0. 40 9D01 0060 0000:_KeSynchronizeExecution@12
            8B:
              45:
                0833C9668B088B550C33C0668B0203C866894DFC8B4DFC81:
                  0. 5B 71BC 007B 0000:_RtlAppendUnicodeStringToString@8
                0C3B4508721B8B4D108B750C8B7D088BD18BC7C1E902F3A5:
                  0. 5C 603D 007C 0000:_INIT_memmove
              7D0883C9FF33C0F2AEF7D1:
                51E8........83C4048945FC837D:
                  0. 30 5035 0050 0000:_PAGEABLE__strdup (REF 0014: _PAGEABLE_malloc)
                  1. 30 5035 0050 0000:_LOCK__strdup (REF 0014: _LOCK_malloc)
                  2. 30 5035 0050 0000:_INIT__strdup (REF 0014: _INIT_malloc)
                  3. 30 5035 0050 0000:_STATIC__strdup (REF 0014: _STATIC_malloc)
                  4. 30 5035 0050 0000:_DEBUG__strdup (REF 0014: _DEBUG_malloc)
                83C1FF894DFC8B45FC508B4D0C51:
                  0. 05 4CF4 0067 0000:?RemovePathPrefixIfMatch@@YAHPAD0@Z
            9C8F45FCFAA1........B9........FF108B7508B9........56:
              0. 01 3E9B 0050 0000:_KeRemoveQueueDpc@4
          894DFC8B450833C98B55FC51508B4204508B0A51E8........8B4D:
            0. 08 0F01 0043 0000:??LFIFOINDEX@@QAEKK@Z
        57:
          894DFC8B:
            45FC:
              C600008B4DFC8B55088951018B45FCC74005000000:
                0. 54 9FFA 0074 0000:??0_fifocore@@IAE@KKPAX@Z
              C700........8B4DFCC781CC000000000000008B55:
                0. 3C 7ABA 0095 0000:??0VCommPort@@QAE@PAD@Z (0038: 00)
                1. 3C 7ABA 00E4 0000:??0VCommPort@@QAE@PAD@Z (0038: E0)
            7D0C83C9FF33C0F2AEF7D1518B450C506A018B4D08518B:
              0. 06 8DAB 0046 0000:?setSubkeyValue@VRegistryKey@@QAEHPAD0@Z
          8B450C508B4D0851E8........83C4088945FC8B7D0883C9FF33C0:
            0. 1B 276C 003B 0000:_DEBUG_strpbrk (REF 000E: _DEBUG_strcspn)
            1. 1B 276C 003B 0000:_STATIC_strpbrk (REF 000E: _STATIC_strcspn)
            2. 1B 276C 003B 0000:_INIT_strpbrk (REF 000E: _INIT_strcspn)
            3. 1B 276C 003B 0000:_LOCK_strpbrk (REF 000E: _LOCK_strcspn)
            4. 1B 276C 003B 0000:_PAGEABLE_strpbrk (REF 000E: _PAGEABLE_strcspn)
          FC8B7D08B9FFFFFFFF32C0F2AEF7D94949894DFC8B45FC5F8BE55D:
            0. 10 FFF5 0030 0000:_INIT___bc_strlen
        68........68........6A096A006A006A006A006A006A016A01E8:
          0. 00 0000 005A 0000:?initEvents@VEvent@@SAHXZ
        6A:
          008B450850E8........83C4088945FC837DFC0075118B4D0851FF:
            0. 01 54B7 0033 0000:??2@YAPAXI@Z
          01E8........A1........85C0750ACD20200001008BE55DC35650:
            0. 01 3E9B 00D0 0000:?DisposeAll@VPMDPMIEntry@@SAXXZ
        894DFC:
          33C08BE55D:
            C20400:
              0. 00 0000 000F (!)0000:?
            C3:
              0. 00 0000 000D 0000:?OnGetContentionHandler@VDevice@@MAEPAXXZ
          668B450C508B4DFC8B5104528B450850E8........8BE55DC2:
            0. 02 87C1 0022 0000:?reflectToVM@VHotKey@@QAEXPAUcb_s@@K@Z
          68........:
            6A:
              01E8........83C40833C08BE55D:
                C20800:
                  0. 00 0000 001E 0000:?_unhookProc@VProtModeFault@@EAEHHPAX@Z (REF 0008: ??_C@_0BH@DJOI@Cannot?5unhook?5PM?5fault?$AA@)
                  1. 00 0000 001E 0000:?_unhookProc@VNMIEvent@@EAEHHPAX@Z (REF 0008: ??_C@_0BI@LGKJ@Cannot?5unhook?5NMI?5Event?$AA@)
                  2. 00 0000 001E 0000:?_unhookProc@VV86ModeFault@@EAEHHPAX@Z (REF 0008: ??_C@_0BI@MG@Cannot?5unhook?5V86?5fault?$AA@)
                  3. 00 0000 001E 0000:?_unhookProc@VVMMFault@@EAEHHPAX@Z (REF 0008: ??_C@_0BJ@FKJE@Cannot?5unhook?5VMM?5faults?$AA@)
                C3:
                  0. 00 0000 001C 0000:?unhook@VIOPort@@QAEHXZ
              02E8........83C408:
                33C08BE55DC2:
                  0C00:
                    0. 00 0000 001E 0000:?handler@VInvalidPageFault@@UAEHPAUcb_s@@PAUtagIPF_Data@@PATtagCLIENT_STRUC@@@Z (REF 0008: ??_C@_0DP@FPPF@?$CChandler?$CC?5for?5VInvalidPageFault?5@)
                    1. 00 0000 001E 0000:?handler@VFault@@UAEHPAUcb_s@@PATtagCLIENT_STRUC@@H@Z (REF 0008: ??_C@_0DE@BDJH@?$CChandler?$CC?5for?5VFault?5class?5is?5no@)
                    2. 00 0000 001E 0000:?handler@VPreChainV86Int@@UAEHPAUcb_s@@PATtagCLIENT_STRUC@@K@Z (REF 0008: ??_C@_0DN@LCHP@?$CChandler?$CC?5for?5VPreChainV86Int?5cl@)
                  1400:
                    0. 00 0000 001E 0000:?handler@VIOPort@@UAEKPAUcb_s@@KPATtagCLIENT_STRUC@@KK@Z
                8B:
                  45FC8B108B4DFCFF52:
                    0. 09 6FC5 0029 0000:?handler@VV86DPMIEntry@@UAEHPAUcb_s@@PATtagCLIENT_STRUC@@PAX@Z (REF 0008: ??_C@_0DL@JAGN@?$CChandler?$CC?5for?5VV86DPMIEntry?5clas@)
                    1. 09 6FC5 0029 0000:?handler@VProtModeCallback@@UAEHPAUcb_s@@PATtagCLIENT_STRUC@@PAX@Z (REF 0008: ??_C@_0DP@NMNK@?$CChandler?$CC?5for?5VProtModeCallback?5@)
                    2. 09 6FC5 0029 0000:?handler@VCallback@@UAEHPAUcb_s@@PATtagCLIENT_STRUC@@PAX@Z (REF 0008: ??_C@_0DH@BNJL@?$CChandler?$CC?5for?5VCallback?5class?5is@)
                    3. 09 6FC5 0029 0000:?handler@VPMDPMIEntry@@UAEHPAUcb_s@@PATtagCLIENT_STRUC@@PAX@Z (REF 0008: ??_C@_0DK@OAPB@?$CChandler?$CC?5for?5VPMDPMIEntry?5class@)
                    4. 09 6FC5 0029 0000:?handler@VV86Callback@@UAEHPAUcb_s@@PATtagCLIENT_STRUC@@PAX@Z (REF 0008: ??_C@_0DK@MLCD@?$CChandler?$CC?5for?5VV86Callback?5class@)
                  E55DC2:
                    0800:
                      0. 00 0000 001C 0000:?handler@VV86Pages@@UAEXPAUcb_s@@K@Z (REF 0008: ??_C@_0DH@KFB@?$CChandler?$CC?5for?5VV86Pages?5class?5is@)
                      1. 00 0000 001C 0000:?handler@VDeviceAPI@@UAEXPAUcb_s@@PATtagCLIENT_STRUC@@@Z (REF 0008: ??_C@_0DI@JEE@?$CChandler?$CC?5for?5VDeviceAPI?5class?5i@)
                      2. 00 0000 001C 0000:?handler@VAppyTimeEvent@@UAEXPAXK@Z (REF 0008: ??_C@_0DM@HAOG@?$CChandler?$CC?5for?5VAppyTimeEvent?5cla@)
                    0C00:
                      0. 00 0000 001C 0000:?handler@VVMEvent@@UAEXPAUcb_s@@PATtagCLIENT_STRUC@@PAX@Z (REF 0008: ??_C@_0DG@EJOP@?$CChandler?$CC?5for?5VVMEvent?5class?5is?5@)
                      1. 00 0000 001C 0000:?handler@VGlobalEvent@@UAEXPAUcb_s@@PATtagCLIENT_STRUC@@PAX@Z (REF 0008: ??_C@_0DK@KMDP@?$CChandler?$CC?5for?5VGlobalEvent?5class@)
                    1000:
                      0. 00 0000 001C 0000:?handler@VPriorityVMEvent@@UAEXPAUcb_s@@PATtagCLIENT_STRUC@@PAXH@Z (REF 0008: ??_C@_0DO@KNOM@?$CChandler?$CC?5for?5VPriorityVMEvent?5c@)
                      1. 00 0000 001C 0000:?handler@VThreadEvent@@UAEXKPAUcb_s@@PATtagCLIENT_STRUC@@PAX@Z (REF 0008: ??_C@_0DK@LNBH@?$CChandler?$CC?5for?5VThreadEvent?5class@)
                    1400:
                      0. 00 0000 001C 0000:?handler@VHotKey@@UAEXEW4keyAction_t@@KPAXK@Z
            8B45FC83C008508B4DFC51E8........83C40C50:
              0. 01 3E9B 002C 0000:?Register@VCommPortDriver@@IAEHXZ
          6A:
            00:
              68........8B45FC83C008508B4DFC51E8........83C4:
                0. 13 DD7C 004D 0000:?Set@VVMTimeOut@@UAEHXZ (REF 0033: _LOCK_Set_VM_Time_Out@20)
                1. 13 DD7C 004D 0000:?Set@VThreadTimeOut@@UAEHXZ (REF 0033: _LOCK_Set_Thread_Time_Out@20)
                2. 0C E77A 0046 0000:?Set@VAsyncTimeOut@@UAEHXZ (REF 002C: _LOCK_Set_Async_Time_Out@16)
                3. 0C E77A 0046 0000:?Set@VGlobalTimeOut@@UAEHXZ (REF 002C: _LOCK_Set_Global_Time_Out@16)
              6A006A006A008B4DFCE8........8B45FCC700:
                0. 11 CAEF 0031 0000:??0VSharedHardwareInt@@AAE@XZ
              8B:
                45:
                  08508B4DFC8B5108528B45FC8B480451E8:
                    0. 09 DD0D 0029 0000:?assign@VV86Pages@@QAEHPAUcb_s@@@Z (REF 001C: _LOCK__Assign_Device_V86_Pages)
                    1. 09 DD0D 0029 0000:?deassign@VV86Pages@@QAEHPAUcb_s@@@Z (REF 001C: _LOCK__DeAssign_Device_V86_Pages)
                  0C50:
                    8B4D0851:
                      8B:
                        4DFCE8........8B55FC8B451089:
                          0. 0B 75F3 002B 0000:??0_isafefifo@@IAE@KKPAUINTERRUPT_CONTEXT@@@Z
                        55FC83C20D52E8........8BE55D:
                          0. 03 2EB7 0023 0000:?Set@KTimer@@UAEDT_LARGE_INTEGER@@@Z
                      E8........:
                        8B:
                          551089028B451033C9:
                            0. 0E 5A61 002E 0000:?_hookProc@VV86ModeFault@@EAEHHPAXPAPAX@Z (REF 0012: _PAGEABLE_Hook_V86_Fault@12)
                            1. 0E 5A61 002E 0000:?_hookProc@VProtModeFault@@EAEHHPAXPAPAX@Z (REF 0012: _PAGEABLE_Hook_PM_Fault@12)
                            2. 0E 5A61 002E 0000:?_hookProc@VVMMFault@@EAEHHPAXPAPAX@Z (REF 0012: _PAGEABLE_Hook_VMM_Fault@12)
                          E55DC20800:
                            0. 00 0000 001C 0000:?_unhookProc@VProtModeFault@@EAEHHPAX@Z (REF 0012: _PAGEABLE_Unhook_PM_Fault@12)
                            1. 00 0000 001C 0000:?_unhookProc@VV86ModeFault@@EAEHHPAX@Z (REF 0012: _PAGEABLE_Unhook_V86_Fault@12)
                        F7D81BC0F7D88BE55DC2:
                          0. 02 87C1 0022 0000:?_unhookProc@VVMMFault@@EAEHHPAX@Z
                    E8........B8010000008BE55DC20800:
                      0. 00 0000 001D 0000:?_unhookProc@VNMIEvent@@EAEHHPAX@Z
                  10508B4D0C518B5508528B45FC83C00D50E8:
                    0. 00 0000 0027 0000:?SetPeriodic@KTimer@@UAEDT_LARGE_INTEGER@@J@Z
                  FC8B0851E8........83C4088BE55DC3:
                    0. 00 0000 001B 0000:??1VPageBlock@@QAE@XZ
                4DFC83C104E8........8B45FCC700........6A00E8:
                  0. 00 0000 0034 0000:??0?$KList@VKResourceRequest@@@@QAE@XZ (REF 0019: ??_7?$KList@VKResourceRequest@@@@6B@)
                  1. 00 0000 0034 0000:??0?$KList@U__resource@@@@QAE@XZ (REF 0019: ??_7?$KList@U__resource@@@@6B@)
                  2. 00 0000 0034 0000:??0?$KList@VKDPC@@@@QAE@XZ (REF 0019: ??_7?$KList@VKDPC@@@@6B@)
            018B4DFC83C128E8........B8010000008BE55DC3:
              0. 00 0000 001D 0000:?lock@VDosToWinPipe@@MAEHXZ
            028B4DFCE8........8B45FCC700........8B45FC8BE55D:
              0. 01 EF04 0021 0000:??0VNMIEvent@@QAE@XZ
            148B45FC8B0851E8........83C4088BE55DC3:
              0. 00 0000 001B 0000:@ExAcquireFastMutex@4
          8A45:
            14508B4D10516A008B550C528B4508508B4DFCE8:
              0. 00 0000 002A 0000:??0KMemoryRange@@QAE@_KKD@Z (0006: 5D)
              1. 00 0000 0027 0000:?Initialize@KMemoryRange@@QAEJ_KKD@Z (0006: 00)
            18508B4D10518B550C528B4508508B4DFCE8........8B:
              0. 31 12F7 005E 0000:??0KMemoryToProcessMap@@QAE@_KKPAXD1W4_SECTION_INHERIT@@@Z
          8B:
            45:
              08:
                25FFFF0000:
                  25FF000000508B4D0881E1FFFF0000C1F9:
                    0. 06 6D02 0037 0000:??6Vdbostream@@QAEAAV0@G@Z
                  508B4D08C1E910518B4DFCE8........8B:
                    0. 02 6B60 002C 0000:??6Vdbostream@@QAEAAV0@K@Z
                33C9668B088B55FC33C0668B42023BC87F2C8B4DFC8B:
                  0. 20 1D1E 0053 0000:?Assign@KUstring@@QAEJAAV1@@Z
                3B45FC750433C0EB098B4DFC8B45082B41088BE55DC2:
                  0. 02 2768 0022 0000:?Container@_listcore@@QAEPAXPAU_LIST_ENTRY@@@Z
                50:
                  6A008B4DFCE8........8BE55DC20400:
                    0. 00 0000 001B 0000:?setValue@VRegistryKey@@QAEHPAD@Z
                  8A4D0C518B55FC8B0250E8........83C40C33C08B:
                    0. 05 BEED 0025 0000:?LockPages@KMemory@@QAEJW4_LOCK_OPERATION@@D@Z
                  8B4D:
                    0C51E8........8B55FC89028B45FC8BE55DC2:
                      0. 02 87C1 0022 0000:??0VList@@QAE@KK@Z
                    FC:
                      51E8........8BE55DC20400:
                        0. 00 0000 001A 0000:?Append@KUstring@@QAEJAAV1@@Z
                      83C1:
                        1EE8........6A2F8B4DFCE8:
                          0. 05 4A20 003C 0000:??0VPMVendorExtension@@QAE@PAD@Z
                        40E8........6A2F8B4DFCE8:
                          0. 05 4A20 0032 0000:??0VV86VendorExtension@@QAE@PAD@Z
                      8B:
                        09E8........8BE55DC20400:
                          0. 00 0000 001B 0000:?Write@KKernelSharedFifo@@QAEKPAX@Z (REF 0011: ?Write@CSharedFifo@@QAEKPAX@Z)
                          1. 00 0000 001B 0000:?Read@KKernelSharedFifo@@QAEKPAX@Z (REF 0011: ?Read@CSharedFifo@@QAEKPAX@Z)
                          2. 00 0000 001B 0000:?Peek@KKernelSharedFifo@@QAEKPAX@Z (REF 0011: ?Peek@CSharedFifo@@QAEKPAX@Z)
                        11:
                          52E8........:
                            83C4088B:
                              4DFC89410C8B:
                                0. 11 ECD8 0031 0000:?removeSubkey@VRegistryKey@@QAEHPAD@Z (REF 0012: _PAGEABLE__RegDeleteKey)
                                1. 11 ECD8 0031 0000:?removeValue@VRegistryKey@@QAEHPAD@Z (REF 0012: _PAGEABLE__RegDeleteValue)
                              E55DC20400:
                                0. 00 0000 001F 0000:?enter@VMutex@@QAEXK@Z
                            8BE55DC20400:
                              0. 00 0000 001C 0000:?wait@VSemaphore@@QAEXK@Z
                          8B4DFCFF128B45FC8BE55DC20400:
                            0. 00 0000 001E 0000:??6Vdbostream@@QAEAAV0@PBD@Z
                        4904E8........8BE55DC20400:
                          0. 00 0000 001C 0000:?Unmap@KKernelSharedFifo@@QAEXPAX@Z
                      E8........:
                        6A018B4DFC83C128E8:
                          0. 09 BAD2 0051 0000:??0VDosToWinPipe@@QAE@KKPAX@Z
                        8B:
                          45088BE55DC20400:
                            0. 00 0000 001C 0000:??4VRegistryKey@@QAEPADPAD@Z
                          4D:
                            08518B4DFC83C112E8:
                              0. 00 0000 003E 0000:??0VInChainV86Int@@QAE@K@Z (REF 001E: ??0VV86Callback@@QAE@PAX@Z)
                              1. 00 0000 003E 0000:??0VInChainPMInt@@QAE@K@Z (REF 001E: ??0VProtModeCallback@@QAE@PAX@Z)
                            FCC7:
                              01........8B45FC8B:
                                0. 05 1E44 0025 0000:??0VV86ModeFault@@QAE@H@Z (REF 0018: ??_7VV86ModeFault@@6B@)
                                1. 05 1E44 0025 0000:??0VProtModeFault@@QAE@H@Z (REF 0018: ??_7VProtModeFault@@6B@)
                                2. 05 1E44 0025 0000:??0VVMMFault@@QAE@H@Z (REF 0018: ??_7VVMMFault@@6B@)
                              410C000000008B45FC:
                                0. 06 6154 0026 0000:??0_isafelist@@IAE@K@Z
                  E8........8B:
                    4DFC89018B55FC833A00750F68:
                      0. 00 0000 0035 0000:??0VSemaphore@@QAE@H@Z
                    E55DC20400:
                      0. 00 0000 0016 0000:?_output@Vdbostream@@MAEXPBD@Z (REF 000C: _LOCK_Out_Debug_String@4)
                      1. 00 0000 0016 0000:?_output@Vmonostream@@MAEXPBD@Z (REF 000C: _LOCK_Out_Mono_String@4)
                A3........8BE55DC20400:
                  0. 00 0000 0015 0000:?DoAcquireRelease@VCommPortDriver@@IAEXH@Z
              0C:
                25FF:
                  000000508B4DFC8B5108528B450850E8:
                    0. 06 C1FD 0026 0000:?setEISAMode@VDMAChannel@@QAEXKE@Z
                  FF0000508B4D08518B55FC8B420850E8:
                    0. 06 C1FD 0026 0000:?setPhysicalState@VDMAChannel@@QAEXPAUcb_s@@G@Z
                50:
                  668B4D08518B55FC8B420450E8........8BE55DC2:
                    0. 02 87C1 0022 0000:?_setVector@VInChainV86Int@@EAEXGK@Z (REF 0018: _PAGEABLE_Set_V86_Int_Vector@12)
                    1. 02 87C1 0022 0000:?_setVector@VInChainPMInt@@EAEXGK@Z (REF 0018: _PAGEABLE_Set_PM_Int_Vector@12)
                  8B4D:
                    0851:
                      6A008B55FC8B0250E8........83C4108B:
                        0. 17 01D5 0037 0000:?getValue@VRegistryKey@@QAEHPADPAK@Z
                        1. 23 0F54 0043 0000:?firstSubkey@VRegistryKey@@QAEHPADK@Z
                      8B55FC8B:
                        0250E8........8BE55DC20800:
                          0. 00 0000 0020 0000:?insert@VList@@QAEXPAX0@Z
                        420450:
                          8B4DFC8B1152E8:
                            0. 00 0000 004B 0000:?nextSubkey@VRegistryKey@@QAEHPADK@Z
                          E8........8BE55DC208:
                            0. 01 78F0 0021 0000:?_getVector@VInChainV86Int@@EAEXPAGPAK@Z (REF 0017: _PAGEABLE_Get_V86_Int_Vector@12)
                            1. 01 78F0 0021 0000:?_getVector@VInChainPMInt@@EAEXPAGPAK@Z (REF 0017: _PAGEABLE_Get_PM_Int_Vector@12)
                      E8........:
                        83C4088B55FC89028B45FC8B:
                          0. 05 BEED 0025 0000:??0VMutex@@QAE@KK@Z
                        8BE55DC20800:
                          0. 00 0000 001A 0000:?setCursorPosition@Vmonostream@@QAEXKK@Z
                    FC:
                      83C1:
                        0CE8........85C074108B4DFC83E912:
                          0. 11 9267 003D 0000:?handler@VPMVendorExtension@@UAEHPAUcb_s@@PATtagCLIENT_STRUC@@PAX@Z
                        40E8........8BE55DC20C00:
                          0. 00 0000 001C 0000:?handler@VV86VendorExtension@@UAEHPAUcb_s@@PATtagCLIENT_STRUC@@K@Z
                      8B5108528B450850E8........8BE55DC208:
                        0. 01 78F0 0021 0000:?enableTranslation@VDMAChannel@@QAEHPAUcb_s@@AAH@Z
                      E8........8B4D:
                        08518B4DFC83C110E8:
                          0. 00 0000 0080 0000:??0VPMDPMIEntry@@QAE@PADPAX@Z (0035: E8)
                          1. 00 0000 0059 0000:??0VV86DPMIEntry@@QAE@PADPAX@Z (0035: 5D)
                        FC8B550889510C8B45FC8B:
                          0. 05 BEED 0025 0000:??0_isafelist@@IAE@PAVKInterrupt@@K@Z
              10:
                50:
                  8B4D:
                    08518B550C528B45FC8B0851E8........83C4:
                      0. 07 9754 0027 0000:?lock@VPageBlock@@QAEHKKK@Z (REF 001A: _PAGEABLE__PageLock)
                      1. 07 9754 0027 0000:?unlock@VPageBlock@@QAEHKKK@Z (REF 001A: _PAGEABLE__PageUnLock)
                    0C518B5508528B:
                      45FC8B0851E8........83C4:
                        0. 1B 0F78 003B 0000:?getSubkeyValue@VRegistryKey@@QAEHPAD0PAK@Z
                      4DFCE8........8B45FC8B4D:
                        0. 0D EE75 002D 0000:??0_isafefifo@@IAE@KKPAXPAUINTERRUPT_CONTEXT@@@Z
                    FCE8........8B4D0C518B4DFC83C110E8:
                      0. 00 0000 008C 0000:??0VPMDPMIEntry@@QAE@PAUtagPMCB@@PADPAX@Z
                  E8........508B4DFCE8........8B4DFCC701:
                    0. 00 0000 003D 0000:??0D2WPipeEvent@@QAE@PAVVDosToWinPipe@@HPAX@Z
                C700000000006A008B4D0C51E8........B801000000:
                  0. 06 A19A 0026 0000:?_hookProc@VNMIEvent@@EAEHHPAXPAPAX@Z
              14:
                0345188B4DFC3B4108760433C0EB2C8B55FC8B451403:
                  0. 1E 8E1B 004B 0000:?map@VV86Pages@@QAEHPAVVPageBlock@@KPAUcb_s@@KK@Z
                25FFFF0000508B4D10518B550C528B45FC8B4808518B:
                  0. 04 5C0A 002E 0000:?setVirtualState@VDMAChannel@@QAEXPAUcb_s@@PAXKG@Z
                508B4D:
                  0C518B5510528B4508508B4DFC8B510452E8:
                    0. 00 0000 0029 0000:?copyFrom@VDMABuffer@@QAEHPAXKKAAK@Z (REF 001F: _LOCK_VDMAD_Copy_From_Buffer@20)
                    1. 00 0000 0029 0000:?copyTo@VDMABuffer@@QAEHPAXKKAAK@Z (REF 001F: _LOCK_VDMAD_Copy_To_Buffer@20)
                  10518B55:
                    0C528B4508508B4DFCE8........8B:
                      0. 04 5ADE 0031 0000:??0VSharedHardwareInt@@QAE@HKKPAX@Z
                    FC83C24E52E8........8B45FC83C0:
                      0. 12 CD64 003C 0000:?Set@KTimedCallback@@UAEDT_LARGE_INTEGER@@P6GXPAVKDPC@@PAX22@Z2@Z
              18508B4D14518B55FC83C24E52E8........8B45FC83C0:
                0. 16 2536 0040 0000:?SetPeriodic@KTimedCallback@@UAEDT_LARGE_INTEGER@@JP6GXPAVKDPC@@PAX22@Z2@Z
              FC:
                0FBE48:
                  0985C974218B4DFCE8........0FBED085D274:
                    0. 08 EB57 003F 0000:?Invalidate@KEvent@@QAEXXZ
                  1885C974368B55FCC64218008B45FC83780400:
                    0. 1A 3C4E 004C 0000:?Invalidate@KPeripheralAddress@@QAEXXZ
                33C9:
                  668B088B:
                    550C81E2FFFF00003BCA7D308B45FC33:
                      0. 11 A163 0057 0000:?ToWstr@KUstring@@QAEJPAGG@Z
                    C1D1E88BE55DC3:
                      0. 00 0000 0017 0000:?Length@KUstring@@QAEGXZ
                  83:
                    38000F95C18AC18BE55DC3:
                      0. 00 0000 0018 (!)0000:?
                    78:
                      04000F95C18AC18BE55DC3:
                        0. 00 0000 0019 (!)0000:?
                      11000F95C18AC18BE55DC3:
                        0. 00 0000 0019 0000:?IsValid@_fifocore@@QAEDXZ
                      1D000F95C18AC18BE55DC3:
                        0. 00 0000 0019 0000:?IsValid@KMemoryToProcessMap@@QAEDXZ
                508B4DFC83C108518B55FC83C204528B450C508B4D08:
                  0. 02 2EAE 003C 0000:??0VDMABuffer@@QAE@PAXK@Z
                66:
                  8B008BE55DC3:
                    0. 00 0000 0011 0000:?Size@KUstring@@QAEGXZ
                  C7400494008B4DFC66C7410600008B55FCC7420C:
                    13:
                      0. FF 4402 017B 0000:?InitPortData@VCommPort@@AAEXXZ
                    17:
                      0. FF 4402 017B 0000:?InitPortData@VCommPort@@AAEXXZ
                83:
                  3800:
                    74:
                      0B8B4DFC8B1152E8........8BE55DC3:
                        0. 00 0000 001E 0000:??1VList@@QAE@XZ
                      0F8B4D08518B55FC8B0250E8........8BE5:
                        0. 04 057A 0024 0000:?attach@VList@@QAEXPAX@Z (REF 001A: _LOCK_List_Attach@8)
                        1. 04 057A 0024 0000:?deleteNode@VList@@QAEXPAX@Z (REF 001A: _LOCK_List_Deallocate@8)
                        2. 04 057A 0024 0000:?attachTail@VList@@QAEXPAX@Z (REF 001A: _LOCK_List_Attach_Tail@8)
                      1A8B4D08518B55FC8B0250E8........85C0:
                        0. 0A 99C2 0040 0000:?remove@VList@@QAEHPAX@Z
                    750C8B4DFC8B510452E8........8BE55DC3:
                      0. 00 0000 001F 0000:??1VDMABuffer@@QAE@XZ
                  78:
                    040074168B4DFC8B510452E8........8B45FCC7:
                      0. 0A 9947 002A 0000:?Disconnect@KInterrupt@@QAEXXZ
                    1000741D8B4DFC8B511052E8........8B45FCC7:
                      0. 13 F6B4 0033 0000:?unhook@VHardwareInt@@UAEHXZ
                    1100750433C0EB:
                      358B4DFC8B55FC8B41053B4209:
                        0. 2D 7AA7 004D 0000:?_numberOfItemsAvailableForWrite@_fifocore@@IAEKXZ
                      408B4DFC8B55FC8B41053B4209:
                        0. 38 BC79 0058 0000:?_numberOfItemsAvailableForRead@_fifocore@@IAEKXZ
                    2000741A8B4DFC8B510852E8........85C0740A:
                      0. 0E 36E8 002E 0000:?unhook@VDMAChannel@@QAEXXZ
                    2400740C8B4DFC8B512452E8........6A00E8:
                      0. 00 0000 0049 0000:?Initialize@KTIMER@@QAEXW4_TIMER_TYPE@@@Z
                  C01C50E8........83C4048BE55DC3:
                    0. 00 0000 001A 0000:?lock@VPipe@@MAEHXZ
                8A40188BE55DC3:
                  0. 00 0000 0011 0000:?IsValid@KPeripheralAddress@@QAEDXZ
                8B:
                  008BE55DC3:
                    0. 00 0000 0010 (!)0000:?
                  08:
                    51:
                      8B550881E200F0FFFF52E8........8BE55DC2:
                        0. 02 2768 0022 0000:?Unmap@KMemory@@QAEXPAX@Z
                      E8........:
                        83C4048B:
                          55FC89420C8B45FC33C9:
                            0. 0D CC6A 002D 0000:?flush@VRegistryKey@@QAEHXZ
                          E55DC3:
                            0. 00 0000 0019 0000:??1VMutex@@QAE@XZ (REF 000E: _PAGEABLE__DestroyMutex)
                            1. 00 0000 0019 0000:?leave@VMutex@@QAEXXZ (REF 000E: _PAGEABLE__LeaveMutex)
                            2. 00 0000 0019 0000:?owner@VMutex@@QAEKXZ (REF 000E: _PAGEABLE__GetMutexOwner)
                            3. 00 0000 0019 0000:??1VRegistryKey@@QAE@XZ (REF 000E: _PAGEABLE__RegCloseKey)
                            4. 00 0000 0019 0000:@ExReleaseFastMutex@4 (REF 000E: _LOCK__LeaveMutex)
                        8BE55DC3:
                          0. 00 0000 0016 0000:?signal@VSemaphore@@QAEXXZ (REF 000E: _LOCK_Signal_Semaphore@4)
                          1. 00 0000 0016 0000:??1VSemaphore@@QAE@XZ (REF 000E: _PAGEABLE_Destroy_Semaphore@4)
                          2. 00 0000 0016 0000:?signal_noSwitch@VSemaphore@@QAEXXZ (REF 000E: _LOCK_Signal_Semaphore_No_Switch@4)
                    8B41188BE55DC3:
                      0. 00 0000 0013 0000:?OffsetFromPageBase@KMemory@@QAEKXZ
                  108B4DFCFF128B4508508B4DFC83C104E8:
                    0. 11 3F90 0031 (!)0000:?
                  40:
                    048BE55DC3:
                      0. 00 0000 0011 (!)0000:?
                    088BE55DC3:
                      0. 00 0000 0011 0000:?LastError@KRegistryKey@@QAEJXZ
                    168BE55DC3:
                      0. 00 0000 0011 (!)0000:?
                    188BE55DC3:
                      0. 00 0000 0011 0000:?lastError@VPipe@@UAEHXZ
                    208BE55DC3:
                      0. 00 0000 0011 0000:?getCallBack@VDosToWinPipe@@QAEKXZ
                  48:
                    04:
                      51:
                        8B550852E8........8BE55DC20400:
                          0. 00 0000 001D 0000:?localEnable@VIOPort@@QAEXPAUcb_s@@@Z (REF 0013: _PAGEABLE_Enable_Local_Trapping@8)
                          1. 00 0000 001D 0000:?localDisable@VIOPort@@QAEXPAUcb_s@@@Z (REF 0013: _PAGEABLE_Disable_Local_Trapping@8)
                        E8........:
                          8BE55DC3:
                            0. 00 0000 0017 0000:?globalDisable@VIOPort@@QAEXXZ (REF 000F: _PAGEABLE_Disable_Global_Trapping@4)
                            1. 00 0000 0017 0000:?globalEnable@VIOPort@@QAEXXZ (REF 000F: _PAGEABLE_Enable_Global_Trapping@4)
                            2. 00 0000 0017 0000:?unhook@VIOPort@@QAEHXZ (REF 000F: _PAGEABLE_Remove_IO_Handler@4)
                          B8010000008BE55DC3:
                            0. 00 0000 001C 0000:?unhook@VHotKey@@QAEHXZ
                      E8........8BE55DC3:
                        0. 00 0000 0016 0000:?MapToCurrentProcess@KKernelSharedFifo@@QAEPAXXZ
                    08518B550852E8........8BE55DC20400:
                      0. 00 0000 001D 0000:?getEISAMode@VDMAChannel@@QAEEK@Z (REF 0013: _LOCK_VDMAD_Get_EISA_Adr_Mode@8)
                      1. 00 0000 001D 0000:?disableTranslation@VDMAChannel@@QAEHPAUcb_s@@@Z (REF 0013: _LOCK_VDMAD_Disable_Translation@8)
                      2. 00 0000 001D 0000:?handler@VDMAChannel@@UAEXPAUcb_s@@@Z (REF 0013: _LOCK_VDMAD_Default_Handler@8)
                    0E518B55FC668B420C50E8........8BE55DC3:
                      0. 00 0000 001F 0000:?chainToPrevious@VInChainInt@@QAEXXZ
                    1051:
                      8B550852E8........8BE55DC20400:
                        0. 00 0000 001D 0000:?assert@VHardwareInt@@QAEXPAUcb_s@@@Z (REF 0013: _LOCK_VPICD_Set_Int_Request@8)
                        1. 00 0000 001D 0000:?deassert@VHardwareInt@@QAEXPAUcb_s@@@Z (REF 0013: _LOCK_VPICD_Clear_Int_Request@8)
                        2. 00 0000 001D 0000:?getCompleteStatus@VHardwareInt@@QAEKPAUcb_s@@@Z (REF 0013: _LOCK_VPICD_Get_Complete_Status@8)
                        3. 00 0000 001D 0000:?getStatus@VHardwareInt@@QAEKPAUcb_s@@@Z (REF 0013: _LOCK_VPICD_Get_Status@8)
                      E8........8BE55DC3:
                        0. 00 0000 0017 0000:?testPhysicalRequest@VHardwareInt@@QAEHXZ (REF 000F: _LOCK_VPICD_Test_Phys_Request@4)
                        1. 00 0000 0017 0000:?sendPhysicalEOI@VHardwareInt@@QAEXXZ (REF 000F: _LOCK_VPICD_Phys_EOI@4)
                        2. 00 0000 0017 0000:?physicalMask@VHardwareInt@@QAEXXZ (REF 000F: _LOCK_VPICD_Physically_Mask@4)
                        3. 00 0000 0017 0000:?physicalUnmask@VHardwareInt@@QAEXXZ (REF 000F: _LOCK_VPICD_Physically_Unmask@4)
                        4. 00 0000 0017 0000:?setAutoMask@VHardwareInt@@QAEXXZ (REF 000F: _LOCK_VPICD_Set_Auto_Masking@4)
                    3851:
                      8B55FC8B424050E8........8BE55DC3:
                        0. 00 0000 001E 0000:?cancel@VVMEvent@@QAEXXZ (REF 0016: _LOCK_Cancel_VM_Event@8)
                        1. 00 0000 001E 0000:?cancel@VThreadEvent@@QAEXXZ (REF 0016: _LOCK_Cancel_Thread_Event@8)
                      E8........8BE55DC3:
                        0. 00 0000 0017 0000:?cancel@VPriorityVMEvent@@QAEXXZ (REF 000F: _LOCK_Cancel_Priority_VM_Event@4)
                        1. 00 0000 0017 0000:?cancel@VGlobalEvent@@QAEXXZ (REF 000F: _LOCK_Cancel_Global_Event@4)
                  4D:
                    08:
                      0348088BC18BE55DC20400:
                        0. 00 0000 0018 0000:?ListEntryPointer@_listcore@@QAEPAU_LIST_ENTRY@@PAX@Z
                      89:
                        088B:
                          55:
                            0C8950048B45FC8BE55DC20800:
                              0. 00 0000 001E (!)0000:?
                            FC8B450C8942048B4DFCC741080000:
                              0. 12 B137 0032 0000:?Initialize@KDPC@@QAEXP6GXPAV1@PAX11@Z1@Z
                          E55DC20400:
                            0. 00 0000 0015 0000:?setCbAddr@VVendorExtension@@QAEXK@Z
                        48088B55FC8B45FC8942048B4DFC8B55FC89:
                          0. 0A A287 002A 0000:??0_listcore@@IAE@K@Z
                      8B1189108B45FC8B4D088B51048950048B45FC:
                        0. 37 1E89 0057 0000:??0KUnitizedName@@QAE@AAV0@@Z
                    FC:
                      8948048B55FC8B45FC89028BE55DC3:
                        0. 00 0000 001C 0000:?_reset@_listcore@@QAEXXZ
                      8B50:
                        040FAF51088B45FC8B0003C28BE55DC3:
                          0. 00 0000 001F 0000:?GetFifoSize@CSharedFifo@@QAEKXZ
                        0533C03B51090F94C08BE55DC3:
                          0. 00 0000 001C 0000:?_isEmpty@_fifocore@@IAEDXZ
                  E55DC3:
                    0. 00 0000 000E (!)0000:?
                C6:
                  00008B4DFCC74101000000008B55FCC74205000000:
                    0. 26 53BA 0046 0000:??0_fifocore@@IAE@XZ
                  4008008B4D08518B55FC52E8........8B45FC8BE5:
                    0. 04 057A 0024 0000:??0KUstring@@QAE@PBG@Z
                C7:
                  00:
                    000000008B4DFC:
                      8B550C8951048B45FC8B4D1089:
                        0. 11 CA07 003E 0000:??0KUnitizedName@@QAE@PAU_UNICODE_STRING@@KK@Z
                      C741:
                        04000000008B:
                          45FC8BE55D:
                            0. 01 EF04 0021 0000:??0KKernelSharedFifo@@QAE@XZ
                          55:
                            0C528B45:
                              0. 06 2909 0038 0000:??0KKernelSharedFifo@@QAE@KKPAD@Z
                            FCC74208:
                              0. 1C C685 003C 0000:??0KUnitizedName@@QAE@XZ
                        10000000008B55FCC64218:
                          0. 08 53C7 0028 0000:??0KPeripheralAddress@@IAE@XZ
                    ........:
                      6A018B4DFCE8........8B4DFC837924:
                        0. 0B DDF5 0033 0000:??1KTIMER@@QAE@XZ
                      837D08007C1B837D084F7F158B4DFC8A:
                        0. 12 A3BE 0053 0000:??0VFault@@QAE@H@Z
                      8B:
                        45FC8BE55DC3:
                          0. 00 0000 0017 0000:??0VControlMessageDispatcher@@QAE@XZ (REF 000C: ??_7VControlMessageDispatcher@@6B@)
                          1. 00 0000 0017 0000:??0VCallback@@QAE@XZ (REF 000C: ??_7VCallback@@6B@)
                          2. 00 0000 0017 0000:??0Vdbostream@@QAE@XZ (REF 000C: ??_7Vdbostream@@6B@)
                        4DFC:
                          668B5508668951048B45FC668B:
                            0. 2B 94FB 004B 0000:??0VHardwareInt@@QAE@HKKPAX@Z
                          83B9C80000000074128B55FC8B:
                            0. 07 4CA3 0032 0000:??1VCommPort@@UAE@XZ
                          8A55088851088B45FC8B4D0C89:
                            0. 2F E882 004F 0000:??0VHotKey@@QAE@EW4scanType_t@@KKPAXK@Z
                          8B:
                            510852A1........50E8:
                              0. 00 0000 0026 0000:??1VProtModeCallback@@QAE@XZ (REF 000C: ??_7VProtModeCallback@@6B@)
                              1. 00 0000 0026 0000:??1VV86Callback@@QAE@XZ (REF 000C: ??_7VV86Callback@@6B@)
                            55088951:
                              048B45FC:
                                8B:
                                  4D0C89:
                                    0. 0B 5DA4 002B 0000:??0VV86Pages@@QAE@KK@Z
                                  E55DC2:
                                    0. 02 2768 0022 0000:??0VIOPort@@QAE@K@Z
                                C740:
                                  0800:
                                    0. 0C 717A 002C 0000:??0VInChainInt@@QAE@K@Z (REF 000C: ??_7VInChainInt@@6B@)
                                    1. 0C 717A 002C 0000:??0VPreChainV86Int@@QAE@H@Z (REF 000C: ??_7VPreChainV86Int@@6B@)
                                  0C00:
                                    0. 1F 0AAC 003F 0000:??0VDeviceAPI@@QAE@KK@Z
                                  2000:
                                    0. 0C 717A 002C 0000:??0VDMAChannel@@QAE@K@Z
                              3C8B45FC8B:
                                4D0C89:
                                  0. 1E AF0F 003E 0000:??0VAppyTimeEvent@@QAE@PAXKK@Z
                                E55DC2:
                                  0. 02 2768 0022 0000:??0VGlobalEvent@@QAE@PAX@Z
                              408B45FC8B4D:
                                0C89:
                                  0. 0B 266A 002B 0000:??0VVMEvent@@QAE@PAUcb_s@@PAX@Z (REF 000C: ??_7VVMEvent@@6B@)
                                  1. 0B 266A 002B 0000:??0VThreadEvent@@QAE@KPAX@Z (REF 000C: ??_7VThreadEvent@@6B@)
                                1089:
                                  0. 26 16E7 0046 0000:??0VPriorityVMEvent@@QAE@PAUcb_s@@KPAXKK@Z
                          C7:
                            4110000000008B45FC8BE55D:
                              0. 01 EF04 0021 0000:??0VHardwareInt@@AAE@XZ
                            81C8000000000000008B45FC:
                              0. 04 A1B6 0024 0000:??0VCommPort@@AAE@XZ
                          E8........8BE55DC3:
                            0. 00 0000 001C 0000:??1VHardwareInt@@QAE@XZ (REF 000C: ??_7VHardwareInt@@6B@)
                            1. 00 0000 001C 0000:??1VIOPort@@QAE@XZ (REF 000C: ??_7VIOPort@@6B@)
                            2. 00 0000 001C 0000:??1VPreChainV86Int@@QAE@XZ (REF 000C: ??_7VPreChainV86Int@@6B@)
                  40:
                    04000000008B4DFC83C104518B55FC528B451050:
                      0. 1D B940 0072 0000:??0VPageBlock@@QAE@KKKPAUcb_s@@KKKPAK@Z
                    08000000008B4DFCC6410C008B4DFC83C10DE8:
                      0. 00 0000 0080 0000:??0KResourceRequest@@QAE@W4_INTERFACE_TYPE@@KK@Z
                    09000000008B4DFCC74105000000008BE55DC3:
                      0. 00 0000 001F 0000:?_flush@_fifocore@@IAEXXZ
                    10000000008B4DFCC64118008A5518528B451450:
                      0. 10 92E5 0042 0000:??0KPeripheralAddress@@IAE@_KDKD@Z
                    1C000000008BE55DC3:
                      0. 00 0000 0015 0000:?unlock@VPipe@@MAEXXZ
                    1D000000008B4DFCE8........8BE55DC3:
                      0. 00 0000 001D 0000:?Invalidate@KMemoryToProcessMap@@QAEXXZ
            4DFC:
              83C1:
                0CE8........8B4DFC83C114E8........6A006A:
                  0. 08 266D 0041 0000:??0CSharedFifo@@QAE@XZ
                10E8........8B4DFCE8........8BE55DC3:
                  0. 00 0000 001E 0000:??1VPMDPMIEntry@@QAE@XZ
                28E8........8BE55DC3:
                  0. 00 0000 0016 0000:?unlock@VDosToWinPipe@@MAEXXZ
                2CE8........8BE55DC3:
                  0. 00 0000 0016 0000:?OnSpaceAvailable@VDosToWinPipe@@MAEXXZ
              E8........:
                0FBEC085C074088B4DFCE8........8B:
                  4D:
                    0. 4B 0AAB 006B 0000:?Initialize@KUnitizedName@@QAEXAAV1@@Z
                    1. 1F 175B 0049 0000:?Initialize@KUnitizedName@@QAEXPAU_UNICODE_STRING@@KK@Z
                  E5:
                    0. 02 5F98 0022 0000:??1KUstring@@QAE@XZ (REF 000B: ?IsValid@KUstring@@QAEDXZ)
                    1. 02 5F98 0022 0000:??1KMemory@@QAE@XZ (REF 000B: ?IsValid@KMemory@@QAEDXZ)
                85C07D02EB748B4DFCE8........83F801:
                  0. 2B 9088 008F 0000:?_construct@KMemoryToProcessMap@@IAEXPAXK0W4_SECTION_INHERIT@@@Z
                8B:
                  45:
                    0883E00185C0740C8B4DFC51E8:
                      0. 00 0000 002E 0000:??_GVCommPort@@UAEPAXI@Z (REF 000B: ??1VCommPort@@UAE@XZ)
                      1. 00 0000 002E 0000:??_GVVirtualMachine@@QAEPAXI@Z (REF 000B: ??1VVirtualMachine@@QAE@XZ)
                      2. 00 0000 002E 0000:??_GVPMDPMIEntry@@QAEPAXI@Z (REF 000B: ??1VPMDPMIEntry@@QAE@XZ)
                      3. 00 0000 002E 0000:??_GVThread@@QAEPAXI@Z (REF 000B: ??1VThread@@QAE@XZ)
                      4. 00 0000 002E 0000:??_GKMemory@@QAEPAXI@Z (REF 000B: ??1KMemory@@QAE@XZ)
                    FC:
                      8BE55DC3:
                        0. 00 0000 0016 0000:??0KMemoryRange@@QAE@XZ
                      C7:
                        00........8B45FC8BE55DC3:
                          0. 00 0000 001F 0000:??0Vmonostream@@QAE@XZ
                        40:
                          15000000008B45FC8BE55DC3:
                            0. 00 0000 0020 0000:??0_isafefifo@@IAE@XZ
                          19000000008B4DFCC7411D00:
                            0. 14 C081 0034 0000:??0KMemoryToProcessMap@@QAE@XZ
                  4D08:
                    6689018B45FC8BE55DC20400:
                      0. 00 0000 001E 0000:??5Vdbistream@@QAEAAV0@AAG@Z
                    88018B45FC8BE55DC20400:
                      0. 00 0000 001D 0000:??5Vdbistream@@QAEAAV0@AAE@Z
                    89018B45FC8BE55DC20400:
                      0. 00 0000 001D 0000:??5Vdbistream@@QAEAAV0@AAK@Z
                  E55DC3:
                    0. 00 0000 0013 0000:??1VPMVendorExtension@@QAE@XZ (REF 000B: ??1VInChainPMInt@@QAE@XZ)
                    1. 00 0000 0013 0000:??1VSharedHardwareInt@@QAE@XZ (REF 000B: ??1VHardwareInt@@QAE@XZ)
                    2. 00 0000 0013 0000:?Invalidate@KInterrupt@@QAEXXZ (REF 000B: ?Disconnect@KInterrupt@@QAEXXZ)
                B8010000008BE55DC3:
                  0. 00 0000 0018 0000:?OnSysDynamicDeviceExit@VCommPortDriver@@UAEHXZ
            E55D:
              C2:
                0400:
                  0. 00 0000 000D (!)0000:?
                0800:
                  0. 00 0000 000D (!)0000:?
                0C00:
                  0. 00 0000 000D (!)0000:?
              C3:
                0. 00 0000 000B (!)0000:?
          B8010000008BE55D:
            C2:
              0400:
                0. 00 0000 0012 (!)0000:?
              0800:
                0. 00 0000 0012 (!)0000:?
              0C00:
                0. 00 0000 0012 0000:?OnSysCriticalInit@VDevice@@MAEHPAUcb_s@@PADPAX@Z
            C3:
              0. 00 0000 0010 (!)0000:?
          E8........8B4D0888018B55088A0250B9........E8:
            0. 00 0000 002A 0000:??5Vdbistream@@QAEAAV0@AAD@Z
        8B45:
          08:
            3B450C7D088B4D08894DFCEB068B550C8955FC8B45FC8BE55D:
              0. 01 EF04 0021 0000:?_min_@@YAHHH@Z
            8A4834884DFC0FBE55FC85D274:
              098B450850E8........8B4D:
                0. 10 08C9 003D 0000:_KeSetTimer@16
                1. 12 30ED 003F 0000:_KeSetTimerEx@20
              2E8B4508C64034008B4D08E8:
                0. 00 0000 004C 0000:_KeCancelTimer@4
            8B4804894DFC8B55FC52E8........83C4048BE55DC20400:
              0. 00 0000 001F (!)0000:?
          0C53F7402C0000020074058B410CEB038B411085C08945FC740F:
            0. 20 4084 0040 0000:?callPreviousHandler@VDeviceAPI@@QAEXPAUcb_s@@PATtagCLIENT_STRUC@@@Z
          108B4D1083E901894D1085C074348B550C668B02668945FC8B4D:
            0. 2C 26C1 004C 0000:?ustrncpy@@YAXPAGPBGI@Z
          148945FC8B4DFC66C7411C00408B550880E6BF8B45FC66895010:
            0. 28 854A 0070 0000:_DEBUG___write_bin (REF 0048: _DEBUG_Exec_Int@4)
            1. 28 854A 0070 0000:_STATIC___write_bin (REF 0048: _STATIC_Exec_Int@4)
            2. 28 854A 0070 0000:_INIT___write_bin (REF 0048: _INIT_Exec_Int@4)
            3. 28 854A 0070 0000:_LOCK___write_bin (REF 0048: _LOCK_Exec_Int@4)
            4. 28 854A 0070 0000:_PAGEABLE___write_bin (REF 0048: _PAGEABLE_Exec_Int@4)
        8D45:
          108945FC8B4DFC518B550C526AFF8B450850E8........83C410:
            0. 04 A1B6 0024 0000:_PAGEABLE_sprintf (REF 0019: _PAGEABLE__vsnprintf)
            1. 04 A1B6 0024 0000:_LOCK_sprintf (REF 0019: _LOCK__vsnprintf)
            2. 04 A1B6 0024 0000:_INIT_sprintf (REF 0019: _INIT__vsnprintf)
            3. 04 A1B6 0024 0000:_STATIC_sprintf (REF 0019: _STATIC__vsnprintf)
            4. 04 A1B6 0024 0000:_DEBUG_sprintf (REF 0019: _DEBUG__vsnprintf)
          148945FC8B4DFC518B5510528B450C508B4D0851E8........83:
            0. 06 6F1E 0026 0000:_DEBUG__snprintf (REF 001B: _DEBUG__vsnprintf)
            1. 06 6F1E 0026 0000:_STATIC__snprintf (REF 001B: _STATIC__vsnprintf)
            2. 06 6F1E 0026 0000:_INIT__snprintf (REF 001B: _INIT__vsnprintf)
            3. 06 6F1E 0026 0000:_LOCK__snprintf (REF 001B: _LOCK__vsnprintf)
            4. 06 6F1E 0026 0000:_PAGEABLE__snprintf (REF 001B: _PAGEABLE__vsnprintf)
        A1........8945FC:
          837DFC00740E837DFC01742E837DFC02741EEB40:
            0. 01 361F 0064 0000:_DebugString
          8B4D08890D........8B45FC8BE55DC3:
            0. 00 0000 001C 0000:?_set_new_handler@@YAP6AHI@ZP6AHI@Z@Z
        C745FC00000000:
          8B45:
            0833C9668B088B550883C20289550885C9740B:
              0. 12 59BF 0032 0000:_INIT_ustrlen
            FC3B45:
              1073258B4D0833D28A113B550C75058B:
                0. 1E E996 003E 0000:_INIT_memchr
              1473378B4D088B550C8A0288018B4D0C:
                0. 41 FD31 0061 0000:_INIT__memccpy
          EB:
            098B45FC83C0018945FC8B4D08034DFC0FBE1185:
              0. 12 E7DE 0048 0000:_PAGEABLE_strspn (REF 0032: _PAGEABLE_strchr)
              1. 12 E7DE 0048 0000:_LOCK_strspn (REF 0032: _LOCK_strchr)
              2. 12 E7DE 0048 0000:_INIT_strspn (REF 0032: _INIT_strchr)
              3. 12 E7DE 0048 0000:_STATIC_strspn (REF 0032: _STATIC_strchr)
              4. 12 E7DE 0048 0000:_DEBUG_strspn (REF 0032: _DEBUG_strchr)
            128B450883C0028945088B4DFC83C101894DFC8B:
              0. 14 4A91 0034 0000:?LOCK_ustrlen@@YAKPBG@Z
      53:
        56:
          0FA0:
            558B45108B5D088B6D0CCD20070006005D8B45148C208BC60F:
              0. 07 5CC9 0027 0000:_INIT_V86MMGR_Load_Client_Ptr@16
            8B5D088B4D108B75188E65148B451C85C07401F98B6D0CCD20:
              0. 0C EB3D 002C 0000:_INIT_V86MMGR_Free_Buffer@24
          57:
            0F:
              A0558B5D088B4D108E65148B75188B451C85C07401F98B6D0C:
                0. 25 17E7 0045 0000:_INIT_V86MMGR_Allocate_Buffer@32
              B745088B5D0CCD2012000A000F93C083E0015F5E5B5DC20800:
                0. 00 0000 0020 0000:_INIT_VDD_Register_Extra_Screen_Selector@8
            33:
              C933FF33F6CD2008010100CD20660101008B550C8802B81F00:
                0. 0F 016D 002F 0000:_KeAcquireSpinLock@8
              FFCD20080101000FB64508CD20670101005F5E5B5DC3:
                0. 00 0000 001D 0000:?_set_irql@@YAXD@Z
            668B5508:
              0F:
                B6450CEE5F5E5B5DC3:
                  0. 00 0000 0014 0000:_INIT_Voutportb
                B7450C66EF5F5E5B5DC3:
                  0. 00 0000 0015 0000:_INIT_Voutportw
              66ED0FB7C05F5E5B5DC3:
                0. 00 0000 0014 0000:_INIT_Vinportw
              8B450CEF5F5E5B5DC3:
                0. 00 0000 0013 0000:_INIT_Voutportd
              EC0FB6C05F5E5B5DC3:
                0. 00 0000 0013 0000:_INIT_Vinportb
              ED5F5E5B5DC3:
                0. 00 0000 0010 0000:_INIT_Vinportd
            6A008B450850E8........83C40885C0751A6A2868........68:
              0. 00 0000 0037 0000:_DEBUG_free (REF 000D: _DEBUG__HeapFree)
              1. 00 0000 0037 0000:_STATIC_free (REF 000D: _STATIC__HeapFree)
              2. 00 0000 0037 0000:_INIT_free (REF 000D: _INIT__HeapFree)
              3. 00 0000 0037 0000:_LOCK_free (REF 000D: _LOCK__HeapFree)
              4. 00 0000 0037 0000:_PAGEABLE_free (REF 000D: _PAGEABLE__HeapFree)
            837D1C00745868........688201000068........68:
              0. 01 361F 006D 0000:_ObReferenceObjectByHandle@24
            8A6508:
              8B4D0CCD2010008B040F93C083E0015F5E5B5DC20800:
                0. 00 0000 001F 0000:_INIT_VCache_AdjustMinimum@8
              CD200F008B045F5E5B5DC20400:
                0. 00 0000 0016 0000:_INIT_VCache_Deregister@4
            8B:
              45:
                088B4D0CCD2014000A00405F5E5B5DC20800:
                  0. 00 0000 001A 0000:_INIT_VDD_Get_DISPLAYINFO@8
                0C8B5D08CD20120004005F5E5B5DC20800:
                  0. 00 0000 0019 0000:_INIT_VDMAD_Default_Handler@8
              4D10E311D1E98B75088B7D0CFC66AD86C466ABE2F85F5E5B5D:
                0. 01 EF04 0021 (!)0000:?
              5508:
                8A020AC0740F3C:
                  4172083C5A77040420880242EBEB8B45:
                    0. 06 408F 0026 (!)0000:?
                  6172083C7A77042C20880242EBEB8B45:
                    0. 06 408F 0026 (!)0000:?
                8B450C8B4D10E30B803A0074068802424975F58B45085F:
                  0. 04 D7BA 0024 (!)0000:?
              5D:
                08:
                  8B:
                    450C8B7D10CD200B000400B8000000007208B8010000:
                      0. 15 5D56 0035 0000:_INIT_VDMAD_Scatter_Lock@20
                    750C8B7D108B4D14CD20:
                      10000400720CB8010000005F:
                        0. 12 7CCA 0032 0000:_INIT_VDMAD_Copy_To_Buffer@20
                      11000400720CB8010000005F:
                        0. 12 7CCA 0032 0000:_INIT_VDMAD_Copy_From_Buffer@20
                  CD2005001700508B450C8F401C89481889501489700489:
                    0. 08 4A4C 0028 0000:_INIT_SHELL_GetVMInfo@8
                0C8B:
                  431C8B4B188B53148B73048B3B8B5D08CD2002000600:
                    0. 0D 8814 002D 0000:_INIT_V86MMGR_Set_EMS_XMS_Limits@8
                  45088B4D108B75148B7D18CD2006000E00730233C05F:
                    0. 06 88AF 0026 0000:_INIT_VCD_Acquire_Port_Windows_Style@20
              75:
                0C8B7D08FC:
                  66AD66AB660BC075F78B45085F5E5B5DC3:
                    0. 00 0000 001E (!)0000:?
                  8B4D10497C0CACAA0AC075F7497C03AAEBFA8B:
                    0. 07 1AC3 0027 (!)0000:?
                108B450CBA........68........FF25:
                  0. 1B 3379 003B 0000:_INIT_VCache_Enum@24
                208B4518BA........68........FF25:
                  0. 1E 28E5 003E 0000:_INIT_Call_Priority_VM_Event@28
                248B4518BA........68........FF25:
                  0. 23 0F9B 0043 0000:_INIT_VKD_Define_Hot_Key@32
            9CFA8B1D........4B891D........9D85DB7D1B9CFAFF05:
              0. 00 0000 0190 0000:?Trace@KTrace@@QAAXW4TRACE_LEVEL@@PADZZ
            CD20:
              06000D005F5E5B5DC3:
                0. 00 0000 0011 0000:?cancelState@VHotKey@@SAXXZ
              070021008B7D0889078B7D0C891F8B7D10890F8B7D148917:
                0. 12 AF10 0032 0000:_INIT_PageFile_Get_Size_Info@20
              200001005F5E5B5DC3:
                0. 00 0000 0011 0000:?leaveGlobal@VMutex@@SAXXZ
            FC8B:
              4D10E3088B7D088B750CF3A48B45085F5E5B5DC3:
                0. 00 0000 001C (!)0000:?
              7D08:
                8B4D108A450CF3AA8B45085F5E5B5DC3:
                  0. 00 0000 001A 0000:_INIT___bc_memset
                B9FFFFFFFF32C0F2AE8B750C4F8B4D10AC0BC9750232:
                  0. 0F 0824 002F (!)0000:?
          8A4508668B550C8B7510668B4D148B5D18CD2001007C098B4D20E3:
            0. 16 710C 0036 0000:_INIT_PCCARD_Card_Services@28
          8B:
            45:
              08:
                0BC07507B8:
                  00D60000EB05B802D600008B5D0C8B4D148B55:
                    0. 1F DC50 003F 0000:_INIT_R0_ReadFile
                  01D60000EB05B803D600008B5D0C8B4D148B55:
                    0. 1F DC50 003F 0000:_INIT_R0_WriteFile
                8B5D0C:
                  8A7D108B75148B4D188B551CCD20030004005E5B5D:
                    0. 03 BF22 0023 0000:_INIT_VDMAD_Set_Region_Info@24
                  8B:
                    4D108B55148B7518CD2003000E005E5B5DC21400:
                      0. 00 0000 0020 0000:_INIT_VCD_Virtualize_Port@20
                    7510CD20010017008BC3730233C05E5B5DC20C00:
                      0. 00 0000 0020 0000:_INIT_SHELL_Resolve_Contention@12
                CD20020004008B451889088B451489300FB6CB8B450C8908:
                  0. 0E 3A70 002E 0000:_INIT_VDMAD_Get_Region_Info@20
              0C8B5D08CD20040004008B451089088B451489108BC65E5B5D:
                0. 03 7FEC 0023 0000:_INIT_VDMAD_Get_Virt_State@16
            5D088B:
              4D0C8B75108B6D14CD200A0040000F93C083E0015E5B5D:
                0. 03 7FEC 0023 0000:_INIT_IFSMgr_ServerDOSCall@16
              750CCD20020015005E5B5DC20800:
                0. 00 0000 0017 0000:_INIT_DOSMGR_Copy_VM_Drive_State@8
            75:
              088B4D0CCD200E00040072158B451089188B45148910B80100:
                0. 14 2A30 0034 0000:_INIT_VDMAD_Request_Buffer@20
              0C8B45080BC07507B800D50000EB05B801D50000668B5D1066:
                0. 29 3927 0049 0000:_INIT_R0_OpenCreateFile
              188B4514BA........68........FF25................8B:
                0. 16 2A89 0036 0000:_INIT_Set_VM_Time_Out@20
              1C8B4518BA........68........FF25................8B:
                0. 1D 5A8E 003D 0000:_INIT_VKD_Start_Paste@24
              208B4514BA........68........FF25................8B:
                0. 29 4727 0049 0000:_INIT_SHELL_Event@28
          B8:
            005C00008B5D088B4D0C8B55108B7514CD20320040008B551872:
              0. 12 2C53 0032 0000:_INIT_R0_LockFile
            015C00008B5D088B4D0C8B55108B7514CD20320040008B551872:
              0. 12 2C53 0032 0000:_INIT_R0_UnlockFile
        57:
          56:
            8B:
              4508:
                8B:
                  4D0CCD20:
                    030020005E5F5B5DC20800:
                      0. 00 0000 0019 0000:_INIT_Int13_Hooking_BIOS_Int@8
                    040020005E5F5B5DC20800:
                      0. 00 0000 0019 0000:_INIT_Int13_Unhooking_BIOS_Int@8
                    210004005E5F5B5DC20800:
                      0. 00 0000 0019 0000:_INIT_VDMAD_Set_Virt_Count@8
                  5D0C8B4D10CD201F0004005E5F5B5DC20C00:
                    0. 00 0000 001C 0000:_INIT_VDMAD_Set_Channel_Callbacks@12
                CD20:
                  1C0004008BC15E5F5B5DC20400:
                    0. 00 0000 0018 0000:_INIT_VDMAD_Get_Phys_Count@4
                  200004008BC15E5F5B5DC20400:
                    0. 00 0000 0018 0000:_INIT_VDMAD_Get_Virt_Count@4
              5D08CD20030006008B5D0C89431C894B18893B895314897304:
                0. 07 8318 0027 0000:_INIT_V86MMGR_Get_EMS_XMS_Limits@8
            CD201D0004005E5F5B5DC3:
              0. 00 0000 0011 0000:_INIT_VDMAD_Get_Phys_Status@0
          8B5D08:
            8B450C:
              0D001000008B4D108B7D14CD20030017005F5B5DC2:
                0. 02 D69A 0022 0000:_INIT_SHELL_SYSMODAL_Message@16
              8B7D10CD200C0004000F93C083E0015F5B5DC20C00:
                0. 00 0000 0020 0000:_INIT_VDMAD_Scatter_Unlock@12
            CD20:
              0D0101008BC75F5B5DC20400:
                0. 00 0000 0016 0000:_INIT_Get_Initial_Thread_Handle@4
              880001008BC75F5B5DC20400:
                0. 00 0000 0016 0000:_INIT_Get_Cur_PM_App_CB@4
          B8003600008A55086821000000CD208F0001008B7D0C6689078B7D:
            0. 26 FA84 0046 0000:_INIT_R0_GetDiskFreeSpace
          CD20:
            0E008B048B450889188B450C89088B451089108B451489385F:
              0. 05 D389 0025 0000:_INIT_VCache_GetStats@16
            BB0001008B7D088827884701887F02885F03C1EB1066895F04:
              0. 0C B10C 002C 0000:_INIT_Get_Machine_Info@4
        668B5D088B550CCD20060027000F93C083E0015B5DC20800:
          0. 00 0000 001C 0000:_INIT_VXDLDR_UnloadMe@8
        8A:
          4508:
            8A650C:
              8A5D108A7D148A4D18CD20040006005B5DC21400:
                0. 00 0000 001E 0000:_INIT_V86MMGR_Set_Mapping_Info@20
              8B5D108B4D14CD20090010000F93C083E0015B5DC210:
                0. 01 78F0 0021 0000:_INIT_IOS_Exclusive_Access@16
            8B5D0CCD2001001A000F93C083E0015B5DC20800:
              0. 00 0000 001B 0000:_INIT_DOSNET_Send_FILESYSCHANGE@8
          6508:
            8A450C8B5D108B4D148A75188A551CCD2006000C005B5DC218:
              0. 01 78F0 0021 0000:_INIT_VMD_Set_Mouse_Data@24
            8B4D0CCD2003008B045B5DC20800:
              0. 00 0000 0015 0000:_INIT_VCache_CheckAvail@8
        8B:
          45:
            08:
              8B:
                550C8B5D10CD200B000A005B5DC20C00:
                  0. 00 0000 0018 0000:_INIT_VDD_Msg_SetCursPos@12
                5D0C:
                  8B:
                    4D10:
                      8B5514CD20:
                        15000A005B5DC21000:
                          0. 00 0000 001B 0000:_INIT_VDD_Do_Physical_IO@16
                        330001000F93C083E0015B5DC210:
                          0. 01 78F0 0021 0000:_INIT_Set_Time_Slice_Priority@16
                      CD20:
                        00004A045B5DC3:
                          0. 00 0000 0016 0000:_INIT_MMDEVLDR_Register_Device_Driver
                        160004005B5DC20C00:
                          0. 00 0000 0018 0000:_INIT_VDMAD_Set_EISA_Adr_Mode@12
                        EC0001005B5DC20C00:
                          0. 00 0000 0018 0000:_INIT_Close_VM@12
                    5510CD20060004005B5DC20C00:
                      0. 00 0000 0018 0000:_INIT_VDMAD_Set_Phys_State@12
                  CD20:
                    010018005B5DC20800:
                      0. 00 0000 0015 0000:_INIT_VMPoll_Enable_Disable@8
                    03000A005B5DC20800:
                      0. 00 0000 0015 0000:_INIT_VDD_Hide_Cursor@8
                    05000C000F93C083E0015B5DC20800:
                      0. 00 0000 001B 0000:_INIT_VMD_Call_Cursor_Proc@8
                    07000E005B5DC20800:
                      0. 00 0000 0015 0000:_INIT_VCD_Free_Port_Windows_Style@8
                    09000D005B5DC20800:
                      0. 00 0000 0015 0000:_INIT_VKD_Define_Paste_Mode@8
                    1500:
                      03005B5DC20800:
                        0. 00 0000 0015 0000:_INIT_VPICD_Virtual_EOI@8
                      04008BC15B5DC20800:
                        0. 00 0000 0017 0000:_INIT_VDMAD_Get_EISA_Adr_Mode@8
                    1E0001005B5DC20800:
                      0. 00 0000 0015 0000:_INIT_Adjust_Exec_Priority@8
                    370001005B5DC20800:
                      0. 00 0000 0015 0000:_INIT_Adjust_Execution_Time@8
                    410101005B5DC20800:
                      0. 00 0000 0015 0000:_INIT_Get_Instanced_V86_Int_Vector@8
              CD2002000E0072078BC35B5DC2040033C048EBF6:
                0. 00 0000 001B 0000:_INIT_VCD_Get_Focus@4
            0C8B5D08:
              B9010000008B5510CD20E00001005B5DC20C00:
                0. 00 0000 001D 0000:_INIT_SetDetailedVMError@12
              CD20:
                130004000F93C083E0015B5DC20800:
                  0. 00 0000 001B 0000:_INIT_VDMAD_Disable_Translation@8
                140004007218B801000000750233C08B5D108903:
                  0. 0E 8C28 002E 0000:_INIT_VDMAD_Enable_Translation@12
          4D08CD20:
            030021008B550C891A8BC15B5DC20800:
              0. 00 0000 0019 0000:_INIT_PageFile_Grow_File@8
            080007008B550C891A8BC15B5DC20800:
              0. 00 0000 0019 0000:_INIT_PageSwap_Grow_File@8
          55088B5D0CCD20190004005B5DC20800:
            0. 00 0000 0015 0000:_INIT_VDMAD_Phys_Unmask_Channel@8
          5D08:
            33C9CD20E00001007416B9010000008B5D1089138B5D0C8903:
              0. 0B EE21 002B 0000:_INIT_GetDetailedVMError@12
            668B450C:
              8B4D10CD20420101005B5DC20C00:
                0. 00 0000 0019 0000:_INIT_Get_Set_Real_DOS_PSP@12
              CD20:
                01000A005B5DC20800:
                  0. 00 0000 0016 0000:_INIT_VDD_PIF_State@8
                14000D000F93C083E0015B5DC20800:
                  0. 00 0000 001C 0000:_INIT_VKD_Set_Shift_State@8
            8B:
              450C:
                668B4D10CD2005000D005B5DC20C00:
                  0. 00 0000 0019 0000:_INIT_VKD_Reflect_Hot_Key@12
                8B:
                  4D108B5514CD200B0006005B5DC21000:
                    0. 00 0000 001B 0000:_INIT_V86MMGR_Set_Xlat_Buff_State@16
                  5510CD200B000A005B5DC20C00:
                    0. 00 0000 0018 0000:_INIT_VDD_SetCursPos@12
                CD20:
                  0200:
                    03005B5DC20800:
                      0. 00 0000 0015 0000:_INIT_VPICD_Set_Int_Request@8
                    11005B5DC20800:
                      0. 00 0000 0015 0000:_INIT_VMCPD_Set_Virt_State@8
                  0300:
                    03005B5DC20800:
                      0. 00 0000 0015 0000:_INIT_VPICD_Clear_Int_Request@8
                    0D005B5DC20800:
                      0. 00 0000 0015 0000:_INIT_VKD_Local_Enable_Hot_Key@8
                  0400:
                    0A005B5DC20800:
                      0. 00 0000 0015 0000:_INIT_VDD_Set_VMType@8
                    0D005B5DC20800:
                      0. 00 0000 0015 0000:_INIT_VKD_Local_Disable_Hot_Key@8
                  0500:
                    03008BC15B5DC20800:
                      0. 00 0000 0017 0000:_INIT_VPICD_Get_Complete_Status@8
                    15000F93C083E0015B5DC20800:
                      0. 00 0000 001B 0000:_INIT_DOSMGR_Add_Device@8
                  0600:
                    03008BC15B5DC20800:
                      0. 00 0000 0017 0000:_INIT_VPICD_Get_Status@8
                    15000F93C083E0015B5DC20800:
                      0. 00 0000 001B 0000:_INIT_DOSMGR_Remove_Device@8
                  07000A008B5D1089038B5D1489135B5DC21000:
                    0. 00 0000 001F 0000:_INIT_VDD_Msg_ClrScrn@16
                  0800:
                    04005B5DC20800:
                      0. 00 0000 0015 0000:_INIT_VDMAD_UnMask_Channel@8
                    0A005B5DC20800:
                      0. 00 0000 0015 0000:_INIT_VDD_Msg_ForColor@8
                  09000A005B5DC20800:
                    0. 00 0000 0015 0000:_INIT_VDD_Msg_BakColor@8
                  0A000C005B5DC20800:
                    0. 00 0000 0015 0000:_INIT_VMD_Enable_Disable_Mouse_Events@8
                  0D000300730233C05B5DC20800:
                    0. 00 0000 0019 0000:_INIT_VPICD_Convert_IRQ_To_Int@8
                  0E000300730333C0485B5DC20800:
                    0. 00 0000 001A 0000:_INIT_VPICD_Convert_Int_To_IRQ@8
                  100003000F93C083E0015B5DC20800:
                    0. 00 0000 001B 0000:_INIT_VPICD_Force_Default_Owner@8
                  690101005B5DC20800:
                    0. 00 0000 0015 0000:_INIT_Set_VM_Static_Boost@8
              4D0C:
                8B4510CD20120006000F93C083E0015B5DC20C00:
                  0. 00 0000 001E 0000:_INIT_V86MMGR_ResetBasePages@12
                CD20100006005B5DC20800:
                  0. 00 0000 0015 0000:_INIT_V86MMGR_GetPgStatus@8
              55:
                0C:
                  8B4510CD2011002A005B5DC3:
                    0. 00 0000 0016 0000:_INIT__VWIN32_WaitSingleObject
                  CD20:
                    02002700720233C05B5DC20800:
                      0. 00 0000 0019 0000:_INIT_VXDLDR_UnloadDevice@8
                    980001005B5DC20800:
                      0. 00 0000 0015 0000:_INIT_Enable_Local_Trapping@8
                    9A0001005B5DC20800:
                      0. 00 0000 0015 0000:_INIT_Disable_Local_Trapping@8
                108B6D0CCD20060006000F93C083E0015B5DC20C00:
                  0. 00 0000 001E 0000:_INIT_V86MMGR_Xlat_API@12
              6D0CCD20F9000100B8000000000F95C05B5DC20800:
                0. 00 0000 001D 0000:_INIT_Test_VM_Ints_Enabled@8
            CD20:
              0100:
                11005B5DC20400:
                  0. 00 0000 0012 0000:_INIT_VMCPD_Get_Virt_State@4
                2A005B5DC3:
                  0. 00 0000 0010 0000:_INIT_VWIN32_DIOCCompletionRoutine
              0200:
                0100750AB8010000005B5DC2040033C0EBF7:
                  0. 00 0000 001D 0000:_INIT_Test_Cur_VM_Handle@4
                18005B5DC20400:
                  0. 00 0000 0012 0000:_INIT_VMPoll_Reset_Detection@4
              04000100750AB8010000005B5DC2040033C0EBF7:
                0. 00 0000 001D 0000:_INIT_Test_Sys_VM_Handle@4
              0500:
                01000F93C083E0015B5DC20400:
                  0. 00 0000 0018 0000:_INIT_Validate_VM_Handle@4
                05005B5DC20400:
                  0. 00 0000 0012 0000:_INIT_VTD_Disable_Trapping@4
                0A005B5DC20400:
                  0. 00 0000 0012 0000:_INIT_VDD_Get_ModTime@4
              0600:
                05005B5DC20400:
                  0. 00 0000 0012 0000:_INIT_VTD_Enable_Trapping@4
                0A005B5DC20400:
                  0. 00 0000 0012 0000:_INIT_VDD_Set_HCurTrk@4
              0A0006008B5D0C890B8B5D1089135B5DC20C00:
                0. 00 0000 001C 0000:_INIT_V86MMGR_Get_Xlat_Buff_State@12
              0B000D005B5DC20400:
                0. 00 0000 0012 0000:_INIT_VKD_Cancel_Paste@4
              0C00:
                06005B5DC20400:
                  0. 00 0000 0012 0000:_INIT_V86MMGR_Get_VM_Flat_Sel@4
                0A000F93C083E0015B5DC20400:
                  0. 00 0000 0018 0000:_INIT_VDD_Query_Access@4
                0D0074148B5D0C88038B5D108823B8010000005B5D:
                  0. 07 8026 0027 0000:_INIT_VKD_Get_Msg_Key@12
              0D00:
                0A005B5DC20400:
                  0. 00 0000 0012 0000:_INIT_VDD_Check_Update_Soon@4
                0D0074148B5D0C88038B5D108823B8010000005B5D:
                  0. 07 8026 0027 0000:_INIT_VKD_Peek_Msg_Key@12
              0E000D005B5DC20400:
                0. 00 0000 0012 0000:_INIT_VKD_Flush_Msg_Key_Queue@4
              0F0004000F93C083E0015B5DC20400:
                0. 00 0000 0018 0000:_INIT_VDMAD_Release_Buffer@4
              10:
                000D005B5DC20400:
                  0. 00 0000 0012 0000:_INIT_VKD_Disable_Keyboard@4
                0101005B5DC20400:
                  0. 00 0000 0012 0000:_INIT_Debug_Test_Cur_Thread@4
              11000D005B5DC20400:
                0. 00 0000 0012 0000:_INIT_VKD_Get_Shift_State@4
              1A002A005B5DC20400:
                0. 00 0000 0012 0000:_INIT_VWIN32_SysErrorBox@4
              2B0001000F93C083E0015B5DC20400:
                0. 00 0000 0018 0000:_INIT_Suspend_VM@4
              2C0001000F93C083E0015B5DC20400:
                0. 00 0000 0018 0000:_INIT_Resume_VM@4
              2D0001005B5DC20400:
                0. 00 0000 0012 0000:_INIT_No_Fail_Resume_VM@4
              2E0001005B5DC20400:
                0. 00 0000 0012 0000:_INIT_Nuke_VM@4
              310001000F93C083E0015B5DC20400:
                0. 00 0000 0018 0000:_INIT_Set_Execution_Focus@4
              330040008B450C89188B451089100F93C083E0015B5DC3:
                0. 00 0000 0020 0000:_INIT_IFSMgr_Win32_Get_Ring0_Handle
              390001005B5DC20400:
                0. 00 0000 0012 0000:_INIT_Wake_Up_VM@4
              3B0001008BC35B5DC20400:
                0. 00 0000 0014 0000:_INIT_Get_Next_VM_Handle@4
              400001005B5DC20400:
                0. 00 0000 0012 0000:_INIT_Get_VM_Exec_Time@4
              8D0101008BC15B5DC20400:
                0. 00 0000 0014 0000:_INIT_Get_Inst_V86_Int_Vec_Base@4
              C70001005B5DC20400:
                0. 00 0000 0012 0000:_INIT_Debug_Test_Valid_Handle@4
              CC0001005B5DC20400:
                0. 00 0000 0012 0000:_INIT_Debug_Test_Cur_VM@4
              D00001005B5DC20400:
                0. 00 0000 0012 0000:_INIT_Get_Last_Updated_VM_Exec_Time@4
        B800:
          4F00008B5D088B550CCD20320040008B55107305668902EB0566:
            0. 0D 46BE 002D 0000:_INIT_R0_FindNextFile
          D700008B5D08CD20320040008B550C7305668902EB0566C70200:
            0. 0A DEAD 002A 0000:_INIT_R0_CloseFile
          D800008B5D08CD20320040008B550C730766890233C0EB0566C7:
            0. 06 84C2 0026 0000:_INIT_R0_GetFileSize
          DC00008B5D08CD20320040008B550C720466B800006689020F93:
            0. 07 B4CE 0027 0000:_INIT_R0_FindCloseFile
        CD20:
          0000:
            03008B5508891A8B550C890A5B5DC20800:
              0. 00 0000 0019 0000:_INIT_VPICD_Get_Version@8
            05008B5508891A8B550C890A5B5DC20800:
              0. 00 0000 0019 0000:_INIT_VTD_Get_Version@8
            07008B550889028B550C890A8B5510881A0F93C083E0015B:
              0. 04 C5B4 0024 0000:_INIT_PageSwap_Get_Version@12
            21008B550889028B550C890A8B5510881A0F93C083E0015B:
              0. 04 C5B4 0024 0000:_INIT_PageFile_Get_Version@12
          0100:
            01008BC35B5DC3:
              0. 00 0000 000F 0000:_INIT_Get_Cur_VM_Handle@0
            21008B4D0889198B4D0C89015B5DC20800:
              0. 00 0000 0019 0000:_INIT_PageFile_Init_File@8
          02000C008BC35B5DC3:
            0. 00 0000 000F 0000:_INIT_VMD_Get_Mouse_Owner@0
          030001008BC35B5DC3:
            0. 00 0000 000F 0000:_INIT_Get_Sys_VM_Handle@0
          07000C008B5D0888238B5D0C88038B5D10890B8B5D1488338B5D:
            0. 08 4FC2 0028 0000:_INIT_VMD_Get_Mouse_Data@20
          08000D008BC35B5DC3:
            0. 00 0000 000F 0000:_INIT_VKD_Get_Kbd_Owner@0
          090007008B450888180F93C083E0015B5DC20400:
            0. 00 0000 001A 0000:_INIT_PageSwap_Init_File@4
          290001008B450889088B450C89180F93C083E0015B5DC20800:
            0. 00 0000 001F 0000:_INIT_Get_Crit_Section_Status@8
          300001008BC35B5DC3:
            0. 00 0000 000F 0000:_INIT_Get_Execution_Focus@0
          360001008B550889028B550C891A8B5510890A5B5DC20C00:
            0. 00 0000 001E 0000:_INIT_Get_Time_Slice_Info@12
          3E0101008B5D0889138B5D0C890B5B5DC20800:
            0. 00 0000 0019 0000:_INIT_VMM_GetVxDLocationList@8
          DB00010074128B4D088901895904B8010000005B5DC2040033C0:
            0. 02 4681 0022 0000:_INIT_Get_Name_Of_Ugly_TSR@4
          F10001008B450889088B450C89180F93C083E0015B5DC20800:
            0. 00 0000 001F 0000:_INIT_Get_Crit_Status_No_Block@8
        FCFF7510FF750CFF7508CD207D01010083C40C8B5D1489135B5DC3:
          0. 00 0000 001F 0000:_INIT__lmemcpy
        FF75:
          10FF750CFF7508FCCD207B01010083C40C8B5D14890B5B5DC3:
            0. 00 0000 001F 0000:_INIT__lstrcpyn
          18FF7514FF7510FF750CFF7508CD2002002B0083C4145B5DC3:
            0. 00 0000 001F 0000:_INIT__VCOMM_Acquire_Port
      56:
        53:
          8B:
            450C8B5D088B75108B55188B4D14CD20050004005B5E5DC21400:
              0. 00 0000 0020 0000:_INIT_VDMAD_Set_Virt_State@20
            4D088B550C8B5D108B7514CD2013002A008B751889060BC07408:
              0. 10 3A97 0030 0000:_INIT__VWIN32_CreateRing0Thread@20
            5D088B750C:
              8B45148B55188B4D10CD200A000A005B5E5DC21400:
                0. 00 0000 0020 0000:_INIT_VDD_Msg_TextOut@20
              CD20130001005B5E5DC20800:
                0. 00 0000 0017 0000:_INIT_Cancel_VM_Event@8
            75:
              088B5D0CCD2008000E005B5E5DC20800:
                0. 00 0000 0017 0000:_INIT_VCD_Steal_Port_Windows_Style@8
              148B450CBA........68........FF25................8B:
                0. 13 1864 0033 0000:_INIT_Call_VM_Event@16
                1. 13 E17C 0033 (!)0000:?
                2. 13 E17C 0033 0000:_INIT_Schedule_VM_Event@16
          CD20870101008B5D0889038B5D0C89138B5D1089338B5D14890BB8:
            0. 11 474E 0031 0000:_INIT_Get_Nest_Exec_Status@16
        57:
          53:
            558B450CFF3083EC248BFC8B7508B909000000FCF3A5619DFF14:
              0. 21 F120 0041 0000:_INIT_Call_Previous_Hook_Proc@8
            8A65088A450C8B5D108B7D14CD2004008B048B4D1889318B4D20:
              0. 20 D6E4 0040 0000:_INIT_VCache_FindBlock@28
            8B:
              45088B:
                4D0C8B55108B5D148B7D188B751CCD200B000E008BC6:
                  0. 0B CF50 002B 0000:_INIT_VCD_Virtualize_Port_Dynamic@24
                5D0C8B75108B7D148B5518CD20930001000F93C083E0:
                  0. 08 F97C 0028 0000:_INIT_System_Control@20
                7D0C8B58108B48188B50148B70048B401CCD20060010:
                  0. 32 B01B 0052 0000:_INIT_BlockDev_Synchronous_Command@8
              5D088B750C8B7D108B4D14CD200100060072075B5F5E5DC210:
                0. 05 C101 0025 0000:_INIT_V86MMGR_Allocate_V86_Pages@16
              75208B4518BA........68........FF25:
                0. 20 9FF4 0040 0000:_INIT_SHELL_Message@28
                1. 1E A37E 003E 0000:_INIT_Call_Restricted_Event_Ex@28
                2. 1E A37E 003E 0000:_INIT_Call_Restricted_Event@28
              7D088B750CCD20050010005B5F5E5DC20800:
                0. 00 0000 0019 0000:_INIT_BlockDev_Command_Complete@8
          6A01E8........A1........85C0750ACD20200001005F5E5DC350:
            0. 01 3E9B 00C0 0000:?Dispose@VPMDPMIEntry@@SAHPAUtagPMCB@@@Z
          8A6D088B7D0C8B7510CD20:
            040021005F5E5DC20C00:
              0. 00 0000 001A 0000:_INIT_PageFile_Read_Or_Write@12
            070007005F5E5DC20C00:
              0. 00 0000 001A 0000:_INIT_PageSwap_Read_Or_Write@12
          8B:
            4508CD207E000100721A8B450C89108B451089308B45148938B8:
              0. 0E 3E77 002E 0000:_INIT_Get_Fault_Hook_Addrs@16
            4D:
              0C8B45088B75108B7D14CD20AD0001008B4D18720E7414C701:
                0. 1A E131 003A 0000:_INIT_Get_Profile_Fixed_Point@20
              10:
                8B75:
                  088B7D0C8BC1C1E902F3A58BC883E103F3A45F5E5DC2:
                    0. 02 E7A6 0022 0000:_READ_REGISTER_BUFFER_UCHAR@12
                  0C8B7D088BC1C1E902F3A58BC883E103F3A45F5E5DC2:
                    0. 02 E7A6 0022 0000:_WRITE_REGISTER_BUFFER_UCHAR@12
                C1E1028B75:
                  088B7D0C8BC1C1E902F3A58BC883E103F3A45F:
                    0. 05 B693 0025 0000:_READ_REGISTER_BUFFER_ULONG@12
                  0C8B7D088BC1C1E902F3A58BC883E103F3A45F:
                    0. 05 B693 0025 0000:_WRITE_REGISTER_BUFFER_ULONG@12
                D1E18B75:
                  088B7D0C8BC1C1E902F3A58BC883E103F3A45F5E:
                    0. 04 C5B4 0024 0000:_READ_REGISTER_BUFFER_USHORT@12
                  0C8B7D088BC1C1E902F3A58BC883E103F3A45F5E:
                    0. 04 C5B4 0024 0000:_WRITE_REGISTER_BUFFER_USHORT@12
              148B:
                45088B750C8B7D10CD20:
                  AB000100720E7414C701000000:
                    0. 17 21D2 0037 0000:_INIT_Get_Profile_Decimal_Int@16
                  AF000100720E7414C701000000:
                    0. 17 21D2 0037 0000:_INIT_Get_Profile_Hex_Int@16
                  B100010072107416C701000000:
                    0. 19 BBB5 0039 0000:_INIT_Get_Profile_Boolean@16
                55088B750C8B7D10CD20B3000100720EC701000000008B:
                  0. 0F 01B6 002F 0000:_INIT_Get_Profile_String@16
            75:
              08:
                8B:
                  462050E8........83C4048B462450E8........83C404:
                    0. 05 AB22 0870 0000:_ArcDeleteFilter 00B0:_ArcDeleteFilterOpenAdapter 0150:_ArcFilterAdjust 01D0:_ArcFilterIndicateReceive 0320:_ArcFilterIndicateReceiveComplete 03B0:_ArcFilterTransferData 03E0:_ArcFilterSendData 0730:_ArcFilterSendDataComplete 07C0:_ArcFilterAllocateBufferList
                  4D0CCD200D00060072158B451089308B45148938B80100:
                    0. 0C 60C0 002C 0000:_INIT_V86MMGR_Map_Pages@16
                  7D0C:
                    8A4510:
                      8B5514CD2003000C005F5E5DC21000:
                        0. 00 0000 001D 0000:_INIT_VMD_Post_Pointer_Message@16
                      CD200B000C005F5E5DC20C00:
                        0. 00 0000 001A 0000:_INIT_VMD_Post_Absolute_Pointer_Message@12
                    CD20:
                      040010005F5E5DC20800:
                        0. 00 0000 0017 0000:_INIT_IOS_SendCommand@8
                      11008B040F93C083E0015F5E5DC20800:
                        0. 00 0000 001D 0000:_INIT_VCache_SwapBuffers@8
                CD20:
                  DD0001005F5E5DC20400:
                    0. 00 0000 0014 0000:_INIT_Set_Physical_HMA_Alias@4
                  EB0001000F93C083E0015F5E5DC20400:
                    0. 00 0000 001A 0000:_INIT_Set_Delete_On_Exit_File@4
              0C8B:
                4508BA........68........FF25................56:
                  0. 0E 262F 002E 0000:_INIT_IFSMgr_SetPathHook
                7D08CD20FC0001005F5E5DC20800:
                  0. 00 0000 0017 0000:_INIT_Cancel_Thread_Event@8
              108B450CBA........68........FF25................56:
                0. 11 44BA 0031 0000:_INIT_IFSMgr_SetReqHook
              148B450CBA........68........FF25................8B:
                0. 13 E156 0033 0000:_INIT_Schedule_Thread_Event@16
            7D088B750CCD20:
              040010005F5E5DC20800:
                0. 00 0000 0017 0000:_INIT_BlockDev_Send_Command@8
              050011005F5E5DC20800:
                0. 00 0000 0017 0000:_INIT_VMCPD_Get_Thread_State@8
              060011005F5E5DC20800:
                0. 00 0000 0017 0000:_INIT_VMCPD_Set_Thread_State@8
          CD20:
            10000A008B450889388B450C89305F5E5DC20800:
              0. 00 0000 001B 0000:_INIT_VDD_Get_VM_Info@8
            11000A008B450889388B450C89305F5E5DC20800:
              0. 00 0000 001B 0000:_INIT_VDD_Get_Special_VM_IDs@8
        8A4D088B550CCD200F000A005E5DC20800:
          0. 00 0000 0015 0000:_INIT_VDD_Register_Virtual_Port@8
        8B:
          45:
            08:
              8B:
                008B750CBA........68........FF142483C4048B450889:
                  0. 0C ADAF 002C 0000:_INIT_VMD_Set_Cursor_Proc@8
                4D0CCD209B00010072078BC65E5DC2080033C0EBF7:
                  0. 00 0000 001D 0000:_INIT_List_Create@8
                75:
                  0C0BF675038B7510CD200B0017005E5DC20C00:
                    0. 00 0000 001C 0000:_INIT_SHELL_Unhook_Properties@12
                  1085F675038B750CCD203D0101000F93C083E0015E5DC2:
                    0. 02 E7A6 0022 0000:_INIT_Unhook_V86_Page@12
              CD200C0003008BC65E5DC20400:
                0. 00 0000 0014 0000:_INIT_VPICD_Convert_Handle_To_IRQ@4
              FF75088B450CFF750C8B7510CD20CA0001005E5DC20C00:
                0. 00 0000 001E 0000:_INIT_Queue_Debug_String@12
            0C8B7508CD20:
              0B008B04B8000000007501405E5DC20800:
                0. 00 0000 001D 0000:_INIT_VCache_VerifySums@8
              0C008B045E5DC20800:
                0. 00 0000 0015 0000:_INIT_VCache_RecalcSums@8
            1033C98B550C8B3203F08B420413C150568B4D08E8........8B:
              0. 05 39C9 0025 0000:??H@YA?AVFIFOINDEX@@AAV0@K@Z
          4D088B:
            410C8B750CBA........68........FF142483C40489710C:
              0. 13 DA0F 0033 0000:_INIT_Install_Exception_Handler@8
            750C8B55108A65148A4518CD2012002A005E5DC3:
              0. 00 0000 001C 0000:_INIT__VWIN32_WaitMultipleObjects
          5D08CD2032000100508B450C8F008B451089088B451489108B4518:
            0. 07 148B 0027 0000:_INIT_Get_Time_Slice_Priority@20
          75:
            08:
              8B:
                450C:
                  8B4D10CD20A00001005E5DC20C00:
                    0. 00 0000 0018 0000:_INIT_List_Insert@12
                  CD20:
                    9E0001005E5DC20800:
                      0. 00 0000 0015 0000:_INIT_List_Attach@8
                    9F0001005E5DC20800:
                      0. 00 0000 0015 0000:_INIT_List_Attach_Tail@8
                    A10001000F93C083E0015E5DC20800:
                      0. 00 0000 001B 0000:_INIT_List_Remove@8
                    A20001005E5DC20800:
                      0. 00 0000 0015 0000:_INIT_List_Deallocate@8
                    A40001005E5DC20800:
                      0. 00 0000 0015 0000:_INIT_List_Get_Next@8
                46040BC074158B4E206A008D0C49C1E1025150E8:
                  0. 15 9DDF 0950 0000:_EthDeleteFilter 0050:_EthDeleteFilterOpenAdapter 0110:_EthChangeFilterAddresses 0430:_EthFilterAdjust 04B0:_EthNumberOfOpenFilterAddresses 04F0:_EthQueryOpenFilterAddresses 05A0:_EthQueryGlobalFilterAddresses 05F0:_EthFilterIndicateReceive 0790:_EthFilterIndicateReceiveComplete 08C0:_EthShouldAddressLoopBack
                4D0C:
                  8A5510CD2009000400720F8B45188910B8010000005E:
                    0. 15 2385 0035 0000:_INIT_VDMAD_Lock_DMA_Region@24
                  CD20:
                    01008B045E5DC20800:
                      0. 00 0000 0015 0000:_INIT_VCache_Register@8
                    07000D00720233C98BC15E5DC20800:
                      0. 00 0000 001B 0000:_INIT_VKD_Force_Keys@8
                    0A0004000F93C083E0015E5DC20800:
                      0. 00 0000 001B 0000:_INIT_VDMAD_Unlock_DMA_Region@8
                    170004000F93C083E0015E5DC20800:
                      0. 00 0000 001B 0000:_INIT_VDMAD_Unlock_DMA_Region_No_Dirty@8
              CD20:
                0500:
                  10005E5DC20400:
                    0. 00 0000 0012 0000:_INIT_IOS_BD_Command_Complete@4
                  8B045E5DC20400:
                    0. 00 0000 0012 0000:_INIT_VCache_FreeBlock@4
                06008B045E5DC20400:
                  0. 00 0000 0012 0000:_INIT_VCache_MakeMRU@4
                0700:
                  15000F93C083E0015E5DC20400:
                    0. 00 0000 0018 0000:_INIT_DOSMGR_Instance_Device@4
                  8B045E5DC20400:
                    0. 00 0000 0012 0000:_INIT_VCache_Hold@4
                08008B04B8000000007501405E5DC20400:
                  0. 00 0000 001A 0000:_INIT_VCache_Unhold@4
                0C000E005E5DC20400:
                  0. 00 0000 0012 0000:_INIT_VCD_Unvirtualize_Port_Dynamic@4
                0D008B045E5DC20400:
                  0. 00 0000 0012 0000:_INIT_VCache_TestHold@4
                0E0006005E5DC20400:
                  0. 00 0000 0012 0000:_INIT_V86MMGR_Free_Page_Map_Region@4
                120001005E5DC20400:
                  0. 00 0000 0012 0000:_INIT_Cancel_Global_Event@4
                150001005E5DC20400:
                  0. 00 0000 0012 0000:_INIT_Cancel_Priority_VM_Event@4
                16002A00405E5DC20400:
                  0. 00 0000 0013 0000:_INIT_VWIN32_GetCurrentDirectory@4
                3E0001005E5DC20400:
                  0. 00 0000 0012 0000:_INIT_Cancel_Time_Out@4
                5B0101005E5DC20400:
                  0. 00 0000 0012 0000:_INIT_Cancel_Restricted_Event@4
                8E0001005E5DC20400:
                  0. 00 0000 0012 0000:_INIT_Restore_Client_State@4
                9C0001005E5DC20400:
                  0. 00 0000 0012 0000:_INIT_List_Destroy@4
                9D00010072055E5DC2040033C0EBF7:
                  0. 00 0000 0018 0000:_INIT_List_Allocate@4
                A30001005E5DC20400:
                  0. 00 0000 0012 0000:_INIT_List_Get_First@4
                A50001005E5DC20400:
                  0. 00 0000 0012 0000:_INIT_List_Remove_First@4
                B5000100720F8B450C8910B8010000005E5DC2080033C0:
                  0. 02 4681 0022 0000:_INIT_Get_Environment_String@8
                E40001005E5DC20400:
                  0. 00 0000 0012 0000:_INIT_Out_Mono_String@4
                F00001000F93C083E0015E5DC20400:
                  0. 00 0000 0018 0000:_INIT_Remove_Exception_Handler@4
                F30001005E5DC20400:
                  0. 00 0000 0012 0000:_INIT__Trace_Out_Service@4
                F60001008B4D0C89010F93C083E0015E5DC20800:
                  0. 00 0000 001D 0000:_INIT_VMMAddImportModuleName@8
            0C:
              0BF675038B7508CD20:
                120101000F93C083E0015E5DC20800:
                  0. 00 0000 001F 0000:_INIT_Cancel_Call_When_Thread_Switched@8
                2A0101000F93C083E0015E5DC20800:
                  0. 00 0000 001F 0000:_INIT_Cancel_Call_When_Not_Critical@8
                2B0101000F93C083E0015E5DC20800:
                  0. 00 0000 001F 0000:_INIT_Cancel_Call_When_Idle@8
                2C0101000F93C083E0015E5DC20800:
                  0. 00 0000 001F 0000:_INIT_Cancel_Call_When_Task_Switched@8
              83C60C8B4508CD201C0101000F93C083E0015E5DC20800:
                0. 00 0000 001E 0000:_INIT_Unhook_Device_Service_C@8
              85F675038B7508CD20:
                400101005E5DC20800:
                  0. 00 0000 0019 0000:_INIT_Unhook_NMI_Event@8
                EA0001000F93C083E0015E5DC20800:
                  0. 00 0000 001F 0000:_INIT_Unhook_Invalid_Page_Fault@8
              8A6508CD200A008B045E5DC20800:
                0. 00 0000 0015 0000:_INIT_VCache_TestHandle@8
              8B4508BA........68........FF25................:
                8BC6:
                  0. 05 D6F4 0025 0000:_INIT_BlockDev_Thunk_Command@8 (REF 000B: _BLOCKDEV_Command_thunkTEMPLATE)
                  1. 05 D6F4 0025 0000:_INIT_BlockDev_Thunk_Sync_Cmd@8 (REF 000B: _BLOCKDEV_Sync_Cmd_thunkTEMPLATE)
                  2. 05 D6F4 0025 0000:_INIT_BlockDev_Thunk_HW_Int@8 (REF 000B: _BLOCKDEV_HW_Int_thunkTEMPLATE)
                  3. 05 D6F4 0025 0000:_INIT_VPICD_Thunk_MaskChange@8 (REF 000B: _VPICD_MaskChange_thunkTEMPLATE)
                  4. 05 D6F4 0025 0000:_INIT_VPICD_Thunk_VirtInt@8 (REF 000B: _VPICD_VirtInt_thunkTEMPLATE)
                  5. 05 D6F4 0025 0000:_INIT_VPICD_Thunk_HWInt@8 (REF 000B: _VPICD_HWInt_thunkTEMPLATE)
                  6. 05 D6F4 0025 0000:_INIT_VPICD_Thunk_EOI@8 (REF 000B: _VPICD_EOI_thunkTEMPLATE)
                  7. 05 D6F4 0025 0000:_INIT_VPICD_Thunk_Iret@8 (REF 000B: _VPICD_Iret_thunkTEMPLATE)
                  8. 05 D6F4 0025 0000:_INIT_VCD_InitThunk_Io@8 (REF 000B: _VCDIo_thunkTEMPLATE)
                  9. 05 D6F4 0025 0000:_INIT_VCD_InitThunk_Control@8 (REF 000B: _VCDControl_thunkTEMPLATE)
                  10. 05 D6F4 0025 0000:_INIT_VCD_InitThunk_Irq@8 (REF 000B: _VCDIrq_thunkTEMPLATE)
                  11. 05 D6F4 0025 0000:_INIT_Init_Generic_Thunk@8 (REF 000B: _Generic_thunkTEMPLATE)
                  12. 05 D6F4 0025 0000:_INIT_VPICD_Thunk_HWInt_Ex@8 (REF 000B: _VPICD_HWInt_Ex_thunkTEMPLATE)
                9CFA:
                  0. 0E A6B9 002E 0000:_INIT_VPICD_Call_When_Hw_Int@8
                CD20:
                  0. 0F 2E71 002F 0000:_INIT_Call_When_Idle@8
                  1. 0F 73AF 002F (!)0000:?
                  2. 0F 73AF 002F 0000:_INIT_Hook_Invalid_Page_Fault@8
                  3. 09 9A06 0029 0000:_INIT_Call_When_Task_Switched@8
                  4. 09 C9AB 0029 (!)0000:?
                  5. 09 C9AB 0029 0000:_INIT_Call_When_Thread_Switched@8
                  6. 09 CD95 0029 0000:_INIT_Hook_NMI_Event@8
                  7. 09 E503 0029 0000:_INIT_Set_NMI_Handler_Addr@8
                  8. 09 E503 0029 (!)0000:?
            10:
              85F6740583C60CEB038B750C8B4508CD20:
                180101000F93C083:
                  0. 07 02F6 0027 0000:_INIT_Unhook_V86_Int_Chain@12
                190101000F93C083:
                  0. 07 02F6 0027 0000:_INIT_Unhook_V86_Fault@12
                1A0101000F93C083:
                  0. 07 02F6 0027 0000:_INIT_Unhook_PM_Fault@12
                1B0101000F93C083:
                  0. 07 02F6 0027 0000:_INIT_Unhook_VMM_Fault@12
                1C0101000F93C083:
                  0. 07 02F6 0027 0000:_INIT_Unhook_Device_Service_Ex@12
              8B45:
                08BA........68........FF25................:
                  8B55:
                    0. 0C 3625 002C 0000:_INIT_Call_When_VM_Ints_Enabled@12
                    1. 0E 75B2 002E (!)0000:?
                    2. 0E 75B2 002E 0000:_INIT_Schedule_Global_Event@12
                    3. 0E ED8A 002E 0000:_INIT_Call_Global_Event@12
                  FF75:
                    0. 0D 84D9 002D 0000:_INIT__SetFreePhysRegCalBk@12
                0CBA........68........FF25................8B:
                  45:
                    0. 22 12AA 0042 0000:_INIT_Hook_V86_Fault@12
                    1. 22 4AF2 0042 0000:_INIT_Hook_PM_Fault@12
                    2. 22 4AF2 0042 (!)0000:?
                    3. 21 4F75 0041 0000:_INIT_Hook_Device_Service@12 (REF 000B: _DeviceService_thunkTEMPLATE)
                    4. 21 4F75 0041 0000:_INIT_Hook_Device_Service_Ex@12 (REF 000B: _DeviceServiceEx_thunkTEMPLATE)
                    5. 21 4F75 0041 0000:_INIT_Hook_Device_Service_C@12 (REF 000B: _DeviceServiceC_thunkTEMPLATE)
                    6. 12 9FF1 0032 0000:_INIT_VDMAD_Virtualize_Channel@12
                    7. 12 9FF1 0032 (!)0000:?
                    8. 14 A1BC 0034 0000:_INIT_Hook_Device_PM_API@12
                    9. 12 A912 0032 0000:_INIT_Hook_V86_Page@12
                    10. 12 A912 0032 (!)0000:?
                    11. 22 AD0A 0042 0000:_INIT_Hook_VMM_Fault@12
                    12. 14 B08C 0034 0000:_INIT_Hook_Device_V86_API@12
                    13. 14 B08C 0034 (!)0000:?
                    14. 1F BEAB 003F 0000:_INIT_Hook_V86_Int_Chain@12
                  55:
                    0. 0C 3F25 002C 0000:_INIT_Call_When_Not_Critical@12
                    1. 12 700B 0032 0000:_INIT_Install_IO_Handler@12
                    2. 12 700B 0032 (!)0000:?
                    3. 10 89B7 0030 0000:_INIT_Allocate_PM_Call_Back@12
                    4. 10 CAAF 0030 (!)0000:?
                    5. 10 CAAF 0030 0000:_INIT_Allocate_V86_Call_Back@12
            148B45:
              08BA........68........FF25................8B55:
                0. 0F 677C 002F 0000:_INIT_Call_When_VM_Returns@16
              10BA........68........FF25................8B:
                45:
                  0. 15 1729 0035 0000:_INIT_Install_V86_Break_Point@16
                  1. 15 57B6 0035 (!)0000:?
                  2. 15 57B6 0035 0000:_INIT_SHELL_Hook_Properties@16
                  3. 11 92E0 0031 0000:_INIT_Set_Global_Time_Out@16
                  4. 11 AE14 0031 (!)0000:?
                  5. 11 AE14 0031 0000:_INIT_Set_Async_Time_Out@16
                  6. 11 D261 0031 0000:_INIT_IOS_Set_Async_Time_Out@16
                CE:
                  0. 19 7C45 0039 0000:_INIT_VDD_Takeover_VGA_Port@16
            188B4510BA........68........FF25................FF75:
              0. 16 3F4E 0036 0000:_INIT__DOSMGR_Exec_VM@20
          F16A01E8........A1........85C0751D6A086A06E8........85:
            0. 02 7C52 0070 0000:?AddToList@VPMDPMIEntry@@AAEHPAUtagPMCB@@@Z
        B8:
          00:
            4100008B7508668B4D0CCD20320040008B5510720466B8000066:
              0. 0B A1DB 002B 0000:_INIT_R0_DeleteFile
            4300008B7508CD20320040008B550C66890A8B5510720466B800:
              0. 0D 8360 002D 0000:_INIT_R0_GetFileAttributes
            4E0000668B4D0C8B75088B5510CD20320040008B5514720766C7:
              0. 0D 3703 002D 0000:_INIT_R0_FindFirstFile
            5600008B75088B550CCD20320040008B5510720466B800006689:
              0. 0A 2DCC 002A 0000:_INIT_R0_RenameFile
            DD00008A45088B4D0C8B55108B7514CD20320040008B55187204:
              0. 10 AB60 0030 0000:_INIT_R0_ReadAbsoluteDisk
            DE00008A45088B4D0C8B55108B7514CD20320040008B55187204:
              0. 10 AB60 0030 0000:_INIT_R0_WriteAbsoluteDisk
          014300008B7508668B4D0CCD20320040008B5510720466B8000066:
            0. 0B A1DB 002B 0000:_INIT_R0_SetFileAttributes
        CD20:
          00000A008B550889325E5DC20400:
            0. 00 0000 0014 0000:_INIT_VDD_Get_Version@4
          02000A008BC65E5DC3:
            0. 00 0000 000F 0000:_INIT_VDD_Get_GrabRtn@0
          160001008BC65E5DC3:
            0. 00 0000 000F 0000:_INIT_Get_NMI_Handler_Addr@0
      57:
        0FB745088B7D0CCD20460101008BC15F5DC20800:
          0. 00 0000 0018 0000:_INIT_Get_DDB@8
        538B7D088B5D0C8B45108B5514CD206301010072065B5F5DC2100033:
          0. 03 DE53 0023 0000:_INIT_Set_Inversion_Pri@16
        56:
          538B7D08CD20660101008B5D0C890B8B5D1089138B5D1489335B5E:
            0. 05 C3A4 0025 0000:_INIT_Get_Thread_Win32_Pri@16
          8B75188B4514BA........68........FF25................8B:
            0. 16 88A5 0036 0000:_INIT_Set_Thread_Time_Out@20
        8A4508CD2002001000:
          72078BC75F5DC2040033C0EBF7:
            0. 00 0000 001A 0000:_INIT_BlockDev_Find_Int13_Drive@4
          8BC7730233C05F5DC20400:
            0. 00 0000 0018 0000:_INIT_IOS_Find_Int13_Drive@4
        8B:
          45:
            088B7D0C8B4D10CD2004000E00730233C05F5DC20C00:
              0. 00 0000 001C 0000:_INIT_VCD_Acquire_Port@12
            0C8B7D08CD20140101005F5DC20800:
              0. 00 0000 0015 0000:_INIT_Adjust_Thread_Exec_Priority@8
          55088B7D0CCD20:
            0B0015005F5DC20800:
              0. 00 0000 0015 0000:_INIT_DOSMGR_LocalGlobalReg@8
            0F0006005F5DC20800:
              0. 00 0000 0015 0000:_INIT_V86MMGR_LocalGlobalReg@8
            B4000100720F8B45108910B8010000005F5DC20C:
              0. 05 D322 0025 0000:_INIT_Get_Next_Profile_String@12
            B800010072055F5DC2080033C048EBF6:
              0. 00 0000 001C 0000:_INIT_OpenFile@8
          7D:
            08:
              8B450C:
                8B4D10CD20620101005F5DC20C00:
                  0. 00 0000 0018 0000:_INIT_Boost_With_Decay@12
                CD20:
                  040011005F5DC20800:
                    0. 00 0000 0015 0000:_INIT_VMCPD_Set_CR0_State@8
                  670101000F93C083E0015F5DC20800:
                    0. 00 0000 001B 0000:_INIT_Set_Thread_Win32_Pri@8
                  680101005F5DC20800:
                    0. 00 0000 0015 0000:_INIT_Set_Thread_Static_Boost@8
                  6A0101005F5DC20800:
                    0. 00 0000 0015 0000:_INIT_Release_Inversion_Pri_ID@8
                  6D0101005F5DC20800:
                    0. 00 0000 0015 0000:_INIT_Set_Group_Static_Boost@8
              CD20:
                0100:
                  0300730233C05F5DC20400:
                    0. 00 0000 0016 0000:_INIT_VPICD_Virtualize_IRQ@4
                  10000F93C083E0015F5DC20400:
                    0. 00 0000 0018 0000:_INIT_BlockDev_Register_Device@4
                  20000F93C083E0015F5DC20400:
                    0. 00 0000 0018 0000:_INIT_Int13_Device_Registered@4
                030011005F5DC20400:
                  0. 00 0000 0012 0000:_INIT_VMCPD_Get_CR0_State@4
                070101005F5DC20400:
                  0. 00 0000 0012 0000:_INIT_VMMTerminateThread@4
                09010100B8000000000F94C05F5DC20400:
                  0. 00 0000 001A 0000:_INIT_Test_Cur_Thread_Handle@4
                0A0010005F5DC20400:
                  0. 00 0000 0012 0000:_INIT_IOS_Send_Next_Command@4
                0B010100B8000000000F94C05F5DC20400:
                  0. 00 0000 001A 0000:_INIT_Test_Sys_Thread_Handle@4
                0C0101000F93C083E0015F5DC20400:
                  0. 00 0000 0018 0000:_INIT_Validate_Thread_Handle@4
                0F0101005F5DC20400:
                  0. 00 0000 0012 0000:_INIT_Debug_Test_Valid_Thread_Handle@4
                130101008BC75F5DC20400:
                  0. 00 0000 0014 0000:_INIT_Get_Next_Thread_Handle@4
                170101005F5DC20400:
                  0. 00 0000 0012 0000:_INIT_Remove_Mult_IO_Handlers@4
                18002A005F5DC20400:
                  0. 00 0000 0012 0000:_INIT_VWIN32_TerminateApp@4
                6C0101005F5DC20400:
                  0. 00 0000 0012 0000:_INIT_Detach_Thread_From_Group@4
                8D0001005F5DC20400:
                  0. 00 0000 0012 0000:_INIT_Save_Client_State@4
                F70001000F93C083E0015F5DC20400:
                  0. 00 0000 0018 0000:_INIT_VMM_Add_DDB@4
                F80001000F93C083E0015F5DC20400:
                  0. 00 0000 0018 0000:_INIT_VMM_Remove_DDB@4
            0C:
              83C9FF33C0F2AEF7D183C1FF8B45086689088B4D088B550866:
                0. 14 8940 0034 0000:_RtlInitAnsiString@8
              8B4508CD206B0101005F5DC20800:
                0. 00 0000 0015 0000:_INIT_Attach_Thread_To_Group@8
            1066817F1C8A16756D53568B35........6A046A3CE8:
              0. 34 E71C 00B0 0000:_OnPMInt2F@12
        CD20:
          030010008BC75F5DC3:
            0. 00 0000 000F 0000:_INIT_BlockDev_Get_Device_List@0
          0E:
            000A008B450889088BC75F5DC20400:
              0. 00 0000 0016 0000:_INIT_VDD_Get_Mini_Dispatch_Table@4
            010100B8000000000F94C05F5DC20400:
              0. 00 0000 0017 0000:_INIT_Test_Initial_Thread_Handle@4
          450101008B450889388B450C89080F93C083E0015F5DC20800:
            0. 00 0000 001F 0000:_INIT_Get_Crit_Status_Thread@8
        FC8B7D088B4D108A450CF3AA8B45085F5DC390909090909090909090:
          0. 00 0000 0020 0000:_INIT___bc_memset
      5DC2:
        0400:
          0. 00 0000 0007 0000:_ObDereferenceObject@4
        0800:
          0. 00 0000 0007 0000:_MmUnmapLockedPages@8
      668B5508:
        0F:
          B6450CEE5DC39090:
            0. 00 0000 0010 0000:_INIT_Voutportb
          B7450C66EF5DC390:
            0. 00 0000 0010 0000:_INIT_Voutportw
        66ED0FB7C05DC39090:
          0. 00 0000 0010 0000:_INIT_Vinportw
        8B450CEF5DC3909090:
          0. 00 0000 0010 0000:_INIT_Voutportd
        EC0FB6C05DC3909090:
          0. 00 0000 0010 0000:_INIT_Vinportb
        ED5DC3909090909090:
          0. 00 0000 0010 0000:_INIT_Vinportd
      68:
        000000806A006A006A018B450850E8........83C4145DC20400:
          0. 00 0000 001E 0000:_MmIsAddressValid@4
        ........:
          6A:
            01E8........83C408:
              33C05DC3:
                0. 00 0000 0016 0000:?__default_nh@@YAHI@Z
              5DC3:
                0. 00 0000 0014 0000:??3VGlobalV86Area@@SAXPAX@Z
            02E8........83C40833C05DC3:
              0. 00 0000 0016 0000:__purecall
          8B450C5068........8B4D085168........B9........E8:
            0. 00 0000 0042 0000:_AssertFailure
      6A:
        00:
          6A448B450850E8........8BE55DC305000000008DA42400000000:
            0. 17 79F5 0760 0000:_TrDeleteFilter 0020:_TrDeleteFilterOpenAdapter 0120:_TrChangeFunctionalAddress 01D0:_TrChangeGroupAddress 0320:_TrFilterAdjust 03A0:_TrFilterIndicateReceive 05B0:_TrFilterIndicateReceiveComplete 0640:_TrShouldAddressLoopBack
          8B45:
            0850E8........:
              5DC20400:
                0. 00 0000 0012 0000:_KeInitializeTimer@4
              83C4085D:
                C20400:
                  0. 00 0000 0015 0000:_ExFreePool@4
                C3:
                  0. 00 0000 0013 0000:_PAGEABLE_malloc (REF 000A: _PAGEABLE__HeapAllocate)
                  1. 00 0000 0013 0000:_LOCK_malloc (REF 000A: _LOCK__HeapAllocate)
                  2. 00 0000 0013 0000:_INIT_malloc (REF 000A: _INIT__HeapAllocate)
                  3. 00 0000 0013 0000:_STATIC_malloc (REF 000A: _STATIC__HeapAllocate)
                  4. 00 0000 0013 0000:_DEBUG_malloc (REF 000A: _DEBUG__HeapAllocate)
            0C50E8........83C4085DC3:
              0. 00 0000 0013 (l)0000:?ReleaseEventHeap@@YAXKPAX@Z
        018B45080FAF450C50E8........83C4085DC3:
          0. 00 0000 0017 0000:_DEBUG_calloc (REF 000E: _DEBUG__HeapAllocate)
          1. 00 0000 0017 0000:_STATIC_calloc (REF 000E: _STATIC__HeapAllocate)
          2. 00 0000 0017 0000:_INIT_calloc (REF 000E: _INIT__HeapAllocate)
          3. 00 0000 0017 0000:_LOCK_calloc (REF 000E: _LOCK__HeapAllocate)
          4. 00 0000 0017 0000:_PAGEABLE_calloc (REF 000E: _PAGEABLE__HeapAllocate)
      81EC:
        00010000:
          5356578B45083B05........7C2C8B4D0C5168:
            0. 01 361F 0056 0000:_DebugEvent
          8B450C508B4D08518D9500FFFFFF52E8........83C40C:
            0. 0A D1FF 0035 0000:_AssertFailure
        040100008D450C8985FCFEFFFF8B8DFCFEFFFF518B550852688000:
          0. 0A 332A 0041 0000:_DbgPrint
        70020000898D90FDFFFF8D8D94FDFFFFE8........8B8590FDFFFF:
          0. 0F FD7F 0436 0000:?InitPortFunctions@VCommPort@@AAEXXZ
        84:
          0000008D450C89857CFFFFFF8B8D7CFFFFFF518B550852688000:
            0. 07 ECB6 003E (!)0000:? (REF 0027: _DEBUG__vsnprintf)
            1. 07 ECB6 003E 0000:_INIT_dprintf (REF 0027: _INIT__vsnprintf)
          0200008D8D:
            90FDFFFFE8........8B4510508B4D08E8:
              0. 20 3B2B 00E3 0000:?PortClose@VCommPortDriver@@AAAHKPAU_PortData@@@Z
            94FDFFFFE8........8B4510508B4D08E8:
              0. 29 F332 01F6 0000:?PortOpen@VCommPortDriver@@AAAPAU_PortData@@KPADPAUcb_s@@PAK@Z
        90000000578B450C8945D8C745EC00000000837D0C00750883C8FF:
          0. A8 4151 0B43 0000:_PAGEABLE__vsnprintf (l)0764:$default_case$36477 (l)0782:$EmitNumber$36306 (l)0982:$EmitString$36444 (l)0A7D:$Done$36516 (REF 01B3: _PAGEABLE__CTAB)
          1. A8 4151 0B43 0000:_LOCK__vsnprintf (l)0764:$default_case$36470 (l)0782:$EmitNumber$36299 (l)0982:$EmitString$36437 (l)0A7D:$Done$36509 (REF 01B3: _LOCK__CTAB)
          2. A8 4151 0B43 0000:_INIT__vsnprintf (l)0764:$default_case$36477 (l)0782:$EmitNumber$36306 (l)0982:$EmitString$36444 (l)0A7D:$Done$36516 (REF 01B3: _INIT__CTAB)
          3. A8 4151 0B43 0000:_STATIC__vsnprintf (l)0764:$default_case$36477 (l)0782:$EmitNumber$36306 (l)0982:$EmitString$36444 (l)0A7D:$Done$36516 (REF 01B3: _STATIC__CTAB)
          4. A8 4151 0B43 0000:_DEBUG__vsnprintf (l)0764:$default_case$36477 (l)0782:$EmitNumber$36306 (l)0982:$EmitString$36444 (l)0A7D:$Done$36516 (REF 01B3: _DEBUG__CTAB)
        94000000:
          57C7459C000000008B45088945E88D4D10894DEC8B550C:
            0. 2B 6AD0 095A 0000:_PAGEABLE_sscanf (l)001D:$Parse$36203 (l)0083:$EatWhite$36211 (l)00CC:$FormatSpec$36213 (l)0225:$scanInt$36236 (l)02CC:$nextField$36275 (l)02E0:$scanString$36244 (l)0329:$scanChar$36246 (l)0376:$scanSet$36248 (l)03D4:$scanRange$36299 (l)054D:$scanRange2$36336 (l)0591:$scanRange3$36334 (l)05DB:$scanRange4$36322 (l)0666:$endSet$36305 (l)07D1:$storePC$36250 (l)07F5:$storeCount$36252 (l)0826:$Terminate$36205 (REF 011A: _PAGEABLE_strtol)
            1. 2B 6AD0 095A 0000:_LOCK_sscanf (l)001D:$Parse$36196 (l)0083:$EatWhite$36204 (l)00CC:$FormatSpec$36206 (l)0225:$scanInt$36229 (l)02CC:$nextField$36268 (l)02E0:$scanString$36237 (l)0329:$scanChar$36239 (l)0376:$scanSet$36241 (l)03D4:$scanRange$36292 (l)054D:$scanRange2$36329 (l)0591:$scanRange3$36327 (l)05DB:$scanRange4$36315 (l)0666:$endSet$36298 (l)07D1:$storePC$36243 (l)07F5:$storeCount$36245 (l)0826:$Terminate$36198 (REF 011A: _LOCK_strtol)
            2. 2B 6AD0 095A 0000:_INIT_sscanf (l)001D:$Parse$36203 (l)0083:$EatWhite$36211 (l)00CC:$FormatSpec$36213 (l)0225:$scanInt$36236 (l)02CC:$nextField$36275 (l)02E0:$scanString$36244 (l)0329:$scanChar$36246 (l)0376:$scanSet$36248 (l)03D4:$scanRange$36299 (l)054D:$scanRange2$36336 (l)0591:$scanRange3$36334 (l)05DB:$scanRange4$36322 (l)0666:$endSet$36305 (l)07D1:$storePC$36250 (l)07F5:$storeCount$36252 (l)0826:$Terminate$36205 (REF 011A: _INIT_strtol)
            3. 2B 6AD0 095A 0000:_STATIC_sscanf (l)001D:$Parse$36203 (l)0083:$EatWhite$36211 (l)00CC:$FormatSpec$36213 (l)0225:$scanInt$36236 (l)02CC:$nextField$36275 (l)02E0:$scanString$36244 (l)0329:$scanChar$36246 (l)0376:$scanSet$36248 (l)03D4:$scanRange$36299 (l)054D:$scanRange2$36336 (l)0591:$scanRange3$36334 (l)05DB:$scanRange4$36322 (l)0666:$endSet$36305 (l)07D1:$storePC$36250 (l)07F5:$storeCount$36252 (l)0826:$Terminate$36205 (REF 011A: _STATIC_strtol)
            4. 2B 6AD0 095A 0000:_DEBUG_sscanf (l)001D:$Parse$36203 (l)0083:$EatWhite$36211 (l)00CC:$FormatSpec$36213 (l)0225:$scanInt$36236 (l)02CC:$nextField$36275 (l)02E0:$scanString$36244 (l)0329:$scanChar$36246 (l)0376:$scanSet$36248 (l)03D4:$scanRange$36299 (l)054D:$scanRange2$36336 (l)0591:$scanRange3$36334 (l)05DB:$scanRange4$36322 (l)0666:$endSet$36305 (l)07D1:$storePC$36250 (l)07F5:$storeCount$36252 (l)0826:$Terminate$36205 (REF 011A: _DEBUG_strtol)
          898D6CFFFFFF8D4D98E8........68........8B856CFF:
            0. 08 553A 0163 0000:?hook@VHardwareInt@@UAEHXZ
        98000000898D68FFFFFF8D4D98E8........68........8B8568FF:
          0. 08 553A 0169 0000:?hook@VHardwareInt@@UAEHXZ
        CC020000898D34FDFFFF8D8D38FDFFFFE8........8B8534FDFFFF:
          0. 0F D7C6 050C 0000:?InitPortFunctions@VCommPort@@AAEXXZ
        E00200008D8D38FDFFFFE8........8B4510508B4D08E8:
          0. 29 D41B 0239 0000:?PortOpen@VCommPortDriver@@AAAPAU_PortData@@KPADPAUcb_s@@PAK@Z
        E40200008D8D34FDFFFFE8........8B4510508B4D08E8:
          0. 20 2637 016C 0000:?PortClose@VCommPortDriver@@AAAHKPAU_PortData@@@Z
        EC000000898D14FFFFFF8D8D40FFFFFFE8........68........8B:
          0. 0E 4DC4 0195 0000:?hook@VSharedHardwareInt@@UAEHXZ
        F0000000898D10FFFFFF8D8D40FFFFFFE8........68........8B:
          0. 0E F9D2 0195 0000:?hook@VSharedHardwareInt@@UAEHXZ
      83:
        3D........00:
          740433C0EB758B4508A3........68........8B4D0C:
            0. 04 0228 0089 0000:_Set_V86_Vendor_Entry@8
          750433C0EB0B8B45080305........8B005DC3:
            0. 00 0000 001D 0000:?getThread@VThread@@SAPAV1@K@Z
        7D:
          0800:
            74:
              0B8B450850E8........EB0233C05DC3:
                0. 00 0000 0018 0000:?AllocFromList@VCallback@@KAPAUCallbackNode@@K@Z
              0E6A008B450850E8........83C4085DC3:
                0. 00 0000 0019 0000:??3@YAXPAX@Z
            7502EB106A008B45088B0851E8........83C4085DC3:
              0. 00 0000 001D (!)0000:?
          0C0075126A008B450850E8........83C40833C0EB126A008B4D0C:
            0. 06 FE88 002F 0000:_PAGEABLE_realloc (REF 0010: _PAGEABLE__HeapFree)
            1. 06 FE88 002F 0000:_LOCK_realloc (REF 0010: _LOCK__HeapFree)
            2. 06 FE88 002F 0000:_INIT_realloc (REF 0010: _INIT__HeapFree)
            3. 06 FE88 002F 0000:_STATIC_realloc (REF 0010: _STATIC__HeapFree)
            4. 06 FE88 002F 0000:_DEBUG_realloc (REF 0010: _DEBUG__HeapFree)
          1000750F8B450C508B4D0851E8........EB0D8B550C528B450850:
            0. 01 3E9B 0027 0000:?unlockRegion@VDMAChannel@@SAHPAXKH@Z
        EC:
          04:
            56578B75148BFEC1E70583C711A1........506A00578D45FC50:
              0. 01 3E9B 0640 0000:_ArcFilterAllocatePacketPool 00A0:_ArcFilterFreePacketPool 00C0:_ArcFilterAllocatePacket 0130:_ArcFilterFreePacket 0150:_ArcFilterAllocateBufferPool 0200:_ArcFilterFreeBufferPool 0220:_ArcFilterAllocateBuffer 0280:_ArcFilterFreeBuffer 02A0:_ArcFilterChainBufferAtBack 02D0:_ArcFilterDiscardPacket 0340:_ArcFilterConvertToNdisPacket 03D0:_ArcFilterIndicateReceiveFrame (061E: 00)
              1. 01 3E9B 0960 0000:_ArcFilterAllocatePacketPool 00B0:_ArcFilterFreePacketPool 00E0:_ArcFilterAllocatePacket 01A0:_ArcFilterFreePacket 01F0:_ArcFilterAllocateBufferPool 02B0:_ArcFilterFreeBufferPool 02E0:_ArcFilterAllocateBuffer 0390:_ArcFilterFreeBuffer 03E0:_ArcFilterChainBufferAtBack 0410:_ArcFilterDiscardPacket 0510:_ArcFilterConvertToNdisPacket 0630:_ArcFilterIndicateReceiveFrame (061E: 46)
            57A1........506A008D45FC6A:
              3250E8........8B4D208B55FC:
                0. C9 3FC3 0B50 0000:_TrCreateFilter@28 00D0:_TrDeleteFilter@4 0100:_TrNoteFilterOpenAdapter@16 01E0:_TrDeleteFilterOpenAdapter@12 0340:_TrChangeFunctionalAddress@20 03E0:_TrChangeGroupAddress@20 0570:_TrFilterAdjust@20 05F0:_TrFilterIndicateReceive@28 0650:_TrFilterDprIndicateReceive@28 0900:_TrFilterIndicateReceiveComplete@4 0940:_TrFilterDprIndicateReceiveComplete@4 0A20:_TrShouldAddressLoopBack@12
                1. BC CEF5 0570 0000:_TrCreateFilter@28 00D0:_TrDeleteFilter@4 00F0:_TrNoteFilterOpenAdapter@16 01D0:_TrDeleteFilterOpenAdapter@12 02C0:_TrChangeFunctionalAddress@20 0360:_TrChangeGroupAddress@20 04F0:_TrFilterAdjust@20
              4450E8........83C4108B4D20:
                0. C9 3307 0AD0 0000:_TrCreateFilter 00D0:_TrDeleteFilter 0100:_TrNoteFilterOpenAdapter 01E0:_TrDeleteFilterOpenAdapter 0340:_TrChangeFunctionalAddress 03F0:_TrChangeGroupAddress 0540:_TrFilterAdjust 05C0:_TrFilterIndicateReceive 08A0:_TrFilterIndicateReceiveComplete 09B0:_TrShouldAddressLoopBack
                1. C8 434C 01B0 0000:_TrCreateFilter 00D0:_TrNoteFilterOpenAdapter
          08:
            53:
              5657:
                894DF8:
                  6A01E8........833D........0075216A086A06:
                    0. 01 3E9B 008F 0000:?AddToList@VPMDPMIEntry@@AAEHPAUtagPMCB@@@Z
                  833D........0075118B45F88B0883E10185C974:
                    0. 02 B91A 020A 0000:?__construct@KTrace@@IAEXPAU_STRING@@PAU_UNICODE_STRING@@PAUINTERRUPT_CONTEXT@@@Z
                  8B:
                    45:
                      0C8B482C81E10000020085C9740B8B55F88B:
                        0. 2E A284 004E 0000:?callPreviousHandler@VDeviceAPI@@QAEXPAUcb_s@@PATtagCLIENT_STRUC@@@Z
                      F8:
                        8378:
                          0400745868........68:
                            2101000068:
                              0. 00 0000 00DA 0000:?Connect@KInterrupt@@QAEJP6GDPAUINTERRUPT_CONTEXT@@PAX@Z1PAKD@Z
                            FD00000068:
                              0. 00 0000 00C8 0000:?Connect@KInterrupt@@QAEJP6GDPAUINTERRUPT_CONTEXT@@PAX@Z1@Z
                          0C0A745E8B4DF883790C10745568:
                            0. 00 0000 01E6 0000:?__construct@KUnitizedName@@IAEXPAU_UNICODE_STRING@@@Z
                          2400755568........6A6E68:
                            0. 00 0000 00B0 0000:?Wait@KTIMER@@QAEJXZ
                        8B080FBF510683E21785D2750B8B45F88B:
                          0. 03 67A1 00B8 0000:?MapToUserSpace@KMemory@@QAEPAXXZ
                    4DF8E8........0FBEC085C074668B4DF88379:
                      0. 05 CBD1 010B 0000:?_initialize@_fifocore@@IAEXKKW4_POOL_TYPE@@@Z
                  9CFA8B45F88B0883:
                    C1018B55F8890A8B45F88B08:
                      0. 0E 4246 002E 0000:@InterlockedIncrement@4
                    E9018B55F8890A8B45F88B08:
                      0. 0E 4246 002E 0000:@InterlockedDecrement@4
                8B:
                  1D........8D45FC536A006A3250E8........:
                    83C410:
                      0. 3E FD65 0D00 0000:_EthCreateFilter 0130:_EthDeleteFilter 01A0:_EthNoteFilterOpenAdapter 0270:_EthDeleteFilterOpenAdapter 0390:_EthChangeFilterAddresses 06B0:_EthFilterAdjust 0730:_EthNumberOfOpenFilterAddresses 0770:_EthQueryOpenFilterAddresses 0820:_EthQueryGlobalFilterAddresses 0870:_EthFilterIndicateReceive 0AC0:_EthFilterIndicateReceiveComplete 0C70:_EthShouldAddressLoopBack (01A1: 21)
                      1. 3E FD65 0200 0000:_EthCreateFilter 0130:_EthNoteFilterOpenAdapter (01A1: 00)
                    8B4D20:
                      0. 3D 9400 0D10 0000:_EthCreateFilter@28 0120:_EthDeleteFilter@4 0190:_EthNoteFilterOpenAdapter@16 0260:_EthDeleteFilterOpenAdapter@12 0370:_EthChangeFilterAddresses@24 0650:_EthFilterAdjust@20 06D0:_EthNumberOfOpenFilterAddresses@8 0710:_EthQueryOpenFilterAddresses@24 07D0:_EthQueryGlobalFilterAddresses@20 0830:_EthFilterIndicateReceive@32 0890:_EthFilterDprIndicateReceive@32 0AB0:_EthFilterIndicateReceiveComplete@4 0AF0:_EthFilterDprIndicateReceiveComplete@4 0CA0:_EthShouldAddressLoopBack@8 (0822: 20)
                      1. 3D 9400 0880 0000:_EthCreateFilter@28 0120:_EthDeleteFilter@4 0170:_EthNoteFilterOpenAdapter@16 0240:_EthDeleteFilterOpenAdapter@12 0300:_EthChangeFilterAddresses@24 05E0:_EthFilterAdjust@20 0660:_EthNumberOfOpenFilterAddresses@8 06A0:_EthQueryOpenFilterAddresses@24 0760:_EthQueryGlobalFilterAddresses@20 (0822: 00)
                  35........8D45FC566A006A6150E8........83C410:
                    0. 6E 1FEE 03C0 0000:_ArcCreateFilter 02F0:_ArcNoteFilterOpenAdapter (0330: 24)
                    1. 6E 1FEE 1040 0000:_ArcCreateFilter 0370:_ArcDeleteFilter 0480:_ArcNoteFilterOpenAdapter 0550:_ArcDeleteFilterOpenAdapter 0640:_ArcFilterAdjust 06C0:_ArcFilterIndicateReceive 08D0:_ArcFilterIndicateReceiveComplete 09E0:_ArcFilterTransferData 0A10:_ArcFilterSendData 0F00:_ArcFilterSendDataComplete 0F90:_ArcFilterAllocateBufferList (0330: E8)
                9C8F45FCFA8B450850B9........E8........8945F88B:
                  0. 1F 1B29 003F 0000:_KeRemoveQueueDpc@4
              8B:
                5D0C8D450C56578945F833C08BC88BD033FF33F6CD200801:
                  0. 40 37E4 0060 0000:?Synch@_isafelist@@KAXP6GDPAX@ZZZ
                  1. 22 C3F6 0060 0000:?Synch@_isafefifo@@KAXP6GDPAX@ZZZ
                D956578B03895DF885C07405E8........8B75088B7D0C8B:
                  0. 0B ADBD 0180 0000:?Initialize@KKernelSharedFifo@@QAEDKK@Z
              8D45FF56578BD98945F833C933FF33F6CD2008010100CD2066:
                0. 2F 3B76 0060 0000:?Wait@KTIMER@@QAEJXZ
                1. 30 8C81 00D0 0000:?Setup@KTIMER@@QAEXT_LARGE_INTEGER@@JPAVKDPC@@@Z
            5657:
              894DF88B7D0883C9FF33C0F2AEF7D151E8........83C404:
                0. 46 C7C1 0066 0000:??0VVendorExtension@@QAE@PAD@Z
              8B450833C9668B48028B550C33C0668B023BC87D0D8B4D08:
                0. 45 E42D 0065 (!)0000:?
            57894DF88B45F8C600008B4DF88B55088951018B45F8C7400500:
              0. 36 18E8 00A5 0000:??0_fifocore@@IAE@KKW4_POOL_TYPE@@@Z
            6A008B450850E8........83C4088945FC8B4DFC894DF8837DF8:
              0. 24 6AC9 0044 0000:_ZwDeleteKey@4
            837D080075318B4510508B4D0C51E8........8945FC6A008B55:
              0. 03 5A64 00B1 0000:_MmCreateMdl@12
            894D:
              F8:
                68........8B45F883C0:
                  08508B4DF851E8........83C4:
                    0. 0B ED7F 005E 0000:?hook@VInvalidPageFault@@QAEHXZ
                  0C508B4DF851E8........83C4:
                    0. 05 6769 006E 0000:?hook@VPreChainV86Int@@QAEHXZ
                  14508B4DF851E8........83C4:
                    0. 2C 090C 00BC 0000:?hook@VDeviceAPI@@QAEHXZ
                  1A508B4DF851E8........83C4:
                    0. 37 7396 008B 0000:?hook@VHotKey@@QAEHXZ
                6A:
                  008B4514508B4D0C518B5508528B45F8506A006A006A:
                    0. 09 0C9C 0044 0000:?Read@KFile@@QAEJPAEKPAKPAT_LARGE_INTEGER@@@Z (REF 0029: _ZwReadFile@36)
                    1. 09 0C9C 0044 0000:?Write@KFile@@QAEJPAEKPAKPAT_LARGE_INTEGER@@@Z (REF 0029: _ZwWriteFile@36)
                  046A248B4508508B4DF8518B55F88B420850E8:
                    0. 00 0000 002D 0000:?Query@KFile@@QAEJPAU_FILE_BASIC_INFORMATION@@@Z
                  056A168B4508508B4DF8518B55F88B420850E8:
                    0. 00 0000 002D 0000:?Query@KFile@@QAEJPAU_FILE_STANDARD_INFORMATION@@@Z
                  0E6A088B4508508B4DF8518B55F88B420850E8:
                    0. 00 0000 002D 0000:?Query@KFile@@QAEJPAU_FILE_POSITION_INFORMATION@@@Z
                83:
                  3D........0074168B45F883781400740D8B4DF88B51:
                    0. 04 24C3 0055 0000:??1KTrace@@QAE@XZ
                  7D:
                    080075:
                      0433C0EB3FA1........8945FCEB0C8B4DFC:
                        0. 1E 0D4C 0058 0000:?LookupPort@VCommPortDriver@@AAEPAVVCommPort@@PAD@Z
                      138B45F88B08518B4DF8E8........8945FC:
                        0. 0A 085B 0045 0000:?_next@_listcore@@QAEPAXPAX@Z
                      148B45F88B4804518B4DF8E8........8945:
                        0. 0B 7754 0047 0000:?_prev@_listcore@@QAEPAXPAX@Z
                    0C00741E8D45FC508B4D08518B55F88B0250E8:
                      0. 00 0000 007A 0000:?reconstruct@VRegistryKey@@QAEHPADH@Z
                8A45088845FCC645FD008D4DFC518B55F88B028B4DF8FF:
                  0. 0A F3C4 002A 0000:??6Vdbostream@@QAEAAV0@D@Z
                8B:
                  45:
                    08:
                      03450C8B4DF83B4108760433C0EB258B55F88B42:
                        0. 19 0B19 0046 0000:?discard@VPageBlock@@QAEHKKK@Z
                      25FFFF0000D1E0668945FC8B4DFC81E1FFFF0000:
                        0. 35 2C04 0055 0000:?ShortenBy@KUstring@@QAEXG@Z
                      50E8........83C404:
                        668945FC8B4DFC81E1FFFF:
                          0. 2E 7DCB 0061 0000:?Assign@KUstring@@QAEJPBG@Z
                        8B4DF86689018B55F833C0:
                          0. 20 C44F 00A0 0000:??0KUstring@@QAE@PAGW4_POOL_TYPE@@@Z
                      8945FC837D1000741C8B4DF8518B550C528B45FC:
                        0. 02 F6B7 0054 0000:??0VRegistryKey@@QAE@W4PredefinedRegistryKey@@PADH@Z
                      8B08894DFC837D1000741C8B55F8528B450C508B:
                        0. 04 18E9 0056 0000:??0VRegistryKey@@QAE@AAV0@PADH@Z
                    0C0345108B4DF83B4108760433C0EB57E8:
                      0. 3C 094D 0078 0000:?unmap@VV86Pages@@QAEHPAUcb_s@@KK@Z
                    10:
                      0345148B4DF83B4108760433C0EB268B55F88B45:
                        0. 1A 0D77 0047 0000:?mapPhys@VV86Pages@@QAEHKPAUcb_s@@KK@Z
                      508B4D0C518B5514528D45FC508B4D08518B55F8:
                        0. 04 AC1C 0043 0000:?getValue@VRegistryKey@@QAEHPADPAXPAKPAW4RegistryValueType@@@Z
                    14508B4D10518B550C528D45FC508B4DF88B510852:
                      0. 01 3E9B 0051 0000:?getRegion@VDMAChannel@@QAEXAAPAVVDMABuffer@@AAHAAPAXAAK@Z
                    18508B4D14518B5510528D45FC508B4D0C518B5508:
                      0. 0F 416B 005D 0000:?nextValue@VRegistryKey@@QAEHPADPAKPAW4RegistryValueType@@PAX1@Z
                      1. 0A EAE4 0053 0000:?firstValue@VRegistryKey@@QAEHPADPAKPAW4RegistryValueType@@PAX1@Z
                    F8:
                      0FBE:
                        0885C9741B8B55F8C602008B45F88B481189:
                          0. 07 0040 003C 0000:?Invalidate@_fifocore@@QAEXXZ
                        48:
                          0485C9741B8B55F88B028945FC8B4DFC51:
                            0. 01 3E9B 003C 0000:?Invalidate@KMemory@@QAEXXZ
                          0885C9741C8B55F88B42048945FC8B4DFC:
                            0. 02 2EAE 0046 0000:?Invalidate@KUstring@@QAEXXZ
                          1885C974258B55F8833A00741D8B45F88B:
                            0. 09 BC65 003D 0000:?Invalidate@KUnitizedName@@QAEXXZ
                      66C70000008B4D0C518B550881E2FFFF0000D1EA:
                        0. 04 052F 006D 0000:??0KUstring@@QAE@GW4_POOL_TYPE@@@Z
                      83:
                        380074:
                          0D8B4DF88B1152E8........EB0233C0:
                            0. 04 A1B6 0024 0000:?first@VList@@QAEPAXXZ
                          118B4D08518B55F88B0250E8:
                            0. 0A 573F 002A 0000:?next@VList@@QAEPAXPAX@Z
                          138B4DF88B1152E8........8945FC8B:
                            0. 0A 1F86 002A 0000:?removeFirst@VList@@QAEPAXXZ
                          198B4DF88B1152E8........8945FC83:
                            0. 0B 45B0 003F 0000:?newNode@VList@@QAEPAXXZ
                        78:
                          040074448B4DF88339FF751E8B55F88B4204:
                            0. 08 1FFA 0064 0000:?Invalidate@KDispatcherObject@@QAEXXZ
                          0C00742C6A008B4DF88B510C528B45F88B48:
                            0. 03 C404 007C 0000:?unhook@VDeviceAPI@@QAEHXZ
                          390074080FBE4D0885C974488B55F8837A3D:
                            0. 0F 36AF 00AC 0000:?SetSignaledState@KTIMER@@QAEXD@Z
                        C0:
                          088945FC8B4DF88B510483E20185D2740D6A:
                            0. 06 F0D3 0032 0000:?unhook@VInvalidPageFault@@QAEHXZ
                          2C50E8........83C4048945FC6A008B4D08:
                            0. 0A 56D5 0034 0000:?enablePostChainHandler@VPreChainV86Int@@QAEXJPAX@Z
                      8B:
                        08:
                          33D23B4DF80F94C28855FC8A45FC8BE55DC3:
                            0. 00 0000 0020 0000:?_isEmpty@_listcore@@QAEDXZ
                          518B4DF8E8........8945FC8B45FC8BE55D:
                            0. 01 EF04 0021 0000:?_head@_listcore@@QAEPAXXZ
                        108B4DF8FF:
                          128B:
                            4508508B4DF883C104E8:
                              0. 00 0000 0039 0000:?Next@?$KList@U__resource@@@@QAEPAU__resource@@PAU2@@Z (REF 001E: ?_next@_listcore@@QAEPAXPAX@Z)
                              1. 00 0000 0039 0000:?Remove@?$KList@VKDPC@@@@QAEPAVKDPC@@PAV2@@Z (REF 001E: ?_remove@_listcore@@QAEPAXPAX@Z)
                            4DF883C104E8........8945:
                              0. 13 FACB 0033 0000:?Head@?$KList@U__resource@@@@QAEPAU__resource@@XZ (REF 001A: ?_head@_listcore@@QAEPAXXZ)
                              1. 13 FACB 0033 0000:?RemoveHead@?$KList@VKDPC@@@@QAEPAVKDPC@@XZ (REF 001A: ?_removeHead@_listcore@@QAEPAXXZ)
                          520C8945FC837DFC00750433C0EB:
                            0. 3F F170 005F 0000:?hook@VInChainInt@@QAEHXZ
                        48:
                          04:
                            518B4DF8E8........8945FC8B45FC8BE5:
                              0. 02 5F98 0022 0000:?_tail@_listcore@@QAEPAXXZ
                            83E10285C9745A8B55F8837A04007451B8:
                              0. 10 5DBF 0079 0000:?unhook@VFault@@UAEHXZ
                            894DFC:
                              837D0800740F8B55FC528B450C50:
                                0. 01 3E9B 003A 0000:?localEnable@VHotKey@@QAEXHPAUcb_s@@@Z
                              8B55F8C7420400000000837DFC00:
                                0. 07 46F3 002F 0000:?Invalidate@KRegistryKey@@QAEXXZ
                          0883E10185C97507B801000000EB:
                            238B55F8:
                              0. 05 E374 0044 0000:?unhook@VPreChainV86Int@@QAEHXZ
                            248B55F8:
                              0. 05 E374 0045 0000:?unhook@VPreChainV86Int@@QAEHXZ
                          20894DFC8B55F8C74220000000008B45FC50:
                            0. 01 3E9B 0029 0000:?Cancel@VTimeOut@@QAEXXZ
                          38894DFC8B55F8C7423800000000837DFC00:
                            0. 07 C1E7 0032 0000:?cancel@VAppyTimeEvent@@QAEXXZ
                      C640:
                        0400837D1000747D8B4DF88B551089118B45:
                          0. 6D 7D87 0113 0000:??0KMemory@@QAE@PAXKPAU_MDL@@@Z
                        34008B4DF88379300074248D55FC526A1FE8:
                          0. 00 0000 0073 0000:?handler@KTIMER@@UAEXPAUcb_s@@KPATtagCLIENT_STRUC@@K@Z
                      C700........8B4DF88B:
                        51040315........8955:
                          0. 0E 3E62 002E 0000:??1VVirtualMachine@@QAE@XZ (REF 000E: ??_7VVirtualMachine@@6B@)
                          1. 0E 3E62 002E 0000:??1VThread@@QAE@XZ (REF 000E: ??_7VThread@@6B@)
                        55088951088B45F88B48:
                          0. 03 67A1 0090 0000:??0VPipe@@QAE@K@Z
                  4DF8E8........:
                    0FBEC085C074088B4DF8E8:
                      0. 1A 2623 0080 0000:?Initialize@KUstring@@QAEXGW4_POOL_TYPE@@@Z
                      1. 05 5DF8 00B4 0000:?Initialize@KUstring@@QAEXPAGW4_POOL_TYPE@@@Z
                    8B45F8C700........:
                      833D:
                        0. 04 AE6A 006D 0000:??0VThread@@QAE@K@Z
                      8B:
                        0D:
                          0. 02 2EAE 00F5 0000:??0VProtModeCallback@@QAE@PAX@Z (REF 0016: ??_7VProtModeCallback@@6B@)
                          1. 02 2EAE 00F5 0000:??0VV86Callback@@QAE@PAX@Z (REF 0016: ??_7VV86Callback@@6B@)
                        4DF88B5508:
                          0. 08 0ED2 004F 0000:??0VVirtualMachine@@QAE@PAUcb_s@@@Z
                8D45FC50:
                  6A1FE8........8B4DF88B1152E8........83:
                    0. 0F CC0C 0052 0000:@ExTryToAcquireFastMutex@4
                  8B4D:
                    10518B55F88B4208508B4D0851E8:
                      0. 00 0000 0036 0000:?getVirtualState@VDMAChannel@@QAEXPAUcb_s@@AAPAXAAKAAG@Z
                    F8E8........0FBE4DFC83F903743A0FBE:
                      0. 32 5B38 0061 0000:??5Vdbistream@@QAEAAV0@PAD@Z
                A1........8945FCEB0C8B4DFC8B91D40000008955FC83:
                  0. 1F 566F 003F 0000:?LookupPort@VCommPortDriver@@AAEPAVVCommPort@@PAU_PortData@@@Z
                C745FC:
                  000000008B:
                    45:
                      10508B4D0C518B5514528B45FC50:
                        0. 0B 4E3A 004A 0000:?setValue@VRegistryKey@@QAEHPADPAXKW4RegistryValueType@@@Z
                      F88378080074198B4DF88B510852:
                        0. 01 3E9B 0039 0000:?Close@KFile@@QAEJXZ
                    4DF8E8........0FBEC085C074088B:
                      0. 03 4BE6 00C9 0000:?Initialize@KPeripheralAddress@@IAEJ_KDKD@Z
                  ........8B450825FF00000083E00F8B4DFC8A14:
                    0. 18 0377 0049 0000:??6Vdbostream@@QAEAAV0@E@Z
                E8........25FFFF00008945FC8B45FCC1E80825FF0000:
                  0. 1A 653A 003A 0000:?getCursorPosition@Vmonostream@@QAEXAAK0@Z
              FC:
                837D0800740B8B45088B4804894DF8EB07C745F8000000:
                  0. 1D 963F 0050 0000:?setRegion@VDMAChannel@@QAEXPAVVDMABuffer@@HPAXK1@Z
                8B45:
                  248945F88B4DF883E91E894DF8837DF80377428B55:
                    0. 04 A92F 008A 0000:?OnControlMessage@VThread@@UAEKKKKKKKKK@Z
                  FC:
                    8B4DFC8B50052B510983FA0174228B45FC8B4DFC:
                      0. 2A D0B5 004A 0000:?_isFull@_fifocore@@IAEDXZ
                    C700........8B4DFCC74112........8B4DFCE8:
                      0. 00 0000 0048 0000:??1VInChainPMInt@@QAE@XZ
            8B45:
              08:
                0FBE0885C974628B55088955FC8B450C8945F8EB128B4D:
                  0. 58 3635 0078 0000:_INIT_strstr
                50E8........83C4048945FC837DFC00742166C745F800:
                  0. 0A 9D43 0051 0000:_ZwClose@4
                83E8188945FC8B4DFC33D28A510C85D274188B45FC33C9:
                  0. 19 7FC8 0039 0000:?GetObjectName@@YAPAU_UNICODE_STRING@@PAX@Z
                8B08894DFC8B55FC83C2048955FC8B45FC8B48FC894DF8:
                  0. 04 2231 002E 0000:?_synchReset@_isafelist@@KADPAX@Z (REF 0024: ?_reset@_listcore@@QAEXXZ)
                  1. 04 2231 002E 0000:?_synchFlush@_isafefifo@@KADPAX@Z (REF 0024: ?_flush@_fifocore@@IAEXXZ)
              0C8B4D088D5401FFC1EA0C8B4508C1E80C2BD083C2018955:
                0. 15 06D4 0067 0000:_MmUnmapIoSpace@8
              14578B7D088BC88BD083E10883E210894DF885FF8955FC0F:
                0. 43 D29D 00D0 0000:?_vector_delete_@@YAPAXPAXIII0@Z
            B80100000085C0745FFAB9........E8........8945F8837DF8:
              0. 15 3ECD 0074 0000:?__DpcEventHandler@@YGXPAUcb_s@@PAXPATtagCLIENT_STRUC@@@Z
            C745FC:
              00000000C745F8000000008B45080FBE0883F920740B8B:
                0. 8E 55EC 00AE 0000:_INIT_atol
              04000000837D0860760F68........6A02E8........83:
                0. 04 EB3F 0066 0000:??2VEvent@@SAPAXI@Z
            E8........8845FC6A7FE8........83C4048B451050FF550C88:
              0. 07 1589 0037 0000:_KeSynchronizeExecution@12
          0C:
            0FBE451085C074446A018B4D0C33D2668B11D1E252E8:
              0. 6E 9E34 00A7 0000:_RtlAnsiStringToUnicodeString@12
            535657:
              837D0C00745568........6A1468........68:
                0. 01 361F 0105 0000:_MmMapIoSpace@16
              894DF48B45F4C74008000000008B4DF4C6410C008B4DF4:
                0. 04 057F 020D 0000:??0KResourceRequest@@QAE@W4_INTERFACE_TYPE@@PBG1@Z
              8B35........8D45FC566A006A4450E8........8B4D28:
                0. 47 5631 13E0 0000:_FddiCreateFilter@36 01B0:_FddiDeleteFilter@4 0250:_FddiNoteFilterOpenAdapter@16 0320:_FddiDeleteFilterOpenAdapter@12 0460:_FddiChangeFilterLongAddresses@24 0710:_FddiChangeFilterShortAddresses@24 09B0:_FddiFilterAdjust@20 0A30:_FddiNumberOfOpenFilterLongAddresses@8 0A70:_FddiNumberOfOpenFilterShortAddresses@8 0AB0:_FddiQueryOpenFilterLongAddresses@24 0B70:_FddiQueryOpenFilterShortAddresses@24 0C30:_FddiQueryGlobalFilterLongAddresses@20 0C90:_FddiQueryGlobalFilterShortAddresses@20 0CE0:_FddiFilterIndicateReceive@36 0D40:_FddiFilterDprIndicateReceive@36 1070:_FddiFilterIndicateReceiveComplete@4 10B0:_FddiFilterDprIndicateReceiveComplete@4 1300:_FddiShouldAddressLoopBack@12 (0D58: F8)
                1. 47 5631 0DC0 0000:_FddiCreateFilter@36 01B0:_FddiDeleteFilter@4 0230:_FddiNoteFilterOpenAdapter@16 0300:_FddiDeleteFilterOpenAdapter@12 03E0:_FddiChangeFilterLongAddresses@24 0690:_FddiChangeFilterShortAddresses@24 0930:_FddiFilterAdjust@20 09B0:_FddiNumberOfOpenFilterLongAddresses@8 09F0:_FddiNumberOfOpenFilterShortAddresses@8 0A30:_FddiQueryOpenFilterLongAddresses@24 0AF0:_FddiQueryOpenFilterShortAddresses@24 0BB0:_FddiQueryGlobalFilterLongAddresses@20 0C10:_FddiQueryGlobalFilterShortAddresses@20 (0D58: 00)
            56:
              57894DF48B450866C70001008B4D0866C7410201008B5508C7:
                0. 13 18EC 0084 0000:?AddList@KResourceRequest@@IAEPAU_IO_RESOURCE_LIST@@PAU2@PAV?$KList@U__resource@@@@@Z
              894DF4837D0C00750E8B4508508B4DF4E8........EB738B4D:
                0. 06 01DC 0098 0000:?_insertAfter@_listcore@@QAEXPAX0@Z (006A: 04)
                1. 06 01DC 0098 0000:?_insertBefore@_listcore@@QAEXPAX0@Z (006A: 30)
            6A008B4510508B4D0881E1FFFF0000518D55F8528D45FC50E8:
              0. 00 0000 0056 0000:_DEBUG_MapPointerToFlat (REF 001F: _DEBUG__GetDescriptor@20)
              1. 00 0000 0056 0000:_STATIC_MapPointerToFlat (REF 001F: _STATIC__GetDescriptor@20)
              2. 00 0000 0056 0000:_INIT_MapPointerToFlat (REF 001F: _INIT__GetDescriptor@20)
              3. 00 0000 0056 0000:_LOCK_MapPointerToFlat (REF 001F: _LOCK__GetDescriptor@20)
              4. 00 0000 0056 0000:_PAGEABLE_MapPointerToFlat (REF 001F: _PAGEABLE__GetDescriptor@20)
            894D:
              F4:
                68........8B45F483C0:
                  08508B4DF451E8........83C4:
                    0. 12 AFA2 0055 0000:?hook@VIOPort@@QAEHXZ
                  0C508B4DF451E8........83C4:
                    0. 12 AFA2 0074 0000:?hook@VDMAChannel@@QAEHXZ
                6A:
                  016A2CE8........83C4088945F88B45F88945FC837D:
                    0. 64 9439 0090 0000:?AddDma@KResourceRequest@@QAEJKKEE@Z
                    1. 66 9C2C 0092 0000:?AddIrq@KResourceRequest@@QAEJKKEEG@Z
                  0CE8........83C4048945F88B45F88945FC837DFC00:
                    0. 2D 5D04 0061 0000:?AddTerminationRoutine@VDevice@@QAEXP6AXKPAX@Z0@Z
                837D080074348B4508508B4DF4E8........8B08894DFC:
                  0. 08 7F4B 004C 0000:?_remove@_listcore@@QAEPAXPAX@Z
                8B:
                  45:
                    08:
                      3B451075238B4D0C3B4D14751B8B551833C08B4D:
                        0. 19 8021 00DB 0000:?AddPort@KResourceRequest@@QAEJ_K0KKEEG@Z (002D: 01)
                        1. 19 8021 00DB 0000:?AddMemory@KResourceRequest@@QAEJ_K0KKEEG@Z (002D: 03)
                      508B4DF4E8........85C0742A6A018B4DF483C1:
                        0. 07 129E 004B 0000:?Read@CSharedFifo@@QAEKPAX@Z
                      8945F88B4D0C894DFC:
                        6A008B55:
                          10528B45FC508B:
                            0. 0B 531A 0035 0000:?SetPeriodic@KTimer@@UAED_JJ@Z
                          FC528B45F8508B:
                            0. 07 DB5B 0031 0000:?Set@KTimer@@UAED_J@Z
                        8B5518528B4514508B4DF4:
                          0. 05 88C8 004E 0000:?SetPeriodic@KTimedCallback@@UAED_JJP6GXPAVKDPC@@PAX22@Z2@Z
                    0C8945F8837D0C00743A8B4D0C518B5508528B4DF4:
                      0. 01 3E9B 0058 0000:?write@VDosToWinPipe@@UAEHPADH@Z
                    14508B4D10518B55F483C24E52E8........8B4508:
                      0. 20 7FEC 004A 0000:?Set@KTimedCallback@@UAED_JP6GXPAVKDPC@@PAX22@Z2@Z
                    F4:
                      833800746F8B4DF48B510483C2018B45F4895004:
                        0. 30 361F 0084 0000:?NextUnit@KUnitizedName@@QAEXXZ
                      8945F88B4DF88B:
                        118955FC8B4508508B4DF4E8:
                          0. 00 0000 0063 0000:?_insertHead@_listcore@@QAEXPAX@Z
                        51048955FC8B4508508B4DF4E8:
                          0. 00 0000 0064 0000:?_insertTail@_listcore@@QAEXPAX@Z
                      8B:
                        480483E10185C9741C8B55F433C08A42083DFF:
                          0. 17 FB6C 00A9 0000:?hook@VFault@@UAEHXZ
                        4D:
                          083B4808720583C8FFEB408B55F48B4204C1:
                            0. 17 EA40 005F 0000:?getPhysicalAddress@VPageBlock@@QAEKK@Z
                          0C89088B55F48B45108942048B4DF48B5514:
                            0. 4A 4BD4 00A3 0000:??0KTrace@@QAE@PAU_UNICODE_STRING@@KW4TRACE_LEVEL@@W4BREAK_LEVEL@@0PAUINTERRUPT_CONTEXT@@@Z
                            1. 4C 5930 008D 0000:??0KTrace@@QAE@PADKW4TRACE_LEVEL@@W4BREAK_LEVEL@@PAU_UNICODE_STRING@@PAUINTERRUPT_CONTEXT@@@Z
                      C700000000008B4DF48B550C8951048B45F48B4D:
                        0. 14 CD2C 004D 0000:??0KUnitizedName@@QAE@PBGKK@Z
                  4DF4E8........0FBEC085C074088B4DF4E8:
                    0. 22 024C 0058 0000:?Initialize@KUnitizedName@@QAEXPBGKK@Z
                    1. 17 CCEA 0086 0000:??1KRegistryKey@@QAE@XZ
                8D45F8508B4D0C518B5508528B45F48B0851E8:
                  0. 36 C444 0056 0000:?reallocate@VPageBlock@@QAEHKK@Z
                C745F8000000008B45F48B083B4DF474218B55F48B0289:
                  0. 22 9424 0042 0000:?_count@_listcore@@QAEKXZ
              F8C745FC010000008B45248945F4:
                837DF4:
                  1C0F873A010000:
                    0. 07 EA3F 01B8 0000:?OnControlMessage@VDevice@@UAEKKKKKKKKK@Z
                  360F875C020000:
                    0. 07 EA3F 0328 0000:?OnControlMessage@VDevice@@UAEKKKKKKKKK@Z
                8B4DF483E903894DF483:
                  0. 10 5A95 028A 0000:?OnControlMessage@VVirtualMachine@@UAEKKKKKKKKK@Z
                  1. 0F 7BDB 01C4 0000:?OnControlMessage@VVirtualMachine@@UAEKKKKKKKKK@Z
              FC8B45FC8945F88B4DF88B51043B550C7215770A8B45F88B:
                0. 1F 992E 003F 0000:??OFIFOINDEX@@QAEHV0@@Z
            8B45:
              08:
                05FF0F0000C1E80C8945F88D4DFC518D55F4526A:
                  006A00:
                    0. 0F 8918 005B 0000:??2VPageObject@@SAPAXI@Z
                  086A00:
                    0. 0F 8918 005B 0000:??2VLockedPageObject@@SAPAXI@Z
                0FBF480683E10285C97502EB618B55088B42108B4D0803:
                  0. 3B F8EE 007B 0000:_MmUnlockPages
                8945F88B4D0C894DFCC745F4000000008B55F83B55FC76:
                  0. 5C 12FA 007C 0000:_RtlMoveMemory@12
                8B:
                  08894D:
                    F88B55F883C2048955F88B45F88B48FC894DF4:
                      0. 16 9C88 0045 0000:?_synchIsEmpty@_isafefifo@@KADPAX@Z (REF 0036: ?_isEmpty@_fifocore@@IAEDXZ)
                      1. 16 9C88 0045 0000:?_synchIsFull@_isafefifo@@KADPAX@Z (REF 0036: ?_isFull@_fifocore@@IAEDXZ)
                    FC8B55FC83C2048955FC8B45FC8B48FC894D:
                      F4:
                        0. 16 0B6D 0045 0000:?_synchIsEmpty@_isafelist@@KADPAX@Z (0007: 88)
                        1. 16 0B6D 0045 0000:?_synchTail@_isafelist@@KADPAX@Z (0007: 89) (REF 0036: ?_tail@_listcore@@QAEPAXXZ)
                        2. 16 0B6D 0045 0000:?_synchCount@_isafelist@@KADPAX@Z (0007: 89) (REF 0036: ?_count@_listcore@@QAEKXZ)
                        3. 16 0B6D 0045 0000:?_synchRemoveHead@_isafelist@@KADPAX@Z (0007: 89) (REF 0036: ?_removeHead@_listcore@@QAEPAXXZ)
                        4. 16 0B6D 0045 0000:?_synchRemoveTail@_isafelist@@KADPAX@Z (0007: 89) (REF 0036: ?_removeTail@_listcore@@QAEPAXXZ)
                        5. 16 0B6D 0045 0000:?_synchHead@_isafelist@@KADPAX@Z (0007: 89) (REF 0036: ?_head@_listcore@@QAEPAXXZ)
                        6. 1A 58EA 0044 0000:?_synchInsertHead@_isafelist@@KADPAX@Z (REF 003A: ?_insertHead@_listcore@@QAEXPAX@Z)
                        7. 1A 58EA 0044 0000:?_synchRemove@_isafelist@@KADPAX@Z (REF 003A: ?_remove@_listcore@@QAEPAXPAX@Z)
                        8. 1A 58EA 0044 0000:?_synchInsertTail@_isafelist@@KADPAX@Z (REF 003A: ?_insertTail@_listcore@@QAEXPAX@Z)
                      F8:
                        0. 16 9BB3 0045 0000:?_synchNRead@_isafefifo@@KADPAX@Z (REF 0036: ?_numberOfItemsAvailableForRead@_fifocore@@IAEKXZ)
                        1. 16 9BB3 0045 0000:?_synchNWrite@_isafefifo@@KADPAX@Z (REF 0036: ?_numberOfItemsAvailableForWrite@_fifocore@@IAEKXZ)
                  48108B5508034A18894DF88B45088B4814894DF48B55:
                    0. 36 AD10 009D 0000:_MmProbeAndLockPages
              0C0FAF45108B4D0803C8894DF86A008B55F852E8:
                0. 33 774E 0053 0000:??2CSharedFifo@@SAPAXIKK@Z
            8D450C8945FC8D4D0C894D:
              F48B55F483C2048955F48B45F48B48:
                0. 05 6BD3 005B 0000:?Synch@_isafefifo@@KAXP6GDPAX@ZZZ
              F88B55F883C2048955F88B45F88B48:
                0. 05 CB7A 005F 0000:?Synch@_isafelist@@KAXP6GDPAX@ZZZ
          10:
            535657:
              33C08945F48945F88845FC8B0D........894DF48B15:
                0. 00 0000 00D3 0000:_DebugEvent
              6A01E8........833D........0075:
                0BCD2020000100E9:
                  0. 05 1990 00B9 0000:?DisposeAll@VPMDPMIEntry@@SAXXZ
                0DCD202000010033:
                  0. 07 15F6 00BF 0000:?Dispose@VPMDPMIEntry@@SAHPAUtagPMCB@@@Z
              894DF08D45FC508B4DF083C12C51E8........8B550889:
                0. 39 3D47 015C 0000:?Setup@KTIMER@@QAEXT_LARGE_INTEGER@@JPAVKDPC@@@Z
              9C8F45FCFA8B450833C9837808000F95C1884DF88B5508:
                0. 1C 9F98 0089 0000:_KeInsertQueueDpc@12
            57:
              894DF08B:
                4DF0E8........0FBEC085C074088B4DF0E8:
                  0. 00 0000 00CA 0000:?Initialize@KUstring@@QAEXPADW4_POOL_TYPE@@@Z
                7D0883C9FF33C0F2AEF7D183C1FF66894DFA668B45:
                  0. 2F 267B 00B6 0000:??0KUstring@@QAE@PADW4_POOL_TYPE@@@Z
              8B7D0883C9FF33C0F2AEF7D183C1FF894DF48B450C8945F8EB:
                0. 26 5353 0077 0000:_DEBUG_strcspn (REF 0046: _DEBUG_strchr)
                1. 26 5353 0077 0000:_STATIC_strcspn (REF 0046: _STATIC_strchr)
                2. 26 5353 0077 0000:_INIT_strcspn (REF 0046: _INIT_strchr)
                3. 26 5353 0077 0000:_LOCK_strcspn (REF 0046: _LOCK_strchr)
                4. 26 5353 0077 0000:_PAGEABLE_strcspn (REF 0046: _PAGEABLE_strchr)
            837D240074:
              06837D24FE751A8B4518C74004000000008B4D18C7:
                0. 2B C984 00A7 0000:_ZwReadFile@36
              0C837D24FE7406837D24FF751A8B4518C740040000:
                0. 31 CD59 00AD 0000:_ZwWriteFile@36
            894D:
              F0:
                68........8B45F083C00C508B4DF051E8........83C4:
                  0. 3E 6270 0075 0000:?hook@VV86Pages@@QAEHXZ
                8B45:
                  088945F866C745F40000668B4D0C66894DF68B55F0:
                    0. 3B 7633 006C 0000:?ToPsz@KUstring@@QAEJPADG@Z
                  F0:
                    668B0866894DF48B55F481E2FFFF00008B450833:
                      0. 79 CD66 0099 0000:?Match@KUstring@@QAEDAAV1@@Z
                    8B:
                      108B4DF0FF520C8945F48D45F8508D4DFC518B:
                        0. 51 87C4 0071 0000:?unhook@VInChainInt@@QAEHXZ
                      4804894DFC837DFC0074368B55FC8B4208508B:
                        0. 1F 75FA 005E 0000:?CallTerminationRoutines@VDevice@@AAEXK@Z
                8D45F4508B4DF0E8........0FBE4DF483F92074090FBE:
                  0. 0F E046 00CD 0000:?getHex@Vdbistream@@QAEKXZ
                C745F4........C745F8000000008B45F8508B4DF4518B:
                  0. 0B 0B24 005E 0000:?call@VVMEvent@@QAEHXZ (002B: F0)
                  1. 0B 0B24 0058 0000:?schedule@VThreadEvent@@QAEXXZ (002B: 5D) (REF 002B: _createThreadEventThunk)
                  2. 0B 0B24 0058 0000:?schedule@VVMEvent@@QAEXXZ (002B: 5D) (REF 002B: _createEventThunk)
                  3. 0B 0B24 0057 0000:?call@VGlobalEvent@@QAEHXZ (002B: C3)
                  4. 0B 0B24 006E 0000:?schedule@VAppyTimeEvent@@QAEHXZ (002B: 8B)
                  5. 0B 0B24 0073 0000:?call@VPriorityVMEvent@@QAEHXZ (002B: 50)
                  6. 0B 0B24 0051 0000:?schedule@VGlobalEvent@@QAEXXZ
              F4:
                6A4CE8........83C4048945F8837DF800741A8B45F48B:
                  0. 0D 90CC 0055 0000:?OnDataAvailable@VDosToWinPipe@@MAEXXZ
                8B45F48945F88B4DF8894DFC837DFC00740F6A018B4DFC:
                  0. 01 3E9B 0035 (!)0000:? (REF 0021: ??_GVVirtualMachine@@QAEPAXI@Z)
                  1. 01 3E9B 0035 0000:?OnDestroyThread@VThread@@MAEXXZ (REF 0021: ??_GVThread@@QAEPAXI@Z)
            8B45:
              088B:
                08894DFC8B55FC83C2048955FC8B45FC8B48FC894D:
                  F0:
                    0. 30 2D8D 005A 0000:?_synchInsertBefore@_isafelist@@KADPAX@Z
                  F4:
                    0. 2C 7BC0 005B 0000:?_synchPrev@_isafelist@@KADPAX@Z (REF 004C: ?_prev@_listcore@@QAEPAXPAX@Z)
                    1. 2C 7BC0 005B 0000:?_synchNext@_isafelist@@KADPAX@Z (REF 004C: ?_next@_listcore@@QAEPAXPAX@Z)
                    2. 30 DD8A 005A 0000:?_synchInsertAfter@_isafelist@@KADPAX@Z
                48108B5508034A18894DF48B45088B4814894DF08B55:
                  0. 32 08CB 0089 0000:_MmBuildMdlForNonPagedPool@4
                88DC00000083E10185C9741E8B5508837A400074158B:
                  0. 0D ED10 01A3 0000:?Setup@VCommPort@@MAAHPADK0K@Z
              0C33C9668B08D1E9894DF40FBE551085D2743C6A018B45F4:
                0. 05 5A81 00AD 0000:_RtlUnicodeStringToAnsiString@12
              188945F08B4DF083E904894DF0837DF00D0F87E00000008B:
                0. 06 C2C8 013C 0000:_ZwQueryInformationFile@20
          14:
            837D10027C06837D10247E0E8B450CC600008B450CE9CC000000:
              0. D0 914F 00F0 0000:_INIT__ultoa
            894D:
              EC:
                8B45:
                  08508D4DF4E8........8D4DF4518B4DECE8:
                    0. 00 0000 0035 0000:?Append@KUstring@@QAEJPBG@Z
                  EC83781100750733C0E9280100008B4DEC8B55EC8B:
                    0. 58 6304 0147 0000:?_read@_fifocore@@IAEKPAXK@Z
                C745:
                  F400000000C745FC00000000C645F8008B45EC8B08:
                    0. 2F 2DB7 011A 0000:?_find@_listcore@@QAEPAXPAX0D@Z
                  FC000000008B45EC8B083B4DEC74:
                    3D8B55EC8B0289:
                      0. 30 C738 005E 0000:?_removeHead@_listcore@@QAEPAXXZ
                    408B55EC8B4204:
                      0. 33 1780 0061 0000:?_removeTail@_listcore@@QAEPAXXZ
              F08B45F083380074528B4DF08B51048955F88B45F88945FC:
                0. 0C BF7C 0067 0000:?Invalidate@KKernelSharedFifo@@QAEXXZ
            8B45:
              088B08894DFC8B55FC83C2048955FC8B45FC8B48FC894DF8:
                0. 42 0EF0 0071 0000:?_synchRead@_isafefifo@@KADPAX@Z (REF 0062: ?_read@_fifocore@@IAEKPAXK@Z)
                1. 42 0EF0 0071 0000:?_synchWrite@_isafefifo@@KADPAX@Z (REF 0062: ?_write@_fifocore@@IAEKPAXK@Z)
              0C0345108945F48B4DF4C6010D8B55F4C642010AC745EC00:
                0. 5F 956D 0134 0000:_PAGEABLE___write_text (REF 007F: _PAGEABLE___write_bin)
                1. 5F 956D 0134 0000:_LOCK___write_text (REF 007F: _LOCK___write_bin)
                2. 5F 956D 0134 0000:_INIT___write_text (REF 007F: _INIT___write_bin)
                3. 5F 956D 0134 0000:_STATIC___write_text (REF 007F: _STATIC___write_bin)
                4. 5F 956D 0134 0000:_DEBUG___write_text (REF 007F: _DEBUG___write_bin)
              1033C9668B481C81F98A1600000F85A50000008B15:
                0. 00 0000 00C8 0000:_OnInt2F@12
            C745F400000000EB098B45F483C0018945F48B4DF43B4D100F83:
              0. 0D CCAE 00C7 0000:_DEBUG__memicmp (REF 002D: _DEBUG__CTAB)
              1. 0D CCAE 00C7 0000:_STATIC__memicmp (REF 002D: _STATIC__CTAB)
              2. 0D CCAE 00C7 0000:_INIT__memicmp (REF 002D: _INIT__CTAB)
              3. 0D CCAE 00C7 0000:_LOCK__memicmp (REF 002D: _LOCK__CTAB)
              4. 0D CCAE 00C7 0000:_PAGEABLE__memicmp (REF 002D: _PAGEABLE__CTAB)
            E8........8945F468........6A00E8........83C408C745F8:
              0. 00 0000 0098 0000:_End_PM_Vendor_Entry@0
          18:
            535657:
              837D0800753F8B450C0FAF45108945F08B4D1483E11085:
                0. 11 F92A 0116 0000:?_vector_new_@@YAPAXPAXIII0@Z
              8B451033C9668B481C81F98A1600000F85A50000008B15:
                0. 00 0000 0117 0000:_OnPMInt2F@12
            68........8B45105068........B9........E8........8BC8:
              0. 01 3E9B 0125 0000:?DriverControl@VCommPortDriver@@AAAXKKKPAX0ZZ
            83:
              3D........000F85A800000068........8B450C506A00E8:
                0. 00 0000 0222 0000:_Set_PM_Vendor_Entry@8 (l)01D5:$VMok$36234
              7D10027C06837D10247E0E8B450CC600008B450CE9E2000000:
                0. E6 F7FA 0106 0000:_INIT__ltoa
            894D:
              E8C745EC000000008B45E8C70000000000837D08007505E9:
                0. 97 280C 00B7 0000:?__construct@KResourceAssignment@@IAEXPAU_CM_RESOURCE_LIST@@EK@Z
              EC:
                8B45EC83C00C8945F8C745F401000000C745FC00000000:
                  0. 39 FB4E 0080 0000:?unhook@VV86Pages@@QAEHXZ
                A1........8945:
                  F8C745FC........EB0C8B4DF88B91D4:
                    0. 61 917E 0081 0000:?DeletePort@VCommPortDriver@@IAEXPAVVCommPort@@@Z
                  FC837DFC00743E8B4DFC8B91D4000000:
                    0. 39 0C4D 0059 0000:?DeleteAllPorts@VCommPortDriver@@IAEXXZ
            8B45088B08894DFC8B55FC83C2048955FC8B45FC8B48FC894DE8:
              0. 58 64ED 0087 0000:?_synchFind@_isafelist@@KADPAX@Z
            C745F000000000C745FC000000008B45080FBE0883F920740B8B:
              0. FF D818 01BE 0000:_INIT_strtol (009E: C3)
          1C:
            535657:
              894DF08B45F083C00C8B4DF08B55F08B520833F68B7914:
                0. 4F F7DD 00C2 0000:?Write@CSharedFifo@@QAEKPAX@Z
              8B451C83E00185C0745868........68B000000068:
                0. 00 0000 011E 0000:_ZwCreateKey@28
            68........8B45105068........B9........E8........8BC8:
              0. 01 3E9B 01F4 0000:?DriverControl@VCommPortDriver@@AAAXKKKPAX0ZZ
            894D:
              E48B45:
                1425FFFF00008945FC8B4D14C1E910894DF48B55FC:
                  0. 51 2B71 007E 0000:?setProperties@VV86Pages@@QAEHPAUcb_s@@KKK@Z
                  1. 51 6442 007E 0000:?setProperties@VV86Pages@@QAEHPAUcb_s@@KKK@Z
                E4:
                  0FBE484185C9742A8B55E48B42398945F48B4DF4:
                    0. 02 2EAE 0097 0000:??1KResourceRequest@@QAE@XZ
                  8378:
                    0800750433C0EB798B4DE48B51088955F08B:
                      0. 73 8B29 0093 0000:?AssignmentsSize@KResourceRequest@@QAEKXZ
                    1100750733C0E9490100008B4DE48B55E48B:
                      0. 73 05A7 0168 0000:?_write@_fifocore@@IAEKPAXK@Z
              F88B450833C9668B481C81F98A160000740733C0E99B0000:
                0. 06 0B6A 00C2 0000:?test@VVendorExtension@@IAEHPATtagCLIENT_STRUC@@@Z
            8D45F0508D4DF4518B55108B420850E8........83C40C8945EC:
              0. 18 88E9 008A 0000:_ZwOpenKey@12
          20:
            5356578B451483E0088945F88B4D1483E110894DF0837D080075:
              0. 68 F871 0118 0000:?_vector_delete_@@YAPAXPAXIII0@Z
            578B450833C9668B08D1E983C10166894DF48B55F481E2FFFF00:
              0. 03 CD4D 016D 0000:?ConvertNTPathTo95@@YAJPAU_UNICODE_STRING@@PAU_STRING@@PAK@Z
            894DE0:
              8B45E033C9668B48028B550881E2FFFF00008D04516689:
                0. 0F 7099 00B0 0000:?GrowMaxBy@KUstring@@QAEJGW4_POOL_TYPE@@@Z
              C745:
                E4000000008B45E0C70000000000837D0800740683:
                  0. C5 89B0 00E5 0000:?__construct@KResourceAssignment@@IAEXPAU_CM_RESOURCE_LIST@@0EK@Z
                E818000000C745EC000000008B45148945F48B4D08:
                  0. 3C D888 006C 0000:?OpenCreate@KFile@@QAEJPAU_UNICODE_STRING@@PAXKKKKKKPAT_LARGE_INTEGER@@@Z
            C745FC00000000C745F4000000008B450833C9668B08:
              894DEC8B:
                0. E9 EDDF 0109 0000:_RtlCompareString@12
              D1E9894D:
                0. FF F666 013B 0000:_RtlCompareUnicodeString@12
          24:
            535657B9........E8........8945F8837DF8007D1CB9:
              0. 00 0000 0240 0000:?Trace@KTrace@@QAAXW4TRACE_LEVEL@@PADZZ
            837D14027C06837D14247E0E8B4510C600008B4510E9:
              64010000:
                0. 52 4266 0188 0000:_INIT__ultoa64 (0115: C3)
              71010000:
                0. 8E 43C7 0195 0000:_INIT__ltoa64 (00E6: C3)
          28:
            5657894DE48B45E48B108B4DE4FF520C85C0750883C8FFE9:
              7B01:
                0. FF 82A7 01A5 0000:?read@VPipe@@UAEHPADH@Z
              8A01:
                0. FF 4800 01B4 0000:?write@VPipe@@UAEHPADH@Z
            5766C745F8000066C745FA20008D45D88945FCB90800000033C0:
              0. 12 F793 005C 0000:_RtlIntegerToUnicodeString@12
            894DE4C645FC008B4DE4E8........0FBEC085C074088B4DE4E8:
              0. 00 0000 0138 0000:?Initialize@KKernelSharedFifo@@QAEDKK@Z
          2C:
            5356576A006A0DE8........83C4088945D88B45D88945FC837D:
              0. 52 FD1D 012D 0000:_IoConnectInterrupt@44
            894DD4837D0C007406837D0C08760AB80D0000C0E9A100000066:
              0. 87 5CEA 00C6 0000:?AppendHex@KUstring@@QAEJKK@Z
          385657837D0C000F84CC000000837D24010F85C2000000668B4520:
            0. 3B DF0C 0342 0000:?FormatValueInformation@@YGJPAU_UNICODE_STRING@@W4_KEY_VALUE_INFORMATION_CLASS@@PAXKPAK2KK@Z
          405766C745D800008B450C83E00185C0750D8B4D0C81E100000080:
            0. FF 972C 03CA 0000:_ZwCreateFile@44
          445356578B45088B088B5004894DBC8955C06A4068190002006A00:
            0. 0C 2A4F 01A1 0000:?EnsureRegPathExists@@YAXPAU_UNICODE_STRING@@@Z
          4857:
            8B450C33C9668B08D1E9894DE46A018B55E483C20152E8:
              0. 00 0000 0226 0000:_ZwQueryValueKey@24
            C745:
              F4000000008B450C33C9668B08D1E983C10166894DF88B:
                0. 0A 36F5 01D5 0000:_ZwSetValueKey@24
              FC00010000C745E4000100006A016800010000E8:
                0. 00 0000 021B 0000:_ZwEnumerateValueKey@24
          685356576A016800010000E8........83C4088945B08B45B08945:
            0. 23 A545 0417 0000:_ZwEnumerateKey@24
          6C:
            53:
              568B75:
                08578BFE83C9FF33C06A00F2AEF7D151E8........8B:
                  0. 36 9C9D 00B0 0000:_PAGEABLE_i_remove (0059: 90) (REF 001B: _PAGEABLE__Allocate_Temp_V86_Data_Area)
                  1. 36 9C9D 00B0 0000:_DEBUG_i_remove (0059: 90) (REF 001B: _DEBUG__Allocate_Temp_V86_Data_Area)
                  2. 36 9C9D 00B0 0000:_LOCK_i_remove (0059: 90) (REF 001B: _LOCK__Allocate_Temp_V86_Data_Area)
                  3. 36 9C9D 00B0 0000:_STATIC_i_remove (0059: 90) (REF 001B: _STATIC__Allocate_Temp_V86_Data_Area)
                  4. 36 9C9D 00B0 0000:_INIT_i_remove (0059: 90) (REF 001B: _INIT__Allocate_Temp_V86_Data_Area)
                  5. 36 9C9D 0150 0000:_INIT_i_open (0059: C9) (REF 001B: _INIT__Allocate_Temp_V86_Data_Area)
                  6. 36 9C9D 0150 0000:_STATIC_i_open (0059: C9) (REF 001B: _STATIC__Allocate_Temp_V86_Data_Area)
                  7. 36 9C9D 0150 0000:_LOCK_i_open (0059: C9) (REF 001B: _LOCK__Allocate_Temp_V86_Data_Area)
                  8. 36 9C9D 0150 0000:_DEBUG_i_open (0059: C9) (REF 001B: _DEBUG__Allocate_Temp_V86_Data_Area)
                  9. 36 9C9D 0150 0000:_PAGEABLE_i_open (0059: C9) (REF 001B: _PAGEABLE__Allocate_Temp_V86_Data_Area)
                0C8BD957B91B0000008B43488D7D94F3A58B7020CD20:
                  0. 0C 72B2 00A0 0000:?handler@D2WPipeEvent@@UAEXPAUcb_s@@PATtagCLIENT_STRUC@@PAX@Z
              8B5D10:
                566A0053E8........8BF083C40885F675095E83C8FF:
                  0. 0B F078 0130 0000:_DEBUG_i_read (REF 000F: _DEBUG__Allocate_Temp_V86_Data_Area)
                  1. 0B F078 0130 0000:_STATIC_i_read (REF 000F: _STATIC__Allocate_Temp_V86_Data_Area)
                  2. 0B F078 0130 0000:_INIT_i_read (REF 000F: _INIT__Allocate_Temp_V86_Data_Area)
                  3. 0B F078 0130 0000:_LOCK_i_read (REF 000F: _LOCK__Allocate_Temp_V86_Data_Area)
                  4. 0B F078 0130 0000:_PAGEABLE_i_read (REF 000F: _PAGEABLE__Allocate_Temp_V86_Data_Area)
                6A008D430250E8........83C40889451085C0750883:
                  0. 28 8833 00A0 0000:_PAGEABLE_i_write (REF 0011: _PAGEABLE__Allocate_Temp_V86_Data_Area)
                  1. 28 8833 00A0 0000:_LOCK_i_write (REF 0011: _LOCK__Allocate_Temp_V86_Data_Area)
                  2. 28 8833 00A0 0000:_INIT_i_write (REF 0011: _INIT__Allocate_Temp_V86_Data_Area)
                  3. 28 8833 00A0 0000:_STATIC_i_write (REF 0011: _STATIC__Allocate_Temp_V86_Data_Area)
                  4. 28 8833 00A0 0000:_DEBUG_i_write (REF 0011: _DEBUG__Allocate_Temp_V86_Data_Area)
            5657E8........8B70088D459450E8........CD20820001008B:
              0. 29 C4E8 0090 0000:_DEBUG_i_lseek (REF 0009: _DEBUG_Get_Sys_VM_Handle@0)
              1. 29 C4E8 0090 0000:_STATIC_i_lseek (REF 0009: _STATIC_Get_Sys_VM_Handle@0)
              2. 29 C4E8 0090 0000:_INIT_i_lseek (REF 0009: _INIT_Get_Sys_VM_Handle@0)
              3. 29 C4E8 0090 0000:_LOCK_i_lseek (REF 0009: _LOCK_Get_Sys_VM_Handle@0)
              4. 29 C4E8 0090 0000:_PAGEABLE_i_lseek (REF 0009: _PAGEABLE_Get_Sys_VM_Handle@0)
            8D45945650E8........E8........8B7008CD208200010066C7:
              0. 11 494E 0060 0000:_DEBUG_i_close (REF 000C: _DEBUG_Save_Client_State@4)
              1. 11 494E 0060 0000:_STATIC_i_close (REF 000C: _STATIC_Save_Client_State@4)
              2. 11 494E 0060 0000:_INIT_i_close (REF 000C: _INIT_Save_Client_State@4)
              3. 11 494E 0060 0000:_LOCK_i_close (REF 000C: _LOCK_Save_Client_State@4)
              4. 11 494E 0060 0000:_PAGEABLE_i_close (REF 000C: _PAGEABLE_Save_Client_State@4)
          74535657:
            8D459050E8........E8........8B4808894DFCCD2082:
              0. 1C E1BB 0079 0000:_DEBUG_i_close (REF 000E: _DEBUG_Save_Client_State@4)
              1. 1C E1BB 0079 0000:_STATIC_i_close (REF 000E: _STATIC_Save_Client_State@4)
              2. 1C E1BB 0079 0000:_INIT_i_close (REF 000E: _INIT_Save_Client_State@4)
              3. 1C E1BB 0079 0000:_LOCK_i_close (REF 000E: _LOCK_Save_Client_State@4)
              4. 1C E1BB 0079 0000:_PAGEABLE_i_close (REF 000E: _PAGEABLE_Save_Client_State@4)
            E8........8B40088945FC8D4D9051E8........CD2082:
              0. 40 700E 00BB 0000:_DEBUG_i_lseek (REF 000A: _DEBUG_Get_Sys_VM_Handle@0)
              1. 40 700E 00BB 0000:_STATIC_i_lseek (REF 000A: _STATIC_Get_Sys_VM_Handle@0)
              2. 40 700E 00BB 0000:_INIT_i_lseek (REF 000A: _INIT_Get_Sys_VM_Handle@0)
              3. 40 700E 00BB 0000:_LOCK_i_lseek (REF 000A: _LOCK_Get_Sys_VM_Handle@0)
              4. 40 700E 00BB 0000:_PAGEABLE_i_lseek (REF 000A: _PAGEABLE_Get_Sys_VM_Handle@0)
          78535657:
            6A008B:
              451083C00250E8........83C40889458C837D8C:
                0. 2D EEC3 00C5 0000:_PAGEABLE_i_write (REF 0013: _PAGEABLE__Allocate_Temp_V86_Data_Area)
                1. 2D EEC3 00C5 0000:_LOCK_i_write (REF 0013: _LOCK__Allocate_Temp_V86_Data_Area)
                2. 2D EEC3 00C5 0000:_INIT_i_write (REF 0013: _INIT__Allocate_Temp_V86_Data_Area)
                3. 2D EEC3 00C5 0000:_STATIC_i_write (REF 0013: _STATIC__Allocate_Temp_V86_Data_Area)
                4. 2D EEC3 00C5 0000:_DEBUG_i_write (REF 0013: _DEBUG__Allocate_Temp_V86_Data_Area)
              7D0883C9FF33C0F2AEF7D151E8........83C408:
                0. 39 935B 00D6 0000:_PAGEABLE_i_remove (REF 0019: _PAGEABLE__Allocate_Temp_V86_Data_Area)
                1. 39 935B 00D6 0000:_DEBUG_i_remove (REF 0019: _DEBUG__Allocate_Temp_V86_Data_Area)
                2. 39 935B 00D6 0000:_LOCK_i_remove (REF 0019: _LOCK__Allocate_Temp_V86_Data_Area)
                3. 39 935B 00D6 0000:_STATIC_i_remove (REF 0019: _STATIC__Allocate_Temp_V86_Data_Area)
                4. 39 935B 00D6 0000:_INIT_i_remove (REF 0019: _INIT__Allocate_Temp_V86_Data_Area)
                5. 39 B4DD 01C4 0000:_INIT_i_open (REF 0019: _INIT__Allocate_Temp_V86_Data_Area)
                6. 39 B4DD 01C4 0000:_STATIC_i_open (REF 0019: _STATIC__Allocate_Temp_V86_Data_Area)
                7. 39 B4DD 01C4 0000:_LOCK_i_open (REF 0019: _LOCK__Allocate_Temp_V86_Data_Area)
                8. 39 B4DD 01C4 0000:_DEBUG_i_open (REF 0019: _DEBUG__Allocate_Temp_V86_Data_Area)
                9. 39 B4DD 01C4 0000:_PAGEABLE_i_open (REF 0019: _PAGEABLE__Allocate_Temp_V86_Data_Area)
            894D888B750CB91B0000008D7D94F3A58B45888B4848E8:
              0. 00 0000 00D6 0000:?handler@D2WPipeEvent@@UAEXPAUcb_s@@PATtagCLIENT_STRUC@@PAX@Z
          7C:
            5356576A008B451050E8........83C4088945F8837DF8007508:
              0. 0D C467 01B7 0000:_DEBUG_i_read (l)0199:$read_exit$36192 (REF 0010: _DEBUG__Allocate_Temp_V86_Data_Area)
              1. 0D C467 01B7 0000:_STATIC_i_read (l)0199:$read_exit$36192 (REF 0010: _STATIC__Allocate_Temp_V86_Data_Area)
              2. 0D C467 01B7 0000:_INIT_i_read (l)0199:$read_exit$36192 (REF 0010: _INIT__Allocate_Temp_V86_Data_Area)
              3. 0D C467 01B7 0000:_LOCK_i_read (l)0199:$read_exit$36185 (REF 0010: _LOCK__Allocate_Temp_V86_Data_Area)
              4. 0D C467 01B7 0000:_PAGEABLE_i_read (l)0199:$read_exit$36192 (REF 0010: _PAGEABLE__Allocate_Temp_V86_Data_Area)
            5657E8........894590A1........8945988B0D........894D:
              0. 03 86DC 00D9 0000:?Connect@KTrace@@KADXZ
      8A45:
        0850E8........83C4045DC20400:
          0. 00 0000 0013 0000:_KeLowerIrql@4
        0C50E8........83C4045DC20800:
          0. 00 0000 0013 0000:_KeReleaseSpinLock@8
      8B:
        45:
          08:
            0305........8B005DC3:
              0. 00 0000 0010 0000:?getVM@VVirtualMachine@@SAPAV1@PAUcb_s@@@Z
            0F:
              BE4034F7D81BC0405DC20400:
                0. 00 0000 0013 0000:_KeReadStateTimer@4
              BF480683E10285C9750433C0EB068B55088B420C5DC20800:
                0. 00 0000 001F 0000:_MmMapLockedPages@8
            25FF0F00008B4D0C8D9408FF0F0000C1EA0C8D04951C0000005D:
              0. 03 2EB7 0023 0000:_MmSizeOfMdl@8
            50:
              6A00E8........5DC3:
                0. 00 0000 0010 0000:?getAvailable@VPageBlock@@SAKPAK@Z
              8B4D0C51E8........5DC3:
                0. 00 0000 0012 0000:?forceDefaultOwner@VHardwareInt@@SAHHPAUcb_s@@@Z (REF 000C: _PAGEABLE_VPICD_Force_Default_Owner@8)
                1. 00 0000 0012 0000:?convertIntToIRQ@VHardwareInt@@SAJHPAUcb_s@@@Z (REF 000C: _LOCK_VPICD_Convert_Int_To_IRQ@8)
                2. 00 0000 0012 0000:?convertIRQToInt@VHardwareInt@@SAJHPAUcb_s@@@Z (REF 000C: _LOCK_VPICD_Convert_IRQ_To_Int@8)
                3. 00 0000 0012 0000:??2@YAPAXIW4_POOL_TYPE@@@Z (REF 000C: _ExAllocatePool@8)
              E8........:
                5DC3:
                  0. 00 0000 000E 0000:?enterGlobal@VMutex@@SAXK@Z
                83C404D1E05DC3:
                  0. 00 0000 0013 0000:?ustrsiz@@YAKPBG@Z
            538B5D14568B751085C075228B450C0FAFC6F6C310740383C004:
              0. 02 F6B7 00B0 0000:?_vector_new_@@YAPAXPAXIII0@Z
            81388B01FF6075060FB64004EB7081388B01FF20750433C0EB64:
              0. 7E 2E29 009E 0000:_getVTabOffset 0086:_resolveIndirect
              1. 7F D626 009F 0000:_getVTabOffset 0086:_resolveIndirect
            83:
              3800750E6A186A06E8........8B4D0889018B5508833A0075:
                0. 0C 4C16 0032 0000:?NewNode@VCallback@@KAPAUCallbackNode@@PAK@Z
              F803772FFF2485........CD20E2000100C705........0100:
                0. 06 E79C 0050 0000:_SetDebugOutput
            8B4D10890833C05DC20C00:
              0. 00 0000 0011 0000:_ZwOpenSection@12
            A3........:
              5DC3:
                0. 00 0000 000D 0000:_SetDebugOutput
              8B4D0C890D........5DC3:
                0. 00 0000 0016 0000:_SetDebugLevel
            C64004005DC3:
              0. 00 0000 000C 0000:??3VEvent@@SAXPAX@Z
            C74004000000008B4D088B550C89118B45085DC3:
              0. 00 0000 001A 0000:?UlongToPhysicalAddress@@YAAAT_LARGE_INTEGER@@AAT1@K@Z
          0C:
            33C9668B0885C974208B55088B450C668B0866890A8B550883C2:
              0. 19 22F0 0039 0000:?LOCK_ustrcpy@@YAXPAGPBG@Z
            50:
              8B4D08:
                51:
                  8B15........8B028B0D........FF50:
                    045DC20800:
                      0. 00 0000 0020 0000:__V86_API@8
                    085DC20800:
                      0. 00 0000 0020 0000:__PM_API@8
                  E8........:
                    5D:
                      C20C00:
                        0. 00 0000 0014 0000:_ExAllocatePoolWithTag@12
                      C3:
                        0. 00 0000 0012 0000:?unlockRegion@VDMAChannel@@SAHPAXK@Z
                    83C4:
                      048B55088D044250E8........83:
                        0. 07 C667 0027 0000:?ustrcat@@YAPBGPAGPBG@Z
                      085DC3:
                        0. 00 0000 0015 0000:??2VGlobalV86Area@@SAPAXIK@Z
                C1E90C51E8........5DC3:
                  0. 00 0000 0015 0000:?reserve@VDMABuffer@@SAXKPAX@Z
                E8........5DC20800:
                  0. 00 0000 0013 0000:_KeInitializeTimerEx@8
              E8........83C4048B4D086689018B55088B4508668B086689:
                0. 0F A6DF 002F 0000:_RtlInitUnicodeString@8
            C74004000000008B4D0CC701020000C0B8020000C05DC21400:
              0. 00 0000 001F 0000:_ZwSetInformationFile@20
          10508B4D0C51:
            6AFF8B550852E8........83C4105DC3:
              0. 00 0000 001B 0000:_DEBUG_vsprintf (REF 0012: _DEBUG__vsnprintf)
              1. 00 0000 001B 0000:_STATIC_vsprintf (REF 0012: _STATIC__vsnprintf)
              2. 00 0000 001B 0000:_INIT_vsprintf (REF 0012: _INIT__vsnprintf)
              3. 00 0000 001B 0000:_LOCK_vsprintf (REF 0012: _LOCK__vsnprintf)
              4. 00 0000 001B 0000:_PAGEABLE_vsprintf (REF 0012: _PAGEABLE__vsnprintf)
            8B:
              4D08E8........5DC20C00:
                0. 00 0000 0017 0000:_KeInitializeDpc@12
              550852E8........83C40C5DC3:
                0. 00 0000 0019 0000:_DEBUG_strtoul (REF 0010: _DEBUG_strtol)
                1. 00 0000 0019 0000:_STATIC_strtoul (REF 0010: _STATIC_strtol)
                2. 00 0000 0019 0000:_INIT_strtoul (REF 0010: _INIT_strtol)
                3. 00 0000 0019 0000:_LOCK_strtoul (REF 0010: _LOCK_strtol)
                4. 00 0000 0019 0000:_PAGEABLE_strtoul (REF 0010: _PAGEABLE_strtol)
          18:
            508B4D1C518B5514528A4510508B4D0C518B550852E8:
              0. 02 5F98 0022 0000:?lockRegion@VDMAChannel@@SAHPAXKKAAK1AAPAX@Z
            C6007F8B45145DC21800:
              0. 00 0000 0010 0000:_HalGetInterruptVector@24
          1C8B4D1089088B5514895004B0015DC21800:
            0. 00 0000 0017 0000:_HalTranslateBusAddress@24
          20508B451C508B4518508B4514508B4510508B450C508B450850E8:
            0. 00 0000 0420 0000:_TrFilterIndicateReceive@28 0030:_TrFilterDprIndicateReceive@28 0250:_TrFilterIndicateReceiveComplete@4 0260:_TrFilterDprIndicateReceiveComplete@4 02F0:_TrShouldAddressLoopBack@12
          24508B4520508B451C508B4518508B4514508B4510508B450C508B:
            0. 04 4DFA 02F0 0000:_EthFilterIndicateReceive@32 0030:_EthFilterDprIndicateReceive@32 01E0:_EthFilterIndicateReceiveComplete@4 01F0:_EthFilterDprIndicateReceiveComplete@4 0280:_EthShouldAddressLoopBack@8
          28508B4524508B4520508B451C508B4518508B4514508B4510508B:
            0. 08 324B 0450 0000:_FddiFilterIndicateReceive@36 0030:_FddiFilterDprIndicateReceive@36 02C0:_FddiFilterIndicateReceiveComplete@4 02D0:_FddiFilterDprIndicateReceiveComplete@4 0360:_FddiShouldAddressLoopBack@12
        6D08CD20C80001005DC20400:
          0. 00 0000 0010 0000:_INIT_Validate_Client_Ptr@4
      9C608B7508CD20C2000100619D5DC20400:
        0. 00 0000 0014 0000:_INIT_Out_Debug_String@4
      A1........535683E80057741348751B608B450850E8........615F5E:
        0. 09 67DC 0040 0000:_DebugString
      B8:
        010000005DC3:
          0. 00 0000 000A (!)0000:?
        080000005DC3:
          0. 00 0000 000A 0000:?ListEntryOffset@@YAKPAVKDPC@@@Z
      B9........E8........5DC3:
        0. 00 0000 000F 0000:? (REF 0004: ?dout@@3VVdbostream@@A)
      E8........:
        5DC3:
          0. 00 0000 000A 0000:?IsAppyTimeAvailable@VAppyTimeEvent@@KAHXZ (REF 0004: _LOCK__SHELL_QueryAppyTimeAvailable)
        8B4D0C88018A550852E8........83C4045DC20800:
          0. 00 0000 001D 0000:_KeRaiseIrql@8
      FF75:
        08CD20:
          5900010083C4048B4D0C89115DC20800:
            0. 00 0000 0018 0000:_INIT__PageGetAllocInfo@8
          5A00010083C4048B4D0C89115DC20800:
            0. 00 0000 0018 0000:_INIT__GetFreePageCount@8
        0CFF7508CD20:
          5800010083C4088B4D1089115DC20C00:
            0. 00 0000 001B 0000:_INIT__PageGetSizeAddr@12
          5C00010083C4088B4D1089115DC20C00:
            0. 00 0000 001B 0000:_INIT__GetVMPgCount@12
        10FF750CFF7508CD20:
          1300170083C40C8B4D1489115DC21000:
            0. 00 0000 001E 0000:_INIT__SHELL_LocalAllocEx@16
          5400010083C40C8B4D1489115DC21000:
            0. 00 0000 001E 0000:_INIT__PageReAllocate@16
        14FF7510FF750CFF7508CD20:
          410040008D6424108B4D1889018951:
            0. 03 B532 0023 0000:_INIT_UniToBCSPath
          420040008D6424108B4D1889018951:
            0. 03 B532 0023 0000:_INIT_BCSToUni
        18FF7514FF7510:
          CD207B00010083C40C8B4D0889118B4D0C89010B:
            0. 0C A426 002C 0000:_INIT__GetDescriptor@20
          FF750CFF7508CD20:
            400040008D6424148B4D1C89:
              0. 06 4115 0026 0000:_INIT_UniToBCS
            6200010083C4140BC0740A8B:
              0. 0D 7684 002D 0000:_INIT__LinMapIntoV86@24
            7800010083C4148B4D1C8911:
              0. 04 3446 0024 0000:_INIT__Allocate_LDT_Selector@24
        20FF751CFF7518FF7514FF7510CD207A00010083C4148B4D088901:
          0. 09 14F0 0029 0000:_INIT__BuildDescriptorDWORDs@28
        24FF7520FF751CFF7518FF7514FF7510FF750CFF7508CD20530001:
          0. 1D 78F6 003D 0000:_INIT__PageAllocate@40
56:
  57:
    6A2C8BF96A01E8........8BF033C03BF0750A5FB89A0000C05EC2:
      10008A:
        0. 3B 0E7C 0070 0000:?AddDma@KResourceRequest@@QAEJKKEE@Z
      14008A:
        0. 40 EB5E 0080 0000:?AddIrq@KResourceRequest@@QAEJKKEEG@Z
    8B:
      4C24148AC12403C1E9028B7424108B7C240CF3A58AC8F3A45F5E:
        C20C00:
          0. 3C 928E 005C 0000:_NdisMoveMemory@12 0020:_MoveOverlappedMemory@12
        C35657:
          0. 38 01A9 0058 0000:_NdisMoveMemory 001E:_NdisMoveOverlappedMemory
      7C240C:
        6A0057E8........8BF083C40885F6750E57FF15........83C4:
          0. 10 F7E5 0030 0000:??2@YAPAXI@Z
        85FF74288B35........85F6741E8B86C80000005057E8:
          0. 00 0000 0040 0000:?LookupPort@VCommPortDriver@@AAEPAVVCommPort@@PAD@Z
        8BF1:
          57:
            C706........897E04E8........894608A1........89:
              0. 10 558A 0030 0000:??0VVirtualMachine@@QAE@PAUcb_s@@@Z
            E8........:
              66890683C0026689460225FFFF0000D1E883:
                0. 0B BD23 0060 0000:??0KUstring@@QAE@PAGW4_POOL_TYPE@@@Z
              83C404663B4602771A66890625FFFF000050:
                0. 06 09E0 0040 0000:?Assign@KUstring@@QAEJPBG@Z
          85FF74058B4704EB0233C08B4C241C8B542418518B4C2418:
            0. 0D 54F4 0040 0000:?setRegion@VDMAChannel@@QAEXPAVVDMABuffer@@HPAXK1@Z
          8B4C24108BC725FFFF000066C7060000D1E8D1E05051E8:
            0. 00 0000 0050 0000:??0KUstring@@QAE@GW4_POOL_TYPE@@@Z
    E8........8B35........BF........85F67431394604740B8BFE8B3685:
      0. 16 2FA5 0050 0000:_End_PM_Vendor_Entry@0
  68........68........6A096A006A006A006A006A006A016A01E8:
    0. 07 87BA 0040 0000:?initEvents@VEvent@@SAHXZ
  6A006A006A008BF16A00E8........C706........C74610000000008BC65E:
    0. 10 FFF5 0030 0000:??0VSharedHardwareInt@@AAE@XZ
  8B:
    118B71088B4424088914068B7108894C06048B710803F08972048B510803:
      0. 10 0795 0030 0000:?_insertHead@_listcore@@QAEXPAX@Z
    4424088BF1578B4C24106A008D7E048906576A006A005150C70700000000:
      0. 01 3E9B 0040 0000:??0KEvent@@QAE@PAXK@Z
    4C24108B74240C:
      0FB7542408F3:
        666F5EC20C00:
          9090909090909090909090:
            0. 00 0000 0020 0000:_WRITE_PORT_BUFFER_USHORT@12
          ..:
            0. 00 0000 0015 0000:_WRITE_PORT_BUFFER_USHORT@12
        6E5EC20C00:
          909090909090909090909090:
            0. 00 0000 0020 0000:_WRITE_PORT_BUFFER_UCHAR@12
          ..:
            0. 00 0000 0014 0000:_WRITE_PORT_BUFFER_UCHAR@12
        6F5EC20C00:
          909090909090909090909090:
            0. 00 0000 0020 0000:_WRITE_PORT_BUFFER_ULONG@12
          ..:
            0. 00 0000 0014 0000:_WRITE_PORT_BUFFER_ULONG@12
      8B542408FCF36E5EC20C00568B4C24108B74240C8B5424:
        0. FF A987 013A 0000:_NdisRawWritePortBufferUchar@12 0014:_NdisRawWritePortBufferUshort@12 0029:_NdisRawWritePortBufferUlong@12 003D:_NdisRawReadPortBufferUchar@12 0051:_NdisRawReadPortBufferUshort@12 0066:_NdisRawReadPortBufferUlong@12 007A:_NdisInitializeWrapper@16 0080:_NdisTerminateWrapper@8 0086:_NdisRegisterMac@24 008C:_NdisDeregisterMac@8 0092:_NdisRegisterAdapter@24 0098:_NdisDeregisterAdapter@4 009E:_NdisCompleteOpenAdapter@12 00A4:_NdisCompleteCloseAdapter@8 00AA:_NdisCompleteSend@12 00B0:_NdisCompleteTransferData@16 00B6:_NdisCompleteReset@8 00BC:_NdisCompleteRequest@12 00C2:_NdisIndicateReceive@32 00C8:_NdisIndicateReceiveComplete@4 00CE:_NdisIndicateStatus@16 00D4:_NdisIndicateStatusComplete@4 00DA:_NdisCompleteQueryStatistics@12 00E0:_NdisReadMcaPosInformation@16 00E6:_NdisReadEisaSlotInformation@16 00EC:_NdisReadNetworkAddress@16 00F2:_NdisAllocateSharedMemory@20 00F8:_NdisFreeSharedMemory@20 00FE:_NdisReleaseAdapterResources@4 0104:_WrapperDelayBinding@4 010A:_WrapperResumeBinding@4 0110:_WrapperRemoveChildren@4 0116:_NdisImmediateReadPciSlotInformation@20 011C:_NdisImmediateWritePciSlotInformation@20 0122:_NdisReadPciSlotInformation@20 0128:_NdisWritePciSlotInformation@20 012E:_NdisPciAssignResources@20 0134:_WrapperQueryAdapterResources
    51048B71088B442408890C068B7108895406048B710803F089328B510803:
      0. 10 EF5C 0030 0000:?_insertTail@_listcore@@QAEXPAX@Z
    71048B06F6400617750650E8........8B066A0150E8........8BC885C9:
      0. 10 9A80 0030 0000:?MapToCurrentProcess@KKernelSharedFifo@@QAEPAXXZ
    7424:
      08:
        56E8........:
          83C40485C074268D442408C7442408000000005056:
            0. 01 3E9B 0050 0000:_ZwClose@4
          8BC65EC20400909090909090909090909090909090:
            0. 00 0000 0020 0000:??4VRegistryKey@@QAEPADPAD@Z
        57:
          8BFE83C9FF33C0F2AEF7D151E8........8BD083C40485D2741F:
            0. 30 B486 0050 0000:_PAGEABLE__strdup (REF 0013: _PAGEABLE_malloc)
            1. 30 B486 0050 0000:_LOCK__strdup (REF 0013: _LOCK_malloc)
            2. 30 B486 0050 0000:_INIT__strdup (REF 0013: _INIT_malloc)
            3. 30 B486 0050 0000:_STATIC__strdup (REF 0013: _STATIC_malloc)
            4. 30 B486 0050 0000:_DEBUG__strdup (REF 0013: _DEBUG_malloc)
          F686DC0000000174108B464085C0740950E8........83C4048B:
            0. 0D E6FB 0110 0000:?Setup@VCommPort@@MAAHPADK0K@Z
        833E00750B6A186A06E8........89068B065E85C07501C350E8:
          0. 00 0000 0030 0000:?NewNode@VCallback@@KAPAUCallbackNode@@PAK@Z
        85F674118B0650E8........56E8........83C4045EC204009090:
          0. 00 0000 0020 0000:_IoDisconnectInterrupt@4
        F646060274378B46188B56108B4E1403C28B560C25FF0F00006800:
          0. 13 2A97 0050 0000:_MmUnlockPages
      0C56E8........8B4C240C83C404897104668901668941025EC20800:
        0. 00 0000 0020 0000:_RtlInitUnicodeString@8
      1033C95785F676168B7C24108B44240C33D28A103BD7740840413BCE:
        0. 10 C5FA 0030 0000:_INIT_memchr
      1466C7461C00408B44240880E4BF66894610668B4C241066894E188B:
        0. 16 2A6C 0050 0000:_DEBUG___write_bin (REF 0036: _DEBUG_Exec_Int@4)
        1. 16 2A6C 0050 0000:_STATIC___write_bin (REF 0036: _STATIC_Exec_Int@4)
        2. 16 2A6C 0050 0000:_INIT___write_bin (REF 0036: _INIT_Exec_Int@4)
        3. 16 2A6C 0050 0000:_LOCK___write_bin (REF 0036: _LOCK_Exec_Int@4)
        4. 16 2A6C 0050 0000:_PAGEABLE___write_bin (REF 0036: _PAGEABLE_Exec_Int@4)
    F1:
      33:
        C08B4E0885C9740D51E8........C74608000000005EC39090909090:
          0. 00 0000 0020 0000:?Close@KFile@@QAEJXZ
        C9B8........51508D46045056E8........8B4E:
          3C:
            83C4106A005150:
              0. 01 3E9B 0030 0000:?schedule@VGlobalEvent@@QAEXXZ (REF 0021: _LOCK_Schedule_Global_Event@12)
              1. 01 3E9B 0030 0000:?call@VGlobalEvent@@QAEHXZ (REF 0021: _LOCK_Call_Global_Event@12)
            8B564083C4106A:
              0. 05 380E 0030 0000:?call@VVMEvent@@QAEHXZ (REF 0025: _LOCK_Call_VM_Event@16)
              1. 05 380E 0030 0000:?schedule@VVMEvent@@QAEXXZ (REF 0025: _LOCK_Schedule_VM_Event@16)
              2. 05 380E 0030 0000:?schedule@VThreadEvent@@QAEXXZ (REF 0012: _createThreadEventThunk)
          448B5640518B4E3C:
            0. 04 3071 0040 0000:?schedule@VAppyTimeEvent@@QAEHXZ
          488B563C83C4106A:
            0. 11 687D 0040 0000:?call@VPriorityVMEvent@@QAEHXZ
      57:
        33C08D9698000000B90C0000008BFAC706........8986CC00000089:
          0. 19 3D68 0070 0000:??0VCommPort@@QAE@PAD@Z
        68........8D46:
          0C5056E8........8D4E2C68........51568BF8E8:
            0. 00 0000 0050 0000:?hook@VPreChainV86Int@@QAEHXZ
          145056E8........8BF883C40C85FF75035F5EC3F6:
            0. 0D 80AA 0060 0000:?hook@VDeviceAPI@@QAEHXZ
        8B:
          06FF500C8BF885FF75035F5EC38B168D460E8D4E0C50518BCEFF52:
            0. 20 2B01 0040 0000:?hook@VInChainInt@@QAEHXZ
          46:
            048D7E0485C0742D833EFF750F50E8........83C404C7060000:
              0. 0D 6E6B 0070 0000:?Initialize@KEvent@@QAEXPAXK@Z
            1185C07405E8........8B:
              4424108B4C240C40894E0189460D0F:
                0. 09 7126 0070 0000:?_initialize@_fifocore@@IAEXKKW4_POOL_TYPE@@@Z
              4C240C8B442410894E010FAFC88B7C:
                0. 30 81B5 0050 0000:?_initialize@_fifocore@@IAEXKKPAX@Z
            1D85C07405E8........8B44241C8B7C24148B4C24108B54240C:
              0. 09 B5CB 0050 0000:?Initialize@KMemoryToProcessMap@@QAEJ_KKPAXD1W4_SECTION_INHERIT@@@Z
      668B06663B44240C732925FFFF0000578B7C240C508B46045057E8:
        0. 00 0000 0040 0000:?ToWstr@KUstring@@QAEJPAGG@Z
      68........8D46:
        085056E8........:
          83C40C6A0050E8........85C074:
            0. 20 90E1 0040 0000:?hook@VInvalidPageFault@@QAEHXZ
          8B4E0483C40C6A005051E8:
            0. 00 0000 0030 0000:?hook@VIOPort@@QAEHXZ
        0C5056E8........8B4E0483C40C6A005051E8:
          0. 00 0000 0040 0000:?hook@VDMAChannel@@QAEHXZ
        1A5056E8........8B4E168B561283C40C6A00518B4E:
          0. 13 8260 0050 0000:?hook@VHotKey@@QAEHXZ
      6A:
        0068........8D46085056E8........8B4E:
          1C83C40C506A0051E8:
            0. 00 0000 0040 0000:?Set@VGlobalTimeOut@@UAEHXZ (REF 001F: _LOCK_Set_Global_Time_Out@16)
            1. 00 0000 0040 0000:?Set@VAsyncTimeOut@@UAEHXZ (REF 001F: _LOCK_Set_Async_Time_Out@16)
          248B561C83C40C506A00:
            0. 03 F294 0040 0000:?Set@VVMTimeOut@@UAEHXZ (REF 0023: _LOCK_Set_VM_Time_Out@20)
            1. 03 F294 0040 0000:?Set@VThreadTimeOut@@UAEHXZ (REF 0023: _LOCK_Set_Thread_Time_Out@20)
        01C706........E8........8B762485F6740656E8........5EC390:
          0. 00 0000 0020 0000:??1KTIMER@@QAE@XZ
        02E8........C706........8BC65EC3909090909090909090909090:
          0. 00 0000 0020 0000:??0VNMIEvent@@QAE@XZ
        0CE8........83C40485C074188B4C24088B54240C894804895008FA:
          0. 10 9B98 0030 0000:?AddTerminationRoutine@VDevice@@QAEXP6AXKPAX@Z0@Z
        4CE8........83C40485C074198B4E24516A03568BC8E8........85:
          0. 06 58D5 0030 0000:?OnDataAvailable@VDosToWinPipe@@MAEXXZ
      803E00740F8B4611C6060050E8........83C404C74611000000005EC3:
        0. 00 0000 0020 0000:?Invalidate@_fifocore@@QAEXXZ
      833E00:
        7405E8........8B:
          4424088B08890E8B50048956048B4808894E:
            0. 20 A26E 0040 0000:?Initialize@KUnitizedName@@QAEXAAV1@@Z
          4C24108B5424088B44240C894E0C528BCE89:
            0. 07 1C1F 0030 0000:?Initialize@KUnitizedName@@QAEXPAU_UNICODE_STRING@@KK@Z
        7C4A837E0401750AC706180000C05EC21000837E10FF75168B46:
          0. 0D 7944 0060 0000:?_construct@KMemoryToProcessMap@@IAEXPAXK0W4_SECTION_INHERIT@@@Z
      85F6740EE8........56E8........83C4045EC3909090909090909090:
        0. 00 0000 0020 (!)0000:? (REF 0008: ??1VVirtualMachine@@QAE@XZ)
        1. 00 0000 0020 0000:?OnDestroyThread@VThread@@MAEXXZ (REF 0008: ??1VThread@@QAE@XZ)
      8A4618:
        84C074158B0685C0740F50E8........83C404C706000000005E:
          0. 10 FFF5 0030 0000:?Invalidate@KUnitizedName@@QAEXXZ
        C7461D0000000084C074248B4604C646180085C075198B461083:
          0. 0A 6FD7 0040 0000:?Invalidate@KMemoryToProcessMap@@QAEXXZ
      8B:
        0650E8........83C40433C985C00F94C189460C8BC15EC390909090:
          0. 00 0000 0020 0000:?flush@VRegistryKey@@QAEHXZ
        0D........85C9740A8B461485C0740350FFD18A462184C074108B76:
          0. 07 27D0 0030 0000:??1KTrace@@QAE@XZ
        46:
          04:
            85C074:
              05E8........8A4C241C8B54241083C8FF884E2B8B4C24:
                0. 40 296F 0060 0000:?Initialize@KInterrupt@@QAEXDKKDKD@Z
              0D50E8........C74604000000005EC390909090909090:
                0. 00 0000 0020 0000:?Disconnect@KInterrupt@@QAEXXZ
            A802742A85C074268D460950E8........8B1683C4048BCE5033:
              0. 20 27AE 0040 0000:?unhook@VFault@@UAEHXZ
          0C:
            83F80A740583F810755A578B7C240C33C0668B07D1E88946088D:
              0. 07 9FAF 0070 0000:?__construct@KUnitizedName@@IAEXPAU_UNICODE_STRING@@@Z
            85C074126A00508B460450E8........85C075025EC38B461085:
              0. 0B 3059 0040 0000:?unhook@VDeviceAPI@@QAEHXZ
          1085C0741450E8........C7461000000000B8010000005EC333C0:
            0. 10 FC67 0030 0000:?unhook@VHardwareInt@@UAEHXZ
          1185C075045EC208008B4E058B5609533BCA5576092BCA4933DB8B:
            0. 52 0632 00D0 0000:?_write@_fifocore@@IAEKPAXK@Z
          2085C074148B460850E8........85C07407C74620000000005EC3:
            0. 00 0000 0020 0000:?unhook@VDMAChannel@@QAEXXZ
          2485C0740650E8........6A00E8........8946248B442408C646:
            0. 10 4355 0030 0000:?Initialize@KTIMER@@QAEXW4_TIMER_TYPE@@@Z
        4C24:
          0C8D44240C8B16578B7C240C50515752E8........8B4C24108B:
            0. 20 5C17 0040 0000:?reallocate@VPageBlock@@QAEHKK@Z
          248B5424208D460457508B7C2410C700000000008B4424185650:
            0. 18 177E 0060 0000:??0VPageBlock@@QAE@KKKPAUcb_s@@KKKPAK@Z
        86C8000000C706........85C0740950E8........83C404F6442408:
          0. 05 E59C 0040 0000:??_GVCommPort@@UAEPAXI@Z
      B80100000084460874188D460C50E8........8B4E0483C4046A005051:
        0. 01 3E9B 0030 0000:?unhook@VPreChainV86Int@@QAEHXZ
      C706........A1........:
        50E8........83C40489460885C0741D8B08:
          0. 04 C976 00A0 0000:??0VProtModeCallback@@QAE@PAX@Z (REF 0005: ??_7VProtModeCallback@@6B@)
          1. 04 C976 00A0 0000:??0VV86Callback@@QAE@PAX@Z (REF 0005: ??_7VV86Callback@@6B@)
        85C07512E8........85C075098946048BC6:
          0. 0A 7382 0040 0000:??0VThread@@QAE@K@Z
      E8........C74615000000008BC65EC390909090909090909090909090:
        0. 00 0000 0020 0000:??0_isafefifo@@IAE@XZ
57:
  565333FF8B4424140BC07D14478B542410F7D8F7DA83D80089442414895424:
    0. 8A D488 00AA 0000:__alldiv
  8B:
    398B47108B4F183BC17254770A8B4F0C8B47143BC876488B57188B471453:
      0. 0D ECCC 0070 0000:?Peek@KKernelSharedFifo@@QAEKPAX@Z
    7C24:
      0C8B4C24100FB7542408F3:
        666D5FC20C00:
          9090909090909090909090:
            0. 00 0000 0020 0000:_READ_PORT_BUFFER_USHORT@12
          ..:
            0. 00 0000 0015 0000:_READ_PORT_BUFFER_USHORT@12
        6C5FC20C00:
          909090909090909090909090:
            0. 00 0000 0020 0000:_READ_PORT_BUFFER_UCHAR@12
          ..:
            0. 00 0000 0014 0000:_READ_PORT_BUFFER_UCHAR@12
        6D5FC20C00:
          909090909090909090909090:
            0. 00 0000 0020 0000:_READ_PORT_BUFFER_ULONG@12
          ..:
            0. 00 0000 0014 0000:_READ_PORT_BUFFER_ULONG@12
      1066817F1C8A16756753568B35........6A046A3CE8........8A10:
        0. 32 E6B1 0080 0000:_OnInt2F@12
    F9833F00744A568B770485F674298B0685C0741A8A4E0484C9740D50E8:
      0. 00 0000 0060 0000:?Invalidate@KKernelSharedFifo@@QAEXXZ
  CD20:
    080101008BC75FC3:
      0. 00 0000 000B 0000:_INIT_Get_Cur_Thread_Handle@0
    0A0101008BC75FC3:
      0. 00 0000 000B 0000:_INIT_Get_Sys_Thread_Handle@0
58598BD4505251CD202D0101008B44240859890424C3:
  0. 00 0000 0016 0000:_INIT__Debug_Printf_Service
668B:
  4424:
    04CD200F001500C20400:
      0. 00 0000 000E 0000:_INIT_DOSMGR_Alloc_Local_Sys_VM_Mem@4
    08668B54240466EFC20800:
      90:
        0. 00 0000 0010 0000:_WRITE_PORT_USHORT@8
      ..:
        0. 00 0000 000F 0000:_WRITE_PORT_USHORT@8
  4C24048B542408CD20:
    48000100C20800:
      0. 00 0000 0012 0000:_INIT_Simulate_Far_Call@8
    49000100C20800:
      0. 00 0000 0012 0000:_INIT_Simulate_Far_Jmp@8
    4C000100C20800:
      0. 00 0000 0012 0000:_INIT_Build_Int_Stack_Frame@8
  5424:
    04:
      66EDC20400:
        909090909090:
          0. 00 0000 0010 0000:_READ_PORT_USHORT@4
        ..:
          0. 00 0000 000A 0000:_READ_PORT_USHORT@4
      ECC20400:
        90909090909090:
          0. 00 0000 0010 0000:_READ_PORT_UCHAR@4
        ..:
          0. 00 0000 0009 0000:_READ_PORT_UCHAR@4
      EDC20400:
        90909090909090:
          0. 00 0000 0010 0000:_READ_PORT_ULONG@4
        ..:
          0. 00 0000 0009 0000:_READ_PORT_ULONG@4
    088BC1668B4C2404668948048B4C240C668950068B542410C700:
      0. 00 0000 0040 0000:??0VHardwareInt@@QAE@HKKPAX@Z
6A:
  00B9........E8........C705................C705........08000000:
    0. 10 FFF5 0030 0000:?
  0183C128E8........B801000000C3:
    0. 00 0000 0010 0000:?lock@VDosToWinPipe@@MAEHXZ
80:
  EB06FF25........505152555368000000805553B900000080FCE800000000:
    0. 26 4E3C 00AB 003D:_createFaultThunk 008B:_initFaultThunk 009E:_getFaultUnhookAddress
  F94073:
    1580F92073060F:
      A5C2D3E0C38BD033C080E11FD3E2C333C033D2C3:
        0. 00 0000 001F 0000:__allshl
      ADD0D3EAC38BC233D280E11FD3E8C333C033D2C3:
        0. 00 0000 001F 0000:__aullshr
    1680F92073060FADD0D3FAC38BC2C1FA1F80E11FD3F8C3C1FA1F8BC2:
      0. 01 EF04 0021 0000:__allshr
81EC:
  6C020000568BF15768........8D86E00000006A008D4C2410508DBE1002:
    0. 08 921E 02B0 0000:?InitPortFunctions@VCommPort@@AAEXXZ
  84000000568BF18D4C2420E8........68........8D4424245650E8:
    0. 00 0000 00F0 0000:?hook@VHardwareInt@@UAEHXZ
  88000000568BF18D4C2424E8........68........8D4424285650E8:
    0. 00 0000 00F0 0000:?hook@VHardwareInt@@UAEHXZ
  C8020000:
    568BF15768........8D86E90000006A008D4C2410508DBE5902:
      0. 08 921E 0330 0000:?InitPortFunctions@VCommPort@@AAEXXZ
    8B8424D4020000:
      535556578BBC24DC020000BD........508BCF:
        0. 10 BCBD 01A0 0000:?PortOpen@VCommPortDriver@@AAAPAU_PortData@@KPADPAUcb_s@@PAK@Z
      8B8C24CC0200005657BF........50897C240C:
        0. 0C 0242 0120 0000:?PortClose@VCommPortDriver@@AAAHKPAU_PortData@@@Z
  DC000000568BF18D4C2420E8........68........8D4424245650E8:
    0. 00 0000 00F0 0000:?hook@VSharedHardwareInt@@UAEHXZ
  E0000000568BF18D4C2424E8........68........8D4424285650E8:
    0. 00 0000 00F0 0000:?hook@VSharedHardwareInt@@UAEHXZ
83:
  390075098B410450E8........C390:
    0. 00 0000 0010 0000:??1VDMABuffer@@QAE@XZ
  C1:
    1C51E8........83C404C3909090:
      0. 00 0000 0010 0000:?lock@VPipe@@MAEHXZ
    28E9........9090909090909090:
      0. 00 0000 0010 0000:?unlock@VDosToWinPipe@@MAEXXZ
    2C:
      51E8........8B4C24088B54240C83C4046A00515250E8........C208:
        0. 10 C9DD 0030 0000:?enablePostChainHandler@VPreChainV86Int@@QAEXJPAX@Z
      E9........9090909090909090:
        0. 00 0000 0010 0000:?OnSpaceAvailable@VDosToWinPipe@@MAEXXZ
  E912E9:
    0. 00 0000 0008 0000:?setReturn@VPMVendorExtension@@WBC@AEXXZ (REF 0004: ?setReturn@VPMVendorExtension@@UAEXXZ)
  EC:
    08:
      53568BF133DB8B46043BC37417385E08740C50E8........83C404885E:
        0. 43 A433 00B0 0000:?Initialize@KUstring@@QAEXPADW4_POOL_TYPE@@@Z
      568BF1:
        578B06FF500C8B168BF88D44240C8D4C240850518BCEFF52088B:
          0. 40 88E1 0060 0000:?unhook@VInChainInt@@QAEHXZ
        833E007405E8........8B4424148B5424108B4C24188946048D:
          0. 0D 3403 0050 0000:?Initialize@KUnitizedName@@QAEXPBGKK@Z
        8B0685C074518B56088B4E044166C744240400008D04508D5424:
          0. 16 A2B3 0070 0000:?NextUnit@KUnitizedName@@QAEXXZ
      668B01668B542410568B74241066D1E8663BC28974240866C744240400:
        0. 1A A3CF 0060 0000:?ToPsz@KUstring@@QAEJPADG@Z
      8A442414538B5C2414565733FF668B3BD1EF84C074608D4701506A01E8:
        0. 00 0000 00A0 0000:_RtlUnicodeStringToAnsiString@12
      8B:
        44240C5355565733FF3BC7894C2414897C24108939744D8B288D7004:
          0. 60 3C22 0080 0000:?__construct@KResourceAssignment@@IAEXPAU_CM_RESOURCE_LIST@@EK@Z
        54240C:
          535533ED563BD557894C2414896C24108929745B8B4424203B:
            0. 60 D8AA 0080 0000:?__construct@KResourceAssignment@@IAEXPAU_CM_RESOURCE_LIST@@0EK@Z
          568BF1578BFA83C9FF33C08954240CF2AEF7D1498BFA66894C:
            0. 22 953C 0090 0000:??0KUstring@@QAE@PADW4_POOL_TYPE@@@Z
    0C:
      53558B6C241C5633F657668B7500D1EE8D5E01536A01E8........8BF8:
        0. 2D 3DD2 0190 0000:_ZwQueryValueKey@24
      8B442414:
        53555633F657A801897424107507A900000080740BA802751C:
          0. A3 B33A 02A0 0000:_ZwCreateFile@44
        568BF18B4C2414508D14098D4C24086603560252E8:
          0. 1A 08B0 0080 0000:?GrowMaxBy@KUstring@@QAEJGW4_POOL_TYPE@@@Z
    1053558B6C2420568B74243C5785ED0F84B600000083FE010F85AD000000:
      0. 32 CE55 0260 0000:?FormatValueInformation@@YGJPAU_UNICODE_STRING@@W4_KEY_VALUE_INFORMATION_CLASS@@PAXKPAK2KK@Z
    148B44241C535556668B3033ED66D1EE46578BDE81E3FFFF000053E8:
      0. 00 0000 01A0 0000:_ZwSetValueKey@24
    18:
      535556BE0001000057566A018974241C89742418E8........8BD885DB:
        0. 20 1AB9 0190 0000:_ZwEnumerateValueKey@24
      8B54242833C08954240C8B54241C895424088B54242050894424088944:
        0. 38 62CD 0070 0000:?OpenCreate@KFile@@QAEJPAU_UNICODE_STRING@@PAXKKKKKKPAT_LARGE_INTEGER@@@Z
    20:
      5355565768000100006A01E8........8BF833DB3BFB897C2410750F5F:
        0. 1F C3C0 0280 0000:_ZwEnumerateKey@24
      566A0D6A00E8........8BF085F6750CB89A0000C05E83C420C22C008B:
        0. 44 4FA5 00B0 0000:_IoConnectInterrupt@44
    28:
      568B742434578BF985F60F84AF00000083FE080F87A60000008B4C2434:
        0. 55 F10E 00D0 0000:?AppendHex@KUstring@@QAEJKK@Z
      8D4424085789442408B90800000033C08D7C240CF3AB8B4C24348B4424:
        0. 17 94A9 0070 0000:_RtlIntegerToUnicodeString@12
    408B4C2448C74424140000000085C9894C2418750783C8FF83C440C38B54:
      0. 64 5A8C 0790 0000:_PAGEABLE__vsnprintf (l)0321:$EmitNumber$36335 (l)05DF:$default_case$36506 (REF 0106: _PAGEABLE__CTAB)
      1. 64 5A8C 0790 0000:_LOCK__vsnprintf (l)0321:$EmitNumber$36328 (l)05DF:$default_case$36499 (REF 0106: _LOCK__CTAB)
      2. 64 5A8C 0790 0000:_INIT__vsnprintf (l)0321:$EmitNumber$36335 (l)05DF:$default_case$36506 (REF 0106: _INIT__CTAB)
      3. 64 5A8C 0790 0000:_STATIC__vsnprintf (l)0321:$EmitNumber$36335 (l)05DF:$default_case$36506 (REF 0106: _STATIC__CTAB)
      4. 64 5A8C 0790 0000:_DEBUG__vsnprintf (l)0321:$EmitNumber$36335 (l)05DF:$default_case$36506 (REF 0106: _DEBUG__CTAB)
    44568B74244C576A408B4E048B0633FF681900020057578D542418894C24:
      0. 0C AB76 0140 0000:?EnsureRegPathExists@@YAXPAU_UNICODE_STRING@@@Z
    5453558B6C24648D44246856894424108A4500578B7C2468C744241C0000:
      0. 21 E983 0710 0000:_PAGEABLE_sscanf (l)004C:$EatWhite$36240 (l)0075:$FormatSpec$36242 (l)0225:$scanChar$36275 (l)0260:$scanSet$36277 (l)0568:$storePC$36279 (l)057A:$storeCount$36281 (l)05C5:$Terminate$36234 (REF 00AB: _PAGEABLE_strtol)
      1. 21 E983 0710 0000:_LOCK_sscanf (l)004C:$EatWhite$36233 (l)0075:$FormatSpec$36235 (l)0225:$scanChar$36268 (l)0260:$scanSet$36270 (l)0568:$storePC$36272 (l)057A:$storeCount$36274 (l)05C5:$Terminate$36227 (REF 00AB: _LOCK_strtol)
      2. 21 E983 0710 0000:_INIT_sscanf (l)004C:$EatWhite$36240 (l)0075:$FormatSpec$36242 (l)0225:$scanChar$36275 (l)0260:$scanSet$36277 (l)0568:$storePC$36279 (l)057A:$storeCount$36281 (l)05C5:$Terminate$36234 (REF 00AB: _INIT_strtol)
      3. 21 E983 0710 0000:_STATIC_sscanf (l)004C:$EatWhite$36240 (l)0075:$FormatSpec$36242 (l)0225:$scanChar$36275 (l)0260:$scanSet$36277 (l)0568:$storePC$36279 (l)057A:$storeCount$36281 (l)05C5:$Terminate$36234 (REF 00AB: _STATIC_strtol)
      4. 21 E983 0710 0000:_DEBUG_sscanf (l)004C:$EatWhite$36240 (l)0075:$FormatSpec$36242 (l)0225:$scanChar$36275 (l)0260:$scanSet$36277 (l)0568:$storePC$36279 (l)057A:$storeCount$36281 (l)05C5:$Terminate$36234 (REF 00AB: _DEBUG_strtol)
    70535657E8........8BD0A1........8B0D........89442410A0:
      0. 00 0000 00D0 0000:?Connect@KTrace@@KADXZ
85F6741E57560FB70A8BFE8D7204FCF3A50FB74A025E2BC62BC183E804890431:
  0. 05 2863 0025 0000:__InitThunk
87:
  0C248BC1FC555753B90000008050E900000000558BEC56578B7D0CBE:
    0. 00 0000 004C 0014:_createTimeOutThunk
  1C24B900000080FC53E90000000090871C24B900000080FC53E90000000090:
    0. 3D C292 0130 0054:_createHWIThunk 00FC:_resolveOverride
8949048909C390909090909090909090:
  0. 00 0000 0010 0000:?_reset@_listcore@@QAEXXZ
8A:
  412B8B510E508A412A528B5126508A410D528A510C508B4108528B5122508B:
    0. 0F 2F6F 0040 0000:?Connect@KInterrupt@@QAEJP6GDPAUINTERRUPT_CONTEXT@@PAX@Z1@Z
  4424:
    04CD20:
      13000D000F93C083E001C20400:
        0. 00 0000 0013 0000:_INIT_VKD_Put_Byte@4
      BD000100C20400:
        0. 00 0000 000D 0000:_INIT_Set_System_Exit_Code@4
      C3000100C20400:
        0. 00 0000 000D 0000:_INIT_Out_Debug_Chr@4
      E3000100C20400:
        0. 00 0000 000D 0000:_INIT_Out_Mono_Chr@4
    08668B542404EEC20800:
      909090:
        0. 00 0000 0010 0000:_WRITE_PORT_UCHAR@8
      ..:
        0. 00 0000 000D 0000:_WRITE_PORT_UCHAR@8
    0C83EC0884C0565774648B74241833C0668B06D1E0506A01E8:
      0. 38 D567 00A0 0000:_RtlAnsiStringToUnicodeString@12
  5108B80100000084D0740E83C10C51E8........83C40433C0C39090909090:
    0. 00 0000 0020 0000:?unhook@VPreChainV86Int@@QAEHXZ
  5424088A742404CD20E5000100C20800:
    0. 00 0000 0011 0000:_INIT_Set_Mono_Cur_Pos@8
  5C24048A7C240833C0CD20E3000100C20800:
    0. 00 0000 0013 0000:_INIT_Out_Mono_Chr_Attrs@8
  642404:
    8A442408CD201C000100C20800:
      0. 00 0000 0011 0000:_INIT_Map_Flat@8
    CD2002008B048B4C24088911C20800:
      0. 00 0000 0013 0000:_INIT_VCache_GetSize@8
8B:
  01:
    3BC1:
      0F94C0C39090909090909090:
        0. 00 0000 0010 0000:?_isEmpty@_listcore@@QAEDXZ
      750333C0C32B4108C3909090:
        0. 00 0000 0010 0000:?_head@_listcore@@QAEPAXXZ
    50E8........:
      59C3909090909090:
        0. 00 0000 0010 0000:??1VMutex@@QAE@XZ (REF 0004: _PAGEABLE__DestroyMutex)
        1. 00 0000 0010 0000:?leave@VMutex@@QAEXXZ (REF 0004: _PAGEABLE__LeaveMutex)
        2. 00 0000 0010 0000:??1VRegistryKey@@QAE@XZ (REF 0004: _PAGEABLE__RegCloseKey)
        3. 00 0000 0010 0000:@ExReleaseFastMutex@4 (REF 0004: _LOCK__LeaveMutex)
      83C404C390909090:
        0. 00 0000 0010 0000:?owner@VMutex@@QAEKXZ
      C390909090909090:
        0. 00 0000 0010 0000:?signal@VSemaphore@@QAEXXZ (REF 0004: _LOCK_Signal_Semaphore@4)
        1. 00 0000 0010 0000:??1VSemaphore@@QAE@XZ (REF 0004: _PAGEABLE_Destroy_Semaphore@4)
        2. 00 0000 0010 0000:?signal_noSwitch@VSemaphore@@QAEXXZ (REF 0004: _LOCK_Signal_Semaphore_No_Switch@4)
    6A:
      0050E8........83C408C39090:
        0. 00 0000 0010 0000:??1VPageBlock@@QAE@XZ
      1450E8........83C408C39090:
        0. 00 0000 0010 0000:@ExAcquireFastMutex@4
    85C074:
      0650E8........C3909090:
        0. 00 0000 0010 0000:??1VList@@QAE@XZ
      0750E8........C333C0C3:
        0. 00 0000 0010 0000:?first@VList@@QAEPAXXZ (REF 0008: _LOCK_List_Get_First@4)
        1. 00 0000 0010 0000:?removeFirst@VList@@QAEPAXXZ (REF 0008: _LOCK_List_Remove_First@4)
      0A50E8........85C0750233C0C390909090909090909090909090:
        0. 00 0000 0020 0000:?newNode@VList@@QAEPAXXZ
      0B8B4C24045150E8........C20400909090909090909090909090:
        0. 00 0000 0020 0000:?attach@VList@@QAEXPAX@Z (REF 000D: _LOCK_List_Attach@8)
        1. 00 0000 0020 0000:?deleteNode@VList@@QAEXPAX@Z (REF 000D: _LOCK_List_Deallocate@8)
        2. 00 0000 0020 0000:?attachTail@VList@@QAEXPAX@Z (REF 000D: _LOCK_List_Attach_Tail@8)
      0E8B4C24045150E8........C2040033C0C2040090909090909090:
        0. 00 0000 0020 0000:?next@VList@@QAEPAXPAX@Z
      178B4C24045150E8........85C07408B801000000C2040033C0C2:
        0. 10 3A68 0030 0000:?remove@VList@@QAEHPAX@Z
    FF:
      500433C0C20C00909090909090:
        0. 00 0000 0010 0000:?handler@VProtModeCallback@@UAEHPAUcb_s@@PATtagCLIENT_STRUC@@PAX@Z
      60:
        04:
          0. 00 0000 0005 0000:??_9@$B3AE
        08:
          0. 00 0000 0005 0000:??_9@$B7AE
        0C:
          0. 00 0000 0005 0000:??_9@$BM@AE
        10:
          0. 00 0000 0005 0000:??_9@$BBA@AE
        14:
          0. 00 0000 0005 0000:??_9@$BBE@AE
        18:
          0. 00 0000 0005 0000:??_9@$BBI@AE
        1C:
          0. 00 0000 0005 0000:??_9@$BBM@AE
  0D........85C97418568BB1D400000085C974068B016A01FF1085F68BCE75:
    0. 10 F43B 0030 0000:?DeleteAllPorts@VCommPortDriver@@IAEXXZ
  41:
    04:
      3BC1750333C0C32B4108C39090:
        0. 00 0000 0010 0000:?_tail@_listcore@@QAEPAXXZ
      50E8........:
        B801000000C390:
          0. 00 0000 0010 0000:?unhook@VHotKey@@QAEHXZ
        C3909090909090:
          0. 00 0000 0010 0000:?globalDisable@VIOPort@@QAEXXZ (REF 0005: _PAGEABLE_Disable_Global_Trapping@4)
          1. 00 0000 0010 0000:?globalEnable@VIOPort@@QAEXXZ (REF 0005: _PAGEABLE_Enable_Global_Trapping@4)
          2. 00 0000 0010 0000:?unhook@VIOPort@@QAEHXZ (REF 0005: _PAGEABLE_Remove_IO_Handler@4)
      8B:
        4C24045051E8........C20400909090909090909090909090909090:
          0. 00 0000 0020 0000:?localEnable@VIOPort@@QAEXPAUcb_s@@@Z (REF 000A: _PAGEABLE_Enable_Local_Trapping@8)
          1. 00 0000 0020 0000:?localDisable@VIOPort@@QAEXPAUcb_s@@@Z (REF 000A: _PAGEABLE_Disable_Local_Trapping@8)
        54240481E200F0FFFF8B085152E8........C2040090909090909090:
          0. 00 0000 0020 0000:?Unmap@KKernelSharedFifo@@QAEXPAX@Z
      C701........8B0D........C7040800000000C3909090909090909090:
        0. 00 0000 0020 0000:??1VVirtualMachine@@QAE@XZ (REF 0005: ??_7VVirtualMachine@@6B@)
        1. 00 0000 0020 0000:??1VThread@@QAE@XZ (REF 0005: ??_7VThread@@6B@)
    05568B710933D23BC65E0F94C28AC2C39090909090909090909090909090:
      0. 00 0000 0020 0000:?_isEmpty@_fifocore@@IAEDXZ
    08:
      8B4C24045051E8........C20400909090909090909090909090909090:
        0. 00 0000 0020 0000:?getEISAMode@VDMAChannel@@QAEEK@Z (REF 000A: _LOCK_VDMAD_Get_EISA_Adr_Mode@8)
        1. 00 0000 0020 0000:?disableTranslation@VDMAChannel@@QAEHPAUcb_s@@@Z (REF 000A: _LOCK_VDMAD_Disable_Translation@8)
        2. 00 0000 0020 0000:?handler@VDMAChannel@@UAEXPAUcb_s@@@Z (REF 000A: _LOCK_VDMAD_Default_Handler@8)
      C701........8B0D........5051E8........C3909090909090909090:
        0. 00 0000 0020 0000:??1VProtModeCallback@@QAE@XZ (REF 0005: ??_7VProtModeCallback@@6B@)
        1. 00 0000 0020 0000:??1VV86Callback@@QAE@XZ (REF 0005: ??_7VV86Callback@@6B@)
    0E668B490C5051E8........C390:
      0. 00 0000 0010 0000:?chainToPrevious@VInChainInt@@QAEXXZ
    10:
      50E8........C3909090909090:
        0. 00 0000 0010 0000:?testPhysicalRequest@VHardwareInt@@QAEHXZ (REF 0005: _LOCK_VPICD_Test_Phys_Request@4)
        1. 00 0000 0010 0000:?sendPhysicalEOI@VHardwareInt@@QAEXXZ (REF 0005: _LOCK_VPICD_Phys_EOI@4)
        2. 00 0000 0010 0000:?physicalMask@VHardwareInt@@QAEXXZ (REF 0005: _LOCK_VPICD_Physically_Mask@4)
        3. 00 0000 0010 0000:?physicalUnmask@VHardwareInt@@QAEXXZ (REF 0005: _LOCK_VPICD_Physically_Unmask@4)
        4. 00 0000 0010 0000:?setAutoMask@VHardwareInt@@QAEXXZ (REF 0005: _LOCK_VPICD_Set_Auto_Masking@4)
      8B4C24045051E8........C20400909090909090909090909090909090:
        0. 00 0000 0020 0000:?assert@VHardwareInt@@QAEXPAUcb_s@@@Z (REF 000A: _LOCK_VPICD_Set_Int_Request@8)
        1. 00 0000 0020 0000:?deassert@VHardwareInt@@QAEXPAUcb_s@@@Z (REF 000A: _LOCK_VPICD_Clear_Int_Request@8)
        2. 00 0000 0020 0000:?getCompleteStatus@VHardwareInt@@QAEKPAUcb_s@@@Z (REF 000A: _LOCK_VPICD_Get_Complete_Status@8)
        3. 00 0000 0020 0000:?getStatus@VHardwareInt@@QAEKPAUcb_s@@@Z (REF 000A: _LOCK_VPICD_Get_Status@8)
    11:
      5685C0750433C05EC38B51058B71093BD6750433C05EC373068BC65E2B:
        0. 10 E436 0030 0000:?_numberOfItemsAvailableForRead@_fifocore@@IAEKXZ
      85C0750333C0C38B41058B51093BC276042BC248C38B490D2BCA8D4401:
        0. 10 F886 0030 0000:?_numberOfItemsAvailableForWrite@_fifocore@@IAEKXZ
    16C3909090909090909090909090:
      0. 00 0000 0010 (!)0000:?
    18C3909090909090909090909090:
      0. 00 0000 0010 0000:?lastError@VPipe@@UAEHXZ
    38:
      50E8........C3909090909090:
        0. 00 0000 0010 0000:?cancel@VPriorityVMEvent@@QAEXXZ (REF 0005: _LOCK_Cancel_Priority_VM_Event@4)
        1. 00 0000 0010 0000:?cancel@VGlobalEvent@@QAEXXZ (REF 0005: _LOCK_Cancel_Global_Event@4)
      8B49405051E8........C39090:
        0. 00 0000 0010 0000:?cancel@VVMEvent@@QAEXXZ (REF 0009: _LOCK_Cancel_VM_Event@8)
        1. 00 0000 0010 0000:?cancel@VThreadEvent@@QAEXXZ (REF 0009: _LOCK_Cancel_Thread_Event@8)
      C741380000000085C0740750E8........59C390909090909090909090:
        0. 00 0000 0020 0000:?cancel@VAppyTimeEvent@@QAEXXZ
  4424:
    04:
      33C9CD205C0101007203C2040033C0C20400:
        0. 00 0000 0016 0000:_INIT_Register_PEF_Provider@4
      50:
        6A00E8........:
          C2040090:
            0. 00 0000 0010 0000:?setValue@VRegistryKey@@QAEHPAD@Z
          C3909090:
            0. 00 0000 0010 0000:?getAvailable@VPageBlock@@SAKPAK@Z
        E8........:
          83C404D1E0C3:
            0. 00 0000 0010 0000:?ustrsiz@@YAKPBG@Z
          C39090909090:
            0. 00 0000 0010 0000:?enterGlobal@VMutex@@SAXK@Z (REF 0006: _PAGEABLE_Begin_Critical_Section@4)
            1. 00 0000 0010 0000:_DebugString (REF 0006: _LOCK_Out_Debug_String@4)
      5356578B0083C0048B48FC8B3083C00483C0048B78FC8A108B580483:
        0. 0E 080C 0040 0000:?_synchFind@_isafelist@@KADPAX@Z
      56:
        57:
          8A1084D2742F8B7C241084D28BCF74188BF02BF78A1184D2740E:
            0. 20 AF18 0040 0000:_INIT_strstr
          8B0083C0048B48FC8B1083C00483C0048B70FC8B385652E8:
            0. 00 0000 0030 0000:?_synchRead@_isafefifo@@KADPAX@Z (REF 001E: ?_read@_fifocore@@IAEKPAXK@Z)
            1. 00 0000 0030 0000:?_synchWrite@_isafefifo@@KADPAX@Z (REF 001E: ?_write@_fifocore@@IAEKPAXK@Z)
        8B:
          0083C0048B48FC8B:
            108B700483C00452E8........8906B0015E:
              0. 10 FFF5 0030 0000:?_synchNext@_isafelist@@KADPAX@Z (REF 0017: ?_next@_listcore@@QAEPAXPAX@Z)
              1. 10 FFF5 0030 0000:?_synchPrev@_isafelist@@KADPAX@Z (REF 0017: ?_prev@_listcore@@QAEPAXPAX@Z)
            30E8........:
              8806B0015EC3909090909090:
                0. 00 0000 0020 0000:?_synchIsEmpty@_isafefifo@@KADPAX@Z (REF 0010: ?_isEmpty@_fifocore@@IAEDXZ)
                1. 00 0000 0020 0000:?_synchIsEmpty@_isafelist@@KADPAX@Z (REF 0010: ?_isEmpty@_listcore@@QAEDXZ)
                2. 00 0000 0020 0000:?_synchIsFull@_isafefifo@@KADPAX@Z (REF 0010: ?_isFull@_fifocore@@IAEDXZ)
              8906B0015EC3909090909090:
                0. 00 0000 0020 0000:?_synchHead@_isafelist@@KADPAX@Z (REF 0010: ?_head@_listcore@@QAEPAXXZ)
                1. 00 0000 0020 0000:?_synchTail@_isafelist@@KADPAX@Z (REF 0010: ?_tail@_listcore@@QAEPAXXZ)
                2. 00 0000 0020 0000:?_synchRemoveHead@_isafelist@@KADPAX@Z (REF 0010: ?_removeHead@_listcore@@QAEPAXXZ)
                3. 00 0000 0020 0000:?_synchRemoveTail@_isafelist@@KADPAX@Z (REF 0010: ?_removeTail@_listcore@@QAEPAXXZ)
                4. 00 0000 0020 0000:?_synchCount@_isafelist@@KADPAX@Z (REF 0010: ?_count@_listcore@@QAEKXZ)
                5. 00 0000 0020 0000:?_synchNRead@_isafefifo@@KADPAX@Z (REF 0010: ?_numberOfItemsAvailableForRead@_fifocore@@IAEKXZ)
                6. 00 0000 0020 0000:?_synchNWrite@_isafefifo@@KADPAX@Z (REF 0010: ?_numberOfItemsAvailableForWrite@_fifocore@@IAEKXZ)
          74240C:
            3BF072188B4C2410578BD18BF8C1E902F3A58BCA83E103:
              0. 20 7E1C 0040 0000:_INIT_memmove
            578B7C241485C075185756E8........506A00E8:
              0. 00 0000 0080 0000:_MmCreateMdl@12
          F1:
            50:
              8B:
                0E51E8........83C40833D285C00F94C289460C8BC25E:
                  0. 10 CE9E 0030 0000:?removeSubkey@VRegistryKey@@QAEHPAD@Z (REF 000C: _PAGEABLE__RegDeleteKey)
                  1. 10 CE9E 0030 0000:?removeValue@VRegistryKey@@QAEHPAD@Z (REF 000C: _PAGEABLE__RegDeleteValue)
                4C241051E8........89068BC65EC20800909090909090:
                  0. 00 0000 0020 0000:??0VList@@QAE@KK@Z
              8D4E:
                1EE8........6A2F8BCEE8........C706........C7:
                  0. 02 622E 0030 0000:??0VPMVendorExtension@@QAE@PAD@Z
                40E8........6A2F8BCEE8........C706........8B:
                  0. 10 6747 0030 0000:??0VV86VendorExtension@@QAE@PAD@Z
              C706........894608E8........83C40489460485C0750D:
                0. 25 A019 0050 0000:??0VPipe@@QAE@K@Z
              E8........:
                6A018D4E28E8........6A008D4E2CE8:
                  0. 00 0000 0040 0000:??0VDosToWinPipe@@QAE@KKPAX@Z
                89068BC65EC204009090909090909090909090:
                  0. 00 0000 0020 0000:??0VSemaphore@@QAE@H@Z
                C7:
                  06........8BC65EC2040090909090909090:
                    0. 00 0000 0020 0000:??0VV86ModeFault@@QAE@H@Z (REF 000F: ??_7VV86ModeFault@@6B@)
                    1. 00 0000 0020 0000:??0VProtModeFault@@QAE@H@Z (REF 000F: ??_7VProtModeFault@@6B@)
                    2. 00 0000 0020 0000:??0VVMMFault@@QAE@H@Z (REF 000F: ??_7VVMMFault@@6B@)
                  460C000000008BC65EC20400909090909090:
                    0. 00 0000 0020 0000:??0_isafelist@@IAE@K@Z
            8B4C24108B0085C95674178B4C24105150E8........83C40C:
              0. 10 54CF 0040 0000:??0VRegistryKey@@QAE@AAV0@PADH@Z
      668B:
        00C20400:
          909090909090:
            0. 00 0000 0010 0000:_READ_REGISTER_USHORT@4
          ..:
            0. 00 0000 000A 0000:_READ_REGISTER_USHORT@4
        4C2408:
          668908C20800:
            90:
              0. 00 0000 0010 0000:_WRITE_REGISTER_USHORT@8
            ..:
              0. 00 0000 000F 0000:_WRITE_REGISTER_USHORT@8
          8B54240CCD20:
            43000100C20C00:
              0. 00 0000 0016 0000:_INIT_Set_V86_Int_Vector@12
            45000100C20C00:
              0. 00 0000 0016 0000:_INIT_Set_PM_Int_Vector@12
      68000000806A006A006A0150E8........83C414C204009090909090:
        0. 00 0000 0020 0000:_MmIsAddressValid@4
      6A:
        0050E8........:
          83C408:
            85C074162DFA030000F7D81BC0258CFEFF:
              0. 10 FB4C 0030 0000:_ZwDeleteKey@4
            C204009090909090909090909090909090:
              0. 00 0000 0020 0000:_ExFreePool@4
            C3:
              0. 00 0000 0010 0000:_DEBUG_free (REF 0008: _DEBUG__HeapFree)
              1. 00 0000 0010 0000:_PAGEABLE_malloc (REF 0008: _PAGEABLE__HeapAllocate)
              2. 00 0000 0010 0000:_STATIC_free (REF 0008: _STATIC__HeapFree)
              3. 00 0000 0010 0000:_LOCK_malloc (REF 0008: _LOCK__HeapAllocate)
              4. 00 0000 0010 0000:_INIT_free (REF 0008: _INIT__HeapFree)
              5. 00 0000 0010 0000:_INIT_malloc (REF 0008: _INIT__HeapAllocate)
              6. 00 0000 0010 0000:_LOCK_free (REF 0008: _LOCK__HeapFree)
              7. 00 0000 0010 0000:_STATIC_malloc (REF 0008: _STATIC__HeapAllocate)
              8. 00 0000 0010 0000:_PAGEABLE_free (REF 0008: _PAGEABLE__HeapFree)
              9. 00 0000 0010 0000:_DEBUG_malloc (REF 0008: _DEBUG__HeapAllocate)
          C2040090:
            0. 00 0000 0010 0000:_KeInitializeTimer@4
        010FAF44240C50E8........83C408C39090909090909090909090:
          0. 00 0000 0020 0000:_DEBUG_calloc (REF 000D: _DEBUG__HeapAllocate)
          1. 00 0000 0020 0000:_STATIC_calloc (REF 000D: _STATIC__HeapAllocate)
          2. 00 0000 0020 0000:_INIT_calloc (REF 000D: _INIT__HeapAllocate)
          3. 00 0000 0020 0000:_LOCK_calloc (REF 000D: _LOCK__HeapAllocate)
          4. 00 0000 0020 0000:_PAGEABLE_calloc (REF 000D: _PAGEABLE__HeapAllocate)
        046A2450518B490851E8........C2040090909090909090909090:
          0. 00 0000 0020 0000:?Query@KFile@@QAEJPAU_FILE_BASIC_INFORMATION@@@Z
        056A1650518B490851E8........C2040090909090909090909090:
          0. 00 0000 0020 0000:?Query@KFile@@QAEJPAU_FILE_STANDARD_INFORMATION@@@Z
        0E6A0850518B490851E8........C2040090909090909090909090:
          0. 00 0000 0020 0000:?Query@KFile@@QAEJPAU_FILE_POSITION_INFORMATION@@@Z
      83:
        C0E88A480C84C9740C81E1FF0000002BC183C004C333C0C3909090:
          0. 00 0000 0020 0000:?GetObjectName@@YAPAU_UNICODE_STRING@@PAX@Z
        E800741D48740533C0C208008B442408680002000050E8:
          0. 0E E9B9 0040 0000:_ExAllocatePool@8
      85C0:
        74:
          0750E8........C333C0C39090909090909090909090909090:
            0. 00 0000 0020 0000:?AllocFromList@VCallback@@KAPAUCallbackNode@@K@Z
          0B6A0050E8........83C408C3909090909090909090909090:
            0. 00 0000 0020 0000:??3@YAXPAX@Z
          0D8B006A0050E8........83C408C390909090909090909090:
            0. 00 0000 0020 (!)0000:?
          0F8B490803C88B118B49048911894A04C20400909090909090:
            0. 00 0000 0020 0000:?_remove@_listcore@@QAEPAXPAX@Z
        75:
          138B013BC1750533C0C204008B51082BC2C204008B51088B04:
            0. 10 5319 0030 0000:?_next@_listcore@@QAEPAXPAX@Z
          148B41043BC1750533C0C204008B51082BC2C204008B51088B:
            0. 10 8DE6 0030 0000:?_prev@_listcore@@QAEPAXPAX@Z
      89:
        410CC20400909090909090:
          0. 00 0000 0010 0000:?Initialize@_isafelist@@QAEXPAVKInterrupt@@@Z
        700889780C89581089680489208B0C2489481433C0C3:
          0. 00 0000 001B 0000:_INIT__setjmp
      8A:
        00C20400:
          90909090909090:
            0. 00 0000 0010 0000:_READ_REGISTER_UCHAR@4
          ..:
            0. 00 0000 0009 0000:_READ_REGISTER_UCHAR@4
        4C24088808C20800:
          909090:
            0. 00 0000 0010 0000:_WRITE_REGISTER_UCHAR@8
          ..:
            0. 00 0000 000D 0000:_WRITE_REGISTER_UCHAR@8
      8B:
        00:
          83C0048B:
            08518B48FCE8........B001C3909090909090909090:
              0. 00 0000 0020 0000:?_synchInsertHead@_isafelist@@KADPAX@Z (REF 0010: ?_insertHead@_listcore@@QAEXPAX@Z)
              1. 00 0000 0020 0000:?_synchInsertTail@_isafelist@@KADPAX@Z (REF 0010: ?_insertTail@_listcore@@QAEXPAX@Z)
              2. 00 0000 0020 0000:?_synchRemove@_isafelist@@KADPAX@Z (REF 0010: ?_remove@_listcore@@QAEPAXPAX@Z)
            48FC8B500483C004528B40FC50E8........B001C390:
              0. 00 0000 0020 0000:?_synchInsertBefore@_isafelist@@KADPAX@Z (REF 0018: ?_insertBefore@_listcore@@QAEXPAX0@Z)
              1. 00 0000 0020 0000:?_synchInsertAfter@_isafelist@@KADPAX@Z (REF 0018: ?_insertAfter@_listcore@@QAEXPAX0@Z)
          C20400:
            90909090909090:
              0. 00 0000 0010 0000:_READ_REGISTER_ULONG@4
            ..:
              0. 00 0000 0009 0000:_READ_REGISTER_ULONG@4
          FF60:
            0C:
              0. 00 0000 0009 0000:??_9@$BM@AA
            10:
              0. 00 0000 0009 0000:??_9@$BBA@AA
            14:
              0. 00 0000 0009 0000:??_9@$BBE@AA
            18:
              0. 00 0000 0009 0000:??_9@$BBI@AA
            1C:
              0. 00 0000 0009 0000:??_9@$BBM@AA
            20:
              0. 00 0000 0009 0000:??_9@$BCA@AA
            24:
              0. 00 0000 0009 0000:??_9@$BCE@AA
            28:
              0. 00 0000 0009 0000:??_9@$BCI@AA
            2C:
              0. 00 0000 0009 0000:??_9@$BCM@AA
            30:
              0. 00 0000 0009 0000:??_9@$BDA@AA
            34:
              0. 00 0000 0009 0000:??_9@$BDE@AA
            38:
              0. 00 0000 0009 0000:??_9@$BDI@AA
            3C:
              0. 00 0000 0009 0000:??_9@$BDM@AA
            40:
              0. 00 0000 0009 0000:??_9@$BEA@AA
            44:
              0. 00 0000 0009 0000:??_9@$BEE@AA
            48:
              0. 00 0000 0009 0000:??_9@$BEI@AA
            4C:
              0. 00 0000 0009 0000:??_9@$BEM@AA
            50:
              0. 00 0000 0009 0000:??_9@$BFA@AA
            54:
              0. 00 0000 0009 0000:??_9@$BFE@AA
            60:
              0. 00 0000 0009 0000:??_9@$BGA@AA
            64:
              0. 00 0000 0009 0000:??_9@$BGE@AA
            68:
              0. 00 0000 0009 0000:??_9@$BGI@AA
            6C:
              0. 00 0000 0009 0000:??_9@$BGM@AA
            70:
              0. 00 0000 0009 0000:??_9@$BHA@AA
        088B09E8........B001C3:
          0. 00 0000 0010 0000:?_synchReset@_isafelist@@KADPAX@Z (REF 0009: ?_reset@_listcore@@QAEXXZ)
          1. 00 0000 0010 0000:?_synchFlush@_isafefifo@@KADPAX@Z (REF 0009: ?_flush@_fifocore@@IAEXXZ)
        095051E8........:
          83C408C2040090909090909090909090909090:
            0. 00 0000 0020 0000:?enter@VMutex@@QAEXK@Z
          C20400:
            0. 00 0000 0010 0000:?wait@VSemaphore@@QAEXK@Z
        0D........:
          81EC000100003BC17C298B8C24080100008D54240051:
            0. 01 361F 0050 0000:_DebugEvent
          8B0401C39090:
            0. 00 0000 0010 0000:?getVM@VVirtualMachine@@SAPAV1@PAUcb_s@@@Z
        480451E8........59C20400909090909090909090909090909090:
          0. 00 0000 0020 (!)0000:?
        490485C051740D8B44240C50E8........C208008B4C240C51E8:
          0. 00 0000 0030 0000:?localEnable@VHotKey@@QAEXHPAUcb_s@@@Z
        4C2408:
          25FF0F00008D9408FF0F0000C1EA0C8D04951C000000C208:
            0. 10 C9DD 0030 0000:_MmSizeOfMdl@8
          5051E8........C3:
            0. 00 0000 0010 0000:?convertIntToIRQ@VHardwareInt@@SAJHPAUcb_s@@@Z (REF 000B: _LOCK_VPICD_Convert_Int_To_IRQ@8)
            1. 00 0000 0010 0000:?forceDefaultOwner@VHardwareInt@@SAHHPAUcb_s@@@Z (REF 000B: _PAGEABLE_VPICD_Force_Default_Owner@8)
            2. 00 0000 0010 0000:?convertIRQToInt@VHardwareInt@@SAJHPAUcb_s@@@Z (REF 000B: _LOCK_VPICD_Convert_IRQ_To_Int@8)
          8908C20800:
            909090:
              0. 00 0000 0010 0000:_WRITE_REGISTER_ULONG@8
            ..:
              0. 00 0000 000D 0000:_WRITE_REGISTER_ULONG@8
          8A54240CCD2001000C00720533C0C20C000C80C20C00:
            0. 00 0000 001E 0000:_INIT_VMD_Set_Mouse_Type@12
          8B54240C890833C989500489480889480CC20C0090909090:
            0. 00 0000 0020 0000:_KeInitializeDpc@12
          A3........890D........C3909090909090909090909090:
            0. 00 0000 0020 0000:_SetDebugLevel
          C74004000000008908C39090909090909090909090909090:
            0. 00 0000 0020 0000:?UlongToPhysicalAddress@@YAAAT_LARGE_INTEGER@@AAT1@K@Z
          CD20:
            0D000400C20800:
              0. 00 0000 0011 0000:_INIT_VDMAD_Reserve_Buffer_Space@8
            0E001000C20800:
              0. 00 0000 0011 0000:_INIT_IOSMapIORSToI24@8
            13000600C20800:
              0. 00 0000 0011 0000:_INIT_V86MMGR_SetAvailMapPgs@8
            1D0001008B44240C89088B44241089100F93C083E001:
              0. 03 7FEC 0023 0000:_INIT_Map_Lin_To_VM_Addr@16
            22000100C20800:
              0. 00 0000 0011 0000:_INIT_Claim_Critical_Section@8
            27000100C20800:
              0. 00 0000 0011 0000:_INIT_Wait_Semaphore@8
        5108:
          3BC2732E8B49048D542404C1E90C6A0003C1526A0150E8:
            0. 00 0000 0040 0000:?getPhysicalAddress@VPageBlock@@QAEKK@Z
          6A00508B41045250E8........83C410C20400909090909090:
            0. 00 0000 0020 0000:?assign@VV86Pages@@QAEHPAUcb_s@@@Z (REF 0010: _LOCK__Assign_Device_V86_Pages)
            1. 00 0000 0020 0000:?deassign@VV86Pages@@QAEHPAUcb_s@@@Z (REF 0010: _LOCK__DeAssign_Device_V86_Pages)
        542408:
          3BC256761B8B74241085F6762A8D0C302BD08A440AFF494E:
            0. 30 628D 0050 0000:_RtlMoveMemory@12
          53:
            56575552508B421C8B5A108B4A188B72048B3A8B6A088B:
              0. 2F 7965 004F 0000:_INIT__ExecVxDIntMustComplete@8
              1. 2F F97D 004F 0000:_INIT_Exec_VxD_Int@8
              2. 2F F97D 004F (!)0000:?
            8BD88BEACD20020020005BC20800:
              0. 00 0000 0017 0000:_INIT_Int13_Translate_VM_Int@8
          CD20:
            01000E000F93C083E001C20800:
              0. 00 0000 0017 0000:_INIT_VCD_Set_Port_Global@8
            0A000E000F93C083E001C20800:
              0. 00 0000 0017 0000:_INIT_VCD_Set_Port_Global_Special@8
            1B000400C20800:
              0. 00 0000 0011 0000:_INIT_VDMAD_Set_IO_Address@8
            20002B00C20800:
              0. 00 0000 0011 0000:_INIT_VCOMM_Map_Ring0DCB_To_Win32@8
            CE000100C20800:
              0. 00 0000 0011 0000:_INIT_Set_PM_Int_Type@8
      8D1400668B01663BD0760866C7010000C204002BC2668901C2040090:
        0. 00 0000 0020 0000:?ShortenBy@KUstring@@QAEXG@Z
      A3........C2040090909090:
        0. 00 0000 0010 0000:?DoAcquireRelease@VCommPortDriver@@IAEXH@Z
      C6400400C390909090909090:
        0. 00 0000 0010 0000:??3VEvent@@SAXPAX@Z
      CD20:
        02000D00C20400:
          0. 00 0000 000D 0000:_INIT_VKD_Remove_Hot_Key@4
        030005000F93C083E001C20400:
          0. 00 0000 0013 0000:_INIT_VTD_Begin_Min_Int_Period@4
        0400:
          0300C20400:
            0. 00 0000 000D 0000:_INIT_VPICD_Phys_EOI@4
          0500C20400:
            0. 00 0000 000D 0000:_INIT_VTD_End_Min_Int_Period@4
        05000E00C20400:
          0. 00 0000 000D 0000:_INIT_VCD_Free_Port@4
        0700:
          03000F93C083E001C20400:
            0. 00 0000 0013 0000:_INIT_VPICD_Test_Phys_Request@4
          0400C20400:
            0. 00 0000 000D 0000:_INIT_VDMAD_Mask_Channel@4
        08000300C20400:
          0. 00 0000 000D 0000:_INIT_VPICD_Physically_Mask@4
        0900:
          0300C20400:
            0. 00 0000 000D 0000:_INIT_VPICD_Physically_Unmask@4
          0E00730233C0C20400:
            0. 00 0000 0011 0000:_INIT_VCD_Find_COM_Index@4
        0A00:
          01000F93C083E001C20400:
            0. 00 0000 0013 0000:_INIT_Remove_V86_Break_Point@4
          0300C20400:
            0. 00 0000 000D 0000:_INIT_VPICD_Set_Auto_Masking@4
        0B0003008B44240889080F93C083E001C20800:
          0. 00 0000 0019 0000:_INIT_VPICD_Get_IRQ_Complete_Status@8
        0C001000C20400:
          0. 00 0000 000D 0000:_INIT_IOS_Signal_Semaphore_No_Switch@4
        0E002A00C3:
          0. 00 0000 000B 0000:_INIT__VWIN32_SetWin32Event
        0F002A00C3:
          0. 00 0000 000B 0000:_INIT__VWIN32_PulseWin32Event
        10002A00C3:
          0. 00 0000 000B 0000:_INIT__VWIN32_ResetWin32Event
        11000300C20400:
          0. 00 0000 000D 0000:_INIT_VPICD_Force_Default_Behavior@4
        120003000F93C083E001C20400:
          0. 00 0000 0013 0000:_INIT_VPICD_Auto_Mask_At_Inst_Swap@4
        13008B04C20400:
          0. 00 0000 000D 0000:_INIT_VCache_UseThisPage@4
        14002A00C3:
          0. 00 0000 000B 0000:_INIT__VWIN32_CloseVxDHandle
        1600:
          0300C20400:
            0. 00 0000 000D 0000:_INIT_VPICD_Get_Virtualization_Count@4
          0A00C20400:
            0. 00 0000 000D 0000:_INIT_VDD_Set_Sleep_Flag_Addr@4
        18000400C20400:
          0. 00 0000 000D 0000:_INIT_VDMAD_Phys_Mask_Channel@4
        1A0004000F93C083E001C20400:
          0. 00 0000 0013 0000:_INIT_VDMAD_Unvirtualize_Channel@4
        26000100C20400:
          0. 00 0000 000D 0000:_INIT_Destroy_Semaphore@4
        28000100C20400:
          0. 00 0000 000D 0000:_INIT_Signal_Semaphore@4
        31010100C20400:
          0. 00 0000 000D 0000:_INIT_Signal_Semaphore_No_Switch@4
        35000100C20400:
          0. 00 0000 000D 0000:_INIT_Set_Time_Slice_Granularity@4
        3A010100C20400:
          0. 00 0000 000D 0000:_INIT__ExecIntMustComplete@4
        420001008B4424086689088B44240C8910C20C00:
          0. 00 0000 001A 0000:_INIT_Get_V86_Int_Vector@12
        440001008B4424086689088B44240C89107408B801000000C20C:
          0. 06 C913 0026 0000:_INIT_Get_PM_Int_Vector@12
        46000100C20400:
          0. 00 0000 000D 0000:_INIT_Simulate_Int@4
        4B000100C20400:
          0. 00 0000 000D 0000:_INIT_Simulate_Far_Ret_N@4
        4D000100C20400:
          0. 00 0000 000D 0000:_INIT_Simulate_Push@4
        54010100C20400:
          0. 00 0000 000D 0000:_INIT_Exec_PM_Int@4
        61010100740433C0EB05B801000000C20400:
          0. 00 0000 0018 0000:_INIT_Time_Slice_Sleep@4
        650101000F93C083E001C20400:
          0. 00 0000 0013 0000:_INIT_Release_Inversion_Pri@4
        75000100C20400:
          0. 00 0000 000D 0000:_INIT_MMGR_SetNULPageAddr@4
        7A010100C20400:
          0. 00 0000 000D 0000:_INIT_Set_Boot_Flags@4
        84000100C20400:
          0. 00 0000 000D 0000:_INIT_Exec_Int@4
        8B010100C20400:
          0. 00 0000 000D 0000:_INIT_EnableDisable_Boot_Log@4
        CD0001008BC2C20400:
          0. 00 0000 000F 0000:_INIT_Get_PM_Int_Type@4
        D10001000F93C083E001C20400:
          0. 00 0000 0013 0000:_INIT_Test_DBCS_Lead_Byte@4
        DC000100740533C0C20400B801000000EBF6:
          0. 00 0000 0018 0000:_INIT_Get_Debug_Options@4
        E80001007203C2040033C0EBF9:
          0. 00 0000 0013 0000:_INIT_Locate_Byte_In_ROM@4
      F6400602750533C0C208008B400CC208009090909090909090909090:
        0. 00 0000 0020 0000:_MmMapLockedPages@8
    08:
      5356578B7C24106A008BDF8D7407FFC1EB0CC1EE0C2BF3465653E8:
        0. 00 0000 0050 0000:_MmUnmapIoSpace@8
      56:
        578BF150E8........8B4C240C8D7E10518BCFE8........8B:
          4604:
            0. 02 D3ED 0050 0000:??0VPMDPMIEntry@@QAE@PADPAX@Z
          5604:
            0. 04 6CB3 0040 0000:??0VV86DPMIEntry@@QAE@PADPAX@Z
        8B:
          742408:
            5056E8........83C4048D0C4651E8........83C4088B:
              0. 10 5308 0030 0000:?ustrcat@@YAPBGPAGPBG@Z
            575056E8........8BD08BFE83C9FF33C083C408F2AEF7:
              0. 10 0070 0030 0000:_DEBUG_strpbrk (REF 000D: _DEBUG_strcspn)
              1. 10 0070 0030 0000:_STATIC_strpbrk (REF 000D: _STATIC_strcspn)
              2. 10 0070 0030 0000:_INIT_strpbrk (REF 000D: _INIT_strcspn)
              3. 10 0070 0030 0000:_LOCK_strpbrk (REF 000D: _LOCK_strcspn)
              4. 10 0070 0030 0000:_PAGEABLE_strpbrk (REF 000D: _PAGEABLE_strcspn)
          F1:
            408B4C24085789460D0FAFC1894E018B4C24145051C60600C7:
              0. 15 576F 0070 0000:??0_fifocore@@IAE@KKW4_POOL_TYPE@@@Z
            50:
              8B4C240C:
                51:
                  8BCEC70600000000C7460400000000E8:
                    0. 00 0000 0030 0000:??0KKernelSharedFifo@@QAE@KKPAD@Z
                  E8........83C40889068BC65EC20800909090:
                    0. 00 0000 0020 0000:??0VMutex@@QAE@KK@Z
                8B:
                  16516A0052E8........83C41033C985C00F94:
                    0. 20 2F53 0040 0000:?firstSubkey@VRegistryKey@@QAEHPADK@Z
                    1. 10 55EF 0030 0000:?getValue@VRegistryKey@@QAEHPADPAK@Z
                  56048B06515250E8........8B4E0483C41041:
                    0. 20 EEEC 0040 0000:?nextSubkey@VRegistryKey@@QAEHPADK@Z
              8D4E0CE8........85C08D4EEE740A8B11FF1233C05EC20C:
                0. 02 0164 0030 0000:?handler@VPMVendorExtension@@UAEHPAUcb_s@@PATtagCLIENT_STRUC@@PAX@Z
              E8........8B4C24088BC6894E0C5EC20800909090909090:
                0. 00 0000 0020 0000:??0_isafelist@@IAE@PAVKInterrupt@@K@Z
            6A008B4C240C50518BCEE8........8B5424108BC68956155E:
              0. 10 BCCF 0030 0000:??0_isafefifo@@IAE@KKPAUINTERRUPT_CONTEXT@@@Z
            8B4C24088B1685C08D4424085051527407E8........EB05E8:
              0. 00 0000 0050 0000:?reconstruct@VRegistryKey@@QAEHPADH@Z
      668B542404EFC20800:
        909090:
          0. 00 0000 0010 0000:_WRITE_PORT_ULONG@8
        ..:
          0. 00 0000 000D 0000:_WRITE_PORT_ULONG@8
      6A00:
        50E8........:
          83C408C3:
            0. 00 0000 0010 (l)0000:?ReleaseEventHeap@@YAXKPAX@Z
          B801000000C20800909090909090909090909090:
            0. 00 0000 0020 0000:?_unhookProc@VNMIEvent@@EAEHHPAX@Z
        85C075108B44240850E8........83C40833C0C38B4C24085051:
          0. 01 3E9B 0030 0000:_PAGEABLE_realloc (REF 0010: _PAGEABLE__HeapFree)
          1. 01 3E9B 0030 0000:_LOCK_realloc (REF 0010: _LOCK__HeapFree)
          2. 01 3E9B 0030 0000:_INIT_realloc (REF 0010: _INIT__HeapFree)
          3. 01 3E9B 0030 0000:_STATIC_realloc (REF 0010: _STATIC__HeapFree)
          4. 01 3E9B 0030 0000:_DEBUG_realloc (REF 0010: _DEBUG__HeapFree)
      83:
        C14050E8........C20C00:
          0. 00 0000 0010 0000:?handler@VV86VendorExtension@@UAEHPAUcb_s@@PATtagCLIENT_STRUC@@K@Z
        EC088B542418568BF18B4C2418890633C089460C89461089461489:
          0. 19 D19A 0080 0000:??0KTrace@@QAE@PAU_UNICODE_STRING@@KW4TRACE_LEVEL@@W4BREAK_LEVEL@@0PAUINTERRUPT_CONTEXT@@@Z
          1. 1D D246 0060 0000:??0KTrace@@QAE@PADKW4TRACE_LEVEL@@W4BREAK_LEVEL@@PAU_UNICODE_STRING@@PAUINTERRUPT_CONTEXT@@@Z
      8B:
        49:
          048B542404505152E8........C2080090909090909090909090:
            0. 00 0000 0020 0000:?reflectToVM@VHotKey@@QAEXPAUcb_s@@K@Z
          088B542404:
            25FF000000505152E8........C208009090909090:
              0. 00 0000 0020 0000:?setEISAMode@VDMAChannel@@QAEXKE@Z
            505152E8........C2080090909090909090909090:
              0. 00 0000 0020 0000:?enableTranslation@VDMAChannel@@QAEHPAUcb_s@@AAH@Z
        4C24:
          04:
            50:
              51E8........:
                83C408C390909090909090909090909090:
                  0. 00 0000 0020 0000:??2VGlobalV86Area@@SAPAXIK@Z
                C20C009090909090909090909090909090:
                  0. 00 0000 0020 0000:_ExAllocatePoolWithTag@12
                C3:
                  0. 00 0000 0010 0000:?unlockRegion@VDMAChannel@@SAHPAXK@Z
              E8........C20800909090909090909090909090909090:
                0. 00 0000 0020 0000:_KeInitializeTimerEx@8
            6A005051E8........:
              8B54240C33C983F8FF0F95C189028B:
                0. 10 6D98 0030 0000:?_hookProc@VV86ModeFault@@EAEHHPAXPAPAX@Z (REF 000D: _PAGEABLE_Hook_V86_Fault@12)
                1. 10 6D98 0030 0000:?_hookProc@VProtModeFault@@EAEHHPAXPAPAX@Z (REF 000D: _PAGEABLE_Hook_PM_Fault@12)
                2. 10 6D98 0030 0000:?_hookProc@VVMMFault@@EAEHHPAXPAPAX@Z (REF 000D: _PAGEABLE_Hook_VMM_Fault@12)
              C20800909090909090909090909090:
                0. 00 0000 0020 0000:?_unhookProc@VProtModeFault@@EAEHHPAX@Z (REF 000D: _PAGEABLE_Unhook_PM_Fault@12)
                1. 00 0000 0020 0000:?_unhookProc@VV86ModeFault@@EAEHHPAX@Z (REF 000D: _PAGEABLE_Unhook_V86_Fault@12)
              F7D81BC0F7D8C20800909090909090:
                0. 00 0000 0020 0000:?_unhookProc@VVMMFault@@EAEHHPAX@Z
            81EC000100008D542400505152E8........81C40C010000:
              0. 10 FFF5 0030 0000:_AssertFailure
          100BC88B4C240C75098B442404F7E1C2100053F7E18BD88B44:
            0. 14 2503 0034 0000:__allmul
        542404:
          25FFFF0000508B41085250E8........C208009090909090:
            0. 00 0000 0020 0000:?setPhysicalState@VDMAChannel@@QAEXPAUcb_s@@G@Z
          508B:
            015250E8........C208009090909090909090909090:
              0. 00 0000 0020 0000:?insert@VList@@QAEXPAX0@Z
            41045250E8........C2080090909090909090909090:
              0. 00 0000 0020 0000:?_getVector@VInChainV86Int@@EAEXPAGPAK@Z (REF 000F: _PAGEABLE_Get_V86_Int_Vector@12)
              1. 00 0000 0020 0000:?_setVector@VInChainV86Int@@EAEXGK@Z (REF 000F: _PAGEABLE_Set_V86_Int_Vector@12)
              2. 00 0000 0020 0000:?_getVector@VInChainPMInt@@EAEXPAGPAK@Z (REF 000F: _PAGEABLE_Get_PM_Int_Vector@12)
              3. 00 0000 0020 0000:?_setVector@VInChainPMInt@@EAEXGK@Z (REF 000F: _PAGEABLE_Set_PM_Int_Vector@12)
          6A005083C10D5251E8........C208009090909090909090:
            0. 00 0000 0020 (!)0000:?
          83EC08568BF18B4C2418528946048D44240850C706000000:
            0. 09 DEBA 0050 0000:??0KUnitizedName@@QAE@PBGKK@Z
      C7400400000000C700020000C0B8020000C0C2140090909090909090:
        0. 00 0000 0020 0000:_ZwSetInformationFile@20
    0C:
      5355:
        56:
          85C0570F85C40000008B6C242085ED75588B35........85F6:
            0. 25 1349 00E0 0000:?DriverControl@VCommPortDriver@@AAAXKKKPAX0ZZ
          8B742410578BDE6A008D7406FFC1EB0CC1EE0C2BF346566800:
            0. 04 96DD 0090 0000:_MmMapIoSpace@16
        8B5C240C568B7424145733FF8D2C063BC7897C24188BCEC64500:
          0. 25 520A 00C0 0000:_PAGEABLE___write_text (REF 0045: _PAGEABLE___write_bin)
          1. 25 520A 00C0 0000:_LOCK___write_text (REF 0045: _LOCK___write_bin)
          2. 25 520A 00C0 0000:_INIT___write_text (REF 0045: _INIT___write_bin)
          3. 25 520A 00C0 0000:_STATIC___write_text (REF 0045: _STATIC___write_bin)
          4. 25 520A 00C0 0000:_DEBUG___write_text (REF 0045: _DEBUG___write_bin)
      56:
        578BF150E8........8B4C24108D7E10518BCFE8........8B4604:
          0. 02 D3ED 0060 0000:??0VPMDPMIEntry@@QAE@PAUtagPMCB@@PADPAX@Z
        85C075538B35........85F67449538B5C241C578B7C24108B066A:
          0. 14 AF56 0060 0000:?DriverControl@VCommPortDriver@@AAAXKKKPAX0ZZ
        8B:
          7424:
            08578B7C24108D0C008BD1C1E902F3A58BCA83E103F3A45F:
              0. 10 77FF 0030 0000:_READ_REGISTER_BUFFER_USHORT@12
            0C578B7C240C8D0C008BD1C1E902F3A58BCA83E103F3A45F:
              0. 10 77FF 0030 0000:_WRITE_REGISTER_BUFFER_USHORT@12
          F1:
            50E8........508BCEE8........8B4C240C8B542408C706:
              0. 00 0000 0030 0000:??0D2WPipeEvent@@QAE@PAVVDosToWinPipe@@HPAX@Z
            85C056741B8B4424108B4C240C5051E8........83C40C8946:
              0. 12 4642 0050 0000:??0VRegistryKey@@QAE@W4PredefinedRegistryKey@@PADH@Z
      85C075108B4424088B4C24045051E8........C38B5424088B442404:
        0. 03 2648 0030 0000:?unlockRegion@VDMAChannel@@SAHPAXKH@Z
      8B:
        4C24:
          045650E8........8BF085F675025EC38B0E56FF510C83C404:
            0. 07 D530 0050 0000:?PortClose@VCommPortDriver@@AAAHKPAU_PortData@@@Z
          08:
            6A0051C70000000000E8........B801000000C20C009090:
              0. 00 0000 0020 0000:?_hookProc@VNMIEvent@@EAEHHPAXPAPAX@Z
            8B5424045051:
              52E8........83C40CC39090909090909090:
                0. 00 0000 0020 0000:_DEBUG_strtoul (REF 0010: _DEBUG_strtol)
                1. 00 0000 0020 0000:_STATIC_strtoul (REF 0010: _STATIC_strtol)
                2. 00 0000 0020 0000:_INIT_strtoul (REF 0010: _INIT_strtol)
                3. 00 0000 0020 0000:_LOCK_strtoul (REF 0010: _LOCK_strtol)
                4. 00 0000 0020 0000:_PAGEABLE_strtoul (REF 0010: _PAGEABLE_strtol)
              6AFF52E8........83C410C3909090909090:
                0. 00 0000 0020 0000:_DEBUG_vsprintf (REF 0012: _DEBUG__vsnprintf)
                1. 00 0000 0020 0000:_STATIC_vsprintf (REF 0012: _STATIC__vsnprintf)
                2. 00 0000 0020 0000:_INIT_vsprintf (REF 0012: _INIT__vsnprintf)
                3. 00 0000 0020 0000:_LOCK_vsprintf (REF 0012: _LOCK__vsnprintf)
                4. 00 0000 0020 0000:_PAGEABLE_vsprintf (REF 0012: _PAGEABLE__vsnprintf)
        5424:
          04:
            568BF18B4C240C50:
              51528BCEE8........8B442414894615:
                0. 10 78E9 0030 0000:??0_isafefifo@@IAE@KKPAXPAUINTERRUPT_CONTEXT@@@Z
              8B06515250E8........83C41033C985:
                0. 10 BBB5 0030 0000:?getSubkeyValue@VRegistryKey@@QAEHPAD0PAK@Z
            8B09508B44240C525051E8........83C410C20C00909090:
              0. 00 0000 0020 0000:?lock@VPageBlock@@QAEHKKK@Z (REF 0013: _PAGEABLE__PageLock)
              1. 00 0000 0020 0000:?unlock@VPageBlock@@QAEHKKK@Z (REF 0013: _PAGEABLE__PageUnLock)
          086A00508B44240C5283C10D5051E8........C20C00909090:
            0. 00 0000 0020 (!)0000:?
          1056:
            578B79088D34103BF776075F33C05EC210008B79048B4C:
              0. 0F 076D 0040 0000:?mapPhys@VV86Pages@@QAEHKPAUcb_s@@KK@Z
            8BF18B4C240C50:
              518B4C24108D442418528B16505152E8:
                0. 00 0000 0040 0000:?getValue@VRegistryKey@@QAEHPADPAXPAKPAW4RegistryValueType@@@Z
              8B44240C518B0E526A005051E8:
                0. 00 0000 0040 0000:?setValue@VRegistryKey@@QAEHPADPAXKW4RegistryValueType@@@Z
        C84885C974218B5424088B4C2404568D7001668B026685C0740383:
          0. 10 3B3B 0030 0000:?ustrncpy@@YAXPAGPBGI@Z
    10:
      538B5C241055568B7424148BD057C1E81081E2FFFF00008BF88D2C1E:
        0. 2B 85E6 0060 0000:?setProperties@VV86Pages@@QAEHPAUcb_s@@KKK@Z
        1. 2B FE96 0060 0000:?setProperties@VV86Pages@@QAEHPAUcb_s@@KKK@Z
      568BF1578B4C2414508D7E4E5157E8........8B5424108B44240C57:
        0. 07 3954 0030 (!)0000:?
      83EC:
        0C83F802560F8C1801000083F8240F8F0F0100008B5424148B4C:
          0. 7C 6091 0140 0000:_INIT__ltoa64 (00A3: 90)
        1483F802550F8C1D01000083F8240F8F140100008B54241C8B6C:
          0. 50 69B2 0140 0000:_INIT__ultoa64 (00CF: 90)
      8B:
        4C240C5051FF742408FF742404CD20530101008D6424108BC140C2:
          0. 02 D69A 0022 0000:_INIT__CallRing3@16
        5424:
          04568BF18B4C240C6A00508B46085152566A006A006A0050E8:
            0. 00 0000 0040 0000:?Read@KFile@@QAEJPAEKPAKPAT_LARGE_INTEGER@@@Z (REF 0020: _ZwReadFile@36)
            1. 00 0000 0040 0000:?Write@KFile@@QAEJPAEKPAKPAT_LARGE_INTEGER@@@Z (REF 0020: _ZwWriteFile@36)
          08:
            508B442410528B54240C508B41045250E8........C21000:
              0. 00 0000 0020 0000:?copyFrom@VDMABuffer@@QAEHPAXKKAAK@Z (REF 0019: _LOCK_VDMAD_Copy_From_Buffer@20)
              1. 00 0000 0020 0000:?copyTo@VDMABuffer@@QAEHPAXKKAAK@Z (REF 0019: _LOCK_VDMAD_Copy_To_Buffer@20)
            568BF18B4C241050:
              518B4E088D44241C525051E8:
                0. 20 AC76 0040 0000:?getRegion@VDMAChannel@@QAEXAAPAVVDMABuffer@@AAHAAPAXAAK@Z
              8B44240C5152508BCEE8........C706:
                0. 00 0000 0030 0000:??0VSharedHardwareInt@@QAE@HKKPAX@Z
          0C8B490825FFFF0000508B44240C528B54240C505152E8:
            0. 00 0000 0030 0000:?setVirtualState@VDMAChannel@@QAEXPAUcb_s@@PAXKG@Z
          1456578B79088D34103BF776075F33C05EC214008B71048B4C:
            0. 16 F3B5 0050 0000:?map@VV86Pages@@QAEHPAVVPageBlock@@KPAUcb_s@@KK@Z
    14:
      5383C0FC83F80D0F879E00000033C98A88........FF248D:
        0. 54 FB0D 00F0 0000:_ZwQueryInformationFile@20
      568BF1578B4C2418508D7E4E5157E8........8B5424148B4424108B:
        0. 0C 932D 0040 (!)0000:?
      8B:
        4C24188B542410508B442410518B4C2410528B542410505152E8:
          0. 00 0000 0030 0000:?lockRegion@VDMAChannel@@SAHPAXKKAAK1AAPAX@Z
        5424:
          045356578B7C24188BF133DB8B4C241450575351528BCE895E:
            0. 05 6E10 0060 0000:??0KMemoryToProcessMap@@QAE@_KKPAXD1W4_SECTION_INHERIT@@@Z
          0C568BF18B4C241450518B4C24148D442420528B542414508B:
            0. 07 E60E 0050 0000:?firstValue@VRegistryKey@@QAEHPADPAKPAW4RegistryValueType@@PAX1@Z
            1. 09 E8B4 0050 0000:?nextValue@VRegistryKey@@QAEHPADPAKPAW4RegistryValueType@@PAX1@Z
      C6007F8B442410C218009090:
        0. 00 0000 0010 0000:_HalGetInterruptVector@24
    188B4C240C8B5424108908895004B001C2180090909090909090909090:
      0. 00 0000 0020 0000:_HalTranslateBusAddress@24
    20:
      56:
        5783F8:
          1C8BF1BF010000000F871B01000033C98A88........FF24:
            0. 01 95AF 0190 0000:?OnControlMessage@VDevice@@UAEKKKKKKKKK@Z
          368BF1BF010000000F872002000033C98A88........FF24:
            0. 01 95AF 02F0 0000:?OnControlMessage@VDevice@@UAEKKKKKKKKK@Z
        83C0FDBE0100000083F8:
          160F87D9000000FF2485........8B11FF:
            0. D8 9DE8 0160 0000:?OnControlMessage@VVirtualMachine@@UAEKKKKKKKKK@Z
          2C0F874801000033D28A90........FF24:
            0. 01 5C33 0200 0000:?OnControlMessage@VVirtualMachine@@UAEKKKKKKKKK@Z
      83C0E283F8037738FF2485........8B11FF5204B801000000C22000:
        0. 2C 201A 0060 0000:?OnControlMessage@VThread@@UAEKKKKKKKKK@Z
      85C074:
        6183F8FE745C8B108B44241C8D4C2420C74424200000000051:
          0. 0F 333C 0090 0000:_ZwReadFile@36
        6683F8FE746183F8FF745C8B108B44241C8D4C2420C7442420:
          0. 14 B45B 0090 0000:_ZwWriteFile@36
  4C24:
    04:
      33C0:
        66:
          3901740A83C102406683390075F6C390909090909090909090:
            0. 00 0000 0020 0000:?LOCK_ustrlen@@YAKPBG@Z
          8B1183C1026685D2740C668B114083C1026685D275F4C39090:
            0. 00 0000 0020 0000:_INIT_ustrlen
        8A513484D20F94C0C20400909090909090909090909090909090:
          0. 00 0000 0020 0000:_KeReadStateTimer@4
      56:
        33D233F68A013C2074043C09750341EBF38A013C2B750433F6EB07:
          0. 30 92EC 0050 0000:_INIT_atol
        576A008B41188B79108B711403C78BD08D791C81E2FF0F000057C1:
          0. 0F FC48 0060 0000:_MmBuildMdlForNonPagedPool@4
      81EC:
        000100008D8424080100008D5424005051688000000052E8:
          0. 00 0000 0040 0000:_DbgPrint
        800000008D8424880000008D5424005051688000000052E8:
          0. 00 0000 0040 0000:_PAGEABLE_nprintf (REF 001E: _PAGEABLE__vsnprintf)
          1. 00 0000 0040 0000:_LOCK_nprintf (REF 001E: _LOCK__vsnprintf)
          2. 00 0000 0040 0000:_INIT_nprintf (REF 001E: _INIT__vsnprintf)
          3. 00 0000 0040 0000:_STATIC_nprintf (REF 001E: _STATIC__vsnprintf)
          4. 00 0000 0040 0000:_DEBUG_nprintf (REF 001E: _DEBUG__vsnprintf)
      8B:
        4424:
          08:
            8B:
              54240C53565755528B5A108B72048B3A8B6A088B5214CD:
                0. 2C DB86 004C 0000:_INIT_Directed_Sys_Control@12
              71088B790C8B59108B69048B218B5114891424C3:
                0. 00 0000 001D 0000:_INIT_longjmp
            C1E90C5051E8........C390909090909090909090909090:
              0. 00 0000 0020 0000:?reserve@VDMABuffer@@SAXKPAX@Z
          0C:
            6A0081E1FFFF0000508D54240C518D4424185250E8:
              0. 00 0000 0050 0000:_DEBUG_MapPointerToFlat (REF 001D: _DEBUG__GetDescriptor@20)
              1. 00 0000 0050 0000:_STATIC_MapPointerToFlat (REF 001D: _STATIC__GetDescriptor@20)
              2. 00 0000 0050 0000:_INIT_MapPointerToFlat (REF 001D: _INIT__GetDescriptor@20)
              3. 00 0000 0050 0000:_LOCK_MapPointerToFlat (REF 001D: _LOCK__GetDescriptor@20)
              4. 00 0000 0050 0000:_PAGEABLE_MapPointerToFlat (REF 001D: _PAGEABLE__GetDescriptor@20)
            890133C0C20C0090:
              0. 00 0000 0010 0000:_ZwOpenSection@12
        5424085355565733C033FF668B01668B3A33F63BC7897C24188BD8:
          0. 70 80B1 0090 0000:_RtlCompareString@12
      A1........890D........C3:
        0. 00 0000 0010 0000:?_set_new_handler@@YAP6AHI@ZP6AHI@Z@Z
      CD20:
        08000100C20400:
          0. 00 0000 000D 0000:_INIT_End_Reentrant_Execution@4
        0A0005008BC1C3:
          0. 00 0000 000D 0000:_INIT_VTD_Delay@4
        0F001000C20400:
          0. 00 0000 000D 0000:_INIT_IOSMapIORSToI21@4
        1F000100C20400:
          0. 00 0000 000D 0000:_INIT_Begin_Critical_Section@4
        23000100C20400:
          0. 00 0000 000D 0000:_INIT_Release_Critical_Section@4
        250001007203C2040033C0EBF9:
          0. 00 0000 0013 0000:_INIT_Create_Semaphore@4
        3C010100C20400:
          0. 00 0000 000D 0000:_INIT_Begin_V86_Serialization@4
        87000100C20400:
          0. 00 0000 000D 0000:_INIT_Allocate_PM_App_CB_Area@4
        C0000100C20400:
          0. 00 0000 000D 0000:_INIT_Update_System_Clock@4
      E8........C2140090909090:
        0. 00 0000 0010 0000:_KeWaitForSingleObject@20
    088B5424048D44240C50516AFF52E8........83C410C3909090909090:
      0. 00 0000 0020 0000:_PAGEABLE_sprintf (REF 0012: _PAGEABLE__vsnprintf)
      1. 00 0000 0020 0000:_LOCK_sprintf (REF 0012: _LOCK__vsnprintf)
      2. 00 0000 0020 0000:_INIT_sprintf (REF 0012: _INIT__vsnprintf)
      3. 00 0000 0020 0000:_STATIC_sprintf (REF 0012: _STATIC__vsnprintf)
      4. 00 0000 0020 0000:_DEBUG_sprintf (REF 0012: _DEBUG__vsnprintf)
    0C:
      568B7424:
        08:
          578B7C2410F3A55F5EC20C009090909090909090909090:
            0. 00 0000 0020 0000:_READ_REGISTER_BUFFER_ULONG@12
          8BC1578B7C2410C1E902F3A58BC883E103F3A45F5EC20C:
            0. 10 C9DD 0030 0000:_READ_REGISTER_BUFFER_UCHAR@12
        0C:
          578B7C240CF3A55F5EC20C009090909090909090909090:
            0. 00 0000 0020 0000:_WRITE_REGISTER_BUFFER_ULONG@12
          8BC1578B7C240CC1E902F3A58BC883E103F3A45F5EC20C:
            0. 10 C9DD 0030 0000:_WRITE_REGISTER_BUFFER_UCHAR@12
      8B5424088D442410508B442408515250E8........83C410C3909090:
        0. 00 0000 0020 0000:_DEBUG__snprintf (REF 0015: _DEBUG__vsnprintf)
        1. 00 0000 0020 0000:_STATIC__snprintf (REF 0015: _STATIC__vsnprintf)
        2. 00 0000 0020 0000:_INIT__snprintf (REF 0015: _INIT__vsnprintf)
        3. 00 0000 0020 0000:_LOCK__snprintf (REF 0015: _LOCK__vsnprintf)
        4. 00 0000 0020 0000:_PAGEABLE__snprintf (REF 0015: _PAGEABLE__vsnprintf)
  51:
    058B4109568BF22BF083FE015E740D8B490D2BC2493BC1740333C0C3B801:
      0. 10 2727 0030 0000:?_isFull@_fifocore@@IAEDXZ
    0885D2750333C0C38B0A8D420485C97618568BF18D48108B400C85C07605:
      0. 10 B498 0030 0000:?AssignmentsSize@KResourceRequest@@QAEKXZ
  5424:
    04:
      5356:
        578BFA83C9FF33C08B5C2414F2AEF7D1498BF1565352E8:
          0. 00 0000 0060 0000:?RemovePathPrefixIfMatch@@YAHPAD0@Z
        8B742410668B02668B0E8D1C01663B5A02760A5EB8230000C05B:
          0. 30 F891 0050 0000:_RtlAppendUnicodeStringToString@8
      568B74240C57:
        668B4202668B0E663BC173028BC88B76048B7A0481E1:
          0. 20 F9B4 0040 (!)0000:?
        8B79088D04323BC776075F33C05EC20C008B41048B4C:
          0. 0D 9CAB 0040 0000:?discard@VPageBlock@@QAEHKKK@Z
      668B02663B4102771B6689018B490425FFFF0000508B42045051E8:
        0. 00 0000 0030 0000:?Assign@KUstring@@QAEJAAV1@@Z
      8B:
        442408:
          568BF18B4C241052894E0C8BCEC70600000000894604C646:
            0. 03 05F7 0030 0000:??0KUnitizedName@@QAE@PAU_UNICODE_STRING@@KK@Z
          CD20:
            01002700720E8B4C240C89118B4C2410890133C0C210:
              0. 01 78F0 0021 0000:_INIT_VXDLDR_LoadDevice@16
            64010100C20800:
              0. 00 0000 0011 0000:_INIT_Reset_Inversion_Pri@8
        4C2408:
          8B44240CCD2030010100C20C00:
            0. 00 0000 0015 0000:_INIT_Simulate_VM_IO@12
          CD20AE0001008B4C240C8911C20C00:
            0. 00 0000 0017 0000:_INIT_Convert_Fixed_Point_String@12
      CD20:
        03002700720233C0C20400:
          0. 00 0000 0011 0000:_INIT_VXDLDR_DevInitSucceeded@4
        04002700720233C0C20400:
          0. 00 0000 0011 0000:_INIT_VXDLDR_DevInitFailed@4
        09002A008BC27203C2040033C0C20400:
          0. 00 0000 0016 0000:_INIT_VWIN32_EnterCrstR0@4
        0A002A00C20400:
          0. 00 0000 000D 0000:_INIT_VWIN32_LeaveCrstR0@4
        160101000F93C083E001C20400:
          0. 00 0000 0013 0000:_INIT_Remove_IO_Handler@4
        350040008B54240889020F93C083E001C20800:
          0. 00 0000 0019 0000:_INIT_IFSMgr_Ring0GetDriveInfo@8
        97000100C20400:
          0. 00 0000 000D 0000:_INIT_Enable_Global_Trapping@4
        99000100C20400:
          0. 00 0000 000D 0000:_INIT_Disable_Global_Trapping@4
        AC0001008B4C24088911C20800:
          0. 00 0000 0013 0000:_INIT_Convert_Decimal_String@8
        B00001008B4C24088911C20800:
          0. 00 0000 0013 0000:_INIT_Convert_Hex_String@8
        B20001008B5424087212C7020100000085C07405B801000000C2:
          0. 0A E4A2 002A 0000:_INIT_Convert_Boolean_String@8
    08:
      568BF1:
        568D46088D4E04508B442410515250E8........85C07406C7:
          0. 10 6235 0030 0000:??0VDMABuffer@@QAE@PAXK@Z
        578BFA83C9FF33C0F2AE8B44240CF7D1518B0E526A015051E8:
          0. 00 0000 0040 0000:?setSubkeyValue@VRegistryKey@@QAEHPAD0@Z
      578BFA83C9FF33C0F2AE8B4424085FF7D14989500466890866894802:
        0. 10 05E7 0030 0000:_RtlInitAnsiString@8
      668B026685C074198B4C240483C20266890183C102668B026685C075:
        0. 10 4CCA 0030 0000:?LOCK_ustrcpy@@YAXPAGPBG@Z
      83EC0885D275108B44240C50E8........83C408C208008B41085657:
        0. 40 1828 0060 0000:?_insertBefore@_listcore@@QAEXPAX0@Z
        1. 40 C37B 0060 0000:?_insertAfter@_listcore@@QAEXPAX0@Z
      8A44240CEEC3568B4C24148B7424108B54240CFCF36E5EC38B542408:
        0. FF F5F2 0146 0000:_NdisWritePortUchar 000A:_NdisWritePortBufferUchar 001C:_NdisWritePortUshort 0028:_NdisWritePortUlong 0034:_NdisWritePortBufferUlong 0048:_NdisReadPortUlong 0056:_NdisReadPortBufferUlong 006A:_NdisWritePortBufferUshort 007D:_NdisReadPortUchar 0089:_NdisReadPortBufferUchar 009B:_NdisReadPortUshort 00A9:_NdisReadPortBufferUshort 00BC:_NdisInitializeWrapper 00C2:_NdisTerminateWrapper 00C8:_NdisRegisterMac 00CE:_NdisDeregisterMac 00D4:_NdisRegisterAdapter 00DA:_NdisDeregisterAdapter 00E0:_NdisCompleteOpenAdapter 00E6:_NdisCompleteCloseAdapter 00EC:_NdisCompleteSend 00F2:_NdisCompleteTransferData 00F8:_NdisCompleteReset 00FE:_NdisCompleteRequest 0104:_NdisIndicateReceive 010A:_NdisIndicateReceiveComplete 0110:_NdisIndicateStatus 0116:_NdisIndicateStatusComplete 011C:_NdisCompleteQueryStatistics 0122:_NdisReadMcaPosInformation 0128:_NdisReadEisaSlotInformation 012E:_NdisReadNetworkAddress 0134:_NdisAllocateSharedMemory 013A:_NdisFreeSharedMemory 0140:_NdisReleaseAdapterResources
      8B:
        0D........528B5424088B0152FF50:
          04C208009090909090909090:
            0. 00 0000 0020 0000:__V86_API@8
          08C208009090909090909090:
            0. 00 0000 0020 0000:__PM_API@8
        442404CD201F002B00C20800:
          0. 00 0000 0011 0000:_INIT_VCOMM_Map_Win32DCB_To_Ring0@8
        C1:
          8A4C24048848088B4C240C8950098A54241089480D8B4C241488:
            0. 08 59DE 0040 0000:??0VHotKey@@QAE@EW4scanType_t@@KKPAXK@Z
          8B4C2404:
            8948:
              0433C9C700........89480C894810895008C208:
                0. 10 C9DD 0030 0000:??0VDeviceAPI@@QAE@KK@Z
              3C8B4C240CC700........895040894844C74038:
                0. 10 25BD 0030 0000:??0VAppyTimeEvent@@QAE@PAXKK@Z
            C700........8948:
              04895008C2080090909090909090:
                0. 00 0000 0020 0000:??0VV86Pages@@QAE@KK@Z
              4089503CC2080090909090909090:
                0. 00 0000 0020 0000:??0VVMEvent@@QAE@PAUcb_s@@PAX@Z (REF 000C: ??_7VVMEvent@@6B@)
                1. 00 0000 0020 0000:??0VThreadEvent@@QAE@KPAX@Z (REF 000C: ??_7VThreadEvent@@6B@)
    0C:
      83EC088D4424148D4C2400508B42085150E8........83C40C85C07C:
        0. 12 2B8F 00A0 0000:_ZwCreateKey@28
        1. 12 5468 0070 0000:_ZwOpenKey@12
      8BC18B4C24048948408B4C241089503C8B5424148948488B4C2408C7:
        0. 01 78F0 0030 0000:??0VPriorityVMEvent@@QAE@PAUcb_s@@KPAXKK@Z
      8D44240C508B41088B4C2408525051E8........8B542408668B4C24:
        0. 10 D066 0030 0000:?getVirtualState@VDMAChannel@@QAEXPAUcb_s@@AAPAXAAKAAG@Z
    10538A592B568B710E538A592A568B71268B44241C535688510D528A51:
      0. 19 D7A1 0050 0000:?Connect@KInterrupt@@QAEJP6GDPAUINTERRUPT_CONTEXT@@PAX@Z1PAKD@Z
  7424048B442408CD20BE000100:
    0. 00 0000 000E 0000:_INIT_Fatal_Error_Handler@8
  C1:
    33C9:
      880889480189480589480989480D894811C390909090909090909090:
        0. 00 0000 0020 0000:??0_fifocore@@IAE@XZ
      89088948:
        0489480889480CC6401801C3909090909090909090909090:
          0. 00 0000 0020 0000:??0KUnitizedName@@QAE@XZ
        1088481889481989481D894821C390909090909090909090:
          0. 00 0000 0020 0000:??0KMemoryToProcessMap@@QAE@XZ
    8B4C2404:
      85C9C700........7C1283F94F7F0D884808C7400401000000C2:
        0. 10 B4D8 0030 0000:??0VFault@@QAE@H@Z
      8948088940048900C20400909090909090909090909090909090:
        0. 00 0000 0020 0000:??0_listcore@@IAE@K@Z
      8B1189108B51048950048B51088950088B510C89500C8B511089:
        0. 10 76EA 0030 0000:??0KUnitizedName@@QAE@AAV0@@Z
      C700........8948:
        04:
          C204009090909090909090909090909090:
            0. 00 0000 0020 0000:??0VIOPort@@QAE@K@Z
          C740:
            0800000000C2040090909090909090:
              0. 00 0000 0020 0000:??0VInChainInt@@QAE@K@Z (REF 0008: ??_7VInChainInt@@6B@)
              1. 00 0000 0020 0000:??0VPreChainV86Int@@QAE@H@Z (REF 0008: ??_7VPreChainV86Int@@6B@)
            2000000000C2040090909090909090:
              0. 00 0000 0020 0000:??0VDMAChannel@@QAE@K@Z
        3CC204009090909090909090909090909090:
          0. 00 0000 0020 0000:??0VGlobalEvent@@QAE@PAX@Z
    C700:
      00000000C7400400000000C3:
        0. 00 0000 0010 0000:??0KKernelSharedFifo@@QAE@XZ
      ........C7401000000000C3:
        0. 00 0000 0010 0000:??0VHardwareInt@@AAE@XZ
  D133C08B4C24045688028942058942098B44240C894A010FAFC8578B7C2414:
    0. 20 3292 0040 0000:??0_fifocore@@IAE@KKPAX@Z
8D410868........5051E8........50E8........83C410C390909090909090:
  0. 00 0000 0020 0000:?Register@VCommPortDriver@@IAEHXZ
9CFA508B4424088D40F666C700CD20FF74240C8F4002C7400690909090894424:
  0. 06 9744 0026 0000:___vxdcallorjmp__@4
A1........:
  55:
    565785C00F859A0000008B44241468........506A00E8:
      0. 00 0000 0160 0000:_Set_PM_Vendor_Entry@8
    85C08BE9750BF64500017405E8........568B74240C85F67478:
      0. 1E E106 00D0 0000:?__construct@KTrace@@IAEXPAU_STRING@@PAU_UNICODE_STRING@@PAUINTERRUPT_CONTEXT@@@Z
  85C0:
    74:
      0533C0C208008B4C24088B44240468........516A00A3:
        0. 00 0000 0050 0000:_Set_V86_Vendor_Entry@8
      1483C00450E8........83C40485C0740483C0FCC333C0C3:
        0. 00 0000 0020 0000:??2VEvent@@SAPAXI@Z
      158B4C24048D50043BD1740C8B80D400000085C075EF33C0:
        0. 10 CE9E 0030 0000:?LookupPort@VCommPortDriver@@AAEPAVVCommPort@@PAU_PortData@@@Z
    7501C38B4C24048B0408C39090909090909090909090909090:
      0. 00 0000 0020 0000:?getThread@VThread@@SAPAV1@K@Z
  BA........85C0742D8B4C24043BC174138D90D40000008B80D400:
    0. 20 9E23 0040 0000:?DeletePort@VCommPortDriver@@IAEXPAVVCommPort@@@Z
B801000000:
  C2:
    04009090909090909090:
      0. 00 0000 0010 (!)0000:?
    08009090909090909090:
      0. 00 0000 0010 (!)0000:?
    0C009090909090909090:
      0. 00 0000 0010 0000:?OnSysCriticalInit@VDevice@@MAEHPAUcb_s@@PADPAX@Z
  C390909090909090909090:
    0. 00 0000 0010 (!)0000:?
B9010000008B542404CD20BC000100C20400:
  0. 00 0000 0012 0000:_INIT_Set_HMA_Info@4
BA........A1........894234EB245553E8........5B5DC35553E8:
  0. 0C 907D 0058 000F:_LocalPMhandler 0019:_LocalV86handler 0023:_LocalControlDispatcher
C2:
  040090909090909090909090909090:
    0. 00 0000 0010 (!)0000:?
  080090909090909090909090909090:
    0. 00 0000 0010 (!)0000:?
  0C0090909090909090909090909090:
    0. 00 0000 0010 (!)0000:?
  100090909090909090909090909090:
    0. 00 0000 0010 (!)0000:?
  140090909090909090909090909090:
    0. 00 0000 0010 0000:?handler@VHotKey@@UAEXEW4keyAction_t@@KPAXK@Z
C3:
  8D6424008D6424008DA42400000000A1........40A3........C38D642400:
    0. 01 FB44 0A50 0000:_ArcInitializePackage@0 0010:_ArcReferencePackage@0 0020:_ArcDereferencePackage@0 0030:_ArcAllocateBuffers@4 0100:_ArcAllocatePackets@4 0180:_ArcDiscardPacketBuffers@8 01D0:_ArcFreeNdisPacket@4 0230:_ArcDestroyPacket@8 0260:_ArcConvertToNdisPacket@12 02D0:_ArcFilterDprIndicateReceive@16 0560:_ArcCreateFilter@24 0620:_ArcDeleteFilter@4 0690:_ArcNoteFilterOpenAdapter@16 0760:_ArcDeleteFilterOpenAdapter@12 0800:_ArcFilterAdjust@20 0880:_ArcFilterDoIndication@8 0990:_ArcFilterDprIndicateReceiveComplete@4 0A20:_ArcFilterTransferData@24
  909090909090909090909090909090:
    0. 00 0000 0010 0000:_INIT_dprintf
C7:
  01........E9........9090909090:
    0. 00 0000 0010 0000:??1VHardwareInt@@QAE@XZ (REF 0002: ??_7VHardwareInt@@6B@)
    1. 00 0000 0010 0000:??1VIOPort@@QAE@XZ (REF 0002: ??_7VIOPort@@6B@)
    2. 00 0000 0010 0000:??1VPreChainV86Int@@QAE@XZ (REF 0002: ??_7VPreChainV86Int@@6B@)
  05........00000000C30500000000535657833D........007E04CCEB0B90:
    0. 02 48DF 0CB0 0000:_ArcInitializePackage@0 0010:_ArcReferencePackage@0 0070:_ArcDereferencePackage@0 00D0:_ArcAllocateBuffers@4 01A0:_ArcAllocatePackets@4 0220:_ArcDiscardPacketBuffers@8 0270:_ArcFreeNdisPacket@4 02D0:_ArcDestroyPacket@8 0300:_ArcConvertToNdisPacket@12 0370:_ArcFilterDprIndicateReceive@16 0650:_ArcCreateFilter@24 0710:_ArcDeleteFilter@4 07B0:_ArcNoteFilterOpenAdapter@16 0880:_ArcDeleteFilterOpenAdapter@12 0970:_ArcFilterAdjust@20 09F0:_ArcFilterDoIndication@8 0B90:_ArcFilterDprIndicateReceiveComplete@4 0C80:_ArcFilterTransferData@24
  411C00000000C39090909090909090:
    0. 00 0000 0010 0000:?unlock@VPipe@@MAEXXZ
CD20:
  00:
    00:
      01008B542404890AC20400:
        0. 00 0000 000F 0000:_INIT_Get_VMM_Version@4
      0400C3:
        0. 00 0000 0007 0000:_INIT_VDMAD_Get_Version@0
      0600C3:
        0. 00 0000 0007 0000:_INIT_V86MMGR_Get_Version@0
      0B00C3:
        0. 00 0000 0007 0000:_INIT_VSD_Get_Version
      0C00C3:
        0. 00 0000 0007 0000:_INIT_VMD_Get_Version@0
      0D00C3:
        0. 00 0000 0007 0000:_INIT_VKD_Get_Version@0
      0E007201C333C0C3:
        0. 00 0000 000C 0000:_INIT_VCD_Get_Version@0
      1000:
        8B542404890AC20400:
          0. 00 0000 000F 0000:_INIT_BlockDev_Get_Version@4
        C3:
          0. 00 0000 0007 0000:_INIT_IOS_Get_Version
      11008B542404890AC20400:
        0. 00 0000 000F 0000:_INIT_VMCPD_Get_Version@4
      1200721E8744240889108B4424088B54240489028B44240C8908B801:
        0. 0B 74FF 002B 0000:_INIT_EBIOS_Get_Version@12
      1500C3:
        0. 00 0000 0007 0000:_INIT_DOSMGR_Get_Version@0
      1700C3:
        0. 00 0000 0007 0000:_INIT_SHELL_Get_Version@0
      1800C3:
        0. 00 0000 0007 0000:_INIT_VMPoll_Get_Version@0
      1A00C3:
        0. 00 0000 0007 0000:_INIT_DOSNET_Get_Version@0
      2600C3:
        0. 00 0000 0007 0000:_INIT__VPOWERD_Get_Version
      2700C3:
        0. 00 0000 0007 0000:_INIT_VXDLDR_GetVersion
      2A00C3:
        0. 00 0000 0007 0000:_INIT_VWIN32_Get_Version
      2B00C3:
        0. 00 0000 0007 0000:_INIT_VCOMM_Get_Version
      3300C3:
        0. 00 0000 0007 0000:_INIT__CONFIGMG_Get_Version
      4000C3:
        0. 00 0000 0007 0000:_INIT_IFSMgr_Get_Version
      4800C3:
        0. 00 0000 0007 0000:_INIT_PERF_Get_Version
      7C09C3:
        0. 00 0000 0007 0000:_INIT_PCCARD_Get_Version
      8804C3:
        0. 00 0000 0007 0000:_INIT_VTDI_Get_Version
      8B04C3:
        0. 00 0000 0007 0000:_INIT_VCache_Get_Version
    80:
      2800CD200C802800CD200D802800CD200F802800CD2010802800CD20:
        0. EE 1BBC 010E (!)0000:? (!)0006:? (!)000C:? (!)0012:? (!)0018:? (!)001E:? (!)0024:? (!)002A:? (!)0030:? (!)0036:? (!)003C:? (!)0042:? (!)0048:? (!)004E:? (!)0054:? (!)005A:? (!)0060:? (!)0066:? (!)006C:? (!)0072:? (!)0078:? (!)007E:? (!)0084:? (!)008A:? (!)0090:? (!)0096:? (!)009C:? (!)00A2:? (!)00A8:? (!)00AE:? (!)00B4:? (!)00BA:? (!)00C0:? (!)00C6:? (!)00CC:? (!)00D2:? (!)00D8:? (!)00DE:? (!)00E4:? (!)00EA:? (!)00F0:? (!)00F6:? (!)00FC:? (!)0102:? (!)0108:?
      4300:
        0. 00 0000 0006 0000:_INIT__PCI_Get_Version
      4B00:
        0. 00 0000 0006 0000:_INIT_NTKERN_Get_Version
    810100:
      0. 00 0000 0006 0000:_INIT__FreeThreadDataSlot
  01:
    00:
      120072278B54240C7408C70200000000EB06C702010000008B542404:
        0. 14 B579 0034 0000:_INIT_EBIOS_Get_Unused_Mem@12
      2600C3:
        0. 00 0000 0007 0000:_INIT__VPOWERD_Get_APM_BIOS_Version
    80:
      1500:
        0. 00 0000 0006 0000:_INIT__DOSMGR_Set_Exec_VM_Data
      2B00:
        0. 00 0000 0006 0000:_INIT__VCOMM_Register_Port_Driver
      3300:
        0. 00 0000 0006 0000:_INIT__CONFIGMG_Initialize
      4000:
        0. 00 0000 0006 0000:_INIT_IFSMgr_RegisterMount
      4300:
        0. 00 0000 0006 0000:_INIT__PCI_Read_Config
      4800:
        0. 00 0000 0006 0000:_INIT_PERF_Server_Register
      4A04:
        0. 00 0000 0006 0000:_INIT__MMDEVLDR_SetDevicePresence
      4B00:
        0. 00 0000 0006 0000:_INIT_NtKernCreateFile@44
      8804:
        0. 00 0000 0006 0000:_INIT_VTDI_Start_Timer
    810100:
      0. 00 0000 0006 0000:_INIT__CreateMutex
  02:
    00:
      0500C3:
        0. 00 0000 0007 0000:_INIT_VTD_Get_Interrupt_Period@0
      1A008BC8B801000000730233C085C97405B9010000008B542404890A:
        0. 03 8E1E 0023 0000:_INIT_DOSNET_Do_PSP_Adjust@4
    80:
      2100:
        0. 00 0000 0006 0000:_INIT_PageFile_Clean_Up
      2600:
        0. 00 0000 0006 0000:_INIT__VPOWERD_Get_Power_Management_Level
      2A00:
        0. 00 0000 0006 0000:_INIT__VWIN32_QueueUserApc
      3300:
        0. 00 0000 0006 0000:_INIT__CONFIGMG_Locate_DevNode
      4000:
        0. 00 0000 0006 0000:_INIT_IFSMgr_RegisterNet
      4300:
        0. 00 0000 0006 0000:_INIT__PCI_Write_Config
      4800:
        0. 00 0000 0006 0000:_INIT_PERF_Server_Deregister
      4A04:
        0. 00 0000 0006 0000:_INIT__MMDEVLDR_SetEnvironmentString
      4B00:
        0. 00 0000 0006 0000:_INIT_NtKernClose@4
      7C09:
        0. 00 0000 0006 0000:_INIT__PCCARD_Access_CIS_Memory
      8804:
        0. 00 0000 0006 0000:_INIT_VTDI_Stop_Timer
    810100:
      0. 00 0000 0006 0000:_INIT__DestroyMutex
  03:
    80:
      2600:
        0. 00 0000 0006 0000:_INIT__VPOWERD_Set_Power_Management_Level
      2A00:
        0. 00 0000 0006 0000:_INIT__VWIN32_Get_Thread_Context
      2B00:
        0. 00 0000 0006 0000:_INIT__VCOMM_Release_Port
      3300:
        0. 00 0000 0006 0000:_INIT__CONFIGMG_Get_Parent
      4000:
        0. 00 0000 0006 0000:_INIT_IFSMgr_RegisterMailSlot
      4300:
        0. 00 0000 0006 0000:_INIT__PCI_Lock_Unlock
      4800:
        0. 00 0000 0006 0000:_INIT_PERF_Server_Add_Stat
      4A04:
        0. 00 0000 0006 0000:_INIT__MMDEVLDR_GetEnvironmentString
      4B00:
        0. 00 0000 0006 0000:_INIT_NtKernReadFile@36
      8804:
        0. 00 0000 0006 0000:_INIT_VTDI_Schedule_Event
    810100:
      0. 00 0000 0006 0000:_INIT__GetMutexOwner
  04:
    001500C3:
      0. 00 0000 0007 0000:_INIT_DOSMGR_Get_IndosPtr@0
    80:
      2600:
        0. 00 0000 0006 0000:_INIT__VPOWERD_Set_Device_Power_State
      2A00:
        0. 00 0000 0006 0000:_INIT__VWIN32_Set_Thread_Context
      2B00:
        0. 00 0000 0006 0000:_INIT__VCOMM_OpenComm
      3300:
        0. 00 0000 0006 0000:_INIT__CONFIGMG_Get_Child
      4800:
        0. 00 0000 0006 0000:_INIT_PERF_Server_Remove_Stat
      4A04:
        0. 00 0000 0006 0000:_INIT__MMDEVLDR_RemoveEnvironmentString
      4B00:
        0. 00 0000 0006 0000:_INIT_NtKernWriteFile@36
      8804:
        0. 00 0000 0006 0000:_INIT_VTDI_Cancel_Event
  05:
    0006008BC1C3:
      0. 00 0000 0009 0000:_INIT_V86MMGR_Get_Mapping_Info@0
    80:
      2100:
        0. 00 0000 0006 0000:_INIT_PageFile_Cancel
      2600:
        0. 00 0000 0006 0000:_INIT__VPOWERD_Set_System_Power_State
      2700:
        0. 00 0000 0006 0000:_INIT_VXDLDR_GetDeviceList
      2A00:
        0. 00 0000 0006 0000:_INIT__VWIN32_CopyMem
      2B00:
        0. 00 0000 0006 0000:_INIT__VCOMM_SetCommState
      3300:
        0. 00 0000 0006 0000:_INIT__CONFIGMG_Get_Sibling
      4A04:
        0. 00 0000 0006 0000:_INIT__MMDEVLDR_AddEnvironmentString
      4B00:
        0. 00 0000 0006 0000:_INIT_NtKernDeviceIoControl@40
      8804:
        0. 00 0000 0006 0000:_INIT_VTDI_Block
    810100:
      0. 00 0000 0006 0000:_INIT_VMMCreateThread
  06:
    00:
      01008BC1C3:
        0. 00 0000 0009 0000:_INIT_Get_VMM_Reenter_Count@0
      07000F93C083E001C3:
        0. 00 0000 000D 0000:_INIT_PageSwap_Test_IO_Valid@0
      0D00C3909090909090909090:
        0. 00 0000 0010 0000:?cancelState@VHotKey@@SAXXZ
      21000F93C083E001C3:
        0. 00 0000 000D 0000:_INIT_PageFile_Test_IO_Valid@0
      40008B4C24048911C3:
        0. 00 0000 000D 0000:_INIT_IFSMgr_Get_NetTime
    80:
      1700:
        0. 00 0000 0006 0000:_INIT__SHELL_PostMessage
      2600:
        0. 00 0000 0006 0000:_INIT__VPOWERD_Restore_Power_On_Defaults
      2A00:
        0. 00 0000 0006 0000:_INIT__VWIN32_Npx_Exception
      2B00:
        0. 00 0000 0006 0000:_INIT__VCOMM_GetCommState
      3300:
        0. 00 0000 0006 0000:_INIT__CONFIGMG_Get_Device_ID_Size
      4B00:
        0. 00 0000 0006 0000:_INIT_NtKernGetWorkerThread
      8804:
        0. 00 0000 0006 0000:_INIT_VTDI_Signal
    810100:
      0. 00 0000 0006 0000:_INIT__GetThreadExecTime
  07:
    00:
      01008BC1C3:
        0. 00 0000 0009 0000:_INIT_Begin_Reentrant_Execution@0
      05008B4C240489118B4C24088901C20800:
        0. 00 0000 0015 0000:_INIT_VTD_Get_Real_Time@8
      40008B4C24048911C3:
        0. 00 0000 000D 0000:_INIT_IFSMgr_Get_DOSTime
    80:
      1000:
        0. 00 0000 0006 0000:_INIT_IOS_Register
      1700:
        0. 00 0000 0006 0000:_INIT__SHELL_ShellExecute
      2600:
        0. 00 0000 0006 0000:_INIT__VPOWERD_Get_Power_Status
      2700:
        0. 00 0000 0006 0000:_INIT__PELDR_LoadModule
      2A00:
        0. 00 0000 0006 0000:_INIT__VWIN32_Emulate_Npx
      2B00:
        0. 00 0000 0006 0000:_INIT__VCOMM_SetupComm
      3300:
        0. 00 0000 0006 0000:_INIT__CONFIGMG_Get_Device_ID
      4B00:
        0. 00 0000 0006 0000:_INIT_NtKernLoadDriver@4
      8804:
        0. 00 0000 0006 0000:_INIT_VTDI_Register
  08:
    00:
      05008B4C24048911C20400:
        0. 00 0000 000F 0000:_INIT_VTD_Get_Date_And_Time@4
      1500740333C0C3B801000000C3:
        0. 00 0000 0011 0000:_INIT_DOSMGR_Get_DOS_Crit_Status@0
    80:
      1000:
        0. 00 0000 0006 0000:_INIT_IOS_Requestor_Service
      1700:
        0. 00 0000 0006 0000:_INIT__SHELL_PostShellMessage
      2600:
        0. 00 0000 0006 0000:_INIT__VPOWERD_Get_Power_State
      2700:
        0. 00 0000 0006 0000:_INIT__PELDR_GetModuleHandle
      2A00:
        0. 00 0000 0006 0000:_INIT__VWIN32_CheckDelayedNpxTrap
      2B00:
        0. 00 0000 0006 0000:_INIT__VCOMM_TransmitCommChar
      3300:
        0. 00 0000 0006 0000:_INIT__CONFIGMG_Get_Depth
      4000:
        0. 00 0000 0006 0000:_INIT_IFSMgr_SetupConnection
      4B00:
        0. 00 0000 0006 0000:_INIT_NtKernQueueWorkItem@8
      8804:
        0. 00 0000 0006 0000:_INIT_VTDI_Get_Info
  09:
    0015000F93C083E001C3:
      0. 00 0000 000D 0000:_INIT_DOSMGR_Enable_Indos_Polling@0
    80:
      2600:
        0. 00 0000 0006 0000:_INIT__VPOWERD_OEM_APM_Function
      2700:
        0. 00 0000 0006 0000:_INIT__PELDR_GetModuleUsage
      2B00:
        0. 00 0000 0006 0000:_INIT__VCOMM_CloseComm
      3300:
        0. 00 0000 0006 0000:_INIT__CONFIGMG_Get_Private_DWord
      4000:
        0. 00 0000 0006 0000:_INIT_IFSMgr_DerefConnection
      4B00:
        0. 00 0000 0006 0000:_INIT_NtKernPhysicalDeviceObjectToDevNode
      8804:
        0. 00 0000 0006 0000:_INIT_VTDI_Unload
  0A:
    0015000F93C083E001C3:
      0. 00 0000 000D 0000:_INIT_DOSMGR_BackFill_Allowed@0
    80:
      1100:
        0. 00 0000 0006 0000:_INIT__KeSaveFloatingPointState
      2600:
        0. 00 0000 0006 0000:_INIT__VPOWERD_Register_Power_Handler
      2700:
        0. 00 0000 0006 0000:_INIT__PELDR_GetEntryPoint
      2B00:
        0. 00 0000 0006 0000:_INIT__VCOMM_GetCommQueueStatus
      3300:
        0. 00 0000 0006 0000:_INIT__CONFIGMG_Set_Private_DWord
      4B00:
        0. 00 0000 0006 0000:_INIT_NtKernSetPhysicalCacheTypeRange@16
      8804:
        0. 00 0000 0006 0000:_INIT_VTDI_Initialize
  0B80:
    1100:
      0. 00 0000 0006 0000:_INIT__KeRestoreFloatingPointState
    2600:
      0. 00 0000 0006 0000:_INIT__VPOWERD_Deregister_Power_Handler
    2700:
      0. 00 0000 0006 0000:_INIT__PELDR_GetProcAddress
    2A00:
      0. 00 0000 0006 0000:_INIT__VWIN32_FaultPopup
    2B00:
      0. 00 0000 0006 0000:_INIT__VCOMM_ClearCommError
    3300:
      0. 00 0000 0006 0000:_INIT__CONFIGMG_Create_DevNode
    4000:
      0. 00 0000 0006 0000:_INIT_IFSMgr_CompleteAsync
    4B00:
      0. 00 0000 0006 0000:_INIT_NtKernWin9XLoadDriver
    8804:
      0. 00 0000 0006 0000:_INIT_VTDI_Register_UnloadProc
  0C:
    0015000F93C083E001C3:
      0. 00 0000 000D 0000:_INIT_DOSMGR_Init_UMB_Area@0
    80:
      1700:
        0. 00 0000 0006 0000:_INIT_SHELL_Update_User_Activity
      2600:
        0. 00 0000 0006 0000:_INIT__VPOWERD_W32_Get_System_Power_Status
      2700:
        0. 00 0000 0006 0000:_INIT__PELDR_AddExportTable
      2A00:
        0. 00 0000 0006 0000:_INIT_VWIN32_GetContextHandle
      2B00:
        0. 00 0000 0006 0000:_INIT__VCOMM_GetModemStatus
      3300:
        0. 00 0000 0006 0000:_INIT__CONFIGMG_Query_Remove_SubTree
      4000:
        0. 00 0000 0006 0000:_INIT_IFSMgr_RegisterHeap
      4B00:
        0. 00 0000 0006 0000:_INIT_NtKernCancelIoFile@8
      8804:
        0. 00 0000 0006 0000:_INIT_VTDI_Register_LoadProc
  0D80:
    1000:
      0. 00 0000 0006 0000:_INIT_IOSIdleStatus
    1700:
      0. 00 0000 0006 0000:_INIT__SHELL_QueryAppyTimeAvailable
    2600:
      0. 00 0000 0006 0000:_INIT__VPOWERD_W32_Set_System_Power_State
    2700:
      0. 00 0000 0006 0000:_INIT__PELDR_RemoveExportTable
    2A00:
      0. 00 0000 0006 0000:_INIT_VWIN32_GetCurrentProcessHandle
    2B00:
      0. 00 0000 0006 0000:_INIT__VCOMM_GetCommProperties
    3300:
      0. 00 0000 0006 0000:_INIT__CONFIGMG_Remove_SubTree
    4000:
      0. 00 0000 0006 0000:_INIT_IFSMgr_GetHeap
    4B00:
      0. 00 0000 0006 0000:_INIT_NtKernGetVPICDHandleFromInterruptObj
  0E80:
    1700:
      0. 00 0000 0006 0000:_INIT__SHELL_CallAtAppyTime
    2700:
      0. 00 0000 0006 0000:_INIT__PELDR_FreeModule
    2B00:
      0. 00 0000 0006 0000:_INIT__VCOMM_EscapeCommFunction
    3300:
      0. 00 0000 0006 0000:_INIT__CONFIGMG_Register_Device_Driver
    4000:
      0. 00 0000 0006 0000:_INIT_IFSMgr_RetHeap
    4B00:
      0. 00 0000 0006 0000:_INIT_NtKernInternalDeviceIoControl@40
  0F80:
    0D00:
      0. 00 0000 0006 0000:_INIT_VKD_Enable_Keyboard
    1700:
      0. 00 0000 0006 0000:_INIT__SHELL_CancelAppyTimeEvent
    2B00:
      0. 00 0000 0006 0000:_INIT__VCOMM_PurgeComm
    3300:
      0. 00 0000 0006 0000:_INIT__CONFIGMG_Register_Enumerator
    4000:
      0. 00 0000 0006 0000:_INIT_IFSMgr_CheckHeap
  1080:
    1700:
      0. 00 0000 0006 0000:_INIT__SHELL_BroadcastSystemMessage
    2700:
      0. 00 0000 0006 0000:_INIT__PELDR_InitCompleted
    2B00:
      0. 00 0000 0006 0000:_INIT__VCOMM_SetCommEventMask
    3300:
      0. 00 0000 0006 0000:_INIT__CONFIGMG_Register_Arbitrator
    4000:
      0. 00 0000 0006 0000:_INIT_IFSMgr_CheckHeapItem
  11:
    80:
      1700:
        0. 00 0000 0006 0000:_INIT__SHELL_HookSystemBroadcast
      2700:
        0. 00 0000 0006 0000:_INIT__PELDR_LoadModuleEx
      2B00:
        0. 00 0000 0006 0000:_INIT__VCOMM_GetCommEventMask
      3300:
        0. 00 0000 0006 0000:_INIT__CONFIGMG_Deregister_Arbitrator
      4000:
        0. 00 0000 0006 0000:_INIT_IFSMgr_FillHeapSpare
    810100:
      0. 00 0000 0006 0000:_INIT_VMM_GetSystemInitState
  1280:
    1700:
      0. 00 0000 0006 0000:_INIT__SHELL_UnhookSystemBroadcast
    2B00:
      0. 00 0000 0006 0000:_INIT__VCOMM_WriteComm
    3300:
      0. 00 0000 0006 0000:_INIT__CONFIGMG_Query_Arbitrator_Free_Size
    4000:
      0. 00 0000 0006 0000:_INIT_IFSMgr_Block
    8B04:
      0. 00 0000 0006 0000:_INIT_VCache_RelinquishPage
  1380:
    2B00:
      0. 00 0000 0006 0000:_INIT__VCOMM_ReadComm
    3300:
      0. 00 0000 0006 0000:_INIT__CONFIGMG_Query_Arbitrator_Free_Data
    4000:
      0. 00 0000 0006 0000:_INIT_IFSMgr_Wakeup
  1480:
    1700:
      0. 00 0000 0006 0000:_INIT__SHELL_LocalFree
    2B00:
      0. 00 0000 0006 0000:_INIT__VCOMM_EnableCommNotification
    3300:
      0. 00 0000 0006 0000:_INIT__CONFIGMG_Sort_NodeList
    4000:
      0. 00 0000 0006 0000:_INIT_IFSMgr_Yield
    8B04:
      0. 00 0000 0006 0000:_INIT__VCache_CreateLookupCache
  15:
    002A000F93C083E001C3:
      0. 00 0000 000D 0000:_INIT_VWIN32_ActiveTimeBiasSet@0
    80:
      1700:
        0. 00 0000 0006 0000:_INIT__SHELL_LoadLibrary
      2B00:
        0. 00 0000 0006 0000:_INIT__VCOMM_GetLastError
      3300:
        0. 00 0000 0006 0000:_INIT__CONFIGMG_Yield
      4000:
        0. 00 0000 0006 0000:_INIT_IFSMgr_SchedEvent
      8B04:
        0. 00 0000 0006 0000:_INIT__VCache_CloseLookupCache
    810100:
      0. 00 0000 0006 0000:_INIT__Deallocate_Device_CB_Area
  1680:
    1700:
      0. 00 0000 0006 0000:_INIT__SHELL_FreeLibrary
    3300:
      0. 00 0000 0006 0000:_INIT__CONFIGMG_Lock
    4000:
      0. 00 0000 0006 0000:_INIT_IFSMgr_QueueEvent
    8B04:
      0. 00 0000 0006 0000:_INIT__VCache_DeleteLookupCache
  1780:
    1700:
      0. 00 0000 0006 0000:_INIT__SHELL_GetProcAddress
    2A00:
      0. 00 0000 0006 0000:_INIT_VWIN32_BlueScreenPopup
    2B00:
      0. 00 0000 0006 0000:_INIT__VCOMM_SetReadCallback
    3300:
      0. 00 0000 0006 0000:_INIT__CONFIGMG_Unlock
    4000:
      0. 00 0000 0006 0000:_INIT_IFSMgr_KillEvent
    8B04:
      0. 00 0000 0006 0000:_INIT__VCache_Lookup
  1880:
    1700:
      0. 00 0000 0006 0000:_INIT__SHELL_CallDll
    2B00:
      0. 00 0000 0006 0000:_INIT__VCOMM_SetWriteCallback
    3300:
      0. 00 0000 0006 0000:_INIT__CONFIGMG_Add_Empty_Log_Conf
    4000:
      0. 00 0000 0006 0000:_INIT_IFSMgr_FreeIOReq
    8B04:
      0. 00 0000 0006 0000:_INIT__VCache_UpdateLookup
  1980:
    2A00:
      0. 00 0000 0006 0000:_INIT__VWIN32_QueueKernelAPC
    2B00:
      0. 00 0000 0006 0000:_INIT__VCOMM_Add_Port
    3300:
      0. 00 0000 0006 0000:_INIT__CONFIGMG_Free_Log_Conf
    4000:
      0. 00 0000 0006 0000:_INIT_IFSMgr_MakeMailSlot
  1A80:
    2B00:
      0. 00 0000 0006 0000:_INIT__VCOMM_GetSetCommTimeouts
    3300:
      0. 00 0000 0006 0000:_INIT__CONFIGMG_Get_First_Log_Conf
    4000:
      0. 00 0000 0006 0000:_INIT_IFSMgr_DeleteMailSlot
  1B80:
    2A00:
      0. 00 0000 0006 0000:_INIT__VWIN32_IsClientWin32
    3300:
      0. 00 0000 0006 0000:_INIT__CONFIGMG_Get_Next_Log_Conf
    4000:
      0. 00 0000 0006 0000:_INIT_IFSMgr_WriteMailSlot
  1C80:
    3300:
      0. 00 0000 0006 0000:_INIT__CONFIGMG_Add_Res_Des
    4000:
      0. 00 0000 0006 0000:_INIT_IFSMgr_PopUp
  1D:
    80:
      3300:
        0. 00 0000 0006 0000:_INIT__CONFIGMG_Modify_Res_Des
      4000:
        0. 00 0000 0006 0000:_INIT_IFSMgr_printf
    810100:
      0. 00 0000 0006 0000:_INIT__PageReserve
  1E:
    000400C3:
      0. 00 0000 0007 0000:_INIT_VDMAD_Get_Max_Phys_Page@0
    80:
      2B00:
        0. 00 0000 0006 0000:_INIT__VCOMM_Enumerate_DevNodes
      3300:
        0. 00 0000 0006 0000:_INIT__CONFIGMG_Free_Res_Des
      4000:
        0. 00 0000 0006 0000:_INIT_IFSMgr_AssertFailed
    810100:
      0. 00 0000 0006 0000:_INIT__PageCommit
  1F:
    80:
      3300:
        0. 00 0000 0006 0000:_INIT__CONFIGMG_Get_Next_Res_Des
      4000:
        0. 00 0000 0006 0000:_INIT_IFSMgr_LogEntry
    810100:
      0. 00 0000 0006 0000:_INIT__PageDecommit
  20:
    000100C3909090909090909090:
      0. 00 0000 0010 0000:?leaveGlobal@VMutex@@SAXXZ
    80:
      3300:
        0. 00 0000 0006 0000:_INIT__CONFIGMG_Get_Performance_Info
      4000:
        0. 00 0000 0006 0000:_INIT_IFSMgr_DebugMenu
    810100:
      0. 00 0000 0006 0000:_INIT__PagerRegister
  21:
    0001000F93C083E001C3:
      0. 00 0000 000D 0000:_INIT_End_Crit_And_Suspend@0
    80:
      2B00:
        0. 00 0000 0006 0000:_INIT__VCOMM_Get_Contention_Handler
      3300:
        0. 00 0000 0006 0000:_INIT__CONFIGMG_Get_Res_Des_Data_Size
      4000:
        0. 00 0000 0006 0000:_INIT_IFSMgr_DebugVars
    810100:
      0. 00 0000 0006 0000:_INIT__PagerQuery
  22:
    80:
      2B00:
        0. 00 0000 0006 0000:_INIT__VCOMM_Map_Name_To_Resource
      3300:
        0. 00 0000 0006 0000:_INIT__CONFIGMG_Get_Res_Des_Data
      4000:
        0. 00 0000 0006 0000:_INIT_IFSMgr_GetDebugString
    810100:
      0. 00 0000 0006 0000:_INIT__PagerDeregister
  23:
    80:
      3300:
        0. 00 0000 0006 0000:_INIT__CONFIGMG_Process_Events_Now
      4000:
        0. 00 0000 0006 0000:_INIT_IFSMgr_GetDebugHexNum
    810100:
      0. 00 0000 0006 0000:_INIT__ContextCreate
  24:
    80:
      3300:
        0. 00 0000 0006 0000:_INIT__CONFIGMG_Create_Range_List
      4000:
        0. 00 0000 0006 0000:_INIT_IFSMgr_NetFunction
    810100:
      0. 00 0000 0006 0000:_INIT__ContextDestroy
  25:
    80:
      3300:
        0. 00 0000 0006 0000:_INIT__CONFIGMG_Add_Range
      4000:
        0. 00 0000 0006 0000:_INIT_IFSMgr_DoDelAllUses
    810100:
      0. 00 0000 0006 0000:_INIT__PageAttach
  26:
    80:
      3300:
        0. 00 0000 0006 0000:_INIT__CONFIGMG_Delete_Range
      4000:
        0. 00 0000 0006 0000:_INIT_IFSMgr_SetErrString
    810100:
      0. 00 0000 0006 0000:_INIT__PageFlush
  27:
    80:
      3300:
        0. 00 0000 0006 0000:_INIT__CONFIGMG_Test_Range_Available
      4000:
        0. 00 0000 0006 0000:_INIT_IFSMgr_GetErrString
    810100:
      0. 00 0000 0006 0000:_INIT__SignalID
  28:
    803300:
      0. 00 0000 0006 0000:_INIT__CONFIGMG_Dup_Range_List
    810100:
      0. 00 0000 0006 0000:_INIT__PageCommitPhys
  29:
    80:
      2800CD202A802800CD202B802800CD202C802800CD202D802800CD20:
        0. 28 44E2 0048 0000:_NdisRegisterProtocol@16 0006:_NdisDeregisterProtocol@8 000C:_NdisOpenAdapter@44 0012:_NdisCloseAdapter@8 0018:_NdisSend@12 001E:_NdisTransferData@28 0024:_NdisReset@8 002A:_NdisRequest@12 0030:_NdisQueryGlobalStatistics@16 0036:_NdisOpenProtocolConfiguration@12 003C:_NdisCompleteBindAdapter@12 0042:_NdisCompleteUnbindAdapter@8
        1. 16 F2E2 0036 0000:_NdisRegisterProtocol 0006:_NdisDeregisterProtocol 000C:_NdisOpenAdapter 0012:_NdisCloseAdapter 0018:_NdisSend 001E:_NdisTransferData 0024:_NdisReset 002A:_NdisRequest
      3300:
        0. 00 0000 0006 0000:_INIT__CONFIGMG_Free_Range_List
    810100:
      0. 00 0000 0006 0000:_INIT__Register_Win32_Services
  2A80:
    3300:
      0. 00 0000 0006 0000:_INIT__CONFIGMG_Invert_Range_List
    4000:
      0. 00 0000 0006 0000:_INIT_IFSMgr_UseAdd
  2B80:
    3300:
      0. 00 0000 0006 0000:_INIT__CONFIGMG_Intersect_Range_List
    4000:
      0. 00 0000 0006 0000:_INIT_IFSMgr_UseDel
  2C80:
    3300:
      0. 00 0000 0006 0000:_INIT__CONFIGMG_First_Range
    4000:
      0. 00 0000 0006 0000:_INIT_IFSMgr_InitUseAdd
  2D80:
    3300:
      0. 00 0000 0006 0000:_INIT__CONFIGMG_Next_Range
    4000:
      0. 00 0000 0006 0000:_INIT_IFSMgr_ChangeDir
  2E:
    80:
      3300:
        0. 00 0000 0006 0000:_INIT__CONFIGMG_Dump_Range_List
      4000:
        0. 00 0000 0006 0000:_INIT_IFSMgr_DelAllUses
    810100:
      0. 00 0000 0006 0000:_INIT__EnterMutex
  2F:
    80:
      3300:
        0. 00 0000 0006 0000:_INIT__CONFIGMG_Load_DLVxDs
      4000:
        0. 00 0000 0006 0000:_INIT_IFSMgr_CDROM_Attach
    810100:
      0. 00 0000 0006 0000:_INIT__LeaveMutex
  3080:
    3300:
      0. 00 0000 0006 0000:_INIT__CONFIGMG_Get_DDBs
    4000:
      0. 00 0000 0006 0000:_INIT_IFSMgr_CDROM_Detach
  3180:
    3300:
      0. 00 0000 0006 0000:_INIT__CONFIGMG_Get_CRC_CheckSum
    4000:
      0. 00 0000 0006 0000:_INIT_IFSMgr_Win32DupHandle
  32:
    80:
      3300:
        0. 00 0000 0006 0000:_INIT__CONFIGMG_Register_DevLoader
      4000:
        0. 00 0000 0006 0000:_INIT_IFSMgr_Ring0_FileIO
    810100:
      0. 00 0000 0006 0000:_INIT__ContextSwitch
  33:
    803300:
      0. 00 0000 0006 0000:_INIT__CONFIGMG_Reenumerate_DevNode
    810100:
      0. 00 0000 0006 0000:_INIT__PageModifyPermissions
  34:
    80:
      0100:
        0. 00 0000 0006 0000:_INIT_Get_Time_Slice_Granularity
      3300:
        0. 00 0000 0006 0000:_INIT__CONFIGMG_Setup_DevNode
      4000:
        0. 00 0000 0006 0000:_INIT_IFSMgr_Get_Drive_Info
    810100:
      0. 00 0000 0006 0000:_INIT__PageQuery
  35:
    803300:
      0. 00 0000 0006 0000:_INIT__CONFIGMG_Reset_Children_Marks
    810100:
      0. 00 0000 0006 0000:_INIT__EnterMustComplete
  36:
    80:
      3300:
        0. 00 0000 0006 0000:_INIT__CONFIGMG_Get_DevNode_Status
      4000:
        0. 00 0000 0006 0000:_INIT_IFSMgr_BlockNoEvents
    810100:
      0. 00 0000 0006 0000:_INIT__LeaveMustComplete
  37:
    80:
      3300:
        0. 00 0000 0006 0000:_INIT__CONFIGMG_Remove_Unmarked_Children
      4000:
        0. 00 0000 0006 0000:_INIT_IFSMgr_NetToDosTime
    810100:
      0. 00 0000 0006 0000:_INIT__ResumeExecMustComplete
  38:
    80:
      3300:
        0. 00 0000 0006 0000:_INIT__CONFIGMG_ISAPNP_To_CM
      4000:
        0. 00 0000 0006 0000:_INIT_IFSMgr_DosToNetTime
    810100:
      0. 00 0000 0006 0000:_INIT__GetThreadTerminationStatus
  39:
    803300:
      0. 00 0000 0006 0000:_INIT__CONFIGMG_CallBack_Device_Driver
    810100:
      0. 00 0000 0006 0000:_INIT__GetInstanceInfo
  3A80:
    3300:
      0. 00 0000 0006 0000:_INIT__CONFIGMG_CallBack_Enumerator
    4000:
      0. 00 0000 0006 0000:_INIT_IFSMgr_Win32ToDosTime
  3B803300:
    0. 00 0000 0006 0000:_INIT__CONFIGMG_Get_Alloc_Log_Conf
  3C80:
    3300:
      0. 00 0000 0006 0000:_INIT__CONFIGMG_Get_DevNode_Key_Size
    4000:
      0. 00 0000 0006 0000:_INIT_IFSMgr_Win32ToNetTime
  3D80:
    3300:
      0. 00 0000 0006 0000:_INIT__CONFIGMG_Get_DevNode_Key
    4000:
      0. 00 0000 0006 0000:_INIT_IFSMgr_MetaMatch
  3E80:
    3300:
      0. 00 0000 0006 0000:_INIT__CONFIGMG_Read_Registry_Value
    4000:
      0. 00 0000 0006 0000:_INIT_IFSMgr_TransMatch
  3F:
    80:
      0100:
        0. 00 0000 0006 0000:_INIT_Get_System_Time
      3300:
        0. 00 0000 0006 0000:_INIT__CONFIGMG_Write_Registry_Value
      4000:
        0. 00 0000 0006 0000:_INIT_IFSMgr_CallProvider
    810100:
      0. 00 0000 0006 0000:_INIT_VMM_GetDDBList
  40803300:
    0. 00 0000 0006 0000:_INIT__CONFIGMG_Disable_DevNode
  41803300:
    0. 00 0000 0006 0000:_INIT__CONFIGMG_Enable_DevNode
  42803300:
    0. 00 0000 0006 0000:_INIT__CONFIGMG_Move_DevNode
  4380:
    3300:
      0. 00 0000 0006 0000:_INIT__CONFIGMG_Set_Bus_Info
    4000:
      0. 00 0000 0006 0000:_INIT_UniToUpper
  44:
    80:
      3300:
        0. 00 0000 0006 0000:_INIT__CONFIGMG_Get_Bus_Info
      4000:
        0. 00 0000 0006 0000:_INIT_UniCharToOEM
    810100:
      0. 00 0000 0006 0000:_INIT_Get_System_Time_Address
  4580:
    3300:
      0. 00 0000 0006 0000:_INIT__CONFIGMG_Set_HW_Prof
    4000:
      0. 00 0000 0006 0000:_INIT_CreateBasis
  4680:
    3300:
      0. 00 0000 0006 0000:_INIT__CONFIGMG_Recompute_HW_Prof
    4000:
      0. 00 0000 0006 0000:_INIT_MatchBasisName
  47:
    000100C3909090909090909090:
      0. 00 0000 0010 (!)0000:?
    80:
      3300:
        0. 00 0000 0006 0000:_INIT__CONFIGMG_Query_Change_HW_Prof
      4000:
        0. 00 0000 0006 0000:_INIT_AppendBasisTail
  48:
    80:
      3300:
        0. 00 0000 0006 0000:_INIT__CONFIGMG_Get_Device_Driver_Private_DWord
      4000:
        0. 00 0000 0006 0000:_INIT_FcbToShort
    810100:
      0. 00 0000 0006 0000:_INIT__RegOpenKey
  49:
    80:
      3300:
        0. 00 0000 0006 0000:_INIT__CONFIGMG_Set_Device_Driver_Private_DWord
      4000:
        0. 00 0000 0006 0000:_INIT_ShortToFcb
    810100:
      0. 00 0000 0006 0000:_INIT__RegCloseKey
  4A:
    000100C3909090909090909090:
      0. 00 0000 0010 (!)0000:?
    80:
      3300:
        0. 00 0000 0006 0000:_INIT__CONFIGMG_Get_HW_Prof_Flags
      4000:
        0. 00 0000 0006 0000:_INIT_IFSMgr_ParsePath
    810100:
      0. 00 0000 0006 0000:_INIT__RegCreateKey
  4B:
    80:
      3300:
        0. 00 0000 0006 0000:_INIT__CONFIGMG_Set_HW_Prof_Flags
      4000:
        0. 00 0000 0006 0000:_INIT_Query_PhysLock
    810100:
      0. 00 0000 0006 0000:_INIT__RegDeleteKey
  4C:
    80:
      3300:
        0. 00 0000 0006 0000:_INIT__CONFIGMG_Read_Registry_Log_Confs
      4000:
        0. 00 0000 0006 0000:_INIT__VolFlush
    810100:
      0. 00 0000 0006 0000:_INIT__RegEnumKey
  4D:
    80:
      3300:
        0. 00 0000 0006 0000:_INIT__CONFIGMG_Run_Detection
      4000:
        0. 00 0000 0006 0000:_INIT_NotifyVolumeArrival
    810100:
      0. 00 0000 0006 0000:_INIT__RegQueryValue
  4E:
    80:
      0100:
        0. 00 0000 0006 0000:_INIT_Simulate_Pop
      3300:
        0. 00 0000 0006 0000:_INIT__CONFIGMG_Call_At_Appy_Time
      4000:
        0. 00 0000 0006 0000:_INIT_NotifyVolumeRemoval
    810100:
      0. 00 0000 0006 0000:_INIT__RegSetValue
  4F:
    80:
      0100:
        0. 00 0000 0006 0000:_INIT__HeapAllocate
      3300:
        0. 00 0000 0006 0000:_INIT__CONFIGMG_Fail_Change_HW_Prof
      4000:
        0. 00 0000 0006 0000:_INIT_QueryVolumeRemoval
    810100:
      0. 00 0000 0006 0000:_INIT__RegDeleteValue
  50:
    80:
      0100:
        0. 00 0000 0006 0000:_INIT__HeapReAllocate
      3300:
        0. 00 0000 0006 0000:_INIT__CONFIGMG_Set_Private_Problem
      4000:
        0. 00 0000 0006 0000:_INIT_IFSMgr_FSDUnmountCFSD
    810100:
      0. 00 0000 0006 0000:_INIT__RegEnumValue
  51:
    80:
      0100:
        0. 00 0000 0006 0000:_INIT__HeapFree
      4000:
        0. 00 0000 0006 0000:_INIT_IFSMgr_GetConversionTablePtrs
    810100:
      0. 00 0000 0006 0000:_INIT__RegQueryValueEx
  52:
    80:
      0100:
        0. 00 0000 0006 0000:_INIT__HeapGetSize
      3300:
        0. 00 0000 0006 0000:_INIT__CONFIGMG_Get_Hardware_Profile_Info
      4000:
        0. 00 0000 0006 0000:_INIT_IFSMgr_CheckAccessConflict
    810100:
      0. 00 0000 0006 0000:_INIT__RegSetValueEx
  5380:
    3300:
      0. 00 0000 0006 0000:_INIT__CONFIGMG_Register_Enumerator_Function
    4000:
      0. 00 0000 0006 0000:_INIT_IFSMgr_LockFile
  5480:
    3300:
      0. 00 0000 0006 0000:_INIT__CONFIGMG_Call_Enumerator_Function
    4000:
      0. 00 0000 0006 0000:_INIT_IFSMgr_UnlockFile
  55:
    80:
      0100:
        0. 00 0000 0006 0000:_INIT__PageFree
      3300:
        0. 00 0000 0006 0000:_INIT__CONFIGMG_Add_ID
      4000:
        0. 00 0000 0006 0000:_INIT_IFSMgr_RemoveLocks
    810100:
      0. 00 0000 0006 0000:_INIT__RegFlushKey
  56:
    80:
      0100:
        0. 00 0000 0006 0000:_INIT__PageLock
      4000:
        0. 00 0000 0006 0000:_INIT_IFSMgr_CheckLocks
    810100:
      0. 00 0000 0006 0000:_INIT__PageCommitContig
  57:
    80:
      0100:
        0. 00 0000 0006 0000:_INIT__PageUnLock
      4000:
        0. 00 0000 0006 0000:_INIT_IFSMgr_CountLocks
    810100:
      0. 00 0000 0006 0000:_INIT__GetCurrentContext
  58804000:
    0. 00 0000 0006 0000:_INIT_IFSMgr_ReassignLockFileInst
  59804000:
    0. 00 0000 0006 0000:_INIT_IFSMgr_UnassignLockList
  5A804000:
    0. 00 0000 0006 0000:_INIT_IFSMgr_MountChildVolume
  5B80:
    0100:
      0. 00 0000 0006 0000:_INIT__GetSysPageCount
    4000:
      0. 00 0000 0006 0000:_INIT_IFSMgr_UnmountChildVolume
  5C804000:
    0. 00 0000 0006 0000:_INIT_IFSMgr_SwapDrives
  5D:
    80:
      0100:
        0. 00 0000 0006 0000:_INIT__MapIntoV86
      4000:
        0. 00 0000 0006 0000:_INIT_IFSMgr_FSDMapFHtoIOREQ
    810100:
      0. 00 0000 0006 0000:_INIT__GetPhysPageInfo
  5E:
    80:
      0100:
        0. 00 0000 0006 0000:_INIT__PhysIntoV86
      4000:
        0. 00 0000 0006 0000:_INIT_IFSMgr_FSDParsePath
    810100:
      0. 00 0000 0006 0000:_INIT__RegQueryInfoKey
  5F80:
    0100:
      0. 00 0000 0006 0000:_INIT__TestGlobalV86Mem
    4000:
      0. 00 0000 0006 0000:_INIT_IFSMgr_FSDAttachSFT
  6080:
    0100:
      0. 00 0000 0006 0000:_INIT__ModifyPageBits
    4000:
      0. 00 0000 0006 0000:_INIT_IFSMgr_GetTimeZoneBias
  6180:
    0100:
      0. 00 0000 0006 0000:_INIT__CopyPageTable
    4000:
      0. 00 0000 0006 0000:_INIT_IFSMgr_PNPEvent
  62804000:
    0. 00 0000 0006 0000:_INIT_IFSMgr_RegisterCFSD
  6380:
    0100:
      0. 00 0000 0006 0000:_INIT__LinPageLock
    4000:
      0. 00 0000 0006 0000:_INIT_IFSMgr_Win32MapExtendedHandleToSFT
  6480:
    0100:
      0. 00 0000 0006 0000:_INIT__LinPageUnLock
    3300:
      0. 00 0000 0006 0000:_INIT__CONFIGMG_Set_DevNode_PowerState
    4000:
      0. 00 0000 0006 0000:_INIT_IFSMgr_DbgSetFileHandleLimit
  6580:
    0100:
      0. 00 0000 0006 0000:_INIT__SetResetV86Pageable
    3300:
      0. 00 0000 0006 0000:_INIT__CONFIGMG_Get_DevNode_PowerState
    4000:
      0. 00 0000 0006 0000:_INIT_IFSMgr_Win32MapSFTToExtendedHandle
  6680:
    0100:
      0. 00 0000 0006 0000:_INIT__GetV86PageableArray
    3300:
      0. 00 0000 0006 0000:_INIT__CONFIGMG_Set_DevNode_PowerCapabilities
    4000:
      0. 00 0000 0006 0000:_INIT_IFSMgr_FSDGetCurrentDrive
  6780:
    0100:
      0. 00 0000 0006 0000:_INIT__PageCheckLinRange
    3300:
      0. 00 0000 0006 0000:_INIT__CONFIGMG_Get_DevNode_PowerCapabilities
    4000:
      0. 00 0000 0006 0000:_INIT_IFSMgr_InstallFileSystemApiHook
  6880:
    0100:
      0. 00 0000 0006 0000:_INIT__PageOutDirtyPages
    4000:
      0. 00 0000 0006 0000:_INIT_IFSMgr_RemoveFileSystemApiHook
  69:
    0040000F93C083E001C3:
      0. 00 0000 000D 0000:_INIT_IFSMgr_RunScheduledEvents@0
    800100:
      0. 00 0000 0006 0000:_INIT__PageDiscardPages
  6A80:
    0100:
      0. 00 0000 0006 0000:_INIT__GetNulPageHandle
    4000:
      0. 00 0000 0006 0000:_INIT_IFSMgr_CheckDelResource
  6B80:
    0100:
      0. 00 0000 0006 0000:_INIT__GetFirstV86Page
    4000:
      0. 00 0000 0006 0000:_INIT_IFSMgr_Win32GetVMCurdir
  6C80:
    0100:
      0. 00 0000 0006 0000:_INIT__MapPhysToLinear
    4000:
      0. 00 0000 0006 0000:_INIT_IFSMgr_SetupFailedConnection
  6D80:
    0100:
      0. 00 0000 0006 0000:_INIT__GetAppFlatDSAlias
    3300:
      0. 00 0000 0006 0000:_INIT__CONFIGMG_Register_DevNode_For_Idle_Detection
    4000:
      0. 00 0000 0006 0000:_INIT__GetMappedErr
  6E:
    80:
      0100:
        0. 00 0000 0006 0000:_INIT__SelectorMapFlat
      4000:
        0. 00 0000 0006 0000:_INIT_ShortToLossyFcb
    810100:
      0. 00 0000 0006 0000:_INIT__GetRegistryPath
  6F:
    80:
      0100:
        0. 00 0000 0006 0000:_INIT__GetDemandPageInfo
      4000:
        0. 00 0000 0006 0000:_INIT_IFSMgr_GetLockState
    810100:
      0. 00 0000 0006 0000:_INIT__GetRegistryKey
  7080:
    0100:
      0. 00 0000 0006 0000:_INIT__GetSetPageOutCount
    4000:
      0. 00 0000 0006 0000:_INIT_BcsToBcs
  71:
    804000:
      0. 00 0000 0006 0000:_INIT_IFSMgr_SetLoopback
    810100:
      0. 00 0000 0006 0000:_INIT__RegRemapPreDefKey
  72:
    80:
      0100:
        0. 00 0000 0006 0000:_INIT__Assign_Device_V86_Pages
      4000:
        0. 00 0000 0006 0000:_INIT_IFSMgr_ClearLoopback
    810100:
      0. 00 0000 0006 0000:_INIT_End_V86_Serialization
  73:
    80:
      0100:
        0. 00 0000 0006 0000:_INIT__DeAssign_Device_V86_Pages
      4000:
        0. 00 0000 0006 0000:_INIT_IFSMgr_ParseOneElement
    810100:
      0. 00 0000 0006 0000:_INIT__Assert_Range
  7480:
    0100:
      0. 00 0000 0006 0000:_INIT__Get_Device_V86_Pages_Array
    4000:
      0. 00 0000 0006 0000:_INIT_BcsToBcsUpper
  75810100:
    0. 00 0000 0006 0000:_INIT__PageChangePager
  76:
    800100:
      0. 00 0000 0006 0000:_INIT__Allocate_GDT_Selector
    810100:
      0. 00 0000 0006 0000:_INIT__RegCreateDynKey
  77:
    800100:
      0. 00 0000 0006 0000:_INIT__Free_GDT_Selector
    810100:
      0. 00 0000 0006 0000:_INIT__RegQueryMultipleValues
  79:
    800100:
      0. 00 0000 0006 0000:_INIT__Free_LDT_Selector
    810100:
      0. 00 0000 0006 0000:_INIT_Get_Boot_Flags
  7C:
    800100:
      0. 00 0000 0006 0000:_INIT__SetDescriptor
    810100:
      0. 00 0000 0006 0000:_INIT__lstrlen
  7D800100:
    0. 00 0000 0006 0000:_INIT__MMGR_Toggle_HMA
  7E810100:
    0. 00 0000 0006 0000:_INIT__GetVxDName
  81810100:
    0. 00 0000 0006 0000:_INIT__AddReclaimableItem
  82810100:
    0. 00 0000 0006 0000:_INIT__SetReclaimableItem
  83810100:
    0. 00 0000 0006 0000:_INIT__EnumReclaimableItem
  88810100:
    0. 00 0000 0006 0000:_INIT_Open_Boot_Log
  8A810100:
    0. 00 0000 0006 0000:_INIT_Close_Boot_Log
  8C810100:
    0. 00 0000 0006 0000:_INIT__Call_On_My_Stack
  8E810100:
    0. 00 0000 0006 0000:_INIT__lstrcmpi
  8F810100:
    0. 00 0000 0006 0000:_INIT__strupr
  91810100:
    0. 00 0000 0006 0000:_INIT__AtEventTime
  A6800100:
    0. 00 0000 0006 0000:_INIT__AddInstanceItem
  A7800100:
    0. 00 0000 0006 0000:_INIT__Allocate_Device_CB_Area
  A8800100:
    0. 00 0000 0006 0000:_INIT__Allocate_Global_V86_Data_Area
  A9800100:
    0. 00 0000 0006 0000:_INIT__Allocate_Temp_V86_Data_Area
  AA800100:
    0. 00 0000 0006 0000:_INIT__Free_Temp_V86_Data_Area
  B60001008B44240489088BC2C20400:
    0. 00 0000 0011 0000:_INIT_Get_Exec_Path@4
  B70001008BC2C3:
    0. 00 0000 0009 0000:_INIT_Get_Config_Directory@0
  B9800100:
    0. 00 0000 0006 0000:_INIT_Get_PSP_Segment
  C100010074:
    06B801000000C333C0EBFB:
      0. 00 0000 0012 0000:_INIT_Test_Debug_Installed@0
    155657508B7424108D7C2414B873000000CD41585F5EC3:
      0. 00 0000 001E 0000:_DbgPrint
  C4000100B4007502B4FFC3:
    0. 00 0000 000D 0000:_INIT_In_Debug_Chr@0
  CF800100:
    0. 00 0000 0006 0000:_INIT_Get_Last_Updated_System_Time
  D2800100:
    0. 00 0000 0006 0000:_INIT__AddFreePhysPage
  D3800100:
    0. 00 0000 0006 0000:_INIT__PageResetHandlePAddr
  D4800100:
    0. 00 0000 0006 0000:_INIT__SetLastV86Page
  D5800100:
    0. 00 0000 0006 0000:_INIT__GetLastV86Page
  D6800100:
    0. 00 0000 0006 0000:_INIT__MapFreePhysReg
  D7800100:
    0. 00 0000 0006 0000:_INIT__UnmapFreePhysReg
  D8800100:
    0. 00 0000 0006 0000:_INIT__XchgFreePhysReg
  DE800100:
    0. 00 0000 0006 0000:_INIT__GetGlblRng0V86IntBase
  DF800100:
    0. 00 0000 0006 0000:_INIT__Add_Global_V86_Data_Area
  E100010074040FB6C0C333C0C3:
    0. 00 0000 000F 0000:_INIT_Is_Debug_Chr@0
  E60001008BC2C3:
    0. 00 0000 0009 0000:_INIT_Get_Mono_Cur_Pos@0
  E7800100:
    0. 00 0000 0006 0000:_INIT_Get_Mono_Chr
  F2800100:
    0. 00 0000 0006 0000:_INIT__GetLastUpdatedThreadExecTime
  F4800100:
    0. 00 0000 0006 0000:_INIT__Debug_Out_Service@4
  FA800100:
    0. 00 0000 0006 0000:_INIT__BlockOnID
  FF800100:
    0. 00 0000 0006 0000:_INIT__AllocateThreadDataSlot
E8........B801000000C39090909090:
  0. 00 0000 0010 0000:?OnSysDynamicDeviceExit@VCommPortDriver@@UAEHXZ
E9........9090909090909090909090:
  0. 00 0000 0010 0000:?IsAppyTimeAvailable@VAppyTimeEvent@@KAHXZ
EB06FF25........FC505553B900000080E8000000000FBAE000F5C3558BEC56:
  0. 05 40ED 00C0 001C:_createPreChainV86IntThunk 005F:_getPreChainV86IntHookAddress 0080:_createPostChainThunk 00B8:_getPostChainHookAddress
F6410401740C83C1086A0051E8........C333C0C39090909090909090909090:
  0. 00 0000 0020 0000:?unhook@VInvalidPageFault@@QAEHXZ
FC:
  525553B900000080E8000000000FBAE000F5C3558BEC56578B7D0CBE:
    0. 00 0000 0044 0014:_createCallbackThunk
  53B900000080E8000000000FBAE000F5C38BC0871C24B900000080FC53E900:
    0. 41 E8C3 0100 0058:_createSharedHWIThunk
  555753B900000080E8000000000FBAE000F5C3558BEC56578B7D0CBE:
    0. 00 0000 004C 0014:_createIPFThunk
  6800000000E8000000008D642404C3FCC744240400000080E9000000008BC0:
    0. 09 285F 00AB 0020:_createOpenThunk 0050:_createPortFunctionThunk
  87:
    0424:
      51555253B90000008050E90000000090558BEC56578B7D0CBE:
        0. 00 0000 004C 0014:_createPortThunk
      53B90000008050E900000000558BEC56578B7D0CBE........B90400:
        0. 15 82C0 0048 0010:_createV86PageThunk
    1C24B90000008053E90000000090558BEC56578B7D0CBE........B90400:
      0. 15 524A 0048 0010:_createDMAChannelThunk
    3C2452510FB6DC530FB6C050B90000008057E9000000002E8BC0558BEC56:
      0. 05 40ED 0054 001C:_createHotKeyThunk
  8BC587042453B90000008050E9000000008BC0558BEC56578B7D0CBE:
    0. 00 0000 0052 0014:_createForeignAPIThunk
FF742404CD20:
  3900400083C4048B4C24088901895104C20800:
    0. 00 0000 0019 0000:_INIT_IFSMgr_DosToWin32Time@8
  3B00400083C4048B4C24088901895104C20800:
    0. 00 0000 0019 0000:_INIT_IFSMgr_NetToWin32Time@8
  F5000100C20400:
    0. 00 0000 000D 0000:_INIT__Debug_Flags_Service@4
