0F:
  AE5C240833C08B4C2408F6C13F7433F6C101BA100000000F45C2F6C1047403:
    0. 26 4B06 0046 0000:_statusfp
  B611:
    4C8BC10FB649010FB6C22480F6D8481BC048C1E008480BC248C1E00848:
      0. 1B EEAB 003B (l)0000:detzcode
    84D2742D6666906666906666900FBEC283E83083F809761980FA2C7414:
      0. 18 811A 0038 (l)0000:getzname
  BAF213E9:
    0. 00 0000 0009 0000:_controlfp (REF 0005: _control87)
  BE01448BDA448BC283E82B83F84A0F870601000048895C241848897C24204C:
    0. 0B 9566 0187 0000:__getmode (l)0046:$LN16 (l)0050:$LN15 (l)005A:$LN14 (l)005F:$common$1449 (l)00E1:$LN5 (l)00E6:$LN4 (l)00F0:$LN3 (l)0111:$LN30
  BF4912:
    4D63C0E9:
      0. 00 0000 000C 0000:__sread (REF 0008: __read)
      1. 00 0000 000C 0000:__swrite (REF 0008: __write)
    E9:
      0. 00 0000 0009 0000:__sseek (REF 0005: __lseek)
      1. 00 0000 0009 0000:__sclose (REF 0005: __close)
33:
  C0:
    41B8020000004885D2440F45C041B900040000E9:
      0. 00 0000 001A 0000:__setbuf
    48:
      8901894108C3:
        0. 00 0000 0009 0000:_FillZeroMan
      8D15........66669066666690390A7411FFC04883C22083F81D72F1B8:
        0. 0A 8D3F 0036 0000:__convfrombaud
    4C8BCA3941104C8BC07554488B520841BA000000F84883C2086690666690:
      0. 44 F35F 0064 (l)0000:pluscount
    833C8100750F48FFC04883F8037CF1B801000000C333C0C3:
      0. 00 0000 001A 0000:_IsZeroMan
    F6C1:
      10BA800000000F45C2F6C10874040FBAE809F6C10474040FBAE80AF6:
        0. 7D F203 009D (l)0000:_hw_cw
      3F7433F6C101BA100000000F45C2F6C104740383C808F6C108740383:
        0. 1D BD4B 003D (l)0000:_abstract_sw
      80BA100000000F45C20FBAE109730383C8080FBAE10A730383C8040F:
        0. 78 1E02 0098 (l)0000:_abstract_cw
    F7C10000FFFF7508B810000000C1E110F7C1000000FF750683C008C1E108:
      0. 32 1F89 0052 (l)0000:hi0bits
  C9E9:
    0. 00 0000 0007 0000:__tmpfile (REF 0003: _tmpfile_pfx)
  D2:
    448D420AE9:
      0. 00 0000 000B 0000:__atoi (REF 0007: __strtol)
    E9:
      0. 00 0000 0007 0000:__atof (REF 0003: __strtod)
4183F9014C8BD17F244963C848C1E903488B024D8B0248FFC94989024C890248:
  0. 2B B0E4 004B (l)0000:swapfunc
44:
  0FB7:
    5206448B5A048B12450FB7CA4181E3FFFF0F00664181E200806641C1E9:
      0. A0 6A6E 00C0 0000:__dtold
    C94585C9750433C0EB3941C1E10566B80F00410FBAE114721266666690:
      0. 56 B563 0076 (l)0000:cvtShortToDouble
  88:
    442418:
      488954241048894C240848:
        81EC:
          B800000048C7442450FEFFFFFFC7:
            0. 1D E6A1 0309 0000:??$getline@DU?$char_traits@D@std@@V?$allocator@D@2@@std@@YAAEAV?$basic_istream@DU?$char_traits@D@std@@@0@AEAV10@AEAV?$basic_string@DU?$char_traits@D@std@@V?$allocator@D@2@@0@D@Z (l)0230:$LN19 (l)02A0:?dtor$0@?0???$getline@DU?$char_traits@D@std@@V?$allocator@D@2@@std@@YAAEAV?$basic_istream@DU?$char_traits@D@std@@@0@AEAV10@AEAV?$basic_string@DU?$char_traits@D@std@@V?$allocator@D@2@@0@D@Z@4HA (l)02C0:?catch$0@?0???$getline@DU?$char_traits@D@std@@V?$allocator@D@2@@std@@YAAEAV?$basic_istream@DU?$char_traits@D@std@@@0@AEAV10@AEAV?$basic_string@DU?$char_traits@D@std@@V?$allocator@D@2@@0@D@Z@4HA (l)02CD:__catch$??$getline@DU?$char_traits@D@std@@V?$allocator@D@2@@std@@YAAEAV?$basic_istream@DU?$char_traits@D@std@@@0@AEAV10@AEAV?$basic_string@DU?$char_traits@D@std@@V?$allocator@D@2@@0@D@Z$0
          E800000048C78424C8000000FEFF:
            0. 13 BA95 00F8 0000:??0?$_Mpunct@D@std@@QEAA@_K_N@Z (l)00C0:?dtor$0@?0???0?$_Mpunct@D@std@@QEAA@_K_N@Z@4HA (l)00E0:?dtor$1@?0???0?$_Mpunct@D@std@@QEAA@_K_N@Z@4HA (REF 0043: ??_7?$_Mpunct@D@std@@6B@)
            1. 13 BA95 00F8 0000:??0?$_Mpunct@G@std@@QEAA@_K_N@Z (l)00C0:?dtor$0@?0???0?$_Mpunct@G@std@@QEAA@_K_N@Z@4HA (l)00E0:?dtor$1@?0???0?$_Mpunct@G@std@@QEAA@_K_N@Z@4HA (REF 0043: ??_7?$_Mpunct@G@std@@6B@)
        83EC:
          28:
            0FBE4424404C8B4424388BD048:
              0. 05 F33E 002E 0000:?assign@?$char_traits@D@std@@SAPEADPEAD_KD@Z
            48:
              837C2438FF7505E8:
                0. 0E FFED 0069 0000:?assign@?$basic_string@DU?$char_traits@D@std@@V?$allocator@D@2@@std@@QEAAAEAV12@_KD@Z
              8B:
                05........483944243875:
                  0. 02 B91A 006F 0000:?assign@?$basic_string@DU?$char_traits@D@std@@V?$allocator@D@2@@std@@QEAAAEAV12@_KD@Z
                442430488B401848394424:
                  0. 06 4D8E 0067 0000:?resize@?$basic_string@DU?$char_traits@D@std@@V?$allocator@D@2@@std@@QEAAX_KD@Z
                4C2430E8........488B44:
                  0. 20 6323 0092 0000:?init@?$basic_ios@GU?$char_traits@G@std@@@std@@IEAAXPEAV?$basic_streambuf@GU?$char_traits@G@std@@@2@_N@Z (0050: 28)
                  1. 20 6323 0091 0000:?init@?$basic_ios@DU?$char_traits@D@std@@@std@@IEAAXPEAV?$basic_streambuf@DU?$char_traits@D@std@@@2@_N@Z (0050: C3)
          3848:
            8B:
              44244048:
                8B4018488B0D:
                  0. 00 0000 00A0 0000:?append@?$basic_string@DU?$char_traits@D@std@@V?$allocator@D@2@@std@@QEAAAEAV12@_KD@Z
                C7C1FFFFFFFF48:
                  0. 0E E0CD 009D 0000:?append@?$basic_string@DU?$char_traits@D@std@@V?$allocator@D@2@@std@@QEAAAEAV12@_KD@Z
              4C2440E8........483B44:
                0. 05 DB0B 00D8 0000:?_Grow@?$basic_string@GU?$char_traits@G@std@@V?$allocator@G@2@@std@@IEAA_N_K_N@Z (003C: 08)
                1. 05 DB0B 00D8 0000:?_Grow@?$basic_string@DU?$char_traits@D@std@@V?$allocator@D@2@@std@@IEAA_N_K_N@Z (003C: 10)
            8D4424204889442428488B4C:
              0. 03 2320 0062 0000:??0?$basic_string@DU?$char_traits@D@std@@V?$allocator@D@2@@std@@QEAA@_KD@Z
            C7442420FEFFFFFF488B5424:
              0. 07 53B7 0078 0000:??0sentry@?$basic_istream@DU?$char_traits@D@std@@@std@@QEAA@AEAV12@_N@Z (l)0060:?dtor$0@?0???0sentry@?$basic_istream@DU?$char_traits@D@std@@@std@@QEAA@AEAV12@_N@Z@4HA (REF 0027: ??0_Sentry_base@?$basic_istream@DU?$char_traits@D@std@@@std@@QEAA@AEAV12@@Z)
              1. 07 53B7 0078 0000:??0sentry@?$basic_istream@GU?$char_traits@G@std@@@std@@QEAA@AEAV12@_N@Z (l)0060:?dtor$0@?0???0sentry@?$basic_istream@GU?$char_traits@G@std@@@std@@QEAA@AEAV12@_N@Z@4HA (REF 0027: ??0_Sentry_base@?$basic_istream@GU?$char_traits@G@std@@@std@@QEAA@AEAV12@@Z)
          7848C7442450FEFFFFFFC7442448:
            0. 12 06D6 00D9 0000:??$?HDU?$char_traits@D@std@@V?$allocator@D@1@@std@@YA?AV?$basic_string@DU?$char_traits@D@std@@V?$allocator@D@2@@0@AEBV10@D@Z (l)0090:?dtor$0@?0???$?HDU?$char_traits@D@std@@V?$allocator@D@1@@std@@YA?AV?$basic_string@DU?$char_traits@D@std@@V?$allocator@D@2@@0@AEBV10@D@Z@4HA (l)00B0:?dtor$1@?0???$?HDU?$char_traits@D@std@@V?$allocator@D@1@@std@@YA?AV?$basic_string@DU?$char_traits@D@std@@V?$allocator@D@2@@0@AEBV10@D@Z@4HA
      668954241048894C2408:
        4883EC:
          180FB6442430488B4C2420488B49:
            0. 28 2739 0048 0000:?is@?$ctype@D@std@@QEBA_NFD@Z
          28440FB64424400FB7542438488B:
            0. 04 E3C0 002D 0000:?do_narrow@?$ctype@G@std@@MEBADGD@Z
        574881EC9000000048C744243000000000:
          0. 33 F572 0089 0000:?_Donarrow@?$ctype@G@std@@IEBADGD@Z
      8854241048894C24088A442410C3:
        0. 00 0000 0013 0000:?do_narrow@?$ctype@D@std@@MEBADDD@Z
      8954241048894C240848:
        81EC6801000048C7842458010000FEFFFF:
          0. 48 E026 01FB 0000:?clear@ios_base@std@@QEAAXH_N@Z (l)01A0:?dtor$0@?0??clear@ios_base@std@@QEAAXH_N@Z@4HA (l)01C0:?dtor$1@?0??clear@ios_base@std@@QEAAXH_N@Z@4HA (l)01E0:?dtor$2@?0??clear@ios_base@std@@QEAAXH_N@Z@4HA
        83EC:
          28837C2438007420488B4C2430E8:
            0. 00 0000 003E 0000:?setstate@?$basic_ios@DU?$char_traits@D@std@@@std@@QEAAXH_N@Z (REF 0035: ?clear@?$basic_ios@DU?$char_traits@D@std@@@std@@QEAAXH_N@Z)
            1. 00 0000 003E 0000:?setstate@?$basic_ios@GU?$char_traits@G@std@@@std@@QEAAXH_N@Z (REF 0035: ?clear@?$basic_ios@GU?$char_traits@G@std@@@std@@QEAAXH_N@Z)
          38488B4424404883784800750D8B44:
            0. 23 3DC5 004C 0000:?clear@?$basic_ios@DU?$char_traits@D@std@@@std@@QEAAXH_N@Z (0008: C3)
    4C2420:
      4488442418488954241048894C24084883EC3848C7442428FEFFFF:
        0. 18 029C 00FA 0000:??0?$basic_istream@GU?$char_traits@G@std@@@std@@QEAA@PEAV?$basic_streambuf@GU?$char_traits@G@std@@@1@_N1@Z (l)00D0:?dtor$0@?0???0?$basic_istream@GU?$char_traits@G@std@@@std@@QEAA@PEAV?$basic_streambuf@GU?$char_traits@G@std@@@1@_N1@Z@4HA (REF 0038: ??_8?$basic_istream@GU?$char_traits@G@std@@@std@@7B@)
        1. 18 029C 00FA 0000:??0?$basic_istream@DU?$char_traits@D@std@@@std@@QEAA@PEAV?$basic_streambuf@DU?$char_traits@D@std@@@1@_N1@Z (l)00D0:?dtor$0@?0???0?$basic_istream@DU?$char_traits@D@std@@@std@@QEAA@PEAV?$basic_streambuf@DU?$char_traits@D@std@@@1@_N1@Z@4HA (REF 0038: ??_8?$basic_istream@DU?$char_traits@D@std@@@std@@7B@)
      4C89442418488954241048894C2408:
        4883EC:
          2848:
            837C244001751E:
              0. 06 8225 0065 0000:?_Chassign@?$basic_string@DU?$char_traits@D@std@@V?$allocator@D@2@@std@@IEAAX_K0D@Z
            8B442438488B4C:
              0. 2B 5DE2 0059 0000:?_Do_narrow_s@?$ctype@D@std@@MEBAPEBDPEBD0DPEAD_K@Z
              1. 48 B39B 007F 0000:?_Do_narrow_s@?$ctype@G@std@@MEBAPEBGPEBG0DPEAD_K@Z
          3848C7442420FEFFFF:
            0. 0C 4137 0088 0000:??0?$_Mpunct@D@std@@QEAA@AEBV_Locinfo@1@_K_N@Z (l)0070:?dtor$0@?0???0?$_Mpunct@D@std@@QEAA@AEBV_Locinfo@1@_K_N@Z@4HA (REF 0039: ??_7?$_Mpunct@D@std@@6B@)
            1. 0C 4137 0088 0000:??0?$_Mpunct@G@std@@QEAA@AEBV_Locinfo@1@_K_N@Z (l)0070:?dtor$0@?0???0?$_Mpunct@G@std@@QEAA@AEBV_Locinfo@1@_K_N@Z@4HA (REF 0039: ??_7?$_Mpunct@G@std@@6B@)
          48488B4424:
            50488B4C:
              0. 09 7E56 0137 0000:?insert@?$basic_string@DU?$char_traits@D@std@@V?$allocator@D@2@@std@@QEAAAEAV12@_K0D@Z (010A: 83)
              1. 09 7E56 0134 0000:?insert@?$basic_string@DU?$char_traits@D@std@@V?$allocator@D@2@@std@@QEAAAEAV12@_K0D@Z (010A: C3)
            58488B4C:
              0. 49 B821 0069 0000:?do_narrow@?$ctype@G@std@@MEBAPEBGPEBG0DPEAD@Z
              1. 46 C754 0066 0000:?do_narrow@?$ctype@D@std@@MEBAPEBDPEBD0DPEAD@Z
        565748:
          81EC:
            0801000048C784:
              0. 0C 23D0 0218 0000:?do_put@?$money_put@GV?$ostreambuf_iterator@GU?$char_traits@G@std@@@std@@@std@@MEBA?AV?$ostreambuf_iterator@GU?$char_traits@G@std@@@2@V32@_NAEAVios_base@2@GAEBV?$basic_string@GU?$char_traits@G@std@@V?$allocator@G@2@@2@@Z (l)0200:?dtor$0@?0??do_put@?$money_put@GV?$ostreambuf_iterator@GU?$char_traits@G@std@@@std@@@std@@MEBA?AV?$ostreambuf_iterator@GU?$char_traits@G@std@@@2@V32@_NAEAVios_base@2@GAEBV?$basic_string@GU?$char_traits@G@std@@V?$allocator@G@2@@2@@Z@4HA (01EB: C3)
              1. 0C 23D0 0228 0000:?do_put@?$money_put@DV?$ostreambuf_iterator@DU?$char_traits@D@std@@@std@@@std@@MEBA?AV?$ostreambuf_iterator@DU?$char_traits@D@std@@@2@V32@_NAEAVios_base@2@DAEBV?$basic_string@DU?$char_traits@D@std@@V?$allocator@D@2@@2@@Z (l)0210:?dtor$0@?0??do_put@?$money_put@DV?$ostreambuf_iterator@DU?$char_traits@D@std@@@std@@@std@@MEBA?AV?$ostreambuf_iterator@DU?$char_traits@D@std@@@2@V32@_NAEAVios_base@2@DAEBV?$basic_string@DU?$char_traits@D@std@@V?$allocator@D@2@@2@@Z@4HA (01EB: 8B)
            3801000048C784:
              0. 0C D530 028B 0000:?do_put@?$money_put@DV?$ostreambuf_iterator@DU?$char_traits@D@std@@@std@@@std@@MEBA?AV?$ostreambuf_iterator@DU?$char_traits@D@std@@@2@V32@_NAEAVios_base@2@DO@Z (l)0270:?dtor$0@?0??do_put@?$money_put@DV?$ostreambuf_iterator@DU?$char_traits@D@std@@@std@@@std@@MEBA?AV?$ostreambuf_iterator@DU?$char_traits@D@std@@@2@V32@_NAEAVios_base@2@DO@Z@4HA (0235: CC)
              1. 0C D530 028B 0000:?do_put@?$money_put@GV?$ostreambuf_iterator@GU?$char_traits@G@std@@@std@@@std@@MEBA?AV?$ostreambuf_iterator@GU?$char_traits@G@std@@@2@V32@_NAEAVios_base@2@GO@Z (l)0270:?dtor$0@?0??do_put@?$money_put@GV?$ostreambuf_iterator@GU?$char_traits@G@std@@@std@@@std@@MEBA?AV?$ostreambuf_iterator@GU?$char_traits@G@std@@@2@V32@_NAEAVios_base@2@GO@Z@4HA (0235: C3)
            B807000048C784:
              0. 0C 1EF5 11CB 0000:?_Putmfld@?$money_put@DV?$ostreambuf_iterator@DU?$char_traits@D@std@@@std@@@std@@AEBA?AV?$ostreambuf_iterator@DU?$char_traits@D@std@@@2@V32@_NAEAVios_base@2@D1V?$basic_string@DU?$char_traits@D@std@@V?$allocator@D@2@@2@@Z (l)10B0:?dtor$0@?0??_Putmfld@?$money_put@DV?$ostreambuf_iterator@DU?$char_traits@D@std@@@std@@@std@@AEBA?AV?$ostreambuf_iterator@DU?$char_traits@D@std@@@2@V32@_NAEAVios_base@2@D1V?$basic_string@DU?$char_traits@D@std@@V?$allocator@D@2@@2@@Z@4HA (l)10D0:?dtor$1@?0??_Putmfld@?$money_put@DV?$ostreambuf_iterator@DU?$char_traits@D@std@@@std@@@std@@AEBA?AV?$ostreambuf_iterator@DU?$char_traits@D@std@@@2@V32@_NAEAVios_base@2@D1V?$basic_string@DU?$char_traits@D@std@@V?$allocator@D@2@@2@@Z@4HA (l)10F0:?dtor$2@?0??_Putmfld@?$money_put@DV?$ostreambuf_iterator@DU?$char_traits@D@std@@@std@@@std@@AEBA?AV?$ostreambuf_iterator@DU?$char_traits@D@std@@@2@V32@_NAEAVios_base@2@D1V?$basic_string@DU?$char_traits@D@std@@V?$allocator@D@2@@2@@Z@4HA (l)1110:?dtor$3@?0??_Putmfld@?$money_put@DV?$ostreambuf_iterator@DU?$char_traits@D@std@@@std@@@std@@AEBA?AV?$ostreambuf_iterator@DU?$char_traits@D@std@@@2@V32@_NAEAVios_base@2@D1V?$basic_string@DU?$char_traits@D@std@@V?$allocator@D@2@@2@@Z@4HA (l)1130:?dtor$4@?0??_Putmfld@?$money_put@DV?$ostreambuf_iterator@DU?$char_traits@D@std@@@std@@@std@@AEBA?AV?$ostreambuf_iterator@DU?$char_traits@D@std@@@2@V32@_NAEAVios_base@2@D1V?$basic_string@DU?$char_traits@D@std@@V?$allocator@D@2@@2@@Z@4HA (l)1150:?dtor$5@?0??_Putmfld@?$money_put@DV?$ostreambuf_iterator@DU?$char_traits@D@std@@@std@@@std@@AEBA?AV?$ostreambuf_iterator@DU?$char_traits@D@std@@@2@V32@_NAEAVios_base@2@D1V?$basic_string@DU?$char_traits@D@std@@V?$allocator@D@2@@2@@Z@4HA (l)1170:?dtor$6@?0??_Putmfld@?$money_put@DV?$ostreambuf_iterator@DU?$char_traits@D@std@@@std@@@std@@AEBA?AV?$ostreambuf_iterator@DU?$char_traits@D@std@@@2@V32@_NAEAVios_base@2@D1V?$basic_string@DU?$char_traits@D@std@@V?$allocator@D@2@@2@@Z@4HA (l)1190:?dtor$7@?0??_Putmfld@?$money_put@DV?$ostreambuf_iterator@DU?$char_traits@D@std@@@std@@@std@@AEBA?AV?$ostreambuf_iterator@DU?$char_traits@D@std@@@2@V32@_NAEAVios_base@2@D1V?$basic_string@DU?$char_traits@D@std@@V?$allocator@D@2@@2@@Z@4HA (l)11B0:?dtor$8@?0??_Putmfld@?$money_put@DV?$ostreambuf_iterator@DU?$char_traits@D@std@@@std@@@std@@AEBA?AV?$ostreambuf_iterator@DU?$char_traits@D@std@@@2@V32@_NAEAVios_base@2@D1V?$basic_string@DU?$char_traits@D@std@@V?$allocator@D@2@@2@@Z@4HA
            C807000048C784:
              0. 0C E815 11DB 0000:?_Putmfld@?$money_put@GV?$ostreambuf_iterator@GU?$char_traits@G@std@@@std@@@std@@AEBA?AV?$ostreambuf_iterator@GU?$char_traits@G@std@@@2@V32@_NAEAVios_base@2@G1V?$basic_string@GU?$char_traits@G@std@@V?$allocator@G@2@@2@@Z (l)10C0:?dtor$0@?0??_Putmfld@?$money_put@GV?$ostreambuf_iterator@GU?$char_traits@G@std@@@std@@@std@@AEBA?AV?$ostreambuf_iterator@GU?$char_traits@G@std@@@2@V32@_NAEAVios_base@2@G1V?$basic_string@GU?$char_traits@G@std@@V?$allocator@G@2@@2@@Z@4HA (l)10E0:?dtor$1@?0??_Putmfld@?$money_put@GV?$ostreambuf_iterator@GU?$char_traits@G@std@@@std@@@std@@AEBA?AV?$ostreambuf_iterator@GU?$char_traits@G@std@@@2@V32@_NAEAVios_base@2@G1V?$basic_string@GU?$char_traits@G@std@@V?$allocator@G@2@@2@@Z@4HA (l)1100:?dtor$2@?0??_Putmfld@?$money_put@GV?$ostreambuf_iterator@GU?$char_traits@G@std@@@std@@@std@@AEBA?AV?$ostreambuf_iterator@GU?$char_traits@G@std@@@2@V32@_NAEAVios_base@2@G1V?$basic_string@GU?$char_traits@G@std@@V?$allocator@G@2@@2@@Z@4HA (l)1120:?dtor$3@?0??_Putmfld@?$money_put@GV?$ostreambuf_iterator@GU?$char_traits@G@std@@@std@@@std@@AEBA?AV?$ostreambuf_iterator@GU?$char_traits@G@std@@@2@V32@_NAEAVios_base@2@G1V?$basic_string@GU?$char_traits@G@std@@V?$allocator@G@2@@2@@Z@4HA (l)1140:?dtor$4@?0??_Putmfld@?$money_put@GV?$ostreambuf_iterator@GU?$char_traits@G@std@@@std@@@std@@AEBA?AV?$ostreambuf_iterator@GU?$char_traits@G@std@@@2@V32@_NAEAVios_base@2@G1V?$basic_string@GU?$char_traits@G@std@@V?$allocator@G@2@@2@@Z@4HA (l)1160:?dtor$5@?0??_Putmfld@?$money_put@GV?$ostreambuf_iterator@GU?$char_traits@G@std@@@std@@@std@@AEBA?AV?$ostreambuf_iterator@GU?$char_traits@G@std@@@2@V32@_NAEAVios_base@2@G1V?$basic_string@GU?$char_traits@G@std@@V?$allocator@G@2@@2@@Z@4HA (l)1180:?dtor$6@?0??_Putmfld@?$money_put@GV?$ostreambuf_iterator@GU?$char_traits@G@std@@@std@@@std@@AEBA?AV?$ostreambuf_iterator@GU?$char_traits@G@std@@@2@V32@_NAEAVios_base@2@G1V?$basic_string@GU?$char_traits@G@std@@V?$allocator@G@2@@2@@Z@4HA (l)11A0:?dtor$7@?0??_Putmfld@?$money_put@GV?$ostreambuf_iterator@GU?$char_traits@G@std@@@std@@@std@@AEBA?AV?$ostreambuf_iterator@GU?$char_traits@G@std@@@2@V32@_NAEAVios_base@2@G1V?$basic_string@GU?$char_traits@G@std@@V?$allocator@G@2@@2@@Z@4HA (l)11C0:?dtor$8@?0??_Putmfld@?$money_put@GV?$ostreambuf_iterator@GU?$char_traits@G@std@@@std@@@std@@AEBA?AV?$ostreambuf_iterator@GU?$char_traits@G@std@@@2@V32@_NAEAVios_base@2@G1V?$basic_string@GU?$char_traits@G@std@@V?$allocator@G@2@@2@@Z@4HA
          83EC48EB1D488B8424:
            0. 15 7784 0091 0000:?_Rep@?$num_put@DV?$ostreambuf_iterator@DU?$char_traits@D@std@@@std@@@std@@AEBA?AV?$ostreambuf_iterator@DU?$char_traits@D@std@@@2@V32@D_K@Z
  89:
    442418:
      4889542410:
        48:
          83EC6848896C24604C896C2440448B2D........45:
            0. 0D 1513 073C 0000:__hsearch_r
          894C2408:
            48:
              81EC28030000488B05........488984:
                0. 2D E00D 0123 0000:__wcstoul (REF 0096: __strtoul)
                1. 2D E00D 0123 0000:__wcstol (REF 0096: __strtol)
              83EC78488B842488000000488B004889:
                0. 2F 6D07 0132 0000:??$pow@M@std@@YA?AV?$complex@M@0@AEBV10@H@Z
              8B442408488B4C2410488908488B4424:
                0. 0E 4D4C 002E 0000:??0?$_Smanip@H@std@@QEAA@P6AXAEAVios_base@1@H@ZH@Z
            565748:
              81ECC8000000488D8424A0000000:
                0. 59 46BB 0190 0000:??$pow@N@std@@YA?AV?$complex@N@0@AEBV10@H@Z (REF 0093: ??0?$complex@N@std@@QEAA@AEBN0@Z)
                1. 59 46BB 0190 0000:??$pow@O@std@@YA?AV?$complex@O@0@AEBV10@H@Z (REF 0093: ??0?$complex@O@std@@QEAA@AEBO0@Z)
              83EC38837C246001750AC7442420:
                0. 2D 593D 0093 0000:?_Init@?$basic_filebuf@DU?$char_traits@D@std@@@std@@IEAAXPEAU__sFILE@@W4_Initfl@12@@Z
                1. 2D 89B7 0093 0000:?_Init@?$basic_filebuf@GU?$char_traits@G@std@@@std@@IEAAXPEAU__sFILE@@W4_Initfl@12@@Z
        F20F114424084883EC18488B442428660F1200F20F11:
          0. 46 53CF 0066 0000:_Poly
      8954241048:
        83EC68488974245048897C24484C89642440458D5008:
          0. 64 80CC 02C4 (l)0000:s2b
        894C240848:
          81EC48020000488B05........48898424:
            0. 18 D894 0203 0000:?_Fiopen@std@@YAPEAU__sFILE@@PEBGHH@Z 0080:?_Fiopen@std@@YAPEAU__sFILE@@PEBDHH@Z
          83EC:
            18488B4424208B40188904248B4424:
              0. 33 5949 0053 0000:?setf@ios_base@std@@QEAAHHH@Z
            3848C7442428FEFFFFFFC744242000:
              0. 12 B765 010C 0000:??0?$basic_ostringstream@DU?$char_traits@D@std@@V?$allocator@D@2@@std@@QEAA@H@Z (l)00C0:?dtor$0@?0???0?$basic_ostringstream@DU?$char_traits@D@std@@V?$allocator@D@2@@std@@QEAA@H@Z@4HA (l)00F0:?dtor$1@?0???0?$basic_ostringstream@DU?$char_traits@D@std@@V?$allocator@D@2@@std@@QEAA@H@Z@4HA (REF 0032: ??_8?$basic_ostringstream@DU?$char_traits@D@std@@V?$allocator@D@2@@std@@7B@)
              1. 12 B765 010C 0000:??0?$basic_ostringstream@GU?$char_traits@G@std@@V?$allocator@G@2@@std@@QEAA@H@Z (l)00C0:?dtor$0@?0???0?$basic_ostringstream@GU?$char_traits@G@std@@V?$allocator@G@2@@std@@QEAA@H@Z@4HA (l)00F0:?dtor$1@?0???0?$basic_ostringstream@GU?$char_traits@G@std@@V?$allocator@G@2@@std@@QEAA@H@Z@4HA (REF 0032: ??_8?$basic_ostringstream@GU?$char_traits@G@std@@V?$allocator@G@2@@std@@7B@)
      F20F114C2410F20F1144240848:
        81ECB8000000660F128424C00000:
          0. 83 118A 0678 0000:__kernel_tan
        83EC38660F12442440F20F114424:
          0. 68 A848 0193 0000:__kernel_sin
      F30F114C2410F30F1144240848:
        81EC88000000F30F108424900000:
          0. 60 7A9F 0650 0000:__kernel_tanf
        83EC28F30F10442430F30F114424:
          0. 68 CF39 0187 0000:__kernel_sinf
    4C2420:
      44:
        88442418488954241048894C24084883EC:
          18488B442428488904:
            0. F4 1FC4 0114 0000:?_Ffmt@?$num_put@DV?$ostreambuf_iterator@DU?$char_traits@D@std@@@std@@@std@@AEBAPEADPEADDH@Z
          3848C7442428FEFFFF:
            0. 18 86A8 00DA 0000:??0?$basic_ostream@GU?$char_traits@G@std@@@std@@QEAA@PEAV?$basic_streambuf@GU?$char_traits@G@std@@@1@_N@Z (l)00B0:?dtor$0@?0???0?$basic_ostream@GU?$char_traits@G@std@@@std@@QEAA@PEAV?$basic_streambuf@GU?$char_traits@G@std@@@1@_N@Z@4HA (REF 0038: ??_8?$basic_ostream@GU?$char_traits@G@std@@@std@@7B@)
            1. 18 86A8 00DA 0000:??0?$basic_ostream@DU?$char_traits@D@std@@@std@@QEAA@PEAV?$basic_streambuf@DU?$char_traits@D@std@@@1@_N@Z (l)00B0:?dtor$0@?0???0?$basic_ostream@DU?$char_traits@D@std@@@std@@QEAA@PEAV?$basic_streambuf@DU?$char_traits@D@std@@@1@_N@Z@4HA (REF 0038: ??_8?$basic_ostream@DU?$char_traits@D@std@@@std@@7B@)
        89442418488954241048894C240848:
          81ECD8:
            0100004863842400:
              0. 06 3CD8 0EAB 0000:__kernel_rem_pio2f (l)0220:$recompute$1010
            0200004863842400:
              0. 06 17DC 0EC2 0000:__kernel_rem_pio2 (l)021F:$recompute$1010
          83EC38:
            488B4424400FB640:
              0. 36 58EA 009C 0000:?_Makpat@?$_Mpunct@D@std@@AEAAXAEAUpattern@money_base@2@III@Z (0045: C3)
            C744242000000000:
              0. 0B 91D1 0044 0000:?do_get@?$messages@D@std@@MEBA?AV?$basic_string@DU?$char_traits@D@std@@V?$allocator@D@2@@2@HHHAEBV32@@Z (REF 002B: ??0?$basic_string@DU?$char_traits@D@std@@V?$allocator@D@2@@std@@QEAA@AEBV01@@Z)
              1. 0B 91D1 0044 0000:?do_get@?$messages@G@std@@MEBA?AV?$basic_string@GU?$char_traits@G@std@@V?$allocator@G@2@@2@HHHAEBV32@@Z (REF 002B: ??0?$basic_string@GU?$char_traits@G@std@@V?$allocator@G@2@@std@@QEAA@AEBV01@@Z)
      48:
        89542410488BC44883EC68488958F8488968F0488970E8488978:
          0. 43 29BF 025C (l)0000:__ntpath2posix
        8BC44883EC:
          68488958F8488968F0488970E8488978E04C8960D8:
            0. 25 53FE 02CF (l)0000:__ultoa
          78488958F8488968F0488970E8488978E04C8960D8:
            0. 29 FFEC 033F (l)0000:__uqtoa
      4C89442418488954241048894C2408:
        48:
          81ECA8000000488B05:
            0. 00 0000 0334 0000:?_Getint@?$time_get@GV?$istreambuf_iterator@GU?$char_traits@G@std@@@std@@@std@@AEBAHAEAV?$istreambuf_iterator@GU?$char_traits@G@std@@@2@0HHAEAH@Z (0312: 00)
            1. 00 0000 0333 0000:?_Getint@?$time_get@DV?$istreambuf_iterator@DU?$char_traits@D@std@@@std@@@std@@AEBAHAEAV?$istreambuf_iterator@DU?$char_traits@D@std@@@2@0HHAEAH@Z (0312: C3)
          83EC:
            18488B442428488904:
              0. FF A414 0152 0000:?_Ifmt@?$num_put@DV?$ostreambuf_iterator@DU?$char_traits@D@std@@@std@@@std@@AEBAPEADPEADPEBDH@Z (0032: C3)
            28488B15........48:
              0. 05 33F0 0033 (!)0000:?
            3848:
              8B44244048C740:
                0. 43 93CA 0178 0000:?_Init@?$basic_stringbuf@DU?$char_traits@D@std@@V?$allocator@D@2@@std@@IEAAXPEBD_KH@Z
                1. 43 EEA8 0170 0000:?_Init@?$basic_stringbuf@GU?$char_traits@G@std@@V?$allocator@G@2@@std@@IEAAXPEBG_KH@Z
              C7442428FEFFFF:
                0. B0 1C1E 0113 0000:??__D@YAXPEAX0_KHP6AX00@ZP6AX0@Z@Z (l)0079:$LN18 (l)0080:?catch$1@?0???__D@YAXPEAX0_KHP6AX00@ZP6AX0@Z@Z@4HA (l)008D:__catch$??__D@YAXPEAX0_KHP6AX00@ZP6AX0@Z@Z$0 (l)00C9:$LN16 (l)00F0:?catch$0@?0???__D@YAXPEAX0_KHP6AX00@ZP6AX0@Z@Z@4HA (l)00FD:__catch$??__D@YAXPEAX0_KHP6AX00@ZP6AX0@Z@Z$1
                1. A6 69E1 0103 0000:??__C@YAXPEAX0_KHP6AX00@ZP6AX0@Z@Z (l)0079:$LN18 (l)0080:?catch$1@?0???__C@YAXPEAX0_KHP6AX00@ZP6AX0@Z@Z@4HA (l)008D:__catch$??__C@YAXPEAX0_KHP6AX00@ZP6AX0@Z@Z$0 (l)00BF:$LN16 (l)00E0:?catch$0@?0???__C@YAXPEAX0_KHP6AX00@ZP6AX0@Z@Z@4HA (l)00ED:__catch$??__C@YAXPEAX0_KHP6AX00@ZP6AX0@Z@Z$1
            58488B4C24:
              60E8:
                0. 00 0000 0317 0000:?seekoff@?$basic_stringbuf@DU?$char_traits@D@std@@V?$allocator@D@2@@std@@MEAA?AV?$fpos@U__mbstate_t@@@2@_JHH@Z (02F6: C3)
                1. 00 0000 032F 0000:?seekoff@?$basic_stringbuf@GU?$char_traits@G@std@@V?$allocator@G@2@@std@@MEAA?AV?$fpos@U__mbstate_t@@@2@_JHH@Z (02F6: 48)
              70E8:
                0. 00 0000 0216 0000:?seekpos@?$basic_stringbuf@DU?$char_traits@D@std@@V?$allocator@D@2@@std@@MEAA?AV?$fpos@U__mbstate_t@@@2@V32@H@Z (01F5: C3)
                1. 00 0000 0226 0000:?seekpos@?$basic_stringbuf@GU?$char_traits@G@std@@V?$allocator@G@2@@std@@MEAA?AV?$fpos@U__mbstate_t@@@2@V32@H@Z (01F5: 24)
        56574881EC:
          28010000488B8C:
            0. 06 DC60 01DC 0000:?seekpos@?$basic_filebuf@DU?$char_traits@D@std@@@std@@MEAA?AV?$fpos@U__mbstate_t@@@2@V32@H@Z (0149: 79)
            1. 06 DC60 01DC 0000:?seekpos@?$basic_filebuf@GU?$char_traits@G@std@@@std@@MEAA?AV?$fpos@U__mbstate_t@@@2@V32@H@Z (0149: 7A)
          88000000488B8C:
            0. 06 C1E3 01A4 0000:?seekoff@?$basic_filebuf@DU?$char_traits@D@std@@@std@@MEAA?AV?$fpos@U__mbstate_t@@@2@_JHH@Z (017D: C3)
            1. 06 C1E3 01A5 0000:?seekoff@?$basic_filebuf@GU?$char_traits@G@std@@@std@@MEAA?AV?$fpos@U__mbstate_t@@@2@_JHH@Z (017D: 5E)
  8B:
    01B824D95B074D85C04C0F44C048B879FBE31FAF05A74149F7E04D69C0A7:
      0. 26 36FB 0046 0000:__rand_r
    0933C0448BD0458D0411453BC14489018BC8410F9CC285D20F98C1443BD1:
      0. 04 DEC0 0024 (l)0000:increment_overflow
    4110448B591448895C241841FFC04181C36C07000048897C24204183F802:
      0. FF 3E0B 0128 0000:_i_day_of_week
    4214448B4924448B51184181C06C0700004181F96179FEFF7427453BC27C:
      0. 83 C26B 00A3 (l)0000:era_contains
    4910448B5914FF410C41FFC14C8BC1458D936C0700004183F90274264183:
      0. C2 A026 00E2 (l)0000:next_day
    C28BC19941F7F885C9894424188954241C781185D2790DFFC0412BD08954:
      0. 0C 206D 002C 0000:__div
4533C933D2458D4101E9:
  0. 00 0000 000E 0000:__setlinebuf
48:
  53:
    448B0A4C8BDA488BD94585C9780C418BC19941F7F8448BD0EB1341BAFFFF:
      0. 3F 49F6 005F (l)0000:normalize_overflow
    4533D2418BD84C8BC1448912488B01440FB6184180FB307C664180FB397F:
      0. 50 CF37 0085 (l)0000:_conv_num
    48:
      81EC:
        1001000048:
          85C98BDA7519E8........C70016000000B8FFFFFFFF:
            0. 0F 9AD7 0054 0000:__ftok
          8D542420488BD9E8........85C0752F8B4424202500:
            0. 13 74B8 0054 0000:__direxists
        30:
          020000488B05........48898424200200008BD9488B0D:
            0. 00 0000 0070 0000:__setservent (0034: 09) (REF 001D: servf)
            1. 00 0000 0070 0000:__setprotoent (0034: 09) (REF 001D: protof)
            2. 00 0000 0070 0000:__setnetent (0034: 09) (REF 001D: netf)
            3. 00 0000 0070 0000:__sethostent (0034: 89)
          080000488B05........4889842420080000488BD9E8:
            0. 0E D0DF 009B 0000:__perror
        40010000488B05........48898424300100004D85C04D8BD0448B:
          0. 71 B1AF 00E9 0000:__radixsort
        80000000488BDA488D542450E8........4C8D0D........486348:
          0. 14 21C2 00A2 0000:__ctime_r
        E0030000488B05........48898424D0030000488D5424208BD9E8:
          0. 00 0000 00BB 0000:__security_checkwritable
        F0000000488B05........48898424E00000004885D2498BC0488B:
          0. 79 E2ED 00C0 0000:__vsnprintf
      83EC:
        20:
          0FB601488BDA3C4A755A4533C048FFC14489020F84AB01000044:
            0. FF BDD5 01D2 (l)0000:getrule
          448B05........8B05........488BD9443BC07C30488B0D:
            0. 00 0000 0077 (l)0000:arg_add
          48:
            83F9FF488BD97513E8........C700090000008BC34883C420:
              0. 0F 6173 0043 0000:__catclose
            85C9:
              488BD974136690488B5B10E8........4885DB488BCB75:
                0. 07 CA8A 0027 (l)0000:fts_lfree
              750D488BCA4883C4205BE9........4885D2750DE8:
                0. 00 0000 0063 0000:__realloc
            8B:
              01488BDA488B5108440FB7084C8D40024C3BC24C89017363:
                0. 1D B1A9 00A4 (l)0000:p_b_eclass
              4108488BD9483901721B837910007507C741100E00000048:
                0. 02 5E64 0064 (l)0000:p_str
              D9:
                488B:
                  4930FF534085C04C63D87E490FB74310660FBAE00C:
                    0. 51 BE99 0071 0000:_sread
                  D1488D0D........E8........85C07415488D0D:
                    0. 00 0000 0037 (l)0000:gmtload
                B8010000008BCAD3E083F8108943307307C74330100000:
                  0. 43 0851 0063 0000:__ohash_init
                E8........:
                  0FB743:
                    020FB74B0448D1E848C1E10F4803C1:
                      0. 06 59CA 0026 0000:__nrand48
                    040FB74B0248C1E0104803C14883C4:
                      0. 03 3F06 0023 0000:__jrand48
                  33C966C783500100000400E8........488D:
                    0. 10 FDC8 0046 0000:__login
                  440FB71B33D24585DB75048BC2EB3341C1E3:
                    0. FF A35B 0148 0000:__erand48
                  488D:
                    15........4533C0488BCB4883C4205B:
                      0. 01 B78A 0025 0000:__mktime
                    4C243833D2E8........85C0740BB8FF:
                      0. 33 A10A 0082 0000:__ftime
                  85C07517488B03FF4B080FB61048FFC04889:
                    0. 14 E3F3 0034 0000:__srget
              DAE8........33C94883F8FF4889030F95C18D41FF4883C4:
                0. 03 3F06 0023 0000:__fgetpos
          498BD8:
            4C8BC1488B098BC24803C04C3944C108751341834038FF:
              0. 31 FAB8 005E 0000:__ohash_insert
            F20F10D8448BC2488D15........488BCB66490F7ED9E8:
              0. 00 0000 002D 0000:__gcvt
          4C8B:
            05........33D2488BD9E8........33C983F8FF480F44D9:
              0. 09 6390 0029 0000:__mktemp
            C1488B098BC24803C0488B5CC1084885DB7431493BD8742C:
              0. 1F 239C 0054 0000:__ohash_remove
          813965F200007557488B59184885DB744E813B45D20000754633:
            0. 0F 3540 006B 0000:__regfree
          83:
            3D........00:
              488B:
                D974:
                  05E8........668363109F833D:
                    0. 00 0000 0033 0000:__clearerr
                  0C488D0D........E8........48:
                    8B:
                      0. 01 54B7 00AB 0000:__atexit
                    8D:
                      0. 01 54B7 0066 0000:__putws
                DA4C8D05........744D4C8B5110666690:
                  0. 34 DC14 008B (l)0000:regatoi
              740C488D0D........E8........488D0D:
                0. 00 0000 005A 0000:__mrand48 (0039: C3)
                1. 00 0000 005D 0000:__lrand48 (0039: C4)
            7A0C00488BDA750D33C933C0894A084883C4205BC3E8:
              0. 00 0000 002F (l)0000:__sprint
            E2018BD903D283CA01E8........4885C0740D488B004885C0:
              0. 09 2286 0060 (l)0000:_get_gid
          8B:
            05........488BD985C07412488D0D........E8........8B:
              0. 01 D5A7 007A 0000:__srand48
            15........488BD985D27412488D0D........E8........8B:
              0. 01 54B7 0087 0000:__lcong48 (0065: C3)
              1. 01 54B7 00B0 0000:__seed48 (0065: C7)
            D9:
              488D4C2438E8........488D4C24388BD3E8........85C0:
                0. 0E 133D 0038 0000:__sighold
                1. 0E DF20 0038 0000:__sigrelse
              4C8D44243833D233C9E8........83F8FF7411488D4C2438:
                0. 03 93FD 0086 0000:__sigpause
              B924000000E8........C7400801000000C7400C02000000:
                0. 17 6D94 0037 (l)0000:i2b
              E8........:
                4533C0BA097400208BCBE8........83F8FF75:
                  0. 0C DC0C 005C 0000:__login_tty
                85C0750C83FB20488D15........7507488D15:
                  0. 00 0000 003F (l)0000:pchar
                8BCB85C0740A4883C4205BE9........E8:
                  0. 00 0000 003B (l)0000:othercase
          8D8200010000488BD901412C4863512C488B4920E8........33:
            0. 13 7F6F 0033 (l)0000:fts_palloc
          E8........8BD8E8........33C0F6C33F7433F6C301B9100000:
            0. 32 D1C3 0052 0000:_clearfp
        408BD9488D4C242848C744242001000000C744242C00000000E8:
          0. 00 0000 0038 0000:__sigignore
        5048:
          634118488BDA4C8D0D........85C0781583F8077D104C8D04:
            0. 04 C441 008A 0000:__asctime_r
          8B:
            05........48894424483B0D........:
              448BC14C8D0D:
                0. 00 0000 00F4 0000:__strerror
              4C8D05........73:
                0. 07 645F 00D1 0000:__strsigname (REF 0027: _sys_signame)
                1. 07 645F 00D1 0000:__strsignal (REF 0027: _sys_siglist)
            DA488D542420E8........85C0752B488D542420488B0A48:
              0. 28 4DAD 0048 0000:__getmntent
          8D442444498BD94C8D4C24404889442430C7442428:
            65000000:
              0. 0C 3407 0044 0000:__ecvt
            66000000:
              0. 09 A19D 0041 0000:__fcvt
        60488BDA488D542420E8........85C0448BD8753E488D54242048:
          0. 3E 6629 005E 0000:__getvfsent
      85C9488BDA4C8BC10F84F30000000FBE098D41D083F8090F87E4000000:
        0. F6 B4C8 0116 (l)0000:getsecs
      8B41384533C94C8BC24C6350144C635810488BD949C1E2054C0350184D:
        0. 43 CEE2 0063 (l)0000:freeset
    8B:
      01448B1A4533D2468D0418488BDA458BCA443BC07205453BC3730641B9:
        0. 5C 2ED9 007C 0000:__add_12
      4114448BCA4533D283C0074C8BD9450FB7C09983E20703C2410FB7D14C:
        0. 35 8B8D 0055 (l)0000:samesets
  56574883EC58488D0424488BF833C0B950000000F3AA488D05........488D:
    0. 16 B142 0036 (l)0000:??__E?_Stz@?$fpos@U__mbstate_t@@@std@@0U__mbstate_t@@B@@YAXXZ
  57:
    48:
      83:
        3A004C8BC1751A33C048C7C1FFFFFFFF498BF8F2AE48F7D148FFC949:
          0. 33 3885 0053 0000:__ohash_interval
        EC:
          10488D0424488BF833C0B901000000F3AA4883C4105FC3:
            0. 00 0000 001C (l)0000:??__Enothrow@std@@YAXXZ
          20833D........000F85:
            D1000000833D........007419488D0D:
              0. 00 0000 0128 0000:_getInstallPath_Win
            FE000000833D........007419488D0D:
              0. 00 0000 011E 0000:_getInstallPath
          30488B05........48894424284885D24C8BCA448BD10F84F10000:
            0. 0D 47BF 0127 0000:__strerror_r
          4048894C243033C0488BF948C7C1FFFFFFFFC7442428010000004C:
            0. 3A 7534 0064 0000:_s___fputs
      8B3933D24C8BC14885FF74269033C048C7C1FFFFFFFFF2AE498B780848:
        0. 1A E281 003A (l)0000:fts_maxarglen
    4C8BDC4881ECF0000000488B05........48898424E000000048894C2440:
      0. 2D 1688 009F 0000:__vsscanf
  6341144533D248897C2420488D7918458BC2448B4C87FC4C8D5C87FC41F7C1:
    0. FF 551F 0149 (l)0000:b2d (l)00BE:$ret_d$1676
  81EC:
    2801000033D24889BC2448010000E8........83F8FF8BF87417488D54:
      0. 05 6284 00F3 (l)0000:load_msgcat
    48:
      020000488B05........4889842430020000488B05........4885C0:
        0. 0A 85ED 027E 0000:__getnetent (l)00A0:$again$1354 (01E9: 00)
        1. 0A 85ED 0214 0000:__getprotoent (l)00A0:$again$1548 (01E9: C3)
        2. 0A 85ED 023D 0000:__getservent (l)00A0:$again$1594 (01E9: 24)
        3. 0A AD7B 0268 0000:__gethostent (l)00B0:$again$1399
      050000488B05........4889842430050000E8........488D4C2460:
        0. 01 3E9B 00C6 0000:__vfork
    58010000488B05........4889842440010000833D........FF752EBA:
      0. 0A 72A6 0132 (l)0000:connectlog
    9800000048C7842488000000FEFFFFFF488D15........488D4C2460E8:
      0. 00 0000 0178 0000:?_Xlen@_String_base@std@@SAXXZ (l)0060:?dtor$0@?0??_Xlen@_String_base@std@@SAXXZ@4HA 0080:?_Xran@_String_base@std@@SAXXZ (l)00E0:?dtor$0@?0??_Xran@_String_base@std@@SAXXZ@4HA 0100:?_Xinvarg@_String_base@std@@SAXXZ (l)0160:?dtor$0@?0??_Xinvarg@_String_base@std@@SAXXZ@4HA
    F8000000488B05........48898424E0000000488D44242048894C2440:
      0. 45 13F2 0086 0000:__vsprintf
  83:
    3900750748C70124D95B074C8B0148B879FBE31FAF05A74149F7E048C1EA:
      0. 36 365F 0056 (l)0000:do_rand
    EC:
      18:
        440FB7590A448B41068B410248895C2430488BDA0FB711450FB7D345:
          0. AB 3A5C 00CB 0000:_ld12told
        48:
          85:
            C94C8BC97419448B41144C63591C4181C06C0700004585DB7805:
              0. FF 3D31 0263 0000:_i_datefromyearandyearday
            D24C8B5C244048895C241048897C240841C70300000000488BDA:
              0. FF 5799 01B6 (l)0000:wparse_cmdline
          895C24:
            288BC248897424309933F648897C243883E21F8BF84C8BC1:
              0. A4 B6D4 00C4 0000:_ShrMan
            3048897C2438488B3D........4C8D1C2433DB6690666690:
              0. FF FC3B 0132 0000:__inet_network (l)0020:$again$767
          8B41384C896424104C896C24084C8B40184C636014440FB76A0A4C:
            0. FF 55D2 014A (l)0000:freezeset
        85C948895C241048897C2408488D3D........448BDA8BD94C8D15:
          0. 00 0000 00C4 (l)0000:_conv
        8A04244883C418C3:
          0. 00 0000 000C 0000:??$_Char_traits_cat@U?$char_traits@D@std@@@std@@YA?AU_Secure_char_traits_tag@0@XZ
        C7042400000000EB088B0424FFC0890424833C24027D154863042448:
          0. 02 16E8 02FF (l)0000:?__interix_specific_init@@YAHXZ 0040:_cpplock 0080:_cppunlock 00C0:?set_terminate@@YAP6AXXZP6AXXZ@Z 0120:_get_terminate 0150:?set_unexpected@@YAP6AXXZP6AXXZ@Z 01B0:_get_unexpected 01D0:?_set_se_translator@@YAP6AXIPEAU_EXCEPTION_POINTERS@@@ZP6AXI0@Z@Z 0230:?__set_inconsistency@@YAP6AXXZP6AXXZ@Z 0280:?set_terminate@@YAP6AXXZH@Z 02B0:?set_unexpected@@YAP6AXXZH@Z 02E0:?_set_se_translator@@YAP6AXIPEAU_EXCEPTION_POINTERS@@@ZH@Z
      28:
        0F:
          B6:
            0148895C244048897C244833FF3C2D488BDA750ABF0100000048:
              0. 0C 7E0C 0066 (l)0000:getoffset
            411048895C2440488BD924093C09753F833D........007405E8:
              0. 00 0000 0061 (l)0000:lflush
          B7424248895C243048896C243866894240488D6A68FFC0488BDA48:
            0. 12 66AE 00AD (l)0000:fts_load
          BE014C8BD283F861743083F872741F83F8777412E8........C700:
            0. 5B D589 007B 0000:__sflags
          BF411048895C2438488BD9A808753A48837948007427E8:
            0. 7A D10E 00E1 0000:__sflush
        33D2488D0D........E8........48:
          83C428C3:
            0. 00 0000 0017 (l)0000:??__E?id@?$collate@D@std@@2V0locale@2@A@@YAXXZ (REF 0009: ?id@?$collate@D@std@@2V0locale@2@A)
            1. 00 0000 0017 (l)0000:??__E?id@?$messages@D@std@@2V0locale@2@A@@YAXXZ (REF 0009: ?id@?$messages@D@std@@2V0locale@2@A)
            2. 00 0000 0017 (l)0000:??__E?id@?$money_get@DV?$istreambuf_iterator@DU?$char_traits@D@std@@@std@@@std@@2V0locale@2@A@@YAXXZ (REF 0009: ?id@?$money_get@DV?$istreambuf_iterator@DU?$char_traits@D@std@@@std@@@std@@2V0locale@2@A)
            3. 00 0000 0017 (l)0000:??__E?id@?$money_put@DV?$ostreambuf_iterator@DU?$char_traits@D@std@@@std@@@std@@2V0locale@2@A@@YAXXZ (REF 0009: ?id@?$money_put@DV?$ostreambuf_iterator@DU?$char_traits@D@std@@@std@@@std@@2V0locale@2@A)
            4. 00 0000 0017 (l)0000:??__E?id@?$moneypunct@D$0A@@std@@2V0locale@2@A@@YAXXZ (REF 0009: ?id@?$moneypunct@D$0A@@std@@2V0locale@2@A)
            5. 00 0000 0017 (l)0000:??__E?id@?$moneypunct@D$00@std@@2V0locale@2@A@@YAXXZ (REF 0009: ?id@?$moneypunct@D$00@std@@2V0locale@2@A)
            6. 00 0000 0017 (l)0000:??__E?id@?$time_get@DV?$istreambuf_iterator@DU?$char_traits@D@std@@@std@@@std@@2V0locale@2@A@@YAXXZ (REF 0009: ?id@?$time_get@DV?$istreambuf_iterator@DU?$char_traits@D@std@@@std@@@std@@2V0locale@2@A)
            7. 00 0000 0017 (l)0000:??__E?id@?$time_put@DV?$ostreambuf_iterator@DU?$char_traits@D@std@@@std@@@std@@2V0locale@2@A@@YAXXZ (REF 0009: ?id@?$time_put@DV?$ostreambuf_iterator@DU?$char_traits@D@std@@@std@@@std@@2V0locale@2@A)
            8. 00 0000 0017 (l)0000:??__E?id@?$ctype@D@std@@2V0locale@2@A@@YAXXZ (REF 0009: ?id@?$ctype@D@std@@2V0locale@2@A)
            9. 00 0000 0017 (l)0000:??__E?id@?$ctype@G@std@@2V0locale@2@A@@YAXXZ (REF 0009: ?id@?$ctype@G@std@@2V0locale@2@A)
            10. 00 0000 0017 (l)0000:??__E?id@?$codecvt@GDU__mbstate_t@@@std@@2V0locale@2@A@@YAXXZ (REF 0009: ?id@?$codecvt@GDU__mbstate_t@@@std@@2V0locale@2@A)
            11. 00 0000 0017 (l)0000:??__E?id@?$num_get@DV?$istreambuf_iterator@DU?$char_traits@D@std@@@std@@@std@@2V0locale@2@A@@YAXXZ (REF 0009: ?id@?$num_get@DV?$istreambuf_iterator@DU?$char_traits@D@std@@@std@@@std@@2V0locale@2@A)
            12. 00 0000 0017 (l)0000:??__E?id@?$num_put@DV?$ostreambuf_iterator@DU?$char_traits@D@std@@@std@@@std@@2V0locale@2@A@@YAXXZ (REF 0009: ?id@?$num_put@DV?$ostreambuf_iterator@DU?$char_traits@D@std@@@std@@@std@@2V0locale@2@A)
            13. 00 0000 0017 (l)0000:??__E?id@?$numpunct@D@std@@2V0locale@2@A@@YAXXZ (REF 0009: ?id@?$numpunct@D@std@@2V0locale@2@A)
            14. 00 0000 0017 (l)0000:??__E?id@?$codecvt@DDU__mbstate_t@@@std@@2V0locale@2@A@@YAXXZ (REF 0009: ?id@?$codecvt@DDU__mbstate_t@@@std@@2V0locale@2@A)
            15. 00 0000 0017 (l)0000:??__E?id@?$time_put@GV?$ostreambuf_iterator@GU?$char_traits@G@std@@@std@@@std@@2V0locale@2@A@@YAXXZ (REF 0009: ?id@?$time_put@GV?$ostreambuf_iterator@GU?$char_traits@G@std@@@std@@@std@@2V0locale@2@A)
            16. 00 0000 0017 (l)0000:??__E?id@?$num_get@GV?$istreambuf_iterator@GU?$char_traits@G@std@@@std@@@std@@2V0locale@2@A@@YAXXZ (REF 0009: ?id@?$num_get@GV?$istreambuf_iterator@GU?$char_traits@G@std@@@std@@@std@@2V0locale@2@A)
            17. 00 0000 0017 (l)0000:??__E?id@?$num_put@GV?$ostreambuf_iterator@GU?$char_traits@G@std@@@std@@@std@@2V0locale@2@A@@YAXXZ (REF 0009: ?id@?$num_put@GV?$ostreambuf_iterator@GU?$char_traits@G@std@@@std@@@std@@2V0locale@2@A)
            18. 00 0000 0017 (l)0000:??__E?id@?$numpunct@G@std@@2V0locale@2@A@@YAXXZ (REF 0009: ?id@?$numpunct@G@std@@2V0locale@2@A)
            19. 00 0000 0017 (l)0000:??__E?id@?$collate@G@std@@2V0locale@2@A@@YAXXZ (REF 0009: ?id@?$collate@G@std@@2V0locale@2@A)
            20. 00 0000 0017 (l)0000:??__E?id@?$messages@G@std@@2V0locale@2@A@@YAXXZ (REF 0009: ?id@?$messages@G@std@@2V0locale@2@A)
            21. 00 0000 0017 (l)0000:??__E?id@?$money_get@GV?$istreambuf_iterator@GU?$char_traits@G@std@@@std@@@std@@2V0locale@2@A@@YAXXZ (REF 0009: ?id@?$money_get@GV?$istreambuf_iterator@GU?$char_traits@G@std@@@std@@@std@@2V0locale@2@A)
            22. 00 0000 0017 (l)0000:??__E?id@?$money_put@GV?$ostreambuf_iterator@GU?$char_traits@G@std@@@std@@@std@@2V0locale@2@A@@YAXXZ (REF 0009: ?id@?$money_put@GV?$ostreambuf_iterator@GU?$char_traits@G@std@@@std@@@std@@2V0locale@2@A)
            23. 00 0000 0017 (l)0000:??__E?id@?$moneypunct@G$0A@@std@@2V0locale@2@A@@YAXXZ (REF 0009: ?id@?$moneypunct@G$0A@@std@@2V0locale@2@A)
            24. 00 0000 0017 (l)0000:??__E?id@?$moneypunct@G$00@std@@2V0locale@2@A@@YAXXZ (REF 0009: ?id@?$moneypunct@G$00@std@@2V0locale@2@A)
            25. 00 0000 0017 (l)0000:??__E?id@?$time_get@GV?$istreambuf_iterator@GU?$char_traits@G@std@@@std@@@std@@2V0locale@2@A@@YAXXZ (REF 0009: ?id@?$time_get@GV?$istreambuf_iterator@GU?$char_traits@G@std@@@std@@@std@@2V0locale@2@A)
          8D0D........E8........4883:
            0. 03 53B6 0023 (l)0000:??__Eclassic_locale@std@@YAXXZ
        41:
          B823000000488D15........418D48DFE8........B9FF00000048:
            0. 04 BA0A 0028 0000:_fptrap
          B9010000004533C0488D15........488D0D........E8:
            0. 03 29E1 0031 (l)0000:??__Ewcout@std@@YAXXZ (REF 0010: wfout)
            1. 03 29E1 0031 (l)0000:??__Ewclog@std@@YAXXZ (REF 0010: wflog)
            2. 03 29E1 0031 (l)0000:??__Ewcerr@std@@YAXXZ (REF 0010: wferr)
            3. 03 29E1 0031 (l)0000:??__Ecout@std@@YAXXZ (REF 0010: fout)
            4. 03 29E1 0031 (l)0000:??__Eclog@std@@YAXXZ (REF 0010: flog)
            5. 03 29E1 0031 (l)0000:??__Ecerr@std@@YAXXZ (REF 0010: ferr)
          F6C10148895C2430488974244048897C2448498BD80FB6F2488BF9:
            0. 6C A269 049D 0000:__unvis (l)009F:$LN43 (l)00D6:$LN40 (l)017B:$LN33 (l)018B:$LN32 (l)019C:$LN31 (l)01A9:$LN30 (l)01B3:$LN29 (l)01C6:$LN28 (l)01D9:$LN27 (l)01EC:$LN26 (l)01FF:$LN25 (l)0212:$LN24 (l)0225:$LN23 (l)0238:$LN22 (l)024B:$LN21 (l)025E:$LN19 (l)026E:$LN34 (l)027E:$LN18 (l)02B8:$LN13 (l)02CC:$LN12 (l)02FE:$LN9 (l)0331:$LN7 (l)0356:$LN5
        448B:
          15........4585D27413488D0D........E8........448B15:
            0. 00 0000 00E2 0000:__sinit
          1D........48895C2430488BD94585DB7413488D0D........E8:
            0. 00 0000 00DD 0000:_dorand48
        4585C0742D4183F80174274183F80274214183F803741B4183F80474:
          0. 02 288F 0042 0000:__fts_set
        48:
          39512048895C244048897C2448488BFA488BD97D47488B4918488D:
            0. 07 CD6C 0070 (l)0000:enlarge
          3BCA48895C244048897C2448488BFA488BD9731A66669066666690:
            0. 22 9313 0042 0000:_initterm
          63818000000048895C244048897C2448483BC2488BFA488BD9732C:
            0. 05 2476 005D (l)0000:__slbexpand
          83:
            3D........007412E8........C7001000000033C04883C428C3:
              0. 01 3E9B 0031 0000:__hcreate
            79480048895C244048897C2448488BFA488BD9751FE8:
              0. 32 F25D 0124 0000:_ftello
            B9000100000048895C244048897C24488BFA488BD9741B8B8110:
              0. 14 D586 0050 0000:__siglongjmp
            FA01:
              48895C2438488974244048897C2448488BDA488BF1498BF8:
                0. 05 3583 007A 0000:DllMainCRTStartup
              7526488D15........488D0D........E8........488D15:
                0. 00 0000 0037 0000:_CRT_INIT
          85:
            C9:
              0F84:
                980000008039000F848F000000488BD166669066666690:
                  0. 4D 70B8 00B1 0000:__basename
                BF0000008039000F84B6000000488BC166669066666690:
                  0. 71 B215 00D8 0000:__dirname
              48:
                89:
                  5C24:
                    38488BD97518E8........C700090000008D43FF48:
                      0. 0B 4738 0115 0000:__fclose
                    4048:
                      897C2448488BD9751DE8........C700090000:
                        0. 15 5E53 00BE 0000:__fpurge
                      8BD97515488D0D........488B5C24404883C4:
                        0. 02 7B98 0065 0000:__fflush
                  6C243848897424404C89642420418BE8488BF1448BE20F:
                    0. 12 8881 00C3 (l)0000:_nftw_free
                  742440:
                    458BD0488BF14C8BCA750C33C0488B7424404883:
                      0. 19 699A 00DD 0000:__stripdomainprefix
                    488BF17453488B49104885C9744A486346084889:
                      0. 1D F290 006E 0000:__globfree
                8D15........7912E8........C7001600000033C04883C4:
                  0. 4C D32A 0075 0000:__l64a
              4C8BC9747A410FB6014533D284C0498BCA458BC27461666690:
                0. 67 959A 009D 0000:__a64l
              7405E8........4883C428C3:
                0. 00 0000 0013 (l)0000:Bfree
              7513488D05........488905........4883C428C3BA2F0000:
                0. 04 5BBC 0041 (l)0000:setup_progname
            D2:
              48895C24:
                3048896C24384889742440418BE8488BD9488BF20F:
                  0. 08 942A 012A 0000:_prefixInstallPath (00D0: 90)
                  1. 08 942A 012A 0000:_prefixInstallPath_Win (00D0: 32)
                40488BD9750D8D42FF488B5C24404883C428C3488B:
                  0. 0A FAB2 00FE (l)0000:p_b_symbol
              7441488B024885C0743983F9017518448B4A184C8D4210488B:
                0. 0A 4A34 005F 0000:__path_convert
          89:
            5C24:
              2048896C241833ED85D248897424104863F248897C240848:
                0. 83 83FF 00A3 0000:__cyclebuf
              30:
                0FB61A48896C243883FB5E488974244048897C24484C89:
                  0. 29 3321 00D7 (l)0000:__sccl (l)0070:$doswitch$2803
                4889:
                  6C243848:
                    63E9488BCD4889742440488BDD4869C9B0:
                      0. 08 EB5A 00E4 (l)0000:moreglue
                    89:
                      742440:
                        448D42FF48897C24484C896424:
                          0. FF 1B2A 0156 0000:_RoundMan
                        48:
                          897C2448:
                            418BD8488BEA488B:
                              0. 02 11CF 0094 0000:__fseek (006E: 83)
                              1. 02 11CF 0091 0000:fseeko (006E: C3)
                            488BF1488BEA33C0:
                              0. 37 2F25 00DC (l)0000:mcadd
                            498BE88BD9488BFA:
                              0. 01 3E9B 00D1 0000:__verr
                          8DB14004000048897C244848:
                            0. 26 AB51 012A (l)0000:_nftw_ff
                        498BF148897C2448488BDA498B:
                          0. 64 CE98 0084 (l)0000:med3
                        8BF133D233C948897C2448E8:
                          0. 00 0000 0091 0000:__memberOfGroup
                      7C24484C89642420488BEA488BF94D8B:
                        0. 06 BCC8 0183 (l)0000:token
                    8B:
                      69284889742440498BF04C8964242048:
                        0. 29 7DD7 00B8 (l)0000:dupl
                      D94889742440488D0D........BA0500:
                        0. 0D AA65 0139 0000:__getwd
                  74244048897C2448488BFA4963F033DB488D05:
                    0. 00 0000 00BA 0000:__convtobaud
                  7C2448488BF9488B0D........33DB4885C9753FB9:
                    0. 06 0831 0129 0000:_internal_rewrite_nt_env
                8B5914448BD285DB448D8B6C0700004C8BD9780485D279:
                  0. FF 779A 0398 0000:_i_datefromyearandweekno
                E8........8BD8488D05........2B1D........85DB0F:
                  0. 42 120C 013C 0000:__f_prealloc
              3848:
                89742440:
                  33F64883F965488BD97305488BDEEB144881:
                    0. 20 5AC5 0118 0000:__hcreate_r
                  48:
                    897C2448:
                      488BF2488BD9E8........833D:
                        0. 00 0000 00BF 0000:__vwarn
                      4963F8488BDA488BF13B79307E:
                        0. 13 8D3E 00D6 (l)0000:fts_sort
                    8BF148897C2448488BFA498BD0488BCF49:
                      0. 03 3B19 004B 0000:__ohash_qlookupi
                  8BF18B0D........48897C24488BFAE8:
                    0. 00 0000 006C 0000:__getnetbyaddr
                8B:
                  591848897424404885DB48:
                    897C2448488BF2745166:
                      0. 2D F1AB 00B4 0000:__mcin
                    8BF2751133C0488B7424:
                      0. 3D 9ADF 00AD (l)0000:mcfind
                  D9B918000000488974244048897C24488BFAE8:
                    0. 00 0000 0080 (l)0000:stufftab
              40:
                48:
                  897C2448:
                    48:
                      8B:
                        C1488BF90FB60A488BDA84C9741B6690:
                          0. 0F 1043 004B 0000:__strvis
                        D9E8........:
                          33D2488BCB8B38448D42:
                            0. 02 7199 0042 0000:__atol
                          833D........008B3875:
                            0. 02 B91A 0076 0000:__rewind
                        FA48:
                          0FAFF9488BCFE8........4885C0:
                            0. 2D A3B3 0063 0000:__calloc
                          8BD9E8........4C8BC733D2488B:
                            0. 02 034A 0038 0000:__localtime_r
                      8D3D........488D1D........C705:
                        0. 00 0000 007A 0000:_cexit
                    8BF9E8........33D233C9C70000000000E8:
                      0. 00 0000 0061 0000:__nice
                  8B:
                    1948897C24484885DB488BF9743066837B58007C21:
                      0. 16 7E4A 00E9 0000:__fts_close
                    D948897C2448:
                      33C048C7C1FFFFFFFF488BFBF2AE48:
                        0. 19 529C 008C 0000:__makebuf
                      4C8BC3488BFA488BCA4C2BC2666690:
                        0. 23 7903 0093 (l)0000:flipslash
                    DA488B5268837A100048897C24488BF97507C74210:
                      0. 1D F11B 011F 0000:_s___ungetc
                BB0100000048897C2448D3E38BF98D43FF4863C8488D0C:
                  0. 06 25CC 0047 (l)0000:Balloc
            6C24384889:
              742440:
                488BF1F64640084963E848897C24484C8964:
                  0. 18 70C9 00AF (l)0000:fts_alloc
                4C8964242048895C24304C8BE133ED48897C:
                  0. 05 B7EB 008B 0000:_fwalk
              7C24484C896424204D63E0488BFA488BE94A3B14E1:
                0. 0E F2B8 00C5 0000:__winwrap_convert_optarg
            742440:
              488BF18B0D........48897C2448E8........E8:
                0. 00 0000 009B 0000:__getnetbyname (l)007B:$found$1022
              8BC248897C244883E0038BFA488BF1741B488D0D:
                0. 00 0000 00F8 (l)0000:pow5mult
            7C2448:
              488BF9:
                488B4958488D4774483BC87559B900040000E8:
                  0. 00 0000 00D3 (l)0000:__submore
                E8........:
                  448B05........4585C07413488D0D:
                    0. 00 0000 00F6 0000:__pclose
                  833D........00740C488D0D:
                    0. 00 0000 0066 0000:__localtime
              8BF98B0D........85C97412488D0D........E8:
                0. 00 0000 0091 (l)0000:searchtab
          8B:
            0148895C243048896C2438:
              0FB710488B69284C8D400248897424:
                0. 1D 8FD7 0631 (l)0000:p_ere_exp (l)0066:$LN37 (l)0124:$LN32 (l)013D:$LN31 (l)0167:$LN30 (l)018B:$LN29 (l)01A4:$LN28 (l)01BD:$LN27 (l)01E9:$LN24 (l)01F6:$LN23 (l)0227:$LN22 (l)029E:$LN80
              488B6928488974244048897C24480F:
                0. 17 4C1E 05AE (l)0000:p_simp_re (l)0092:$LN30 (l)00AB:$LN29 (l)0174:$LN24 (l)018D:$LN23 (l)0207:$LN20
            05........:
              4885C07402FFD048895C244048897C2448488D3D:
                0. 00 0000 0078 0000:_cinit
              4C8B15........4C630D........48895C24384885:
                0. 0C CF63 0241 0000:__getopt
            0D........4885C974:
              19833D........007510E8........48C7:
                0. 01 D5A7 002E 0000:__endhostent
              1BE8........4533DB4C891D........44:
                0. 02 F79F 003A 0000:__endprotoent (REF 0007: protof)
                1. 02 F79F 003A 0000:__endservent (REF 0007: servf)
                2. 02 F79F 003A 0000:__endnetent (REF 0007: netf)
            412848895C2440488BD94889423048897C2448488BFA488B5128:
              0. 09 40E0 0067 (l)0000:stripsnug
            426848895C244048897C244883781000488BFA488BD97507C740:
              0. 17 4F91 0071 0000:_s___fputws
            49684883C108E8........F7D81BC04883C428C3:
              0. 00 0000 001A 0000:__ftrylockfile
            513848895C243048896C243848636A14488BD948897424408D45:
              0. 41 386A 01B1 (l)0000:allocset
            D148895C243048896C2438488BE94533C033C9E8........4883:
              0. 08 737E 00E4 (l)0000:terminateWithBSlash
          8D:
            05........4805:
              30010000488BD0488D0D........E8:
                0. 03 29E1 0031 (l)0000:??__Ewflog@std@@YAXXZ (REF 0017: wflog)
                1. 03 29E1 0031 (l)0000:??__Ewferr@std@@YAXXZ (REF 0017: wferr)
                2. 03 29E1 0031 (l)0000:??__Eflog@std@@YAXXZ (REF 0017: flog)
                3. 03 29E1 0031 (l)0000:??__Eferr@std@@YAXXZ (REF 0017: ferr)
              98000000488BD0488D0D........E8:
                0. 03 29E1 0031 (l)0000:??__Ewfout@std@@YAXXZ (REF 0017: wfout)
                1. 03 29E1 0031 (l)0000:??__Efout@std@@YAXXZ (REF 0017: fout)
            0D........:
              4889:
                5C24404533C033D248897C244833FFE8:
                  0. 00 0000 0091 0000:__sranddev
                74244048897C2448E8........8B3D:
                  0. 0A F8EC 024C 0000:__tzset
              E8........48:
                83C428C3:
                  0. 00 0000 0015 (l!)0000:? (REF 0007: initlocks)
                  1. 00 0000 0015 (l)0000:??__Fclassic_locale@std@@YAXXZ (REF 0007: classic_locale)
                  2. 00 0000 0015 (l)0000:??__Fnomem@?M@??_Locimp_ctor@_Locimp@locale@std@@CAXPEAV123@AEBV123@@Z@YAXXZ (REF 0007: ?nomem@?M@??_Locimp_ctor@_Locimp@locale@std@@CAXPEAV234@AEBV234@@Z@4Vbad_alloc@4@B)
                  3. 00 0000 0015 (l)0000:??__Fnomem@?9??_Locimp_Addfac@_Locimp@locale@std@@CAXPEAV123@PEAVfacet@23@_K@Z@YAXXZ (REF 0007: ?nomem@?9??_Locimp_Addfac@_Locimp@locale@std@@CAXPEAV234@PEAVfacet@34@_K@Z@4Vbad_alloc@4@B)
                  4. 00 0000 0015 (l)0000:??__Einit_atexit@@YAXXZ (REF 0007: ??__Finit_atexit@@YAXXZ)
                  5. 00 0000 0015 (l)0000:??__Finit_atexit@@YAXXZ (REF 0007: init_atexit)
                  6. 00 0000 0015 (l)0000:??__Einit_wcout@std@@YAXXZ (REF 0007: init_wcout)
                  7. 00 0000 0015 (l)0000:??__Fwfout@std@@YAXXZ (REF 0007: wfout)
                  8. 00 0000 0015 (l)0000:??__Fwcout@std@@YAXXZ (REF 0007: ?wcout@std@@3V?$basic_ostream@GU?$char_traits@G@std@@@1@A)
                  9. 00 0000 0015 (l)0000:??__Einit_wclog@std@@YAXXZ (REF 0007: init_wclog)
                  10. 00 0000 0015 (l)0000:??__Fwflog@std@@YAXXZ (REF 0007: wflog)
                  11. 00 0000 0015 (l)0000:??__Fwclog@std@@YAXXZ (REF 0007: ?wclog@std@@3V?$basic_ostream@GU?$char_traits@G@std@@@1@A)
                  12. 00 0000 0015 (l)0000:??__Einit_wcin@std@@YAXXZ (REF 0007: init_wcin)
                  13. 00 0000 0015 (l)0000:??__Fwfin@std@@YAXXZ (REF 0007: wfin)
                  14. 00 0000 0015 (l)0000:??__Fwcin@std@@YAXXZ (REF 0007: ?wcin@std@@3V?$basic_istream@GU?$char_traits@G@std@@@1@A)
                  15. 00 0000 0015 (l)0000:??__Fnomem@?1??_Nomemory@std@@YAXXZ@YAXXZ (REF 0007: ?nomem@?1??_Nomemory@std@@YAXXZ@4Vbad_alloc@2@B)
                  16. 00 0000 0015 (l)0000:??__Einit_wcerr@std@@YAXXZ (REF 0007: init_wcerr)
                  17. 00 0000 0015 (l)0000:??__Fwferr@std@@YAXXZ (REF 0007: wferr)
                  18. 00 0000 0015 (l)0000:??__Fwcerr@std@@YAXXZ (REF 0007: ?wcerr@std@@3V?$basic_ostream@GU?$char_traits@G@std@@@1@A)
                  19. 00 0000 0015 (l)0000:??__Einit_cout@std@@YAXXZ (REF 0007: init_cout)
                  20. 00 0000 0015 (l)0000:??__Ffout@std@@YAXXZ (REF 0007: fout)
                  21. 00 0000 0015 (l)0000:??__Fcout@std@@YAXXZ (REF 0007: ?cout@std@@3V?$basic_ostream@DU?$char_traits@D@std@@@1@A)
                  22. 00 0000 0015 (l)0000:??__Fnomem@?5???2@YAPEAX_K@Z@YAXXZ (REF 0007: ?nomem@?5???2@YAPEAX_K@Z@4Vbad_alloc@std@@B)
                  23. 00 0000 0015 (l)0000:??__Einit_clog@std@@YAXXZ (REF 0007: init_clog)
                  24. 00 0000 0015 (l)0000:??__Fflog@std@@YAXXZ (REF 0007: flog)
                  25. 00 0000 0015 (l)0000:??__Fclog@std@@YAXXZ (REF 0007: ?clog@std@@3V?$basic_ostream@DU?$char_traits@D@std@@@1@A)
                  26. 00 0000 0015 (l)0000:??__Einit_cin@std@@YAXXZ (REF 0007: init_cin)
                  27. 00 0000 0015 (l)0000:??__Ffin@std@@YAXXZ (REF 0007: fin)
                  28. 00 0000 0015 (l)0000:??__Fcin@std@@YAXXZ (REF 0007: ?cin@std@@3V?$basic_istream@DU?$char_traits@D@std@@@1@A)
                  29. 00 0000 0015 (l)0000:??__Einit_cerr@std@@YAXXZ (REF 0007: init_cerr)
                  30. 00 0000 0015 (l)0000:??__Fferr@std@@YAXXZ (REF 0007: ferr)
                  31. 00 0000 0015 (l)0000:??__Fcerr@std@@YAXXZ (REF 0007: ?cerr@std@@3V?$basic_ostream@DU?$char_traits@D@std@@@1@A)
                8D0D........E8........4883C428:
                  0. 01 EF04 0021 (l)0000:??__Einitlocks@std@@YAXXZ (REF 0013: ??__Finitlocks@std@@YAXXZ)
                  1. 01 EF04 0021 (l)0000:??__Einitlocks@@YAXXZ (REF 0013: ??__Finitlocks@@YAXXZ)
            15........:
              488D0D........E8........488D0D........E8:
                0. 00 0000 0028 (l)0000:??__Ewfin@std@@YAXXZ (REF 000E: wfin)
                1. 00 0000 0028 (l)0000:??__Efin@std@@YAXXZ (REF 000E: fin)
              B901000000E8........4C8B05........488B15:
                0. 00 0000 0039 0000:_mainCRTStartup
            542438E8........B9FFFFFFFF85C00F454C24388BC14883C428:
              0. 01 EF04 0021 0000:__inet_addr
        4983:
          380048895C243048896C24384889742440498BD8488BE948897C:
            0. 50 E250 009E 0000:__ohash_create_entry
          F80148895C243048896C243848897424404C89642420418BE94C:
            0. 2F 78C2 0094 0000:__strvisx
        4C:
          8B:
            0148895C2438488974244048897C244848B86766666666666666:
              0. 06 1A01 0131 0000:__setstate
            05........488D542438E8........8B4C2438BAFFFFFFFF3BC2:
              0. 0A 1B8F 002A 0000:__mkstemp
            0D........4C6315........48897424404585D248897C24488B:
              0. 13 03C2 019E 0000:__initstate
            C148895C2438488974244048897C244833C048C7C1FFFFFFFF48:
              0. 32 BBFF 009A 0000:__hasmntopt
          8D44244048C744244000000000E8........4883C428C3:
            0. 00 0000 001C 0000:__ohash_qlookup
        4D:
          85C04C8B0948895C24384889742440448BD2488BD9498BF0751341:
            0. 68 43DB 011D (l)0000:p_b_coll_elem
          8B:
            4138488BCA498B004C8BD04983E2F8A8047411498B4808498B40:
              0. 34 F07F 0062 0000:__GSHandlerCheck
            513848895C243048896C2438498B024889742440488BF248C1E0:
              0. 23 EB83 0093 0000:__GSHandlerCheck_SEH
        80390048895C2438488974244048897C24480FB6F2488BD9410FB6F8:
          0. 13 8E58 006F (l)0000:subst
        81F91F000900751A83FAFF75150FAE5C24308B44243025C0FE00003D:
          0. 0B D2AF 0034 0000:_set_controlfp
        83:
          3D........00:
            4889:
              5C24:
                30488974244048897C24488BF18BDA0F84:
                  0. 07 4AA0 01F0 0000:__user_from_uid
                  1. 06 8208 01BF 0000:__group_from_gid
                384889742440:
                  48897C2448:
                    488BF2488BD9:
                      0. 06 2079 0061 0000:__vfscanf (REF 0034: __svfscanf)
                      1. 06 2079 0061 0000:__vfprintf (REF 0034: _s___vfprintf)
                    498BF08BD948:
                      0. 07 701D 00A3 0000:__verrx
                    8BDA488BF141:
                      0. 07 2615 00A1 0000:__openlog
                  8BF1488BDA7408488BCAE8:
                    0. 00 0000 00EB 0000:__fputc
                4048:
                  897C2448:
                    0FB7F9488BDA7408488BCA:
                      0. 01 3E9B 0065 0000:__fputwc
                    488B:
                      F9488BDA740C488D0D:
                        0. 00 0000 0063 0000:__vscanf
                      FA488BD974:
                        08488BCA:
                          0. 01 3E9B 0085 0000:__fputws
                        0C488D0D:
                          0. 00 0000 0091 0000:__vwarnx
                  8BD9:
                    7405E8........48:
                      837B480048:
                        0. 07 4538 012D 0000:ftello
                      8B:
                        43688378:
                          0. 19 3CE6 0070 0000:__fgetc
                          1. 14 96E1 005C 0000:__fgetwc
                        CB48897C:
                          0. 03 7645 004B (l)0000:sflush_locked
                    7505E8........:
                      0FB743104889:
                        0. 0E 6562 00CF 0000:__swsetup
                      488B43688378:
                        0. 28 2C4E 017B 0000:__srefill
              6C2438:
                488974244048897C2448:
                  488BF2488BE9:
                    0. 08 D7D3 00D9 (l)0000:gmtsub
                  498BF0488BE9:
                    0. 08 C4BB 00D6 0000:__fgetws (l)00C1:$error$2159
                8BE9740C488D0D........E8:
                  0. 02 8543 00C0 0000:__exit
              74244048:
                897C2448488BFA488BF1740C488D0D:
                  0. 00 0000 00CE 0000:__gmtime_r
                8BF17421488D0D........E8:
                  0. 00 0000 00FC 0000:__gmtime
              7C2448488B:
                3D........740C488D0D:
                  0. 01 3E9B 00A7 0000:__hdestroy
                F9740C488D0D........E8:
                  0. 00 0000 0092 0000:__hdestroy_r (006F: C4)
                  1. 00 0000 010C 0000:__gets (006F: 05)
            740C488D0D........E8........8B0D........E8:
              0. 00 0000 0052 0000:__closelog
            75:
              05E8........8B15........85D27412488D0D:
                0. 00 0000 01C7 0000:__sfp (l)0151:$found$2594
              14E8........E8........C705........010000:
                0. 06 B114 0026 0000:_init
          79100048895C243048896C243848897C2448498BE8488BD9488BFA:
            0. 33 620B 00AC (l)0000:doemit
          E20148897C24488BF9E8........4885C0740D488B004885C07405:
            0. 12 9C8A 0095 (l)0000:_get_uid
          F9:
            017515E8........C70003000000B8FFFFFFFF4883C428C3F7D9:
              0. 05 11A2 0029 0000:__killpg
            FF48895C244048897C24488BF9488BDA75118BC1488B7C244848:
              0. 0B 829D 0076 0000:__ungetc
        85D248895C243048896C24388BEA488BD9742481FA80000000741CE8:
          0. 00 0000 014A 0000:__fts_children
        8B:
          0248895C243048896C2438488B2948897424408D1C00443BC34889:
            0. 18 B393 008B (l)0000:__grow_type_table
          05........48897C2448:
            488BF985C0740BE8........8B05:
              0. 00 0000 004C 0000:__feof (000E: 05)
              1. 00 0000 004C 0000:__ferror (000E: 06)
              2. 00 0000 0047 0000:__fileno (000E: 48)
            8BF985C07412488D0D........E8:
              0. 00 0000 0060 0000:__setlogmask
          0D........83F9FF740FE8........C705........FFFFFFFFC705:
            0. 00 0000 002D (l)0000:disconnectlog
          422848895C244048897C244889420C0FB74210488BDAA8088BF974:
            0. 13 C6F4 00C3 0000:__swbuf
          513848895C243048897C2448488BF98B49348D0495000000003BC1:
            0. FF D068 0163 (l)0000:ohash_resize
        B90C00000048895C2438E8........8B0D........85C9488BD87412:
          0. 03 29E1 0118 0000:_Oparse
        BA040000004C8BC9488D4C2438448D42FDE8........B9FFFFFFFF48:
          0. 0F 6A0C 002F 0000:__getw
        E8........:
          0FBAE01F448BD872:
            0C41C1EB18418BC34883C428C32500:
              0. 22 6C91 0042 0000:__inet_netof
            0F4181E3FFFFFF00418BC34883C428:
              0. 1A BA66 003A 0000:__inet_lnaof
          48:
            83C428C3:
              0. 00 0000 000E 0000:?uncaught_exception@std@@YA_NXZ
            8905........4883C428C3:
              0. 00 0000 0015 0000:_heap_init
            B9FFFFFFFFFFFFFF7F483BC17E12E8........C70058:
              0. 0F DDB3 002F 0000:__ftell
      38:
        0F:
          B7421048895C244048896C2448A808488BDA0FB7E9740E48837A18:
            0. 0E A66C 0127 0000:_s___fputwc
          BA610808488974242848897C2420498BF9488BF20F83BD00000048:
            0. 0B 4946 00EB (l)0000:lat (00BF: C3)
        33C04D63:
          C889442428448D400489442420E8........4883C438C3:
            0. 00 0000 001F 0000:__madvise
          C98944242889442420E8........4883C438C3:
            0. 00 0000 001B 0000:__mctl
        41B9:
          08000000C744242001000000E8........4883C438C3:
            0. 00 0000 001C 0000:__ftw
          FFFFFFFF:
            8BD1C7442428FFFFFFFF458BC1418BC9C7442420FFFF:
              0. 03 B994 002C 0000:__seteuid
            C7442428FFFFFFFFC7442420FFFFFFFF458BC1E8:
              0. 00 0000 0027 0000:__setreuid
        44:
          894424204C8BCA4C8BC1488D0D........488D15........E8:
            0. 00 0000 0030 0000:_assert
          8B:
            521448897424504C89642430443951144C8BE2488BF17D1133C0:
              0. FF A9BB 0245 (l)0000:quorem
            C9C7442428FFFFFFFF89542420BAFFFFFFFF448BC28BCAE8:
              0. 00 0000 0027 0000:__setregid
        48:
          634214448B411448896C2448442BC0488974245048897C24584C89:
            0. 54 104E 01D2 (l)0000:diff
          85:
            C9:
              48895C24404C896424304C8BE2488BD9751AE8........C700:
                0. 15 244C 0151 0000:__twalk
              498BC175274C8BCA4489442420488D0D........488D15:
                0. 00 0000 005F 0000:__assert
            D248895C244048896C24484C89642430498BE8488BDA4C8BE175:
              0. 02 EA5E 0160 0000:__tfind
          89:
            5C24:
              40:
                33DB4585C048897424504C896C24284D63D04C8BCB4C8B:
                  0. 35 98D9 0164 0000:__readv
                48:
                  89:
                    6C244848:
                      89:
                        74245048897C2458:
                          0FB63A:
                            488BF24084:
                              0. 30 63E5 00BB 0000:__strunvis (l)0040:$again$827
                            4C89642430:
                              0. 40 142A 00D0 0000:__strunvisx (l)0050:$again$851
                          418BF0488BD9488B:
                            0. 86 4F22 01F9 0000:__wcs_fnmatch
                          498B:
                            D9488BF2488B:
                              0. 0D 15E7 0068 (l)0000:time2
                            F1498BE8488B:
                              0. 05 3929 0092 0000:__strftime
                          4C89642430418BE8:
                            0. 0C DA62 0125 0000:_sseek
                        7C2458:
                          33FF4585C04C896C24284C8BCF:
                            0. 42 3606 0130 0000:__writev
                          4C896C2428498BE8488BFA4C89:
                            0. 07 19F6 016D 0000:__strxfrm
                      8BE98B0D........4C896424304C8BE2E8:
                        0. 00 0000 0413 (l)0000:_getVfsEnt
                    7424:
                      4848897C24504C896424588BDA8BF181E31F03:
                        0. 03 2041 02D3 0000:_control87 (l)01C1:$LN11 (l)02A0:_control87$filt$0 (l)02AA:$LN10 (l)02CC:$LN12
                      5048897C24584C896424304C896C2428488BD9:
                        0. 06 1D1F 050E (l)0000:p_bracket
                    7C24584C896424304C896C2428488BFA4C89742420:
                      0. 1E 349A 011B 0000:__fread
                  8B:
                    C24889742450488BF1488D542420488BC848897C24:
                      0. 05 16D0 01BF 0000:__freopen
                    D9488B094889742450488BF2488B53084C89642430:
                      0. 4C 43AA 0380 (l)0000:p_b_term
              48:
                33C0488974245048897C245833FF488BD9C64424200066:
                  0. 19 ABBD 00F0 0000:_s___fgetwc
                488974245048897C2458488BFA4963D8488BF1E8:
                  0. 00 0000 0051 0000:__msync
              50:
                488BDA488D54244848897C2458488BF9E8........488D:
                  0. 11 9535 0099 (l)0000:ratio
                4963D8488D05........4C8BC948897C2458488BFA4C8D:
                  0. 01 D5A7 00A4 (l)0000:makekey
            6C2448:
              488974245048897C2458498BF9498BF08BEAE8:
                0. 3F 2D95 00A7 0000:__ruserok
              4C896424304C6361144C896C2428488BE9458BE84883C1:
                0. 8C BC7C 011E (l)0000:multadd
          8B:
            014C8D442420498900488B4108488B0D........49894008448B:
              0. 07 ADA0 0030 0000:__hsearch
            05........48894424:
              1085D248895C245848896C243048897424:
                0. FF 18A5 0231 0000:__mtold12
              2848895C24:
                48488B5908488D4424204889:
                  0. 37 A96E 0080 (l)0000:nonnewline
                50488B5908488D4424204889:
                  0. 2E E7B8 0077 (l)0000:bothcases
            C2488974245048897C2458488BF9488D542420488BC8E8:
              0. 00 0000 00DE 0000:__fopen
          8D:
            4C2420E8........83F8FF75054883C438C38B4C24208B442424:
              0. 07 E951 0027 0000:__clock
            542420B905000000E8........85C0790FB905000000E8:
              0. 00 0000 002F 0000:__getdtablesize
        4C8D442420E8........4885C0741C488B4C24208B11488B4C242889:
          0. 01 54B7 0034 0000:__setlocale
        4D85C048895C244048896C24484889742450498BD8488BEA48897C24:
          0. 19 0BEF 008E (l)0000:g_Ctoc
        813965F20000488B41187541813845D200007539F640480475334883:
          0. 17 F37C 005B 0000:__wcs_regexec
        83:
          3D........00:
            4889:
              5C24:
                404C896424304C8BE2488BD97405E8:
                  0. 00 0000 01FB 0000:__fgetln (l)01DE:$error$2302
                4848897424508BF1488BDA750BE8:
                  0. 00 0000 0104 0000:__fdopen
              6C2448488974245048897C24588B394C896424:
                0. 13 EBB3 0167 (l)0000:localsub
              74245048897C24588BF9488BF27408488BCAE8:
                0. 00 0000 009C 0000:__ungetwc
            740C488D0D........E8........488D0D:
              0. 07 3832 0053 0000:__drand48
          7910004889:
            5C24404889:
              6C24484889742450418BF04C8B41284889:
                0. 1A B356 02F0 (l)0000:repeat (l)008A:$LN5 (l)013E:$LN3 (l)0152:$LN2 (l)0181:$LN8 (l)018D:$LN7 (l)0239:$LN4 (l)0269:$LN1 (l)0284:$LN9
              7C24584C896424304C896C2428498BF94D:
                0. 47 DB07 012D (l)0000:doinsert
            7C2458488BFA0F857F010000488B4A084C8B4C242048:
              0. F3 3065 019F (l)0000:findmust
          F9FF4889:
            5C24508BD9751AE8........C70016000000B8FFFFFFFF:
              0. 2E 6A9D 0099 0000:__setuid
              1. 29 885D 008F 0000:__setgid
            74245048897C2458488BFA8BF175118BC1488B7C245848:
              0. 17 4B2D 008B 0000:_s___ungetwc
        85D248896C244848897C24584C896C2428498BF88BEA4C8BE97F1633:
          0. 17 E46A 0144 0000:__fgets
        8BC248897C24588BFA994C897C24184D8BF983E2034D8BC84533C003:
          0. 9F 128E 0289 (l)0000:transtime
        B90800000048895C2440E8........448B05........4585C0488BD8:
          0. 05 1D36 03EC 0000:_Eparse
        BAFFFFFFFFC7442428FFFFFFFF894C2420448BCA448BC28BCAE8:
          0. 00 0000 0027 0000:__setegid
        C7442420:
          00000000E8........4883C438C3:
            0. 00 0000 0016 0000:__nftw
          010000004533C94533C0488D15........488D0D:
            0. 01 3E9B 0036 (l)0000:??__Ewcin@std@@YAXXZ (REF 0015: wfin)
            1. 01 3E9B 0036 (l)0000:??__Ecin@std@@YAXXZ (REF 0015: fin)
      48:
        0FB60248897424604C896424403C72488BF24C8BE174043C77750680:
          0. 06 0AA4 022D 0000:__popen
        33:
          C085D266C744242201004C8944243066C744242003004889442428:
            0. 13 63C3 00AC 0000:__lockf
          D24C8D4424208D4A06E8........48837C242000750E488B05:
            0. 00 0000 00AE 0000:__abort
        4183F80248895C245048896C245848897424604C896424404C896C24:
          0. 34 1382 01CA 0000:__setvbuf (l)010A:$nbf$2166
        448BCAB883DE1B43F7E2B883DE1B43C1EA12448BC289542420F7E1C1:
          0. 30 7877 0075 0000:__ualarm
        48:
          83:
            397B48895C245048896C2458488974246048897C2468488BEA48:
              0. 3C 1814 009B (l)0000:globexp1
            F9FF48896C24584C896424404C897424304C897C2428498BE945:
              0. 0B 0049 015D 0000:__catgets
          85D24889:
            5C244048896C2438488974243048897C24284C89642420:
              0. 14 8082 00AA 0000:__funopen
            6C24584889:
              7424604C89642440488BF2488BE94D8BE075:
                0. 02 EA5E 0262 0000:__tsearch
              7C24684C89642440498BE8488BFA4C8BE175:
                0. 02 EA5E 01CC 0000:__tdelete
          895C24:
            4048896C2438488974243048897C2428498B384C89642420:
              0. 59 A813 0079 0000:__lfind
            50:
              48896C245833ED488974246041C7401CFFFFFFFF41C740:
                0. 3A 8C2E 00D0 0000:__strptime
              49631948896C245848897424604C896C24384C89742430:
                0. 36 76DC 0148 0000:__getgrouplist (l)0111:$out$907
              4C896424404C896C24384C897424304C8BEABBFFFFFFFF:
                0. 09 BED5 0164 0000:__strcoll (l)0114:$err$1060
            5848:
              85C9488D1D........480F45D9833D........00740C:
                0. 03 29E1 0180 0000:__tmpnam
              8974246048897C2468E8........33DB4533D24533C0:
                0. FF 7C99 02DB (l)0000:setargv
          8B:
            0148897C24684C896424404C896C24384C897424304C8BE10FBE:
              0. 04 7BE6 01CF (l)0000:_conv_alt
            05........48894424:
              28488B413848895C246048896C2468F640:
                0. 1B 2611 0168 (l)0000:ordinary
              304533C048895C2460488BD9418D500148:
                0. 17 2D4F 00D8 0000:__rresvport
        4C894C24204D8BC84C8BC248897C2468488BF9488D542434488D4C24:
          0. 02 A3D2 00E6 0000:__forkpty
        83:
          3A0148896C24584C896424404C897424304C8BE2488BE94D8BF07F:
            0. 23 3285 017C (l)0000:comma_fixup
          3D........0048895C246048897C2468488BF9488BDA7408488BCA:
            0. 01 3E9B 009B 0000:__fputs
        8B:
          05........83E00185C075278B05........83C8018905:
            0. 03 29E1 005F 0000:?_Nomemory@std@@YAXXZ
          4114488974246048897C24688B79084C896424404C896C2438448B:
            0. 4F C48D 0147 (l)0000:lshift
      58:
        0FBA61080848895C245048896C244848:
          89742440488B314C89642430:
            0. 25 0895 0126 (l)0000:sprint
          8B2948897C24384C89642430:
            0. 25 8FE4 012A (l)0000:lprint
        33D2488D4C2420E8........48833D........007458488B05:
          0. 00 0000 068F 0000:_Fac_tidy 0090:_Deletegloballocale 0100:?_Getgloballocale@locale@std@@CAPEAV_Locimp@12@XZ 0110:?_Setgloballocale@locale@std@@CAXPEAX@Z (l)0150:tidy_global 0180:?_Clocptr_func@_Locimp@locale@std@@CAAEAPEAV123@XZ 0190:?_Id_cnt_func@id@locale@std@@CAAEAHXZ 01A0:?_Id_func@?$ctype@D@std@@SAAEAVid@locale@2@XZ 01B0:?_Id_func@?$ctype@G@std@@SAAEAVid@locale@2@XZ 01C0:?_Id_func@?$codecvt@GDU__mbstate_t@@@std@@SAAEAVid@locale@2@XZ 01D0:?classic@locale@std@@SAAEBV12@XZ 01F0:?empty@locale@std@@SA?AV12@XZ (l)0270:?dtor$0@?0??empty@locale@std@@SA?AV12@XZ@4HA 0290:?_Init@locale@std@@CAPEAV_Locimp@12@XZ (l)03C0:?dtor$0@?0??_Init@locale@std@@CAPEAV_Locimp@12@XZ@4HA (l)03E0:?dtor$1@?0??_Init@locale@std@@CAPEAV_Locimp@12@XZ@4HA (l)0400:?dtor$2@?0??_Init@locale@std@@CAPEAV_Locimp@12@XZ@4HA 0430:?facet_Register@facet@locale@std@@CAXPEAV123@@Z (l)04B0:?dtor$0@?0??facet_Register@facet@locale@std@@CAXPEAV123@@Z@4HA 04D0:?_Locimp_dtor@_Locimp@locale@std@@CAXPEAV123@@Z (l)05A0:?dtor$0@?0??_Locimp_dtor@_Locimp@locale@std@@CAXPEAV123@@Z@4HA 05C0:?_Locinfo_ctor@_Locinfo@std@@SAXPEAV12@PEBD@Z 0650:?_Locinfo_dtor@_Locinfo@std@@SAXPEAV12@@Z
        418B0048896C2468488974247085C04C89742440488BF24C8BF17424:
          0. 05 02AB 01B0 (l)0000:globextend
        48:
          6341184C8D0D........85C0781583F8077D104C8D0440488D05:
            0. 00 0000 008C 0000:__asctime
          89:
            5C24:
              5048896C2448488974244048897C2438498B384C89642430:
                0. 47 C808 0091 0000:__lsearch
              6048896C2468488974247048897C24784C896424504C8BE1:
                0. 03 29E1 023A 0000:__getbsize (l)00B2:$LN8 (l)00C3:$LN7 (l)00D6:$LN6 (l)00E9:$LN5 (l)00F3:$fmterr$1357 (l)0139:$underflow$1354
              684889742470488BF2488D54242048897C2478498BD8488B:
                0. 02 11CF 0185 0000:__getmntany
            6C24688BE94889742470488D4C24284C896424508BF2E8:
              0. 00 0000 0133 0000:__daemon
          8B05........488944242848895C245048896C2448488974244048:
            0. 3F 1C1E 0178 0000:__strnvis
        4D85C048895C245048896C2448488974244048897C24384C89642430:
          0. 74 D16C 0094 0000:__bsearch
        8B:
          0148895C247048897C2478488BFA488D542420498BD889028B4104:
            0. 33 E618 00F8 (l)0000:_secs
          421448896C24684889742470394114488BEA488BF17D06488BF248:
            0. 51 71D2 022C (l)0000:mult
        E8........4C8D0D........486348184C8BD885C9781583F9077D10:
          0. 07 F8A3 0099 0000:__ctime
      68:
        48:
          85D248896C245848897424504C896424404C896C24384C89742430:
            0. 1F 6C50 015F 0000:_regmbstowcis
          896C24784889BC2488000000488BFABA01000000E8........4885:
            0. 35 12D3 01DE 0000:__tempnam (l)00E0:$tryagain$2358
        8039004C896C24584C8BE9750C33C04C8B6C24584883C468C3488D4C:
          0. 0D 2C34 0917 0000:__setmode (l)01A0:$getop$1524 (l)0218:$LN32 (l)0223:$LN31 (l)023E:$LN28 (l)0263:$LN24 (l)026E:$LN23 (l)027C:$LN22 (l)0284:$LN21 (l)02F5:$LN88 (l)030E:$LN87 (l)0320:$LN86 (l)0377:$LN79 (l)0464:$LN116 (l)047D:$LN115 (l)0490:$LN114 (l)04F3:$LN107 (l)050F:$LN11 (l)05A4:$LN130 (l)05BD:$LN129 (l)05CF:$LN128 (l)0626:$LN121 (l)0686:$apply$1580
      78:
        48:
          85C948899C2490000000488BD90F84AE0000000FB6013C417C0A3C:
            0. 3C 4162 00D6 (l)0000:posix_argv0
          895C24708B9C24A800000048896C246848897424604863F233D283:
            0. 29 D08F 013A 0000:__cvt
          8B05........48894424:
            304C8D0D........48896C2470488BE949:
              0. 12 9B83 0476 0000:__multtenpow12
            5033C048895C2470488BD9894424308944:
              0. 11 B757 0067 0000:__STRINGTOLD
            5848895C2470498BD84889742468448BC1:
              0. 1B 0B52 0194 0000:__regerror
            6048899C24980000004C8BD148897C2470:
              0. F3 F7A0 0172 0000:_fltout2
        E8........:
          83F8FF750B8B0D........E8........488D15:
            0. 03 29E1 01CB 0000:__MixedModeProcessStartup (0184: 4C)
            1. 03 29E1 01AC 0000:__MixedModeProcessStartup (0184: E9)
          C705........00000000488905........48833800488B:
            0. 13 337A 01FB 0000:__PosixProcessStartup
  85C9:
    4C8BCA4C8BD14C8BC1751233C0C3666690666666906666669066666690:
      0. 2A 1B7D 004A (l)0000:strlocatesep
    7446440FBE19418D43D083F80977394533D26666669066669066666690:
      0. 2E D12B 004E (l)0000:getnum
    750C488D0D........E9........E9:
      0. 00 0000 0016 0000:_s___fflush
    790348F7D9488BC1C3:
      0. 00 0000 000C (!)0000:?
  89:
    4C2408:
      32C0C3:
        0. 00 0000 0008 0000:?do_always_noconv@?$codecvt@GDU__mbstate_t@@@std@@MEBA_NXZ
      33C0C3:
        0. 00 0000 0008 (!)0000:?
      48:
        81EC:
          0801000048C78424C8000000FEFFFFFF488B05........48:
            0. 3B EA1A 02F8 0000:?_Endwrite@?$basic_filebuf@DU?$char_traits@D@std@@@std@@IEAA_NXZ (l)02E0:?dtor$0@?0??_Endwrite@?$basic_filebuf@DU?$char_traits@D@std@@@std@@IEAA_NXZ@4HA
            1. 3B ED81 02F8 0000:?_Endwrite@?$basic_filebuf@GU?$char_traits@G@std@@@std@@IEAA_NXZ (l)02E0:?dtor$0@?0??_Endwrite@?$basic_filebuf@GU?$char_traits@G@std@@@std@@IEAA_NXZ@4HA
          5801000048C7842400010000FEFFFFFF488B05........48:
            0. 10 EC5E 0468 0000:?uflow@?$basic_filebuf@DU?$char_traits@D@std@@@std@@MEAAHXZ (l)0450:?dtor$0@?0??uflow@?$basic_filebuf@DU?$char_traits@D@std@@@std@@MEAAHXZ@4HA (041B: CC)
            1. 10 EC5E 0468 0000:?uflow@?$basic_filebuf@GU?$char_traits@G@std@@@std@@MEAAGXZ (l)0450:?dtor$0@?0??uflow@?$basic_filebuf@GU?$char_traits@G@std@@@std@@MEAAGXZ@4HA (041B: C3)
        83EC:
          1848:
            8B442420:
              0FB740:
                0225008000006689042466C7442404:
                  0. FF 7382 016D 0000:_FDnorm
                0625008000006689042466C7442404:
                  0. FF 9D44 0239 0000:_Dnorm
              48:
                837820:
                  08720F488B442420488B40084889:
                    0. 1A 5FD1 003A (!)0000:?
                  10720F488B442420488B40084889:
                    0. 1A 5FD1 003A (!)0000:?
                890424:
                  488B04240FB740:
                    0225807F00003D:
                      0. 8B 05BE 00AB 0000:_FDtest
                    0625F07F00003D:
                      0. BB 9EC6 00DB 0000:_Dtest
                  EB:
                    0B488B042448FFC04889042448:
                      0. 20 8B12 0040 0000:__strlen
                    0C488B04244883C00248890424:
                      0. 24 FDA9 0044 0000:__wcslen
                8B40:
                  40488338007410488B442420488B40:
                    0. 18 A0AB 0038 0000:?_Gnavail@?$basic_streambuf@DU?$char_traits@D@std@@@std@@IEBA_JXZ
                  48488338007410488B442420488B40:
                    0. 18 8CCD 0038 0000:?_Pnavail@?$basic_streambuf@DU?$char_traits@D@std@@@std@@IEBA_JXZ
                  588B00FFC8488B4C2420488B495889:
                    0. 35 78AF 0055 0000:?_Gninc@?$basic_streambuf@DU?$char_traits@D@std@@@std@@IEAAPEADXZ
                    1. 36 F91D 0056 0000:?_Gninc@?$basic_streambuf@GU?$char_traits@G@std@@@std@@IEAAPEAGXZ
                  608B00FFC8488B4C2420488B496089:
                    0. 36 A778 0056 0000:?_Pninc@?$basic_streambuf@GU?$char_traits@G@std@@@std@@IEAAPEAGXZ
                    1. 35 FAE0 0055 0000:?_Pninc@?$basic_streambuf@DU?$char_traits@D@std@@@std@@IEAAPEADXZ
            B8FFFFFFFFFFFFFF7F4889042448833C2400760B488B:
              0. 1C 6C70 003C 0000:?max_size@?$allocator@G@std@@QEBA_KXZ
            C70424FFFFFFFF48833C2400760B488B042448894424:
              0. 16 D5C9 0036 0000:?max_size@?$allocator@D@std@@QEBA_KXZ
          28:
            41B801000000488D15........488B4C2430E8:
              0. 08 4A0F 0039 0000:??0bad_alloc@std@@QEAA@XZ
            4533C0B201488B4C2430E8........4883C428C3:
              0. 00 0000 001D 0000:??1?$basic_string@DU?$char_traits@D@std@@V?$allocator@D@2@@std@@QEAA@XZ (REF 0014: ?_Tidy@?$basic_string@DU?$char_traits@D@std@@V?$allocator@D@2@@std@@IEAAX_N_K@Z)
              1. 00 0000 001D 0000:??1?$basic_string@GU?$char_traits@G@std@@V?$allocator@G@2@@std@@QEAA@XZ (REF 0014: ?_Tidy@?$basic_string@GU?$char_traits@G@std@@V?$allocator@G@2@@std@@IEAAX_N_K@Z)
            48:
              833D........:
                007507E8........EB28488B05:
                  0. 00 0000 0047 0000:?_Atexit@@YAXP6AXXZ@Z
                0A733C488D05........488B0D:
                  0. 00 0000 0054 0000:??1_Init_atexit@@QEAA@XZ
              8B:
                442430:
                  0FB6401085C0750A488B4C2430E8:
                    0. 0D 56AA 002D 0000:??D?$istreambuf_iterator@DU?$char_traits@D@std@@@std@@QEBADXZ
                    1. 0E 60C7 002E 0000:??D?$istreambuf_iterator@GU?$char_traits@G@std@@@std@@QEBAGXZ
                  48:
                    0588000000488BC8E8........488B4424:
                      0. 0B 0689 0034 0000:??_D?$basic_ostringstream@DU?$char_traits@D@std@@V?$allocator@D@2@@std@@QEAAXXZ (REF 0018: ??1?$basic_ostringstream@DU?$char_traits@D@std@@V?$allocator@D@2@@std@@UEAA@XZ)
                      1. 0B 0689 0034 0000:??_D?$basic_ostringstream@GU?$char_traits@G@std@@V?$allocator@G@2@@std@@QEAAXXZ (REF 0018: ??1?$basic_ostringstream@GU?$char_traits@G@std@@V?$allocator@G@2@@std@@UEAA@XZ)
                    83:
                      38FE74:
                        26488B442430488B442430488B:
                          0. 05 7E76 0048 0000:??D?$_String_const_iterator@DU?$char_traits@D@std@@V?$allocator@D@2@@std@@QEBAAEBDXZ (0022: C3)
                          1. 05 7E76 0059 0000:??E?$_String_const_iterator@DU?$char_traits@D@std@@V?$allocator@D@2@@std@@QEAAAEAV01@XZ (0022: 8B)
                        2A488B442430488B442430488B:
                          0. 05 7E76 005E 0000:??E?$_String_const_iterator@GU?$char_traits@G@std@@V?$allocator@G@2@@std@@QEAAAEAV01@XZ (0026: 48)
                          1. 05 7E76 004C 0000:??D?$_String_const_iterator@GU?$char_traits@G@std@@V?$allocator@G@2@@std@@QEBAAEBGXZ (0026: C3)
                      C0:
                        08488BC8E8........48:
                          83C428C3:
                            0. 00 0000 001F (!)0000:?
                          8B44243048:
                            0. 07 5946 0030 0000:??_D?$basic_ostream@GU?$char_traits@G@std@@@std@@QEAAXXZ (REF 0016: ??1?$basic_ostream@GU?$char_traits@G@std@@@std@@UEAA@XZ)
                            1. 07 5946 0030 0000:??_D?$basic_ostream@DU?$char_traits@D@std@@@std@@QEAAXXZ (REF 0016: ??1?$basic_ostream@DU?$char_traits@D@std@@@std@@UEAA@XZ)
                        10488B:
                          4C243048894120488B442430:
                            0. 60 B5E7 009B 0000:?_Init@?$basic_streambuf@GU?$char_traits@G@std@@@std@@IEAAXXZ (REF 0080: ?setp@?$basic_streambuf@GU?$char_traits@G@std@@@std@@IEAAXPEAG0@Z)
                            1. 60 B5E7 009B 0000:?_Init@?$basic_streambuf@DU?$char_traits@D@std@@@std@@IEAAXXZ (REF 0080: ?setp@?$basic_streambuf@DU?$char_traits@D@std@@@std@@IEAAXPEAD0@Z)
                          C8E8........488B44243048:
                            0. 07 39A8 0030 0000:??_D?$basic_istream@GU?$char_traits@G@std@@@std@@QEAAXXZ (REF 0016: ??1?$basic_istream@GU?$char_traits@G@std@@@std@@UEAA@XZ)
                            1. 07 39A8 0030 0000:??_D?$basic_istream@DU?$char_traits@D@std@@@std@@QEAAXXZ (REF 0016: ??1?$basic_istream@DU?$char_traits@D@std@@@std@@UEAA@XZ)
                        18488BC8E8........4883C428C3:
                          0. 00 0000 001F 0000:?what@runtime_error@std@@UEBAPEBDXZ
                    8B:
                      00:
                        488B:
                          0048634004488B4C2430480301:
                            0. 04 D745 0059 (!)0000:?
                          4C2430FF50:
                            084883C428C3:
                              0. 00 0000 001E (!)0000:?
                            104883C428C3:
                              0. 00 0000 001E (!)0000:?
                            384883C428C3:
                              0. 00 0000 001E 0000:?frac_digits@?$_Mpunct@D@std@@QEBAHXZ
                            604883C428C3:
                              0. 00 0000 001E 0000:?pubsync@?$basic_streambuf@DU?$char_traits@D@std@@@std@@QEAAHXZ
                        813863736DE0753E488B442430488B:
                          0. 2A 5A1B 00A1 0000:?__CxxUnhandledExceptionFilter@@YAHPEAU_EXCEPTION_POINTERS@@@Z 0070:?__CxxSetUnhandledExceptionFilter@@YAHXZ 00A0:?__CxxRestoreUnhandledExceptionFilter@@YAXXZ
                      08E8........4883C428C3:
                        0. 00 0000 001B 0000:??1_Timevec@std@@QEAA@XZ
                    8D0D........488908488B:
                      442430:
                        4883C0:
                          0. 05 1E98 0038 0000:??1runtime_error@std@@UEAA@XZ (REF 0011: ??_7runtime_error@std@@6B@)
                          1. 05 1E98 0038 0000:??1logic_error@std@@UEAA@XZ (REF 0011: ??_7logic_error@std@@6B@)
                        837818:
                          0. 0D 104F 0040 0000:??1?$ctype@G@std@@MEAA@XZ
                      4C2430E8:
                        0. 00 0000 0027 0000:??1bad_exception@std@@UEAA@XZ (REF 0011: ??_7bad_exception@std@@6B@)
                        1. 00 0000 0027 0000:??1messages_base@std@@UEAA@XZ (REF 0011: ??_7messages_base@std@@6B@)
                        2. 00 0000 0027 0000:??1time_base@std@@UEAA@XZ (REF 0011: ??_7time_base@std@@6B@)
                        3. 00 0000 0027 0000:??1?$collate@D@std@@MEAA@XZ (REF 0011: ??_7?$collate@D@std@@6B@)
                        4. 00 0000 0027 0000:??1?$messages@D@std@@MEAA@XZ (REF 0011: ??_7?$messages@D@std@@6B@)
                        5. 00 0000 0027 0000:??1?$money_get@DV?$istreambuf_iterator@DU?$char_traits@D@std@@@std@@@std@@MEAA@XZ (REF 0011: ??_7?$money_get@DV?$istreambuf_iterator@DU?$char_traits@D@std@@@std@@@std@@6B@)
                        6. 00 0000 0027 0000:??1?$money_put@DV?$ostreambuf_iterator@DU?$char_traits@D@std@@@std@@@std@@MEAA@XZ (REF 0011: ??_7?$money_put@DV?$ostreambuf_iterator@DU?$char_traits@D@std@@@std@@@std@@6B@)
                        7. 00 0000 0027 0000:??1?$moneypunct@D$0A@@std@@MEAA@XZ (REF 0011: ??_7?$moneypunct@D$0A@@std@@6B@)
                        8. 00 0000 0027 0000:??1money_base@std@@UEAA@XZ (REF 0011: ??_7money_base@std@@6B@)
                        9. 00 0000 0027 0000:??1?$moneypunct@D$00@std@@MEAA@XZ (REF 0011: ??_7?$moneypunct@D$00@std@@6B@)
                        10. 00 0000 0027 0000:??1ctype_base@std@@UEAA@XZ (REF 0011: ??_7ctype_base@std@@6B@)
                        11. 00 0000 0027 0000:??1bad_alloc@std@@UEAA@XZ (REF 0011: ??_7bad_alloc@std@@6B@)
                        12. 00 0000 0027 0000:??1codecvt_base@std@@UEAA@XZ (REF 0011: ??_7codecvt_base@std@@6B@)
                        13. 00 0000 0027 0000:??1?$num_get@DV?$istreambuf_iterator@DU?$char_traits@D@std@@@std@@@std@@MEAA@XZ (REF 0011: ??_7?$num_get@DV?$istreambuf_iterator@DU?$char_traits@D@std@@@std@@@std@@6B@)
                        14. 00 0000 0027 0000:??1?$num_put@DV?$ostreambuf_iterator@DU?$char_traits@D@std@@@std@@@std@@MEAA@XZ (REF 0011: ??_7?$num_put@DV?$ostreambuf_iterator@DU?$char_traits@D@std@@@std@@@std@@6B@)
                        15. 00 0000 0027 0000:??1?$codecvt@DDU__mbstate_t@@@std@@MEAA@XZ (REF 0011: ??_7?$codecvt@DDU__mbstate_t@@@std@@6B@)
                        16. 00 0000 0027 0000:??1length_error@std@@UEAA@XZ (REF 0011: ??_7length_error@std@@6B@)
                        17. 00 0000 0027 0000:??1out_of_range@std@@UEAA@XZ (REF 0011: ??_7out_of_range@std@@6B@)
                        18. 00 0000 0027 0000:??1invalid_argument@std@@UEAA@XZ (REF 0011: ??_7invalid_argument@std@@6B@)
                        19. 00 0000 0027 0000:??1failure@ios_base@std@@UEAA@XZ (REF 0011: ??_7failure@ios_base@std@@6B@)
                        20. 00 0000 0027 0000:??1?$codecvt@GDU__mbstate_t@@@std@@MEAA@XZ (REF 0011: ??_7?$codecvt@GDU__mbstate_t@@@std@@6B@)
                        21. 00 0000 0027 0000:??1?$num_get@GV?$istreambuf_iterator@GU?$char_traits@G@std@@@std@@@std@@MEAA@XZ (REF 0011: ??_7?$num_get@GV?$istreambuf_iterator@GU?$char_traits@G@std@@@std@@@std@@6B@)
                        22. 00 0000 0027 0000:??1?$num_put@GV?$ostreambuf_iterator@GU?$char_traits@G@std@@@std@@@std@@MEAA@XZ (REF 0011: ??_7?$num_put@GV?$ostreambuf_iterator@GU?$char_traits@G@std@@@std@@@std@@6B@)
                        23. 00 0000 0027 0000:??1?$collate@G@std@@MEAA@XZ (REF 0011: ??_7?$collate@G@std@@6B@)
                        24. 00 0000 0027 0000:??1?$messages@G@std@@MEAA@XZ (REF 0011: ??_7?$messages@G@std@@6B@)
                        25. 00 0000 0027 0000:??1?$money_get@GV?$istreambuf_iterator@GU?$char_traits@G@std@@@std@@@std@@MEAA@XZ (REF 0011: ??_7?$money_get@GV?$istreambuf_iterator@GU?$char_traits@G@std@@@std@@@std@@6B@)
                        26. 00 0000 0027 0000:??1?$money_put@GV?$ostreambuf_iterator@GU?$char_traits@G@std@@@std@@@std@@MEAA@XZ (REF 0011: ??_7?$money_put@GV?$ostreambuf_iterator@GU?$char_traits@G@std@@@std@@@std@@6B@)
                        27. 00 0000 0027 0000:??1?$moneypunct@G$0A@@std@@MEAA@XZ (REF 0011: ??_7?$moneypunct@G$0A@@std@@6B@)
                        28. 00 0000 0027 0000:??1?$moneypunct@G$00@std@@MEAA@XZ (REF 0011: ??_7?$moneypunct@G$00@std@@6B@)
                        29. 00 0000 0027 0000:??1?$basic_ios@GU?$char_traits@G@std@@@std@@UEAA@XZ (REF 0011: ??_7?$basic_ios@GU?$char_traits@G@std@@@std@@6B@)
                        30. 00 0000 0027 0000:??1ios_base@std@@UEAA@XZ (REF 0011: ??_7ios_base@std@@6B@)
                        31. 00 0000 0027 0000:??1?$basic_ios@DU?$char_traits@D@std@@@std@@UEAA@XZ (REF 0011: ??_7?$basic_ios@DU?$char_traits@D@std@@@std@@6B@)
                4C2430E8........48:
                  83C428C3:
                    0. 00 0000 0018 0000:?c_str@?$basic_string@DU?$char_traits@D@std@@V?$allocator@D@2@@std@@QEBAPEBDXZ (REF 000F: ?_Myptr@?$basic_string@DU?$char_traits@D@std@@V?$allocator@D@2@@std@@IEBAPEBDXZ)
                    1. 00 0000 0018 0000:?length@?$char_traits@D@std@@SA_KPEBD@Z (REF 000F: strlen)
                    2. 00 0000 0018 0000:??D?$_String_iterator@DU?$char_traits@D@std@@V?$allocator@D@2@@std@@QEBAAEADXZ (REF 000F: ??D?$_String_const_iterator@DU?$char_traits@D@std@@V?$allocator@D@2@@std@@QEBAAEBDXZ)
                    3. 00 0000 0018 0000:?_Register@facet@locale@std@@QEAAXXZ (REF 000F: ?facet_Register@facet@locale@std@@CAXPEAV123@@Z)
                    4. 00 0000 0018 0000:??_V@YAXPEAX@Z (REF 000F: ??3@YAXPEAX@Z)
                    5. 00 0000 0018 0000:??3@YAXPEAX@Z (REF 000F: free)
                    6. 00 0000 0018 0000:?c_str@?$basic_string@GU?$char_traits@G@std@@V?$allocator@G@2@@std@@QEBAPEBGXZ (REF 000F: ?_Myptr@?$basic_string@GU?$char_traits@G@std@@V?$allocator@G@2@@std@@IEBAPEBGXZ)
                    7. 00 0000 0018 0000:??D?$_String_iterator@GU?$char_traits@G@std@@V?$allocator@G@2@@std@@QEBAAEAGXZ (REF 000F: ??D?$_String_const_iterator@GU?$char_traits@G@std@@V?$allocator@G@2@@std@@QEBAAEBGXZ)
                    8. 00 0000 0018 0000:?length@?$char_traits@G@std@@SA_KPEBG@Z (REF 000F: wcslen)
                    9. 00 0000 0018 0000:??1sentry@?$basic_istream@DU?$char_traits@D@std@@@std@@QEAA@XZ (REF 000F: ??1_Sentry_base@?$basic_istream@DU?$char_traits@D@std@@@std@@QEAA@XZ)
                    10. 00 0000 0018 0000:??1sentry@?$basic_istream@GU?$char_traits@G@std@@@std@@QEAA@XZ (REF 000F: ??1_Sentry_base@?$basic_istream@GU?$char_traits@G@std@@@std@@QEAA@XZ)
                    11. 00 0000 0018 0000:??$imag@M@std@@YAMAEBV?$complex@M@0@@Z (REF 000F: ?imag@?$_Complex_base@MU_C_float_complex@@@std@@QEBAMXZ)
                    12. 00 0000 0018 0000:??$real@M@std@@YAMAEBV?$complex@M@0@@Z (REF 000F: ?real@?$_Complex_base@MU_C_float_complex@@@std@@QEBAMXZ)
                    13. 00 0000 0018 0000:??$imag@N@std@@YANAEBV?$complex@N@0@@Z (REF 000F: ?imag@?$_Complex_base@NU_C_double_complex@@@std@@QEBANXZ)
                    14. 00 0000 0018 0000:??$real@N@std@@YANAEBV?$complex@N@0@@Z (REF 000F: ?real@?$_Complex_base@NU_C_double_complex@@@std@@QEBANXZ)
                    15. 00 0000 0018 0000:??$imag@O@std@@YAOAEBV?$complex@O@0@@Z (REF 000F: ?imag@?$_Complex_base@OU_C_ldouble_complex@@@std@@QEBAOXZ)
                    16. 00 0000 0018 0000:??$real@O@std@@YAOAEBV?$complex@O@0@@Z (REF 000F: ?real@?$_Complex_base@OU_C_ldouble_complex@@@std@@QEBAOXZ)
                    17. 00 0000 0018 0000:??_U@YAPEAX_K@Z (REF 000F: ??2@YAPEAX_K@Z)
                    18. 00 0000 0018 0000:_LDtest (REF 000F: _Dtest)
                  8B44243048:
                    83C428C3:
                      0. 00 0000 001D 0000:??E?$istreambuf_iterator@DU?$char_traits@D@std@@@std@@QEAAAEAV01@XZ (REF 000F: ?_Inc@?$istreambuf_iterator@DU?$char_traits@D@std@@@std@@AEAAXXZ)
                      1. 00 0000 001D (!)0000:? (REF 000F: ??0_Iterator_base@std@@QEAA@XZ)
                      2. 00 0000 001D 0000:??E?$istreambuf_iterator@GU?$char_traits@G@std@@@std@@QEAAAEAV01@XZ (REF 000F: ?_Inc@?$istreambuf_iterator@GU?$char_traits@G@std@@@std@@AEAAXXZ)
                      3. 00 0000 001D 0000:??0?$_Outit_with_base@U_Iterator_base@std@@@std@@QEAA@XZ (REF 000F: ??0?$_Iterator_with_base@Uoutput_iterator_tag@std@@XXXXU_Iterator_base@2@@std@@QEAA@XZ)
                    8D0D........48:
                      0. 0C 71F3 002C 0000:??0?$basic_ios@GU?$char_traits@G@std@@@std@@IEAA@XZ (REF 001B: ??_7?$basic_ios@GU?$char_traits@G@std@@@std@@6B@)
                      1. 0C 71F3 002C 0000:??0?$basic_ios@DU?$char_traits@D@std@@@std@@IEAA@XZ (REF 001B: ??_7?$basic_ios@DU?$char_traits@D@std@@@std@@6B@)
                    C7400800000000:
                      0. 0A 046D 002A 0000:??0?$_String_const_iterator@DU?$char_traits@D@std@@V?$allocator@D@2@@std@@QEAA@XZ (REF 000F: ??0?$_Ranit_base@D_JPEBDAEBDU_Iterator_base@std@@@std@@QEAA@XZ)
                      1. 0A 046D 002A 0000:??0?$_String_const_iterator@GU?$char_traits@G@std@@V?$allocator@G@2@@std@@QEAA@XZ (REF 000F: ??0?$_Ranit_base@G_JPEBGAEBGU_Iterator_base@std@@@std@@QEAA@XZ)
              8D05........488905........48:
                833D........0074:
                  0. 04 5E50 00BD 0000:??0_Init_wcout@std@@QEAA@XZ (REF 000C: ?wcout@std@@3V?$basic_ostream@GU?$char_traits@G@std@@@1@A)
                  1. 04 5E50 00BD 0000:??0_Init_cout@std@@QEAA@XZ (REF 000C: ?cout@std@@3V?$basic_ostream@DU?$char_traits@D@std@@@1@A)
                8B05........4863:
                  0. 05 5C5B 006D 0000:??0_Init_cerr@std@@QEAA@XZ (0022: 40) (REF 000C: ?cerr@std@@3V?$basic_ostream@DU?$char_traits@D@std@@@1@A)
                  1. 05 5C5B 006D 0000:??0_Init_wcerr@std@@QEAA@XZ (0022: 40) (REF 000C: ?wcerr@std@@3V?$basic_ostream@GU?$char_traits@G@std@@@1@A)
                  2. 05 5C5B 0048 0000:??0_Init_cin@std@@QEAA@XZ (0022: C3) (REF 000C: ?cin@std@@3V?$basic_istream@DU?$char_traits@D@std@@@1@A)
                  3. 05 5C5B 0048 0000:??0_Init_clog@std@@QEAA@XZ (0022: C3) (REF 000C: ?clog@std@@3V?$basic_ostream@DU?$char_traits@D@std@@@1@A)
                  4. 05 5C5B 0048 0000:??0_Init_wcin@std@@QEAA@XZ (0022: C3) (REF 000C: ?wcin@std@@3V?$basic_istream@GU?$char_traits@G@std@@@1@A)
                  5. 05 5C5B 0048 0000:??0_Init_wclog@std@@QEAA@XZ (0022: C3) (REF 000C: ?wclog@std@@3V?$basic_ostream@GU?$char_traits@G@std@@@1@A)
            E8........48:
              83C428C3:
                0. 00 0000 0013 0000:?_Getdateorder@_Locinfo@std@@QEBAHXZ (REF 000A: _Getdateorder)
                1. 00 0000 0013 0000:?_Getlconv@_Locinfo@std@@QEBAPEBUlconv@@XZ (REF 000A: localeconv)
                2. 00 0000 0013 0000:?underflow@?$basic_streambuf@GU?$char_traits@G@std@@@std@@MEAAGXZ (REF 000A: ?eof@?$char_traits@G@std@@SAGXZ)
                3. 00 0000 0013 0000:?underflow@?$basic_streambuf@DU?$char_traits@D@std@@@std@@MEAAHXZ (REF 000A: ?eof@?$char_traits@D@std@@SAHXZ)
              8B4C2430488901E8........488BC8E8:
                0. 00 0000 002D 0000:??0locale@std@@QEAA@XZ
            FF15........B8010000004883C428C3CCCCCCCCCCCCCC:
              0. 14 27A7 0097 0000:?_New_handler_interface@std@@YAH_K@Z 0020:?set_new_handler@std@@YAP6AXXZP6AXXZ@Z
          38:
            33D2488D4C2420E8........488B44244048837808FF73:
              0. 1C 8546 0045 0000:?_Incref@facet@locale@std@@QEAAXXZ
            48:
              837C244000750433C0EB48488B4C2440E8........48:
                0. 0F D98C 0062 0000:__strdup
              8B:
                442440:
                  0FB70089442420E8........0FB7C08B4C24:
                    0. 14 8192 0063 0000:?not_eof@?$char_traits@G@std@@SAGAEBG@Z
                  48:
                    83:
                      3800753E33D2488D4C2420E8:
                        0. 0D 8D3A 005F 0000:??Bid@locale@std@@QEAA_KXZ
                      78080074:
                        34488B442440488B4008488B:
                          0. 02 6B60 0080 0000:?_Peek@?$istreambuf_iterator@DU?$char_traits@D@std@@@std@@AEAADXZ (004C: 40)
                          1. 02 6B60 006F 0000:?_Inc@?$istreambuf_iterator@DU?$char_traits@D@std@@@std@@AEAAXXZ (004C: C3)
                        36488B442440488B4008488B:
                          0. 02 6B60 0071 0000:?_Inc@?$istreambuf_iterator@GU?$char_traits@G@std@@@std@@AEAAXXZ (004E: C3)
                          1. 02 6B60 0084 0000:?_Peek@?$istreambuf_iterator@GU?$char_traits@G@std@@@std@@AEAAGXZ (004E: 24)
                    89442420488B4424404883B8D800000000:
                      0. 13 C153 0081 0000:?close@?$basic_filebuf@GU?$char_traits@G@std@@@std@@QEAAPEAV12@XZ (REF 0033: ?_Endwrite@?$basic_filebuf@GU?$char_traits@G@std@@@std@@IEAA_NXZ)
                      1. 13 C153 0081 0000:?close@?$basic_filebuf@DU?$char_traits@D@std@@@std@@QEAAPEAV12@XZ (REF 0033: ?_Endwrite@?$basic_filebuf@DU?$char_traits@D@std@@@std@@IEAA_NXZ)
                    8B:
                      00488B4C2440FF5020:
                        6689442420E8:
                          0. 00 0000 006B 0000:?uflow@?$basic_streambuf@GU?$char_traits@G@std@@@std@@MEAAGXZ
                        89442420E8:
                          0. 00 0000 0066 0000:?uflow@?$basic_streambuf@DU?$char_traits@D@std@@@std@@MEAAHXZ
                      40104889442420488B4C2420E8:
                        0. 00 0000 003E (!)0000:?
                    C7404000000000488B442440C740140000:
                      0. 4A 5BA3 00B2 0000:?_Init@ios_base@std@@IEAAXXZ
                  837818007E10488B442440488B4810E8:
                    0. 00 0000 004C 0000:?_Tidy@?$ctype@D@std@@IEAAXXZ
                  8B407883E00185C074:
                    6C488B4C2440E8:
                      0. 00 0000 00CA 0000:?_Tidy@?$basic_stringbuf@DU?$char_traits@D@std@@V?$allocator@D@2@@std@@IEAAXXZ
                    6F488B4C2440E8:
                      0. 00 0000 00CD 0000:?_Tidy@?$basic_stringbuf@GU?$char_traits@G@std@@V?$allocator@G@2@@std@@IEAAXXZ
                4C2440E8........:
                  0FB6C085C0740B48C744242000:
                    0. 19 76B4 0039 0000:??Bios_base@std@@QEBAPEAXXZ
                  48:
                    83F8017E:
                      18488B4C2440E8:
                        0. 00 0000 0088 0000:?snextc@?$basic_streambuf@DU?$char_traits@D@std@@@std@@QEAAHXZ
                      19488B4C2440E8:
                        0. 00 0000 0090 0000:?snextc@?$basic_streambuf@GU?$char_traits@G@std@@@std@@QEAAGXZ
                    85C0:
                      7439488B4C2440E8:
                        0. 00 0000 00A9 0000:?underflow@?$basic_filebuf@DU?$char_traits@D@std@@@std@@MEAAHXZ (0088: C3)
                        1. 00 0000 00AE 0000:?underflow@?$basic_filebuf@GU?$char_traits@G@std@@@std@@MEAAGXZ (0088: 20)
                      7E:
                        18488B4C2440E8:
                          0. 00 0000 004D 0000:?sgetc@?$basic_streambuf@DU?$char_traits@D@std@@@std@@QEAAHXZ (001F: 20)
                          1. 00 0000 004D 0000:?sbumpc@?$basic_streambuf@DU?$char_traits@D@std@@@std@@QEAAHXZ (001F: 28)
                        19488B4C2440E8:
                          0. 00 0000 0050 0000:?sgetc@?$basic_streambuf@GU?$char_traits@G@std@@@std@@QEAAGXZ (0020: 20)
                          1. 00 0000 0050 0000:?sbumpc@?$basic_streambuf@GU?$char_traits@G@std@@@std@@QEAAGXZ (0020: 28)
                    8944242048837C242001770B:
                      0. 22 7AD7 0042 0000:?max_size@?$basic_string@DU?$char_traits@D@std@@V?$allocator@D@2@@std@@QEBA_KXZ (REF 000F: ?max_size@?$allocator@D@std@@QEBA_KXZ)
                      1. 22 7AD7 0042 0000:?max_size@?$basic_string@GU?$char_traits@G@std@@V?$allocator@G@2@@std@@QEBA_KXZ (REF 000F: ?max_size@?$allocator@G@std@@QEBA_KXZ)
                    FFC04889442428488B442428:
                      0. 0E 34F6 0061 0000:__wcsdup
                  83E00685C0740AC74424200100:
                    0. 15 2AA2 0035 0000:?fail@ios_base@std@@QEBA_NXZ
                  85C0750AC744242001000000EB:
                    0. 12 FE13 0032 0000:?good@ios_base@std@@QEBA_NXZ
                  F20F11442420488B4C2440E8:
                    0. 00 0000 0033 0000:??$arg@N@std@@YANAEBV?$complex@N@0@@Z (REF 000F: ??$real@N@std@@YANAEBV?$complex@N@0@@Z)
                    1. 00 0000 0033 0000:??$arg@O@std@@YAOAEBV?$complex@O@0@@Z (REF 000F: ??$real@O@std@@YAOAEBV?$complex@O@0@@Z)
                  F30F11442420488B4C2440E8:
                    0. 00 0000 0033 0000:??$arg@M@std@@YAMAEBV?$complex@M@0@@Z (0012: C3)
                    1. 00 0000 006F 0000:??$norm@M@std@@YAMAEBV?$complex@M@0@@Z (0012: 11)
              8D:
                05........B901000000F0480FC10848FFC1488BC1:
                  0. 28 DB93 02F9 0000:??0_Init_locks@std@@QEAA@XZ 0070:??1_Init_locks@std@@QEAA@XZ 00E0:?_Init_locks_ctor@_Init_locks@std@@CAXPEAV12@@Z 0150:?_Init_locks_dtor@_Init_locks@std@@CAXPEAV12@@Z 01C0:??0_Lockit@std@@QEAA@XZ 01F0:??0_Lockit@std@@QEAA@H@Z 0240:??1_Lockit@std@@QEAA@XZ 0270:?_Lockit_ctor@_Lockit@std@@CAXPEAV12@@Z 0290:?_Lockit_ctor@_Lockit@std@@CAXPEAV12@H@Z 02D0:?_Lockit_dtor@_Lockit@std@@CAXPEAV12@@Z
                4424204889442428488B4C2428E8........488BD0:
                  0. 06 46D5 0043 0000:??0?$basic_string@DU?$char_traits@D@std@@V?$allocator@D@2@@std@@QEAA@XZ (REF 0019: ??0?$allocator@D@std@@QEAA@XZ)
                  1. 06 46D5 0043 0000:??0?$basic_string@GU?$char_traits@G@std@@V?$allocator@G@2@@std@@QEAA@XZ (REF 0019: ??0?$allocator@G@std@@QEAA@XZ)
                542420488B4C2440E8........:
                  F20F11442428837C:
                    0. 1A 7FFB 0043 0000:??$abs@N@std@@YANAEBV?$complex@N@0@@Z (REF 0014: ??$_Fabs@N@std@@YANAEBV?$complex@N@0@PEAH@Z)
                    1. 1A 7FFB 0043 0000:??$abs@O@std@@YAOAEBV?$complex@O@0@@Z (REF 0014: ??$_Fabs@O@std@@YAOAEBV?$complex@O@0@PEAH@Z)
                  F30F11442424837C:
                    0. 1A 813A 0043 0000:??$abs@M@std@@YAMAEBV?$complex@M@0@@Z
              C7442420FEFFFFFF:
                488B:
                  44244048:
                    8B:
                      0048634004488B:
                        0. 0D 08D1 006D 0000:?_Osfx@?$basic_ostream@DU?$char_traits@D@std@@@std@@QEAAXXZ (l)004B:$LN8 (l)0050:?catch$0@?0??_Osfx@?$basic_ostream@DU?$char_traits@D@std@@@std@@QEAAXXZ@4HA (l)005D:__catch$?_Osfx@?$basic_ostream@DU?$char_traits@D@std@@@std@@QEAAXXZ$0 (REF 0046: ?flush@?$basic_ostream@DU?$char_traits@D@std@@@std@@QEAAAEAV12@XZ)
                        1. 0D 08D1 006D 0000:?_Osfx@?$basic_ostream@GU?$char_traits@G@std@@@std@@QEAAXXZ (l)004B:$LN8 (l)0050:?catch$0@?0??_Osfx@?$basic_ostream@GU?$char_traits@G@std@@@std@@QEAAXXZ@4HA (l)005D:__catch$?_Osfx@?$basic_ostream@GU?$char_traits@G@std@@@std@@QEAAXXZ$0 (REF 0046: ?flush@?$basic_ostream@GU?$char_traits@G@std@@@std@@QEAAAEAV12@XZ)
                      8078FFFFFF4863:
                        0. 0A 0B66 0093 0000:??1?$basic_ostringstream@DU?$char_traits@D@std@@V?$allocator@D@2@@std@@UEAA@XZ (l)0070:?dtor$0@?0???1?$basic_ostringstream@DU?$char_traits@D@std@@V?$allocator@D@2@@std@@UEAA@XZ@4HA (REF 002A: ??_7?$basic_ostringstream@DU?$char_traits@D@std@@V?$allocator@D@2@@std@@6B@)
                        1. 0A 0B66 0093 0000:??1?$basic_ostringstream@GU?$char_traits@G@std@@V?$allocator@G@2@@std@@UEAA@XZ (l)0070:?dtor$0@?0???1?$basic_ostringstream@GU?$char_traits@G@std@@V?$allocator@G@2@@std@@UEAA@XZ@4HA (REF 002A: ??_7?$basic_ostringstream@GU?$char_traits@G@std@@V?$allocator@G@2@@std@@6B@)
                    8D0D........4889:
                      0. 07 5570 008C 0000:??1_Locimp@locale@std@@MEAA@XZ (l)0050:?dtor$0@?0???1_Locimp@locale@std@@MEAA@XZ@4HA (l)0070:?dtor$1@?0???1_Locimp@locale@std@@MEAA@XZ@4HA (0030: 8B)
                      1. 07 5570 0058 0000:??1?$time_get@DV?$istreambuf_iterator@DU?$char_traits@D@std@@@std@@@std@@MEAA@XZ (l)0040:?dtor$0@?0???1?$time_get@DV?$istreambuf_iterator@DU?$char_traits@D@std@@@std@@@std@@MEAA@XZ@4HA (0030: C3) (REF 001A: ??_7?$time_get@DV?$istreambuf_iterator@DU?$char_traits@D@std@@@std@@@std@@6B@)
                      2. 07 5570 0058 0000:??1?$basic_stringbuf@GU?$char_traits@G@std@@V?$allocator@G@2@@std@@UEAA@XZ (l)0040:?dtor$0@?0???1?$basic_stringbuf@GU?$char_traits@G@std@@V?$allocator@G@2@@std@@UEAA@XZ@4HA (0030: C3) (REF 001A: ??_7?$basic_stringbuf@GU?$char_traits@G@std@@V?$allocator@G@2@@std@@6B@)
                      3. 07 5570 0058 0000:??1?$ctype@D@std@@MEAA@XZ (l)0040:?dtor$0@?0???1?$ctype@D@std@@MEAA@XZ@4HA (0030: C3) (REF 001A: ??_7?$ctype@D@std@@6B@)
                      4. 07 5570 0058 0000:??1?$numpunct@D@std@@MEAA@XZ (l)0040:?dtor$0@?0???1?$numpunct@D@std@@MEAA@XZ@4HA (0030: C3) (REF 001A: ??_7?$numpunct@D@std@@6B@)
                      5. 07 5570 0058 0000:??1?$basic_stringbuf@DU?$char_traits@D@std@@V?$allocator@D@2@@std@@UEAA@XZ (l)0040:?dtor$0@?0???1?$basic_stringbuf@DU?$char_traits@D@std@@V?$allocator@D@2@@std@@UEAA@XZ@4HA (0030: C3) (REF 001A: ??_7?$basic_stringbuf@DU?$char_traits@D@std@@V?$allocator@D@2@@std@@6B@)
                      6. 07 5570 0058 0000:??1?$numpunct@G@std@@MEAA@XZ (l)0040:?dtor$0@?0???1?$numpunct@G@std@@MEAA@XZ@4HA (0030: C3) (REF 001A: ??_7?$numpunct@G@std@@6B@)
                      7. 07 5570 0058 0000:??1?$_Mpunct@G@std@@MEAA@XZ (l)0040:?dtor$0@?0???1?$_Mpunct@G@std@@MEAA@XZ@4HA (0030: C3) (REF 001A: ??_7?$_Mpunct@G@std@@6B@)
                      8. 07 5570 0058 0000:??1?$time_get@GV?$istreambuf_iterator@GU?$char_traits@G@std@@@std@@@std@@MEAA@XZ (l)0040:?dtor$0@?0???1?$time_get@GV?$istreambuf_iterator@GU?$char_traits@G@std@@@std@@@std@@MEAA@XZ@4HA (0030: C3) (REF 001A: ??_7?$time_get@GV?$istreambuf_iterator@GU?$char_traits@G@std@@@std@@@std@@6B@)
                      9. 07 5570 0058 0000:??1?$_Mpunct@D@std@@MEAA@XZ (l)0040:?dtor$0@?0???1?$_Mpunct@D@std@@MEAA@XZ@4HA (0030: C3) (REF 001A: ??_7?$_Mpunct@D@std@@6B@)
                      10. 17 A28D 0068 0000:??1?$basic_filebuf@GU?$char_traits@G@std@@@std@@UEAA@XZ (l)0050:?dtor$0@?0???1?$basic_filebuf@GU?$char_traits@G@std@@@std@@UEAA@XZ@4HA (REF 001A: ??_7?$basic_filebuf@GU?$char_traits@G@std@@@std@@6B@)
                      11. 17 A28D 0068 0000:??1?$basic_filebuf@DU?$char_traits@D@std@@@std@@UEAA@XZ (l)0050:?dtor$0@?0???1?$basic_filebuf@DU?$char_traits@D@std@@@std@@UEAA@XZ@4HA (REF 001A: ??_7?$basic_filebuf@DU?$char_traits@D@std@@@std@@6B@)
                      12. 0E EC2E 0068 0000:??1?$time_put@GV?$ostreambuf_iterator@GU?$char_traits@G@std@@@std@@@std@@MEAA@XZ (l)0050:?dtor$0@?0???1?$time_put@GV?$ostreambuf_iterator@GU?$char_traits@G@std@@@std@@@std@@MEAA@XZ@4HA (REF 001A: ??_7?$time_put@GV?$ostreambuf_iterator@GU?$char_traits@G@std@@@std@@@std@@6B@)
                      13. 0E EC2E 0068 0000:??1?$time_put@DV?$ostreambuf_iterator@DU?$char_traits@D@std@@@std@@@std@@MEAA@XZ (l)0050:?dtor$0@?0???1?$time_put@DV?$ostreambuf_iterator@DU?$char_traits@D@std@@@std@@@std@@MEAA@XZ@4HA (REF 001A: ??_7?$time_put@DV?$ostreambuf_iterator@DU?$char_traits@D@std@@@std@@@std@@6B@)
                  4C2440E8........90488B44:
                    0. 0C BCBB 011F 0000:??1_Locinfo@std@@QEAA@XZ (l)0080:?dtor$0@?0???1_Locinfo@std@@QEAA@XZ@4HA (l)00A0:?dtor$1@?0???1_Locinfo@std@@QEAA@XZ@4HA (l)00C0:?dtor$2@?0???1_Locinfo@std@@QEAA@XZ@4HA (l)00E0:?dtor$3@?0???1_Locinfo@std@@QEAA@XZ@4HA (l)0100:?dtor$4@?0???1_Locinfo@std@@QEAA@XZ@4HA
                E8........0FB6C085C07511488B:
                  0. 0A D6A7 0058 0000:??1sentry@?$basic_ostream@DU?$char_traits@D@std@@@std@@QEAA@XZ (l)0040:?dtor$0@?0???1sentry@?$basic_ostream@DU?$char_traits@D@std@@@std@@QEAA@XZ@4HA (REF 002A: ?_Osfx@?$basic_ostream@DU?$char_traits@D@std@@@std@@QEAAXXZ)
                  1. 0A D6A7 0058 0000:??1sentry@?$basic_ostream@GU?$char_traits@G@std@@@std@@QEAA@XZ (l)0040:?dtor$0@?0???1sentry@?$basic_ostream@GU?$char_traits@G@std@@@std@@QEAA@XZ@4HA (REF 002A: ?_Osfx@?$basic_ostream@GU?$char_traits@G@std@@@std@@QEAAXXZ)
            B9:
              01000000E8........90488B44244048837808000F84:
                0. 07 669A 0339 0000:?_Type_info_dtor@type_info@@CAXPEAV1@@Z (l)00A8:$LN13 (l)00C0:?fin$0@?0??_Type_info_dtor@type_info@@CAXPEAV1@@Z@4HA (l)00C9:$LN10 (l)00D3:$LN11 00E0:?_Name_base@type_info@@CAPEBDPEBV1@PEAU__type_info_node@@@Z (l)025A:$LN16 (l)0280:?fin$0@?0??_Name_base@type_info@@CAPEBDPEBV1@PEAU__type_info_node@@@Z@4HA 02A0:__clean_type_info_names_internal (l)0320:__clean_type_info_names_internal$fin$0 (l)0329:$LN8 (l)0333:$LN9
              08000000E8........4889442420488B442440488B4C:
                0. 0E 537F 018B 0000:??0_Mutex@std@@QEAA@XZ 0050:??1_Mutex@std@@QEAA@XZ 0090:?_Lock@_Mutex@std@@QEAAXXZ 00B0:?_Unlock@_Mutex@std@@QEAAXXZ 00D0:?_Mutex_ctor@_Mutex@std@@CAXPEAV12@@Z 0110:?_Mutex_dtor@_Mutex@std@@CAXPEAV12@@Z 0150:?_Mutex_Lock@_Mutex@std@@CAXPEAV12@@Z 0170:?_Mutex_Unlock@_Mutex@std@@CAXPEAV12@@Z
            C744242000000000:
              488B442440488B0048634004488B4C:
                0. 0C B026 009E 0000:?flush@?$basic_ostream@DU?$char_traits@D@std@@@std@@QEAAAEAV12@XZ (REF 0052: ?rdbuf@?$basic_ios@DU?$char_traits@D@std@@@std@@QEBAPEAV?$basic_streambuf@DU?$char_traits@D@std@@@2@XZ)
                1. 0C B026 009E 0000:?flush@?$basic_ostream@GU?$char_traits@G@std@@@std@@QEAAAEAV12@XZ (REF 0052: ?rdbuf@?$basic_ios@GU?$char_traits@G@std@@@std@@QEBAPEAV?$basic_streambuf@GU?$char_traits@G@std@@@2@XZ)
              EB0A8B442420FFC089442420486344:
                0. 09 86D3 0077 0000:wctype
            E8........48:
              8944242048837C2420007420488B442440:
                0. 0D 013A 007F 0000:?_Getdays@_Locinfo@std@@QEBAPEBDXZ
                1. 0D CF2D 007F 0000:?_Getmonths@_Locinfo@std@@QEBAPEBDXZ
              8B4C2440:
                3901740D488B4424408B008944:
                  0. 05 BF4F 0050 0000:?not_eof@?$char_traits@D@std@@SAHAEBH@Z
                48894818E8........488B4C24:
                  0. 08 8686 01A4 0000:_initp_eh_hooks 0070:_initp_ptd_eh_hooks 00C0:?terminate@@YAXXZ (l)00E9:$LN7 (l)0100:?filt$0@?0??terminate@@YAXXZ@4HA (l)0109:$LN6 (l)010E:$LN8 0120:?unexpected@@YAXXZ 0160:?_inconsistency@@YAXXZ (l)0190:?filt$0@?0??_inconsistency@@YAXXZ@4HA
          48:
            33D2488D4C2420E8........488B442450488378080076:
              0. 53 A1E3 0081 0000:?_Decref@facet@locale@std@@QEAAPEAV123@XZ
            48:
              8B:
                44245048:
                  83:
                    3800744B488B442450488B00488BC8E8:
                      0. 00 0000 0064 0000:??1locale@std@@QEAA@XZ
                    B8D80000000074:
                      63E8........488B4C:
                        0. 1E 5CFB 008C 0000:?sync@?$basic_filebuf@DU?$char_traits@D@std@@@std@@MEAAHXZ
                      66E8........488B4C:
                        0. 20 ADEB 008F 0000:?sync@?$basic_filebuf@GU?$char_traits@G@std@@@std@@MEAAHXZ
                  8B40:
                    08488BC8E8........488944242848:
                      0. 3A 730A 005A 0000:??1_Fac_node@std@@QEAA@XZ
                    104889442420488B4C2420E8:
                      0. 00 0000 0056 (!)0000:? (0035: C3)
                      1. 00 0000 006E (!)0000:? (0035: 50)
                  8D0D........488908488B442450488B40:
                    0. 23 B92F 006D 0000:??1?$basic_streambuf@GU?$char_traits@G@std@@@std@@UEAA@XZ (REF 0011: ??_7?$basic_streambuf@GU?$char_traits@G@std@@@std@@6B@)
                    1. 23 B92F 006D 0000:??1?$basic_streambuf@DU?$char_traits@D@std@@@std@@UEAA@XZ (REF 0011: ??_7?$basic_streambuf@DU?$char_traits@D@std@@@std@@6B@)
                4C2450E8........:
                  48:
                    85C0750FE8........E91401:
                      0. 0D 3DCC 013B 0000:?underflow@?$basic_stringbuf@DU?$char_traits@D@std@@V?$allocator@D@2@@std@@MEAAHXZ (REF 000F: ?gptr@?$basic_streambuf@DU?$char_traits@D@std@@@std@@IEBAPEADXZ)
                      1. 0D 3DCC 013B 0000:?underflow@?$basic_stringbuf@GU?$char_traits@G@std@@V?$allocator@G@2@@std@@MEAAGXZ (REF 000F: ?gptr@?$basic_streambuf@GU?$char_traits@G@std@@@std@@IEBAPEAGXZ)
                    8944242048837C2420007566:
                      0. 06 D740 0090 0000:??2@YAPEAX_K@Z
                  F20F11442420488B4C2450E8:
                    0. 00 0000 0072 0000:??$norm@N@std@@YANAEBV?$complex@N@0@@Z (REF 000F: ??$real@N@std@@YANAEBV?$complex@N@0@@Z)
                    1. 00 0000 0072 0000:??$norm@O@std@@YAOAEBV?$complex@O@0@@Z (REF 000F: ??$real@O@std@@YAOAEBV?$complex@O@0@@Z)
              C74424:
                28FEFFFFFF488B442450488D0D........4889:
                  0. 0E 183F 00AC 0000:??0?$basic_streambuf@GU?$char_traits@G@std@@@std@@IEAA@XZ (l)0090:?dtor$0@?0???0?$basic_streambuf@GU?$char_traits@G@std@@@std@@IEAA@XZ@4HA (REF 001A: ??_7?$basic_streambuf@GU?$char_traits@G@std@@@std@@6B@)
                  1. 0E 183F 00AC 0000:??0?$basic_streambuf@DU?$char_traits@D@std@@@std@@IEAA@XZ (l)0090:?dtor$0@?0???0?$basic_streambuf@DU?$char_traits@D@std@@@std@@IEAA@XZ@4HA (REF 001A: ??_7?$basic_streambuf@DU?$char_traits@D@std@@@std@@6B@)
                30FEFFFFFF48837C24500074:
                  55488B44245048:
                    0. 0B 0DF3 0098 0000:?_Getcat@?$ctype@G@std@@SA_KPEAPEBVfacet@locale@2@@Z (l)0080:?dtor$0@?0??_Getcat@?$ctype@G@std@@SA_KPEAPEBVfacet@locale@2@@Z@4HA
                    1. 0B 2DA9 0098 0000:?_Getcat@?$time_put@GV?$ostreambuf_iterator@GU?$char_traits@G@std@@@std@@@std@@SA_KPEAPEBVfacet@locale@2@@Z (l)0080:?dtor$0@?0??_Getcat@?$time_put@GV?$ostreambuf_iterator@GU?$char_traits@G@std@@@std@@@std@@SA_KPEAPEBVfacet@locale@2@@Z@4HA (REF 0044: ??0?$time_put@GV?$ostreambuf_iterator@GU?$char_traits@G@std@@@std@@@std@@QEAA@_K@Z)
                    2. 0B 2DA9 0098 0000:?_Getcat@?$time_put@DV?$ostreambuf_iterator@DU?$char_traits@D@std@@@std@@@std@@SA_KPEAPEBVfacet@locale@2@@Z (l)0080:?dtor$0@?0??_Getcat@?$time_put@DV?$ostreambuf_iterator@DU?$char_traits@D@std@@@std@@@std@@SA_KPEAPEBVfacet@locale@2@@Z@4HA (REF 0044: ??0?$time_put@DV?$ostreambuf_iterator@DU?$char_traits@D@std@@@std@@@std@@QEAA@_K@Z)
                    3. 0B 6D1D 0098 0000:?_Getcat@?$numpunct@G@std@@SA_KPEAPEBVfacet@locale@2@@Z (l)0080:?dtor$0@?0??_Getcat@?$numpunct@G@std@@SA_KPEAPEBVfacet@locale@2@@Z@4HA (0046: 04) (REF 0044: ??0?$numpunct@G@std@@QEAA@_K@Z)
                    4. 0B 6D1D 0098 0000:?_Getcat@?$numpunct@D@std@@SA_KPEAPEBVfacet@locale@2@@Z (l)0080:?dtor$0@?0??_Getcat@?$numpunct@D@std@@SA_KPEAPEBVfacet@locale@2@@Z@4HA (0046: 04) (REF 0044: ??0?$numpunct@D@std@@QEAA@_K@Z)
                    5. 0B 6D1D 0098 0000:?_Getcat@?$time_get@GV?$istreambuf_iterator@GU?$char_traits@G@std@@@std@@@std@@SA_KPEAPEBVfacet@locale@2@@Z (l)0080:?dtor$0@?0??_Getcat@?$time_get@GV?$istreambuf_iterator@GU?$char_traits@G@std@@@std@@@std@@SA_KPEAPEBVfacet@locale@2@@Z@4HA (0046: 05) (REF 0044: ??0?$time_get@GV?$istreambuf_iterator@GU?$char_traits@G@std@@@std@@@std@@QEAA@_K@Z)
                    6. 0B 6D1D 0098 0000:?_Getcat@?$time_get@DV?$istreambuf_iterator@DU?$char_traits@D@std@@@std@@@std@@SA_KPEAPEBVfacet@locale@2@@Z (l)0080:?dtor$0@?0??_Getcat@?$time_get@DV?$istreambuf_iterator@DU?$char_traits@D@std@@@std@@@std@@SA_KPEAPEBVfacet@locale@2@@Z@4HA (0046: 05) (REF 0044: ??0?$time_get@DV?$istreambuf_iterator@DU?$char_traits@D@std@@@std@@@std@@QEAA@_K@Z)
                    7. 0B DC27 0098 0000:?_Getcat@?$collate@G@std@@SA_KPEAPEBVfacet@locale@2@@Z (l)0080:?dtor$0@?0??_Getcat@?$collate@G@std@@SA_KPEAPEBVfacet@locale@2@@Z@4HA (0046: 01) (REF 0044: ??0?$collate@G@std@@QEAA@_K@Z)
                    8. 0B DC27 0098 0000:?_Getcat@?$collate@D@std@@SA_KPEAPEBVfacet@locale@2@@Z (l)0080:?dtor$0@?0??_Getcat@?$collate@D@std@@SA_KPEAPEBVfacet@locale@2@@Z@4HA (0046: 01) (REF 0044: ??0?$collate@D@std@@QEAA@_K@Z)
                    9. 0B DC27 0098 0000:?_Getcat@?$codecvt@GDU__mbstate_t@@@std@@SA_KPEAPEBVfacet@locale@2@@Z (l)0080:?dtor$0@?0??_Getcat@?$codecvt@GDU__mbstate_t@@@std@@SA_KPEAPEBVfacet@locale@2@@Z@4HA (0046: 02)
                    10. 0B DC27 0098 0000:?_Getcat@?$money_put@GV?$ostreambuf_iterator@GU?$char_traits@G@std@@@std@@@std@@SA_KPEAPEBVfacet@locale@2@@Z (l)0080:?dtor$0@?0??_Getcat@?$money_put@GV?$ostreambuf_iterator@GU?$char_traits@G@std@@@std@@@std@@SA_KPEAPEBVfacet@locale@2@@Z@4HA (0046: 03) (REF 0044: ??0?$money_put@GV?$ostreambuf_iterator@GU?$char_traits@G@std@@@std@@@std@@QEAA@_K@Z)
                    11. 0B DC27 0098 0000:?_Getcat@?$money_get@GV?$istreambuf_iterator@GU?$char_traits@G@std@@@std@@@std@@SA_KPEAPEBVfacet@locale@2@@Z (l)0080:?dtor$0@?0??_Getcat@?$money_get@GV?$istreambuf_iterator@GU?$char_traits@G@std@@@std@@@std@@SA_KPEAPEBVfacet@locale@2@@Z@4HA (0046: 03) (REF 0044: ??0?$money_get@GV?$istreambuf_iterator@GU?$char_traits@G@std@@@std@@@std@@QEAA@_K@Z)
                    12. 0B DC27 0098 0000:?_Getcat@?$money_put@DV?$ostreambuf_iterator@DU?$char_traits@D@std@@@std@@@std@@SA_KPEAPEBVfacet@locale@2@@Z (l)0080:?dtor$0@?0??_Getcat@?$money_put@DV?$ostreambuf_iterator@DU?$char_traits@D@std@@@std@@@std@@SA_KPEAPEBVfacet@locale@2@@Z@4HA (0046: 03) (REF 0044: ??0?$money_put@DV?$ostreambuf_iterator@DU?$char_traits@D@std@@@std@@@std@@QEAA@_K@Z)
                    13. 0B DC27 0098 0000:?_Getcat@?$money_get@DV?$istreambuf_iterator@DU?$char_traits@D@std@@@std@@@std@@SA_KPEAPEBVfacet@locale@2@@Z (l)0080:?dtor$0@?0??_Getcat@?$money_get@DV?$istreambuf_iterator@DU?$char_traits@D@std@@@std@@@std@@SA_KPEAPEBVfacet@locale@2@@Z@4HA (0046: 03) (REF 0044: ??0?$money_get@DV?$istreambuf_iterator@DU?$char_traits@D@std@@@std@@@std@@QEAA@_K@Z)
                    14. 0B DC27 0098 0000:?_Getcat@?$num_get@DV?$istreambuf_iterator@DU?$char_traits@D@std@@@std@@@std@@SA_KPEAPEBVfacet@locale@2@@Z (l)0080:?dtor$0@?0??_Getcat@?$num_get@DV?$istreambuf_iterator@DU?$char_traits@D@std@@@std@@@std@@SA_KPEAPEBVfacet@locale@2@@Z@4HA (0046: 04) (REF 0044: ??0?$num_get@DV?$istreambuf_iterator@DU?$char_traits@D@std@@@std@@@std@@QEAA@_K@Z)
                    15. 0B DC27 0098 0000:?_Getcat@?$num_get@GV?$istreambuf_iterator@GU?$char_traits@G@std@@@std@@@std@@SA_KPEAPEBVfacet@locale@2@@Z (l)0080:?dtor$0@?0??_Getcat@?$num_get@GV?$istreambuf_iterator@GU?$char_traits@G@std@@@std@@@std@@SA_KPEAPEBVfacet@locale@2@@Z@4HA (0046: 04) (REF 0044: ??0?$num_get@GV?$istreambuf_iterator@GU?$char_traits@G@std@@@std@@@std@@QEAA@_K@Z)
                    16. 0B DC27 0098 0000:?_Getcat@?$num_put@DV?$ostreambuf_iterator@DU?$char_traits@D@std@@@std@@@std@@SA_KPEAPEBVfacet@locale@2@@Z (l)0080:?dtor$0@?0??_Getcat@?$num_put@DV?$ostreambuf_iterator@DU?$char_traits@D@std@@@std@@@std@@SA_KPEAPEBVfacet@locale@2@@Z@4HA (0046: 04) (REF 0044: ??0?$num_put@DV?$ostreambuf_iterator@DU?$char_traits@D@std@@@std@@@std@@QEAA@_K@Z)
                    17. 0B DC27 0098 0000:?_Getcat@?$num_put@GV?$ostreambuf_iterator@GU?$char_traits@G@std@@@std@@@std@@SA_KPEAPEBVfacet@locale@2@@Z (l)0080:?dtor$0@?0??_Getcat@?$num_put@GV?$ostreambuf_iterator@GU?$char_traits@G@std@@@std@@@std@@SA_KPEAPEBVfacet@locale@2@@Z@4HA (0046: 04) (REF 0044: ??0?$num_put@GV?$ostreambuf_iterator@GU?$char_traits@G@std@@@std@@@std@@QEAA@_K@Z)
                    18. 0B DEBC 0098 0000:?_Getcat@?$moneypunct@G$0A@@std@@SA_KPEAPEBVfacet@locale@2@@Z (l)0080:?dtor$0@?0??_Getcat@?$moneypunct@G$0A@@std@@SA_KPEAPEBVfacet@locale@2@@Z@4HA (REF 0044: ??0?$moneypunct@G$0A@@std@@QEAA@_K@Z)
                    19. 0B DEBC 0098 0000:?_Getcat@?$moneypunct@G$00@std@@SA_KPEAPEBVfacet@locale@2@@Z (l)0080:?dtor$0@?0??_Getcat@?$moneypunct@G$00@std@@SA_KPEAPEBVfacet@locale@2@@Z@4HA (REF 0044: ??0?$moneypunct@G$00@std@@QEAA@_K@Z)
                    20. 0B DEBC 0098 0000:?_Getcat@?$moneypunct@D$00@std@@SA_KPEAPEBVfacet@locale@2@@Z (l)0080:?dtor$0@?0??_Getcat@?$moneypunct@D$00@std@@SA_KPEAPEBVfacet@locale@2@@Z@4HA (REF 0044: ??0?$moneypunct@D$00@std@@QEAA@_K@Z)
                    21. 0B DEBC 0098 0000:?_Getcat@?$moneypunct@D$0A@@std@@SA_KPEAPEBVfacet@locale@2@@Z (l)0080:?dtor$0@?0??_Getcat@?$moneypunct@D$0A@@std@@SA_KPEAPEBVfacet@locale@2@@Z@4HA (REF 0044: ??0?$moneypunct@D$0A@@std@@QEAA@_K@Z)
                    22. 0B FC7D 0098 0000:?_Getcat@?$codecvt@DDU__mbstate_t@@@std@@SA_KPEAPEBVfacet@locale@2@@Z (l)0080:?dtor$0@?0??_Getcat@?$codecvt@DDU__mbstate_t@@@std@@SA_KPEAPEBVfacet@locale@2@@Z@4HA (0046: 02)
                    23. 0B FC7D 0098 0000:?_Getcat@?$messages@D@std@@SA_KPEAPEBVfacet@locale@2@@Z (l)0080:?dtor$0@?0??_Getcat@?$messages@D@std@@SA_KPEAPEBVfacet@locale@2@@Z@4HA (0046: 06) (REF 0044: ??0?$messages@D@std@@QEAA@_K@Z)
                    24. 0B FC7D 0098 0000:?_Getcat@?$messages@G@std@@SA_KPEAPEBVfacet@locale@2@@Z (l)0080:?dtor$0@?0??_Getcat@?$messages@G@std@@SA_KPEAPEBVfacet@locale@2@@Z@4HA (0046: 06) (REF 0044: ??0?$messages@G@std@@QEAA@_K@Z)
                  5B488B44245048:
                    0. 0B B3F5 00A8 0000:?_Getcat@?$ctype@D@std@@SA_KPEAPEBVfacet@locale@2@@Z (l)0090:?dtor$0@?0??_Getcat@?$ctype@D@std@@SA_KPEAPEBVfacet@locale@2@@Z@4HA
          58:
            33D2488B4C2460E8........488B442460488B40304889:
              0. 34 1A3E 00BE 0000:?_Tidy@ios_base@std@@AEAAXXZ
            48895C247848897C24404C8964243833FF4183F8244C89:
              0. 22 B6AC 01CF 0000:__strtoul
            4C8B1D........48895C247848896C24504C89:
              74242845:
                0. FF B6EC 01AB 0000:__strtouq
              7C242045:
                0. FF 646A 01BD 0000:__strtoq
          7848C7442468FEFFFFFF33D2488D4C2430E8........9048:
            0. 02 8E30 0118 0000:??$use_facet@V?$ctype@D@std@@@std@@YAAEBV?$ctype@D@0@AEBVlocale@0@@Z (l)0100:?dtor$0@?0???$use_facet@V?$ctype@D@std@@@std@@YAAEBV?$ctype@D@0@AEBVlocale@0@@Z@4HA (REF 0022: ?_Psave@?$_Facetptr@V?$ctype@D@std@@@std@@2PEBVfacet@locale@2@EB)
            1. 02 8E30 0118 0000:??$use_facet@V?$collate@D@std@@@std@@YAAEBV?$collate@D@0@AEBVlocale@0@@Z (l)0100:?dtor$0@?0???$use_facet@V?$collate@D@std@@@std@@YAAEBV?$collate@D@0@AEBVlocale@0@@Z@4HA (REF 0022: ?_Psave@?$_Facetptr@V?$collate@D@std@@@std@@2PEBVfacet@locale@2@EB)
            2. 02 8E30 0118 0000:??$use_facet@V?$messages@D@std@@@std@@YAAEBV?$messages@D@0@AEBVlocale@0@@Z (l)0100:?dtor$0@?0???$use_facet@V?$messages@D@std@@@std@@YAAEBV?$messages@D@0@AEBVlocale@0@@Z@4HA (REF 0022: ?_Psave@?$_Facetptr@V?$messages@D@std@@@std@@2PEBVfacet@locale@2@EB)
            3. 02 8E30 0118 0000:??$use_facet@V?$money_get@DV?$istreambuf_iterator@DU?$char_traits@D@std@@@std@@@std@@@std@@YAAEBV?$money_get@DV?$istreambuf_iterator@DU?$char_traits@D@std@@@std@@@0@AEBVlocale@0@@Z (l)0100:?dtor$0@?0???$use_facet@V?$money_get@DV?$istreambuf_iterator@DU?$char_traits@D@std@@@std@@@std@@@std@@YAAEBV?$money_get@DV?$istreambuf_iterator@DU?$char_traits@D@std@@@std@@@0@AEBVlocale@0@@Z@4HA (REF 0022: ?_Psave@?$_Facetptr@V?$money_get@DV?$istreambuf_iterator@DU?$char_traits@D@std@@@std@@@std@@@std@@2PEBVfacet@locale@2@EB)
            4. 02 8E30 0118 0000:??$use_facet@V?$money_put@DV?$ostreambuf_iterator@DU?$char_traits@D@std@@@std@@@std@@@std@@YAAEBV?$money_put@DV?$ostreambuf_iterator@DU?$char_traits@D@std@@@std@@@0@AEBVlocale@0@@Z (l)0100:?dtor$0@?0???$use_facet@V?$money_put@DV?$ostreambuf_iterator@DU?$char_traits@D@std@@@std@@@std@@@std@@YAAEBV?$money_put@DV?$ostreambuf_iterator@DU?$char_traits@D@std@@@std@@@0@AEBVlocale@0@@Z@4HA (REF 0022: ?_Psave@?$_Facetptr@V?$money_put@DV?$ostreambuf_iterator@DU?$char_traits@D@std@@@std@@@std@@@std@@2PEBVfacet@locale@2@EB)
            5. 02 8E30 0118 0000:??$use_facet@V?$moneypunct@D$0A@@std@@@std@@YAAEBV?$moneypunct@D$0A@@0@AEBVlocale@0@@Z (l)0100:?dtor$0@?0???$use_facet@V?$moneypunct@D$0A@@std@@@std@@YAAEBV?$moneypunct@D$0A@@0@AEBVlocale@0@@Z@4HA (REF 0022: ?_Psave@?$_Facetptr@V?$moneypunct@D$0A@@std@@@std@@2PEBVfacet@locale@2@EB)
            6. 02 8E30 0118 0000:??$use_facet@V?$moneypunct@D$00@std@@@std@@YAAEBV?$moneypunct@D$00@0@AEBVlocale@0@@Z (l)0100:?dtor$0@?0???$use_facet@V?$moneypunct@D$00@std@@@std@@YAAEBV?$moneypunct@D$00@0@AEBVlocale@0@@Z@4HA (REF 0022: ?_Psave@?$_Facetptr@V?$moneypunct@D$00@std@@@std@@2PEBVfacet@locale@2@EB)
            7. 02 8E30 0118 0000:??$use_facet@V?$time_get@DV?$istreambuf_iterator@DU?$char_traits@D@std@@@std@@@std@@@std@@YAAEBV?$time_get@DV?$istreambuf_iterator@DU?$char_traits@D@std@@@std@@@0@AEBVlocale@0@@Z (l)0100:?dtor$0@?0???$use_facet@V?$time_get@DV?$istreambuf_iterator@DU?$char_traits@D@std@@@std@@@std@@@std@@YAAEBV?$time_get@DV?$istreambuf_iterator@DU?$char_traits@D@std@@@std@@@0@AEBVlocale@0@@Z@4HA (REF 0022: ?_Psave@?$_Facetptr@V?$time_get@DV?$istreambuf_iterator@DU?$char_traits@D@std@@@std@@@std@@@std@@2PEBVfacet@locale@2@EB)
            8. 02 8E30 0118 0000:??$use_facet@V?$time_put@DV?$ostreambuf_iterator@DU?$char_traits@D@std@@@std@@@std@@@std@@YAAEBV?$time_put@DV?$ostreambuf_iterator@DU?$char_traits@D@std@@@std@@@0@AEBVlocale@0@@Z (l)0100:?dtor$0@?0???$use_facet@V?$time_put@DV?$ostreambuf_iterator@DU?$char_traits@D@std@@@std@@@std@@@std@@YAAEBV?$time_put@DV?$ostreambuf_iterator@DU?$char_traits@D@std@@@std@@@0@AEBVlocale@0@@Z@4HA (REF 0022: ?_Psave@?$_Facetptr@V?$time_put@DV?$ostreambuf_iterator@DU?$char_traits@D@std@@@std@@@std@@@std@@2PEBVfacet@locale@2@EB)
            9. 02 8E30 0118 0000:??$use_facet@V?$num_get@DV?$istreambuf_iterator@DU?$char_traits@D@std@@@std@@@std@@@std@@YAAEBV?$num_get@DV?$istreambuf_iterator@DU?$char_traits@D@std@@@std@@@0@AEBVlocale@0@@Z (l)0100:?dtor$0@?0???$use_facet@V?$num_get@DV?$istreambuf_iterator@DU?$char_traits@D@std@@@std@@@std@@@std@@YAAEBV?$num_get@DV?$istreambuf_iterator@DU?$char_traits@D@std@@@std@@@0@AEBVlocale@0@@Z@4HA (REF 0022: ?_Psave@?$_Facetptr@V?$num_get@DV?$istreambuf_iterator@DU?$char_traits@D@std@@@std@@@std@@@std@@2PEBVfacet@locale@2@EB)
            10. 02 8E30 0118 0000:??$use_facet@V?$num_put@DV?$ostreambuf_iterator@DU?$char_traits@D@std@@@std@@@std@@@std@@YAAEBV?$num_put@DV?$ostreambuf_iterator@DU?$char_traits@D@std@@@std@@@0@AEBVlocale@0@@Z (l)0100:?dtor$0@?0???$use_facet@V?$num_put@DV?$ostreambuf_iterator@DU?$char_traits@D@std@@@std@@@std@@@std@@YAAEBV?$num_put@DV?$ostreambuf_iterator@DU?$char_traits@D@std@@@std@@@0@AEBVlocale@0@@Z@4HA (REF 0022: ?_Psave@?$_Facetptr@V?$num_put@DV?$ostreambuf_iterator@DU?$char_traits@D@std@@@std@@@std@@@std@@2PEBVfacet@locale@2@EB)
            11. 02 8E30 0118 0000:??$use_facet@V?$numpunct@D@std@@@std@@YAAEBV?$numpunct@D@0@AEBVlocale@0@@Z (l)0100:?dtor$0@?0???$use_facet@V?$numpunct@D@std@@@std@@YAAEBV?$numpunct@D@0@AEBVlocale@0@@Z@4HA (REF 0022: ?_Psave@?$_Facetptr@V?$numpunct@D@std@@@std@@2PEBVfacet@locale@2@EB)
            12. 02 8E30 0118 0000:??$use_facet@V?$codecvt@DDU__mbstate_t@@@std@@@std@@YAAEBV?$codecvt@DDU__mbstate_t@@@0@AEBVlocale@0@@Z (l)0100:?dtor$0@?0???$use_facet@V?$codecvt@DDU__mbstate_t@@@std@@@std@@YAAEBV?$codecvt@DDU__mbstate_t@@@0@AEBVlocale@0@@Z@4HA (REF 0022: ?_Psave@?$_Facetptr@V?$codecvt@DDU__mbstate_t@@@std@@@std@@2PEBVfacet@locale@2@EB)
            13. 02 8E30 0118 0000:??$use_facet@V?$ctype@G@std@@@std@@YAAEBV?$ctype@G@0@AEBVlocale@0@@Z (l)0100:?dtor$0@?0???$use_facet@V?$ctype@G@std@@@std@@YAAEBV?$ctype@G@0@AEBVlocale@0@@Z@4HA (REF 0022: ?_Psave@?$_Facetptr@V?$ctype@G@std@@@std@@2PEBVfacet@locale@2@EB)
            14. 02 8E30 0118 0000:??$use_facet@V?$num_get@GV?$istreambuf_iterator@GU?$char_traits@G@std@@@std@@@std@@@std@@YAAEBV?$num_get@GV?$istreambuf_iterator@GU?$char_traits@G@std@@@std@@@0@AEBVlocale@0@@Z (l)0100:?dtor$0@?0???$use_facet@V?$num_get@GV?$istreambuf_iterator@GU?$char_traits@G@std@@@std@@@std@@@std@@YAAEBV?$num_get@GV?$istreambuf_iterator@GU?$char_traits@G@std@@@std@@@0@AEBVlocale@0@@Z@4HA (REF 0022: ?_Psave@?$_Facetptr@V?$num_get@GV?$istreambuf_iterator@GU?$char_traits@G@std@@@std@@@std@@@std@@2PEBVfacet@locale@2@EB)
            15. 02 8E30 0118 0000:??$use_facet@V?$num_put@GV?$ostreambuf_iterator@GU?$char_traits@G@std@@@std@@@std@@@std@@YAAEBV?$num_put@GV?$ostreambuf_iterator@GU?$char_traits@G@std@@@std@@@0@AEBVlocale@0@@Z (l)0100:?dtor$0@?0???$use_facet@V?$num_put@GV?$ostreambuf_iterator@GU?$char_traits@G@std@@@std@@@std@@@std@@YAAEBV?$num_put@GV?$ostreambuf_iterator@GU?$char_traits@G@std@@@std@@@0@AEBVlocale@0@@Z@4HA (REF 0022: ?_Psave@?$_Facetptr@V?$num_put@GV?$ostreambuf_iterator@GU?$char_traits@G@std@@@std@@@std@@@std@@2PEBVfacet@locale@2@EB)
            16. 02 8E30 0118 0000:??$use_facet@V?$numpunct@G@std@@@std@@YAAEBV?$numpunct@G@0@AEBVlocale@0@@Z (l)0100:?dtor$0@?0???$use_facet@V?$numpunct@G@std@@@std@@YAAEBV?$numpunct@G@0@AEBVlocale@0@@Z@4HA (REF 0022: ?_Psave@?$_Facetptr@V?$numpunct@G@std@@@std@@2PEBVfacet@locale@2@EB)
            17. 02 8E30 0118 0000:??$use_facet@V?$collate@G@std@@@std@@YAAEBV?$collate@G@0@AEBVlocale@0@@Z (l)0100:?dtor$0@?0???$use_facet@V?$collate@G@std@@@std@@YAAEBV?$collate@G@0@AEBVlocale@0@@Z@4HA (REF 0022: ?_Psave@?$_Facetptr@V?$collate@G@std@@@std@@2PEBVfacet@locale@2@EB)
            18. 02 8E30 0118 0000:??$use_facet@V?$messages@G@std@@@std@@YAAEBV?$messages@G@0@AEBVlocale@0@@Z (l)0100:?dtor$0@?0???$use_facet@V?$messages@G@std@@@std@@YAAEBV?$messages@G@0@AEBVlocale@0@@Z@4HA (REF 0022: ?_Psave@?$_Facetptr@V?$messages@G@std@@@std@@2PEBVfacet@locale@2@EB)
            19. 02 8E30 0118 0000:??$use_facet@V?$money_get@GV?$istreambuf_iterator@GU?$char_traits@G@std@@@std@@@std@@@std@@YAAEBV?$money_get@GV?$istreambuf_iterator@GU?$char_traits@G@std@@@std@@@0@AEBVlocale@0@@Z (l)0100:?dtor$0@?0???$use_facet@V?$money_get@GV?$istreambuf_iterator@GU?$char_traits@G@std@@@std@@@std@@@std@@YAAEBV?$money_get@GV?$istreambuf_iterator@GU?$char_traits@G@std@@@std@@@0@AEBVlocale@0@@Z@4HA (REF 0022: ?_Psave@?$_Facetptr@V?$money_get@GV?$istreambuf_iterator@GU?$char_traits@G@std@@@std@@@std@@@std@@2PEBVfacet@locale@2@EB)
            20. 02 8E30 0118 0000:??$use_facet@V?$money_put@GV?$ostreambuf_iterator@GU?$char_traits@G@std@@@std@@@std@@@std@@YAAEBV?$money_put@GV?$ostreambuf_iterator@GU?$char_traits@G@std@@@std@@@0@AEBVlocale@0@@Z (l)0100:?dtor$0@?0???$use_facet@V?$money_put@GV?$ostreambuf_iterator@GU?$char_traits@G@std@@@std@@@std@@@std@@YAAEBV?$money_put@GV?$ostreambuf_iterator@GU?$char_traits@G@std@@@std@@@0@AEBVlocale@0@@Z@4HA (REF 0022: ?_Psave@?$_Facetptr@V?$money_put@GV?$ostreambuf_iterator@GU?$char_traits@G@std@@@std@@@std@@@std@@2PEBVfacet@locale@2@EB)
            21. 02 8E30 0118 0000:??$use_facet@V?$moneypunct@G$0A@@std@@@std@@YAAEBV?$moneypunct@G$0A@@0@AEBVlocale@0@@Z (l)0100:?dtor$0@?0???$use_facet@V?$moneypunct@G$0A@@std@@@std@@YAAEBV?$moneypunct@G$0A@@0@AEBVlocale@0@@Z@4HA (REF 0022: ?_Psave@?$_Facetptr@V?$moneypunct@G$0A@@std@@@std@@2PEBVfacet@locale@2@EB)
            22. 02 8E30 0118 0000:??$use_facet@V?$moneypunct@G$00@std@@@std@@YAAEBV?$moneypunct@G$00@0@AEBVlocale@0@@Z (l)0100:?dtor$0@?0???$use_facet@V?$moneypunct@G$00@std@@@std@@YAAEBV?$moneypunct@G$00@0@AEBVlocale@0@@Z@4HA (REF 0022: ?_Psave@?$_Facetptr@V?$moneypunct@G$00@std@@@std@@2PEBVfacet@locale@2@EB)
            23. 02 8E30 0118 0000:??$use_facet@V?$time_get@GV?$istreambuf_iterator@GU?$char_traits@G@std@@@std@@@std@@@std@@YAAEBV?$time_get@GV?$istreambuf_iterator@GU?$char_traits@G@std@@@std@@@0@AEBVlocale@0@@Z (l)0100:?dtor$0@?0???$use_facet@V?$time_get@GV?$istreambuf_iterator@GU?$char_traits@G@std@@@std@@@std@@@std@@YAAEBV?$time_get@GV?$istreambuf_iterator@GU?$char_traits@G@std@@@std@@@0@AEBVlocale@0@@Z@4HA (REF 0022: ?_Psave@?$_Facetptr@V?$time_get@GV?$istreambuf_iterator@GU?$char_traits@G@std@@@std@@@std@@@std@@2PEBVfacet@locale@2@EB)
            24. 02 8E30 0118 0000:??$use_facet@V?$time_put@GV?$ostreambuf_iterator@GU?$char_traits@G@std@@@std@@@std@@@std@@YAAEBV?$time_put@GV?$ostreambuf_iterator@GU?$char_traits@G@std@@@std@@@0@AEBVlocale@0@@Z (l)0100:?dtor$0@?0???$use_facet@V?$time_put@GV?$ostreambuf_iterator@GU?$char_traits@G@std@@@std@@@std@@@std@@YAAEBV?$time_put@GV?$ostreambuf_iterator@GU?$char_traits@G@std@@@std@@@0@AEBVlocale@0@@Z@4HA (REF 0022: ?_Psave@?$_Facetptr@V?$time_put@GV?$ostreambuf_iterator@GU?$char_traits@G@std@@@std@@@std@@@std@@2PEBVfacet@locale@2@EB)
            25. 02 8E30 0118 0000:??$use_facet@V?$codecvt@GDU__mbstate_t@@@std@@@std@@YAAEBV?$codecvt@GDU__mbstate_t@@@0@AEBVlocale@0@@Z (l)0100:?dtor$0@?0???$use_facet@V?$codecvt@GDU__mbstate_t@@@std@@@std@@YAAEBV?$codecvt@GDU__mbstate_t@@@0@AEBVlocale@0@@Z@4HA (REF 0022: ?_Psave@?$_Facetptr@V?$codecvt@GDU__mbstate_t@@@std@@@std@@2PEBVfacet@locale@2@EB)
        895424104C894424184C894C2420:
          4883EC:
            28488BD14C8D442438:
              0. 03 29E1 0031 0000:__printf
            38:
              48895C2430488974:
                0. 10 D049 00D5 0000:__warn
              833D........0048:
                0. 16 D9A1 00A7 0000:__warnx
          534883EC20833D........00:
            0. 0A A5BD 0069 0000:__scanf
        8B:
          442408:
            0FB600C3:
              0. 00 0000 000E 0000:?to_int_type@?$char_traits@D@std@@SAHAEBD@Z
            48:
              8905........:
                33C0C3CCCCCCCCCCCCCCCCCCCCCCCC:
                  0. 07 95D2 0EAA 0000:__PosixSetUnhandledExceptionFilter 0020:_mainCRTStartup (l)005E:$LN6 (l)0070:_mainCRTStartup$filt$0 (l)0079:$LN5 (l)0089:$LN7 (l)00A0:__PosixUnhandledExceptionFilter 00D0:RaiseException 00F0:_fptrap 0130:__PosixProcessStartup (l)0310:posix_argv0 (l)0430:setup_progname (l)04A0:LoadLdDotSoIfRequired 0820:__MixedModeProcessStartup (l)0920:setargv (l)0B00:wparse_cmdline
                C3CCCCCCCCCCCCCCCCCCCCCCCCCCCC:
                  0. 0C 2BD1 00ED 0000:_initp_heap_handler 0020:?_set_new_handler@@YAP6AH_K@ZP6AH0@Z@Z 0070:?_set_new_handler@@YAP6AH_K@ZH@Z 0090:?_query_new_handler@@YAP6AH_K@ZXZ 00B0:_callnewh
              8B:
                00:
                  488B4C240848034108C3:
                    0. 00 0000 0017 0000:??B?$fpos@U__mbstate_t@@@std@@QEBA_JXZ
                  C3:
                    0. 00 0000 000E 0000:?_Getptr@_Timevec@std@@QEBAPEAXXZ
                40:
                  08C3:
                    0. 00 0000 000F 0000:?seekpos@?$fpos@U__mbstate_t@@@std@@QEBA_JXZ
                  18C3:
                    0. 00 0000 000F 0000:?size@?$basic_string@DU?$char_traits@D@std@@V?$allocator@D@2@@std@@QEBA_KXZ
                  20:
                    488B00C3:
                      0. 00 0000 0012 0000:?eback@?$basic_streambuf@GU?$char_traits@G@std@@@std@@IEBAPEAGXZ
                    C3:
                      0. 00 0000 000F 0000:?precision@ios_base@std@@QEBA_JXZ
                  28:
                    488B00C3:
                      0. 00 0000 0012 0000:?pbase@?$basic_streambuf@GU?$char_traits@G@std@@@std@@IEBAPEAGXZ
                    C3:
                      0. 00 0000 000F 0000:?width@ios_base@std@@QEBA_JXZ
                  40488B:
                    00C3:
                      0. 00 0000 0012 0000:?gptr@?$basic_streambuf@DU?$char_traits@D@std@@@std@@IEBAPEADXZ
                    4C2408488B495848630948:
                      0308488BC1:
                        0. 01 EF04 0021 0000:?egptr@?$basic_streambuf@DU?$char_traits@D@std@@@std@@IEBAPEADXZ
                      8B00488D04:
                        0. 02 7673 0022 0000:?egptr@?$basic_streambuf@GU?$char_traits@G@std@@@std@@IEBAPEAGXZ
                  48:
                    488B:
                      00C3:
                        0. 00 0000 0012 0000:?pptr@?$basic_streambuf@GU?$char_traits@G@std@@@std@@IEBAPEAGXZ
                      4C2408488B496048630948:
                        0308488BC1:
                          0. 01 EF04 0021 0000:?epptr@?$basic_streambuf@DU?$char_traits@D@std@@@std@@IEBAPEADXZ
                        8B00488D04:
                          0. 02 7673 0022 0000:?epptr@?$basic_streambuf@GU?$char_traits@G@std@@@std@@IEBAPEAGXZ
                    C3:
                      0. 00 0000 000F 0000:?rdbuf@?$basic_ios@DU?$char_traits@D@std@@@std@@QEBAPEAV?$basic_streambuf@DU?$char_traits@D@std@@@2@XZ
                  50C3:
                    0. 00 0000 000F 0000:?tie@?$basic_ios@DU?$char_traits@D@std@@@std@@QEBAPEAV?$basic_ostream@DU?$char_traits@D@std@@@2@XZ
                  588B00FF:
                    C0488B4C2408488B49588901488B44:
                      0. 26 239B 0046 0000:?_Gndec@?$basic_streambuf@GU?$char_traits@G@std@@@std@@IEAAPEAGXZ
                      1. 25 5787 0045 0000:?_Gndec@?$basic_streambuf@DU?$char_traits@D@std@@@std@@IEAAPEADXZ
                    C8488B4C2408488B49588901488B44:
                      0. 25 B1DD 0045 0000:?_Gnpreinc@?$basic_streambuf@DU?$char_traits@D@std@@@std@@IEAAPEADXZ
                      1. 26 EB00 0046 0000:?_Gnpreinc@?$basic_streambuf@GU?$char_traits@G@std@@@std@@IEAAPEAGXZ
                  F048634004488B4C2408488D15........4889:
                    0. 04 6789 0024 0000:??1?$basic_istream@GU?$char_traits@G@std@@@std@@UEAA@XZ (REF 001A: ??_7?$basic_istream@GU?$char_traits@G@std@@@std@@6B@)
                    1. 04 6789 0024 0000:??1?$basic_istream@DU?$char_traits@D@std@@@std@@UEAA@XZ (REF 001A: ??_7?$basic_istream@DU?$char_traits@D@std@@@std@@6B@)
                  F848634004488B4C2408488D15........4889:
                    0. 04 A747 0024 0000:??1?$basic_ostream@GU?$char_traits@G@std@@@std@@UEAA@XZ (REF 001A: ??_7?$basic_ostream@GU?$char_traits@G@std@@@std@@6B@)
                    1. 04 A747 0024 0000:??1?$basic_ostream@DU?$char_traits@D@std@@@std@@UEAA@XZ (REF 001A: ??_7?$basic_ostream@DU?$char_traits@D@std@@@std@@6B@)
              8D0D........488908:
                488B442408:
                  48C74008000000:
                    0. 36 8CA2 0557 0000:??0exception@std@@QEAA@XZ 0040:??0exception@std@@QEAA@AEBQEBD@Z 00F0:??0exception@std@@QEAA@AEBQEBDH@Z 0140:??0exception@std@@QEAA@AEBV01@@Z 0210:??4exception@std@@QEAAAEAV01@AEBV01@@Z 02E0:??1exception@std@@UEAA@XZ 0320:?what@exception@std@@UEBAPEBDXZ 0350:??0bad_cast@std@@QEAA@PEBD@Z 0390:??0bad_cast@std@@QEAA@AEBV01@@Z 03D0:??1bad_cast@std@@UEAA@XZ 0400:??0bad_typeid@std@@QEAA@PEBD@Z 0440:??0bad_typeid@std@@QEAA@AEBV01@@Z 0480:??1bad_typeid@std@@UEAA@XZ 04B0:??0__non_rtti_object@std@@QEAA@PEBD@Z 04F0:??0__non_rtti_object@std@@QEAA@AEBV01@@Z 0530:??1__non_rtti_object@std@@UEAA@XZ
                    1. 36 E38F 02A6 0000:??0exception@@QEAA@XZ 0040:??0exception@@QEAA@AEBQEBD@Z 0100:??0exception@@QEAA@AEBV0@@Z 01E0:??4exception@@QEAAAEAV0@AEBV0@@Z 0230:??1exception@@UEAA@XZ 0280:?what@exception@@UEBAPEBDXZ
                  C3:
                    0. 00 0000 001A 0000:??0ios_base@std@@IEAA@XZ
                C3:
                  0. 00 0000 0015 0000:??1facet@locale@std@@UEAA@XZ
              C70000000000488B442408C3:
                0. 00 0000 0017 0000:??0_Iterator_base@std@@QEAA@XZ
            66:
              0F12:
                00C3:
                  0. 00 0000 000F 0000:?real@?$_Complex_base@NU_C_double_complex@@@std@@QEBANXZ
                4008C3:
                  0. 00 0000 0010 0000:?imag@?$_Complex_base@NU_C_double_complex@@@std@@QEBANXZ
              8B:
                00C3:
                  0. 00 0000 000E (!)0000:?
                40:
                  18C3:
                    0. 00 0000 000F 0000:?do_decimal_point@?$numpunct@G@std@@MEBAGXZ
                  1AC3:
                    0. 00 0000 000F 0000:?do_thousands_sep@?$numpunct@G@std@@MEBAGXZ
                  58C3:
                    0. 00 0000 000F 0000:?fill@?$basic_ios@GU?$char_traits@G@std@@@std@@QEBAGXZ
            8A:
              00C3:
                0. 00 0000 000D 0000:?to_char_type@?$char_traits@D@std@@SADAEBH@Z
              40:
                08C3:
                  0. 00 0000 000E (!)0000:?
                18C3:
                  0. 00 0000 000E 0000:?do_decimal_point@?$numpunct@D@std@@MEBADXZ
                19C3:
                  0. 00 0000 000E 0000:?do_thousands_sep@?$numpunct@D@std@@MEBADXZ
                58C3:
                  0. 00 0000 000E 0000:?fill@?$basic_ios@DU?$char_traits@D@std@@@std@@QEBADXZ
            8B40:
              10C3:
                0. 00 0000 000E 0000:?rdstate@ios_base@std@@QEBAHXZ
              18C3:
                0. 00 0000 000E 0000:?flags@ios_base@std@@QEBAHXZ
              20C3:
                0. 00 0000 000E (!)0000:?
              38C3:
                0. 00 0000 000E (!)0000:?
            C3:
              0. 00 0000 000B (!)0000:?
            F30F10:
              00C3:
                0. 00 0000 000F 0000:?real@?$_Complex_base@MU_C_float_complex@@@std@@QEBAMXZ
              4004C3:
                0. 00 0000 0010 0000:?imag@?$_Complex_base@MU_C_float_complex@@@std@@QEBAMXZ
          C448:
            81EC:
              3801000048895820488970F04C8960E04C8970D04C:
                0. 43 F957 0626 0000:__regcomp
              B8000000488958F8488968F0488970E8488978E04C:
                0. 89 1659 0689 (l)0000:fixup
            83EC6848895820488978E84C8960E033FF4183F8244C89:
              0. 25 1957 01EF 0000:__strtol
        8D05........C3:
          0. 00 0000 000D 0000:?_Getfalse@_Locinfo@std@@QEBAPEBDXZ (REF 0008: ??_C@_05LAPONLG@false?$AA@)
          1. 00 0000 000D 0000:?_Gettrue@_Locinfo@std@@QEBAPEBDXZ (REF 0008: ??_C@_04LOAJBDKD@true?$AA@)
      B001C3:
        0. 00 0000 0008 0000:?do_always_noconv@codecvt_base@std@@MEBA_NXZ
      B8:
        01000000C3:
          0. 00 0000 000B (!)0000:?
        02000000C3:
          0. 00 0000 000B 0000:?do_max_length@?$codecvt@GDU__mbstate_t@@@std@@MEBAHXZ
    542410:
      48:
        83EC:
          580FB60148895C245048896C244884C0488974244048897C:
            0. 17 800C 0C9A (l)0000:_fmt (l)004C:$checkField$2447 (l)006A:$LN103 (l)006D:$LN2 (l)0091:$LN102 (l)00D4:$LN98 (l)0117:$LN94 (l)015A:$LN90 (l)019D:$LN86 (l)01F9:$LN84 (l)0229:$LN82 (l)0253:$LN80 (l)0280:$LN78 (l)02AD:$LN76 (l)02D6:$LN74 (l)0303:$LN72 (l)0354:$LN70 (l)0383:$LN68 (l)03B0:$LN66 (l)0401:$LN64 (l)042E:$LN62 (l)045D:$LN60 (l)049D:$LN58 (l)04C6:$LN56 (l)052E:$LN54 (l)0558:$LN52 (l)0588:$LN50 (l)05B4:$LN48 (l)05D6:$LN46 (l)0600:$LN44 (l)063E:$LN42 (l)069A:$LN37 (l)06E6:$LN35 (l)0907:$LN19 (l)09A0:$LN14 (l)09CD:$LN12 (l)09FD:$LN10 (l)0A2D:$LN8 (l)0A76:$LN6 (l)0AA5:$LN4
          6848897424504C896C24384C897424304C897C24284D8BE8:
            0. 07 174C 0194 0000:__scandir
        894C2408:
          48:
            81EC:
              0801000048C78424E8000000FEFFFFFF488B05:
                0. 00 0000 0118 0000:??0?$numpunct@G@std@@QEAA@_K@Z (l)00E0:?dtor$0@?0???0?$numpunct@G@std@@QEAA@_K@Z@4HA (l)0100:?dtor$1@?0???0?$numpunct@G@std@@QEAA@_K@Z@4HA (00B9: C3)
                1. 00 0000 0118 0000:??0?$numpunct@D@std@@QEAA@_K@Z (l)00E0:?dtor$0@?0???0?$numpunct@D@std@@QEAA@_K@Z@4HA (l)0100:?dtor$1@?0???0?$numpunct@D@std@@QEAA@_K@Z@4HA (00B9: CC)
              28030000488B05........4889842418030000:
                0. 28 39A0 0118 0000:__wcstod
              A800000048C74424:
                40FEFFFFFF488D54243848:
                  0. 08 5422 0383 0000:?_Init@?$_Mpunct@G@std@@IEAAXAEBV_Locinfo@2@@Z (l)01D7:$LN17 (l)0350:?catch$0@?0??_Init@?$_Mpunct@G@std@@IEAAXAEBV_Locinfo@2@@Z@4HA (l)035D:__catch$?_Init@?$_Mpunct@G@std@@IEAAXAEBV_Locinfo@2@@Z$0 (0324: C3)
                  1. 08 5422 0383 0000:?_Init@?$_Mpunct@D@std@@IEAAXAEBV_Locinfo@2@@Z (l)01D7:$LN17 (l)0350:?catch$0@?0??_Init@?$_Mpunct@D@std@@IEAAXAEBV_Locinfo@2@@Z@4HA (l)035D:__catch$?_Init@?$_Mpunct@D@std@@IEAAXAEBV_Locinfo@2@@Z$0 (0324: CC)
                50FEFFFFFF488B8C24B800:
                  0. 03 8AAD 01F3 0000:?_Init@?$numpunct@G@std@@IEAAXAEBV_Locinfo@2@@Z (l)0150:$LN7 (l)01C0:?catch$0@?0??_Init@?$numpunct@G@std@@IEAAXAEBV_Locinfo@2@@Z@4HA (l)01CD:__catch$?_Init@?$numpunct@G@std@@IEAAXAEBV_Locinfo@2@@Z$0 (019B: C3)
                  1. 03 8AAD 01F3 0000:?_Init@?$numpunct@D@std@@IEAAXAEBV_Locinfo@2@@Z (l)0150:$LN7 (l)01C0:?catch$0@?0??_Init@?$numpunct@D@std@@IEAAXAEBV_Locinfo@2@@Z@4HA (l)01CD:__catch$?_Init@?$numpunct@D@std@@IEAAXAEBV_Locinfo@2@@Z$0 (019B: CC)
                70FEFFFFFF488B8424B000:
                  0. 20 9E64 0338 0000:??$?5MGU?$char_traits@G@std@@@std@@YAAEAV?$basic_istream@GU?$char_traits@G@std@@@0@AEAV10@AEAV?$complex@M@0@@Z (l)0320:?dtor$0@?0???$?5MGU?$char_traits@G@std@@@std@@YAAEAV?$basic_istream@GU?$char_traits@G@std@@@0@AEAV10@AEAV?$complex@M@0@@Z@4HA (0227: B7)
                  1. 20 9E64 0338 0000:??$?5MDU?$char_traits@D@std@@@std@@YAAEAV?$basic_istream@DU?$char_traits@D@std@@@0@AEAV10@AEAV?$complex@M@0@@Z (l)0320:?dtor$0@?0???$?5MDU?$char_traits@D@std@@@std@@YAAEAV?$basic_istream@DU?$char_traits@D@std@@@0@AEAV10@AEAV?$complex@M@0@@Z@4HA (0227: B6)
              B8:
                00000048C7:
                  442458FEFFFFFFC74424200000:
                    0. 0B A922 0459 0000:??$?6GU?$char_traits@G@std@@@std@@YAAEAV?$basic_ostream@GU?$char_traits@G@std@@@0@AEAV10@PEBG@Z (l)039C:$LN23 (l)03F0:?dtor$0@?0???$?6GU?$char_traits@G@std@@@std@@YAAEAV?$basic_ostream@GU?$char_traits@G@std@@@0@AEAV10@PEBG@Z@4HA (l)0410:?catch$0@?0???$?6GU?$char_traits@G@std@@@std@@YAAEAV?$basic_ostream@GU?$char_traits@G@std@@@0@AEAV10@PEBG@Z@4HA (l)041D:__catch$??$?6GU?$char_traits@G@std@@@std@@YAAEAV?$basic_ostream@GU?$char_traits@G@std@@@0@AEAV10@PEBG@Z$0
                  842480000000FEFFFFFF488B84:
                    0. 23 9EEE 0348 0000:??$?5NGU?$char_traits@G@std@@@std@@YAAEAV?$basic_istream@GU?$char_traits@G@std@@@0@AEAV10@AEAV?$complex@N@0@@Z (l)0330:?dtor$0@?0???$?5NGU?$char_traits@G@std@@@std@@YAAEAV?$basic_istream@GU?$char_traits@G@std@@@0@AEAV10@AEAV?$complex@N@0@@Z@4HA (022D: B7) (REF 0302: ??0?$complex@N@std@@QEAA@AEBN0@Z)
                    1. 23 9EEE 0348 0000:??$?5OGU?$char_traits@G@std@@@std@@YAAEAV?$basic_istream@GU?$char_traits@G@std@@@0@AEAV10@AEAV?$complex@O@0@@Z (l)0330:?dtor$0@?0???$?5OGU?$char_traits@G@std@@@std@@YAAEAV?$basic_istream@GU?$char_traits@G@std@@@0@AEAV10@AEAV?$complex@O@0@@Z@4HA (022D: B7) (REF 0302: ??0?$complex@O@std@@QEAA@AEBO0@Z)
                    2. 23 9EEE 0348 0000:??$?5ODU?$char_traits@D@std@@@std@@YAAEAV?$basic_istream@DU?$char_traits@D@std@@@0@AEAV10@AEAV?$complex@O@0@@Z (l)0330:?dtor$0@?0???$?5ODU?$char_traits@D@std@@@std@@YAAEAV?$basic_istream@DU?$char_traits@D@std@@@0@AEAV10@AEAV?$complex@O@0@@Z@4HA (022D: B6) (REF 0302: ??0?$complex@O@std@@QEAA@AEBO0@Z)
                    3. 23 9EEE 0348 0000:??$?5NDU?$char_traits@D@std@@@std@@YAAEAV?$basic_istream@DU?$char_traits@D@std@@@0@AEAV10@AEAV?$complex@N@0@@Z (l)0330:?dtor$0@?0???$?5NDU?$char_traits@D@std@@@std@@YAAEAV?$basic_istream@DU?$char_traits@D@std@@@0@AEAV10@AEAV?$complex@N@0@@Z@4HA (022D: B6) (REF 0302: ??0?$complex@N@std@@QEAA@AEBN0@Z)
                01000048C7842468010000FEFFFFFF488B05:
                  0. 00 0000 035B 0000:??$?6MGU?$char_traits@G@std@@@std@@YAAEAV?$basic_ostream@GU?$char_traits@G@std@@@0@AEAV10@AEBV?$complex@M@0@@Z (l)02E0:?dtor$0@?0???$?6MGU?$char_traits@G@std@@@std@@YAAEAV?$basic_ostream@GU?$char_traits@G@std@@@0@AEAV10@AEBV?$complex@M@0@@Z@4HA (l)0300:?dtor$1@?0???$?6MGU?$char_traits@G@std@@@std@@YAAEAV?$basic_ostream@GU?$char_traits@G@std@@@0@AEAV10@AEBV?$complex@M@0@@Z@4HA (l)0320:?dtor$2@?0???$?6MGU?$char_traits@G@std@@@std@@YAAEAV?$basic_ostream@GU?$char_traits@G@std@@@0@AEAV10@AEBV?$complex@M@0@@Z@4HA (l)0340:?dtor$4@?0???$?6MGU?$char_traits@G@std@@@std@@YAAEAV?$basic_ostream@GU?$char_traits@G@std@@@0@AEAV10@AEBV?$complex@M@0@@Z@4HA (02B4: C3)
                  1. 00 0000 035B 0000:??$?6MDU?$char_traits@D@std@@@std@@YAAEAV?$basic_ostream@DU?$char_traits@D@std@@@0@AEAV10@AEBV?$complex@M@0@@Z (l)02E0:?dtor$0@?0???$?6MDU?$char_traits@D@std@@@std@@YAAEAV?$basic_ostream@DU?$char_traits@D@std@@@0@AEAV10@AEBV?$complex@M@0@@Z@4HA (l)0300:?dtor$1@?0???$?6MDU?$char_traits@D@std@@@std@@YAAEAV?$basic_ostream@DU?$char_traits@D@std@@@0@AEAV10@AEBV?$complex@M@0@@Z@4HA (l)0320:?dtor$2@?0???$?6MDU?$char_traits@D@std@@@std@@YAAEAV?$basic_ostream@DU?$char_traits@D@std@@@0@AEAV10@AEBV?$complex@M@0@@Z@4HA (l)0340:?dtor$4@?0???$?6MDU?$char_traits@D@std@@@std@@YAAEAV?$basic_ostream@DU?$char_traits@D@std@@@0@AEAV10@AEBV?$complex@M@0@@Z@4HA (02B4: CC)
              C8:
                00000048C74424:
                  60FEFFFFFFC74424200000:
                    0. 0B E996 0459 0000:??$?6U?$char_traits@D@std@@@std@@YAAEAV?$basic_ostream@DU?$char_traits@D@std@@@0@AEAV10@PEBD@Z (l)03A0:$LN23 (l)03F0:?dtor$0@?0???$?6U?$char_traits@D@std@@@std@@YAAEAV?$basic_ostream@DU?$char_traits@D@std@@@0@AEAV10@PEBD@Z@4HA (l)0410:?catch$0@?0???$?6U?$char_traits@D@std@@@std@@YAAEAV?$basic_ostream@DU?$char_traits@D@std@@@0@AEAV10@PEBD@Z@4HA (l)041D:__catch$??$?6U?$char_traits@D@std@@@std@@YAAEAV?$basic_ostream@DU?$char_traits@D@std@@@0@AEAV10@PEBD@Z$0
                  68FEFFFFFFC74424200000:
                    0. 0B E996 04F9 0000:??$?6GU?$char_traits@G@std@@V?$allocator@G@1@@std@@YAAEAV?$basic_ostream@GU?$char_traits@G@std@@@0@AEAV10@AEBV?$basic_string@GU?$char_traits@G@std@@V?$allocator@G@2@@0@@Z (l)0439:$LN27 (l)0490:?dtor$0@?0???$?6GU?$char_traits@G@std@@V?$allocator@G@1@@std@@YAAEAV?$basic_ostream@GU?$char_traits@G@std@@@0@AEAV10@AEBV?$basic_string@GU?$char_traits@G@std@@V?$allocator@G@2@@0@@Z@4HA (l)04B0:?catch$0@?0???$?6GU?$char_traits@G@std@@V?$allocator@G@1@@std@@YAAEAV?$basic_ostream@GU?$char_traits@G@std@@@0@AEAV10@AEBV?$basic_string@GU?$char_traits@G@std@@V?$allocator@G@2@@0@@Z@4HA (l)04BD:__catch$??$?6GU?$char_traits@G@std@@V?$allocator@G@1@@std@@YAAEAV?$basic_ostream@GU?$char_traits@G@std@@@0@AEAV10@AEBV?$basic_string@GU?$char_traits@G@std@@V?$allocator@G@2@@0@@Z$0
                01000048C7842468010000FEFFFFFF488B05:
                  0. 00 0000 035B 0000:??$?6NGU?$char_traits@G@std@@@std@@YAAEAV?$basic_ostream@GU?$char_traits@G@std@@@0@AEAV10@AEBV?$complex@N@0@@Z (l)02E0:?dtor$0@?0???$?6NGU?$char_traits@G@std@@@std@@YAAEAV?$basic_ostream@GU?$char_traits@G@std@@@0@AEAV10@AEBV?$complex@N@0@@Z@4HA (l)0300:?dtor$1@?0???$?6NGU?$char_traits@G@std@@@std@@YAAEAV?$basic_ostream@GU?$char_traits@G@std@@@0@AEAV10@AEBV?$complex@N@0@@Z@4HA (l)0320:?dtor$2@?0???$?6NGU?$char_traits@G@std@@@std@@YAAEAV?$basic_ostream@GU?$char_traits@G@std@@@0@AEAV10@AEBV?$complex@N@0@@Z@4HA (l)0340:?dtor$4@?0???$?6NGU?$char_traits@G@std@@@std@@YAAEAV?$basic_ostream@GU?$char_traits@G@std@@@0@AEAV10@AEBV?$complex@N@0@@Z@4HA (02B6: C3) (REF 01C4: ??$imag@N@std@@YANAEBV?$complex@N@0@@Z)
                  1. 00 0000 035B 0000:??$?6OGU?$char_traits@G@std@@@std@@YAAEAV?$basic_ostream@GU?$char_traits@G@std@@@0@AEAV10@AEBV?$complex@O@0@@Z (l)02E0:?dtor$0@?0???$?6OGU?$char_traits@G@std@@@std@@YAAEAV?$basic_ostream@GU?$char_traits@G@std@@@0@AEAV10@AEBV?$complex@O@0@@Z@4HA (l)0300:?dtor$1@?0???$?6OGU?$char_traits@G@std@@@std@@YAAEAV?$basic_ostream@GU?$char_traits@G@std@@@0@AEAV10@AEBV?$complex@O@0@@Z@4HA (l)0320:?dtor$2@?0???$?6OGU?$char_traits@G@std@@@std@@YAAEAV?$basic_ostream@GU?$char_traits@G@std@@@0@AEAV10@AEBV?$complex@O@0@@Z@4HA (l)0340:?dtor$4@?0???$?6OGU?$char_traits@G@std@@@std@@YAAEAV?$basic_ostream@GU?$char_traits@G@std@@@0@AEAV10@AEBV?$complex@O@0@@Z@4HA (02B6: C3) (REF 01C4: ??$imag@O@std@@YAOAEBV?$complex@O@0@@Z)
                  2. 00 0000 035B 0000:??$?6ODU?$char_traits@D@std@@@std@@YAAEAV?$basic_ostream@DU?$char_traits@D@std@@@0@AEAV10@AEBV?$complex@O@0@@Z (l)02E0:?dtor$0@?0???$?6ODU?$char_traits@D@std@@@std@@YAAEAV?$basic_ostream@DU?$char_traits@D@std@@@0@AEAV10@AEBV?$complex@O@0@@Z@4HA (l)0300:?dtor$1@?0???$?6ODU?$char_traits@D@std@@@std@@YAAEAV?$basic_ostream@DU?$char_traits@D@std@@@0@AEAV10@AEBV?$complex@O@0@@Z@4HA (l)0320:?dtor$2@?0???$?6ODU?$char_traits@D@std@@@std@@YAAEAV?$basic_ostream@DU?$char_traits@D@std@@@0@AEAV10@AEBV?$complex@O@0@@Z@4HA (l)0340:?dtor$4@?0???$?6ODU?$char_traits@D@std@@@std@@YAAEAV?$basic_ostream@DU?$char_traits@D@std@@@0@AEAV10@AEBV?$complex@O@0@@Z@4HA (02B6: CC) (REF 01C3: ??$imag@O@std@@YAOAEBV?$complex@O@0@@Z)
                  3. 00 0000 035B 0000:??$?6NDU?$char_traits@D@std@@@std@@YAAEAV?$basic_ostream@DU?$char_traits@D@std@@@0@AEAV10@AEBV?$complex@N@0@@Z (l)02E0:?dtor$0@?0???$?6NDU?$char_traits@D@std@@@std@@YAAEAV?$basic_ostream@DU?$char_traits@D@std@@@0@AEAV10@AEBV?$complex@N@0@@Z@4HA (l)0300:?dtor$1@?0???$?6NDU?$char_traits@D@std@@@std@@YAAEAV?$basic_ostream@DU?$char_traits@D@std@@@0@AEAV10@AEBV?$complex@N@0@@Z@4HA (l)0320:?dtor$2@?0???$?6NDU?$char_traits@D@std@@@std@@YAAEAV?$basic_ostream@DU?$char_traits@D@std@@@0@AEAV10@AEBV?$complex@N@0@@Z@4HA (l)0340:?dtor$4@?0???$?6NDU?$char_traits@D@std@@@std@@YAAEAV?$basic_ostream@DU?$char_traits@D@std@@@0@AEAV10@AEBV?$complex@N@0@@Z@4HA (02B6: CC) (REF 01C3: ??$imag@N@std@@YANAEBV?$complex@N@0@@Z)
              D800000048C7442470FEFFFFFFC74424200000:
                0. 20 ADCD 0409 0000:??$?5DU?$char_traits@D@std@@@std@@YAAEAV?$basic_istream@DU?$char_traits@D@std@@@0@AEAV10@PEAD@Z (l)02D0:$LN22 (l)0380:?dtor$0@?0???$?5DU?$char_traits@D@std@@@std@@YAAEAV?$basic_istream@DU?$char_traits@D@std@@@0@AEAV10@PEAD@Z@4HA (l)03A0:?dtor$1@?0???$?5DU?$char_traits@D@std@@@std@@YAAEAV?$basic_istream@DU?$char_traits@D@std@@@0@AEAV10@PEAD@Z@4HA (l)03C0:?catch$0@?0???$?5DU?$char_traits@D@std@@@std@@YAAEAV?$basic_istream@DU?$char_traits@D@std@@@0@AEAV10@PEAD@Z@4HA (l)03CD:__catch$??$?5DU?$char_traits@D@std@@@std@@YAAEAV?$basic_istream@DU?$char_traits@D@std@@@0@AEAV10@PEAD@Z$0 (03C8: CC)
                1. 20 ADCD 0419 0000:??$?5GU?$char_traits@G@std@@@std@@YAAEAV?$basic_istream@GU?$char_traits@G@std@@@0@AEAV10@PEAG@Z (l)02DE:$LN22 (l)0390:?dtor$0@?0???$?5GU?$char_traits@G@std@@@std@@YAAEAV?$basic_istream@GU?$char_traits@G@std@@@0@AEAV10@PEAG@Z@4HA (l)03B0:?dtor$1@?0???$?5GU?$char_traits@G@std@@@std@@YAAEAV?$basic_istream@GU?$char_traits@G@std@@@0@AEAV10@PEAG@Z@4HA (l)03D0:?catch$0@?0???$?5GU?$char_traits@G@std@@@std@@YAAEAV?$basic_istream@GU?$char_traits@G@std@@@0@AEAV10@PEAG@Z@4HA (l)03DD:__catch$??$?5GU?$char_traits@G@std@@@std@@YAAEAV?$basic_istream@GU?$char_traits@G@std@@@0@AEAV10@PEAG@Z$0 (03C8: 90)
              E800000048C7:
                442470FEFFFFFFC74424200000:
                  0. 18 1482 0449 0000:??$?5DU?$char_traits@D@std@@V?$allocator@D@1@@std@@YAAEAV?$basic_istream@DU?$char_traits@D@std@@@0@AEAV10@AEAV?$basic_string@DU?$char_traits@D@std@@V?$allocator@D@2@@0@@Z (l)0332:$LN20 (l)03C0:?dtor$0@?0???$?5DU?$char_traits@D@std@@V?$allocator@D@1@@std@@YAAEAV?$basic_istream@DU?$char_traits@D@std@@@0@AEAV10@AEAV?$basic_string@DU?$char_traits@D@std@@V?$allocator@D@2@@0@@Z@4HA (l)03E0:?dtor$1@?0???$?5DU?$char_traits@D@std@@V?$allocator@D@1@@std@@YAAEAV?$basic_istream@DU?$char_traits@D@std@@@0@AEAV10@AEAV?$basic_string@DU?$char_traits@D@std@@V?$allocator@D@2@@0@@Z@4HA (l)0400:?catch$0@?0???$?5DU?$char_traits@D@std@@V?$allocator@D@1@@std@@YAAEAV?$basic_istream@DU?$char_traits@D@std@@@0@AEAV10@AEAV?$basic_string@DU?$char_traits@D@std@@V?$allocator@D@2@@0@@Z@4HA (l)040D:__catch$??$?5DU?$char_traits@D@std@@V?$allocator@D@1@@std@@YAAEAV?$basic_istream@DU?$char_traits@D@std@@@0@AEAV10@AEAV?$basic_string@DU?$char_traits@D@std@@V?$allocator@D@2@@0@@Z$0 (0410: CC)
                  1. 18 1482 0459 0000:??$?5GU?$char_traits@G@std@@V?$allocator@G@1@@std@@YAAEAV?$basic_istream@GU?$char_traits@G@std@@@0@AEAV10@AEAV?$basic_string@GU?$char_traits@G@std@@V?$allocator@G@2@@0@@Z (l)033D:$LN20 (l)03D0:?dtor$0@?0???$?5GU?$char_traits@G@std@@V?$allocator@G@1@@std@@YAAEAV?$basic_istream@GU?$char_traits@G@std@@@0@AEAV10@AEAV?$basic_string@GU?$char_traits@G@std@@V?$allocator@G@2@@0@@Z@4HA (l)03F0:?dtor$1@?0???$?5GU?$char_traits@G@std@@V?$allocator@G@1@@std@@YAAEAV?$basic_istream@GU?$char_traits@G@std@@@0@AEAV10@AEAV?$basic_string@GU?$char_traits@G@std@@V?$allocator@G@2@@0@@Z@4HA (l)0410:?catch$0@?0???$?5GU?$char_traits@G@std@@V?$allocator@G@1@@std@@YAAEAV?$basic_istream@GU?$char_traits@G@std@@@0@AEAV10@AEAV?$basic_string@GU?$char_traits@G@std@@V?$allocator@G@2@@0@@Z@4HA (l)041D:__catch$??$?5GU?$char_traits@G@std@@V?$allocator@G@1@@std@@YAAEAV?$basic_istream@GU?$char_traits@G@std@@@0@AEAV10@AEAV?$basic_string@GU?$char_traits@G@std@@V?$allocator@G@2@@0@@Z$0 (0410: 90)
                  2. 0B 78F6 04F9 0000:??$?6DU?$char_traits@D@std@@V?$allocator@D@1@@std@@YAAEAV?$basic_ostream@DU?$char_traits@D@std@@@0@AEAV10@AEBV?$basic_string@DU?$char_traits@D@std@@V?$allocator@D@2@@0@@Z (l)0431:$LN27 (l)0490:?dtor$0@?0???$?6DU?$char_traits@D@std@@V?$allocator@D@1@@std@@YAAEAV?$basic_ostream@DU?$char_traits@D@std@@@0@AEAV10@AEBV?$basic_string@DU?$char_traits@D@std@@V?$allocator@D@2@@0@@Z@4HA (l)04B0:?catch$0@?0???$?6DU?$char_traits@D@std@@V?$allocator@D@1@@std@@YAAEAV?$basic_ostream@DU?$char_traits@D@std@@@0@AEAV10@AEBV?$basic_string@DU?$char_traits@D@std@@V?$allocator@D@2@@0@@Z@4HA (l)04BD:__catch$??$?6DU?$char_traits@D@std@@V?$allocator@D@1@@std@@YAAEAV?$basic_ostream@DU?$char_traits@D@std@@@0@AEAV10@AEBV?$basic_string@DU?$char_traits@D@std@@V?$allocator@D@2@@0@@Z$0
                8424:
                  A8000000FEFFFFFF488B05:
                    0. 00 0000 02D8 0000:?str@?$basic_stringbuf@DU?$char_traits@D@std@@V?$allocator@D@2@@std@@QEBA?AV?$basic_string@DU?$char_traits@D@std@@V?$allocator@D@2@@2@XZ (l)0250:?dtor$0@?0??str@?$basic_stringbuf@DU?$char_traits@D@std@@V?$allocator@D@2@@std@@QEBA?AV?$basic_string@DU?$char_traits@D@std@@V?$allocator@D@2@@2@XZ@4HA (l)0270:?dtor$1@?0??str@?$basic_stringbuf@DU?$char_traits@D@std@@V?$allocator@D@2@@std@@QEBA?AV?$basic_string@DU?$char_traits@D@std@@V?$allocator@D@2@@2@XZ@4HA (l)02A0:?dtor$2@?0??str@?$basic_stringbuf@DU?$char_traits@D@std@@V?$allocator@D@2@@std@@QEBA?AV?$basic_string@DU?$char_traits@D@std@@V?$allocator@D@2@@2@XZ@4HA (l)02C0:?dtor$3@?0??str@?$basic_stringbuf@DU?$char_traits@D@std@@V?$allocator@D@2@@std@@QEBA?AV?$basic_string@DU?$char_traits@D@std@@V?$allocator@D@2@@2@XZ@4HA (02B7: C3)
                    1. 00 0000 02E8 0000:?str@?$basic_stringbuf@GU?$char_traits@G@std@@V?$allocator@G@2@@std@@QEBA?AV?$basic_string@GU?$char_traits@G@std@@V?$allocator@G@2@@2@XZ (l)0260:?dtor$0@?0??str@?$basic_stringbuf@GU?$char_traits@G@std@@V?$allocator@G@2@@std@@QEBA?AV?$basic_string@GU?$char_traits@G@std@@V?$allocator@G@2@@2@XZ@4HA (l)0280:?dtor$1@?0??str@?$basic_stringbuf@GU?$char_traits@G@std@@V?$allocator@G@2@@std@@QEBA?AV?$basic_string@GU?$char_traits@G@std@@V?$allocator@G@2@@2@XZ@4HA (l)02B0:?dtor$2@?0??str@?$basic_stringbuf@GU?$char_traits@G@std@@V?$allocator@G@2@@std@@QEBA?AV?$basic_string@GU?$char_traits@G@std@@V?$allocator@G@2@@2@XZ@4HA (l)02D0:?dtor$3@?0??str@?$basic_stringbuf@GU?$char_traits@G@std@@V?$allocator@G@2@@std@@QEBA?AV?$basic_string@GU?$char_traits@G@std@@V?$allocator@G@2@@2@XZ@4HA (02B7: 8B)
                  C8000000FEFFFFFF488B94:
                    0. 0E 0B3B 0118 0000:??0?$time_put@DV?$ostreambuf_iterator@DU?$char_traits@D@std@@@std@@@std@@QEAA@_K@Z (l)00C0:?dtor$0@?0???0?$time_put@DV?$ostreambuf_iterator@DU?$char_traits@D@std@@@std@@@std@@QEAA@_K@Z@4HA (l)00E0:?dtor$1@?0???0?$time_put@DV?$ostreambuf_iterator@DU?$char_traits@D@std@@@std@@@std@@QEAA@_K@Z@4HA (l)0100:?dtor$2@?0???0?$time_put@DV?$ostreambuf_iterator@DU?$char_traits@D@std@@@std@@@std@@QEAA@_K@Z@4HA (00A9: C4) (REF 003E: ??_7?$time_put@DV?$ostreambuf_iterator@DU?$char_traits@D@std@@@std@@@std@@6B@)
                    1. 0E 0B3B 0118 0000:??0?$time_put@GV?$ostreambuf_iterator@GU?$char_traits@G@std@@@std@@@std@@QEAA@_K@Z (l)00C0:?dtor$0@?0???0?$time_put@GV?$ostreambuf_iterator@GU?$char_traits@G@std@@@std@@@std@@QEAA@_K@Z@4HA (l)00E0:?dtor$1@?0???0?$time_put@GV?$ostreambuf_iterator@GU?$char_traits@G@std@@@std@@@std@@QEAA@_K@Z@4HA (l)0100:?dtor$2@?0???0?$time_put@GV?$ostreambuf_iterator@GU?$char_traits@G@std@@@std@@@std@@QEAA@_K@Z@4HA (00A9: C4) (REF 003E: ??_7?$time_put@GV?$ostreambuf_iterator@GU?$char_traits@G@std@@@std@@@std@@6B@)
                    2. 0E 0B3B 00D8 0000:??0?$money_get@DV?$istreambuf_iterator@DU?$char_traits@D@std@@@std@@@std@@QEAA@_K@Z (l)00A0:?dtor$0@?0???0?$money_get@DV?$istreambuf_iterator@DU?$char_traits@D@std@@@std@@@std@@QEAA@_K@Z@4HA (l)00C0:?dtor$1@?0???0?$money_get@DV?$istreambuf_iterator@DU?$char_traits@D@std@@@std@@@std@@QEAA@_K@Z@4HA (00A9: C3) (REF 003E: ??_7?$money_get@DV?$istreambuf_iterator@DU?$char_traits@D@std@@@std@@@std@@6B@)
                    3. 0E 0B3B 00D8 0000:??0?$money_put@DV?$ostreambuf_iterator@DU?$char_traits@D@std@@@std@@@std@@QEAA@_K@Z (l)00A0:?dtor$0@?0???0?$money_put@DV?$ostreambuf_iterator@DU?$char_traits@D@std@@@std@@@std@@QEAA@_K@Z@4HA (l)00C0:?dtor$1@?0???0?$money_put@DV?$ostreambuf_iterator@DU?$char_traits@D@std@@@std@@@std@@QEAA@_K@Z@4HA (00A9: C3) (REF 003E: ??_7?$money_put@DV?$ostreambuf_iterator@DU?$char_traits@D@std@@@std@@@std@@6B@)
                    4. 0E 0B3B 00D8 0000:??0?$time_get@DV?$istreambuf_iterator@DU?$char_traits@D@std@@@std@@@std@@QEAA@_K@Z (l)00A0:?dtor$0@?0???0?$time_get@DV?$istreambuf_iterator@DU?$char_traits@D@std@@@std@@@std@@QEAA@_K@Z@4HA (l)00C0:?dtor$1@?0???0?$time_get@DV?$istreambuf_iterator@DU?$char_traits@D@std@@@std@@@std@@QEAA@_K@Z@4HA (00A9: C3) (REF 003E: ??_7?$time_get@DV?$istreambuf_iterator@DU?$char_traits@D@std@@@std@@@std@@6B@)
                    5. 0E 0B3B 00D8 0000:??0?$num_get@DV?$istreambuf_iterator@DU?$char_traits@D@std@@@std@@@std@@QEAA@_K@Z (l)00A0:?dtor$0@?0???0?$num_get@DV?$istreambuf_iterator@DU?$char_traits@D@std@@@std@@@std@@QEAA@_K@Z@4HA (l)00C0:?dtor$1@?0???0?$num_get@DV?$istreambuf_iterator@DU?$char_traits@D@std@@@std@@@std@@QEAA@_K@Z@4HA (00A9: C3) (REF 003E: ??_7?$num_get@DV?$istreambuf_iterator@DU?$char_traits@D@std@@@std@@@std@@6B@)
                    6. 0E 0B3B 00D8 0000:??0?$num_put@DV?$ostreambuf_iterator@DU?$char_traits@D@std@@@std@@@std@@QEAA@_K@Z (l)00A0:?dtor$0@?0???0?$num_put@DV?$ostreambuf_iterator@DU?$char_traits@D@std@@@std@@@std@@QEAA@_K@Z@4HA (l)00C0:?dtor$1@?0???0?$num_put@DV?$ostreambuf_iterator@DU?$char_traits@D@std@@@std@@@std@@QEAA@_K@Z@4HA (00A9: C3) (REF 003E: ??_7?$num_put@DV?$ostreambuf_iterator@DU?$char_traits@D@std@@@std@@@std@@6B@)
                    7. 0E 0B3B 00D8 0000:??0?$codecvt@DDU__mbstate_t@@@std@@QEAA@_K@Z (l)00A0:?dtor$0@?0???0?$codecvt@DDU__mbstate_t@@@std@@QEAA@_K@Z@4HA (l)00C0:?dtor$1@?0???0?$codecvt@DDU__mbstate_t@@@std@@QEAA@_K@Z@4HA (00A9: C3) (REF 003E: ??_7?$codecvt@DDU__mbstate_t@@@std@@6B@)
                    8. 0E 0B3B 00D8 0000:??0?$codecvt@GDU__mbstate_t@@@std@@QEAA@_K@Z (l)00A0:?dtor$0@?0???0?$codecvt@GDU__mbstate_t@@@std@@QEAA@_K@Z@4HA (l)00C0:?dtor$1@?0???0?$codecvt@GDU__mbstate_t@@@std@@QEAA@_K@Z@4HA (00A9: C3) (REF 003E: ??_7?$codecvt@GDU__mbstate_t@@@std@@6B@)
                    9. 0E 0B3B 00D8 0000:??0?$ctype@G@std@@QEAA@_K@Z (l)00A0:?dtor$0@?0???0?$ctype@G@std@@QEAA@_K@Z@4HA (l)00C0:?dtor$1@?0???0?$ctype@G@std@@QEAA@_K@Z@4HA (00A9: C3) (REF 002E: ??0ctype_base@std@@QEAA@_K@Z)
                    10. 0E 0B3B 00D8 0000:??0?$num_get@GV?$istreambuf_iterator@GU?$char_traits@G@std@@@std@@@std@@QEAA@_K@Z (l)00A0:?dtor$0@?0???0?$num_get@GV?$istreambuf_iterator@GU?$char_traits@G@std@@@std@@@std@@QEAA@_K@Z@4HA (l)00C0:?dtor$1@?0???0?$num_get@GV?$istreambuf_iterator@GU?$char_traits@G@std@@@std@@@std@@QEAA@_K@Z@4HA (00A9: C3) (REF 003E: ??_7?$num_get@GV?$istreambuf_iterator@GU?$char_traits@G@std@@@std@@@std@@6B@)
                    11. 0E 0B3B 00D8 0000:??0?$num_put@GV?$ostreambuf_iterator@GU?$char_traits@G@std@@@std@@@std@@QEAA@_K@Z (l)00A0:?dtor$0@?0???0?$num_put@GV?$ostreambuf_iterator@GU?$char_traits@G@std@@@std@@@std@@QEAA@_K@Z@4HA (l)00C0:?dtor$1@?0???0?$num_put@GV?$ostreambuf_iterator@GU?$char_traits@G@std@@@std@@@std@@QEAA@_K@Z@4HA (00A9: C3) (REF 003E: ??_7?$num_put@GV?$ostreambuf_iterator@GU?$char_traits@G@std@@@std@@@std@@6B@)
                    12. 0E 0B3B 00D8 0000:??0?$collate@G@std@@QEAA@_K@Z (l)00A0:?dtor$0@?0???0?$collate@G@std@@QEAA@_K@Z@4HA (l)00C0:?dtor$1@?0???0?$collate@G@std@@QEAA@_K@Z@4HA (00A9: C3) (REF 003E: ??_7?$collate@G@std@@6B@)
                    13. 0E 0B3B 00D8 0000:??0?$messages@G@std@@QEAA@_K@Z (l)00A0:?dtor$0@?0???0?$messages@G@std@@QEAA@_K@Z@4HA (l)00C0:?dtor$1@?0???0?$messages@G@std@@QEAA@_K@Z@4HA (00A9: C3) (REF 003E: ??_7?$messages@G@std@@6B@)
                    14. 0E 0B3B 00D8 0000:??0?$money_get@GV?$istreambuf_iterator@GU?$char_traits@G@std@@@std@@@std@@QEAA@_K@Z (l)00A0:?dtor$0@?0???0?$money_get@GV?$istreambuf_iterator@GU?$char_traits@G@std@@@std@@@std@@QEAA@_K@Z@4HA (l)00C0:?dtor$1@?0???0?$money_get@GV?$istreambuf_iterator@GU?$char_traits@G@std@@@std@@@std@@QEAA@_K@Z@4HA (00A9: C3) (REF 003E: ??_7?$money_get@GV?$istreambuf_iterator@GU?$char_traits@G@std@@@std@@@std@@6B@)
                    15. 0E 0B3B 00D8 0000:??0?$money_put@GV?$ostreambuf_iterator@GU?$char_traits@G@std@@@std@@@std@@QEAA@_K@Z (l)00A0:?dtor$0@?0???0?$money_put@GV?$ostreambuf_iterator@GU?$char_traits@G@std@@@std@@@std@@QEAA@_K@Z@4HA (l)00C0:?dtor$1@?0???0?$money_put@GV?$ostreambuf_iterator@GU?$char_traits@G@std@@@std@@@std@@QEAA@_K@Z@4HA (00A9: C3) (REF 003E: ??_7?$money_put@GV?$ostreambuf_iterator@GU?$char_traits@G@std@@@std@@@std@@6B@)
                    16. 0E 0B3B 00D8 0000:??0?$time_get@GV?$istreambuf_iterator@GU?$char_traits@G@std@@@std@@@std@@QEAA@_K@Z (l)00A0:?dtor$0@?0???0?$time_get@GV?$istreambuf_iterator@GU?$char_traits@G@std@@@std@@@std@@QEAA@_K@Z@4HA (l)00C0:?dtor$1@?0???0?$time_get@GV?$istreambuf_iterator@GU?$char_traits@G@std@@@std@@@std@@QEAA@_K@Z@4HA (00A9: C3) (REF 003E: ??_7?$time_get@GV?$istreambuf_iterator@GU?$char_traits@G@std@@@std@@@std@@6B@)
                    17. 0E 0B3B 00D8 0000:??0?$messages@D@std@@QEAA@_K@Z (l)00A0:?dtor$0@?0???0?$messages@D@std@@QEAA@_K@Z@4HA (l)00C0:?dtor$1@?0???0?$messages@D@std@@QEAA@_K@Z@4HA (00A9: C3) (REF 003E: ??_7?$messages@D@std@@6B@)
                    18. 0E 0B3B 00D8 0000:??0?$collate@D@std@@QEAA@_K@Z (l)00A0:?dtor$0@?0???0?$collate@D@std@@QEAA@_K@Z@4HA (l)00C0:?dtor$1@?0???0?$collate@D@std@@QEAA@_K@Z@4HA (00A9: C3) (REF 003E: ??_7?$collate@D@std@@6B@)
            83EC:
              18488B4424:
                20:
                  0F:
                    B700:
                      488B4C24280FB7093BC1:
                        0. 1A 7475 003A (!)0000:?
                      894424088B442408488B:
                        0. 58 8984 0078 0000:__wcspbrk
                    BE00:
                      488B4C24280FBE093BC1:
                        0. 1A 7475 003A 0000:?eq@?$char_traits@D@std@@SA_NAEBD0@Z
                      894424088B442408488B:
                        0. 55 A5CD 0075 0000:__strpbrk
                  48:
                    8338FE7418488B4424204883:
                      0. 3D 916E 005D (!)0000:?
                    890424:
                      48837C24280C732E48:
                        0. FF 38EC 012E 0000:__bzero
                      EB:
                        0D488B44242048FF:
                          0. 54 DF91 0074 0000:__strcat
                        0E488B4424204883:
                          0. 58 843F 0078 0000:__wcscat
                        1A488B44242848FF:
                          0. 39 505A 0059 0000:__strcpy
                        1C488B4424284883:
                          0. 3C 8BC2 005C 0000:__wcscpy
                    8B:
                      40:
                        2048890424488B442420:
                          0. 12 3FC9 0032 0000:?precision@ios_base@std@@QEAA_J_J@Z
                        2848890424488B442420:
                          0. 12 16A0 0032 0000:?width@ios_base@std@@QEAA_J_J@Z
                        5048890424488B442420:
                          0. 12 A3E6 0032 0000:?tie@?$basic_ios@GU?$char_traits@G@std@@@std@@QEAAPEAV?$basic_ostream@GU?$char_traits@G@std@@@2@PEAV32@@Z
                      4C24288B0939087509C704:
                        0. 16 07E3 0036 0000:?eq_int_type@?$char_traits@D@std@@SA_NAEBH0@Z
                28488B0048890424488B44242048:
                  0. 10 1047 0030 0000:??$?HM@std@@YA?AV?$complex@M@0@AEBV10@@Z
              28:
                33D2488B4C2438E8........4883C428C3:
                  0. 00 0000 001F 0000:?allocate@?$allocator@D@std@@QEAAPEAD_K@Z (REF 0016: ??$_Allocate@D@std@@YAPEAD_KPEAD@Z)
                  1. 00 0000 001F 0000:?allocate@?$allocator@G@std@@QEAAPEAG_K@Z (REF 0016: ??$_Allocate@G@std@@YAPEAG_KPEAG@Z)
                41B001488B542438488B4C2430E8:
                  0. 08 4A0F 0039 0000:??0?$moneypunct@D$00@std@@QEAA@_K@Z (REF 001C: ??0?$_Mpunct@D@std@@QEAA@_K_N@Z)
                  1. 08 4A0F 0039 0000:??0?$moneypunct@G$00@std@@QEAA@_K@Z (REF 001C: ??0?$_Mpunct@G@std@@QEAA@_K_N@Z)
                4533C0488B542438488B4C2430E8:
                  0. 05 492C 0025 0000:?resize@?$basic_string@DU?$char_traits@D@std@@V?$allocator@D@2@@std@@QEAAX_K@Z (REF 001C: ?resize@?$basic_string@DU?$char_traits@D@std@@V?$allocator@D@2@@std@@QEAAX_KD@Z)
                  1. 05 492C 0025 0000:?resize@?$basic_string@GU?$char_traits@G@std@@V?$allocator@G@2@@std@@QEAAX_K@Z (REF 001C: ?resize@?$basic_string@GU?$char_traits@G@std@@V?$allocator@G@2@@std@@QEAAX_KG@Z)
                  2. 08 4A0F 0039 0000:??0?$moneypunct@D$0A@@std@@QEAA@_K@Z (REF 001C: ??0?$_Mpunct@D@std@@QEAA@_K_N@Z)
                  3. 08 4A0F 0039 0000:??0?$moneypunct@G$0A@@std@@QEAA@_K@Z (REF 001C: ??0?$_Mpunct@G@std@@QEAA@_K_N@Z)
                48:
                  8B:
                    4424:
                      3048:
                        890424488B04240F:
                          B6008844:
                            0. 5C 9D71 007C 0000:__strspn (l)0017:$cont$632
                            1. 5C DEBC 007C 0000:__strcspn
                          B7006689:
                            0. 64 9851 0084 0000:__wcsspn (l)0017:$cont$1436
                            1. 64 CEDD 0084 0000:__wcscspn
                        8B:
                          0048:
                            634004488B4C243048:
                              0. 0B AF7F 0047 0000:??$getline@DU?$char_traits@D@std@@V?$allocator@D@2@@std@@YAAEAV?$basic_istream@DU?$char_traits@D@std@@@0@AEAV10@AEAV?$basic_string@DU?$char_traits@D@std@@V?$allocator@D@2@@0@@Z (0006: B6)
                              1. 0B AF7F 0047 0000:??$getline@GU?$char_traits@G@std@@V?$allocator@G@2@@std@@YAAEAV?$basic_istream@GU?$char_traits@G@std@@@0@AEAV10@AEAV?$basic_string@GU?$char_traits@G@std@@V?$allocator@G@2@@0@@Z (0006: B7)
                            89:
                              0424C74424080000:
                                0. 19 FF16 033E 0000:_Stopfx
                              44240848837C2408:
                                0. 9E 0282 00BE 0000:__wcssep
                                1. 97 696B 00B7 0000:__strsep
                            8B542438488B4C2430:
                              0. 0D 70AC 002D 0000:?neg_format@?$_Mpunct@D@std@@QEBA?AUpattern@money_base@2@XZ
                              1. 0D DA10 002D 0000:?pos_format@?$_Mpunct@G@std@@QEBA?AUpattern@money_base@2@XZ
                              2. 0D DA10 002D (!)0000:?
                          4018488B4C2430E8:
                            0. 00 0000 002B 0000:??A?$basic_string@DU?$char_traits@D@std@@V?$allocator@D@2@@std@@QEAAAEAD_K@Z (000A: C3) (REF 001D: ?_Myptr@?$basic_string@DU?$char_traits@D@std@@V?$allocator@D@2@@std@@IEAAPEADXZ)
                            1. 00 0000 002B 0000:??A?$basic_string@DU?$char_traits@D@std@@V?$allocator@D@2@@std@@QEBAAEBD_K@Z (000A: C3) (REF 001D: ?_Myptr@?$basic_string@DU?$char_traits@D@std@@V?$allocator@D@2@@std@@IEBAPEBDXZ)
                            2. 00 0000 002F 0000:??A?$basic_string@GU?$char_traits@G@std@@V?$allocator@G@2@@std@@QEAAAEAG_K@Z (000A: 48) (REF 001D: ?_Myptr@?$basic_string@GU?$char_traits@G@std@@V?$allocator@G@2@@std@@IEAAPEAGXZ)
                            3. 00 0000 002F 0000:??A?$basic_string@GU?$char_traits@G@std@@V?$allocator@G@2@@std@@QEBAAEBG_K@Z (000A: 48) (REF 001D: ?_Myptr@?$basic_string@GU?$char_traits@G@std@@V?$allocator@G@2@@std@@IEBAPEBGXZ)
                          4C243848:
                            8908488B442430:
                              0. 16 8912 0070 (!)0000:?
                            8B09488908488B:
                              0. 0A AF2F 0038 0000:??0locale@std@@QEAA@AEBV01@@Z
                        D1E0488BC8E8........4883:
                          0. 03 53B6 0023 0000:??$_Allocate@G@std@@YAPEAG_KPEAG@Z
                      3848F7D8488BD0488B4C2430E8:
                        0. 00 0000 0028 0000:??Z?$_String_iterator@DU?$char_traits@D@std@@V?$allocator@D@2@@std@@QEAAAEAV01@_J@Z (REF 001F: ??Y?$_String_iterator@DU?$char_traits@D@std@@V?$allocator@D@2@@std@@QEAAAEAV01@_J@Z)
                        1. 00 0000 0028 0000:??Z?$_String_iterator@GU?$char_traits@G@std@@V?$allocator@G@2@@std@@QEAAAEAV01@_J@Z (REF 001F: ??Y?$_String_iterator@GU?$char_traits@G@std@@V?$allocator@G@2@@std@@QEAAAEAV01@_J@Z)
                    4C24:
                      30E8........:
                        48:
                          3944243872:
                            1A48:
                              0. 05 F33E 0046 0000:?_Inside@?$basic_string@DU?$char_traits@D@std@@V?$allocator@D@2@@std@@IEAA_NPEBD@Z
                            1E48:
                              0. 05 F33E 004A 0000:?_Inside@?$basic_string@GU?$char_traits@G@std@@V?$allocator@G@2@@std@@IEAA_NPEBG@Z
                          83C428C3:
                            0. 00 0000 001D 0000:??3@YAXPEAXAEBUnothrow_t@std@@@Z (REF 0014: ??3@YAXPEAX@Z)
                            1. 00 0000 001D 0000:??$_Allocate@D@std@@YAPEAD_KPEAD@Z (REF 0014: ??2@YAPEAX_K@Z)
                            2. 00 0000 001D 0000:??_V@YAXPEAXAEBUnothrow_t@std@@@Z (REF 0014: ??_V@YAXPEAX@Z)
                          8B:
                            442430C64008:
                              0. 19 7482 0039 0000:??0?$ostreambuf_iterator@GU?$char_traits@G@std@@@std@@QEAA@PEAV?$basic_streambuf@GU?$char_traits@G@std@@@1@@Z
                            4C243048:
                              0341:
                                0. 0F 85F8 003D 0000:?end@?$basic_string@DU?$char_traits@D@std@@V?$allocator@D@2@@std@@QEAA?AV?$_String_iterator@DU?$char_traits@D@std@@V?$allocator@D@2@@2@XZ
                              8B49:
                                0. 13 08C0 0041 0000:?end@?$basic_string@GU?$char_traits@G@std@@V?$allocator@G@2@@std@@QEAA?AV?$_String_iterator@GU?$char_traits@G@std@@V?$allocator@G@2@@2@XZ
                        4C8B442430488BD0:
                          0. 06 42EB 0034 0000:?begin@?$basic_string@DU?$char_traits@D@std@@V?$allocator@D@2@@std@@QEAA?AV?$_String_iterator@DU?$char_traits@D@std@@V?$allocator@D@2@@2@XZ (REF 0014: ?_Myptr@?$basic_string@DU?$char_traits@D@std@@V?$allocator@D@2@@std@@IEAAPEADXZ)
                          1. 06 42EB 0034 0000:?begin@?$basic_string@GU?$char_traits@G@std@@V?$allocator@G@2@@std@@QEAA?AV?$_String_iterator@GU?$char_traits@G@std@@V?$allocator@G@2@@2@XZ (REF 0014: ?_Myptr@?$basic_string@GU?$char_traits@G@std@@V?$allocator@G@2@@std@@IEAAPEAGXZ)
                      38E8........:
                        0FB6C085C0740F48:
                          0. 22 A5FC 004B 0000:?_Initcvt@?$basic_filebuf@GU?$char_traits@G@std@@@std@@IEAAXPEAV?$codecvt@GDU__mbstate_t@@@2@@Z (REF 0042: ?_Init@?$basic_streambuf@GU?$char_traits@G@std@@@std@@IEAAXXZ)
                          1. 22 A5FC 004B 0000:?_Initcvt@?$basic_filebuf@DU?$char_traits@D@std@@@std@@IEAAXPEAV?$codecvt@DDU__mbstate_t@@@2@@Z (REF 0042: ?_Init@?$basic_streambuf@DU?$char_traits@D@std@@@std@@IEAAXXZ)
                        488B:
                          442430:
                            660F12:
                              0. 18 5AAB 005D 0000:??$_Sub@N@?$_Complex_base@NU_C_double_complex@@@std@@IEAAXAEBV?$complex@N@1@@Z (REF 0014: ?real@?$_Complex_base@NU_C_double_complex@@@std@@QEBANXZ)
                              1. 18 5AAB 005D 0000:??$_Sub@O@?$_Complex_base@OU_C_ldouble_complex@@@std@@IEAAXAEBV?$complex@O@1@@Z (REF 0014: ?real@?$_Complex_base@OU_C_ldouble_complex@@@std@@QEBAOXZ)
                              2. 18 EA76 005D 0000:??$_Add@O@?$_Complex_base@OU_C_ldouble_complex@@@std@@IEAAXAEBV?$complex@O@1@@Z (REF 0014: ?real@?$_Complex_base@OU_C_ldouble_complex@@@std@@QEBAOXZ)
                              3. 18 EA76 005D 0000:??$_Add@N@?$_Complex_base@NU_C_double_complex@@@std@@IEAAXAEBV?$complex@N@1@@Z (REF 0014: ?real@?$_Complex_base@NU_C_double_complex@@@std@@QEBANXZ)
                            F20F11:
                              0. 07 BD90 003F 0000:??4?$complex@N@std@@QEAAAEAV01@AEBV01@@Z (REF 0014: ?real@?$_Complex_base@NU_C_double_complex@@@std@@QEBANXZ)
                              1. 07 BD90 003F 0000:??4?$complex@O@std@@QEAAAEAV01@AEBV01@@Z (REF 0014: ?real@?$_Complex_base@OU_C_ldouble_complex@@@std@@QEBAOXZ)
                            F30F:
                              10:
                                0. 17 9E69 005B 0000:??$_Sub@M@?$_Complex_base@MU_C_float_complex@@@std@@IEAAXAEBV?$complex@M@1@@Z
                                1. 17 F50C 005B 0000:??$_Add@M@?$_Complex_base@MU_C_float_complex@@@std@@IEAAXAEBV?$complex@M@1@@Z
                              11:
                                0. 07 BD90 003F 0000:??4?$complex@M@std@@QEAAAEAV01@AEBV01@@Z
                          D0488B4C2430:
                            0. 01 3E9B 002A 0000:?imbue@?$basic_filebuf@GU?$char_traits@G@std@@@std@@MEAAXAEBVlocale@2@@Z (REF 0014: ??$use_facet@V?$codecvt@GDU__mbstate_t@@@std@@@std@@YAAEBV?$codecvt@GDU__mbstate_t@@@0@AEBVlocale@0@@Z)
                            1. 01 3E9B 002A 0000:?imbue@?$basic_filebuf@DU?$char_traits@D@std@@@std@@MEAAXAEBVlocale@2@@Z (REF 0014: ??$use_facet@V?$codecvt@DDU__mbstate_t@@@std@@@std@@YAAEBV?$codecvt@DDU__mbstate_t@@@0@AEBVlocale@0@@Z)
                        4C8BC0488B542438:
                          0. 06 8225 002F 0000:?assign@?$basic_string@DU?$char_traits@D@std@@V?$allocator@D@2@@std@@QEAAAEAV12@PEBD@Z (REF 0026: ?assign@?$basic_string@DU?$char_traits@D@std@@V?$allocator@D@2@@std@@QEAAAEAV12@PEBD_K@Z)
                          1. 06 8225 002F 0000:?assign@?$basic_string@GU?$char_traits@G@std@@V?$allocator@G@2@@std@@QEAAAEAV12@PEBG@Z (REF 0026: ?assign@?$basic_string@GU?$char_traits@G@std@@V?$allocator@G@2@@std@@QEAAAEAV12@PEBG_K@Z)
                          2. 06 8225 002F 0000:?append@?$basic_string@DU?$char_traits@D@std@@V?$allocator@D@2@@std@@QEAAAEAV12@PEBD@Z (REF 0026: ?append@?$basic_string@DU?$char_traits@D@std@@V?$allocator@D@2@@std@@QEAAAEAV12@PEBD_K@Z)
                          3. 06 8225 002F 0000:?append@?$basic_string@GU?$char_traits@G@std@@V?$allocator@G@2@@std@@QEAAAEAV12@PEBG@Z (REF 0026: ?append@?$basic_string@GU?$char_traits@G@std@@V?$allocator@G@2@@std@@QEAAAEAV12@PEBG_K@Z)
                    5424:
                      30488B4C2438E8........4883C4:
                        0. 02 2316 0022 0000:??$?ODU?$char_traits@D@std@@V?$allocator@D@1@@std@@YA_NAEBV?$basic_string@DU?$char_traits@D@std@@V?$allocator@D@2@@0@0@Z (REF 0019: ??$?MDU?$char_traits@D@std@@V?$allocator@D@1@@std@@YA_NAEBV?$basic_string@DU?$char_traits@D@std@@V?$allocator@D@2@@0@0@Z)
                        1. 02 2316 0022 0000:??$?ODU?$char_traits@D@std@@V?$allocator@D@1@@std@@YA_NPEBDAEBV?$basic_string@DU?$char_traits@D@std@@V?$allocator@D@2@@0@@Z (REF 0019: ??$?MDU?$char_traits@D@std@@V?$allocator@D@1@@std@@YA_NAEBV?$basic_string@DU?$char_traits@D@std@@V?$allocator@D@2@@0@PEBD@Z)
                        2. 02 2316 0022 0000:??$?ODU?$char_traits@D@std@@V?$allocator@D@1@@std@@YA_NAEBV?$basic_string@DU?$char_traits@D@std@@V?$allocator@D@2@@0@PEBD@Z (REF 0019: ??$?MDU?$char_traits@D@std@@V?$allocator@D@1@@std@@YA_NPEBDAEBV?$basic_string@DU?$char_traits@D@std@@V?$allocator@D@2@@0@@Z)
                        3. 02 2316 0022 0000:??$?OGU?$char_traits@G@std@@V?$allocator@G@1@@std@@YA_NAEBV?$basic_string@GU?$char_traits@G@std@@V?$allocator@G@2@@0@0@Z (REF 0019: ??$?MGU?$char_traits@G@std@@V?$allocator@G@1@@std@@YA_NAEBV?$basic_string@GU?$char_traits@G@std@@V?$allocator@G@2@@0@0@Z)
                        4. 02 2316 0022 0000:??$?OGU?$char_traits@G@std@@V?$allocator@G@1@@std@@YA_NPEBGAEBV?$basic_string@GU?$char_traits@G@std@@V?$allocator@G@2@@0@@Z (REF 0019: ??$?MGU?$char_traits@G@std@@V?$allocator@G@1@@std@@YA_NAEBV?$basic_string@GU?$char_traits@G@std@@V?$allocator@G@2@@0@PEBG@Z)
                        5. 02 2316 0022 0000:??$?OGU?$char_traits@G@std@@V?$allocator@G@1@@std@@YA_NAEBV?$basic_string@GU?$char_traits@G@std@@V?$allocator@G@2@@0@PEBG@Z (REF 0019: ??$?MGU?$char_traits@G@std@@V?$allocator@G@1@@std@@YA_NPEBGAEBV?$basic_string@GU?$char_traits@G@std@@V?$allocator@G@2@@0@@Z)
                      38488B4C2430E8........48:
                        83C4:
                          0. 02 2316 0022 0000:??4?$basic_string@DU?$char_traits@D@std@@V?$allocator@D@2@@std@@QEAAAEAV01@AEBV01@@Z (REF 0019: ?assign@?$basic_string@DU?$char_traits@D@std@@V?$allocator@D@2@@std@@QEAAAEAV12@AEBV12@@Z)
                          1. 02 2316 0022 0000:??4?$basic_string@DU?$char_traits@D@std@@V?$allocator@D@2@@std@@QEAAAEAV01@PEBD@Z (REF 0019: ?assign@?$basic_string@DU?$char_traits@D@std@@V?$allocator@D@2@@std@@QEAAAEAV12@PEBD@Z)
                          2. 02 2316 0022 0000:??$?8DU?$char_traits@D@std@@@std@@YA_NAEBV?$istreambuf_iterator@DU?$char_traits@D@std@@@0@0@Z (REF 0019: ?equal@?$istreambuf_iterator@DU?$char_traits@D@std@@@std@@QEBA_NAEBV12@@Z)
                          3. 02 2316 0022 0000:??_U@YAPEAX_KAEBUnothrow_t@std@@@Z (REF 0019: ??2@YAPEAX_KAEBUnothrow_t@std@@@Z)
                          4. 02 2316 0022 0000:__wcsstr (REF 0019: __wcswcs)
                          5. 02 2316 0022 0000:??Y?$basic_string@DU?$char_traits@D@std@@V?$allocator@D@2@@std@@QEAAAEAV01@AEBV01@@Z (REF 0019: ?append@?$basic_string@DU?$char_traits@D@std@@V?$allocator@D@2@@std@@QEAAAEAV12@AEBV12@@Z)
                          6. 02 2316 0022 0000:??4?$basic_string@GU?$char_traits@G@std@@V?$allocator@G@2@@std@@QEAAAEAV01@AEBV01@@Z (REF 0019: ?assign@?$basic_string@GU?$char_traits@G@std@@V?$allocator@G@2@@std@@QEAAAEAV12@AEBV12@@Z)
                          7. 02 2316 0022 0000:??Y?$basic_string@GU?$char_traits@G@std@@V?$allocator@G@2@@std@@QEAAAEAV01@AEBV01@@Z (REF 0019: ?append@?$basic_string@GU?$char_traits@G@std@@V?$allocator@G@2@@std@@QEAAAEAV12@AEBV12@@Z)
                          8. 02 2316 0022 0000:??$?8GU?$char_traits@G@std@@@std@@YA_NAEBV?$istreambuf_iterator@GU?$char_traits@G@std@@@0@0@Z (REF 0019: ?equal@?$istreambuf_iterator@GU?$char_traits@G@std@@@std@@QEBA_NAEBV12@@Z)
                          9. 02 2316 0022 (!)0000:? (REF 0019: ??$?5DU?$char_traits@D@std@@@std@@YAAEAV?$basic_istream@DU?$char_traits@D@std@@@0@AEAV10@PEAD@Z)
                          10. 02 2316 0022 0000:??Y?$basic_string@DU?$char_traits@D@std@@V?$allocator@D@2@@std@@QEAAAEAV01@PEBD@Z (REF 0019: ?append@?$basic_string@DU?$char_traits@D@std@@V?$allocator@D@2@@std@@QEAAAEAV12@PEBD@Z)
                          11. 02 2316 0022 0000:??Y?$basic_string@GU?$char_traits@G@std@@V?$allocator@G@2@@std@@QEAAAEAV01@PEBG@Z (REF 0019: ?append@?$basic_string@GU?$char_traits@G@std@@V?$allocator@G@2@@std@@QEAAAEAV12@PEBG@Z)
                          12. 02 2316 0022 0000:_LDunscale (REF 0019: _Dunscale)
                          13. 02 2316 0022 0000:_LDscale (REF 0019: _Dscale)
                          14. 21 AC3F 01B0 0000:?name@type_info@@QEBAPEBDPEAU__type_info_node@@@Z 0030:??1type_info@@UEAA@XZ 0060:??8type_info@@QEBA_NAEBV0@@Z 00B0:??9type_info@@QEBA_NAEBV0@@Z 0100:?before@type_info@@QEBAHAEBV1@@Z 0150:?raw_name@type_info@@QEBAPEBDXZ 0170:??0type_info@@AEAA@AEBV0@@Z 01A0:??4type_info@@AEAAAEAV0@AEBV0@@Z
                        8B44:
                          0. 07 6BA4 0027 0000:??_0?$complex@O@std@@QEAAAEAV01@AEBV01@@Z (REF 0019: ??$_Div@O@?$_Complex_base@OU_C_ldouble_complex@@@std@@IEAAXAEBV?$complex@O@1@@Z)
                          1. 07 6BA4 0027 0000:??X?$complex@O@std@@QEAAAEAV01@AEBV01@@Z (REF 0019: ??$_Mul@O@?$_Complex_base@OU_C_ldouble_complex@@@std@@IEAAXAEBV?$complex@O@1@@Z)
                          2. 07 6BA4 0027 0000:??Z?$complex@O@std@@QEAAAEAV01@AEBV01@@Z (REF 0019: ??$_Sub@O@?$_Complex_base@OU_C_ldouble_complex@@@std@@IEAAXAEBV?$complex@O@1@@Z)
                          3. 07 6BA4 0027 0000:??0?$_String_val@DV?$allocator@D@std@@@std@@IEAA@V?$allocator@D@1@@Z (REF 0019: ??0?$allocator@D@std@@QEAA@AEBV01@@Z)
                          4. 07 6BA4 0027 0000:??Y?$complex@O@std@@QEAAAEAV01@AEBV01@@Z (REF 0019: ??$_Add@O@?$_Complex_base@OU_C_ldouble_complex@@@std@@IEAAXAEBV?$complex@O@1@@Z)
                          5. 07 6BA4 0027 0000:??Y?$_String_iterator@DU?$char_traits@D@std@@V?$allocator@D@2@@std@@QEAAAEAV01@_J@Z (REF 0019: ??Y?$_String_const_iterator@DU?$char_traits@D@std@@V?$allocator@D@2@@std@@QEAAAEAV01@_J@Z)
                          6. 07 6BA4 0027 0000:??_0?$complex@N@std@@QEAAAEAV01@AEBV01@@Z (REF 0019: ??$_Div@N@?$_Complex_base@NU_C_double_complex@@@std@@IEAAXAEBV?$complex@N@1@@Z)
                          7. 07 6BA4 0027 0000:??X?$complex@N@std@@QEAAAEAV01@AEBV01@@Z (REF 0019: ??$_Mul@N@?$_Complex_base@NU_C_double_complex@@@std@@IEAAXAEBV?$complex@N@1@@Z)
                          8. 07 6BA4 0027 0000:??Z?$complex@N@std@@QEAAAEAV01@AEBV01@@Z (REF 0019: ??$_Sub@N@?$_Complex_base@NU_C_double_complex@@@std@@IEAAXAEBV?$complex@N@1@@Z)
                          9. 07 6BA4 0027 0000:??Y?$complex@N@std@@QEAAAEAV01@AEBV01@@Z (REF 0019: ??$_Add@N@?$_Complex_base@NU_C_double_complex@@@std@@IEAAXAEBV?$complex@N@1@@Z)
                          10. 07 6BA4 0027 0000:??_0?$complex@M@std@@QEAAAEAV01@AEBV01@@Z (REF 0019: ??$_Div@M@?$_Complex_base@MU_C_float_complex@@@std@@IEAAXAEBV?$complex@M@1@@Z)
                          11. 07 6BA4 0027 0000:??X?$complex@M@std@@QEAAAEAV01@AEBV01@@Z (REF 0019: ??$_Mul@M@?$_Complex_base@MU_C_float_complex@@@std@@IEAAXAEBV?$complex@M@1@@Z)
                          12. 07 6BA4 0027 0000:??0?$_String_val@GV?$allocator@G@std@@@std@@IEAA@V?$allocator@G@1@@Z (REF 0019: ??0?$allocator@G@std@@QEAA@AEBV01@@Z)
                          13. 07 6BA4 0027 0000:??Y?$_String_iterator@GU?$char_traits@G@std@@V?$allocator@G@2@@std@@QEAAAEAV01@_J@Z (REF 0019: ??Y?$_String_const_iterator@GU?$char_traits@G@std@@V?$allocator@G@2@@std@@QEAAAEAV01@_J@Z)
                          14. 07 6BA4 0027 0000:??Y?$complex@M@std@@QEAAAEAV01@AEBV01@@Z (REF 0019: ??$_Add@M@?$_Complex_base@MU_C_float_complex@@@std@@IEAAXAEBV?$complex@M@1@@Z)
                          15. 07 6BA4 0027 0000:??Z?$complex@M@std@@QEAAAEAV01@AEBV01@@Z (REF 0019: ??$_Sub@M@?$_Complex_base@MU_C_float_complex@@@std@@IEAAXAEBV?$complex@M@1@@Z)
                          16. 05 E1E9 0036 0000:??0failure@ios_base@std@@QEAA@AEBV012@@Z (REF 0019: ??0runtime_error@std@@QEAA@AEBV01@@Z)
                          17. 05 E1E9 0036 0000:??0failure@ios_base@std@@QEAA@AEBV?$basic_string@DU?$char_traits@D@std@@V?$allocator@D@2@@2@@Z (REF 0019: ??0runtime_error@std@@QEAA@AEBV?$basic_string@DU?$char_traits@D@std@@V?$allocator@D@2@@1@@Z)
                          18. 05 E1E9 0036 (!)0000:? (REF 0019: ??0logic_error@std@@QEAA@AEBV?$basic_string@DU?$char_traits@D@std@@V?$allocator@D@2@@1@@Z)
                          19. 05 E1E9 0036 0000:??0codecvt_base@std@@QEAA@_K@Z (REF 0025: ??_7codecvt_base@std@@6B@)
                          20. 05 E1E9 0036 0000:??0bad_alloc@std@@QEAA@AEBV01@@Z (REF 0025: ??_7bad_alloc@std@@6B@)
                          21. 05 E1E9 0036 0000:??0ctype_base@std@@QEAA@_K@Z (REF 0025: ??_7ctype_base@std@@6B@)
                          22. 05 E1E9 0036 0000:??0money_base@std@@QEAA@_K@Z (REF 0025: ??_7money_base@std@@6B@)
                          23. 05 E1E9 0036 0000:??0time_base@std@@QEAA@_K@Z (REF 0025: ??_7time_base@std@@6B@)
                          24. 05 E1E9 0036 0000:??0messages_base@std@@QEAA@_K@Z (REF 0025: ??_7messages_base@std@@6B@)
                          25. 05 E1E9 0036 0000:??0bad_exception@std@@QEAA@AEBV01@@Z (REF 0025: ??_7bad_exception@std@@6B@)
                  8D:
                    05........48890424488B4424304889:
                      0. 93 5FE2 00B3 0000:__strcasecmp_win
                    542438488B4C2430E8........488B44:
                      0. 05 E1E9 0036 0000:??0bad_exception@std@@QEAA@PEBD@Z
                49C7C1FFFFFFFF4533C0488B542438488B4C:
                  0. 03 727B 002C 0000:?append@?$basic_string@DU?$char_traits@D@std@@V?$allocator@D@2@@std@@QEAAAEAV12@AEBV12@@Z (REF 0023: ?append@?$basic_string@DU?$char_traits@D@std@@V?$allocator@D@2@@std@@QEAAAEAV12@AEBV12@_K1@Z)
                  1. 03 727B 002C 0000:?assign@?$basic_string@DU?$char_traits@D@std@@V?$allocator@D@2@@std@@QEAAAEAV12@AEBV12@@Z (REF 0023: ?assign@?$basic_string@DU?$char_traits@D@std@@V?$allocator@D@2@@std@@QEAAAEAV12@AEBV12@_K1@Z)
                4C:
                  8B0D........4533C0488B542438488B4C:
                    0. 03 727B 002C 0000:?assign@?$basic_string@DU?$char_traits@D@std@@V?$allocator@D@2@@std@@QEAAAEAV12@AEBV12@@Z (REF 0023: ?assign@?$basic_string@DU?$char_traits@D@std@@V?$allocator@D@2@@std@@QEAAAEAV12@AEBV12@_K1@Z)
                    1. 03 727B 002C 0000:?append@?$basic_string@DU?$char_traits@D@std@@V?$allocator@D@2@@std@@QEAAAEAV12@AEBV12@@Z (REF 0023: ?append@?$basic_string@DU?$char_traits@D@std@@V?$allocator@D@2@@std@@QEAAAEAV12@AEBV12@_K1@Z)
                    2. 03 727B 002C 0000:?assign@?$basic_string@GU?$char_traits@G@std@@V?$allocator@G@2@@std@@QEAAAEAV12@AEBV12@@Z (REF 0023: ?assign@?$basic_string@GU?$char_traits@G@std@@V?$allocator@G@2@@std@@QEAAAEAV12@AEBV12@_K1@Z)
                    3. 03 727B 002C 0000:?append@?$basic_string@GU?$char_traits@G@std@@V?$allocator@G@2@@std@@QEAAAEAV12@AEBV12@@Z (REF 0023: ?append@?$basic_string@GU?$char_traits@G@std@@V?$allocator@G@2@@std@@QEAAAEAV12@AEBV12@_K1@Z)
                  8D05........488B542438488B4C2430E8:
                    0. 00 0000 0029 0000:__wcstok (REF 0011: ?last@?1??wcstok@@9@9)
                    1. 00 0000 0029 0000:__strtok (REF 0011: ?last@?1??strtok@@9@9)
              38:
                0F57C0F30F114424204C8D442420488B5424:
                  0. 07 53B7 0035 0000:??$polar@M@std@@YA?AV?$complex@M@0@AEBM@Z
                33C9E8........488D05........48053001:
                  0. 0B E82C 00CD 0000:?_Debug_message@std@@YAXPEBD0@Z 00A0:?_Throw@std@@YAXAEBVexception@1@@Z
                48:
                  8B:
                    4424:
                      40:
                        0FB6:
                          00488B5424488BC8E8:
                            0. 00 0000 0042 0000:??$_Ungetc@D@std@@YA_NAEBDPEAU__sFILE@@@Z
                          401085C0750A488B4C2440:
                            0. 01 3E9B 0087 0000:?equal@?$istreambuf_iterator@DU?$char_traits@D@std@@@std@@QEBA_NAEBV12@@Z (REF 0021: ?_Peek@?$istreambuf_iterator@DU?$char_traits@D@std@@@std@@AEAADXZ)
                            1. 01 3E9B 0087 0000:?equal@?$istreambuf_iterator@GU?$char_traits@G@std@@@std@@QEBA_NAEBV12@@Z (REF 0021: ?_Peek@?$istreambuf_iterator@GU?$char_traits@G@std@@@std@@AEAAGXZ)
                        48:
                          8338:
                            027502EB59B801000000:
                              0. 4E C946 00F8 0000:_Once 0080:_Mtxinit 00A0:_Mtxdst 00C0:_Mtxlock 00E0:_Mtxunlock
                            FE74:
                              60488B442440488B:
                                0. 1A E258 009A 0000:??Y?$_String_const_iterator@DU?$char_traits@D@std@@V?$allocator@D@2@@std@@QEAAAEAV01@_J@Z
                              6C488B442440488B:
                                0. 1E 4DCB 00AA 0000:??Y?$_String_const_iterator@GU?$char_traits@G@std@@V?$allocator@G@2@@std@@QEAAAEAV01@_J@Z
                          8B4C2448483948187746488B:
                            0. 2A AAFF 0069 0000:?reserve@?$basic_string@DU?$char_traits@D@std@@V?$allocator@D@2@@std@@QEAAX_K@Z
                      48:
                        0F:
                          B600884424280FBE44242848:
                            0. 16 2ED3 00A2 0000:__strstr
                            1. 16 9109 00B6 0000:__strcasestr
                          B70066894424280FB7442428:
                            0. 18 6597 00A7 0000:__wcswcs
                            1. 18 E30C 00B2 0000:__wcscasewcs
                        4889442420488B4424200FB740:
                          0. 84 A2C8 00FE 0000:_Dunscale
                          1. 6A C67B 00E2 0000:_FDunscale
                    4C24:
                      40E8........:
                        488B4424:
                          40488B4C:
                            0. 37 D7A6 0057 0000:??0?$istreambuf_iterator@GU?$char_traits@G@std@@@std@@QEAA@PEAV?$basic_streambuf@GU?$char_traits@G@std@@@1@@Z (REF 0014: ??0?$_Iterator_with_base@Uinput_iterator_tag@std@@G_JPEAGAEAGU_Iterator_base@2@@std@@QEAA@XZ)
                            1. 37 D7A6 0057 0000:??0?$istreambuf_iterator@DU?$char_traits@D@std@@@std@@QEAA@PEAV?$basic_streambuf@DU?$char_traits@D@std@@@1@@Z (REF 0014: ??0?$_Iterator_with_base@Uinput_iterator_tag@std@@D_JPEADAEADU_Iterator_base@2@@std@@QEAA@XZ)
                          48:
                            0F2E00:
                              0. 0A AB56 0054 0000:??$?8M@std@@YA_NAEBV?$complex@M@0@AEBM@Z
                            660F2E:
                              0. 0B BE23 0056 0000:??$?8N@std@@YA_NAEBV?$complex@N@0@AEBN@Z (REF 0014: ??$real@N@std@@YANAEBV?$complex@N@0@@Z)
                              1. 0B BE23 0056 0000:??$?8O@std@@YA_NAEBV?$complex@O@0@AEBO@Z (REF 0014: ??$real@O@std@@YAOAEBV?$complex@O@0@@Z)
                        F30F11442420488B:
                          0. 04 E7FE 0077 0000:??$?8M@std@@YA_NAEBV?$complex@M@0@0@Z
                      48E8........:
                        48:
                          894424204C8B4C:
                            0. 13 13F5 003C 0000:?compare@?$basic_string@DU?$char_traits@D@std@@V?$allocator@D@2@@std@@QEBAHPEBD@Z (REF 0014: ?length@?$char_traits@D@std@@SA_KPEBD@Z)
                            1. 13 13F5 003C 0000:?compare@?$basic_string@GU?$char_traits@G@std@@V?$allocator@G@2@@std@@QEBAHPEBG@Z (REF 0014: ?length@?$char_traits@G@std@@SA_KPEBG@Z)
                          8B442440:
                            660F12:
                              0. 0F E697 005A 0000:??$?8N@std@@YA_NAEBNAEBV?$complex@N@0@@Z (REF 0014: ??$real@N@std@@YANAEBV?$complex@N@0@@Z)
                              1. 0F E697 005A 0000:??$?8O@std@@YA_NAEBOAEBV?$complex@O@0@@Z (REF 0014: ??$real@O@std@@YAOAEBV?$complex@O@0@@Z)
                            F30F10:
                              0. 0E 3C9F 0057 0000:??$?8M@std@@YA_NAEBMAEBV?$complex@M@0@@Z
                        66:
                          0F120D:
                            0. 14 2E95 006C 0000:??$?GN@std@@YA?AV?$complex@N@0@AEBV10@@Z (0027: 24) (REF 0014: ??$imag@N@std@@YANAEBV?$complex@N@0@@Z)
                            1. 14 2E95 006C 0000:??$?GO@std@@YA?AV?$complex@O@0@AEBV10@@Z (0027: 24) (REF 0014: ??$imag@O@std@@YAOAEBV?$complex@O@0@@Z)
                            2. 14 2E95 005C 0000:??$conj@N@std@@YA?AV?$complex@N@0@AEBV10@@Z (0027: C3) (REF 0014: ??$imag@N@std@@YANAEBV?$complex@N@0@@Z)
                            3. 14 2E95 005C 0000:??$conj@O@std@@YA?AV?$complex@O@0@AEBV10@@Z (0027: C3) (REF 0014: ??$imag@O@std@@YAOAEBV?$complex@O@0@@Z)
                          894424200FB744:
                            0. 23 7504 0043 0000:??$_Fgetc@G@std@@YA_NAEAGPEAU__sFILE@@@Z
                        89442420837C2420:
                          0. 1C 745F 003C 0000:??$_Fgetc@D@std@@YA_NAEADPEAU__sFILE@@@Z
                        E8........F30F11:
                          0. 09 2999 009B 0000:??$cos@M@std@@YA?AV?$complex@M@0@AEBV10@@Z (0062: 40)
                          1. 09 2999 008C 0000:??$sinh@M@std@@YA?AV?$complex@M@0@AEBV10@@Z (0062: C3) (REF 0014: ??$imag@M@std@@YAMAEBV?$complex@M@0@@Z)
                          2. 09 2999 008C 0000:??$sin@M@std@@YA?AV?$complex@M@0@AEBV10@@Z (0062: C3) (REF 0014: ??$real@M@std@@YAMAEBV?$complex@M@0@@Z)
                        F20F11442420488B:
                          0. 04 E7FE 008C 0000:??$exp@N@std@@YA?AV?$complex@N@0@AEBV10@@Z (REF 0014: ??$real@N@std@@YANAEBV?$complex@N@0@@Z)
                          1. 04 E7FE 008C 0000:??$exp@O@std@@YA?AV?$complex@O@0@AEBV10@@Z (REF 0014: ??$real@O@std@@YAOAEBV?$complex@O@0@@Z)
                        F30F:
                          100D:
                            0. 13 8D53 006A 0000:??$?GM@std@@YA?AV?$complex@M@0@AEBV10@@Z (0027: 40)
                            1. 13 8D53 005B 0000:??$conj@M@std@@YA?AV?$complex@M@0@AEBV10@@Z (0027: C3)
                          114424:
                            20488B:
                              0. 04 E7FE 008A 0000:??$exp@M@std@@YA?AV?$complex@M@0@AEBV10@@Z
                            28488B:
                              0. 04 E7FE 0098 0000:??$_Mul@M@?$_Complex_base@MU_C_float_complex@@@std@@IEAAXAEBV?$complex@M@1@@Z
                    5424:
                      40488B4C2448E8........:
                        0FB6C0:
                          0. 1F 6389 003F 0000:??$?NDU?$char_traits@D@std@@V?$allocator@D@1@@std@@YA_NAEBV?$basic_string@DU?$char_traits@D@std@@V?$allocator@D@2@@0@0@Z (REF 0019: ??$?MDU?$char_traits@D@std@@V?$allocator@D@1@@std@@YA_NAEBV?$basic_string@DU?$char_traits@D@std@@V?$allocator@D@2@@0@0@Z)
                          1. 1F 6389 003F 0000:??$?NDU?$char_traits@D@std@@V?$allocator@D@1@@std@@YA_NPEBDAEBV?$basic_string@DU?$char_traits@D@std@@V?$allocator@D@2@@0@@Z (REF 0019: ??$?MDU?$char_traits@D@std@@V?$allocator@D@1@@std@@YA_NAEBV?$basic_string@DU?$char_traits@D@std@@V?$allocator@D@2@@0@PEBD@Z)
                          2. 1F 6389 003F 0000:??$?NDU?$char_traits@D@std@@V?$allocator@D@1@@std@@YA_NAEBV?$basic_string@DU?$char_traits@D@std@@V?$allocator@D@2@@0@PEBD@Z (REF 0019: ??$?MDU?$char_traits@D@std@@V?$allocator@D@1@@std@@YA_NPEBDAEBV?$basic_string@DU?$char_traits@D@std@@V?$allocator@D@2@@0@@Z)
                          3. 1F 6389 003F 0000:??$?NGU?$char_traits@G@std@@V?$allocator@G@1@@std@@YA_NAEBV?$basic_string@GU?$char_traits@G@std@@V?$allocator@G@2@@0@0@Z (REF 0019: ??$?MGU?$char_traits@G@std@@V?$allocator@G@1@@std@@YA_NAEBV?$basic_string@GU?$char_traits@G@std@@V?$allocator@G@2@@0@0@Z)
                          4. 1F 6389 003F 0000:??$?NGU?$char_traits@G@std@@V?$allocator@G@1@@std@@YA_NPEBGAEBV?$basic_string@GU?$char_traits@G@std@@V?$allocator@G@2@@0@@Z (REF 0019: ??$?MGU?$char_traits@G@std@@V?$allocator@G@1@@std@@YA_NAEBV?$basic_string@GU?$char_traits@G@std@@V?$allocator@G@2@@0@PEBG@Z)
                          5. 1F 6389 003F 0000:??$?NGU?$char_traits@G@std@@V?$allocator@G@1@@std@@YA_NAEBV?$basic_string@GU?$char_traits@G@std@@V?$allocator@G@2@@0@PEBG@Z (REF 0019: ??$?MGU?$char_traits@G@std@@V?$allocator@G@1@@std@@YA_NPEBGAEBV?$basic_string@GU?$char_traits@G@std@@V?$allocator@G@2@@0@@Z)
                        85C0:
                          75:
                            0. 1C 423B 003C 0000:??$?8DU?$char_traits@D@std@@V?$allocator@D@1@@std@@YA_NPEBDAEBV?$basic_string@DU?$char_traits@D@std@@V?$allocator@D@2@@0@@Z (REF 0019: ?compare@?$basic_string@DU?$char_traits@D@std@@V?$allocator@D@2@@std@@QEBAHPEBD@Z)
                            1. 1C 423B 003C 0000:??$?8GU?$char_traits@G@std@@V?$allocator@G@1@@std@@YA_NPEBGAEBV?$basic_string@GU?$char_traits@G@std@@V?$allocator@G@2@@0@@Z (REF 0019: ?compare@?$basic_string@GU?$char_traits@G@std@@V?$allocator@G@2@@std@@QEBAHPEBG@Z)
                          7E:
                            0. 1C 423B 003C 0000:??$?MDU?$char_traits@D@std@@V?$allocator@D@1@@std@@YA_NPEBDAEBV?$basic_string@DU?$char_traits@D@std@@V?$allocator@D@2@@0@@Z (REF 0019: ?compare@?$basic_string@DU?$char_traits@D@std@@V?$allocator@D@2@@std@@QEBAHPEBD@Z)
                            1. 1C 423B 003C 0000:??$?MGU?$char_traits@G@std@@V?$allocator@G@1@@std@@YA_NPEBGAEBV?$basic_string@GU?$char_traits@G@std@@V?$allocator@G@2@@0@@Z (REF 0019: ?compare@?$basic_string@GU?$char_traits@G@std@@V?$allocator@G@2@@std@@QEBAHPEBG@Z)
                      48488B:
                        4424400FB708E8:
                          0. 25 11DE 0045 0000:??$_Ungetc@G@std@@YA_NAEBGPEAU__sFILE@@@Z
                        4C2440E8........:
                          0FB6C0:
                            0. 1F 6389 003F 0000:??9?$_String_const_iterator@DU?$char_traits@D@std@@V?$allocator@D@2@@std@@QEBA_NAEBV01@@Z (REF 0019: ??8?$_String_const_iterator@DU?$char_traits@D@std@@V?$allocator@D@2@@std@@QEBA_NAEBV01@@Z)
                            1. 1F 6389 003F 0000:??$?9DU?$char_traits@D@std@@@std@@YA_NAEBV?$istreambuf_iterator@DU?$char_traits@D@std@@@0@0@Z (REF 0019: ??$?8DU?$char_traits@D@std@@@std@@YA_NAEBV?$istreambuf_iterator@DU?$char_traits@D@std@@@0@0@Z)
                            2. 1F 6389 003F 0000:??9?$_String_const_iterator@GU?$char_traits@G@std@@V?$allocator@G@2@@std@@QEBA_NAEBV01@@Z (REF 0019: ??8?$_String_const_iterator@GU?$char_traits@G@std@@V?$allocator@G@2@@std@@QEBA_NAEBV01@@Z)
                            3. 1F 6389 003F 0000:??$?9GU?$char_traits@G@std@@@std@@YA_NAEBV?$istreambuf_iterator@GU?$char_traits@G@std@@@0@0@Z (REF 0019: ??$?8GU?$char_traits@G@std@@@std@@YA_NAEBV?$istreambuf_iterator@GU?$char_traits@G@std@@@0@0@Z)
                            4. 1F 6389 003F 0000:??$?9DU?$char_traits@D@std@@V?$allocator@D@1@@std@@YA_NAEBV?$basic_string@DU?$char_traits@D@std@@V?$allocator@D@2@@0@0@Z (REF 0019: ??$?8DU?$char_traits@D@std@@V?$allocator@D@1@@std@@YA_NAEBV?$basic_string@DU?$char_traits@D@std@@V?$allocator@D@2@@0@0@Z)
                            5. 1F 6389 003F 0000:??$?9DU?$char_traits@D@std@@V?$allocator@D@1@@std@@YA_NPEBDAEBV?$basic_string@DU?$char_traits@D@std@@V?$allocator@D@2@@0@@Z (REF 0019: ??$?8DU?$char_traits@D@std@@V?$allocator@D@1@@std@@YA_NPEBDAEBV?$basic_string@DU?$char_traits@D@std@@V?$allocator@D@2@@0@@Z)
                            6. 1F 6389 003F 0000:??$?9DU?$char_traits@D@std@@V?$allocator@D@1@@std@@YA_NAEBV?$basic_string@DU?$char_traits@D@std@@V?$allocator@D@2@@0@PEBD@Z (REF 0019: ??$?8DU?$char_traits@D@std@@V?$allocator@D@1@@std@@YA_NAEBV?$basic_string@DU?$char_traits@D@std@@V?$allocator@D@2@@0@PEBD@Z)
                            7. 1F 6389 003F 0000:??$?PDU?$char_traits@D@std@@V?$allocator@D@1@@std@@YA_NAEBV?$basic_string@DU?$char_traits@D@std@@V?$allocator@D@2@@0@0@Z (REF 0019: ??$?MDU?$char_traits@D@std@@V?$allocator@D@1@@std@@YA_NAEBV?$basic_string@DU?$char_traits@D@std@@V?$allocator@D@2@@0@0@Z)
                            8. 1F 6389 003F 0000:??$?PDU?$char_traits@D@std@@V?$allocator@D@1@@std@@YA_NPEBDAEBV?$basic_string@DU?$char_traits@D@std@@V?$allocator@D@2@@0@@Z (REF 0019: ??$?MDU?$char_traits@D@std@@V?$allocator@D@1@@std@@YA_NPEBDAEBV?$basic_string@DU?$char_traits@D@std@@V?$allocator@D@2@@0@@Z)
                            9. 1F 6389 003F 0000:??$?PDU?$char_traits@D@std@@V?$allocator@D@1@@std@@YA_NAEBV?$basic_string@DU?$char_traits@D@std@@V?$allocator@D@2@@0@PEBD@Z (REF 0019: ??$?MDU?$char_traits@D@std@@V?$allocator@D@1@@std@@YA_NAEBV?$basic_string@DU?$char_traits@D@std@@V?$allocator@D@2@@0@PEBD@Z)
                            10. 1F 6389 003F 0000:??$?9GU?$char_traits@G@std@@V?$allocator@G@1@@std@@YA_NAEBV?$basic_string@GU?$char_traits@G@std@@V?$allocator@G@2@@0@0@Z (REF 0019: ??$?8GU?$char_traits@G@std@@V?$allocator@G@1@@std@@YA_NAEBV?$basic_string@GU?$char_traits@G@std@@V?$allocator@G@2@@0@0@Z)
                            11. 1F 6389 003F 0000:??$?9GU?$char_traits@G@std@@V?$allocator@G@1@@std@@YA_NPEBGAEBV?$basic_string@GU?$char_traits@G@std@@V?$allocator@G@2@@0@@Z (REF 0019: ??$?8GU?$char_traits@G@std@@V?$allocator@G@1@@std@@YA_NPEBGAEBV?$basic_string@GU?$char_traits@G@std@@V?$allocator@G@2@@0@@Z)
                            12. 1F 6389 003F 0000:??$?9GU?$char_traits@G@std@@V?$allocator@G@1@@std@@YA_NAEBV?$basic_string@GU?$char_traits@G@std@@V?$allocator@G@2@@0@PEBG@Z (REF 0019: ??$?8GU?$char_traits@G@std@@V?$allocator@G@1@@std@@YA_NAEBV?$basic_string@GU?$char_traits@G@std@@V?$allocator@G@2@@0@PEBG@Z)
                            13. 1F 6389 003F 0000:??$?PGU?$char_traits@G@std@@V?$allocator@G@1@@std@@YA_NAEBV?$basic_string@GU?$char_traits@G@std@@V?$allocator@G@2@@0@0@Z (REF 0019: ??$?MGU?$char_traits@G@std@@V?$allocator@G@1@@std@@YA_NAEBV?$basic_string@GU?$char_traits@G@std@@V?$allocator@G@2@@0@0@Z)
                            14. 1F 6389 003F 0000:??$?PGU?$char_traits@G@std@@V?$allocator@G@1@@std@@YA_NPEBGAEBV?$basic_string@GU?$char_traits@G@std@@V?$allocator@G@2@@0@@Z (REF 0019: ??$?MGU?$char_traits@G@std@@V?$allocator@G@1@@std@@YA_NPEBGAEBV?$basic_string@GU?$char_traits@G@std@@V?$allocator@G@2@@0@@Z)
                            15. 1F 6389 003F 0000:??$?PGU?$char_traits@G@std@@V?$allocator@G@1@@std@@YA_NAEBV?$basic_string@GU?$char_traits@G@std@@V?$allocator@G@2@@0@PEBG@Z (REF 0019: ??$?MGU?$char_traits@G@std@@V?$allocator@G@1@@std@@YA_NAEBV?$basic_string@GU?$char_traits@G@std@@V?$allocator@G@2@@0@PEBG@Z)
                            16. 1F 6389 003F 0000:??$?9M@std@@YA_NAEBV?$complex@M@0@0@Z (REF 0019: ??$?8M@std@@YA_NAEBV?$complex@M@0@0@Z)
                            17. 1F 6389 003F 0000:??$?9M@std@@YA_NAEBV?$complex@M@0@AEBM@Z (REF 0019: ??$?8M@std@@YA_NAEBV?$complex@M@0@AEBM@Z)
                            18. 1F 6389 003F 0000:??$?9M@std@@YA_NAEBMAEBV?$complex@M@0@@Z (REF 0019: ??$?8M@std@@YA_NAEBMAEBV?$complex@M@0@@Z)
                            19. 1F 6389 003F 0000:??$?9N@std@@YA_NAEBV?$complex@N@0@0@Z (REF 0019: ??$?8N@std@@YA_NAEBV?$complex@N@0@0@Z)
                            20. 1F 6389 003F 0000:??$?9N@std@@YA_NAEBV?$complex@N@0@AEBN@Z (REF 0019: ??$?8N@std@@YA_NAEBV?$complex@N@0@AEBN@Z)
                            21. 1F 6389 003F 0000:??$?9N@std@@YA_NAEBNAEBV?$complex@N@0@@Z (REF 0019: ??$?8N@std@@YA_NAEBNAEBV?$complex@N@0@@Z)
                            22. 1F 6389 003F 0000:??$?9O@std@@YA_NAEBV?$complex@O@0@0@Z (REF 0019: ??$?8O@std@@YA_NAEBV?$complex@O@0@0@Z)
                            23. 1F 6389 003F 0000:??$?9O@std@@YA_NAEBV?$complex@O@0@AEBO@Z (REF 0019: ??$?8O@std@@YA_NAEBV?$complex@O@0@AEBO@Z)
                            24. 1F 6389 003F 0000:??$?9O@std@@YA_NAEBOAEBV?$complex@O@0@@Z (REF 0019: ??$?8O@std@@YA_NAEBOAEBV?$complex@O@0@@Z)
                          85C0:
                            75:
                              0. 1C 423B 003C 0000:??$?8DU?$char_traits@D@std@@V?$allocator@D@1@@std@@YA_NAEBV?$basic_string@DU?$char_traits@D@std@@V?$allocator@D@2@@0@0@Z (REF 0019: ?compare@?$basic_string@DU?$char_traits@D@std@@V?$allocator@D@2@@std@@QEBAHAEBV12@@Z)
                              1. 1C 423B 003C 0000:??$?8DU?$char_traits@D@std@@V?$allocator@D@1@@std@@YA_NAEBV?$basic_string@DU?$char_traits@D@std@@V?$allocator@D@2@@0@PEBD@Z (REF 0019: ?compare@?$basic_string@DU?$char_traits@D@std@@V?$allocator@D@2@@std@@QEBAHPEBD@Z)
                              2. 1C 423B 003C 0000:??$?8GU?$char_traits@G@std@@V?$allocator@G@1@@std@@YA_NAEBV?$basic_string@GU?$char_traits@G@std@@V?$allocator@G@2@@0@0@Z (REF 0019: ?compare@?$basic_string@GU?$char_traits@G@std@@V?$allocator@G@2@@std@@QEBAHAEBV12@@Z)
                              3. 1C 423B 003C 0000:??$?8GU?$char_traits@G@std@@V?$allocator@G@1@@std@@YA_NAEBV?$basic_string@GU?$char_traits@G@std@@V?$allocator@G@2@@0@PEBG@Z (REF 0019: ?compare@?$basic_string@GU?$char_traits@G@std@@V?$allocator@G@2@@std@@QEBAHPEBG@Z)
                            7D:
                              0. 1C 423B 003C 0000:??$?MDU?$char_traits@D@std@@V?$allocator@D@1@@std@@YA_NAEBV?$basic_string@DU?$char_traits@D@std@@V?$allocator@D@2@@0@0@Z (REF 0019: ?compare@?$basic_string@DU?$char_traits@D@std@@V?$allocator@D@2@@std@@QEBAHAEBV12@@Z)
                              1. 1C 423B 003C 0000:??$?MDU?$char_traits@D@std@@V?$allocator@D@1@@std@@YA_NAEBV?$basic_string@DU?$char_traits@D@std@@V?$allocator@D@2@@0@PEBD@Z (REF 0019: ?compare@?$basic_string@DU?$char_traits@D@std@@V?$allocator@D@2@@std@@QEBAHPEBD@Z)
                              2. 1C 423B 003C 0000:??$?MGU?$char_traits@G@std@@V?$allocator@G@1@@std@@YA_NAEBV?$basic_string@GU?$char_traits@G@std@@V?$allocator@G@2@@0@0@Z (REF 0019: ?compare@?$basic_string@GU?$char_traits@G@std@@V?$allocator@G@2@@std@@QEBAHAEBV12@@Z)
                              3. 1C 423B 003C 0000:??$?MGU?$char_traits@G@std@@V?$allocator@G@1@@std@@YA_NAEBV?$basic_string@GU?$char_traits@G@std@@V?$allocator@G@2@@0@PEBG@Z (REF 0019: ?compare@?$basic_string@GU?$char_traits@G@std@@V?$allocator@G@2@@std@@QEBAHPEBG@Z)
                  8D:
                    4424204889442428488B:
                      4C2428E8:
                        0. 00 0000 0057 0000:??0?$basic_string@DU?$char_traits@D@std@@V?$allocator@D@2@@std@@QEAA@PEBD@Z (REF 001E: ??0?$allocator@D@std@@QEAA@XZ)
                        1. 00 0000 0057 0000:??0?$basic_string@GU?$char_traits@G@std@@V?$allocator@G@2@@std@@QEAA@PEBG@Z (REF 001E: ??0?$allocator@G@std@@QEAA@XZ)
                      542448488B4C:
                        0. 03 2320 0066 0000:??0?$basic_string@DU?$char_traits@D@std@@V?$allocator@D@2@@std@@QEAA@AEBV01@@Z (REF 0023: ??0?$allocator@D@std@@QEAA@AEBV01@@Z)
                        1. 03 2320 0066 0000:??0?$basic_string@GU?$char_traits@G@std@@V?$allocator@G@2@@std@@QEAA@AEBV01@@Z (REF 0023: ??0?$allocator@G@std@@QEAA@AEBV01@@Z)
                    542420488B4C2448E8........488B00:
                      0. 0E 81C7 002E (!)0000:?
                  C7442420FEFFFFFF:
                    33D2488B4C2440E8:
                      0. 00 0000 012F 0000:??0_Locinfo@std@@QEAA@PEBD@Z (l)0090:?dtor$0@?0???0_Locinfo@std@@QEAA@PEBD@Z@4HA (l)00B0:?dtor$1@?0???0_Locinfo@std@@QEAA@PEBD@Z@4HA (l)00D0:?dtor$2@?0???0_Locinfo@std@@QEAA@PEBD@Z@4HA (l)00F0:?dtor$3@?0???0_Locinfo@std@@QEAA@PEBD@Z@4HA (l)0110:?dtor$4@?0???0_Locinfo@std@@QEAA@PEBD@Z@4HA
                    488B:
                      4C2440E8:
                        0. 00 0000 0068 0000:??0?$basic_filebuf@DU?$char_traits@D@std@@@std@@QEAA@PEAU__sFILE@@@Z (l)0050:?dtor$0@?0???0?$basic_filebuf@DU?$char_traits@D@std@@@std@@QEAA@PEAU__sFILE@@@Z@4HA (0047: C3) (REF 001D: ??0?$basic_streambuf@DU?$char_traits@D@std@@@std@@IEAA@XZ)
                        1. 00 0000 0068 0000:??0?$basic_filebuf@GU?$char_traits@G@std@@@std@@QEAA@PEAU__sFILE@@@Z (l)0050:?dtor$0@?0???0?$basic_filebuf@GU?$char_traits@G@std@@@std@@QEAA@PEAU__sFILE@@@Z@4HA (0047: C3) (REF 001D: ??0?$basic_streambuf@GU?$char_traits@G@std@@@std@@IEAA@XZ)
                        2. 00 0000 0078 0000:??0logic_error@std@@QEAA@AEBV?$basic_string@DU?$char_traits@D@std@@V?$allocator@D@2@@1@@Z (l)0060:?dtor$0@?0???0logic_error@std@@QEAA@AEBV?$basic_string@DU?$char_traits@D@std@@V?$allocator@D@2@@1@@Z@4HA (0047: 8B) (REF 002A: ??_7logic_error@std@@6B@)
                        3. 00 0000 0078 0000:??0runtime_error@std@@QEAA@AEBV?$basic_string@DU?$char_traits@D@std@@V?$allocator@D@2@@1@@Z (l)0060:?dtor$0@?0???0runtime_error@std@@QEAA@AEBV?$basic_string@DU?$char_traits@D@std@@V?$allocator@D@2@@1@@Z@4HA (0047: 8B) (REF 002A: ??_7runtime_error@std@@6B@)
                      542448488B4C24:
                        0. 02 6722 0078 0000:??0logic_error@std@@QEAA@AEBV01@@Z (l)0060:?dtor$0@?0???0logic_error@std@@QEAA@AEBV01@@Z@4HA (0055: C3) (REF 002F: ??_7logic_error@std@@6B@)
                        1. 02 6722 0078 0000:??0runtime_error@std@@QEAA@AEBV01@@Z (l)0060:?dtor$0@?0???0runtime_error@std@@QEAA@AEBV01@@Z@4HA (0055: C3) (REF 002F: ??_7runtime_error@std@@6B@)
                        2. 02 6722 00E8 0000:??0sentry@?$basic_ostream@GU?$char_traits@G@std@@@std@@QEAA@AEAV12@@Z (l)00D0:?dtor$0@?0???0sentry@?$basic_ostream@GU?$char_traits@G@std@@@std@@QEAA@AEAV12@@Z@4HA (0055: 8B) (REF 0022: ??0_Sentry_base@?$basic_ostream@GU?$char_traits@G@std@@@std@@QEAA@AEAV12@@Z)
                        3. 02 6722 00E8 0000:??0sentry@?$basic_ostream@DU?$char_traits@D@std@@@std@@QEAA@AEAV12@@Z (l)00D0:?dtor$0@?0???0sentry@?$basic_ostream@DU?$char_traits@D@std@@@std@@QEAA@AEAV12@@Z@4HA (0055: 8B) (REF 0022: ??0_Sentry_base@?$basic_ostream@DU?$char_traits@D@std@@@std@@QEAA@AEAV12@@Z)
                66:
                  0F57C0F20F114424204C8D442420488B54:
                    0. 08 7E18 0036 0000:??$polar@N@std@@YA?AV?$complex@N@0@AEBN@Z (REF 0028: ??0?$complex@N@std@@QEAA@AEBN0@Z)
                    1. 08 7E18 0036 0000:??$polar@O@std@@YA?AV?$complex@O@0@AEBO@Z (REF 0028: ??0?$complex@O@std@@QEAA@AEBO0@Z)
                  C74424200000488B442440488B4C244848:
                    0. 09 A646 0048 0000:?_Eos@?$basic_string@GU?$char_traits@G@std@@V?$allocator@G@2@@std@@IEAAX_K@Z
                C644242000488B442440488B4C2448488948:
                  0. 07 9CC5 0042 0000:?_Eos@?$basic_string@DU?$char_traits@D@std@@V?$allocator@D@2@@std@@IEAAX_K@Z
                C744242000000000:
                  488B44244048:
                    05800000:
                      0. 0A 848E 0043 0000:?_Getname@_Locinfo@std@@QEBA?AV?$basic_string@DU?$char_traits@D@std@@V?$allocator@D@2@@2@XZ
                    83C00848:
                      0. 08 8345 0041 0000:?str@?$basic_ostringstream@DU?$char_traits@D@std@@V?$allocator@D@2@@std@@QEBA?AV?$basic_string@DU?$char_traits@D@std@@V?$allocator@D@2@@2@XZ (REF 0028: ?str@?$basic_stringbuf@DU?$char_traits@D@std@@V?$allocator@D@2@@std@@QEBA?AV?$basic_string@DU?$char_traits@D@std@@V?$allocator@D@2@@2@XZ)
                      1. 08 8345 0041 0000:?str@?$basic_ostringstream@GU?$char_traits@G@std@@V?$allocator@G@2@@std@@QEBA?AV?$basic_string@GU?$char_traits@G@std@@V?$allocator@G@2@@2@XZ (REF 0028: ?str@?$basic_stringbuf@GU?$char_traits@G@std@@V?$allocator@G@2@@std@@QEBA?AV?$basic_string@GU?$char_traits@G@std@@V?$allocator@G@2@@2@XZ)
                    8B:
                      00488B:
                        0. 20 1E72 0040 (!)0000:?
                        1. 20 8135 0040 (!)0000:?
                        2. 20 A310 0040 (!)0000:?
                        3. 20 D9D5 0040 0000:?negative_sign@?$_Mpunct@D@std@@QEBA?AV?$basic_string@DU?$char_traits@D@std@@V?$allocator@D@2@@2@XZ
                      50:
                        1048:
                          0. 05 F700 003E (!)0000:?
                        2048:
                          0. 05 F700 003E (!)0000:?
                        2848:
                          0. 05 F700 003E (!)0000:?
                        3048:
                          0. 05 F700 003E 0000:?do_negative_sign@?$_Mpunct@D@std@@MEBA?AV?$basic_string@DU?$char_traits@D@std@@V?$allocator@D@2@@2@XZ (REF 0025: ??0?$basic_string@DU?$char_traits@D@std@@V?$allocator@D@2@@std@@QEAA@PEBD@Z)
                          1. 05 F700 003E 0000:?do_negative_sign@?$_Mpunct@G@std@@MEBA?AV?$basic_string@GU?$char_traits@G@std@@V?$allocator@G@2@@2@XZ (REF 0025: ??0?$basic_string@GU?$char_traits@G@std@@V?$allocator@G@2@@std@@QEAA@PEBG@Z)
                        4048:
                          0. 05 F700 003E 0000:?getloc@ios_base@std@@QEBA?AVlocale@2@XZ
                  E8........488BD0488B:
                    0. 04 E7FE 003D 0000:?_Gettnames@_Locinfo@std@@QEBA?AV_Timevec@2@XZ
                E8........4889442420488B442448488B4C:
                  0. 0F 0C50 002F 0000:?_Getcoll@_Locinfo@std@@QEBA?AU_Collvec@@XZ (REF 000F: _Getcoll)
                  1. 0F 0C50 002F 0000:?_Getcvt@_Locinfo@std@@QEBA?AU_Cvtvec@@XZ (REF 000F: _Getcvt)
                F30F1005........F30F11442420488B5424:
                  0. 07 FE8E 0047 0000:??$log10@M@std@@YA?AV?$complex@M@0@AEBV10@@Z
              48:
                48:
                  8B:
                    4424:
                      50488B:
                        00488B4018483944245873:
                          0. 52 8A4A 00B7 0000:?_Getfacet@locale@std@@QEBAPEBVfacet@12@_K@Z
                        4C2458488B09483908746B:
                          0. 0C 8672 0095 0000:??4locale@std@@QEAAAEAV01@AEBV01@@Z
                      58C70000000000488B4C2450E8:
                        0. 00 0000 02E5 0000:??$_Fabs@M@std@@YAMAEBV?$complex@M@0@PEAH@Z
                    4C24:
                      50E8........F20F11442420488B:
                        0. 04 766B 0079 0000:??$?8N@std@@YA_NAEBV?$complex@N@0@0@Z (REF 0014: ??$real@N@std@@YANAEBV?$complex@N@0@@Z)
                        1. 04 766B 0079 0000:??$?8O@std@@YA_NAEBV?$complex@O@0@0@Z (REF 0014: ??$real@O@std@@YAOAEBV?$complex@O@0@@Z)
                      58E8........:
                        4889442430488B4C:
                          0. 03 E7D0 004E 0000:?compare@?$basic_string@DU?$char_traits@D@std@@V?$allocator@D@2@@std@@QEBAHAEBV12@@Z (REF 0014: ?size@?$basic_string@DU?$char_traits@D@std@@V?$allocator@D@2@@std@@QEBA_KXZ)
                          1. 03 E7D0 004E 0000:?compare@?$basic_string@GU?$char_traits@G@std@@V?$allocator@G@2@@std@@QEBAHAEBV12@@Z (REF 0014: ?size@?$basic_string@GU?$char_traits@G@std@@V?$allocator@G@2@@std@@QEBA_KXZ)
                        E8........:
                          F20F11:
                            0. 09 9D67 009C 0000:??$cos@O@std@@YA?AV?$complex@O@0@AEBV10@@Z (0062: 24) (REF 0014: ??$real@O@std@@YAOAEBV?$complex@O@0@@Z)
                            1. 09 9D67 009C 0000:??$cos@N@std@@YA?AV?$complex@N@0@AEBV10@@Z (0062: 24) (REF 0014: ??$real@N@std@@YANAEBV?$complex@N@0@@Z)
                            2. 09 9D67 008C 0000:??$sin@N@std@@YA?AV?$complex@N@0@AEBV10@@Z (0062: C3) (REF 0014: ??$real@N@std@@YANAEBV?$complex@N@0@@Z)
                            3. 09 9D67 008C 0000:??$sin@O@std@@YA?AV?$complex@O@0@AEBV10@@Z (0062: C3) (REF 0014: ??$real@O@std@@YAOAEBV?$complex@O@0@@Z)
                            4. 09 9D67 008C 0000:??$sinh@O@std@@YA?AV?$complex@O@0@AEBV10@@Z (0062: C3) (REF 0014: ??$imag@O@std@@YAOAEBV?$complex@O@0@@Z)
                            5. 09 9D67 008C 0000:??$sinh@N@std@@YA?AV?$complex@N@0@AEBV10@@Z (0062: C3) (REF 0014: ??$imag@N@std@@YANAEBV?$complex@N@0@@Z)
                          F30F11:
                            0. 09 B80C 00F1 0000:??$tanh@M@std@@YA?AV?$complex@M@0@AEBV10@@Z
                        F20F11442430488B:
                          0. 04 766B 0098 0000:??$_Mul@N@?$_Complex_base@NU_C_double_complex@@@std@@IEAAXAEBV?$complex@N@1@@Z (REF 0014: ?real@?$_Complex_base@NU_C_double_complex@@@std@@QEBANXZ)
                          1. 04 766B 0098 0000:??$_Mul@O@?$_Complex_base@OU_C_ldouble_complex@@@std@@IEAAXAEBV?$complex@O@1@@Z (REF 0014: ?real@?$_Complex_base@OU_C_ldouble_complex@@@std@@QEBAOXZ)
                        F30F11442430488B:
                          0. 04 766B 00AB 0000:??$tan@M@std@@YA?AV?$complex@M@0@AEBV10@@Z
                  C7442428FEFFFFFF488B4C2450E8:
                    0. 00 0000 0065 0000:??2@YAPEAX_KAEBUnothrow_t@std@@@Z (l)0030:$LN7 (l)0040:?catch$0@?0???2@YAPEAX_KAEBUnothrow_t@std@@@Z@4HA (l)004D:__catch$??2@YAPEAX_KAEBUnothrow_t@std@@@Z$0
                660F1205........F20F11442420488B5424:
                  0. 07 9792 0047 0000:??$log10@N@std@@YA?AV?$complex@N@0@AEBV10@@Z (REF 0027: ??$log@N@std@@YA?AV?$complex@N@0@AEBV10@@Z)
                  1. 07 9792 0047 0000:??$log10@O@std@@YA?AV?$complex@O@0@AEBV10@@Z (REF 0027: ??$log@O@std@@YA?AV?$complex@O@0@AEBV10@@Z)
                C744242C00000000488B4424504889442420:
                  0. 36 C324 0095 0000:__wcswidth
              58:
                4533C0488B54246033C9E8........48FFC0:
                  0. 10 6340 00BE 0000:__wcscoll
                48:
                  8B:
                    05........4889442448488B44246048:
                      0. 1F 771B 00F2 0000:__wcscasecmp
                    4C2468E8........:
                      E8........F20F11:
                        0. 09 3FD1 00F5 0000:??$tanh@N@std@@YA?AV?$complex@N@0@AEBV10@@Z (REF 0014: ??$imag@N@std@@YANAEBV?$complex@N@0@@Z)
                        1. 09 3FD1 00F5 0000:??$tanh@O@std@@YA?AV?$complex@O@0@AEBV10@@Z (REF 0014: ??$imag@O@std@@YAOAEBV?$complex@O@0@@Z)
                      F30F114424:
                        24488B:
                          0. 04 D4DD 02F0 0000:??$_Div@M@?$_Complex_base@MU_C_float_complex@@@std@@IEAAXAEBV?$complex@M@1@@Z
                        40488B:
                          0. 04 D4DD 015A 0000:??$log@M@std@@YA?AV?$complex@M@0@AEBV10@@Z
                  8D:
                    05........4889442420488B44246048:
                      0. 81 9695 0142 0000:__strcasecmp
                    542420488B4C2468E8........F30F11:
                      0. 1A 82C3 01F5 0000:??$sqrt@M@std@@YA?AV?$complex@M@0@AEBV10@@Z
                  C7442430FEFFFFFF488D542420488B4C24:
                    0. 02 94CF 0098 0000:?_Init@?$time_put@DV?$ostreambuf_iterator@DU?$char_traits@D@std@@@std@@@std@@IEAAXAEBV_Locinfo@2@@Z (l)0080:?dtor$0@?0??_Init@?$time_put@DV?$ostreambuf_iterator@DU?$char_traits@D@std@@@std@@@std@@IEAAXAEBV_Locinfo@2@@Z@4HA (0075: C3)
              6848:
                895C246048896C245848897424504C896C:
                  0. 1D 1413 0153 (l)0000:wfmtcmp (l)010A:$cleanup$2376
                8B:
                  4424:
                    704889442420488B4424200FB740:
                      0. 63 51FE 03B2 0000:_FDscale
                    78C70000000000488B4C2470E8:
                      0. 00 0000 02F4 0000:??$_Fabs@N@std@@YANAEBV?$complex@N@0@PEAH@Z (REF 001F: ??$real@N@std@@YANAEBV?$complex@N@0@@Z)
                      1. 00 0000 02F4 0000:??$_Fabs@O@std@@YAOAEBV?$complex@O@0@PEAH@Z (REF 001F: ??$real@O@std@@YAOAEBV?$complex@O@0@@Z)
                  4C2478E8........F20F11442440488B:
                    0. 04 4548 00AD 0000:??$tan@N@std@@YA?AV?$complex@N@0@AEBV10@@Z (REF 0014: ??$real@N@std@@YANAEBV?$complex@N@0@@Z)
                    1. 04 4548 00AD 0000:??$tan@O@std@@YA?AV?$complex@O@0@AEBV10@@Z (REF 0014: ??$real@O@std@@YAOAEBV?$complex@O@0@@Z)
                C74424:
                  28FEFFFFFF488D542420488B4C24:
                    0. 02 055A 0110 0000:?_Init@?$time_get@DV?$istreambuf_iterator@DU?$char_traits@D@std@@@std@@@std@@IEAAXAEBV_Locinfo@2@@Z (l)00DA:$LN7 (l)00E0:?catch$0@?0??_Init@?$time_get@DV?$istreambuf_iterator@DU?$char_traits@D@std@@@std@@@std@@IEAAXAEBV_Locinfo@2@@Z@4HA (l)00ED:__catch$?_Init@?$time_get@DV?$istreambuf_iterator@DU?$char_traits@D@std@@@std@@@std@@IEAAXAEBV_Locinfo@2@@Z$0 (REF 006F: ??$_Maklocstr@D@std@@YAPEADPEBDPEADAEBU_Cvtvec@@@Z)
                    1. 02 055A 0110 0000:?_Init@?$time_get@GV?$istreambuf_iterator@GU?$char_traits@G@std@@@std@@@std@@IEAAXAEBV_Locinfo@2@@Z (l)00DA:$LN7 (l)00E0:?catch$0@?0??_Init@?$time_get@GV?$istreambuf_iterator@GU?$char_traits@G@std@@@std@@@std@@IEAAXAEBV_Locinfo@2@@Z@4HA (l)00ED:__catch$?_Init@?$time_get@GV?$istreambuf_iterator@GU?$char_traits@G@std@@@std@@@std@@IEAAXAEBV_Locinfo@2@@Z$0 (REF 006F: ??$_Maklocstr@G@std@@YAPEAGPEBDPEAGAEBU_Cvtvec@@@Z)
                  48FEFFFFFFC74424200000000045:
                    0. 0D 613C 0193 0000:??$?5GU?$char_traits@G@std@@@std@@YAAEAV?$basic_istream@GU?$char_traits@G@std@@@0@AEAV10@AEAG@Z (l)00DD:$LN11 (l)0130:?dtor$0@?0???$?5GU?$char_traits@G@std@@@std@@YAAEAV?$basic_istream@GU?$char_traits@G@std@@@0@AEAV10@AEAG@Z@4HA (l)0150:?catch$0@?0???$?5GU?$char_traits@G@std@@@std@@YAAEAV?$basic_istream@GU?$char_traits@G@std@@@0@AEAV10@AEAG@Z@4HA (l)015D:__catch$??$?5GU?$char_traits@G@std@@@std@@YAAEAV?$basic_istream@GU?$char_traits@G@std@@@0@AEAV10@AEAG@Z$0
              7848:
                8B:
                  8424800000004889442420488B442420:
                    0. 80 59A9 0524 0000:_Dscale
                  8C2488000000E8........F20F114424:
                    0. 0A BB4A 034A 0000:??$_Div@N@?$_Complex_base@NU_C_double_complex@@@std@@IEAAXAEBV?$complex@N@1@@Z (REF 0017: ?real@?$_Complex_base@NU_C_double_complex@@@std@@QEBANXZ)
                    1. 0A BB4A 034A 0000:??$_Div@O@?$_Complex_base@OU_C_ldouble_complex@@@std@@IEAAXAEBV?$complex@O@1@@Z (REF 0017: ?real@?$_Complex_base@OU_C_ldouble_complex@@@std@@QEBAOXZ)
                8D542420488B8C2488000000E8:
                  0. 20 CE86 0230 0000:??$sqrt@N@std@@YA?AV?$complex@N@0@AEBV10@@Z (REF 001C: ??$_Fabs@N@std@@YANAEBV?$complex@N@0@PEAH@Z)
                  1. 20 CE86 0230 0000:??$sqrt@O@std@@YA?AV?$complex@O@0@AEBV10@@Z (REF 001C: ??$_Fabs@O@std@@YAOAEBV?$complex@O@0@PEAH@Z)
                C74424:
                  48FEFFFFFFC74424200000000045:
                    0. 10 7420 0199 0000:??$?5DU?$char_traits@D@std@@@std@@YAAEAV?$basic_istream@DU?$char_traits@D@std@@@0@AEAV10@AEAD@Z (l)00E1:$LN11 (l)0130:?dtor$0@?0???$?5DU?$char_traits@D@std@@@std@@YAAEAV?$basic_istream@DU?$char_traits@D@std@@@0@AEAV10@AEAD@Z@4HA (l)0150:?catch$0@?0???$?5DU?$char_traits@D@std@@@std@@YAAEAV?$basic_istream@DU?$char_traits@D@std@@@0@AEAV10@AEAD@Z@4HA (l)015D:__catch$??$?5DU?$char_traits@D@std@@@std@@YAAEAV?$basic_istream@DU?$char_traits@D@std@@@0@AEAV10@AEAD@Z$0
                  50FEFFFFFF488B84248000000048:
                    0. 1A 2C4A 01A3 0000:??5?$basic_istream@GU?$char_traits@G@std@@@std@@QEAAAEAV01@AEAG@Z (l)00ED:$LN11 (l)0140:?dtor$0@?0???5?$basic_istream@GU?$char_traits@G@std@@@std@@QEAAAEAV01@AEAG@Z@4HA (l)0160:?catch$0@?0???5?$basic_istream@GU?$char_traits@G@std@@@std@@QEAAAEAV01@AEAG@Z@4HA (l)016D:__catch$??5?$basic_istream@GU?$char_traits@G@std@@@std@@QEAAAEAV01@AEAG@Z$0
                  58FEFFFFFFC74424500000000048:
                    0. 05 3A5E 0E98 0000:?global@locale@std@@SA?AV12@AEBV12@@Z (l)0190:?dtor$0@?0??global@locale@std@@SA?AV12@AEBV12@@Z@4HA (l)01B0:?dtor$1@?0??global@locale@std@@SA?AV12@AEBV12@@Z@4HA (l)01D0:?dtor$2@?0??global@locale@std@@SA?AV12@AEBV12@@Z@4HA 0200:?_Makeloc@_Locimp@locale@std@@CAPEAV123@AEBV_Locinfo@3@HPEAV123@PEBV23@@Z (l)0780:?dtor$0@?0??_Makeloc@_Locimp@locale@std@@CAPEAV123@AEBV_Locinfo@3@HPEAV123@PEBV23@@Z@4HA (l)07A0:?dtor$1@?0??_Makeloc@_Locimp@locale@std@@CAPEAV123@AEBV_Locinfo@3@HPEAV123@PEBV23@@Z@4HA (l)07C0:?dtor$2@?0??_Makeloc@_Locimp@locale@std@@CAPEAV123@AEBV_Locinfo@3@HPEAV123@PEBV23@@Z@4HA (l)07E0:?dtor$3@?0??_Makeloc@_Locimp@locale@std@@CAPEAV123@AEBV_Locinfo@3@HPEAV123@PEBV23@@Z@4HA (l)0800:?dtor$4@?0??_Makeloc@_Locimp@locale@std@@CAPEAV123@AEBV_Locinfo@3@HPEAV123@PEBV23@@Z@4HA (l)0820:?dtor$5@?0??_Makeloc@_Locimp@locale@std@@CAPEAV123@AEBV_Locinfo@3@HPEAV123@PEBV23@@Z@4HA 0840:?_Locimp_ctor@_Locimp@locale@std@@CAXPEAV123@AEBV123@@Z (l)0A00:?dtor$0@?0??_Locimp_ctor@_Locimp@locale@std@@CAXPEAV123@AEBV123@@Z@4HA (l)0A20:?dtor$1@?0??_Locimp_ctor@_Locimp@locale@std@@CAXPEAV123@AEBV123@@Z@4HA 0A40:?_Locimp_Addfac@_Locimp@locale@std@@CAXPEAV123@PEAVfacet@23@_K@Z (l)0C50:?dtor$0@?0??_Locimp_Addfac@_Locimp@locale@std@@CAXPEAV123@PEAVfacet@23@_K@Z@4HA 0C70:?_Locinfo_ctor@_Locinfo@std@@SAXPEAV12@HPEBD@Z 0CC0:?_Locinfo_Addcats@_Locinfo@std@@SAAEAV12@PEAV12@HPEBD@Z (l)0E80:?dtor$0@?0??_Locinfo_Addcats@_Locinfo@std@@SAAEAV12@PEAV12@HPEBD@Z@4HA
            8B:
              4424:
                08:
                  48:
                    8B4C2410:
                      0F:
                        B6098808C3:
                          0. 00 0000 001A 0000:?assign@?$char_traits@D@std@@SAXAEADAEBD@Z
                        B709668908C3:
                          0. 00 0000 001B 0000:?assign@?$char_traits@G@std@@SAXAEAGAEBG@Z
                      48:
                        8908488B442408C3:
                          0. 00 0000 001D (!)0000:?
                        8B09488908488B44241048:
                          0. 0C 80CB 002C 0000:??4_Timevec@std@@QEAAAEAV01@AEBV01@@Z
                      660F1201F20F11:
                        00488B4424:
                          0. 06 BF3A 0026 0000:?real@?$_Complex_base@NU_C_double_complex@@@std@@QEAANAEBN@Z
                        4008488B44:
                          0. 08 F0CE 0028 0000:?imag@?$_Complex_base@NU_C_double_complex@@@std@@QEAANAEBN@Z
                      F30F1001F30F11:
                        00488B4424:
                          0. 06 4697 0026 0000:?real@?$_Complex_base@MU_C_float_complex@@@std@@QEAAMAEBM@Z
                        4004488B44:
                          0. 08 B30D 0028 0000:?imag@?$_Complex_base@MU_C_float_complex@@@std@@QEAAMAEBM@Z
                    8D0D........488908488B442408488B:
                      0. 0D 9040 002D 0000:??0facet@locale@std@@IEAA@_K@Z
                  8B40:
                    3C488B4C24108901488B442410C3:
                      0. 00 0000 001F 0000:?do_pos_format@?$_Mpunct@D@std@@MEBA?AUpattern@money_base@2@XZ
                    40488B4C24108901488B442410C3:
                      0. 00 0000 001F 0000:?do_neg_format@?$_Mpunct@D@std@@MEBA?AUpattern@money_base@2@XZ
                  C3:
                    0. 00 0000 0010 (!)0000:?
                10:
                  0F:
                    B700488B4C24080FB709488B54241048:
                      0. 4F 2C5B 006F 0000:__wcscmp
                    BE00488B4C24080FBE09488B54241048:
                      0. 3E 717D 005E 0000:__strcmp
                  C3:
                    0. 00 0000 0010 0000:??2@YAPEAX_KPEAX@Z
              C44881EC78010000488978F04C8968E04C8970D8:
                0. 18 8C92 1912 0000:__strtod (l)0098:$LN146 (l)00AF:$LN142 (l)00B3:$LN141 (l)00C0:$LN140 (l)00C8:$LN548 (l)00D0:$break2$1784 (l)022B:$have_dig$1806 (l)02F2:$dig_done$1807 (l)102B:$ret_d$3498 (l)115A:$ret_d$3526 (l)151E:$ret$1786 (l)1580:$cont$1960 (l)1650:$drop_down$1914 (l)184D:$undfl$1879 (l)1867:$ovfl$1860
          565748:
            81EC3801000048C7842400010000FEFFFFFFC7:
              0. 18 9ED4 0299 0000:??5?$basic_istream@GU?$char_traits@G@std@@@std@@QEAAAEAV01@AEAO@Z (l)01AE:$LN12 (l)0210:?dtor$0@?0???5?$basic_istream@GU?$char_traits@G@std@@@std@@QEAAAEAV01@AEAO@Z@4HA (l)0230:?dtor$1@?0???5?$basic_istream@GU?$char_traits@G@std@@@std@@QEAAAEAV01@AEAO@Z@4HA (l)0250:?catch$0@?0???5?$basic_istream@GU?$char_traits@G@std@@@std@@QEAAAEAV01@AEAO@Z@4HA (l)025D:__catch$??5?$basic_istream@GU?$char_traits@G@std@@@std@@QEAAAEAV01@AEAO@Z$0 (REF 0038: ??0sentry@?$basic_istream@GU?$char_traits@G@std@@@std@@QEAA@AEAV12@_N@Z)
              1. 18 9ED4 0299 0000:??5?$basic_istream@DU?$char_traits@D@std@@@std@@QEAAAEAV01@AEAO@Z (l)01AE:$LN12 (l)0210:?dtor$0@?0???5?$basic_istream@DU?$char_traits@D@std@@@std@@QEAAAEAV01@AEAO@Z@4HA (l)0230:?dtor$1@?0???5?$basic_istream@DU?$char_traits@D@std@@@std@@QEAAAEAV01@AEAO@Z@4HA (l)0250:?catch$0@?0???5?$basic_istream@DU?$char_traits@D@std@@@std@@QEAAAEAV01@AEAO@Z@4HA (l)025D:__catch$??5?$basic_istream@DU?$char_traits@D@std@@@std@@QEAAAEAV01@AEAO@Z$0 (REF 0038: ??0sentry@?$basic_istream@DU?$char_traits@D@std@@@std@@QEAA@AEAV12@_N@Z)
            83EC:
              28488D442410488BF8488B742448B91000:
                0. 39 0DA0 0059 0000:??$?HN@std@@YA?AV?$complex@N@0@AEBV10@@Z
              48488D542420488B4C2468E8........48:
                0. 30 8737 0050 0000:?_Init@?$ctype@D@std@@IEAAXAEBV_Locinfo@2@@Z
              58488D:
                0424488B4C2470488BF8488D7110:
                  0. 26 196E 0046 0000:?state@?$fpos@U__mbstate_t@@@std@@QEBA?AU__mbstate_t@@XZ
                4C2430E8........488D4C244048:
                  0. 43 CB89 0063 0000:?_Getctype@_Locinfo@std@@QEBA?AU_Ctypevec@@XZ
                542420488B4C2478E8........48:
                  0. 34 CFAB 006B 0000:?_Init@?$ctype@G@std@@IEAAXAEBV_Locinfo@2@@Z
              7848:
                8B8C2498000000E8........F20F11:
                  0. 0C 083C 017C 0000:??$log@N@std@@YA?AV?$complex@N@0@AEBV10@@Z (REF 0019: ??$real@N@std@@YANAEBV?$complex@N@0@@Z)
                  1. 0C 083C 017C 0000:??$log@O@std@@YA?AV?$complex@O@0@AEBV10@@Z (REF 0019: ??$real@O@std@@YAOAEBV?$complex@O@0@@Z)
                8D442430488D0D........488BF848:
                  0. 31 B0A8 0091 0000:_CxxThrowException
            8B442418488B4C2420488908488B442418488B:
              0. 01 9D2B 004B 0000:??0?$fpos@U__mbstate_t@@@std@@QEAA@_J@Z
          C3:
            0. 00 0000 000B (!)0000:?
        8BC448:
          81EC:
            88000000488958F8488968F0488970E8488978E033:
              0. 0F 66E2 1865 0000:_i_strptime (l)0200:$again$2501 (l)0232:$LN195 (l)0246:$LN193 (l)025D:$literal$2500 (l)0278:$LN191 (l)0303:$LN186 (l)0362:$LN183 (l)03BC:$LN180 (l)042B:$LN175 (l)0485:$LN172 (l)050B:$LN167 (l)0596:$LN162 (l)0678:$LN148 (l)0763:$LN134 (l)0958:$LN121 (l)0A1A:$LN115 (l)0A22:$LN114 (l)0AD4:$LN107 (l)0ADC:$LN106 (l)0B95:$LN99 (l)0C1F:$LN96 (l)0CD1:$LN90 (l)0DAA:$LN84 (l)0E7D:$LN72 (l)0F30:$LN66 (l)1020:$LN56 (l)10E6:$LN50 (l)130E:$LN36 (l)145B:$LN27 (l)1548:$LN23 (l)1614:$LN241
            A80000004585C048895820488968F8488970F04889:
              0. 5C 61C3 078E (l)0000:tzparse
          83EC:
            68837A0C004889581848896820488BE9488BDA7507:
              0. 1E 98DE 0356 0000:__sfvwrite (l)01E3:$err$2310
            78488958:
              18488970F8488978F04C8978D08B410644:
                0. 8B 6310 06A1 0000:_ld12tod (REF 00AB: DoubleFormat)
                1. 8B 6310 06A1 0000:_ld12tof (REF 00AB: FloatFormat)
              20488970F0488978E84C8978C80FB7410A:
                0. FF A46E 066E 0000:_ld12cvt
      4C894424184C894C2420:
        4883EC:
          284C8D442440E8........4883C4:
            0. 02 2316 0022 0000:__syslog (REF 0019: __vsyslog)
            1. 02 2316 0022 0000:__fprintf (REF 0019: __vfprintf)
          38833D........0048895C243048:
            0. 0F 5A74 0067 0000:__fscanf
            1. 18 C752 00B5 0000:__errx
          4848895C244048896C2438488974:
            0. 12 8AF3 00E3 0000:__err
        4C8BDC4881ECF8000000488B05:
          0. 57 EAEE 0098 0000:__sprintf
        574C8BDC4881ECF0000000488B05:
          0. 00 0000 00B1 0000:__sscanf
      66894C2408:
        4883EC38488B5424480FB74C2440E8........0FB7C0:
          0. 22 8A02 0042 0000:??$_Fputc@G@std@@YA_NGPEAU__sFILE@@@Z
        574881EC80000000C64424200048C744243000000000:
          0. 2C 9DA8 005D 0000:??$_Maklocbyte@G@std@@YADGAEBU_Cvtvec@@@Z
      884C2408:
        4883EC380FBE442440488B5424488BC8E8........83F8:
          0. 1E C557 003E 0000:??$_Fputc@D@std@@YA_NDPEAU__sFILE@@@Z
        8A442408C3:
          0. 00 0000 000E 0000:??$_Maklocbyte@D@std@@YADDAEBU_Cvtvec@@@Z
      894C24084883EC288B4C2430E8........4883C428C3CCCCCCCCCC:
        0. 26 8ED3 0D96 0000:_Tolower 0020:_Getctype 0090:_Toupper 00B0:_Wcscoll 00F0:_Strcoll 0130:_Getcoll 0150:_Wcrtomb 0190:_Getcvt 01B0:_Getdateorder 01C0:_Mbrtowc 0200:_Strxfrm 0250:_Wcsxfrm 02A0:_Getwctype 0350:_Getwctypes 03D0:_Towlower 0400:_Towupper 0430:_Gettnames 09D0:_Getdays 0B90:_Getmonths 0D60:_Strftime
      B888280000E8........482BE08B15........48899C2480280000:
        0. FF 2A49 0451 (l)0000:r_sort_b
      F20F1144240848:
        81EC:
          88000000660F12842490000000F20F114424:
            0. FF B546 02E6 0000:__modf
          A8000000660F128424B0000000F20F118424:
            0. 70 7B69 0DA1 0000:__lgamma_r
          D8000000660F128424E0000000F20F118424:
            0. 7F FF71 072C 0000:__ieee754_rem_pio2
        83EC:
          28:
            488B542438660F12442430E8........48:
              0. 04 E284 0024 0000:__gamma_r
            8B542438660F12442430E8........4883:
              0. 03 53B6 0023 0000:__scalbln
          38660F12442440F20F114424108B44241489:
            0. 5E FDAF 0117 0000:__frexp
      F30F1144240848:
        81EC98000000F30F108424A0000000F30F114424:
          0. 78 A5E1 0691 0000:__ieee754_rem_pio2f
        83EC:
          18F30F10442420F30F114424088B44240889:
            0. 4D 09A7 00E5 0000:__frexpf
          28:
            488B542438F30F10442430E8........48:
              0. 04 E284 0024 0000:__gammaf_r
            8B542438F30F10442430E8........4883:
              0. 03 53B6 0023 0000:__scalblnf
          48F30F10442450F30F1144240C8B44240C89:
            0. FF 2C47 0191 0000:__modff
          78F30F10842480000000F30F114424588B44:
            0. 53 A6A6 0C95 0000:__lgammaf_r
    5C24:
      0848896C2410488974241833DB4533D24D85C048897C24204D8BD848:
        0. FF 8FD8 0380 (l)0000:timesub
      104533D2498BD8440FB60148897C2420488BFA4584C0488BD14D8BDA:
        0. 5B 48E1 007B (l)0000:__hash
      1833DB4885C948897C24204C8BDA4C8BD1498918498BF80F84530100:
        0. 41 E67F 018B 0000:__getsubopt
  8B:
    01:
      448BC233D24D03C04A8B44C008483BC1480F44C2C3:
        0. 00 0000 0018 0000:__ohash_find
      4C8B024C2BC0666690666666900FB608423A0C00750A48FFC084C975F0:
        0. 09 F046 0029 0000:__alphasort
    0424488901C3:
      0. 00 0000 0008 0000:_GetNextInstrOffset
    0D........B824D95B074885C9480F44C848B879FBE31FAF05A74148F7E1:
      0. 21 00FF 004E 0000:__rand
    12:
      4533C0E9:
        0. 00 0000 000B 0000:__fsetpos (REF 0007: fseeko)
      488B09E9:
        0. 00 0000 000B (l)0000:compare_win (REF 0007: __strcasecmp_win)
        1. 00 0000 000B (l)0000:compare (REF 0007: __strcoll)
    4138:
      33C94C6340104D85C0741A4C8B0A0FB652080FB7C142841408750DFF:
        0. 10 E10D 0030 (l)0000:firstch
      4C63481033C04D85C9448BC074254C8B120FB6520866669066666690:
        0. 1A 039C 003A (l)0000:nch
    49684883C108E9:
      0. 00 0000 000D 0000:__flockfile (REF 0009: __pthread_mutex_lock)
      1. 00 0000 000D 0000:__funlockfile (REF 0009: __pthread_mutex_unlock)
    C448:
      81EC:
        18010000:
          488958:
            1048897018488978200FB74112498BF0488BDA:
              0. 11 9485 00CE 0000:__swhatbuf
            18488BD9488D0D........48897820E8:
              0. 00 0000 0152 0000:__findtmpdir
          F6414004488958084889681048897820418BE8488BDA:
            0. 1C 86FB 00F7 (l)0000:fts_safe_changedir (l)00AC:$bail$2164
        280100004889:
          5810488978208B4140A808488BDA7407488D7C24:
            0. 20 C458 01A2 (l)0000:fts_stat (l)0092:$err$2056
          6810488970184C8960F8418BF04C8970E8488BEA:
            0. 3F B7C2 053D 0000:__wcs_regcomp
          701848897820488B394885FF488BF10F847B0400:
            0. 22 F4F7 04A3 0000:__fts_read (l)01CB:$bail$2664 (l)02C0:$next$1898 (l)0370:$name$1897
        3801000048:
          83397E4889681048897018488BF1488BEA0F857E01:
            0. 5E A38E 01A8 (l)0000:globtilde
          89580848897018488978204C8960F84C8970E84C8B:
            0. 2C 32B5 02F2 (l)0000:_gettemp
        48:
          01000048:
            85C9488968F0488970E84C8960D84C8968D0418BE8:
              0. 34 540B 0599 (l)0000:_nftw
            8958084889701848897820488B79484C8960F84C89:
              0. 14 6B29 0404 0000:_fseeko (l)01A1:$dumb$2547 (l)037D:$abspos$2562
          0200004180382F4889580848896810488970184C8960F8488B:
            0. 12 44E0 017D 0000:__getvfsspec
        B8000000488958:
          0848897820488BD94C8960F8488D0D:
            0. 03 E07D 0209 0000:__getpass
          F8488970E8488978E04C8960D84533E44C8968:
            0. 04 A476 04F9 0000:__winwrap
      83EC:
        28837910004C8960F84C8B62584C8BD20F852F01000048896810:
          0. 02 C49D 0155 (l)0000:categorize
        38:
          48895808488968104889701848897820:
            488BF14C8960F84C89:
              0. 3A 1E6D 00F6 0000:__fnmatch
            4C8960F84C8968F04C:
              0. 1D B39A 01C8 (l)0000:p_bre
          660FBA6110084889580848897018488978204C8960F84C8968:
            0. 19 AD58 01A2 0000:_swrite
        4848:
          85D248895808488978204C8960F8498BF9498BD84C8BE20F:
            0. 23 1F84 00E9 0000:__fwrite
          89:
            580848896810:
              488970184C8960F84C8968F04D8BE84C89:
                0. 1D 232C 00FB 0000:__wcsftime (l)00BB:$done$1451
              8B693048897018488978204C8960F84C89:
                0. 71 2A77 013F 0000:__ohash_lookup_interval
            68F04C8968D0FFCA83FA014C8978C04C8BE94D63F8488D:
              0. BD 3E58 00DD (l)0000:simplesort
        58488958084889681048:
          897018:
            488978204C8960F84C8968F04C:
              0. 17 D5A7 0386 (l)0000:_Ofmt (l)006E:$LN18 (l)00BE:$LN17 (l)00D2:$LN16 (l)00DA:$LN15 (l)0102:$LN14 (l)010C:$LN13 (l)0114:$LN12 (l)011B:$LN11 (l)0130:$LN10 (l)0152:$LN9 (l)0181:$LN8 (l)0189:$LN7 (l)01CB:$LN6 (l)02EC:$LN5
            8B7130488978204C8960F84C8B:
              0. 7C C549 012F 0000:__ohash_lookup_memory
          8B6C242048897018488B7424204C8968:
            0. 20 31EC 038D (l)0000:p_ere
        68:
          488958:
            0848896810488978204C8960F84C8968F04533ED4C8B:
              0. 11 383C 0194 0000:__inet_aton
            1048897018488BF248897820488D50B8:
              488BD9498BF8:
                0. 01 3E9B 00C6 0000:__getvfsfile
              498BD8488BF9:
                0. 01 3E9B 01E9 0000:__getvfsany
          493BD0488958F8488970E8488978E0488BBC24980000004C89:
            0. B8 8F32 046D (l)0000:lstep
          83F9094889581848897820488BFA8BD90F84B600000083F917:
            0. 0F 5E41 00FA 0000:__sigset
        78:
          4889580848897018488978204C8960F84C8968F04C8BE933C0:
            0. 2C E044 0330 0000:__path_casesensitive
          85C94889581848897820488BDA0F859B000000E8........C7:
            0. 01 D5A7 025B 0000:__PosixProcessStartup
    D133C9488B4208448BD1483902721F394A107507C7421009000000488D05:
      0. 00 0000 0093 (l)0000:p_count
  8D:
    05........C3:
      CCCCCCCCCCCCCCCC48:
        894C2408833D........007C108B05:
          0. 00 0000 00A7 0000:?_Init_cnt_func@Init@ios_base@std@@CAAEAHXZ 0010:?_Init_ctor@Init@ios_base@std@@CAXPEAV123@@Z 0040:?_Init_dtor@Init@ios_base@std@@CAXPEAV123@@Z
        8D05........C3CCCCCCCCCCCCCCCC:
          0. 03 616D 01BD 0000:?_Fpz_func@std@@YAAEA_JXZ 0010:?_BADOFF_func@std@@YAAEB_JXZ 0020:?_Index_func@ios_base@std@@CAAEAHXZ 0030:?_Sync_func@ios_base@std@@CAAEA_NXZ 0040:?_Ios_base_dtor@ios_base@std@@CAXPEAV12@@Z 00F0:?_Addstd@ios_base@std@@SAXPEAV12@@Z
      ..:
        0. 00 0000 0008 0000:?_Wcout_func@std@@YAAEAV?$basic_ostream@GU?$char_traits@G@std@@@1@XZ (REF 0003: ?wcout@std@@3V?$basic_ostream@GU?$char_traits@G@std@@@1@A)
        1. 00 0000 0008 0000:?_Wclog_func@std@@YAAEAV?$basic_ostream@GU?$char_traits@G@std@@@1@XZ (REF 0003: ?wclog@std@@3V?$basic_ostream@GU?$char_traits@G@std@@@1@A)
        2. 00 0000 0008 0000:?_Wcin_func@std@@YAAEAV?$basic_istream@GU?$char_traits@G@std@@@1@XZ (REF 0003: ?wcin@std@@3V?$basic_istream@GU?$char_traits@G@std@@@1@A)
        3. 00 0000 0008 0000:?_Wcerr_func@std@@YAAEAV?$basic_ostream@GU?$char_traits@G@std@@@1@XZ (REF 0003: ?wcerr@std@@3V?$basic_ostream@GU?$char_traits@G@std@@@1@A)
        4. 00 0000 0008 0000:?_Cout_func@std@@YAAEAV?$basic_ostream@DU?$char_traits@D@std@@@1@XZ (REF 0003: ?cout@std@@3V?$basic_ostream@DU?$char_traits@D@std@@@1@A)
        5. 00 0000 0008 0000:?_Clog_func@std@@YAAEAV?$basic_ostream@DU?$char_traits@D@std@@@1@XZ (REF 0003: ?clog@std@@3V?$basic_ostream@DU?$char_traits@D@std@@@1@A)
        6. 00 0000 0008 0000:?_Cin_func@std@@YAAEAV?$basic_istream@DU?$char_traits@D@std@@@1@XZ (REF 0003: ?cin@std@@3V?$basic_istream@DU?$char_traits@D@std@@@1@A)
        7. 00 0000 0008 0000:?_Cerr_func@std@@YAAEAV?$basic_ostream@DU?$char_traits@D@std@@@1@XZ (REF 0003: ?cerr@std@@3V?$basic_ostream@DU?$char_traits@D@std@@@1@A)
    0D........E9:
      0. 00 0000 000C 0000:__getwchar (REF 0008: __fgetwc)
      1. 00 0000 000C 0000:__getchar_unlocked (REF 0008: __getc_unlocked)
      2. 00 0000 000C 0000:__getchar (REF 0008: __getc)
      3. 00 0000 000C 0000:_cleanup (REF 0003: __sflush)
    15........:
      B964000000E9:
        0. 00 0000 0011 0000:_isctype
      E9:
        0. 00 0000 000C 0000:__putchar_unlocked (REF 0008: __putc_unlocked)
        1. 00 0000 000C 0000:__putwchar (REF 0008: __fputwc)
        2. 00 0000 000C 0000:__putchar (REF 0008: __fputc)
49:
  833800742D666666906666906666900FB6014C8B0A48FFC1418801488B0280:
    0. 1C 30B2 003C (l)0000:_add
  8B004C8BD24C8BC9488BD04883E2F8A8047411498B4808498B40104903C948:
    0. 2F 264D 0053 0000:__GSHandlerCheckCommon
4C:
  63C2488B01493BC0740A4883C1084885C075EFC3488BC1C3:
    0. 00 0000 0019 (l)0000:g_strchr
  89:
    442418:
      48:
        83EC:
          580FBA61080848895C245048896C2448488974244048897C:
            0. 1F 49DD 062B (l)0000:ldissect (REF 0206: lslow)
            1. 1F 49DD 062B (l)0000:sdissect (REF 0206: sslow)
          68F7C280FFFFFF48899C248800000048896C246048897C24:
            0. 0C 544C 03B8 0000:__fts_open (l)031F:$mem3$1822 (l)0340:$mem2$1816 (l)0349:$mem1$1812
        89:
          4C2408:
            4883EC5848895C245048896C2448488974244048897C:
              0. 31 16C1 090D (l)0000:lbackref (08BB: C3)
            B878200000E8........482BE048899C249820000048:
              0. 42 1552 05C8 (l)0000:glob0
          542410:
            48894C2408:
              48:
                81EC88000000488B8C24A0000000E8:
                  0. 00 0000 014D 0000:??$pow@N@std@@YA?AV?$complex@N@0@AEBNAEBV10@@Z (REF 001F: ??$imag@N@std@@YANAEBV?$complex@N@0@@Z)
                  1. 00 0000 014D 0000:??$pow@O@std@@YA?AV?$complex@O@0@AEBOAEBV10@@Z (REF 001F: ??$imag@O@std@@YAOAEBV?$complex@O@0@@Z)
                83:
                  7C241800750433C0EB:
                    76488B442410:
                      0. 72 6593 0092 0000:__strncmp
                    79488B442410:
                      0. 75 108E 0095 0000:__wcsncmp
                  EC:
                    18:
                      48:
                        837C243000:
                          0F84:
                            8000000048:
                              0. 86 825A 00A6 0000:__memcmp
                            8500000048:
                              0. 8E 1310 00AE 0000:__wcsncat
                            8800000048:
                              0. 91 B8FF 00B1 0000:__strncpy
                            8E00000048:
                              0. 97 8233 00B7 0000:__wcsncpy
                          747F488B442420:
                            0. 84 9E9F 00A4 0000:__strncat
                          750433C0EB5948:
                            0. 5D 4087 007D 0000:__bcmp
                        C7042400000000EB:
                          0D488B44:
                            0. 44 C292 0064 0000:?do_hash@?$collate@D@std@@MEBA_JPEBD0@Z
                          0E488B44:
                            0. 44 5769 0064 0000:?do_hash@?$collate@G@std@@MEBA_JPEBG0@Z
                      EB29488B4424204883C0024889:
                        0. 6C 36BE 008C 0000:?wmemcmp@@YAHPEBG0_K@Z
                    28:
                      41B1014C8B442440488B542438:
                        0. 06 8225 0043 0000:??0?$moneypunct@D$00@std@@QEAA@AEBV_Locinfo@1@_K@Z (REF 0026: ??0?$_Mpunct@D@std@@QEAA@AEBV_Locinfo@1@_K_N@Z)
                        1. 06 8225 0043 0000:??0?$moneypunct@G$00@std@@QEAA@AEBV_Locinfo@1@_K@Z (REF 0026: ??0?$_Mpunct@G@std@@QEAA@AEBV_Locinfo@1@_K_N@Z)
                      4533C94C8B442440488B542438:
                        0. 06 8225 0043 0000:??0?$moneypunct@D$0A@@std@@QEAA@AEBV_Locinfo@1@_K@Z (REF 0026: ??0?$_Mpunct@D@std@@QEAA@AEBV_Locinfo@1@_K_N@Z)
                        1. 06 8225 0043 0000:??0?$moneypunct@G$0A@@std@@QEAA@AEBV_Locinfo@1@_K@Z (REF 0026: ??0?$_Mpunct@G@std@@QEAA@AEBV_Locinfo@1@_K_N@Z)
                      48:
                        837C24:
                          3000751C488B442440:
                            0. FF 0205 013D 0000:__wcstok_xpg5 (l)0037:$cont$1443
                            1. FF 82CA 0133 0000:__strtok_r (l)0037:$cont$641
                          40000F84B700000048:
                            0. 02 5E64 00DD 0000:__strncasecmp_win
                        8B:
                          4424:
                            3048:
                              89:
                                0424488B4424:
                                  0. FF 457E 0341 0000:__memmove (l)0337:$done$654 (0221: C3)
                                442410488B44:
                                  0. BC 7086 00DC 0000:__strlcpy
                                  1. C5 B84E 00E5 0000:__wcslcpy
                              8B004C8B:
                                442440:
                                  0. 12 7331 0032 0000:?sputn@?$basic_streambuf@GU?$char_traits@G@std@@@std@@QEAA_JPEBG_J@Z
                                4C2440:
                                  0. 19 AF12 0039 0000:?xsgetn@?$basic_streambuf@GU?$char_traits@G@std@@@std@@MEAA_JPEAG_J@Z
                            3848890424488B4424:
                              0. FF 6189 033C 0000:__bcopy (l)0337:$done$549
                          4C24:
                            30E8........48837C:
                              0. 13 260D 007A 0000:??0?$_String_const_iterator@GU?$char_traits@G@std@@V?$allocator@G@2@@std@@QEAA@PEBGPEBU_Container_base@1@@Z
                              1. 13 9367 0076 0000:??0?$_String_const_iterator@DU?$char_traits@D@std@@V?$allocator@D@2@@std@@QEAA@PEBDPEBU_Container_base@1@@Z
                            38E8........4883C4:
                              0. 02 2316 0022 0000:?deallocate@?$allocator@D@std@@QEAAXPEAD_K@Z
                          542438488B4C2430E8:
                            0. 00 0000 00AE 0000:?assign@?$basic_string@DU?$char_traits@D@std@@V?$allocator@D@2@@std@@QEAAAEAV12@PEBD_K@Z (008D: C3)
                            1. 00 0000 00B1 0000:?assign@?$basic_string@GU?$char_traits@G@std@@V?$allocator@G@2@@std@@QEAAAEAV12@PEBG_K@Z (008D: 83)
                      4C8B442440488B542438488B4C:
                        0. 03 727B 002C 0000:?_Addfac@_Locimp@locale@std@@AEAAXPEAVfacet@23@_K@Z (0008: C3) (REF 0023: ?_Locimp_Addfac@_Locimp@locale@std@@CAXPEAV123@PEAVfacet@23@_K@Z)
                        1. 03 727B 002C 0000:?compare@?$char_traits@G@std@@SAHPEBG0_K@Z (0008: C3) (REF 0023: ?wmemcmp@@YAHPEBG0_K@Z)
                        2. 03 727B 002C 0000:?compare@?$char_traits@D@std@@SAHPEBD0_K@Z (0008: C3) (REF 0023: memcmp)
                        3. 03 727B 0031 0000:??0?$_String_iterator@GU?$char_traits@G@std@@V?$allocator@G@2@@std@@QEAA@PEAGPEBU_Container_base@1@@Z (0008: 30) (REF 0023: ??0?$_String_const_iterator@GU?$char_traits@G@std@@V?$allocator@G@2@@std@@QEAA@PEBGPEBU_Container_base@1@@Z)
                        4. 03 727B 0031 0000:??0?$_String_iterator@DU?$char_traits@D@std@@V?$allocator@D@2@@std@@QEAA@PEADPEBU_Container_base@1@@Z (0008: 30) (REF 0023: ??0?$_String_const_iterator@DU?$char_traits@D@std@@V?$allocator@D@2@@std@@QEAA@PEBDPEBU_Container_base@1@@Z)
                        5. 03 727B 0031 0000:??0?$complex@N@std@@QEAA@AEBN0@Z (0008: 30) (REF 0023: ??0?$_Complex_base@NU_C_double_complex@@@std@@QEAA@AEBN0@Z)
                        6. 03 727B 0031 0000:??0?$complex@O@std@@QEAA@AEBO0@Z (0008: 30) (REF 0023: ??0?$_Complex_base@OU_C_ldouble_complex@@@std@@QEAA@AEBO0@Z)
                        7. 03 727B 0031 0000:??0?$complex@M@std@@QEAA@AEBM0@Z (0008: 30) (REF 0023: ??0?$_Complex_base@MU_C_float_complex@@@std@@QEAA@AEBM0@Z)
                      EB:
                        0D488B44243848FFC0488944:
                          0. 23 6C1A 005A 0000:?do_tolower@?$ctype@D@std@@MEBAPEBDPEADPEBD@Z (REF 0043: _Tolower)
                          1. 23 6C1A 005A 0000:?do_toupper@?$ctype@D@std@@MEBAPEBDPEADPEBD@Z (REF 0043: _Toupper)
                        0E488B4424384883C0024889:
                          0. 24 36BA 005C 0000:?do_tolower@?$ctype@G@std@@MEBAPEBGPEAGPEBG@Z (REF 0044: _Towlower)
                          1. 24 36BA 005C 0000:?do_toupper@?$ctype@G@std@@MEBAPEBGPEAGPEBG@Z (REF 0044: _Towupper)
                    38:
                      0F57C0F30F114424284C8D4424:
                        0. 0C 496C 0054 0000:??$?HM@std@@YA?AV?$complex@M@0@AEBMAEBV10@@Z (REF 003B: ??Y?$complex@M@std@@QEAAAEAV01@AEBV01@@Z)
                        1. 0C 496C 0054 0000:??$?GM@std@@YA?AV?$complex@M@0@AEBMAEBV10@@Z (REF 003B: ??Z?$complex@M@std@@QEAAAEAV01@AEBV01@@Z)
                        2. 0C 496C 0054 0000:??$?DM@std@@YA?AV?$complex@M@0@AEBMAEBV10@@Z (REF 003B: ??X?$complex@M@std@@QEAAAEAV01@AEBV01@@Z)
                        3. 0C 496C 0054 0000:??$?KM@std@@YA?AV?$complex@M@0@AEBMAEBV10@@Z (REF 003B: ??_0?$complex@M@std@@QEAAAEAV01@AEBV01@@Z)
                      48:
                        837C2440007402EB05E8:
                          0. 00 0000 028B 0000:?__StateFromIp@@YAHPEBU_s_FuncInfo@@PEAU_xDISPATCHER_CONTEXT@@_J@Z 00F0:?__StateFromControlPc@@YAHPEBU_s_FuncInfo@@PEAU_xDISPATCHER_CONTEXT@@@Z 0120:?__GetCurrentState@@YAHPEA_KPEAU_xDISPATCHER_CONTEXT@@PEBU_s_FuncInfo@@@Z 0180:?__SetState@@YAXPEA_KPEAU_xDISPATCHER_CONTEXT@@PEBU_s_FuncInfo@@H@Z 01C0:?__SetUnwindTryBlock@@YAXPEA_KPEAU_xDISPATCHER_CONTEXT@@PEBU_s_FuncInfo@@H@Z 0240:?__GetUnwindTryBlock@@YAHPEA_KPEAU_xDISPATCHER_CONTEXT@@PEBU_s_FuncInfo@@@Z
                        8B:
                          4424:
                            404883B8D800000000:
                              0. 40 EE7D 0094 0000:?setbuf@?$basic_filebuf@DU?$char_traits@D@std@@@std@@MEAAPEAV?$basic_streambuf@DU?$char_traits@D@std@@@2@PEAD_J@Z
                              1. 46 F376 009A 0000:?setbuf@?$basic_filebuf@GU?$char_traits@G@std@@@std@@MEAAPEAV?$basic_streambuf@GU?$char_traits@G@std@@@2@PEAG_J@Z
                            48488B004889442420:
                              0. 0B 3A49 0044 0000:??$?HM@std@@YA?AV?$complex@M@0@AEBV10@0@Z (REF 002B: ??Y?$complex@M@std@@QEAAAEAV01@AEBV01@@Z)
                              1. 0B 3A49 0044 0000:??$?KM@std@@YA?AV?$complex@M@0@AEBV10@0@Z (REF 002B: ??_0?$complex@M@std@@QEAAAEAV01@AEBV01@@Z)
                              2. 0B 3A49 0044 0000:??$?GM@std@@YA?AV?$complex@M@0@AEBV10@0@Z (REF 002B: ??Z?$complex@M@std@@QEAAAEAV01@AEBV01@@Z)
                              3. 0B 3A49 0044 0000:??$?DM@std@@YA?AV?$complex@M@0@AEBV10@0@Z (REF 002B: ??X?$complex@M@std@@QEAAAEAV01@AEBV01@@Z)
                              4. 06 8B8B 005F 0000:??$?HM@std@@YA?AV?$complex@M@0@AEBV10@AEBM@Z (000B: 58)
                              5. 06 8B8B 0087 0000:??$?DM@std@@YA?AV?$complex@M@0@AEBV10@AEBM@Z (000B: 59)
                              6. 06 8B8B 005F 0000:??$?GM@std@@YA?AV?$complex@M@0@AEBV10@AEBM@Z (000B: 5C)
                              7. 06 8B8B 0087 0000:??$?KM@std@@YA?AV?$complex@M@0@AEBV10@AEBM@Z (000B: 5E)
                            50:
                              660F1200E8:
                                0. 00 0000 007B 0000:??$polar@N@std@@YA?AV?$complex@N@0@AEBN0@Z (REF 001D: ?sin@?$_Ctraits@N@std@@SANN@Z)
                                1. 00 0000 007B 0000:??$polar@O@std@@YA?AV?$complex@O@0@AEBO0@Z (REF 001D: ?sin@?$_Ctraits@O@std@@SAOO@Z)
                              F30F1000E8:
                                0. 00 0000 0079 0000:??$polar@M@std@@YA?AV?$complex@M@0@AEBM0@Z
                          542448488B4C2440E8:
                            0. 00 0000 012A 0000:?append@?$basic_string@DU?$char_traits@D@std@@V?$allocator@D@2@@std@@QEAAAEAV12@PEBD_K@Z (0105: 48)
                            1. 00 0000 012D 0000:?append@?$basic_string@DU?$char_traits@D@std@@V?$allocator@D@2@@std@@QEAAAEAV12@PEBD_K@Z (0105: 44)
                            2. 00 0000 0134 0000:?append@?$basic_string@GU?$char_traits@G@std@@V?$allocator@G@2@@std@@QEAAAEAV12@PEBG_K@Z (0105: E8)
                        8D4424204889442428488B4C:
                          0. 03 2320 0061 0000:??0?$basic_string@DU?$char_traits@D@std@@V?$allocator@D@2@@std@@QEAA@PEBD_K@Z (REF 0023: ??0?$allocator@D@std@@QEAA@XZ)
                          1. 03 2320 0061 0000:??0?$basic_string@GU?$char_traits@G@std@@V?$allocator@G@2@@std@@QEAA@PEBG_K@Z (REF 0023: ??0?$allocator@G@std@@QEAA@XZ)
                        C7442420FEFFFFFF488B5424:
                          0. 07 76DC 00AC 0000:??0?$time_put@GV?$ostreambuf_iterator@GU?$char_traits@G@std@@@std@@@std@@QEAA@AEBV_Locinfo@1@_K@Z (l)0070:?dtor$0@?0???0?$time_put@GV?$ostreambuf_iterator@GU?$char_traits@G@std@@@std@@@std@@QEAA@AEBV_Locinfo@1@_K@Z@4HA (l)0090:?dtor$1@?0???0?$time_put@GV?$ostreambuf_iterator@GU?$char_traits@G@std@@@std@@@std@@QEAA@AEBV_Locinfo@1@_K@Z@4HA (0050: 8B) (REF 0034: ??_7?$time_put@GV?$ostreambuf_iterator@GU?$char_traits@G@std@@@std@@@std@@6B@)
                          1. 07 76DC 00AC 0000:??0?$time_put@DV?$ostreambuf_iterator@DU?$char_traits@D@std@@@std@@@std@@QEAA@AEBV_Locinfo@1@_K@Z (l)0070:?dtor$0@?0???0?$time_put@DV?$ostreambuf_iterator@DU?$char_traits@D@std@@@std@@@std@@QEAA@AEBV_Locinfo@1@_K@Z@4HA (l)0090:?dtor$1@?0???0?$time_put@DV?$ostreambuf_iterator@DU?$char_traits@D@std@@@std@@@std@@QEAA@AEBV_Locinfo@1@_K@Z@4HA (0050: 8B) (REF 0034: ??_7?$time_put@DV?$ostreambuf_iterator@DU?$char_traits@D@std@@@std@@@std@@6B@)
                          2. 07 76DC 0078 0000:??0?$money_get@DV?$istreambuf_iterator@DU?$char_traits@D@std@@@std@@@std@@QEAA@AEBV_Locinfo@1@_K@Z (l)0060:?dtor$0@?0???0?$money_get@DV?$istreambuf_iterator@DU?$char_traits@D@std@@@std@@@std@@QEAA@AEBV_Locinfo@1@_K@Z@4HA (0050: C3) (REF 0034: ??_7?$money_get@DV?$istreambuf_iterator@DU?$char_traits@D@std@@@std@@@std@@6B@)
                          3. 07 76DC 0078 0000:??0?$money_put@DV?$ostreambuf_iterator@DU?$char_traits@D@std@@@std@@@std@@QEAA@AEBV_Locinfo@1@_K@Z (l)0060:?dtor$0@?0???0?$money_put@DV?$ostreambuf_iterator@DU?$char_traits@D@std@@@std@@@std@@QEAA@AEBV_Locinfo@1@_K@Z@4HA (0050: C3) (REF 0034: ??_7?$money_put@DV?$ostreambuf_iterator@DU?$char_traits@D@std@@@std@@@std@@6B@)
                          4. 07 76DC 0078 0000:??0?$time_get@DV?$istreambuf_iterator@DU?$char_traits@D@std@@@std@@@std@@QEAA@AEBV_Locinfo@1@_K@Z (l)0060:?dtor$0@?0???0?$time_get@DV?$istreambuf_iterator@DU?$char_traits@D@std@@@std@@@std@@QEAA@AEBV_Locinfo@1@_K@Z@4HA (0050: C3) (REF 0034: ??_7?$time_get@DV?$istreambuf_iterator@DU?$char_traits@D@std@@@std@@@std@@6B@)
                          5. 07 76DC 0078 0000:??0?$ctype@D@std@@QEAA@AEBV_Locinfo@1@_K@Z (l)0060:?dtor$0@?0???0?$ctype@D@std@@QEAA@AEBV_Locinfo@1@_K@Z@4HA (0050: C3) (REF 0034: ??_7?$ctype@D@std@@6B@)
                          6. 07 76DC 0078 0000:??0?$num_get@DV?$istreambuf_iterator@DU?$char_traits@D@std@@@std@@@std@@QEAA@AEBV_Locinfo@1@_K@Z (l)0060:?dtor$0@?0???0?$num_get@DV?$istreambuf_iterator@DU?$char_traits@D@std@@@std@@@std@@QEAA@AEBV_Locinfo@1@_K@Z@4HA (0050: C3) (REF 0034: ??_7?$num_get@DV?$istreambuf_iterator@DU?$char_traits@D@std@@@std@@@std@@6B@)
                          7. 07 76DC 0078 0000:??0?$num_put@DV?$ostreambuf_iterator@DU?$char_traits@D@std@@@std@@@std@@QEAA@AEBV_Locinfo@1@_K@Z (l)0060:?dtor$0@?0???0?$num_put@DV?$ostreambuf_iterator@DU?$char_traits@D@std@@@std@@@std@@QEAA@AEBV_Locinfo@1@_K@Z@4HA (0050: C3) (REF 0034: ??_7?$num_put@DV?$ostreambuf_iterator@DU?$char_traits@D@std@@@std@@@std@@6B@)
                          8. 07 76DC 0078 0000:??0?$numpunct@D@std@@QEAA@AEBV_Locinfo@1@_K@Z (l)0060:?dtor$0@?0???0?$numpunct@D@std@@QEAA@AEBV_Locinfo@1@_K@Z@4HA (0050: C3) (REF 0034: ??_7?$numpunct@D@std@@6B@)
                          9. 07 76DC 0078 0000:??0?$codecvt@DDU__mbstate_t@@@std@@QEAA@AEBV_Locinfo@1@_K@Z (l)0060:?dtor$0@?0???0?$codecvt@DDU__mbstate_t@@@std@@QEAA@AEBV_Locinfo@1@_K@Z@4HA (0050: C3) (REF 0034: ??_7?$codecvt@DDU__mbstate_t@@@std@@6B@)
                          10. 07 76DC 0078 0000:??0?$codecvt@GDU__mbstate_t@@@std@@QEAA@AEBV_Locinfo@1@_K@Z (l)0060:?dtor$0@?0???0?$codecvt@GDU__mbstate_t@@@std@@QEAA@AEBV_Locinfo@1@_K@Z@4HA (0050: C3) (REF 0034: ??_7?$codecvt@GDU__mbstate_t@@@std@@6B@)
                          11. 07 76DC 0078 0000:??0?$ctype@G@std@@QEAA@AEBV_Locinfo@1@_K@Z (l)0060:?dtor$0@?0???0?$ctype@G@std@@QEAA@AEBV_Locinfo@1@_K@Z@4HA (0050: C3) (REF 0034: ??_7?$ctype@G@std@@6B@)
                          12. 07 76DC 0078 0000:??0?$num_get@GV?$istreambuf_iterator@GU?$char_traits@G@std@@@std@@@std@@QEAA@AEBV_Locinfo@1@_K@Z (l)0060:?dtor$0@?0???0?$num_get@GV?$istreambuf_iterator@GU?$char_traits@G@std@@@std@@@std@@QEAA@AEBV_Locinfo@1@_K@Z@4HA (0050: C3) (REF 0034: ??_7?$num_get@GV?$istreambuf_iterator@GU?$char_traits@G@std@@@std@@@std@@6B@)
                          13. 07 76DC 0078 0000:??0?$num_put@GV?$ostreambuf_iterator@GU?$char_traits@G@std@@@std@@@std@@QEAA@AEBV_Locinfo@1@_K@Z (l)0060:?dtor$0@?0???0?$num_put@GV?$ostreambuf_iterator@GU?$char_traits@G@std@@@std@@@std@@QEAA@AEBV_Locinfo@1@_K@Z@4HA (0050: C3) (REF 0034: ??_7?$num_put@GV?$ostreambuf_iterator@GU?$char_traits@G@std@@@std@@@std@@6B@)
                          14. 07 76DC 0078 0000:??0?$numpunct@G@std@@QEAA@AEBV_Locinfo@1@_K@Z (l)0060:?dtor$0@?0???0?$numpunct@G@std@@QEAA@AEBV_Locinfo@1@_K@Z@4HA (0050: C3) (REF 0034: ??_7?$numpunct@G@std@@6B@)
                          15. 07 76DC 0078 0000:??0?$collate@G@std@@QEAA@AEBV_Locinfo@1@_K@Z (l)0060:?dtor$0@?0???0?$collate@G@std@@QEAA@AEBV_Locinfo@1@_K@Z@4HA (0050: C3) (REF 0034: ??_7?$collate@G@std@@6B@)
                          16. 07 76DC 0078 0000:??0?$messages@G@std@@QEAA@AEBV_Locinfo@1@_K@Z (l)0060:?dtor$0@?0???0?$messages@G@std@@QEAA@AEBV_Locinfo@1@_K@Z@4HA (0050: C3) (REF 0034: ??_7?$messages@G@std@@6B@)
                          17. 07 76DC 0078 0000:??0?$money_get@GV?$istreambuf_iterator@GU?$char_traits@G@std@@@std@@@std@@QEAA@AEBV_Locinfo@1@_K@Z (l)0060:?dtor$0@?0???0?$money_get@GV?$istreambuf_iterator@GU?$char_traits@G@std@@@std@@@std@@QEAA@AEBV_Locinfo@1@_K@Z@4HA (0050: C3) (REF 0034: ??_7?$money_get@GV?$istreambuf_iterator@GU?$char_traits@G@std@@@std@@@std@@6B@)
                          18. 07 76DC 0078 0000:??0?$money_put@GV?$ostreambuf_iterator@GU?$char_traits@G@std@@@std@@@std@@QEAA@AEBV_Locinfo@1@_K@Z (l)0060:?dtor$0@?0???0?$money_put@GV?$ostreambuf_iterator@GU?$char_traits@G@std@@@std@@@std@@QEAA@AEBV_Locinfo@1@_K@Z@4HA (0050: C3) (REF 0034: ??_7?$money_put@GV?$ostreambuf_iterator@GU?$char_traits@G@std@@@std@@@std@@6B@)
                          19. 07 76DC 0078 0000:??0?$time_get@GV?$istreambuf_iterator@GU?$char_traits@G@std@@@std@@@std@@QEAA@AEBV_Locinfo@1@_K@Z (l)0060:?dtor$0@?0???0?$time_get@GV?$istreambuf_iterator@GU?$char_traits@G@std@@@std@@@std@@QEAA@AEBV_Locinfo@1@_K@Z@4HA (0050: C3) (REF 0034: ??_7?$time_get@GV?$istreambuf_iterator@GU?$char_traits@G@std@@@std@@@std@@6B@)
                          20. 07 76DC 0078 0000:??0?$messages@D@std@@QEAA@AEBV_Locinfo@1@_K@Z (l)0060:?dtor$0@?0???0?$messages@D@std@@QEAA@AEBV_Locinfo@1@_K@Z@4HA (0050: C3) (REF 0034: ??_7?$messages@D@std@@6B@)
                          21. 07 76DC 0078 0000:??0?$collate@D@std@@QEAA@AEBV_Locinfo@1@_K@Z (l)0060:?dtor$0@?0???0?$collate@D@std@@QEAA@AEBV_Locinfo@1@_K@Z@4HA (0050: C3) (REF 0034: ??_7?$collate@D@std@@6B@)
                    4848:
                      837C2460000F84:
                        AA00000048:
                          0. 02 5E64 00D0 0000:__strncasecmp
                        F800000048:
                          0. 24 3306 011E (l)0000:locncasecmp
                      8B:
                        44245048:
                          89442438488B44:
                            0. 7F 950A 012C 0000:__wcslcat
                            1. 7B C08A 0120 0000:__strlcat
                          8B4C2458483948:
                            0. 04 E5A0 010A 0000:?erase@?$basic_string@DU?$char_traits@D@std@@V?$allocator@D@2@@std@@QEAAAEAV12@_K0@Z (00E3: C4)
                            1. 04 E5A0 0116 0000:?erase@?$basic_string@GU?$char_traits@G@std@@V?$allocator@G@2@@std@@QEAAAEAV12@_K0@Z (00E3: E8)
                        4C24:
                          50E8........48FFC0:
                            0. 0B 18D4 0094 0000:??$_Maklocstr@D@std@@YAPEADPEBDPEADAEBU_Cvtvec@@@Z
                          58E8........0F2E05:
                            0. 00 0000 00B7 0000:??$pow@M@std@@YA?AV?$complex@M@0@AEBV10@AEBM@Z
                          60E8........0F2E05:
                            0. 00 0000 00E0 0000:??$pow@M@std@@YA?AV?$complex@M@0@AEBV10@0@Z
                      C74424:
                        30FEFFFFFFC7442428:
                          0. 13 BED3 00B8 0000:?pubimbue@?$basic_streambuf@GU?$char_traits@G@std@@@std@@QEAA?AVlocale@2@AEBV32@@Z (l)00A0:?dtor$0@?0??pubimbue@?$basic_streambuf@GU?$char_traits@G@std@@@std@@QEAA?AVlocale@2@AEBV32@@Z@4HA (0084: C3)
                          1. 13 D16E 00A8 0000:?imbue@ios_base@std@@QEAA?AVlocale@2@AEBV32@@Z (l)0090:?dtor$0@?0??imbue@ios_base@std@@QEAA?AVlocale@2@AEBV32@@Z@4HA
                        38FEFFFFFFC7442430:
                          0. 14 73A1 00B8 0000:?imbue@?$basic_ios@GU?$char_traits@G@std@@@std@@QEAA?AVlocale@2@AEBV32@@Z (l)00A0:?dtor$0@?0??imbue@?$basic_ios@GU?$char_traits@G@std@@@std@@QEAA?AVlocale@2@AEBV32@@Z@4HA (REF 003F: ?rdbuf@?$basic_ios@GU?$char_traits@G@std@@@std@@QEBAPEAV?$basic_streambuf@GU?$char_traits@G@std@@@2@XZ)
                          1. 14 73A1 00B8 0000:?imbue@?$basic_ios@DU?$char_traits@D@std@@@std@@QEAA?AVlocale@2@AEBV32@@Z (l)00A0:?dtor$0@?0??imbue@?$basic_ios@DU?$char_traits@D@std@@@std@@QEAA?AVlocale@2@AEBV32@@Z@4HA (REF 003F: ?rdbuf@?$basic_ios@DU?$char_traits@D@std@@@std@@QEBAPEAV?$basic_streambuf@DU?$char_traits@D@std@@@2@XZ)
                    5848:
                      837C246000741248837C2468:
                        0. 25 4013 0163 0000:strcpy_s
                      8B:
                        05........488944244848:
                          0. 30 BD8D 011C 0000:__wcsncasecmp
                        4C24:
                          68E8........660F2E:
                            0. 01 D5A7 00BA 0000:??$pow@N@std@@YA?AV?$complex@N@0@AEBV10@AEBN@Z (REF 0019: ??$imag@N@std@@YANAEBV?$complex@N@0@@Z)
                            1. 01 D5A7 00BA 0000:??$pow@O@std@@YA?AV?$complex@O@0@AEBV10@AEBO@Z (REF 0019: ??$imag@O@std@@YAOAEBV?$complex@O@0@@Z)
                          70E8........0F2E05:
                            0. 00 0000 0118 0000:??$pow@M@std@@YA?AV?$complex@M@0@AEBMAEBV10@@Z
                      C74424200000000048837C24:
                        0. 0E BFC2 0158 0000:?xsputn@?$basic_streambuf@GU?$char_traits@G@std@@@std@@MEAA_JPEBG_J@Z
                        1. 0E F19A 0156 0000:?xsputn@?$basic_streambuf@DU?$char_traits@D@std@@@std@@MEAA_JPEBD_J@Z
                    6848C7442430FEFFFFFF488B4424:
                      0. 10 3E80 0205 0000:?_Copy@?$basic_string@GU?$char_traits@G@std@@V?$allocator@G@2@@std@@IEAAX_K0@Z (l)00FE:$LN16 (l)0180:?catch$1@?0??_Copy@?$basic_string@GU?$char_traits@G@std@@V?$allocator@G@2@@std@@IEAAX_K0@Z@4HA (l)018D:__catch$?_Copy@?$basic_string@GU?$char_traits@G@std@@V?$allocator@G@2@@std@@IEAAX_K0@Z$0 (l)01B4:$LN14 (l)01D0:?catch$0@?0??_Copy@?$basic_string@GU?$char_traits@G@std@@V?$allocator@G@2@@std@@IEAAX_K0@Z@4HA (l)01DD:__catch$?_Copy@?$basic_string@GU?$char_traits@G@std@@V?$allocator@G@2@@std@@IEAAX_K0@Z$1
                      1. 10 D28A 0205 0000:?_Copy@?$basic_string@DU?$char_traits@D@std@@V?$allocator@D@2@@std@@IEAAX_K0@Z (l)00FE:$LN16 (l)0180:?catch$1@?0??_Copy@?$basic_string@DU?$char_traits@D@std@@V?$allocator@D@2@@std@@IEAAX_K0@Z@4HA (l)018D:__catch$?_Copy@?$basic_string@DU?$char_traits@D@std@@V?$allocator@D@2@@std@@IEAAX_K0@Z$0 (l)01B4:$LN14 (l)01D0:?catch$0@?0??_Copy@?$basic_string@DU?$char_traits@D@std@@V?$allocator@D@2@@std@@IEAAX_K0@Z@4HA (l)01DD:__catch$?_Copy@?$basic_string@DU?$char_traits@D@std@@V?$allocator@D@2@@std@@IEAAX_K0@Z$1
                    7848C7442450FEFFFFFFC7442448:
                      0. 12 06D6 00D9 0000:??$?HDU?$char_traits@D@std@@V?$allocator@D@1@@std@@YA?AV?$basic_string@DU?$char_traits@D@std@@V?$allocator@D@2@@0@PEBDAEBV10@@Z (l)0090:?dtor$0@?0???$?HDU?$char_traits@D@std@@V?$allocator@D@1@@std@@YA?AV?$basic_string@DU?$char_traits@D@std@@V?$allocator@D@2@@0@PEBDAEBV10@@Z@4HA (l)00B0:?dtor$1@?0???$?HDU?$char_traits@D@std@@V?$allocator@D@1@@std@@YA?AV?$basic_string@DU?$char_traits@D@std@@V?$allocator@D@2@@0@PEBDAEBV10@@Z@4HA (REF 0032: ??0?$basic_string@DU?$char_traits@D@std@@V?$allocator@D@2@@std@@QEAA@PEBD@Z)
                      1. 12 06D6 00D9 0000:??$?HGU?$char_traits@G@std@@V?$allocator@G@1@@std@@YA?AV?$basic_string@GU?$char_traits@G@std@@V?$allocator@G@2@@0@PEBGAEBV10@@Z (l)0090:?dtor$0@?0???$?HGU?$char_traits@G@std@@V?$allocator@G@1@@std@@YA?AV?$basic_string@GU?$char_traits@G@std@@V?$allocator@G@2@@0@PEBGAEBV10@@Z@4HA (l)00B0:?dtor$1@?0???$?HGU?$char_traits@G@std@@V?$allocator@G@1@@std@@YA?AV?$basic_string@GU?$char_traits@G@std@@V?$allocator@G@2@@0@PEBGAEBV10@@Z@4HA (REF 0032: ??0?$basic_string@GU?$char_traits@G@std@@V?$allocator@G@2@@std@@QEAA@PEBG@Z)
                      2. 12 06D6 00D9 0000:??$?HGU?$char_traits@G@std@@V?$allocator@G@1@@std@@YA?AV?$basic_string@GU?$char_traits@G@std@@V?$allocator@G@2@@0@AEBV10@PEBG@Z (l)0090:?dtor$0@?0???$?HGU?$char_traits@G@std@@V?$allocator@G@1@@std@@YA?AV?$basic_string@GU?$char_traits@G@std@@V?$allocator@G@2@@0@AEBV10@PEBG@Z@4HA (l)00B0:?dtor$1@?0???$?HGU?$char_traits@G@std@@V?$allocator@G@1@@std@@YA?AV?$basic_string@GU?$char_traits@G@std@@V?$allocator@G@2@@0@AEBV10@PEBG@Z@4HA (REF 0032: ??0?$basic_string@GU?$char_traits@G@std@@V?$allocator@G@2@@std@@QEAA@AEBV01@@Z)
                      3. 12 06D6 00D9 0000:??$?HDU?$char_traits@D@std@@V?$allocator@D@1@@std@@YA?AV?$basic_string@DU?$char_traits@D@std@@V?$allocator@D@2@@0@AEBV10@PEBD@Z (l)0090:?dtor$0@?0???$?HDU?$char_traits@D@std@@V?$allocator@D@1@@std@@YA?AV?$basic_string@DU?$char_traits@D@std@@V?$allocator@D@2@@0@AEBV10@PEBD@Z@4HA (l)00B0:?dtor$1@?0???$?HDU?$char_traits@D@std@@V?$allocator@D@1@@std@@YA?AV?$basic_string@DU?$char_traits@D@std@@V?$allocator@D@2@@0@AEBV10@PEBD@Z@4HA (REF 0032: ??0?$basic_string@DU?$char_traits@D@std@@V?$allocator@D@2@@std@@QEAA@AEBV01@@Z)
                8B442408:
                  488B:
                    4028488B4C2410488908:
                      0. 2D 3310 004D 0000:?setp@?$basic_streambuf@DU?$char_traits@D@std@@@std@@IEAAXPEAD0@Z
                      1. 30 7EB8 0050 0000:?setp@?$basic_streambuf@GU?$char_traits@G@std@@@std@@IEAAXPEAG0@Z
                    4C2410:
                      488908488B4424:
                        0. 10 FFEC 0030 0000:??0_Fac_node@std@@QEAA@PEAU01@PEAVfacet@locale@1@@Z
                      660F1201F20F11:
                        0. 1A 2F87 003A (!)0000:?
                      F30F1001F30F11:
                        0. 1A 7C95 003A 0000:??0?$_Complex_base@MU_C_float_complex@@@std@@QEAA@AEBM0@Z
                  C3:
                    0. 00 0000 0015 (!)0000:?
              56574883EC:
                58:
                  48:
                    8B44247048C700000000:
                      0. 48 27C1 0068 0000:??0?$fpos@U__mbstate_t@@@std@@QEAA@U__mbstate_t@@_J@Z
                    8D4424:
                      38488BF8488B74:
                        0. 26 A061 008B 0000:??$?HN@std@@YA?AV?$complex@N@0@AEBV10@AEBN@Z (000E: 58) (REF 0046: ?real@?$_Complex_base@NU_C_double_complex@@@std@@QEBANXZ)
                        1. 26 A061 008B 0000:??$?HO@std@@YA?AV?$complex@O@0@AEBV10@AEBO@Z (000E: 58) (REF 0046: ?real@?$_Complex_base@OU_C_ldouble_complex@@@std@@QEBAOXZ)
                        2. 26 A061 008B 0000:??$?GN@std@@YA?AV?$complex@N@0@AEBV10@AEBN@Z (000E: 5C) (REF 0046: ?real@?$_Complex_base@NU_C_double_complex@@@std@@QEBANXZ)
                        3. 26 A061 008B 0000:??$?GO@std@@YA?AV?$complex@O@0@AEBV10@AEBO@Z (000E: 5C) (REF 0046: ?real@?$_Complex_base@OU_C_ldouble_complex@@@std@@QEBAOXZ)
                      40488BF8488B74:
                        0. 2E 2A39 0084 0000:??$?GO@std@@YA?AV?$complex@O@0@AEBV10@0@Z (REF 004E: ??Z?$complex@O@std@@QEAAAEAV01@AEBV01@@Z)
                        1. 2E 2A39 0084 0000:??$?HO@std@@YA?AV?$complex@O@0@AEBV10@0@Z (REF 004E: ??Y?$complex@O@std@@QEAAAEAV01@AEBV01@@Z)
                        2. 2E 2A39 0084 0000:??$?KO@std@@YA?AV?$complex@O@0@AEBV10@0@Z (REF 004E: ??_0?$complex@O@std@@QEAAAEAV01@AEBV01@@Z)
                        3. 2E 2A39 0084 0000:??$?DO@std@@YA?AV?$complex@O@0@AEBV10@0@Z (REF 004E: ??X?$complex@O@std@@QEAAAEAV01@AEBV01@@Z)
                        4. 2E 2A39 0084 0000:??$?HN@std@@YA?AV?$complex@N@0@AEBV10@0@Z (REF 004E: ??Y?$complex@N@std@@QEAAAEAV01@AEBV01@@Z)
                        5. 2E 2A39 0084 0000:??$?GN@std@@YA?AV?$complex@N@0@AEBV10@0@Z (REF 004E: ??Z?$complex@N@std@@QEAAAEAV01@AEBV01@@Z)
                        6. 2E 2A39 0084 0000:??$?DN@std@@YA?AV?$complex@N@0@AEBV10@0@Z (REF 004E: ??X?$complex@N@std@@QEAAAEAV01@AEBV01@@Z)
                        7. 2E 2A39 0084 0000:??$?KN@std@@YA?AV?$complex@N@0@AEBV10@0@Z (REF 004E: ??_0?$complex@N@std@@QEAAAEAV01@AEBV01@@Z)
                        8. 26 7663 00B6 0000:??$?DN@std@@YA?AV?$complex@N@0@AEBV10@AEBN@Z (0039: 59) (REF 0046: ?real@?$_Complex_base@NU_C_double_complex@@@std@@QEBANXZ)
                        9. 26 7663 00B6 0000:??$?DO@std@@YA?AV?$complex@O@0@AEBV10@AEBO@Z (0039: 59) (REF 0046: ?real@?$_Complex_base@OU_C_ldouble_complex@@@std@@QEBAOXZ)
                        10. 26 7663 00B6 0000:??$?KN@std@@YA?AV?$complex@N@0@AEBV10@AEBN@Z (0039: 5E) (REF 0046: ?real@?$_Complex_base@NU_C_double_complex@@@std@@QEBANXZ)
                        11. 26 7663 00B6 0000:??$?KO@std@@YA?AV?$complex@O@0@AEBV10@AEBO@Z (0039: 5E) (REF 0046: ?real@?$_Complex_base@OU_C_ldouble_complex@@@std@@QEBAOXZ)
                        12. 2E E380 0084 0000:??G?$_String_iterator@GU?$char_traits@G@std@@V?$allocator@G@2@@std@@QEBA?AV01@_J@Z (REF 004E: ??Z?$_String_iterator@GU?$char_traits@G@std@@V?$allocator@G@2@@std@@QEAAAEAV01@_J@Z)
                        13. 2E E380 0084 0000:??H?$_String_iterator@GU?$char_traits@G@std@@V?$allocator@G@2@@std@@QEBA?AV01@_J@Z (REF 004E: ??Y?$_String_iterator@GU?$char_traits@G@std@@V?$allocator@G@2@@std@@QEAAAEAV01@_J@Z)
                        14. 2E E380 0084 0000:??G?$_String_iterator@DU?$char_traits@D@std@@V?$allocator@D@2@@std@@QEBA?AV01@_J@Z (REF 004E: ??Z?$_String_iterator@DU?$char_traits@D@std@@V?$allocator@D@2@@std@@QEAAAEAV01@_J@Z)
                        15. 2E E380 0084 0000:??H?$_String_iterator@DU?$char_traits@D@std@@V?$allocator@D@2@@std@@QEBA?AV01@_J@Z (REF 004E: ??Y?$_String_iterator@DU?$char_traits@D@std@@V?$allocator@D@2@@std@@QEAAAEAV01@_J@Z)
                  660F57C0F20F114424304C:
                    0. 0F 32E4 0077 0000:??$?HN@std@@YA?AV?$complex@N@0@AEBNAEBV10@@Z (REF 0041: ??Y?$complex@N@std@@QEAAAEAV01@AEBV01@@Z)
                    1. 0F 32E4 0077 0000:??$?GN@std@@YA?AV?$complex@N@0@AEBNAEBV10@@Z (REF 0041: ??Z?$complex@N@std@@QEAAAEAV01@AEBV01@@Z)
                    2. 0F 32E4 0077 0000:??$?DN@std@@YA?AV?$complex@N@0@AEBNAEBV10@@Z (REF 0041: ??X?$complex@N@std@@QEAAAEAV01@AEBV01@@Z)
                    3. 0F 32E4 0077 0000:??$?KN@std@@YA?AV?$complex@N@0@AEBNAEBV10@@Z (REF 0041: ??_0?$complex@N@std@@QEAAAEAV01@AEBV01@@Z)
                    4. 0F 32E4 0077 0000:??$?HO@std@@YA?AV?$complex@O@0@AEBOAEBV10@@Z (REF 0041: ??Y?$complex@O@std@@QEAAAEAV01@AEBV01@@Z)
                    5. 0F 32E4 0077 0000:??$?GO@std@@YA?AV?$complex@O@0@AEBOAEBV10@@Z (REF 0041: ??Z?$complex@O@std@@QEAAAEAV01@AEBV01@@Z)
                    6. 0F 32E4 0077 0000:??$?DO@std@@YA?AV?$complex@O@0@AEBOAEBV10@@Z (REF 0041: ??X?$complex@O@std@@QEAAAEAV01@AEBV01@@Z)
                    7. 0F 32E4 0077 0000:??$?KO@std@@YA?AV?$complex@O@0@AEBOAEBV10@@Z (REF 0041: ??_0?$complex@O@std@@QEAAAEAV01@AEBV01@@Z)
                78488B8C24A0000000E8:
                  0. 00 0000 012B 0000:??$pow@N@std@@YA?AV?$complex@N@0@AEBV10@0@Z (REF 001E: ??$imag@N@std@@YANAEBV?$complex@N@0@@Z)
                  1. 00 0000 012B 0000:??$pow@O@std@@YA?AV?$complex@O@0@AEBV10@0@Z (REF 001E: ??$imag@O@std@@YAOAEBV?$complex@O@0@@Z)
              574881EC2001000048C78424C000000000:
                0. 20 F178 01EC 0000:??$_Maklocstr@G@std@@YAPEAGPEBDPEAGAEBU_Cvtvec@@@Z
              B8FFFFFFFFC3:
                0. 00 0000 0015 (!)0000:?
            884C2408:
              574881EC9000000066C7442430000048C744:
                0. 3D A249 006F 0000:??$_Maklocchr@G@std@@YAGDPEAGAEBU_Cvtvec@@@Z
              8A442408C3:
                0. 00 0000 0013 0000:??$_Maklocchr@D@std@@YADDPEADAEBU_Cvtvec@@@Z
            F20F114424084883EC4848837C2458007412660F1244:
              0. 06 1661 02DE 0000:_Dtentox (l)0290:dmul (REF 02AA: _Dunscale)
              1. 06 1661 02DE 0000:_LDtentox (l)0290:dmul (REF 02AA: _LDunscale)
            F30F114424084883EC4848837C2458007411F30F1044:
              0. 05 A9F3 02DE 0000:_FDtentox (l)0290:dmul
        8BC448:
          81EC7808000083792001488958204C8970D04C8978C84D:
            0. 28 F489 0351 (l)0000:time1
          83EC68488958F8488970E8488978E04C8960D84C8968D0:
            0. 34 731B 04C1 (l)0000:sstep
      4C894C2420534881ECF0000000488B05........48898424E00000:
        0. 87 9352 00CE 0000:__snprintf
      668954241048894C24084883EC:
        18488B44242048890424EB19488B:
          0. 37 2976 0057 0000:?wmemset@@YAPEAGPEAGG_K@Z
        7848C7442450FEFFFFFFC7442448:
          0. 18 42DE 00E9 0000:??$?HGU?$char_traits@G@std@@V?$allocator@G@1@@std@@YA?AV?$basic_string@GU?$char_traits@G@std@@V?$allocator@G@2@@0@GAEBV10@@Z (l)00A0:?dtor$0@?0???$?HGU?$char_traits@G@std@@V?$allocator@G@1@@std@@YA?AV?$basic_string@GU?$char_traits@G@std@@V?$allocator@G@2@@0@GAEBV10@@Z@4HA (l)00C0:?dtor$1@?0???$?HGU?$char_traits@G@std@@V?$allocator@G@1@@std@@YA?AV?$basic_string@GU?$char_traits@G@std@@V?$allocator@G@2@@0@GAEBV10@@Z@4HA
      8854241048894C24084883EC:
        380FB644244885C07502EB60488B44:
          0. 3B 3B80 009E 0000:?_Tidy@?$basic_string@GU?$char_traits@G@std@@V?$allocator@G@2@@std@@IEAAX_N_K@Z
          1. 3B 7DC3 009E 0000:?_Tidy@?$basic_string@DU?$char_traits@D@std@@V?$allocator@D@2@@std@@IEAAX_N_K@Z
        7848C7442450FEFFFFFFC744244800:
          0. 17 311D 00D9 0000:??$?HDU?$char_traits@D@std@@V?$allocator@D@1@@std@@YA?AV?$basic_string@DU?$char_traits@D@std@@V?$allocator@D@2@@0@DAEBV10@@Z (l)0090:?dtor$0@?0???$?HDU?$char_traits@D@std@@V?$allocator@D@1@@std@@YA?AV?$basic_string@DU?$char_traits@D@std@@V?$allocator@D@2@@0@DAEBV10@@Z@4HA (l)00B0:?dtor$1@?0???$?HDU?$char_traits@D@std@@V?$allocator@D@1@@std@@YA?AV?$basic_string@DU?$char_traits@D@std@@V?$allocator@D@2@@0@DAEBV10@@Z@4HA
      8954241048894C24084883EC:
        1848837C2430007442488B44242048:
          0. 43 39BF 0063 0000:__memchr
        28:
          488B4424304889042448837C2440:
            0. FF 4601 0176 0000:__memset
          4C8B4424408B542438488B4C2430:
            0. 01 3E9B 002A 0000:?_Addcats@_Locinfo@std@@QEAAAEAV12@HPEBD@Z
    4C2420:
      44:
        88442418488954241048894C2408:
          4881ECF800000048C78424C8:
            0. 18 1BF8 0148 0000:??0?$ctype@D@std@@QEAA@PEBF_N_K@Z (l)0110:?dtor$0@?0???0?$ctype@D@std@@QEAA@PEBF_N_K@Z@4HA (l)0130:?dtor$1@?0???0?$ctype@D@std@@QEAA@PEBF_N_K@Z@4HA
          56574883EC48EB17488B4424:
            0. 0F FDD6 0088 0000:?_Rep@?$money_put@DV?$ostreambuf_iterator@DU?$char_traits@D@std@@@std@@@std@@CA?AV?$ostreambuf_iterator@DU?$char_traits@D@std@@@2@V32@D_K@Z
        89442418:
          488954241048894C240848:
            81EC880000004883BC24A8:
              0. 3B AA33 041F 0000:_Stoulx 03B0:_Stoul 03F0:_Stoull
            83EC:
              2848837C244800766D:
                0. 74 B34B 0094 0000:__memccpy
              3848C74424:
                20FEFFFF:
                  0. 9C A556 00F3 0000:??_M@YAXPEAX_KHP6AX0@Z@Z (l)0073:$LN16 (l)0080:?catch$1@?0???_M@YAXPEAX_KHP6AX0@Z@Z@4HA (l)008D:__catch$??_M@YAXPEAX_KHP6AX0@Z@Z$0 (l)00B5:$LN14 (l)00D0:?catch$0@?0???_M@YAXPEAX_KHP6AX0@Z@Z@4HA (l)00DD:__catch$??_M@YAXPEAX_KHP6AX0@Z@Z$1
                28FEFFFF:
                  0. 96 166D 00F3 0000:??_N@YAXPEAX_KHP6AX0@Z2@Z (l)0064:$LN18 (l)0070:?catch$1@?0???_N@YAXPEAX_KHP6AX0@Z2@Z@4HA (l)007D:__catch$??_N@YAXPEAX_KHP6AX0@Z2@Z$0 (l)00AF:$LN16 (l)00D0:?catch$0@?0???_N@YAXPEAX_KHP6AX0@Z2@Z@4HA (l)00DD:__catch$??_N@YAXPEAX_KHP6AX0@Z2@Z$1
                  1. 96 D8AE 00F3 0000:??_L@YAXPEAX_KHP6AX0@Z2@Z (l)005F:$LN18 (l)0070:?catch$1@?0???_L@YAXPEAX_KHP6AX0@Z2@Z@4HA (l)007D:__catch$??_L@YAXPEAX_KHP6AX0@Z2@Z$0 (l)00AF:$LN16 (l)00D0:?catch$0@?0???_L@YAXPEAX_KHP6AX0@Z2@Z@4HA (l)00DD:__catch$??_L@YAXPEAX_KHP6AX0@Z2@Z$1
              6848837C247800750A:
                0. 2E 5385 022F 0000:_Stolx 01C0:_Stol 0200:_Stoll
          89542410F20F11442408488BC44881ECE80000004C8B:
            0. 01 54B7 131C 0000:__dtoa (l)0356:$LN122 (l)036E:$LN121 (l)0375:$LN120 (l)038E:$LN118 (l)0395:$LN117 (l)05B1:$fast_failed$2148 (l)0844:$bump_up$2163 (l)0C95:$one_digit$2152 (l)0D11:$no_digits$2154 (l)1003:$round_9_up$2238 (l)100A:$roundoff$2248 (l)1218:$ret$2224 (l)1262:$ret1$2161
      48894C2408488BC44881EC:
        080100004889:
          58F8488B5940488968F0:
            0. ED 2034 061F (l)0000:lmatcher
          68F0488970E8488978E0:
            0. FD AFC4 0596 (l)0000:smatcher
        88000000488970E8488958F8488968F0:
          0. FF 4AE1 0A68 0000:__qsort (l)0032:$loop$985
      4C:
        89442418:
          4889:
            4C2408488BC44881EC:
              A8000000483B5120488968:
                0. 32 9264 0743 (l)0000:sslow
                1. 0F A70E 0690 (l)0000:sfast
              B800000048:
                3B5120488958:
                  0. 3D 34EF 0745 (l)0000:lfast
                8968F0488970:
                  0. 43 86E5 07CF (l)0000:lslow
            542410:
              48894C2408:
                48:
                  81EC:
                    1801000048C78424:
                      B8:
                        0. 0A D740 0B08 0000:?_Getffld@?$num_get@GV?$istreambuf_iterator@GU?$char_traits@G@std@@@std@@@std@@AEBAHPEADAEAV?$istreambuf_iterator@GU?$char_traits@G@std@@@2@1AEBVlocale@2@@Z (l)0AD0:?dtor$0@?0??_Getffld@?$num_get@GV?$istreambuf_iterator@GU?$char_traits@G@std@@@std@@@std@@AEBAHPEADAEAV?$istreambuf_iterator@GU?$char_traits@G@std@@@2@1AEBVlocale@2@@Z@4HA (l)0AF0:?dtor$1@?0??_Getffld@?$num_get@GV?$istreambuf_iterator@GU?$char_traits@G@std@@@std@@@std@@AEBAHPEADAEAV?$istreambuf_iterator@GU?$char_traits@G@std@@@2@1AEBVlocale@2@@Z@4HA (0ACD: 8B)
                        1. 0A D740 0AF8 0000:?_Getffld@?$num_get@DV?$istreambuf_iterator@DU?$char_traits@D@std@@@std@@@std@@AEBAHPEADAEAV?$istreambuf_iterator@DU?$char_traits@D@std@@@2@1AEBVlocale@2@@Z (l)0AC0:?dtor$0@?0??_Getffld@?$num_get@DV?$istreambuf_iterator@DU?$char_traits@D@std@@@std@@@std@@AEBAHPEADAEAV?$istreambuf_iterator@DU?$char_traits@D@std@@@2@1AEBVlocale@2@@Z@4HA (l)0AE0:?dtor$1@?0??_Getffld@?$num_get@DV?$istreambuf_iterator@DU?$char_traits@D@std@@@std@@@std@@AEBAHPEADAEAV?$istreambuf_iterator@DU?$char_traits@D@std@@@2@1AEBVlocale@2@@Z@4HA (0ACD: C3)
                      C0:
                        0. 0A D740 0748 0000:?_Getifld@?$num_get@DV?$istreambuf_iterator@DU?$char_traits@D@std@@@std@@@std@@AEBAHPEADAEAV?$istreambuf_iterator@DU?$char_traits@D@std@@@2@1HAEBVlocale@2@@Z (l)0710:?dtor$0@?0??_Getifld@?$num_get@DV?$istreambuf_iterator@DU?$char_traits@D@std@@@std@@@std@@AEBAHPEADAEAV?$istreambuf_iterator@DU?$char_traits@D@std@@@2@1HAEBVlocale@2@@Z@4HA (l)0730:?dtor$1@?0??_Getifld@?$num_get@DV?$istreambuf_iterator@DU?$char_traits@D@std@@@std@@@std@@AEBAHPEADAEAV?$istreambuf_iterator@DU?$char_traits@D@std@@@2@1HAEBVlocale@2@@Z@4HA
                    2801000048C78424C8:
                      0. 0A D740 0758 0000:?_Getifld@?$num_get@GV?$istreambuf_iterator@GU?$char_traits@G@std@@@std@@@std@@AEBAHPEADAEAV?$istreambuf_iterator@GU?$char_traits@G@std@@@2@1HAEBVlocale@2@@Z (l)0720:?dtor$0@?0??_Getifld@?$num_get@GV?$istreambuf_iterator@GU?$char_traits@G@std@@@std@@@std@@AEBAHPEADAEAV?$istreambuf_iterator@GU?$char_traits@G@std@@@2@1HAEBVlocale@2@@Z@4HA (l)0740:?dtor$1@?0??_Getifld@?$num_get@GV?$istreambuf_iterator@GU?$char_traits@G@std@@@std@@@std@@AEBAHPEADAEAV?$istreambuf_iterator@GU?$char_traits@G@std@@@2@1HAEBVlocale@2@@Z@4HA
                    88000000488B842490:
                      0. 19 D16A 02CF 0000:_Stoldx 02A0:_Stold (REF 014B: _LDtentox)
                      1. 19 D16A 02CF 0000:_Stodx 02A0:_Stod (REF 014B: _Dtentox)
                    B800000048:
                      8B05:
                        0. 00 0000 063F 0000:_Stoxflt (05C8: 74)
                        1. 00 0000 05E9 0000:_Stoflt (05C8: C3)
                      C7842488:
                        0. 0A D740 0368 0000:??$_Getloctxt@DV?$istreambuf_iterator@DU?$char_traits@D@std@@@std@@@std@@YAHAEAV?$istreambuf_iterator@DU?$char_traits@D@std@@@0@0_KPEBD@Z (l)0350:?dtor$0@?0???$_Getloctxt@DV?$istreambuf_iterator@DU?$char_traits@D@std@@@std@@@std@@YAHAEAV?$istreambuf_iterator@DU?$char_traits@D@std@@@0@0_KPEBD@Z@4HA (031D: 00)
                        1. 0A D740 0348 0000:??$_Getloctxt@GV?$istreambuf_iterator@GU?$char_traits@G@std@@@std@@@std@@YAHAEAV?$istreambuf_iterator@GU?$char_traits@G@std@@@0@0_KPEBG@Z (l)0330:?dtor$0@?0???$_Getloctxt@GV?$istreambuf_iterator@GU?$char_traits@G@std@@@std@@@std@@YAHAEAV?$istreambuf_iterator@GU?$char_traits@G@std@@@0@0_KPEBG@Z@4HA (031D: C3)
                    C800000048C7842490:
                      0. 0A D740 01EF 0000:?do_transform@?$collate@D@std@@MEBA?AV?$basic_string@DU?$char_traits@D@std@@V?$allocator@D@2@@2@PEBD0@Z (l)01A0:?dtor$0@?0??do_transform@?$collate@D@std@@MEBA?AV?$basic_string@DU?$char_traits@D@std@@V?$allocator@D@2@@2@PEBD0@Z@4HA (l)01C0:?dtor$1@?0??do_transform@?$collate@D@std@@MEBA?AV?$basic_string@DU?$char_traits@D@std@@V?$allocator@D@2@@2@PEBD0@Z@4HA (0169: CC)
                      1. 0A D740 01EF 0000:?do_transform@?$collate@G@std@@MEBA?AV?$basic_string@GU?$char_traits@G@std@@V?$allocator@G@2@@2@PEBG0@Z (l)01A0:?dtor$0@?0??do_transform@?$collate@G@std@@MEBA?AV?$basic_string@GU?$char_traits@G@std@@V?$allocator@G@2@@2@PEBG0@Z@4HA (l)01C0:?dtor$1@?0??do_transform@?$collate@G@std@@MEBA?AV?$basic_string@GU?$char_traits@G@std@@V?$allocator@G@2@@2@PEBG0@Z@4HA (0169: C3)
                  83EC:
                    18488B442430488B4C:
                      0. 36 E0E5 0056 0000:?do_length@?$codecvt@DDU__mbstate_t@@@std@@MEBAHAEBU__mbstate_t@@PEBD1_K@Z
                    28:
                      488B4424:
                        304883C0:
                          0. 14 E373 003D 0000:?do_is@?$ctype@G@std@@MEBAPEBGPEBG0PEAF@Z
                        38488B4C:
                          0. 3F 9309 0077 0000:?_Do_widen_s@?$ctype@G@std@@MEBAPEBDPEBD0PEAG_K@Z
                          1. 2B E067 0059 0000:?_Do_widen_s@?$ctype@D@std@@MEBAPEBDPEBD0PEAD_K@Z
                        4848D1E0:
                          0. 19 4F09 0042 0000:wmemcpy_s (REF 0039: memcpy_s)
                          1. 19 4F09 0042 0000:wmemmove_s (REF 0039: memmove_s)
                      4C8B4C24484C8B44:
                        0. 0D 11A9 0036 0000:??$copy_s@U?$char_traits@D@std@@@_Traits_helper@std@@YAPEADPEAD_KPEBD1U_Secure_char_traits_tag@1@@Z (0008: C3) (REF 002D: ?_Copy_s@?$char_traits@D@std@@SAPEADPEAD_KPEBD1@Z)
                        1. 0D 11A9 0036 0000:??$move_s@U?$char_traits@G@std@@@_Traits_helper@std@@YAPEAGPEAG_KPEBG1U_Secure_char_traits_tag@1@@Z (0008: C3) (REF 002D: ?_Move_s@?$char_traits@G@std@@SAPEAGPEAG_KPEBG1@Z)
                        2. 0D 11A9 0036 0000:??$move_s@U?$char_traits@D@std@@@_Traits_helper@std@@YAPEADPEAD_KPEBD1U_Secure_char_traits_tag@1@@Z (0008: C3) (REF 002D: ?_Move_s@?$char_traits@D@std@@SAPEADPEAD_KPEBD1@Z)
                        3. 0D 11A9 0036 0000:??$copy_s@U?$char_traits@G@std@@@_Traits_helper@std@@YAPEAGPEAG_KPEBG1U_Secure_char_traits_tag@1@@Z (0008: C3) (REF 002D: ?_Copy_s@?$char_traits@G@std@@SAPEAGPEAG_KPEBG1@Z)
                        4. 0D 11A9 003B 0000:?_Move_s@?$char_traits@D@std@@SAPEADPEAD_KPEBD1@Z (0008: 30) (REF 002D: memmove_s)
                        5. 0D 11A9 003B 0000:?_Copy_s@?$char_traits@G@std@@SAPEAGPEAG_KPEBG1@Z (0008: 30) (REF 002D: wmemcpy_s)
                        6. 0D 11A9 003B 0000:?_Copy_s@?$char_traits@D@std@@SAPEADPEAD_KPEBD1@Z (0008: 30) (REF 002D: memcpy_s)
                        7. 0D 11A9 003B 0000:?_Move_s@?$char_traits@G@std@@SAPEAGPEAG_KPEBG1@Z (0008: 30) (REF 002D: wmemmove_s)
                    38488B:
                      4424:
                        4048:
                          83C0:
                            0. 1B 88FB 0044 0000:?do_compare@?$collate@D@std@@MEBAHPEBD000@Z (REF 003B: ??$_LStrcoll@D@std@@YAHPEBD000PEBU_Collvec@@@Z)
                            1. 1B 88FB 0044 0000:?do_compare@?$collate@G@std@@MEBAHPEBG000@Z (REF 003B: ??$_LStrcoll@G@std@@YAHPEBG000PEBU_Collvec@@@Z)
                          8B00:
                            0. 26 7598 0046 (!)0000:?
                        60488944:
                          0. 17 F0F3 0040 0000:??$_LStrcoll@D@std@@YAHPEBD000PEBU_Collvec@@@Z (REF 0037: _Strcoll)
                          1. 17 F0F3 0040 0000:??$_LStrxfrm@D@std@@YA_KPEAD0PEBD1PEBU_Collvec@@@Z (REF 0037: _Strxfrm)
                          2. 17 F0F3 0040 0000:??$_LStrcoll@G@std@@YAHPEBG000PEBU_Collvec@@@Z (REF 0037: _Wcscoll)
                          3. 17 F0F3 0040 0000:??$_LStrxfrm@G@std@@YA_KPEAG0PEBG1PEBU_Collvec@@@Z (REF 0037: _Wcsxfrm)
                      4C2448E8:
                        0. 00 0000 0109 0000:?assign@?$basic_string@DU?$char_traits@D@std@@V?$allocator@D@2@@std@@QEAAAEAV12@AEBV12@_K1@Z (00E8: C3)
                        1. 00 0000 010D 0000:?assign@?$basic_string@GU?$char_traits@G@std@@V?$allocator@G@2@@std@@QEAAAEAV12@AEBV12@_K1@Z (00E8: 48)
                    48:
                      48:
                        837C2468007507:
                          0. 31 DC85 00FA 0000:memmove_s
                          1. 31 F556 012A 0000:memcpy_s
                        8B:
                          4424:
                            50488B:
                              00:
                                0. 4A 9A1C 006A (!)0000:?
                                1. 4A C23D 006A (!)0000:?
                              4C:
                                0. 09 7E56 0104 0000:?compare@?$basic_string@DU?$char_traits@D@std@@V?$allocator@D@2@@std@@QEBAH_K0PEBD0@Z (00DA: C3)
                                1. 09 7E56 0108 0000:?compare@?$basic_string@GU?$char_traits@G@std@@V?$allocator@G@2@@std@@QEBAH_K0PEBG0@Z (00DA: 48)
                            58488B4C:
                              0. 3B 5F91 005B 0000:?do_widen@?$ctype@G@std@@MEBAPEBDPEBD0PEAG@Z
                              1. 3B EE16 005B 0000:?do_widen@?$ctype@D@std@@MEBAPEBDPEBD0PEAD@Z
                            68488B40:
                              0. 1A 9B9A 00B0 0000:__GSHandlerCheck_EH
                            70488B4C:
                              0. A7 98B3 0181 0000:?do_in@?$codecvt@GDU__mbstate_t@@@std@@MEBAHAEAU__mbstate_t@@PEBD1AEAPEBDPEAG3AEAPEAG@Z
                          4C2458E8:
                            0. 00 0000 0142 0000:?append@?$basic_string@DU?$char_traits@D@std@@V?$allocator@D@2@@std@@QEAAAEAV12@AEBV12@_K1@Z (011B: 24)
                            1. 00 0000 014A 0000:?append@?$basic_string@GU?$char_traits@G@std@@V?$allocator@G@2@@std@@QEAAAEAV12@AEBV12@_K1@Z (011B: E8)
                            2. 00 0000 013F 0000:?append@?$basic_string@DU?$char_traits@D@std@@V?$allocator@D@2@@std@@QEAAAEAV12@AEBV12@_K1@Z (011B: 83)
                        C7442420000000:
                          0. 13 0C8D 0156 0000:?_Xsgetn_s@?$basic_streambuf@DU?$char_traits@D@std@@@std@@MEAA_JPEAD_K_J@Z
                          1. 13 1072 0158 0000:?_Xsgetn_s@?$basic_streambuf@GU?$char_traits@G@std@@@std@@MEAA_JPEAG_K_J@Z
                      E8........884424:
                        0. 1F E6D7 0048 0000:??$copy_s@U?$char_traits@D@std@@@_Traits_helper@std@@YAPEADPEAD_KPEBD1@Z (REF 003F: ??$copy_s@U?$char_traits@D@std@@@_Traits_helper@std@@YAPEADPEAD_KPEBD1U_Secure_char_traits_tag@1@@Z)
                        1. 1F E6D7 0048 0000:??$move_s@U?$char_traits@D@std@@@_Traits_helper@std@@YAPEADPEAD_KPEBD1@Z (REF 003F: ??$move_s@U?$char_traits@D@std@@@_Traits_helper@std@@YAPEADPEAD_KPEBD1U_Secure_char_traits_tag@1@@Z)
                        2. 1F E6D7 0048 0000:??$copy_s@U?$char_traits@G@std@@@_Traits_helper@std@@YAPEAGPEAG_KPEBG1@Z (REF 003F: ??$copy_s@U?$char_traits@G@std@@@_Traits_helper@std@@YAPEAGPEAG_KPEBG1U_Secure_char_traits_tag@1@@Z)
                        3. 1F E6D7 0048 0000:??$move_s@U?$char_traits@G@std@@@_Traits_helper@std@@YAPEAGPEAG_KPEBG1@Z (REF 003F: ??$move_s@U?$char_traits@G@std@@@_Traits_helper@std@@YAPEAGPEAG_KPEBG1U_Secure_char_traits_tag@1@@Z)
                    68488B842480000000:
                      0. 15 C13F 0BCF 0000:?_GetEstablisherFrame@@YAPEA_KPEA_KPEAU_xDISPATCHER_CONTEXT@@PEBU_s_FuncInfo@@0@Z 0190:_GetImageBase 01B0:_GetThrowImageBase 01D0:_SetImageBase 0200:_SetThrowImageBase 0230:_MoveContext 0260:?_ExecutionInCatch@@YAHPEAU_xDISPATCHER_CONTEXT@@PEBU_s_FuncInfo@@@Z (l)02C0:?_CatchTryBlock@@YAPEBU_s_TryBlockMapEntry@@PEBU_s_FuncInfo@@H@Z 0350:?__FrameUnwindToEmptyState@@YAXPEA_KPEAU_xDISPATCHER_CONTEXT@@PEBU_s_FuncInfo@@@Z 03F0:__CxxFrameHandler3 04B0:__CxxFrameHandler2 04F0:__CxxFrameHandler 05B0:?__SehTransFilter@@YAHPEAU_EXCEPTION_POINTERS@@PEAUEHExceptionRecord@@PEA_KPEAU_CONTEXT@@PEAU_xDISPATCHER_CONTEXT@@PEBU_s_FuncInfo@@PEAH@Z 0670:_CallSETranslator (l)06DA:$LN6 (l)06F0:_CallSETranslator$filt$0 (l)073F:$LN7 0750:?_GetRangeOfTrysToCheck@@YAPEBU_s_TryBlockMapEntry@@PEA_KPEBU_s_FuncInfo@@HHPEAI2PEAU_xDISPATCHER_CONTEXT@@@Z 0970:_CreateFrameInfo 09E0:_IsExceptionObjectToBeDestroyed 0A40:_FindAndUnlinkFrame 0AC0:_UnwindNestedFrames
                    78:
                      488B842480000000:
                        0. 16 1923 02CF 0000:_Stofx 02A0:_Stof
                      E8........837878:
                        0. F3 C5FA 2956 0000:__InternalCxxFrameHandler (l)03B0:?FindHandler@@YAXPEAUEHExceptionRecord@@PEA_KPEAU_CONTEXT@@PEAU_xDISPATCHER_CONTEXT@@PEBU_s_FuncInfo@@EH1@Z (l)0922:$NextTryBlock$2761 (l)0AF0:?FindHandlerForForeignException@@YAXPEAUEHExceptionRecord@@PEA_KPEAU_CONTEXT@@PEAU_xDISPATCHER_CONTEXT@@PEBU_s_FuncInfo@@HH1@Z 0E40:__TypeMatch 1000:__FrameUnwindFilter 1050:__FrameUnwindToState (l)1224:$LN24 (l)1231:$LN22 (l)12A0:__FrameUnwindToState$filt$0 (l)12A9:$LN23 (l)12B9:$LN25 (l)12C0:__FrameUnwindToState$fin$1 (l)12C9:$LN19 (l)1300:?CatchIt@@YAXPEAUEHExceptionRecord@@PEA_KPEAU_CONTEXT@@PEAU_xDISPATCHER_CONTEXT@@PEBU_s_FuncInfo@@PEBU_s_HandlerType@@PEBU_s_CatchableType@@PEBU_s_TryBlockMapEntry@@H1EE@Z 13F0:__CxxCallCatchBlock (l)151F:$LN18 (l)1560:$LN16 (l)1610:__CxxCallCatchBlock$filt$0 (l)1619:$LN17 (l)1640:__CxxCallCatchBlock$fin$1 (l)1649:$LN13 (l)16BE:$LN14 (l)16D0:?__RethrowException@@YAXPEAUEHExceptionRecord@@@Z (l)1740:?ExFilterRethrow@@YAHPEAU_EXCEPTION_POINTERS@@PEAUEHExceptionRecord@@PEAH@Z 1830:__BuildCatchObjectHelper (l)1B9C:$LN35 (l)1BB0:__BuildCatchObjectHelper$filt$0 (l)1BB9:$LN34 (l)1BBE:$LN36 1BD0:__BuildCatchObject (l)1D10:__BuildCatchObject$filt$0 1D30:__DestructExceptionObject (l)1D98:$LN11 (l)1DB0:__DestructExceptionObject$filt$0 (l)1DB9:$LN10 (l)1DD4:$LN12 1DE0:__AdjustPointer 1E70:?__uncaught_exception@@YA_NXZ 1EA0:__CxxExceptionFilter (l)2172:$LN26 (l)2180:__CxxExceptionFilter$fin$0 21A0:__CxxRegisterExceptionObject 2300:__CxxDetectRethrow 23A0:__CxxUnregisterExceptionObject 2500:__CxxQueryExceptionSize 2510:__CxxCallUnwindDtor (l)2530:__CxxCallUnwindDtor$filt$0 2560:__CxxCallUnwindDelDtor (l)2580:__CxxCallUnwindDelDtor$filt$0 25B0:__CxxCallUnwindStdDelDtor (l)25D0:__CxxCallUnwindStdDelDtor$filt$0 2600:__CxxCallUnwindVecDtor (l)2640:__CxxCallUnwindVecDtor$filt$0 (l)2670:?IsInExceptionSpec@@YAEPEAUEHExceptionRecord@@PEBU_s_ESTypeList@@@Z (l)2780:?Is_bad_exception_allowed@@YAEPEBU_s_ESTypeList@@@Z 2820:?_is_exception_typeof@@YAHAEBVtype_info@@PEAU_EXCEPTION_POINTERS@@@Z
                  8B:
                    4424:
                      08488B40:
                        20488B4C:
                          0. 35 B433 0055 0000:?setg@?$basic_streambuf@GU?$char_traits@G@std@@@std@@IEAAXPEAG00@Z
                          1. 32 DA03 0052 0000:?setg@?$basic_streambuf@DU?$char_traits@D@std@@@std@@IEAAXPEAD00@Z
                        28488B4C:
                          0. 35 4EEB 0055 0000:?setp@?$basic_streambuf@GU?$char_traits@G@std@@@std@@IEAAXPEAG00@Z
                          1. 32 5D50 0052 0000:?setp@?$basic_streambuf@DU?$char_traits@D@std@@@std@@IEAAXPEAD00@Z
                      28488B4C24184889:
                        0. 14 487A 0034 (!)0000:?
                        1. 07 ED58 0027 0000:?do_unshift@?$codecvt@DDU__mbstate_t@@@std@@MEBAHAEAU__mbstate_t@@PEAD1AEAPEAD@Z
                    C44881ECC80000004C89:
                      0. FF A6AE 077C (l)0000:time2sub (l)06D4:$label$3318
                565748:
                  81EC:
                    08010000:
                      48C784:
                        0. 0C EC43 0288 0000:?do_put@?$time_put@DV?$ostreambuf_iterator@DU?$char_traits@D@std@@@std@@@std@@MEBA?AV?$ostreambuf_iterator@DU?$char_traits@D@std@@@2@V32@AEAVios_base@2@DPEBUtm@@DD@Z (l)0270:?dtor$0@?0??do_put@?$time_put@DV?$ostreambuf_iterator@DU?$char_traits@D@std@@@std@@@std@@MEBA?AV?$ostreambuf_iterator@DU?$char_traits@D@std@@@2@V32@AEAVios_base@2@DPEBUtm@@DD@Z@4HA
                      EB2648:
                        0. 38 E7CE 0224 0000:?_Putgrouped@?$num_put@GV?$ostreambuf_iterator@GU?$char_traits@G@std@@@std@@@std@@AEBA?AV?$ostreambuf_iterator@GU?$char_traits@G@std@@@2@V32@PEBD_KG@Z (0131: B7)
                        1. 38 E7CE 0224 0000:?_Putgrouped@?$num_put@DV?$ostreambuf_iterator@DU?$char_traits@D@std@@@std@@@std@@AEBA?AV?$ostreambuf_iterator@DU?$char_traits@D@std@@@2@V32@PEBD_KD@Z (0131: B6)
                    1805000048C784:
                      0. 0C 70F3 0D2B 0000:?_Fput@?$num_put@GV?$ostreambuf_iterator@GU?$char_traits@G@std@@@std@@@std@@AEBA?AV?$ostreambuf_iterator@GU?$char_traits@G@std@@@2@V32@AEAVios_base@2@GPEBD_K333@Z (l)0CD0:?dtor$0@?0??_Fput@?$num_put@GV?$ostreambuf_iterator@GU?$char_traits@G@std@@@std@@@std@@AEBA?AV?$ostreambuf_iterator@GU?$char_traits@G@std@@@2@V32@AEAVios_base@2@GPEBD_K333@Z@4HA (l)0CF0:?dtor$1@?0??_Fput@?$num_put@GV?$ostreambuf_iterator@GU?$char_traits@G@std@@@std@@@std@@AEBA?AV?$ostreambuf_iterator@GU?$char_traits@G@std@@@2@V32@AEAVios_base@2@GPEBD_K333@Z@4HA (l)0D10:?dtor$2@?0??_Fput@?$num_put@GV?$ostreambuf_iterator@GU?$char_traits@G@std@@@std@@@std@@AEBA?AV?$ostreambuf_iterator@GU?$char_traits@G@std@@@2@V32@AEAVios_base@2@GPEBD_K333@Z@4HA (0C9C: C3)
                      1. 0C 70F3 0D2B 0000:?_Fput@?$num_put@DV?$ostreambuf_iterator@DU?$char_traits@D@std@@@std@@@std@@AEBA?AV?$ostreambuf_iterator@DU?$char_traits@D@std@@@2@V32@AEAVios_base@2@DPEBD_K333@Z (l)0CD0:?dtor$0@?0??_Fput@?$num_put@DV?$ostreambuf_iterator@DU?$char_traits@D@std@@@std@@@std@@AEBA?AV?$ostreambuf_iterator@DU?$char_traits@D@std@@@2@V32@AEAVios_base@2@DPEBD_K333@Z@4HA (l)0CF0:?dtor$1@?0??_Fput@?$num_put@DV?$ostreambuf_iterator@DU?$char_traits@D@std@@@std@@@std@@AEBA?AV?$ostreambuf_iterator@DU?$char_traits@D@std@@@2@V32@AEAVios_base@2@DPEBD_K333@Z@4HA (l)0D10:?dtor$2@?0??_Fput@?$num_put@DV?$ostreambuf_iterator@DU?$char_traits@D@std@@@std@@@std@@AEBA?AV?$ostreambuf_iterator@DU?$char_traits@D@std@@@2@V32@AEAVios_base@2@DPEBD_K333@Z@4HA (0C9C: CC)
                    2802000048C784:
                      0. 0C 4440 048B 0000:?do_put@?$num_put@DV?$ostreambuf_iterator@DU?$char_traits@D@std@@@std@@@std@@MEBA?AV?$ostreambuf_iterator@DU?$char_traits@D@std@@@2@V32@AEAVios_base@2@D_N@Z (l)0410:?dtor$0@?0??do_put@?$num_put@DV?$ostreambuf_iterator@DU?$char_traits@D@std@@@std@@@std@@MEBA?AV?$ostreambuf_iterator@DU?$char_traits@D@std@@@2@V32@AEAVios_base@2@D_N@Z@4HA (l)0430:?dtor$1@?0??do_put@?$num_put@DV?$ostreambuf_iterator@DU?$char_traits@D@std@@@std@@@std@@MEBA?AV?$ostreambuf_iterator@DU?$char_traits@D@std@@@2@V32@AEAVios_base@2@D_N@Z@4HA (l)0450:?dtor$2@?0??do_put@?$num_put@DV?$ostreambuf_iterator@DU?$char_traits@D@std@@@std@@@std@@MEBA?AV?$ostreambuf_iterator@DU?$char_traits@D@std@@@2@V32@AEAVios_base@2@D_N@Z@4HA (l)0470:?dtor$3@?0??do_put@?$num_put@DV?$ostreambuf_iterator@DU?$char_traits@D@std@@@std@@@std@@MEBA?AV?$ostreambuf_iterator@DU?$char_traits@D@std@@@2@V32@AEAVios_base@2@D_N@Z@4HA (03D6: CC)
                      1. 0C 4440 048B 0000:?do_put@?$num_put@GV?$ostreambuf_iterator@GU?$char_traits@G@std@@@std@@@std@@MEBA?AV?$ostreambuf_iterator@GU?$char_traits@G@std@@@2@V32@AEAVios_base@2@G_N@Z (l)0410:?dtor$0@?0??do_put@?$num_put@GV?$ostreambuf_iterator@GU?$char_traits@G@std@@@std@@@std@@MEBA?AV?$ostreambuf_iterator@GU?$char_traits@G@std@@@2@V32@AEAVios_base@2@G_N@Z@4HA (l)0430:?dtor$1@?0??do_put@?$num_put@GV?$ostreambuf_iterator@GU?$char_traits@G@std@@@std@@@std@@MEBA?AV?$ostreambuf_iterator@GU?$char_traits@G@std@@@2@V32@AEAVios_base@2@G_N@Z@4HA (l)0450:?dtor$2@?0??do_put@?$num_put@GV?$ostreambuf_iterator@GU?$char_traits@G@std@@@std@@@std@@MEBA?AV?$ostreambuf_iterator@GU?$char_traits@G@std@@@2@V32@AEAVios_base@2@G_N@Z@4HA (l)0470:?dtor$3@?0??do_put@?$num_put@GV?$ostreambuf_iterator@GU?$char_traits@G@std@@@std@@@std@@MEBA?AV?$ostreambuf_iterator@GU?$char_traits@G@std@@@2@V32@AEAVios_base@2@G_N@Z@4HA (03D6: C3)
                    48:
                      010000488B05:
                        0. 00 0000 0331 0000:?do_put@?$num_put@DV?$ostreambuf_iterator@DU?$char_traits@D@std@@@std@@@std@@MEBA?AV?$ostreambuf_iterator@DU?$char_traits@D@std@@@2@V32@AEAVios_base@2@DO@Z (0233: 4C)
                        1. 00 0000 0332 0000:?do_put@?$num_put@GV?$ostreambuf_iterator@GU?$char_traits@G@std@@@std@@@std@@MEBA?AV?$ostreambuf_iterator@GU?$char_traits@G@std@@@2@V32@AEAVios_base@2@GO@Z (0233: 4C)
                        2. 00 0000 0331 0000:?do_put@?$num_put@DV?$ostreambuf_iterator@DU?$char_traits@D@std@@@std@@@std@@MEBA?AV?$ostreambuf_iterator@DU?$char_traits@D@std@@@2@V32@AEAVios_base@2@DN@Z (0233: C0)
                        3. 00 0000 0332 0000:?do_put@?$num_put@GV?$ostreambuf_iterator@GU?$char_traits@G@std@@@std@@@std@@MEBA?AV?$ostreambuf_iterator@GU?$char_traits@G@std@@@2@V32@AEAVios_base@2@GN@Z (0233: C0)
                      02000048C784:
                        0. 0C F935 0648 0000:?_Iput@?$num_put@DV?$ostreambuf_iterator@DU?$char_traits@D@std@@@std@@@std@@AEBA?AV?$ostreambuf_iterator@DU?$char_traits@D@std@@@2@V32@AEAVios_base@2@DPEAD_K@Z (l)0610:?dtor$0@?0??_Iput@?$num_put@DV?$ostreambuf_iterator@DU?$char_traits@D@std@@@std@@@std@@AEBA?AV?$ostreambuf_iterator@DU?$char_traits@D@std@@@2@V32@AEAVios_base@2@DPEAD_K@Z@4HA (l)0630:?dtor$1@?0??_Iput@?$num_put@DV?$ostreambuf_iterator@DU?$char_traits@D@std@@@std@@@std@@AEBA?AV?$ostreambuf_iterator@DU?$char_traits@D@std@@@2@V32@AEAVios_base@2@DPEAD_K@Z@4HA (05DC: CC)
                        1. 0C F935 0648 0000:?_Iput@?$num_put@GV?$ostreambuf_iterator@GU?$char_traits@G@std@@@std@@@std@@AEBA?AV?$ostreambuf_iterator@GU?$char_traits@G@std@@@2@V32@AEAVios_base@2@GPEAD_K@Z (l)0610:?dtor$0@?0??_Iput@?$num_put@GV?$ostreambuf_iterator@GU?$char_traits@G@std@@@std@@@std@@AEBA?AV?$ostreambuf_iterator@GU?$char_traits@G@std@@@2@V32@AEAVios_base@2@GPEAD_K@Z@4HA (l)0630:?dtor$1@?0??_Iput@?$num_put@GV?$ostreambuf_iterator@GU?$char_traits@G@std@@@std@@@std@@AEBA?AV?$ostreambuf_iterator@GU?$char_traits@G@std@@@2@V32@AEAVios_base@2@GPEAD_K@Z@4HA (05DC: C3)
                    88:
                      000000488D44:
                        0. 8C 299C 00AC (!)0000:?
                        1. 8C 3B64 00AC 0000:?get_year@?$time_get@DV?$istreambuf_iterator@DU?$char_traits@D@std@@@std@@@std@@QEBA?AV?$istreambuf_iterator@DU?$char_traits@D@std@@@2@V32@0AEAVios_base@2@AEAHPEAUtm@@@Z
                        2. 8C 3EA2 00AC 0000:?get_monthname@?$time_get@GV?$istreambuf_iterator@GU?$char_traits@G@std@@@std@@@std@@QEBA?AV?$istreambuf_iterator@GU?$char_traits@G@std@@@2@V32@0AEAVios_base@2@AEAHPEAUtm@@@Z
                        3. 8C 3EA2 00AC (!)0000:?
                      01000048C784:
                        0. 0C 1AA3 03EB 0000:?do_get@?$num_get@DV?$istreambuf_iterator@DU?$char_traits@D@std@@@std@@@std@@MEBA?AV?$istreambuf_iterator@DU?$char_traits@D@std@@@2@V32@0AEAVios_base@2@AEAHAEA_N@Z (l)0350:?dtor$0@?0??do_get@?$num_get@DV?$istreambuf_iterator@DU?$char_traits@D@std@@@std@@@std@@MEBA?AV?$istreambuf_iterator@DU?$char_traits@D@std@@@2@V32@0AEAVios_base@2@AEAHAEA_N@Z@4HA (l)0370:?dtor$1@?0??do_get@?$num_get@DV?$istreambuf_iterator@DU?$char_traits@D@std@@@std@@@std@@MEBA?AV?$istreambuf_iterator@DU?$char_traits@D@std@@@2@V32@0AEAVios_base@2@AEAHAEA_N@Z@4HA (l)0390:?dtor$2@?0??do_get@?$num_get@DV?$istreambuf_iterator@DU?$char_traits@D@std@@@std@@@std@@MEBA?AV?$istreambuf_iterator@DU?$char_traits@D@std@@@2@V32@0AEAVios_base@2@AEAHAEA_N@Z@4HA (l)03B0:?dtor$3@?0??do_get@?$num_get@DV?$istreambuf_iterator@DU?$char_traits@D@std@@@std@@@std@@MEBA?AV?$istreambuf_iterator@DU?$char_traits@D@std@@@2@V32@0AEAVios_base@2@AEAHAEA_N@Z@4HA (l)03D0:?dtor$4@?0??do_get@?$num_get@DV?$istreambuf_iterator@DU?$char_traits@D@std@@@std@@@std@@MEBA?AV?$istreambuf_iterator@DU?$char_traits@D@std@@@2@V32@0AEAVios_base@2@AEAHAEA_N@Z@4HA (REF 0091: ??$use_facet@V?$numpunct@D@std@@@std@@YAAEBV?$numpunct@D@0@AEBVlocale@0@@Z)
                        1. 0C 1AA3 03EB 0000:?do_get@?$num_get@GV?$istreambuf_iterator@GU?$char_traits@G@std@@@std@@@std@@MEBA?AV?$istreambuf_iterator@GU?$char_traits@G@std@@@2@V32@0AEAVios_base@2@AEAHAEA_N@Z (l)0350:?dtor$0@?0??do_get@?$num_get@GV?$istreambuf_iterator@GU?$char_traits@G@std@@@std@@@std@@MEBA?AV?$istreambuf_iterator@GU?$char_traits@G@std@@@2@V32@0AEAVios_base@2@AEAHAEA_N@Z@4HA (l)0370:?dtor$1@?0??do_get@?$num_get@GV?$istreambuf_iterator@GU?$char_traits@G@std@@@std@@@std@@MEBA?AV?$istreambuf_iterator@GU?$char_traits@G@std@@@2@V32@0AEAVios_base@2@AEAHAEA_N@Z@4HA (l)0390:?dtor$2@?0??do_get@?$num_get@GV?$istreambuf_iterator@GU?$char_traits@G@std@@@std@@@std@@MEBA?AV?$istreambuf_iterator@GU?$char_traits@G@std@@@2@V32@0AEAVios_base@2@AEAHAEA_N@Z@4HA (l)03B0:?dtor$3@?0??do_get@?$num_get@GV?$istreambuf_iterator@GU?$char_traits@G@std@@@std@@@std@@MEBA?AV?$istreambuf_iterator@GU?$char_traits@G@std@@@2@V32@0AEAVios_base@2@AEAHAEA_N@Z@4HA (l)03D0:?dtor$4@?0??do_get@?$num_get@GV?$istreambuf_iterator@GU?$char_traits@G@std@@@std@@@std@@MEBA?AV?$istreambuf_iterator@GU?$char_traits@G@std@@@2@V32@0AEAVios_base@2@AEAHAEA_N@Z@4HA (REF 0091: ??$use_facet@V?$numpunct@G@std@@@std@@YAAEBV?$numpunct@G@0@AEBVlocale@0@@Z)
                    98:
                      00000048C744:
                        0. 09 51FF 0158 0000:?do_get@?$money_get@DV?$istreambuf_iterator@DU?$char_traits@D@std@@@std@@@std@@MEBA?AV?$istreambuf_iterator@DU?$char_traits@D@std@@@2@V32@0_NAEAVios_base@2@AEAHAEAV?$basic_string@DU?$char_traits@D@std@@V?$allocator@D@2@@2@@Z (l)0140:?dtor$0@?0??do_get@?$money_get@DV?$istreambuf_iterator@DU?$char_traits@D@std@@@std@@@std@@MEBA?AV?$istreambuf_iterator@DU?$char_traits@D@std@@@2@V32@0_NAEAVios_base@2@AEAHAEAV?$basic_string@DU?$char_traits@D@std@@V?$allocator@D@2@@2@@Z@4HA (REF 006C: ?_Getmfld@?$money_get@DV?$istreambuf_iterator@DU?$char_traits@D@std@@@std@@@std@@AEBA?AV?$basic_string@DU?$char_traits@D@std@@V?$allocator@D@2@@2@AEAV?$istreambuf_iterator@DU?$char_traits@D@std@@@2@0_NAEAVios_base@2@@Z)
                        1. 09 51FF 0158 0000:?do_get@?$money_get@GV?$istreambuf_iterator@GU?$char_traits@G@std@@@std@@@std@@MEBA?AV?$istreambuf_iterator@GU?$char_traits@G@std@@@2@V32@0_NAEAVios_base@2@AEAHAEAV?$basic_string@GU?$char_traits@G@std@@V?$allocator@G@2@@2@@Z (l)0140:?dtor$0@?0??do_get@?$money_get@GV?$istreambuf_iterator@GU?$char_traits@G@std@@@std@@@std@@MEBA?AV?$istreambuf_iterator@GU?$char_traits@G@std@@@2@V32@0_NAEAVios_base@2@AEAHAEAV?$basic_string@GU?$char_traits@G@std@@V?$allocator@G@2@@2@@Z@4HA (REF 006C: ?_Getmfld@?$money_get@GV?$istreambuf_iterator@GU?$char_traits@G@std@@@std@@@std@@AEBA?AV?$basic_string@GU?$char_traits@G@std@@V?$allocator@G@2@@2@AEAV?$istreambuf_iterator@GU?$char_traits@G@std@@@2@0_NAEAVios_base@2@@Z)
                      01000048C784:
                        0. 0C 1F6E 03CB 0000:?do_put@?$time_put@GV?$ostreambuf_iterator@GU?$char_traits@G@std@@@std@@@std@@MEBA?AV?$ostreambuf_iterator@GU?$char_traits@G@std@@@2@V32@AEAVios_base@2@GPEBUtm@@DD@Z (l)03B0:?dtor$0@?0??do_put@?$time_put@GV?$ostreambuf_iterator@GU?$char_traits@G@std@@@std@@@std@@MEBA?AV?$ostreambuf_iterator@GU?$char_traits@G@std@@@2@V32@AEAVios_base@2@GPEBUtm@@DD@Z@4HA
                    B8:
                      00000048C784:
                        0. 0C E98E 01A8 0000:?do_get@?$num_get@DV?$istreambuf_iterator@DU?$char_traits@D@std@@@std@@@std@@MEBA?AV?$istreambuf_iterator@DU?$char_traits@D@std@@@2@V32@0AEAVios_base@2@AEAHAEAPEAX@Z (l)0190:?dtor$0@?0??do_get@?$num_get@DV?$istreambuf_iterator@DU?$char_traits@D@std@@@std@@@std@@MEBA?AV?$istreambuf_iterator@DU?$char_traits@D@std@@@2@V32@0AEAVios_base@2@AEAHAEAPEAX@Z@4HA (015F: CC) (REF 009D: ?_Getifld@?$num_get@DV?$istreambuf_iterator@DU?$char_traits@D@std@@@std@@@std@@AEBAHPEADAEAV?$istreambuf_iterator@DU?$char_traits@D@std@@@2@1HAEBVlocale@2@@Z)
                        1. 0C E98E 01A8 0000:?do_get@?$num_get@GV?$istreambuf_iterator@GU?$char_traits@G@std@@@std@@@std@@MEBA?AV?$istreambuf_iterator@GU?$char_traits@G@std@@@2@V32@0AEAVios_base@2@AEAHAEAPEAX@Z (l)0190:?dtor$0@?0??do_get@?$num_get@GV?$istreambuf_iterator@GU?$char_traits@G@std@@@std@@@std@@MEBA?AV?$istreambuf_iterator@GU?$char_traits@G@std@@@2@V32@0AEAVios_base@2@AEAHAEAPEAX@Z@4HA (015F: CC) (REF 009D: ?_Getifld@?$num_get@GV?$istreambuf_iterator@GU?$char_traits@G@std@@@std@@@std@@AEBAHPEADAEAV?$istreambuf_iterator@GU?$char_traits@G@std@@@2@1HAEBVlocale@2@@Z)
                        2. 0C E98E 01A8 (!)0000:? (l!)0190:? (015F: C3)
                      020000488B84:
                        0. 11 65FC 0A03 0000:?do_get_date@?$time_get@GV?$istreambuf_iterator@GU?$char_traits@G@std@@@std@@@std@@MEBA?AV?$istreambuf_iterator@GU?$char_traits@G@std@@@2@V32@0AEAVios_base@2@AEAHPEAUtm@@@Z (09CC: 02)
                        1. 11 65FC 09FE 0000:?do_get_date@?$time_get@DV?$istreambuf_iterator@DU?$char_traits@D@std@@@std@@@std@@MEBA?AV?$istreambuf_iterator@DU?$char_traits@D@std@@@2@V32@0AEAVios_base@2@AEAHPEAUtm@@@Z (09CC: C3)
                    C8000000488B05:
                      0. 00 0000 00CE 0000:?do_put@?$num_put@DV?$ostreambuf_iterator@DU?$char_traits@D@std@@@std@@@std@@MEBA?AV?$ostreambuf_iterator@DU?$char_traits@D@std@@@2@V32@AEAVios_base@2@DPEBX@Z (00AD: C3)
                      1. 00 0000 00CF 0000:?do_put@?$num_put@GV?$ostreambuf_iterator@GU?$char_traits@G@std@@@std@@@std@@MEBA?AV?$ostreambuf_iterator@GU?$char_traits@G@std@@@2@V32@AEAVios_base@2@GPEBX@Z (00AD: 5E)
                    D800000048:
                      8B:
                        05:
                          0. 00 0000 00F6 0000:?do_put@?$num_put@DV?$ostreambuf_iterator@DU?$char_traits@D@std@@@std@@@std@@MEBA?AV?$ostreambuf_iterator@DU?$char_traits@D@std@@@2@V32@AEAVios_base@2@D_K@Z (00D5: C3) (REF 0048: ??_C@_02BDDLJJBK@lu?$AA@)
                          1. 00 0000 00F6 0000:?do_put@?$num_put@DV?$ostreambuf_iterator@DU?$char_traits@D@std@@@std@@@std@@MEBA?AV?$ostreambuf_iterator@DU?$char_traits@D@std@@@2@V32@AEAVios_base@2@D_J@Z (00D5: C3) (REF 0048: ??_C@_02EAOCLKAK@ld?$AA@)
                          2. 00 0000 00F7 0000:?do_put@?$num_put@GV?$ostreambuf_iterator@GU?$char_traits@G@std@@@std@@@std@@MEBA?AV?$ostreambuf_iterator@GU?$char_traits@G@std@@@2@V32@AEAVios_base@2@G_K@Z (00D5: 5E) (REF 0048: ??_C@_02BDDLJJBK@lu?$AA@)
                          3. 00 0000 00F7 0000:?do_put@?$num_put@GV?$ostreambuf_iterator@GU?$char_traits@G@std@@@std@@@std@@MEBA?AV?$ostreambuf_iterator@GU?$char_traits@G@std@@@2@V32@AEAVios_base@2@G_J@Z (00D5: 5E) (REF 0048: ??_C@_02EAOCLKAK@ld?$AA@)
                        84:
                          0. 6B 8C5E 015E 0000:?do_unshift@?$codecvt@GDU__mbstate_t@@@std@@MEBAHAEAU__mbstate_t@@PEAD1AEAPEAD@Z
                      C784:
                        0. 0C 4332 0228 0000:?do_get@?$num_get@GV?$istreambuf_iterator@GU?$char_traits@G@std@@@std@@@std@@MEBA?AV?$istreambuf_iterator@GU?$char_traits@G@std@@@2@V32@0AEAVios_base@2@AEAHAEAG@Z (l)0210:?dtor$0@?0??do_get@?$num_get@GV?$istreambuf_iterator@GU?$char_traits@G@std@@@std@@@std@@MEBA?AV?$istreambuf_iterator@GU?$char_traits@G@std@@@2@V32@0AEAVios_base@2@AEAHAEAG@Z@4HA (01EB: 8B) (REF 00A6: ?_Getifld@?$num_get@GV?$istreambuf_iterator@GU?$char_traits@G@std@@@std@@@std@@AEBAHPEADAEAV?$istreambuf_iterator@GU?$char_traits@G@std@@@2@1HAEBVlocale@2@@Z)
                        1. 0C 4332 0228 0000:?do_get@?$num_get@DV?$istreambuf_iterator@DU?$char_traits@D@std@@@std@@@std@@MEBA?AV?$istreambuf_iterator@DU?$char_traits@D@std@@@2@V32@0AEAVios_base@2@AEAHAEAG@Z (l)0210:?dtor$0@?0??do_get@?$num_get@DV?$istreambuf_iterator@DU?$char_traits@D@std@@@std@@@std@@MEBA?AV?$istreambuf_iterator@DU?$char_traits@D@std@@@2@V32@0AEAVios_base@2@AEAHAEAG@Z@4HA (01EB: 8B) (REF 00A6: ?_Getifld@?$num_get@DV?$istreambuf_iterator@DU?$char_traits@D@std@@@std@@@std@@AEBAHPEADAEAV?$istreambuf_iterator@DU?$char_traits@D@std@@@2@1HAEBVlocale@2@@Z)
                        2. 0C 4332 0218 0000:?do_get@?$num_get@DV?$istreambuf_iterator@DU?$char_traits@D@std@@@std@@@std@@MEBA?AV?$istreambuf_iterator@DU?$char_traits@D@std@@@2@V32@0AEAVios_base@2@AEAHAEAI@Z (l)0200:?dtor$0@?0??do_get@?$num_get@DV?$istreambuf_iterator@DU?$char_traits@D@std@@@std@@@std@@MEBA?AV?$istreambuf_iterator@DU?$char_traits@D@std@@@2@V32@0AEAVios_base@2@AEAHAEAI@Z@4HA (01EB: C3) (REF 00A6: ?_Getifld@?$num_get@DV?$istreambuf_iterator@DU?$char_traits@D@std@@@std@@@std@@AEBAHPEADAEAV?$istreambuf_iterator@DU?$char_traits@D@std@@@2@1HAEBVlocale@2@@Z)
                        3. 0C 4332 0218 0000:?do_get@?$num_get@GV?$istreambuf_iterator@GU?$char_traits@G@std@@@std@@@std@@MEBA?AV?$istreambuf_iterator@GU?$char_traits@G@std@@@2@V32@0AEAVios_base@2@AEAHAEAI@Z (l)0200:?dtor$0@?0??do_get@?$num_get@GV?$istreambuf_iterator@GU?$char_traits@G@std@@@std@@@std@@MEBA?AV?$istreambuf_iterator@GU?$char_traits@G@std@@@2@V32@0AEAVios_base@2@AEAHAEAI@Z@4HA (01EB: C3) (REF 00A6: ?_Getifld@?$num_get@GV?$istreambuf_iterator@GU?$char_traits@G@std@@@std@@@std@@AEBAHPEADAEAV?$istreambuf_iterator@GU?$char_traits@G@std@@@2@1HAEBVlocale@2@@Z)
                        4. 0C 636C 01BB (!)0000:? (l!)01A0:?
                        5. 0C 8CA1 01BB 0000:?do_get@?$num_get@DV?$istreambuf_iterator@DU?$char_traits@D@std@@@std@@@std@@MEBA?AV?$istreambuf_iterator@DU?$char_traits@D@std@@@2@V32@0AEAVios_base@2@AEAHAEAM@Z (l)01A0:?dtor$0@?0??do_get@?$num_get@DV?$istreambuf_iterator@DU?$char_traits@D@std@@@std@@@std@@MEBA?AV?$istreambuf_iterator@DU?$char_traits@D@std@@@2@V32@0AEAVios_base@2@AEAHAEAM@Z@4HA (REF 009B: ?_Getffld@?$num_get@DV?$istreambuf_iterator@DU?$char_traits@D@std@@@std@@@std@@AEBAHPEADAEAV?$istreambuf_iterator@DU?$char_traits@D@std@@@2@1AEBVlocale@2@@Z)
                        6. 0C 8CA1 01BB 0000:?do_get@?$num_get@GV?$istreambuf_iterator@GU?$char_traits@G@std@@@std@@@std@@MEBA?AV?$istreambuf_iterator@GU?$char_traits@G@std@@@2@V32@0AEAVios_base@2@AEAHAEAM@Z (l)01A0:?dtor$0@?0??do_get@?$num_get@GV?$istreambuf_iterator@GU?$char_traits@G@std@@@std@@@std@@MEBA?AV?$istreambuf_iterator@GU?$char_traits@G@std@@@2@V32@0AEAVios_base@2@AEAHAEAM@Z@4HA (REF 009B: ?_Getffld@?$num_get@GV?$istreambuf_iterator@GU?$char_traits@G@std@@@std@@@std@@AEBAHPEADAEAV?$istreambuf_iterator@GU?$char_traits@G@std@@@2@1AEBVlocale@2@@Z)
                    E8000000488B84:
                      0. 90 1499 02B5 0000:?do_out@?$codecvt@GDU__mbstate_t@@@std@@MEBAHAEAU__mbstate_t@@PEBG1AEAPEBGPEAD3AEAPEAD@Z
                    F8:
                      00000048:
                        8D84:
                          0. A6 278B 0174 0000:?do_length@?$codecvt@GDU__mbstate_t@@@std@@MEBAHAEBU__mbstate_t@@PEBD1_K@Z
                        C784:
                          0. 0C EC43 030B 0000:?do_get@?$money_get@DV?$istreambuf_iterator@DU?$char_traits@D@std@@@std@@@std@@MEBA?AV?$istreambuf_iterator@DU?$char_traits@D@std@@@2@V32@0_NAEAVios_base@2@AEAHAEAO@Z (l)02D0:?dtor$0@?0??do_get@?$money_get@DV?$istreambuf_iterator@DU?$char_traits@D@std@@@std@@@std@@MEBA?AV?$istreambuf_iterator@DU?$char_traits@D@std@@@2@V32@0_NAEAVios_base@2@AEAHAEAO@Z@4HA (l)02F0:?dtor$1@?0??do_get@?$money_get@DV?$istreambuf_iterator@DU?$char_traits@D@std@@@std@@@std@@MEBA?AV?$istreambuf_iterator@DU?$char_traits@D@std@@@2@V32@0_NAEAVios_base@2@AEAHAEAO@Z@4HA (029B: CC)
                          1. 0C EC43 030B 0000:?do_get@?$money_get@GV?$istreambuf_iterator@GU?$char_traits@G@std@@@std@@@std@@MEBA?AV?$istreambuf_iterator@GU?$char_traits@G@std@@@2@V32@0_NAEAVios_base@2@AEAHAEAO@Z (l)02D0:?dtor$0@?0??do_get@?$money_get@GV?$istreambuf_iterator@GU?$char_traits@G@std@@@std@@@std@@MEBA?AV?$istreambuf_iterator@GU?$char_traits@G@std@@@2@V32@0_NAEAVios_base@2@AEAHAEAO@Z@4HA (l)02F0:?dtor$1@?0??do_get@?$money_get@GV?$istreambuf_iterator@GU?$char_traits@G@std@@@std@@@std@@MEBA?AV?$istreambuf_iterator@GU?$char_traits@G@std@@@2@V32@0_NAEAVios_base@2@AEAHAEAO@Z@4HA (029B: C3)
                      03000048C784:
                        0. 0C DE19 119F 0000:?_Getmfld@?$money_get@DV?$istreambuf_iterator@DU?$char_traits@D@std@@@std@@@std@@AEBA?AV?$basic_string@DU?$char_traits@D@std@@V?$allocator@D@2@@2@AEAV?$istreambuf_iterator@DU?$char_traits@D@std@@@2@0_NAEAVios_base@2@@Z (l)0F70:?dtor$0@?0??_Getmfld@?$money_get@DV?$istreambuf_iterator@DU?$char_traits@D@std@@@std@@@std@@AEBA?AV?$basic_string@DU?$char_traits@D@std@@V?$allocator@D@2@@2@AEAV?$istreambuf_iterator@DU?$char_traits@D@std@@@2@0_NAEAVios_base@2@@Z@4HA (l)0F90:?dtor$1@?0??_Getmfld@?$money_get@DV?$istreambuf_iterator@DU?$char_traits@D@std@@@std@@@std@@AEBA?AV?$basic_string@DU?$char_traits@D@std@@V?$allocator@D@2@@2@AEAV?$istreambuf_iterator@DU?$char_traits@D@std@@@2@0_NAEAVios_base@2@@Z@4HA (l)0FB0:?dtor$2@?0??_Getmfld@?$money_get@DV?$istreambuf_iterator@DU?$char_traits@D@std@@@std@@@std@@AEBA?AV?$basic_string@DU?$char_traits@D@std@@V?$allocator@D@2@@2@AEAV?$istreambuf_iterator@DU?$char_traits@D@std@@@2@0_NAEAVios_base@2@@Z@4HA (l)0FD0:?dtor$3@?0??_Getmfld@?$money_get@DV?$istreambuf_iterator@DU?$char_traits@D@std@@@std@@@std@@AEBA?AV?$basic_string@DU?$char_traits@D@std@@V?$allocator@D@2@@2@AEAV?$istreambuf_iterator@DU?$char_traits@D@std@@@2@0_NAEAVios_base@2@@Z@4HA (l)0FF0:?dtor$4@?0??_Getmfld@?$money_get@DV?$istreambuf_iterator@DU?$char_traits@D@std@@@std@@@std@@AEBA?AV?$basic_string@DU?$char_traits@D@std@@V?$allocator@D@2@@2@AEAV?$istreambuf_iterator@DU?$char_traits@D@std@@@2@0_NAEAVios_base@2@@Z@4HA (l)1010:?dtor$5@?0??_Getmfld@?$money_get@DV?$istreambuf_iterator@DU?$char_traits@D@std@@@std@@@std@@AEBA?AV?$basic_string@DU?$char_traits@D@std@@V?$allocator@D@2@@2@AEAV?$istreambuf_iterator@DU?$char_traits@D@std@@@2@0_NAEAVios_base@2@@Z@4HA (l)1040:?dtor$6@?0??_Getmfld@?$money_get@DV?$istreambuf_iterator@DU?$char_traits@D@std@@@std@@@std@@AEBA?AV?$basic_string@DU?$char_traits@D@std@@V?$allocator@D@2@@2@AEAV?$istreambuf_iterator@DU?$char_traits@D@std@@@2@0_NAEAVios_base@2@@Z@4HA (l)1070:?dtor$7@?0??_Getmfld@?$money_get@DV?$istreambuf_iterator@DU?$char_traits@D@std@@@std@@@std@@AEBA?AV?$basic_string@DU?$char_traits@D@std@@V?$allocator@D@2@@2@AEAV?$istreambuf_iterator@DU?$char_traits@D@std@@@2@0_NAEAVios_base@2@@Z@4HA (l)1090:?dtor$8@?0??_Getmfld@?$money_get@DV?$istreambuf_iterator@DU?$char_traits@D@std@@@std@@@std@@AEBA?AV?$basic_string@DU?$char_traits@D@std@@V?$allocator@D@2@@2@AEAV?$istreambuf_iterator@DU?$char_traits@D@std@@@2@0_NAEAVios_base@2@@Z@4HA (l)10C0:?dtor$9@?0??_Getmfld@?$money_get@DV?$istreambuf_iterator@DU?$char_traits@D@std@@@std@@@std@@AEBA?AV?$basic_string@DU?$char_traits@D@std@@V?$allocator@D@2@@2@AEAV?$istreambuf_iterator@DU?$char_traits@D@std@@@2@0_NAEAVios_base@2@@Z@4HA (l)10F0:?dtor$10@?0??_Getmfld@?$money_get@DV?$istreambuf_iterator@DU?$char_traits@D@std@@@std@@@std@@AEBA?AV?$basic_string@DU?$char_traits@D@std@@V?$allocator@D@2@@2@AEAV?$istreambuf_iterator@DU?$char_traits@D@std@@@2@0_NAEAVios_base@2@@Z@4HA (l)1110:?dtor$11@?0??_Getmfld@?$money_get@DV?$istreambuf_iterator@DU?$char_traits@D@std@@@std@@@std@@AEBA?AV?$basic_string@DU?$char_traits@D@std@@V?$allocator@D@2@@2@AEAV?$istreambuf_iterator@DU?$char_traits@D@std@@@2@0_NAEAVios_base@2@@Z@4HA (l)1130:?dtor$12@?0??_Getmfld@?$money_get@DV?$istreambuf_iterator@DU?$char_traits@D@std@@@std@@@std@@AEBA?AV?$basic_string@DU?$char_traits@D@std@@V?$allocator@D@2@@2@AEAV?$istreambuf_iterator@DU?$char_traits@D@std@@@2@0_NAEAVios_base@2@@Z@4HA (l)1150:?dtor$13@?0??_Getmfld@?$money_get@DV?$istreambuf_iterator@DU?$char_traits@D@std@@@std@@@std@@AEBA?AV?$basic_string@DU?$char_traits@D@std@@V?$allocator@D@2@@2@AEAV?$istreambuf_iterator@DU?$char_traits@D@std@@@2@0_NAEAVios_base@2@@Z@4HA (l)1170:?dtor$14@?0??_Getmfld@?$money_get@DV?$istreambuf_iterator@DU?$char_traits@D@std@@@std@@@std@@AEBA?AV?$basic_string@DU?$char_traits@D@std@@V?$allocator@D@2@@2@AEAV?$istreambuf_iterator@DU?$char_traits@D@std@@@2@0_NAEAVios_base@2@@Z@4HA (0F39: CC)
                        1. 0C DE19 119F 0000:?_Getmfld@?$money_get@GV?$istreambuf_iterator@GU?$char_traits@G@std@@@std@@@std@@AEBA?AV?$basic_string@GU?$char_traits@G@std@@V?$allocator@G@2@@2@AEAV?$istreambuf_iterator@GU?$char_traits@G@std@@@2@0_NAEAVios_base@2@@Z (l)0F70:?dtor$0@?0??_Getmfld@?$money_get@GV?$istreambuf_iterator@GU?$char_traits@G@std@@@std@@@std@@AEBA?AV?$basic_string@GU?$char_traits@G@std@@V?$allocator@G@2@@2@AEAV?$istreambuf_iterator@GU?$char_traits@G@std@@@2@0_NAEAVios_base@2@@Z@4HA (l)0F90:?dtor$1@?0??_Getmfld@?$money_get@GV?$istreambuf_iterator@GU?$char_traits@G@std@@@std@@@std@@AEBA?AV?$basic_string@GU?$char_traits@G@std@@V?$allocator@G@2@@2@AEAV?$istreambuf_iterator@GU?$char_traits@G@std@@@2@0_NAEAVios_base@2@@Z@4HA (l)0FB0:?dtor$2@?0??_Getmfld@?$money_get@GV?$istreambuf_iterator@GU?$char_traits@G@std@@@std@@@std@@AEBA?AV?$basic_string@GU?$char_traits@G@std@@V?$allocator@G@2@@2@AEAV?$istreambuf_iterator@GU?$char_traits@G@std@@@2@0_NAEAVios_base@2@@Z@4HA (l)0FD0:?dtor$3@?0??_Getmfld@?$money_get@GV?$istreambuf_iterator@GU?$char_traits@G@std@@@std@@@std@@AEBA?AV?$basic_string@GU?$char_traits@G@std@@V?$allocator@G@2@@2@AEAV?$istreambuf_iterator@GU?$char_traits@G@std@@@2@0_NAEAVios_base@2@@Z@4HA (l)0FF0:?dtor$4@?0??_Getmfld@?$money_get@GV?$istreambuf_iterator@GU?$char_traits@G@std@@@std@@@std@@AEBA?AV?$basic_string@GU?$char_traits@G@std@@V?$allocator@G@2@@2@AEAV?$istreambuf_iterator@GU?$char_traits@G@std@@@2@0_NAEAVios_base@2@@Z@4HA (l)1010:?dtor$5@?0??_Getmfld@?$money_get@GV?$istreambuf_iterator@GU?$char_traits@G@std@@@std@@@std@@AEBA?AV?$basic_string@GU?$char_traits@G@std@@V?$allocator@G@2@@2@AEAV?$istreambuf_iterator@GU?$char_traits@G@std@@@2@0_NAEAVios_base@2@@Z@4HA (l)1040:?dtor$6@?0??_Getmfld@?$money_get@GV?$istreambuf_iterator@GU?$char_traits@G@std@@@std@@@std@@AEBA?AV?$basic_string@GU?$char_traits@G@std@@V?$allocator@G@2@@2@AEAV?$istreambuf_iterator@GU?$char_traits@G@std@@@2@0_NAEAVios_base@2@@Z@4HA (l)1070:?dtor$7@?0??_Getmfld@?$money_get@GV?$istreambuf_iterator@GU?$char_traits@G@std@@@std@@@std@@AEBA?AV?$basic_string@GU?$char_traits@G@std@@V?$allocator@G@2@@2@AEAV?$istreambuf_iterator@GU?$char_traits@G@std@@@2@0_NAEAVios_base@2@@Z@4HA (l)1090:?dtor$8@?0??_Getmfld@?$money_get@GV?$istreambuf_iterator@GU?$char_traits@G@std@@@std@@@std@@AEBA?AV?$basic_string@GU?$char_traits@G@std@@V?$allocator@G@2@@2@AEAV?$istreambuf_iterator@GU?$char_traits@G@std@@@2@0_NAEAVios_base@2@@Z@4HA (l)10C0:?dtor$9@?0??_Getmfld@?$money_get@GV?$istreambuf_iterator@GU?$char_traits@G@std@@@std@@@std@@AEBA?AV?$basic_string@GU?$char_traits@G@std@@V?$allocator@G@2@@2@AEAV?$istreambuf_iterator@GU?$char_traits@G@std@@@2@0_NAEAVios_base@2@@Z@4HA (l)10F0:?dtor$10@?0??_Getmfld@?$money_get@GV?$istreambuf_iterator@GU?$char_traits@G@std@@@std@@@std@@AEBA?AV?$basic_string@GU?$char_traits@G@std@@V?$allocator@G@2@@2@AEAV?$istreambuf_iterator@GU?$char_traits@G@std@@@2@0_NAEAVios_base@2@@Z@4HA (l)1110:?dtor$11@?0??_Getmfld@?$money_get@GV?$istreambuf_iterator@GU?$char_traits@G@std@@@std@@@std@@AEBA?AV?$basic_string@GU?$char_traits@G@std@@V?$allocator@G@2@@2@AEAV?$istreambuf_iterator@GU?$char_traits@G@std@@@2@0_NAEAVios_base@2@@Z@4HA (l)1130:?dtor$12@?0??_Getmfld@?$money_get@GV?$istreambuf_iterator@GU?$char_traits@G@std@@@std@@@std@@AEBA?AV?$basic_string@GU?$char_traits@G@std@@V?$allocator@G@2@@2@AEAV?$istreambuf_iterator@GU?$char_traits@G@std@@@2@0_NAEAVios_base@2@@Z@4HA (l)1150:?dtor$13@?0??_Getmfld@?$money_get@GV?$istreambuf_iterator@GU?$char_traits@G@std@@@std@@@std@@AEBA?AV?$basic_string@GU?$char_traits@G@std@@V?$allocator@G@2@@2@AEAV?$istreambuf_iterator@GU?$char_traits@G@std@@@2@0_NAEAVios_base@2@@Z@4HA (l)1170:?dtor$14@?0??_Getmfld@?$money_get@GV?$istreambuf_iterator@GU?$char_traits@G@std@@@std@@@std@@AEBA?AV?$basic_string@GU?$char_traits@G@std@@V?$allocator@G@2@@2@AEAV?$istreambuf_iterator@GU?$char_traits@G@std@@@2@0_NAEAVios_base@2@@Z@4HA (0F39: C3)
                  83EC:
                    48:
                      488B4424604C:
                        0. 11 AA9E 009E 0000:?do_get_weekday@?$time_get@DV?$istreambuf_iterator@DU?$char_traits@D@std@@@std@@@std@@MEBA?AV?$istreambuf_iterator@DU?$char_traits@D@std@@@2@V32@0AEAVios_base@2@AEAHPEAUtm@@@Z (REF 0031: ??$_Getloctxt@DV?$istreambuf_iterator@DU?$char_traits@D@std@@@std@@@std@@YAHAEAV?$istreambuf_iterator@DU?$char_traits@D@std@@@0@0_KPEBD@Z)
                        1. 11 AA9E 009E 0000:?do_get_weekday@?$time_get@GV?$istreambuf_iterator@GU?$char_traits@G@std@@@std@@@std@@MEBA?AV?$istreambuf_iterator@GU?$char_traits@G@std@@@2@V32@0AEAVios_base@2@AEAHPEAUtm@@@Z (REF 0031: ??$_Getloctxt@GV?$istreambuf_iterator@GU?$char_traits@G@std@@@std@@@std@@YAHAEAV?$istreambuf_iterator@GU?$char_traits@G@std@@@0@0_KPEBG@Z)
                        2. 11 D8CF 009E 0000:?do_get_monthname@?$time_get@DV?$istreambuf_iterator@DU?$char_traits@D@std@@@std@@@std@@MEBA?AV?$istreambuf_iterator@DU?$char_traits@D@std@@@2@V32@0AEAVios_base@2@AEAHPEAUtm@@@Z (REF 0031: ??$_Getloctxt@DV?$istreambuf_iterator@DU?$char_traits@D@std@@@std@@@std@@YAHAEAV?$istreambuf_iterator@DU?$char_traits@D@std@@@0@0_KPEBD@Z)
                        3. 11 D8CF 009E 0000:?do_get_monthname@?$time_get@GV?$istreambuf_iterator@GU?$char_traits@G@std@@@std@@@std@@MEBA?AV?$istreambuf_iterator@GU?$char_traits@G@std@@@2@V32@0AEAVios_base@2@AEAHPEAUtm@@@Z (REF 0031: ??$_Getloctxt@GV?$istreambuf_iterator@GU?$char_traits@G@std@@@std@@@std@@YAHAEAV?$istreambuf_iterator@GU?$char_traits@G@std@@@0@0_KPEBG@Z)
                      EB:
                        21488B4424:
                          0. 0F FDD6 00A4 0000:?_Put@?$money_put@DV?$ostreambuf_iterator@DU?$char_traits@D@std@@@std@@@std@@CA?AV?$ostreambuf_iterator@DU?$char_traits@D@std@@@2@V32@V?$_String_const_iterator@DU?$char_traits@D@std@@V?$allocator@D@2@@2@_K@Z (0035: B6)
                          1. 0F FDD6 00A4 0000:?_Put@?$money_put@GV?$ostreambuf_iterator@GU?$char_traits@G@std@@@std@@@std@@CA?AV?$ostreambuf_iterator@GU?$char_traits@G@std@@@2@V32@V?$_String_const_iterator@GU?$char_traits@G@std@@V?$allocator@G@2@@2@_K@Z (0035: B7)
                        2A488B8424:
                          0. 15 7784 00A1 0000:?_Put@?$num_put@DV?$ostreambuf_iterator@DU?$char_traits@D@std@@@std@@@std@@AEBA?AV?$ostreambuf_iterator@DU?$char_traits@D@std@@@2@V32@PEBD_K@Z (006B: C3)
                          1. 15 7784 00C0 0000:?_Putc@?$num_put@DV?$ostreambuf_iterator@DU?$char_traits@D@std@@@std@@@std@@AEBA?AV?$ostreambuf_iterator@DU?$char_traits@D@std@@@2@V32@PEBD_K@Z (006B: 48)
                          2. 15 7784 00C1 0000:?_Putc@?$num_put@GV?$ostreambuf_iterator@GU?$char_traits@G@std@@@std@@@std@@AEBA?AV?$ostreambuf_iterator@GU?$char_traits@G@std@@@2@V32@PEBD_K@Z (006B: A4)
                        2B488B8424:
                          0. 15 7784 00A2 0000:?_Put@?$num_put@GV?$ostreambuf_iterator@GU?$char_traits@G@std@@@std@@@std@@AEBA?AV?$ostreambuf_iterator@GU?$char_traits@G@std@@@2@V32@PEBG_K@Z
                    58:
                      488D44243048:
                        0. 5A 1F1A 007A 0000:?put@?$num_put@DV?$ostreambuf_iterator@DU?$char_traits@D@std@@@std@@@std@@QEBA?AV?$ostreambuf_iterator@DU?$char_traits@D@std@@@2@V32@AEAVios_base@2@DO@Z
                        1. 5A 7737 007A 0000:?put@?$num_put@DV?$ostreambuf_iterator@DU?$char_traits@D@std@@@std@@@std@@QEBA?AV?$ostreambuf_iterator@DU?$char_traits@D@std@@@2@V32@AEAVios_base@2@DN@Z
                        2. 5B 9F0F 007B 0000:?put@?$num_put@GV?$ostreambuf_iterator@GU?$char_traits@G@std@@@std@@@std@@QEBA?AV?$ostreambuf_iterator@GU?$char_traits@G@std@@@2@V32@AEAVios_base@2@GO@Z
                        3. 5B F722 007B 0000:?put@?$num_put@GV?$ostreambuf_iterator@GU?$char_traits@G@std@@@std@@@std@@QEBA?AV?$ostreambuf_iterator@GU?$char_traits@G@std@@@2@V32@AEAVios_base@2@GN@Z
                      C74424300000:
                        0. 2D 57BC 010D 0000:?do_get_year@?$time_get@DV?$istreambuf_iterator@DU?$char_traits@D@std@@@std@@@std@@MEBA?AV?$istreambuf_iterator@DU?$char_traits@D@std@@@2@V32@0AEAVios_base@2@AEAHPEAUtm@@@Z (REF 004D: ?_Getint@?$time_get@DV?$istreambuf_iterator@DU?$char_traits@D@std@@@std@@@std@@AEBAHAEAV?$istreambuf_iterator@DU?$char_traits@D@std@@@2@0HHAEAH@Z)
                        1. 2D 57BC 010D 0000:?do_get_year@?$time_get@GV?$istreambuf_iterator@GU?$char_traits@G@std@@@std@@@std@@MEBA?AV?$istreambuf_iterator@GU?$char_traits@G@std@@@2@V32@0AEAVios_base@2@AEAHPEAUtm@@@Z (REF 004D: ?_Getint@?$time_get@GV?$istreambuf_iterator@GU?$char_traits@G@std@@@std@@@std@@AEBAHAEAV?$istreambuf_iterator@GU?$char_traits@G@std@@@2@0HHAEAH@Z)
                    68488B84248000:
                      0. 0E 56B2 01FB 0000:?do_get_time@?$time_get@GV?$istreambuf_iterator@GU?$char_traits@G@std@@@std@@@std@@MEBA?AV?$istreambuf_iterator@GU?$char_traits@G@std@@@2@V32@0AEAVios_base@2@AEAHPEAUtm@@@Z (01CB: 5E)
                      1. 0E 56B2 01FA 0000:?do_get_time@?$time_get@DV?$istreambuf_iterator@DU?$char_traits@D@std@@@std@@@std@@MEBA?AV?$istreambuf_iterator@DU?$char_traits@D@std@@@2@V32@0AEAVios_base@2@AEAHPEAUtm@@@Z (01CB: C3)
              894C24084883EC38837C2440007502EB23:
                0. 1F 2D12 0048 0000:_invoke_watson_if_error
          668954241048894C24084883EC28EB0E488B44244048:
            0. 28 D93A 005F 0000:?do_scan_not@?$ctype@G@std@@MEBAPEBGFPEBG0@Z (0009: 74)
            1. 28 D93A 005F 0000:?do_scan_is@?$ctype@G@std@@MEBAPEBGFPEBG0@Z (0009: 75)
          8954241048894C24084881EC:
            3802000048C78424F000:
              0. 09 0B72 0E3B 0000:?_Makewloc@_Locimp@locale@std@@CAXAEBV_Locinfo@3@HPEAV123@PEBV23@@Z (l)0CA0:?dtor$0@?0??_Makewloc@_Locimp@locale@std@@CAXAEBV_Locinfo@3@HPEAV123@PEBV23@@Z@4HA (l)0CC0:?dtor$1@?0??_Makewloc@_Locimp@locale@std@@CAXAEBV_Locinfo@3@HPEAV123@PEBV23@@Z@4HA (l)0CE0:?dtor$2@?0??_Makewloc@_Locimp@locale@std@@CAXAEBV_Locinfo@3@HPEAV123@PEBV23@@Z@4HA (l)0D00:?dtor$3@?0??_Makewloc@_Locimp@locale@std@@CAXAEBV_Locinfo@3@HPEAV123@PEBV23@@Z@4HA (l)0D20:?dtor$4@?0??_Makewloc@_Locimp@locale@std@@CAXAEBV_Locinfo@3@HPEAV123@PEBV23@@Z@4HA (l)0D40:?dtor$5@?0??_Makewloc@_Locimp@locale@std@@CAXAEBV_Locinfo@3@HPEAV123@PEBV23@@Z@4HA (l)0D60:?dtor$6@?0??_Makewloc@_Locimp@locale@std@@CAXAEBV_Locinfo@3@HPEAV123@PEBV23@@Z@4HA (l)0D80:?dtor$7@?0??_Makewloc@_Locimp@locale@std@@CAXAEBV_Locinfo@3@HPEAV123@PEBV23@@Z@4HA (l)0DA0:?dtor$8@?0??_Makewloc@_Locimp@locale@std@@CAXAEBV_Locinfo@3@HPEAV123@PEBV23@@Z@4HA (l)0DC0:?dtor$9@?0??_Makewloc@_Locimp@locale@std@@CAXAEBV_Locinfo@3@HPEAV123@PEBV23@@Z@4HA (l)0DE0:?dtor$10@?0??_Makewloc@_Locimp@locale@std@@CAXAEBV_Locinfo@3@HPEAV123@PEBV23@@Z@4HA (l)0E00:?dtor$11@?0??_Makewloc@_Locimp@locale@std@@CAXAEBV_Locinfo@3@HPEAV123@PEBV23@@Z@4HA (l)0E20:?dtor$12@?0??_Makewloc@_Locimp@locale@std@@CAXAEBV_Locinfo@3@HPEAV123@PEBV23@@Z@4HA
            7801000048C78424A000:
              0. 09 0B72 08AB 0000:?_Makexloc@_Locimp@locale@std@@CAXAEBV_Locinfo@3@HPEAV123@PEBV23@@Z (l)07B0:?dtor$0@?0??_Makexloc@_Locimp@locale@std@@CAXAEBV_Locinfo@3@HPEAV123@PEBV23@@Z@4HA (l)07D0:?dtor$1@?0??_Makexloc@_Locimp@locale@std@@CAXAEBV_Locinfo@3@HPEAV123@PEBV23@@Z@4HA (l)07F0:?dtor$2@?0??_Makexloc@_Locimp@locale@std@@CAXAEBV_Locinfo@3@HPEAV123@PEBV23@@Z@4HA (l)0810:?dtor$3@?0??_Makexloc@_Locimp@locale@std@@CAXAEBV_Locinfo@3@HPEAV123@PEBV23@@Z@4HA (l)0830:?dtor$4@?0??_Makexloc@_Locimp@locale@std@@CAXAEBV_Locinfo@3@HPEAV123@PEBV23@@Z@4HA (l)0850:?dtor$5@?0??_Makexloc@_Locimp@locale@std@@CAXAEBV_Locinfo@3@HPEAV123@PEBV23@@Z@4HA (l)0870:?dtor$6@?0??_Makexloc@_Locimp@locale@std@@CAXAEBV_Locinfo@3@HPEAV123@PEBV23@@Z@4HA (l)0890:?dtor$7@?0??_Makexloc@_Locimp@locale@std@@CAXAEBV_Locinfo@3@HPEAV123@PEBV23@@Z@4HA
          B858100000E8........482BE0483BD148899C245010:
            0. FF E85F 02E0 (l)0000:globexp2
        8BDC4881EC880000004885D249895BF849897BE04D8963D84D89:
          0. FF C9B7 01F7 0000:__splay
      664489442418488954241048894C240856574883EC48EB17488B44:
        0. 10 BA26 0089 0000:?_Rep@?$money_put@GV?$ostreambuf_iterator@GU?$char_traits@G@std@@@std@@@std@@CA?AV?$ostreambuf_iterator@GU?$char_traits@G@std@@@2@V32@G_K@Z
      B888280000E8........482BE048899C24802800004889BC246828:
        0. 0F 2993 0481 (l)0000:r_sort_a
  8B:
    05........4533D2488D05........4D85C048895C2410448915:
      0. 03 010A 0139 (l)0000:settzname
    41084C8BCA4D85C0742966666690498B5028498D4068483BD0740B492B50:
      0. 58 9BED 0078 (l)0000:fts_padjust
    C1488B0D........33D2E9:
      0. 00 0000 0011 0000:__malloc (REF 000D: __HeapAlloc)
      1. 00 0000 0011 0000:__free (REF 000D: __HeapFree)
    C2488BD1488D0D........E9:
      0. 00 0000 0012 0000:__vprintf
    C9:
      488BD1440FBE024183F82B742E4183F82D74284183F8587422488B0249:
        0. C2 6C1F 00E2 0000:__compress_mode
      8BC2B91F0000009941BA01000000448BC083E21F03C241C1F80583E01F:
        0. 5A AA21 007A 0000:_IncMan
    CA488BC2489949F7F84D85C94889014889510878124885D2790D48FFC049:
      0. 0D F299 002D 0000:__ldiv
    DC48:
      81EC:
        18010000F641100249895B08488BD9741E488D4177C741200100:
          0. 3F A5EB 015A 0000:__smakebuf
        38:
          020000488B05........488984242002000049895B18498973:
            0. 0A 6DDF 0108 0000:__prefixNetworkEtcPath
          030000488B05........488984241003000049895B1849896B:
            0. 16 F28C 02CA 0000:__realpath (l)0071:$loop$1418 (l)0200:$err1$1429 (l)0271:$err2$1448
        48:
          010000:
            488B05........48898424200100000FB60149895B20:
              0. 29 E52A 0242 (l)0000:build_arg_tab (l)0070:$again$2373 (l)0089:$LN24 (l)0094:$LN20 (l)009F:$LN19 (l)00AA:$LN72 (l)00B8:$LN10 (l)00E3:$doswitch$2869 (l)0122:$LN47 (l)0125:$LN73 (l)0134:$end$2400
            8B813004000049895B08488BD985C07E163B81340400:
              0. 3A 2941 0616 (l)0000:_nftw_r
          020000488B05........488984242002000049895B:
            18488D42:
              0. 45 2C4D 0121 (l)0000:get_nt_env
            2049896B:
              0. 1D B348 01D0 0000:__confstr (l)0050:$LN21 (l)0099:$LN10 (l)00A2:$LN9 (l)00AB:$LN8 (l)00B4:$LN7 (l)00BD:$LN6 (l)00C6:$LN5 (l)00CF:$LN4 (l)00D8:$LN3 (l)00DD:$calc_slen$1863 (l)00FD:$finish$1862 (l)011D:$LN2
          050000488B05........48898424300500004885C949895B18:
            0. 18 6994 008D 0000:__gethostname
          080000488B05........488984242008000033C049895B1849:
            0. 3F C26D 02E2 (l)0000:_getMntEnt
        58:
          020000488B05........48898424:
            300200004883390049895B:
              0. 1C 190B 00F7 (l)0000:g_opendir
            4002000049895B1049896B:
              0. 0E 3430 0164 0000:_tmpfile_pfx (l)0105:$end$1673
          030000488B05........488984241003000085D249895BF849:
            0. 2C FDB5 023E 0000:__iruserok (l)00A3:$again$2186
        68:
          020000488B05........488984243002000049895B2049896B:
            0. 39 7CB9 00FC (l)0000:g_lstat (004E: 38)
            1. 39 7CB9 00FC (l)0000:g_stat (004E: 40)
          030000488B05........4889842420030000498973F84D8963:
            0. 2B 10D5 0658 0000:__catopen (l)033B:$LN28 (l)0377:$LN25 (l)03AC:$LN22 (l)03E8:$LN18 (l)0420:$LN14 (l)0450:$LN10 (l)0458:$LN9
        78:
          010000488B05........48898424:
            2001000049895BF849896B:
              0. 33 4014 0260 0000:__openpty
            300100004D85C049895BF8:
              0. FF 3DA8 01DA 0000:__sradixsort
          020000488B05........488984243002000049895B2049896B:
            0. 1A CE18 03BE 0000:__winwrap_winpath2unix
        88:
          000000813965F2000049895BF849896BF0488B69184D8973C8:
            0. 69 4842 0221 0000:__regexec
          010000488B05........488984246001000085D2498973F849:
            0. A6 F304 0110 (l)0000:exponent
          050000488B05........488984247005000049895B1849897B:
            0. 07 B590 02D3 0000:__getdate
          080000488B05........48898424300800004885C9498B004D:
            0. 2F 0AEA 0402 (l)0000:__posixpath2nt (l)00D0:$again$1630
        98:
          000000488B05........48894424500FB70149896BF849897B:
            0. A3 D2D3 0217 (l)0000:rangematch
          0C0000488B05........48898424500C0000F7C100FCFFFF49:
            0. 1B 99FB 04A3 0000:__vsyslog
        A8000000488B05........488944246049895B2049896BF84989:
          0. 53 AFD5 1510 (l)0000:__find_arguments (l)00E0:$rflag$2823 (l)00F0:$reswitch$2824 (l)0112:$LN72 (l)0140:$LN63 (l)0164:$LN78 (l)0421:$LN58 (l)042A:$LN57 (l)0433:$LN56 (l)043C:$LN55 (l)0445:$LN54 (l)04D3:$LN53 (l)04D7:$LN52 (l)072D:$LN49 (l)0853:$LN46 (l)0AA9:$LN39 (l)0AAD:$LN38 (l)0D03:$LN35 (l)0D91:$LN34 (l)0E1F:$LN33 (l)0E23:$LN32 (l)1079:$LN29 (l)12CF:$LN26 (l)12D7:$done$2822 (l)1363:$LN18 (l)1369:$LN17 (l)136F:$LN16 (l)1375:$LN15 (l)137B:$LN14 (l)1381:$LN13 (l)1387:$LN12 (l)138D:$LN11 (l)1393:$LN10 (l)1399:$LN9 (l)139F:$LN8 (l)13A5:$LN7 (l)13AB:$LN6 (l)13B1:$LN5 (l)13B7:$LN4 (l)13BD:$LN3 (l)13C3:$LN2
        B8000000488B05........488984248800000049895BF849896B:
          0. 64 CD32 0303 (l)0000:match
        C8:
          000000488B05........4889442470440FB7510849895BF889:
            0. FF DB8E 0D81 0000:$I10_OUTPUT
          060000488B05........488984248006000049895B1849896B:
            0. 2D 7A2D 045C 0000:__ucount (l)03EC:$error_return$2087
        D8:
          040000488B05........48898424C00400000FB7411049895B:
            0. 6D D4A8 00DE (l)0000:__sbprintf
          050000488B05........4889842480050000488B8424080600:
            0. FF 2525 0424 (l)0000:glob2
        E8:
          000000488B05........48898424:
            9800000049895BF849896B:
              0. 7B B46D 0C03 0000:__strgtold12 (l)00CF:$LN119 (l)0129:$LN108 (l)017D:$LN101 (l)0185:$LN100 (l)018F:$LN99 (l)019C:$LN97 (l)01D7:$LN88 (l)0261:$LN78 (l)026B:$LN77 (l)0278:$LN75 (l)0305:$LN64 (l)030F:$LN63 (l)031C:$LN61 (l)0349:$LN58 (l)039D:$LN49 (l)03D7:$LN43 (l)03FF:$LN28 (l)043D:$LN21 (l)048E:$LN98 (l)04A2:$LN76 (l)04AC:$LN62 (l)04E4:$LN36
            A000000049895BF849896B:
              0. 1E 346D 04FB (l)0000:_Efmt (l)025A:$LN15 (l)02A1:$LN13 (l)0311:$LN10 (l)0358:$LN8 (l)039F:$LN6 (l)0418:$LN3 (l)0452:$LN16
          020000488B05........48898424:
            98020000488B8424100300:
              0. 35 10EB 07FA 0000:__rcmd (l)06FB:$bad2$2103 (l)0769:$bad$2065
            D00200004885D249897BF8:
              0. 15 C8BF 0125 0000:__setUserPassword
          030000488B05........48898424A003000049895B2033C049:
            0. 21 9E32 13CF 0000:__svfscanf (l)0170:$again$2478 (l)0189:$LN211 (l)018F:$LN210 (l)0195:$LN209 (l)01AA:$LN206 (l)01B0:$LN205 (l)01B6:$LN204 (l)01CA:$LN203 (l)01FA:$LN172 (l)024A:$literal$2477 (l)028E:$LN200 (l)0292:$LN199 (l)02B1:$LN198 (l)02CD:$LN197 (l)02D1:$LN196 (l)02EC:$LN195 (l)0307:$LN194 (l)030B:$LN193 (l)032B:$LN192 (l)033A:$LN191 (l)0351:$LN188 (l)0360:$LN187 (l)038C:$LN186 (l)03A7:$LN183 (l)03B8:$LN182 (l)03DA:$LN181 (l)0539:$LN155 (l)05F6:$LN144 (l)0776:$LN124 (l)08BD:$LN108 (l)09CD:$LN96 (l)0B8C:$LN72 (l)0BDE:$LN65 (l)0C05:$LN61 (l)0C1A:$LN60 (l)0C34:$LN58 (l)0C42:$LN56 (l)0C4E:$LN54 (l)0C6C:$ok$2692 (l)0C9F:$LN361 (l)0E0E:$LN36 (l)0E69:$LN29 (l)0E72:$LN28 (l)0E7E:$LN26 (l)0E9B:$fok$2746 (l)0EC9:$LN25 (l)10FD:$match_failure$2486 (l)1101:$cleanup$2464 (l)117A:$LN173 (l)11D8:$input_failure$2472
          060000488B05........48898424900600004D3BC1488B8424:
            0. 80 5810 02EA (l)0000:glob3
        F8:
          010000488B05........48898424B001000049895BF849896B:
            0. 2A 840C 0234 0000:__ivaliduser
          020000488B05........48898424D002000049895B20498973:
            0. 0B FD87 0136 0000:__getUserPassword
          060000488B05........4889842480060000498973F049897B:
            0. 21 C114 2789 0000:_s___vfprintf (l)0260:$rflag$3182 (l)0270:$reswitch$3183 (l)0294:$LN249 (l)02DB:$LN237 (l)0309:$LN262 (l)031E:$LN260 (l)032A:$LN259 (l)0337:$LN258 (l)0411:$LN251 (l)041D:$LN250 (l)055E:$LN238 (l)05C4:$LN231 (l)05D0:$LN230 (l)05DC:$LN229 (l)05E8:$LN228 (l)0601:$LN226 (l)0608:$LN225 (l)0693:$LN222 (l)069A:$LN221 (l)078D:$LN216 (l)0A71:$LN185 (l)0B44:$LN178 (l)0B4B:$LN177 (l)0C25:$LN174 (l)0C70:$LN173 (l)0C77:$LN172 (l)0E64:$LN153 (l)0E6B:$LN152 (l)0F45:$LN149 (l)0F56:$LN148 (l)0F65:$hex$3698 (l)1064:$nosign$3564 (l)1069:$number$3383 (l)1129:$LN133 (l)2338:$done$3181 (l)2623:$error$3177
      83EC:
        58488B:
          05........4889442418440FB7420A0FB7410A498973F8:
            0. FF 6367 0398 0000:__ld12mul
          D133C049895B1849897B2048C7C3FFFFFFFF488BFA488B:
            0. 12 4423 00B1 0000:__puts
        68488B05........488944245049895B1849897320488B31483B:
          0. 17 0673 011E (l)0000:p_b_cclass
4D:
  63C833C041B8020000004885D2440F45C0E9:
    0. 00 0000 0017 0000:__setbuffer
  8BD04C8BC949D1FA41F6C207742190410FB641014D0FBE0149FFCA88024488:
    0. B5 DB92 00D5 0000:__swab
66:
  0F:
    2E05........7314660F2E05........760AF2480F2DC8F2480F2AC1C3:
      0. 00 0000 001F 0000:_frnd (l)001E:_return
    57C9F20F114424084C8BCA660F2EC17A0D750B4533C0F20F10C1448902C3:
      0. EE 4036 010E 0000:_decomp
  4489:
    442418:
      488954241048894C240848:
        81ECA800000048C7442450FEFFFFFF:
          0. 1E F82C 0309 0000:??$getline@GU?$char_traits@G@std@@V?$allocator@G@2@@std@@YAAEAV?$basic_istream@GU?$char_traits@G@std@@@0@AEAV10@AEAV?$basic_string@GU?$char_traits@G@std@@V?$allocator@G@2@@0@G@Z (l)0232:$LN19 (l)02A0:?dtor$0@?0???$getline@GU?$char_traits@G@std@@V?$allocator@G@2@@std@@YAAEAV?$basic_istream@GU?$char_traits@G@std@@@0@AEAV10@AEAV?$basic_string@GU?$char_traits@G@std@@V?$allocator@G@2@@0@G@Z@4HA (l)02C0:?catch$0@?0???$getline@GU?$char_traits@G@std@@V?$allocator@G@2@@std@@YAAEAV?$basic_istream@GU?$char_traits@G@std@@@0@AEAV10@AEAV?$basic_string@GU?$char_traits@G@std@@V?$allocator@G@2@@0@G@Z@4HA (l)02CD:__catch$??$getline@GU?$char_traits@G@std@@V?$allocator@G@2@@std@@YAAEAV?$basic_istream@GU?$char_traits@G@std@@@0@AEAV10@AEAV?$basic_string@GU?$char_traits@G@std@@V?$allocator@G@2@@0@G@Z$0
        83EC:
          28:
            488B:
              05........4839442438:
                0. 03 576A 0070 0000:?assign@?$basic_string@GU?$char_traits@G@std@@V?$allocator@G@2@@std@@QEAAAEAV12@_KG@Z
              442430488B4018483944:
                0. 07 47F9 0068 0000:?resize@?$basic_string@GU?$char_traits@G@std@@V?$allocator@G@2@@std@@QEAAX_KG@Z
            4C8B4424380FB7542440488B:
              0. 04 E3C0 002D 0000:?assign@?$char_traits@G@std@@SAPEAGPEAG_KG@Z
          3848:
            8B442440488B4018488B0D:
              0. 00 0000 00A1 0000:?append@?$basic_string@GU?$char_traits@G@std@@V?$allocator@G@2@@std@@QEAAAEAV12@_KG@Z
            8D4424204889442428488B:
              0. 04 B29B 0063 0000:??0?$basic_string@GU?$char_traits@G@std@@V?$allocator@G@2@@std@@QEAA@_KG@Z
          7848C7442450FEFFFFFFC74424:
            0. 13 50C7 00D9 0000:??$?HGU?$char_traits@G@std@@V?$allocator@G@1@@std@@YA?AV?$basic_string@GU?$char_traits@G@std@@V?$allocator@G@2@@0@AEBV10@G@Z (l)0090:?dtor$0@?0???$?HGU?$char_traits@G@std@@V?$allocator@G@1@@std@@YA?AV?$basic_string@GU?$char_traits@G@std@@V?$allocator@G@2@@0@AEBV10@G@Z@4HA (l)00B0:?dtor$1@?0???$?HGU?$char_traits@G@std@@V?$allocator@G@1@@std@@YA?AV?$basic_string@GU?$char_traits@G@std@@V?$allocator@G@2@@0@AEBV10@G@Z@4HA
      668954241048894C24084883EC:
        28488B442430488B00440FB744:
          0. 14 15F6 0034 0000:?is@?$ctype@G@std@@QEBA_NFG@Z
        38488B4424404883C010488BD0:
          0. 06 36FD 0051 0000:?do_is@?$ctype@G@std@@MEBA_NFG@Z
      F20F114C241048894C24084883EC:
        28440FB7442440660F124C24:
          0. 07 DB56 0030 0000:?_Exp@?$_Ctraits@N@std@@SAFPEANNF@Z (REF 0027: _Exp)
          1. 07 DB56 0030 0000:?_Exp@?$_Ctraits@O@std@@SAFPEAOOF@Z (REF 0027: _LExp)
        58660F1205........F20F5C:
          0. 01 D5A7 0237 0000:_Exp (0215: C3)
          1. 01 D5A7 0245 0000:_LExp (0215: 48)
      F30F114C241048894C24084883EC:
        28440FB7442440F30F104C24:
          0. 07 DB56 0030 0000:?_Exp@?$_Ctraits@M@std@@SAFPEAMMF@Z
        48F30F1005........F30F5C:
          0. 01 D5A7 0211 0000:_FExp
    4C24204C89442418488954241048894C2408:
      4883EC:
        2848837C24400175:
          0. 07 450A 006E 0000:?_Chassign@?$basic_string@GU?$char_traits@G@std@@V?$allocator@G@2@@std@@IEAAX_K0G@Z
        48488B442450488B:
          0. 0A 2F0C 0144 0000:?insert@?$basic_string@GU?$char_traits@G@std@@V?$allocator@G@2@@std@@QEAAAEAV12@_K0G@Z
      56574883EC48EB1D488B84:
        0. 16 D105 0092 0000:?_Rep@?$num_put@GV?$ostreambuf_iterator@GU?$char_traits@G@std@@@std@@@std@@AEBA?AV?$ostreambuf_iterator@GU?$char_traits@G@std@@@2@V32@G_K@Z
  89:
    4C24084883EC280FB744243085C0750733C0E9F70000000FB74424308BC8:
      0. 01 3E9B 0115 0000:__wcwidth
    542410:
      48894C2408:
        48:
          81EC:
            3801000048C78424F0000000FEFFFFFF488B05:
              0. 00 0000 0498 0000:?overflow@?$basic_filebuf@GU?$char_traits@G@std@@@std@@MEAAGG@Z (l)0480:?dtor$0@?0??overflow@?$basic_filebuf@GU?$char_traits@G@std@@@std@@MEAAGG@Z@4HA
            A800000048C7442458FEFFFFFFC74424200000:
              0. 10 FC8A 0449 0000:??$?6GU?$char_traits@G@std@@@std@@YAAEAV?$basic_ostream@GU?$char_traits@G@std@@@0@AEAV10@G@Z (l)0369:$LN21 (l)03E0:?dtor$0@?0???$?6GU?$char_traits@G@std@@@std@@YAAEAV?$basic_ostream@GU?$char_traits@G@std@@@0@AEAV10@G@Z@4HA (l)0400:?catch$0@?0???$?6GU?$char_traits@G@std@@@std@@YAAEAV?$basic_ostream@GU?$char_traits@G@std@@@0@AEAV10@G@Z@4HA (l)040D:__catch$??$?6GU?$char_traits@G@std@@@std@@YAAEAV?$basic_ostream@GU?$char_traits@G@std@@@0@AEAV10@G@Z$0
            B800000048:
              8B8424C00000008B407883E00885:
                0. 0C 20C1 0556 0000:?overflow@?$basic_stringbuf@GU?$char_traits@G@std@@V?$allocator@G@2@@std@@MEAAGG@Z
              C7442460FEFFFFFF488B8424C000:
                0. 1A 808E 0423 0000:??6?$basic_ostream@GU?$char_traits@G@std@@@std@@QEAAAEAV01@G@Z (l)0355:$LN21 (l)03C0:?dtor$0@?0???6?$basic_ostream@GU?$char_traits@G@std@@@std@@QEAAAEAV01@G@Z@4HA (l)03E0:?catch$0@?0???6?$basic_ostream@GU?$char_traits@G@std@@@std@@QEAAAEAV01@G@Z@4HA (l)03ED:__catch$??6?$basic_ostream@GU?$char_traits@G@std@@@std@@QEAAAEAV01@G@Z$0
          83EC:
            1848C7042400000000EB0E488B4424204883C0:
              0. 39 54FC 0059 0000:__wcsrchr
            28:
              440FB7442438BA01000000488B4C2430E8:
                0. 00 0000 0028 0000:??Y?$basic_string@GU?$char_traits@G@std@@V?$allocator@G@2@@std@@QEAAAEAV01@G@Z
              488B4424304883C010488BD00FB74C2438E8:
                0. 00 0000 0029 0000:?do_tolower@?$ctype@G@std@@MEBAGG@Z (REF 0020: _Towlower)
                1. 00 0000 0029 0000:?do_toupper@?$ctype@G@std@@MEBAGG@Z (REF 0020: _Towupper)
              E8........4883C428C3:
                0. 00 0000 0018 (!)0000:?
            38488B:
              4424404883781000743B488B44244048:
                0. 0C 79DA 0068 0000:??4?$ostreambuf_iterator@GU?$char_traits@G@std@@@std@@QEAAAEAV01@G@Z
              4C2440E8........4885C00F84920000:
                0. 07 B9AE 01A2 0000:?pbackfail@?$basic_filebuf@GU?$char_traits@G@std@@@std@@MEAAGG@Z
            48488B4C2450E8........4885C0:
              0F84830000:
                0. 07 283B 010C 0000:?pbackfail@?$basic_stringbuf@GU?$char_traits@G@std@@V?$allocator@G@2@@std@@MEAAGG@Z
              745E488B4C:
                0. 03 271E 00B1 0000:?sputbackc@?$basic_streambuf@GU?$char_traits@G@std@@@std@@QEAAGG@Z
              7E2D488B4C:
                0. 03 271E 0080 0000:?sputc@?$basic_streambuf@GU?$char_traits@G@std@@@std@@QEAAGG@Z
            6848C7442448FEFFFFFFC74424200000000048:
              0. 1A CDC9 0183 0000:?putback@?$basic_istream@GU?$char_traits@G@std@@@std@@QEAAAEAV12@G@Z (l)00CD:$LN10 (l)0120:?dtor$0@?0??putback@?$basic_istream@GU?$char_traits@G@std@@@std@@QEAAAEAV12@G@Z@4HA (l)0140:?catch$0@?0??putback@?$basic_istream@GU?$char_traits@G@std@@@std@@QEAAAEAV12@G@Z@4HA (l)014D:__catch$?putback@?$basic_istream@GU?$char_traits@G@std@@@std@@QEAAAEAV12@G@Z$0
        EB0E488B4424084883C0024889442408488B4424080F:
          0. 25 7DB0 0045 0000:__wcschr
      894C24084883EC380FB744244883F801750F8B4C2440E8:
        0. 0B BA8B 00C7 0000:towctrans 0050:wctrans
  90480FBE014883C20848FFC14885C0488942F875ECC3:
    0. 00 0000 0017 (l)0000:g_ctoC
  B8FFFFC3:
    0. 00 0000 0005 0000:?eof@?$char_traits@G@std@@SAGXZ
81:
  F9:
    800000007312C1E11881E2FFFFFF000BD18BCAE9........81F900000100:
      0. 0F 9BF5 004A 0000:__inet_makeaddr
    F4010300740B81F9F4011000740333C0C3B801000000C3:
      0. 00 0000 0019 0000:__isroot
  FAFF0000004C8BD9771980FA807314488B05........440FB6D266420FBA24:
    0. 76 2F86 0285 0000:__vis (l)00B3:$LN18 (l)00C8:$LN17 (l)00DD:$LN16 (l)00F2:$LN15 (l)0107:$LN14 (l)011C:$LN13 (l)0131:$LN12 (l)0146:$LN11 (l)015B:$LN10 (l)018B:$LN19 (l)0231:$done$770
83:
  3D........0075:
    0D488B05........8BC9488908C34C8B0D........448B05:
      0. 00 0000 00CD 0000:__srandom
    22488B15........B839300000488B0A4869C993B1393E48:
      0. 0E 065C 0090 0000:__random
  79100075:
    03895110488D05........4889014889410833C0C3:
      0. 00 0000 001A (l)0000:seterr
    17488B491841B9000000F88B04D14923C1490BC0488904D1C20000:
      0. 00 0000 0020 (l)0000:dofwd
  F9:
    02448BC2742083F904741583F906741083F909740B83F90B7406B81F0000:
      0. 5A C7A9 007A 0000:_i_days_per_month
    120F87AE000000488D15........4863C18B8C82........4803CAFFE148:
      0. 02 5E64 010C 0000:__libc_global (l)001F:$LN19 (l)0027:$LN18 (l)002F:$LN17 (l)0037:$LN16 (l)003F:$LN15 (l)0047:$LN14 (l)004F:$LN13 (l)0057:$LN12 (l)005F:$LN11 (l)0067:$LN10 (l)006F:$LN9 (l)0077:$LN8 (l)007F:$LN7 (l)0087:$LN6 (l)008F:$LN5 (l)0097:$LN4 (l)009F:$LN3 (l)00A7:$LN2 (l)00AF:$LN1
85C9:
  750333C0C3B80100000084C87509D1E9FFC0F6C10174F7C20000:
    0. 00 0000 001C 0000:__ffs
  7902F7D98BC1C3:
    0. 00 0000 0009 0000:__abs
8854241048894C2408:
  48:
    81EC:
      8800000048C7442440FEFFFFFF488B8424900000:
        0. 1A B73A 0319 0000:?_Ipfx@?$basic_istream@DU?$char_traits@D@std@@@std@@QEAA_N_N@Z (l)0249:$LN18 (l)02B0:?dtor$0@?0??_Ipfx@?$basic_istream@DU?$char_traits@D@std@@@std@@QEAA_N_N@Z@4HA (l)02D0:?catch$0@?0??_Ipfx@?$basic_istream@DU?$char_traits@D@std@@@std@@QEAA_N_N@Z@4HA (l)02DD:__catch$?_Ipfx@?$basic_istream@DU?$char_traits@D@std@@@std@@QEAA_N_N@Z$0 (02DE: CC)
        1. 1A B73A 0329 0000:?_Ipfx@?$basic_istream@GU?$char_traits@G@std@@@std@@QEAA_N_N@Z (l)0253:$LN18 (l)02C0:?dtor$0@?0??_Ipfx@?$basic_istream@GU?$char_traits@G@std@@@std@@QEAA_N_N@Z@4HA (l)02E0:?catch$0@?0??_Ipfx@?$basic_istream@GU?$char_traits@G@std@@@std@@QEAA_N_N@Z@4HA (l)02ED:__catch$?_Ipfx@?$basic_istream@GU?$char_traits@G@std@@@std@@QEAA_N_N@Z$0 (02DE: 90)
      C800000048C7442460FEFFFFFFC7442420000000:
        0. 0F 16E4 0449 0000:??$?6U?$char_traits@D@std@@@std@@YAAEAV?$basic_ostream@DU?$char_traits@D@std@@@0@AEAV10@D@Z (l)0366:$LN21 (l)03E0:?dtor$0@?0???$?6U?$char_traits@D@std@@@std@@YAAEAV?$basic_ostream@DU?$char_traits@D@std@@@0@AEAV10@D@Z@4HA (l)0400:?catch$0@?0???$?6U?$char_traits@D@std@@@std@@YAAEAV?$basic_ostream@DU?$char_traits@D@std@@@0@AEAV10@D@Z@4HA (l)040D:__catch$??$?6U?$char_traits@D@std@@@std@@YAAEAV?$basic_ostream@DU?$char_traits@D@std@@@0@AEAV10@D@Z$0
    83EC:
      28:
        0FB6542438488B4C2430E8........4883C428:
          0. 01 EF04 0021 0000:??$?6U?$char_traits@D@std@@@std@@YAAEAV?$basic_ostream@DU?$char_traits@D@std@@@0@AEAV10@C@Z (REF 0018: ??$?6U?$char_traits@D@std@@@std@@YAAEAV?$basic_ostream@DU?$char_traits@D@std@@@0@AEAV10@D@Z)
          1. 01 EF04 0021 0000:?do_widen@?$ctype@G@std@@MEBAGD@Z (REF 0018: ?_Dowiden@?$ctype@G@std@@IEBAGD@Z)
        440FB6442438BA01000000488B4C2430E8:
          0. 00 0000 0027 0000:??Y?$basic_string@DU?$char_traits@D@std@@V?$allocator@D@2@@std@@QEAAAEAV01@D@Z
        488B44243048:
          83C0100FB64C2438488BD0E8:
            0. 00 0000 0028 0000:?do_tolower@?$ctype@D@std@@MEBADD@Z (REF 001F: _Tolower)
            1. 00 0000 0028 0000:?do_toupper@?$ctype@D@std@@MEBADD@Z (REF 001F: _Toupper)
          8B000FB6542438488B4C2430FF:
            0. 07 51DA 0027 0000:?widen@?$ctype@D@std@@QEBADD@Z
            1. 07 E05D 0027 0000:?widen@?$ctype@G@std@@QEBAGD@Z
      3848:
        8B44244048837810007439488B442440488B:
          0. 0B 0E17 0065 0000:??4?$ostreambuf_iterator@DU?$char_traits@D@std@@@std@@QEAAAEAV01@D@Z
        C7442420FEFFFFFFBA01000000488B4C2440:
          0. 01 3E9B 00A8 0000:??0_Locimp@locale@std@@AEAA@_N@Z (l)0090:?dtor$0@?0???0_Locimp@locale@std@@AEAA@_N@Z@4HA
      48488B:
        442450488944242848C744243000000000:
          0. 1A AD51 009D 0000:__mbsrchr
        4C2450E8........4885C0:
          745C488B4C24:
            0. 02 F6B7 00AB 0000:?sputbackc@?$basic_streambuf@DU?$char_traits@D@std@@@std@@QEAAHD@Z
          7E2B488B4C24:
            0. 02 F6B7 007A 0000:?sputc@?$basic_streambuf@DU?$char_traits@D@std@@@std@@QEAAHD@Z
      5848C7442430FEFFFFFF488D542428488B4C2460:
        0. 01 3E9B 0088 0000:?widen@?$basic_ios@GU?$char_traits@G@std@@@std@@QEBAGD@Z (l)0070:?dtor$0@?0??widen@?$basic_ios@GU?$char_traits@G@std@@@std@@QEBAGD@Z@4HA (REF 003A: ??$use_facet@V?$ctype@G@std@@@std@@YAAEBV?$ctype@G@0@AEBVlocale@0@@Z)
        1. 01 3E9B 0088 0000:?widen@?$basic_ios@DU?$char_traits@D@std@@@std@@QEBADD@Z (l)0070:?dtor$0@?0??widen@?$basic_ios@DU?$char_traits@D@std@@@std@@QEBADD@Z@4HA (REF 003A: ??$use_facet@V?$ctype@D@std@@@std@@YAAEBV?$ctype@D@0@AEBVlocale@0@@Z)
      7848C7442448FEFFFFFFC744242000000000488B:
        0. 1F B650 0199 0000:?putback@?$basic_istream@DU?$char_traits@D@std@@@std@@QEAAAEAV12@D@Z (l)00D9:$LN10 (l)0130:?dtor$0@?0??putback@?$basic_istream@DU?$char_traits@D@std@@@std@@QEAAAEAV12@D@Z@4HA (l)0150:?catch$0@?0??putback@?$basic_istream@DU?$char_traits@D@std@@@std@@QEAAAEAV12@D@Z@4HA (l)015D:__catch$?putback@?$basic_istream@DU?$char_traits@D@std@@@std@@QEAAAEAV12@D@Z$0
  574881EC9000000048C744243000000000488D44243848:
    0. 38 9481 008D 0000:?_Dowiden@?$ctype@G@std@@IEBAGD@Z
  8A442410C3:
    0. 00 0000 000E 0000:?do_widen@?$ctype@D@std@@MEBADD@Z
89:
  4C2408:
    0F:
      AE542408C30FAE5C2408B9C0FFFFFF214C24080FAE542408C3:
        0. 00 0000 001E 0000:_set_fpsr 000A:_fclrf
      B64424:
        09884C24:
          09884424088B442408C3:
            0. 00 0000 0016 0000:__ntohs
          11884424108B442410C3:
            0. 00 0000 0016 0000:__htons
        0B884C2413884424100FB644240A884424110FB644240988:
          0. 08 F11E 0028 0000:__ntohl
    48:
      83EC:
        28:
          4C8D442438488D542430B9:
            01000000E8........8B4C2438:
              0. 0C D2BB 002C 0000:__sigblock
            03000000E8........8B4C2438:
              0. 0C D2BB 002C 0000:__sigsetmask
          8B44243083E00585C0740DE8........C70021000000EB16:
            0. 0C 053F 003B 0000:_Feraise
        48:
          0FB64424530FB6542452440FB64424518944243089542428:
            0. 0C 8549 004D 0000:__inet_ntoa
          833D........00488D44245048895C24604889442430488D:
            0. 2A 84FF 0084 0000:__putw
      895424104C894424184C894C24204883EC4848895C244048897C24:
        0. 02 631C 00F6 0000:__ulimit
    534883EC200FBE0A488B05........488BDAF60448047420488BCAE8:
      0. 00 0000 0097 (l)0000:__icheckhost
  542410:
    48:
      894C2408:
        48:
          81EC:
            4801000048C78424F8000000FEFFFFFF488B05:
              0. 00 0000 0488 0000:?overflow@?$basic_filebuf@DU?$char_traits@D@std@@@std@@MEAAHH@Z (l)0470:?dtor$0@?0??overflow@?$basic_filebuf@DU?$char_traits@D@std@@@std@@MEAAHH@Z@4HA
            B8000000488B8424C00000008B407883E00885C0:
              0. 0B 8A57 0549 0000:?overflow@?$basic_stringbuf@DU?$char_traits@D@std@@V?$allocator@D@2@@std@@MEAAHH@Z
          83EC:
            18:
              0FB6442428880424488B4424204889442408EB:
                0. 3C 5A9A 005C 0000:__strchr
              488B4424208B40188904248B44242825FFFF00:
                0. 11 382A 0031 0000:?flags@ios_base@std@@QEAAHH@Z
                1. 1D F70B 003D 0000:?setf@ios_base@std@@QEAAHH@Z
              C70424:
                000000008B44242883E00185C075098B:
                  0. 4C 4D39 006C 0000:?_Getstate@?$basic_stringbuf@DU?$char_traits@D@std@@V?$allocator@D@2@@std@@AEAAHH@Z
                0100000048837C2420007507C7042400:
                  0. 67 0A3F 0087 0000:?_ValidateRead@@YAHPEBXI@Z 0030:?_ValidateWrite@@YAHPEAXI@Z 0060:?_ValidateExecute@@YAHP6AHXZ@Z
            28:
              448B442438488D15........488B4C2430E8:
                0. 00 0000 0272 0000:?resetiosflags@std@@YA?AU?$_Smanip@H@1@H@Z (l)0040:?rsfun@std@@YAXAEAVios_base@1@H@Z 0070:?setiosflags@std@@YA?AU?$_Smanip@H@1@H@Z (l)00B0:?sifun@std@@YAXAEAVios_base@1@H@Z 00E0:?setbase@std@@YA?AU?$_Smanip@H@1@H@Z (l)0120:?sbfun@std@@YAXAEAVios_base@1@H@Z 01A0:?setprecision@std@@YA?AU?$_Smanip@_J@1@_J@Z (l)01E0:?spfun@std@@YAXAEAVios_base@1@_J@Z 0210:?setw@std@@YA?AU?$_Smanip@_J@1@_J@Z (l)0250:?swfun@std@@YAXAEAVios_base@1@_J@Z
              4533C08B542438488B4C2430E8........4883:
                0. 03 53B6 0023 0000:?clear@ios_base@std@@QEAAXH@Z
              488B:
                44243048:
                  2D88000000488BC8E8:
                    0. 1A 3224 004E 0000:??_G?$basic_ostringstream@DU?$char_traits@D@std@@V?$allocator@D@2@@std@@UEAAPEAXI@Z (REF 001C: ??_D?$basic_ostringstream@DU?$char_traits@D@std@@V?$allocator@D@2@@std@@QEAAXXZ)
                    1. 1A 3224 004E 0000:??_G?$basic_ostringstream@GU?$char_traits@G@std@@V?$allocator@G@2@@std@@UEAAPEAXI@Z (REF 001C: ??_D?$basic_ostringstream@GU?$char_traits@G@std@@V?$allocator@G@2@@std@@QEAAXXZ)
                  83E8:
                    08488BC8E8........8B44:
                      0. 16 79DC 0048 0000:??_G?$basic_ostream@GU?$char_traits@G@std@@@std@@UEAAPEAXI@Z (REF 001A: ??_D?$basic_ostream@GU?$char_traits@G@std@@@std@@QEAAXXZ)
                      1. 16 79DC 0048 0000:??_G?$basic_ostream@DU?$char_traits@D@std@@@std@@UEAAPEAXI@Z (REF 001A: ??_D?$basic_ostream@DU?$char_traits@D@std@@@std@@QEAAXXZ)
                    10488BC8E8........8B44:
                      0. 16 1932 0048 0000:??_G?$basic_istream@GU?$char_traits@G@std@@@std@@UEAAPEAXI@Z (REF 001A: ??_D?$basic_istream@GU?$char_traits@G@std@@@std@@QEAAXXZ)
                      1. 16 1932 0048 0000:??_G?$basic_istream@DU?$char_traits@D@std@@@std@@UEAAPEAXI@Z (REF 001A: ??_D?$basic_istream@DU?$char_traits@D@std@@@std@@QEAAXXZ)
                  8904240FB64424388844241048:
                    0. 47 45D4 0067 0000:__strrchr
                4C2430E8........8B44243883E00185C0:
                  0. 08 8E26 0036 0000:??_Gexception@std@@UEAAPEAXI@Z (REF 0013: ??1exception@std@@UEAA@XZ)
                  1. 08 8E26 0036 0000:??_Gbad_cast@std@@UEAAPEAXI@Z (REF 0013: ??1bad_cast@std@@UEAA@XZ)
                  2. 08 8E26 0036 0000:??_Gbad_typeid@std@@UEAAPEAXI@Z (REF 0013: ??1bad_typeid@std@@UEAA@XZ)
                  3. 08 8E26 0036 0000:??_G__non_rtti_object@std@@UEAAPEAXI@Z (REF 0013: ??1__non_rtti_object@std@@UEAA@XZ)
                  4. 08 8E26 0036 0000:??_Gexception@@UEAAPEAXI@Z (REF 0013: ??1exception@@UEAA@XZ)
                  5. 08 8E26 0036 0000:??_Gbad_exception@std@@UEAAPEAXI@Z (REF 0013: ??1bad_exception@std@@UEAA@XZ)
                  6. 08 8E26 0036 0000:??_Gfacet@locale@std@@UEAAPEAXI@Z (REF 0013: ??1facet@locale@std@@UEAA@XZ)
                  7. 08 8E26 0036 0000:??_Gmessages_base@std@@UEAAPEAXI@Z (REF 0013: ??1messages_base@std@@UEAA@XZ)
                  8. 08 8E26 0036 0000:??_Gtime_base@std@@UEAAPEAXI@Z (REF 0013: ??1time_base@std@@UEAA@XZ)
                  9. 08 8E26 0036 0000:??_G?$collate@D@std@@MEAAPEAXI@Z (REF 0013: ??1?$collate@D@std@@MEAA@XZ)
                  10. 08 8E26 0036 0000:??_G?$messages@D@std@@MEAAPEAXI@Z (REF 0013: ??1?$messages@D@std@@MEAA@XZ)
                  11. 08 8E26 0036 0000:??_G?$money_get@DV?$istreambuf_iterator@DU?$char_traits@D@std@@@std@@@std@@MEAAPEAXI@Z (REF 0013: ??1?$money_get@DV?$istreambuf_iterator@DU?$char_traits@D@std@@@std@@@std@@MEAA@XZ)
                  12. 08 8E26 0036 0000:??_G?$money_put@DV?$ostreambuf_iterator@DU?$char_traits@D@std@@@std@@@std@@MEAAPEAXI@Z (REF 0013: ??1?$money_put@DV?$ostreambuf_iterator@DU?$char_traits@D@std@@@std@@@std@@MEAA@XZ)
                  13. 08 8E26 0036 0000:??_G?$moneypunct@D$0A@@std@@MEAAPEAXI@Z (REF 0013: ??1?$moneypunct@D$0A@@std@@MEAA@XZ)
                  14. 08 8E26 0036 0000:??_Gmoney_base@std@@UEAAPEAXI@Z (REF 0013: ??1money_base@std@@UEAA@XZ)
                  15. 08 8E26 0036 0000:??_G?$_Mpunct@D@std@@MEAAPEAXI@Z (REF 0013: ??1?$_Mpunct@D@std@@MEAA@XZ)
                  16. 08 8E26 0036 0000:??_G?$moneypunct@D$00@std@@MEAAPEAXI@Z (REF 0013: ??1?$moneypunct@D$00@std@@MEAA@XZ)
                  17. 08 8E26 0036 0000:??_G?$time_get@DV?$istreambuf_iterator@DU?$char_traits@D@std@@@std@@@std@@MEAAPEAXI@Z (REF 0013: ??1?$time_get@DV?$istreambuf_iterator@DU?$char_traits@D@std@@@std@@@std@@MEAA@XZ)
                  18. 08 8E26 0036 0000:??_G?$time_put@DV?$ostreambuf_iterator@DU?$char_traits@D@std@@@std@@@std@@MEAAPEAXI@Z (REF 0013: ??1?$time_put@DV?$ostreambuf_iterator@DU?$char_traits@D@std@@@std@@@std@@MEAA@XZ)
                  19. 08 8E26 0036 0000:??_Gctype_base@std@@UEAAPEAXI@Z (REF 0013: ??1ctype_base@std@@UEAA@XZ)
                  20. 08 8E26 0036 0000:??_G?$ctype@D@std@@MEAAPEAXI@Z (REF 0013: ??1?$ctype@D@std@@MEAA@XZ)
                  21. 08 8E26 0036 0000:??_Gtype_info@@UEAAPEAXI@Z (REF 0013: ??1type_info@@UEAA@XZ)
                  22. 08 8E26 0036 0000:??_G_Fac_node@std@@QEAAPEAXI@Z (REF 0013: ??1_Fac_node@std@@QEAA@XZ)
                  23. 08 8E26 0036 0000:??_G_Locimp@locale@std@@MEAAPEAXI@Z (REF 0013: ??1_Locimp@locale@std@@MEAA@XZ)
                  24. 08 8E26 0036 0000:??_Gbad_alloc@std@@UEAAPEAXI@Z (REF 0013: ??1bad_alloc@std@@UEAA@XZ)
                  25. 08 8E26 0036 0000:??_Gruntime_error@std@@UEAAPEAXI@Z (REF 0013: ??1runtime_error@std@@UEAA@XZ)
                  26. 08 8E26 0036 0000:??_Gcodecvt_base@std@@UEAAPEAXI@Z (REF 0013: ??1codecvt_base@std@@UEAA@XZ)
                  27. 08 8E26 0036 0000:??_G?$num_get@DV?$istreambuf_iterator@DU?$char_traits@D@std@@@std@@@std@@MEAAPEAXI@Z (REF 0013: ??1?$num_get@DV?$istreambuf_iterator@DU?$char_traits@D@std@@@std@@@std@@MEAA@XZ)
                  28. 08 8E26 0036 0000:??_G?$num_put@DV?$ostreambuf_iterator@DU?$char_traits@D@std@@@std@@@std@@MEAAPEAXI@Z (REF 0013: ??1?$num_put@DV?$ostreambuf_iterator@DU?$char_traits@D@std@@@std@@@std@@MEAA@XZ)
                  29. 08 8E26 0036 0000:??_G?$numpunct@D@std@@MEAAPEAXI@Z (REF 0013: ??1?$numpunct@D@std@@MEAA@XZ)
                  30. 08 8E26 0036 0000:??_G?$codecvt@DDU__mbstate_t@@@std@@MEAAPEAXI@Z (REF 0013: ??1?$codecvt@DDU__mbstate_t@@@std@@MEAA@XZ)
                  31. 08 8E26 0036 0000:??_Glogic_error@std@@UEAAPEAXI@Z (REF 0013: ??1logic_error@std@@UEAA@XZ)
                  32. 08 8E26 0036 0000:??_Glength_error@std@@UEAAPEAXI@Z (REF 0013: ??1length_error@std@@UEAA@XZ)
                  33. 08 8E26 0036 0000:??_Gout_of_range@std@@UEAAPEAXI@Z (REF 0013: ??1out_of_range@std@@UEAA@XZ)
                  34. 08 8E26 0036 0000:??_Ginvalid_argument@std@@UEAAPEAXI@Z (REF 0013: ??1invalid_argument@std@@UEAA@XZ)
                  35. 08 8E26 0036 0000:??_Gfailure@ios_base@std@@UEAAPEAXI@Z (REF 0013: ??1failure@ios_base@std@@UEAA@XZ)
                  36. 08 8E26 0036 0000:??_G?$codecvt@GDU__mbstate_t@@@std@@MEAAPEAXI@Z (REF 0013: ??1?$codecvt@GDU__mbstate_t@@@std@@MEAA@XZ)
                  37. 08 8E26 0036 0000:??_G?$ctype@G@std@@MEAAPEAXI@Z (REF 0013: ??1?$ctype@G@std@@MEAA@XZ)
                  38. 08 8E26 0036 0000:??_G?$time_put@GV?$ostreambuf_iterator@GU?$char_traits@G@std@@@std@@@std@@MEAAPEAXI@Z (REF 0013: ??1?$time_put@GV?$ostreambuf_iterator@GU?$char_traits@G@std@@@std@@@std@@MEAA@XZ)
                  39. 08 8E26 0036 0000:??_G?$num_get@GV?$istreambuf_iterator@GU?$char_traits@G@std@@@std@@@std@@MEAAPEAXI@Z (REF 0013: ??1?$num_get@GV?$istreambuf_iterator@GU?$char_traits@G@std@@@std@@@std@@MEAA@XZ)
                  40. 08 8E26 0036 0000:??_G?$num_put@GV?$ostreambuf_iterator@GU?$char_traits@G@std@@@std@@@std@@MEAAPEAXI@Z (REF 0013: ??1?$num_put@GV?$ostreambuf_iterator@GU?$char_traits@G@std@@@std@@@std@@MEAA@XZ)
                  41. 08 8E26 0036 0000:??_G?$numpunct@G@std@@MEAAPEAXI@Z (REF 0013: ??1?$numpunct@G@std@@MEAA@XZ)
                  42. 08 8E26 0036 0000:??_G?$collate@G@std@@MEAAPEAXI@Z (REF 0013: ??1?$collate@G@std@@MEAA@XZ)
                  43. 08 8E26 0036 0000:??_G?$messages@G@std@@MEAAPEAXI@Z (REF 0013: ??1?$messages@G@std@@MEAA@XZ)
                  44. 08 8E26 0036 0000:??_G?$money_get@GV?$istreambuf_iterator@GU?$char_traits@G@std@@@std@@@std@@MEAAPEAXI@Z (REF 0013: ??1?$money_get@GV?$istreambuf_iterator@GU?$char_traits@G@std@@@std@@@std@@MEAA@XZ)
                  45. 08 8E26 0036 0000:??_G?$money_put@GV?$ostreambuf_iterator@GU?$char_traits@G@std@@@std@@@std@@MEAAPEAXI@Z (REF 0013: ??1?$money_put@GV?$ostreambuf_iterator@GU?$char_traits@G@std@@@std@@@std@@MEAA@XZ)
                  46. 08 8E26 0036 0000:??_G?$moneypunct@G$0A@@std@@MEAAPEAXI@Z (REF 0013: ??1?$moneypunct@G$0A@@std@@MEAA@XZ)
                  47. 08 8E26 0036 0000:??_G?$_Mpunct@G@std@@MEAAPEAXI@Z (REF 0013: ??1?$_Mpunct@G@std@@MEAA@XZ)
                  48. 08 8E26 0036 0000:??_G?$moneypunct@G$00@std@@MEAAPEAXI@Z (REF 0013: ??1?$moneypunct@G$00@std@@MEAA@XZ)
                  49. 08 8E26 0036 0000:??_G?$time_get@GV?$istreambuf_iterator@GU?$char_traits@G@std@@@std@@@std@@MEAAPEAXI@Z (REF 0013: ??1?$time_get@GV?$istreambuf_iterator@GU?$char_traits@G@std@@@std@@@std@@MEAA@XZ)
                  50. 08 8E26 0036 0000:??_Glocale@std@@QEAAPEAXI@Z (REF 0013: ??1locale@std@@QEAA@XZ)
                  51. 08 8E26 0036 0000:??_G?$basic_streambuf@GU?$char_traits@G@std@@@std@@UEAAPEAXI@Z (REF 0013: ??1?$basic_streambuf@GU?$char_traits@G@std@@@std@@UEAA@XZ)
                  52. 08 8E26 0036 0000:??_G?$basic_filebuf@GU?$char_traits@G@std@@@std@@UEAAPEAXI@Z (REF 0013: ??1?$basic_filebuf@GU?$char_traits@G@std@@@std@@UEAA@XZ)
                  53. 08 8E26 0036 0000:??_Gios_base@std@@UEAAPEAXI@Z (REF 0013: ??1ios_base@std@@UEAA@XZ)
                  54. 08 8E26 0036 0000:??_G?$basic_ios@GU?$char_traits@G@std@@@std@@UEAAPEAXI@Z (REF 0013: ??1?$basic_ios@GU?$char_traits@G@std@@@std@@UEAA@XZ)
                  55. 08 8E26 0036 0000:??_G?$basic_ios@DU?$char_traits@D@std@@@std@@UEAAPEAXI@Z (REF 0013: ??1?$basic_ios@DU?$char_traits@D@std@@@std@@UEAA@XZ)
                  56. 08 8E26 0036 0000:??_G?$basic_streambuf@DU?$char_traits@D@std@@@std@@UEAAPEAXI@Z (REF 0013: ??1?$basic_streambuf@DU?$char_traits@D@std@@@std@@UEAA@XZ)
                  57. 08 8E26 0036 0000:??_G?$basic_stringbuf@DU?$char_traits@D@std@@V?$allocator@D@2@@std@@UEAAPEAXI@Z (REF 0013: ??1?$basic_stringbuf@DU?$char_traits@D@std@@V?$allocator@D@2@@std@@UEAA@XZ)
                  58. 08 8E26 0036 0000:??_G?$basic_stringbuf@GU?$char_traits@G@std@@V?$allocator@G@2@@std@@UEAAPEAXI@Z (REF 0013: ??1?$basic_stringbuf@GU?$char_traits@G@std@@V?$allocator@G@2@@std@@UEAA@XZ)
                  59. 08 8E26 0036 0000:??_G?$basic_filebuf@DU?$char_traits@D@std@@@std@@UEAAPEAXI@Z (REF 0013: ??1?$basic_filebuf@DU?$char_traits@D@std@@@std@@UEAA@XZ)
              E8........4883C428C3:
                0. 00 0000 0017 (!)0000:?
            3848:
              8B442440488B40384889442420EB0D488B44:
                0. 33 34F7 0053 0000:?_Callfns@ios_base@std@@AEAAXW4event@12@@Z
              C7442420FEFFFFFF488B4C2440E8:
                0. 09 D85C 0088 0000:??0?$basic_stringbuf@DU?$char_traits@D@std@@V?$allocator@D@2@@std@@QEAA@H@Z (l)0070:?dtor$0@?0???0?$basic_stringbuf@DU?$char_traits@D@std@@V?$allocator@D@2@@std@@QEAA@H@Z@4HA (REF 001C: ??0?$basic_streambuf@DU?$char_traits@D@std@@@std@@IEAA@XZ)
                1. 09 D85C 0088 0000:??0?$basic_stringbuf@GU?$char_traits@G@std@@V?$allocator@G@2@@std@@QEAA@H@Z (l)0070:?dtor$0@?0???0?$basic_stringbuf@GU?$char_traits@G@std@@V?$allocator@G@2@@std@@QEAA@H@Z@4HA (REF 001C: ??0?$basic_streambuf@GU?$char_traits@G@std@@@std@@IEAA@XZ)
            48488B4C2450E8........4885C00F84:
              80000000:
                0. 06 D740 0105 0000:?pbackfail@?$basic_stringbuf@DU?$char_traits@D@std@@V?$allocator@D@2@@std@@MEAAHH@Z
              8F000000:
                0. 06 D740 0180 0000:?pbackfail@?$basic_filebuf@DU?$char_traits@D@std@@@std@@MEAAHH@Z
          8B442408:
            488B40:
              588B4C24108B002BC1488B4C240848:
                0. 26 606B 0046 0000:?gbump@?$basic_streambuf@DU?$char_traits@D@std@@@std@@IEAAXH@Z
                1. 27 A1CB 0047 0000:?gbump@?$basic_streambuf@GU?$char_traits@G@std@@@std@@IEAAXH@Z
              608B4C24108B002BC1488B4C240848:
                0. 27 063E 0047 0000:?pbump@?$basic_streambuf@GU?$char_traits@G@std@@@std@@IEAAXH@Z
                1. 26 4AEC 0046 0000:?pbump@?$basic_streambuf@DU?$char_traits@D@std@@@std@@IEAAXH@Z
            C3:
              0. 00 0000 000F (!)0000:?
        C3:
          0. 00 0000 000A (!)0000:?
      8BC44881ECA800000048895818488970F8488978F04C8970D84C8B:
        0. 10 AB33 061D (l)0000:fts_build (l)03F8:$mem1$2002
    F20F114424084883EC:
      28:
        660F12442430E8........85C07412660F12:
          0. 07 2A13 0083 0000:__ldexp
        8B542438660F12442430E8........4883C4:
          0. 02 2316 0022 0000:?ldexp@?$_Ctraits@O@std@@SAOOH@Z (REF 0019: ?ldexpl@@YAOOH@Z)
          1. 02 2316 0022 0000:?ldexpl@@YAOOH@Z (REF 0019: ldexp)
      58660F12442460F20F114424308B4424348944:
        0. 51 A5B2 0217 0000:__scalbn
    F30F114424084883EC:
      28:
        8B542438F30F10442430E8........4883C4:
          0. 02 2316 0022 0000:?ldexp@?$_Ctraits@M@std@@SAMMH@Z
        F30F:
          10442430E8........85C07411F30F10:
            0. 06 C840 0081 0000:__ldexpf
          5A4424308B542438E8........F20F5A:
            0. 06 C213 0026 0000:ldexpf
      48F30F10442450F30F114424288B4424288944:
        0. 41 5FB6 01EC 0000:__scalbnf
8B:
  01:
    2B02C3:
      0. 00 0000 0005 (l)0000:lcomp
    8B5104448BC003C0448BCA89018D041241C1E81F410BC041C1E91F894104:
      0. 0C 804D 002C 0000:__shl_12
  0289018B42048941048B4208894108C3:
    0. 00 0000 0011 0000:_CopyMan
  114C8BC1F6C2077422F6C201740333C0C3F6C202740AD1EAB8010000008911:
    0. 5D 919E 007D (l)0000:lo0bits
  41:
    08:
      4C8BC18B4A083BC1750B418B40048B4A043BC174032BC1C3418B002B02:
        0. 01 EF04 0021 (l)0000:time_cmp
      8B5104448BC0D1E8448BCA8941088B0141C1E01F41C1E11FD1EAD1E841:
        0. 0B 17DF 002B 0000:__shr_12
    10448B41144C8BC9FFC04181C06C07000083F802743683F804742083F806:
      0. 97 71D9 00B7 (l)0000:validate
    14:
      2B421475248B41102B4210751C8B410C2B420C75148B41082B4208750C:
        0. 0F 590E 002F (l)0000:tmcomp
      448BC24533C983C0074C8BD99983E20703C2410FB7D04C8B4120C1F803:
        0. 23 A6B5 0043 (l)0000:isinsets
      4C8BCA486352142BC27544418B4491144C8D4118498D4C911441394490:
        0. 35 56B7 0055 (l)0000:cmp
    304C8BCA4C8BD13902732D666690418B09498B024C8BC14D03C04A8B54C0:
      0. 32 355D 0052 0000:__ohash_next
    342B4138C3:
      0. 00 0000 0007 0000:__ohash_entries
  51304C8B4110488BC1488B0948C1E20448FF6020:
    0. 00 0000 0015 0000:__ohash_delete
  C1:
    2500F003003D00600000772B74243D0010000074183D00200000740C3D00:
      0. FF DEA7 0168 0000:__strmode
    488905........C3:
      0. 00 0000 000A 0000:__srand (REF 0005: next)
  C24C8BC1B91F0000009983E21F448BC803C241C1F90583E01F2BC2BAFFFFFF:
    0. 39 E3DD 0059 0000:_ZeroTail
8D:
  04113BC172043BC27309418900B801000000C341890033C0C3:
    0. 00 0000 001A 0000:__addl
  42D54C8BD983F84A0F87C1000000488D0D........48980FB68401:
    0. 04 7356 0133 (l)0000:addcmd (l)002E:$LN10 (l)004B:$LN9 (l)0065:$LN8 (l)00D0:$LN1
B8:
  38250000E8........482BE0488B05........48898424102500004885C948:
    0. 1A FAE5 062C (l)0000:tzload
  48100000E8........482BE048833900750A33C04881C448100000C34C894C:
    0. 2C A637 0058 (l)0000:glob1
  78140000E8........482BE0488B05........48898424401400004889AC24:
    0. 80 9554 0203 0000:__glob
  C8410000E8........482BE0488B05........48898424804100004889AC24:
    0. 7B 11FA 041F 0000:__rexec (l)0100:$retry$2725 (l)0319:$bad$2748
  F8180000E8........482BE0488B05........48898424A01800004889AC24:
    0. 5E 8C6F 0A1D 0000:__ruserpass (l)0160:$next$1764 (l)04A0:$match$1777 (l)0891:$bad$1803 (l)08D1:$done$1759
  FFFFFFFFC3:
    0. 00 0000 0006 0000:?eof@?$char_traits@D@std@@SAHXZ
B9:
  1C000000E9:
    0. 00 0000 000A 0000:__getpagesize (REF 0006: __sysconf)
  801F0000E9:
    0. 00 0000 000A 0000:_fpreset (REF 0006: _set_fpsr)
BA00000300B900000100E9:
  0. 00 0000 000F 0000:_setdefaultprecision
C7:
  0200000000837930004C8BCA4C8BD1762A418B11498B024C8BC24D03C04A8B:
    0. 34 A0F5 0054 0000:__ohash_first
  05........00000000C3:
    0. 00 0000 000B 0000:__dummy_function (REF 0002: errno)
  4120FFFFFFFFC7411CFFFFFFFFC74118FFFFFFFFC74114FFFFFFFFC74110FF:
    0. 1F D164 003F (l)0000:cleartime
  44240800000000C744240C0000F07F660F12442408C3:
    0. 00 0000 0017 (l)0000:getInf
CCCCCCCCCCCC6666669066666690669048:
  81EC:
    380500004885D2750348FFC24D:
      0. D6 236D 00FC 0010:__longjmpex (l)001F:LJ10 (l)00B3:LJ20
    D80400004D33C04D33C9488964:
      0. 08 7E2A 0071 0010:_local_unwind 0040:_NLG_Notify 0060:__NLG_Dispatch2 0070:__NLG_Return2
  83EC:
    080FAE1C248B04244883C408C3:
      0. 00 0000 0020 0010:_get_fpsr
    104C8914244C895C24084D33DB:
      0. 3E B0E4 005E 0010:__chkstk (l)0040:cs10 (l)0050:cs20
    1848894C242048895424284489:
      0. 0A 7F5A 0055 0010:_CallSettingFrame
  8B05........4885C00F85DF000000:
    0. B6 4B07 0101 0010:setjmp (l)00FF:SJ10
E9:
  0. 00 0000 0005 0000:__sigvec (REF 0001: __sigaction)
  1. 00 0000 0005 0000:__putwc (REF 0001: __fputwc)
  2. 00 0000 0005 0000:__putc (REF 0001: __fputc)
  3. 00 0000 0005 0000:__getwc (REF 0001: __fgetwc)
  4. 00 0000 0005 0000:__getc (REF 0001: __fgetc)
F20F:
  11:
    442408:
      48:
        81EC:
          88000000660F12842490000000F20F114424:
            508B442454:
              0. 44 FB02 05C9 0000:__log1p
            588B44245C:
              0. 7F EC31 0464 0000:__atan
            608B442464:
              0. 3D B5FC 051B 0000:__log
          98000000660F:
            128424A0000000F20F114424:
              708B442474:
                0. 35 04BC 0983 0000:__erfc
                1. 3F 650A 0938 0000:__erf
                2. 37 79AE 0438 (l)0000:$LN19
                3. 6F CAE6 067C 0000:__acos
              788B44247C:
                0. 25 1F81 03A4 (l)0000:$LN17
            57C0F20F114424:
              20660F57C0F20F110424:
                0. E2 143B 0484 0000:__exp
              30660F128424A0000000:
                0. FF 00E2 0354 0000:__cbrt
              60660F128424A0000000:
                0. 6A 1BA5 0594 0000:__asin
          A8000000660F128424B0000000F20F114424708B442474:
            0. 50 C5ED 0455 (l)0000:$LN16 (03E4: C3)
            1. 50 C5ED 046E (l)0000:$LN16 (03E4: C1)
          F8000000660F12842400010000F20F114424608B442464:
            0. 33 E67C 07EB 0000:__expm1
        83EC:
          18660F12442420F20F11:
            04248B442404C1E8:
              1425FF0700:
                0. 33 0AEB 0053 0000:__isnormal
                1. 23 3884 0043 0000:__isfinite
                2. 64 C3FB 0084 0000:__fpclassifyd
              1F83E00148:
                0. 04 4032 0024 0000:__signbit
            4424088B44240C89042433C085:
              0. 18 2630 0038 0000:__finite
          28:
            488D15........660F12442430E8........4883C428:
              0. 01 EF04 0021 0000:__gamma (REF 0018: __gamma_r)
              1. 01 EF04 0021 0000:__lgamma (REF 0018: __lgamma_r)
            660F12442430:
              E8........:
                4883C428C3:
                  0. 00 0000 001A (!)0000:? (REF 0011: sqrt)
                  1. 00 0000 001A 0000:?sqrt@?$_Ctraits@O@std@@SAOO@Z (REF 0011: ?sqrtl@@YAOO@Z)
                  2. 00 0000 001A 0000:?cos@?$_Ctraits@O@std@@SAOO@Z (REF 0011: ?cosl@@YAOO@Z)
                  3. 00 0000 001A 0000:?sin@?$_Ctraits@O@std@@SAOO@Z (REF 0011: ?sinl@@YAOO@Z)
                  4. 00 0000 001A 0000:?log@?$_Ctraits@O@std@@SAOO@Z (REF 0011: ?logl@@YAOO@Z)
                  5. 00 0000 001A 0000:?tan@?$_Ctraits@O@std@@SAOO@Z (REF 0011: ?tanl@@YAOO@Z)
                F7D8F20F2AC0F20F10C866:
                  0. 06 2BB1 002F 0000:__significand
              F20F114424:
                088B44240C89042433C085:
                  0. 38 9A05 0058 0000:__fabs
                108B442414894424088B44:
                  0. E0 BF78 0100 0000:__ilogb
          38:
            488D4C2440E8........9883F8:
              01750AC74424200100:
                0. 15 2AA2 0035 0000:?_Isinf@?$_Ctraits@N@std@@SA_NN@Z (REF 0010: _Dtest)
                1. 15 2AA2 0035 0000:?_Isinf@?$_Ctraits@O@std@@SA_NO@Z (REF 0010: _LDtest)
              02750AC74424200100:
                0. 15 2AA2 0035 0000:?_Isnan@?$_Ctraits@N@std@@SA_NN@Z (REF 0010: _Dtest)
                1. 15 2AA2 0035 0000:?_Isnan@?$_Ctraits@O@std@@SA_NO@Z (REF 0010: _LDtest)
            660F12442440F20F114424:
              188B44241C894424088B44:
                0. 37 E995 01A9 0000:__trunc
              288B44242C894424208B44:
                0. 30 E35E 00AE 0000:__logb
          48:
            48895C246848896C2440B92400000048897424384C89:
              0. 0A 3411 025A (l)0000:d2b
            660F12442450F20F114424:
              188B44241C894424088B44:
                0. 37 28E8 025C 0000:__ceil
                1. 37 AB13 025D 0000:__floor
              308B442434894424:
                0833C0:
                  0. 1E A1BF 0244 (l)0000:pzero (0205: C3) (REF 003E: pR8)
                  1. 1E A1BF 0244 (l)0000:pone (0205: C3) (REF 003E: pr8)
                  2. 1E A1BF 026A (l)0000:qzero (0205: 66) (REF 003E: qR8)
                  3. 1E A1BF 026A (l)0000:qone (0205: 66) (REF 003E: qr8)
                248B44:
                  0. 6A FA56 018A 0000:__acosh
          58:
            660F:
              12442460F20F114424388B44243C894424:
                28:
                  33C0:
                    0. 1F 2C1B 02D0 (l)0000:sin_pi (l)0195:$LN5 (l)01BE:$LN4 (l)01F4:$LN3 (l)022A:$LN2
                    1. 3D BD3A 01CF 0000:__cosh
                  8B44:
                    0. 6E BCE2 01AC 0000:__atanh
                2C33C0:
                  0. 3A 949E 01B8 0000:__asinh
              57C0F20F11442438660F12442460F20F11442440:
                0. 35 396F 0134 0000:__sin
                1. 32 8B19 0131 0000:__cos
                2. 38 A687 00B9 0000:__tan
            C744241000000080660F12442460F20F114424408B44:
              0. FF 21A0 04CB 0000:__sqrt
          68660F12442470F20F114424:
            288B44242C894424148B44:
              0. D3 088E 030F 0000:__rint
            408B4424448944243833C0:
              0. 26 6DCD 01C5 0000:__tanh
            488B44244C8944244033C0:
              0. 30 ED3C 020E 0000:__sinh
          78660F12842480000000F20F114424488B44244C894424:
            0. 3A F426 01E6 0000:__log10
        8B:
          442408:
            48:
              8BC848C1E9200FBAF11F81F90000F07F750A85C0:
                0. 0B E4C9 002B 0000:__isinf
              C1E83066C1E8046625FF07662DFE0398C3:
                0. 00 0000 001D 0000:_get_exp
            8BC8F7D90BC848C1E8200FBAF01FC1E91F0BC8B800:
              0. 09 7D18 0029 0000:__isnan
            F20F1144241848C1E83066:
              81C2FE0366250F8066C1:
                0. 11 E193 0031 0000:_set_exp
              C1E20466250F80660BC2:
                0. 0C 63EA 002C 0000:_set_bexp
          4C24:
            08:
              48C1E92081E10000F07F81E90000400385C97E1389:
                0. 62 4537 0082 (l)0000:ulp
              F20F11442420488B44242048C1E930F20F11442418:
                0. 27 488C 0047 0000:_add_exp
            10488B4424084881F90000F07F750B4885C0751BB801:
              0. 56 47F6 0076 0000:_sptype
      565748:
        81ECA8000000:
          660F128424C0000000F20F5C05:
            0. 10 49F4 0296 (l)0000:small_gam
          C744242801000000660F128424C0000000:
            0. 04 DEB2 035A (l)0000:neg_gam
        83EC:
          68833D........00740AC744245001000000EB08C7:
            0. 0D 189E 01A6 0000:__tgamma
          78660F1205........660F2F8424900000000F864C:
            0. 15 A1B0 02D3 (l)0000:smaller_gam
      660F1205........C3:
        0. 00 0000 000F 0000:?_Infv@?$_Ctraits@N@std@@SANN@Z (REF 000A: _Inf)
        1. 00 0000 000F 0000:?_Nanv@?$_Ctraits@N@std@@SANN@Z (REF 000A: _Nan)
        2. 00 0000 000F 0000:?_Infv@?$_Ctraits@O@std@@SAOO@Z (REF 000A: _LInf)
        3. 00 0000 000F 0000:?_Nanv@?$_Ctraits@O@std@@SAOO@Z (REF 000A: _LNan)
    4C2410:
      48894C240856574881EC:
        88000000660F128424A8000000F20F59:
          0. 0A 1D0C 02B6 (l)0000:large_gam
        98000000660F1205........F20F1144:
          0. 0C 3E32 03AF 0000:__log__D
        F800000048C78424B0000000FEFFFFFF:
          0. 16 C7CD 02B9 0000:??6?$basic_ostream@DU?$char_traits@D@std@@@std@@QEAAAEAV01@O@Z (l)01CE:$LN13 (l)0230:?dtor$0@?0???6?$basic_ostream@DU?$char_traits@D@std@@@std@@QEAAAEAV01@O@Z@4HA (l)0250:?dtor$1@?0???6?$basic_ostream@DU?$char_traits@D@std@@@std@@QEAAAEAV01@O@Z@4HA (l)0270:?catch$0@?0???6?$basic_ostream@DU?$char_traits@D@std@@@std@@QEAAAEAV01@O@Z@4HA (l)027D:__catch$??6?$basic_ostream@DU?$char_traits@D@std@@@std@@QEAAAEAV01@O@Z$0 (0276: 1E) (REF 01A3: ?put@?$num_put@DV?$ostreambuf_iterator@DU?$char_traits@D@std@@@std@@@std@@QEBA?AV?$ostreambuf_iterator@DU?$char_traits@D@std@@@2@V32@AEAVios_base@2@DO@Z)
          1. 16 C7CD 02B9 0000:??6?$basic_ostream@DU?$char_traits@D@std@@@std@@QEAAAEAV01@N@Z (l)01CE:$LN13 (l)0230:?dtor$0@?0???6?$basic_ostream@DU?$char_traits@D@std@@@std@@QEAAAEAV01@N@Z@4HA (l)0250:?dtor$1@?0???6?$basic_ostream@DU?$char_traits@D@std@@@std@@QEAAAEAV01@N@Z@4HA (l)0270:?catch$0@?0???6?$basic_ostream@DU?$char_traits@D@std@@@std@@QEAAAEAV01@N@Z@4HA (l)027D:__catch$??6?$basic_ostream@DU?$char_traits@D@std@@@std@@QEAAAEAV01@N@Z$0 (0276: 1E) (REF 01A3: ?put@?$num_put@DV?$ostreambuf_iterator@DU?$char_traits@D@std@@@std@@@std@@QEBA?AV?$ostreambuf_iterator@DU?$char_traits@D@std@@@2@V32@AEAVios_base@2@DN@Z)
          2. 16 C7CD 02B9 0000:??6?$basic_ostream@GU?$char_traits@G@std@@@std@@QEAAAEAV01@O@Z (l)01D0:$LN13 (l)0230:?dtor$0@?0???6?$basic_ostream@GU?$char_traits@G@std@@@std@@QEAAAEAV01@O@Z@4HA (l)0250:?dtor$1@?0???6?$basic_ostream@GU?$char_traits@G@std@@@std@@QEAAAEAV01@O@Z@4HA (l)0270:?catch$0@?0???6?$basic_ostream@GU?$char_traits@G@std@@@std@@QEAAAEAV01@O@Z@4HA (l)027D:__catch$??6?$basic_ostream@GU?$char_traits@G@std@@@std@@QEAAAEAV01@O@Z$0 (0276: 20) (REF 01A5: ?put@?$num_put@GV?$ostreambuf_iterator@GU?$char_traits@G@std@@@std@@@std@@QEBA?AV?$ostreambuf_iterator@GU?$char_traits@G@std@@@2@V32@AEAVios_base@2@GO@Z)
          3. 16 C7CD 02B9 0000:??6?$basic_ostream@GU?$char_traits@G@std@@@std@@QEAAAEAV01@N@Z (l)01D0:$LN13 (l)0230:?dtor$0@?0???6?$basic_ostream@GU?$char_traits@G@std@@@std@@QEAAAEAV01@N@Z@4HA (l)0250:?dtor$1@?0???6?$basic_ostream@GU?$char_traits@G@std@@@std@@QEAAAEAV01@N@Z@4HA (l)0270:?catch$0@?0???6?$basic_ostream@GU?$char_traits@G@std@@@std@@QEAAAEAV01@N@Z@4HA (l)027D:__catch$??6?$basic_ostream@GU?$char_traits@G@std@@@std@@QEAAAEAV01@N@Z$0 (0276: 20) (REF 01A5: ?put@?$num_put@GV?$ostreambuf_iterator@GU?$char_traits@G@std@@@std@@@std@@QEBA?AV?$ostreambuf_iterator@GU?$char_traits@G@std@@@2@V32@AEAVios_base@2@GN@Z)
      894C24084881EC:
        B8000000660F128424C8000000F20F11442450:
          0. 6E 34DA 03FE 0000:__yn
        E8000000660F128424F8000000F20F11442470:
          0. 78 076D 0868 0000:__jn
      F20F1144240848:
        81EC:
          18010000660F12842420010000F20F1144:
            0. FF F38F 0664 0000:__hypot
          A8000000660F128424B8000000F20F1144:
            0. C9 9669 04BF 0000:__atan2
          D8010000660F128424E0010000F20F1184:
            0. 8F EFD2 13CD 0000:__pow
        83EC:
          28660F12:
            442430:
              E8........85C0750F66:
                0. 06 EB7F 0129 0000:__scalb
              F20F11:
                0424660F124424:
                  0. C3 61AC 00E3 0000:__fmin
                  1. C3 EB03 00E3 0000:__fmax
                4424088B44240C:
                  0. 64 CC88 0084 0000:__copysign
            4C2438660F12442430E8:
              0. 00 0000 0026 (!)0000:? (REF 001D: atan2)
              1. 00 0000 0026 0000:?_Cosh@?$_Ctraits@N@std@@SANNN@Z (REF 001D: _Cosh)
              2. 00 0000 0026 0000:?_Sinh@?$_Ctraits@N@std@@SANNN@Z (REF 001D: _Sinh)
              3. 00 0000 0026 0000:?atan2@?$_Ctraits@O@std@@SAOOO@Z (REF 001D: ?atan2l@@YAOOO@Z)
              4. 00 0000 0026 0000:?_Cosh@?$_Ctraits@O@std@@SAOOO@Z (REF 001D: _LCosh)
              5. 00 0000 0026 0000:?_Sinh@?$_Ctraits@O@std@@SAOOO@Z (REF 001D: _LSinh)
              6. 00 0000 0026 0000:?pow@?$_Ctraits@O@std@@SAOOO@Z (REF 001D: ?powl@@YAOOO@Z)
              7. 00 0000 0026 0000:__drem (REF 001D: __remainder)
          38:
            488D4C2440E8........988944242083:
              0. 36 72FF 0127 0000:_Cosh (REF 0016: _Dtest)
              1. 36 72FF 0127 0000:_LCosh (REF 0016: _LDtest)
            660F12442440E8........85C0740866:
              0. 0E ECE9 0075 0000:__fdim
          48660F12442450F20F114424:
            188B44241C:
              0. FF EDFE 02A1 0000:__nextafter
            308B442434:
              0. 2F B889 0210 0000:__kernel_cos
          58660F12442460:
            660F2E4424607A02740B:
              0. 0F C858 0272 0000:__exp__D
            F20F114424308B442434:
              0. F2 25E6 05FE 0000:__fmod
          68660F12442470F20F114424408B442444:
            0. F3 8646 026F 0000:__remainder
          78488D8C2480000000E8........988944:
            0. 3B C758 032F 0000:_Sinh (0189: 05)
            1. 3B C758 032F 0000:_LSinh (0189: 07)
    542418F20F114C241048894C240856574883EC38660F12442458F20F59:
      0. 01 D5A7 0333 (l)0000:ratfun_gam
  2AC1F20F2ACAF20F5CC1C3:
    0. 00 0000 000D 0000:__difftime
F30F11:
  442408:
    4883EC:
      18F30F10442420F30F11:
        04248B0424C1E8:
          1725FF000000:
            0. 2E 4037 004E 0000:__isnanf
            1. 22 8694 0042 0000:__isfinitef
            2. 31 CDE7 0051 0000:__isnormalf
            3. 54 EB59 0074 0000:__fpclassifyf
          1F83E0014883:
            0. 03 F100 0023 0000:__signbitf
        4424:
          048B44240489042433C085:
            0. 32 B5EC 0052 0000:__isinff
            1. 18 BA1F 0038 0000:__finitef
            2. 2C DDD3 004C 0000:__fabsf
          088B4424088944240433C0:
            0. 96 7DBB 00B6 0000:__ilogbf
      28:
        488D15........F30F10442430E8........4883C428:
          0. 01 EF04 0021 0000:__gammaf (REF 0018: __gammaf_r)
          1. 01 EF04 0021 0000:__lgammaf (REF 0018: __lgammaf_r)
        F30F10442430:
          E8........:
            4883C428C3:
              0. 00 0000 001A 0000:?sqrt@?$_Ctraits@M@std@@SAMM@Z (REF 0011: sqrtf)
              1. 00 0000 001A 0000:?cos@?$_Ctraits@M@std@@SAMM@Z (REF 0011: cosf)
              2. 00 0000 001A 0000:?sin@?$_Ctraits@M@std@@SAMM@Z (REF 0011: sinf)
              3. 00 0000 001A 0000:?log@?$_Ctraits@M@std@@SAMM@Z (REF 0011: logf)
              4. 00 0000 001A 0000:?tan@?$_Ctraits@M@std@@SAMM@Z (REF 0011: tanf)
            F7D8F30F2AC00F28C8F30F:
              0. 05 D2A2 002E 0000:__significandf
          F30F114424:
            0C8B44240C8944240433C0:
              0. 2D 40C7 0152 0000:__ceilf
              1. 2D 854D 0110 0000:__truncf
              2. 2D E60B 0158 0000:__floorf
            148B4424148944240833C0:
              0. 57 9ADF 0108 0000:__rintf
      38:
        488D4C2440E8........9883F8:
          01750AC74424200100:
            0. 15 2AA2 0035 0000:?_Isinf@?$_Ctraits@M@std@@SA_NM@Z
          02750AC74424200100:
            0. 15 2AA2 0035 0000:?_Isnan@?$_Ctraits@M@std@@SA_NM@Z
        C744241000000080F30F10442440F30F114424248B44:
          0. FF 3F98 027D 0000:__sqrtf
        F30F10442440F30F114424:
          208B4424208944240833C0:
            0. 1E 09D8 0230 (l)0000:pzerof (01F1: C3) (REF 003E: pR8)
            1. 1E 09D8 0230 (l)0000:ponef (01F1: C3) (REF 003E: pr8)
            2. 1E 09D8 0254 (l)0000:qzerof (01F1: 0F)
            3. 1E A1BF 0254 (l)0000:qonef
          248B4424248944242033C0:
            0. 1F 5A7C 009A 0000:__logbf
          288B4424288944242033C0:
            0. 62 A491 0175 0000:__acoshf
          2C8B44242C8944242433C0:
            0. 3D 4A8F 019B 0000:__coshf
      48:
        0F57C0F30F11442430F30F10442450F30F114424348B:
          0. 34 61F0 0131 0000:__sinf
          1. 37 7C6B 00B8 0000:__tanf
          2. 31 825C 012E 0000:__cosf
        F30F10442450F30F114424:
          188B4424188944240C33C0:
            0. C5 4860 01F8 0000:__cbrtf
          2C8B44242C8944242433C0:
            0. 50 C964 017E 0000:__atanhf
          308B442430894424:
            2433C0:
              0. 1F 6F3D 02C8 (l)0000:sin_pif (l)0192:$LN5 (l)01BB:$LN4 (l)01F0:$LN3 (l)0225:$LN2
            2833C0:
              0. 3A 75A1 01B0 0000:__asinhf
            2C33C0:
              0. 26 0378 01C0 0000:__tanhf
          348B442434894424:
            0C33C0:
              0. 2B CE3A 04C3 0000:__logf
            3033C0:
              0. 30 0BB6 01D6 0000:__sinhf
      58:
        0F57C0F30F114424100F57C0F30F110424C744240C00:
          0. 9E 85E8 03E1 0000:__expf
        F30F10442460F30F114424:
          2C8B44242C8944242433C0:
            0. 3A A97C 0556 0000:__log1pf
          348B4424348944243033C0:
            0. 2B E9F4 01A7 0000:__log10f
          3C8B44243C8944243833C0:
            0. 41 8A6D 03C5 0000:__atanf
      68:
        0F57C0F30F11442440F30F10442470F30F114424448B:
          0. 2E 2DE0 051E 0000:__asinf
        F30F10442470F30F114424:
          448B4424448944243833C0:
            0. 38 EE2D 03D6 0000:__y1f (037B: C4)
            1. 38 EE2D 03F1 0000:__y0f (037B: 0D)
          488B442448894424:
            3833C0:
              0. 2B 2A63 03D7 0000:__j0f
            3C33C0:
              0. 30 FBB5 05F7 0000:__acosf
            4433C0:
              0. 2F E3E5 08E2 0000:__erfcf
          4C8B44244C894424:
            3C33C0:
              0. 1F 890E 0363 0000:__j1f
            4833C0:
              0. 39 FA64 0895 0000:__erff
      78F30F10842480000000F30F114424308B442430894424:
        0. 30 6F7E 06FB 0000:__expm1f
    F30F1005........C3:
      0. 00 0000 000F 0000:?_Infv@?$_Ctraits@M@std@@SAMM@Z (REF 000A: _FInf)
      1. 00 0000 000F 0000:?_Nanv@?$_Ctraits@M@std@@SAMM@Z (REF 000A: _FNan)
  4C2410:
    48894C240856574881ECF800000048C78424B0000000FEFFFFFF:
      0. 16 C7CD 02B9 0000:??6?$basic_ostream@DU?$char_traits@D@std@@@std@@QEAAAEAV01@M@Z (l)01CE:$LN13 (l)0230:?dtor$0@?0???6?$basic_ostream@DU?$char_traits@D@std@@@std@@QEAAAEAV01@M@Z@4HA (l)0250:?dtor$1@?0???6?$basic_ostream@DU?$char_traits@D@std@@@std@@QEAAAEAV01@M@Z@4HA (l)0270:?catch$0@?0???6?$basic_ostream@DU?$char_traits@D@std@@@std@@QEAAAEAV01@M@Z@4HA (l)027D:__catch$??6?$basic_ostream@DU?$char_traits@D@std@@@std@@QEAAAEAV01@M@Z$0 (0276: 1E)
      1. 16 C7CD 02B9 0000:??6?$basic_ostream@GU?$char_traits@G@std@@@std@@QEAAAEAV01@M@Z (l)01D0:$LN13 (l)0230:?dtor$0@?0???6?$basic_ostream@GU?$char_traits@G@std@@@std@@QEAAAEAV01@M@Z@4HA (l)0250:?dtor$1@?0???6?$basic_ostream@GU?$char_traits@G@std@@@std@@QEAAAEAV01@M@Z@4HA (l)0270:?catch$0@?0???6?$basic_ostream@GU?$char_traits@G@std@@@std@@QEAAAEAV01@M@Z@4HA (l)027D:__catch$??6?$basic_ostream@GU?$char_traits@G@std@@@std@@QEAAAEAV01@M@Z$0 (0276: 20)
    894C24084883EC:
      58F30F10442468F30F114424408B4424408944:
        0. 3B 4467 0201 0000:__ynf
      78F30F10842488000000F30F114424488B4424:
        0. 57 6936 0627 0000:__jnf
    F30F1144240848:
      81EC:
        18010000F30F10842420010000F30F1184:
          0. 5E 5867 10B0 0000:__powf
        88000000F30F10842490000000F30F1144:
          0. FF 9C0B 048A 0000:__hypotf
      83EC:
        18F30F10442420F30F110424F30F104424:
          0. B0 5BF8 00D0 0000:__fmaxf
          1. B1 A65D 00D1 0000:__fminf
        28F30F10:
          442430:
            E8........85C0750FF3:
              0. 06 6369 0124 0000:__scalbf
            F30F114424:
              088B442408:
                0. 58 548D 0078 0000:__copysignf
              188B442418:
                0. 2F 4A23 01FB 0000:__kernel_cosf
          4C2438F30F10442430E8:
            0. 00 0000 0026 0000:?atan2@?$_Ctraits@M@std@@SAMMM@Z (REF 001D: atan2f)
            1. 00 0000 0026 0000:?_Cosh@?$_Ctraits@M@std@@SAMMM@Z (REF 001D: _FCosh)
            2. 00 0000 0026 0000:?_Sinh@?$_Ctraits@M@std@@SAMMM@Z (REF 001D: _FSinh)
            3. 00 0000 0026 0000:?pow@?$_Ctraits@M@std@@SAMMM@Z (REF 001D: powf)
            4. 00 0000 0026 0000:__dremf (REF 001D: __remainderf)
        38:
          488D4C2440E8........988944242083:
            0. 36 9023 0128 0000:_FCosh
          F30F10442440:
            E8........85C07408F3:
              0. 0E 28A0 0078 0000:__fdimf
            F30F114424:
              108B442410:
                0. FF 1344 01E3 0000:__nextafterf
              208B442420:
                0. B2 94CD 036D 0000:__fmodf
        48:
          488D4C2450E8........988944242883:
            0. 31 815B 02A2 0000:_FSinh
          F30F10442450F30F114424308B442430:
            0. C8 03C8 0226 0000:__remainderf
        78F30F10842488000000F30F1144243C8B:
          0. 83 8979 041C 0000:__atan2f
FF:
  4908488BD17905E9........488B0948FFC10FB641FF48890AC3:
    0. 00 0000 001B 0000:__getc_unlocked
  4A0C8B420C79283B42287C1E488B028808488B0A0FB6013C0A740A48FFC10F:
    0. 0C D778 0042 0000:__putc_unlocked
